ARM GAS  C:\Users\49542\AppData\Local\Temp\ccK7V8j3.s 			page 1


   1              		.cpu cortex-m4
   2              		.eabi_attribute 27, 1
   3              		.eabi_attribute 28, 1
   4              		.eabi_attribute 20, 1
   5              		.eabi_attribute 21, 1
   6              		.eabi_attribute 23, 3
   7              		.eabi_attribute 24, 1
   8              		.eabi_attribute 25, 1
   9              		.eabi_attribute 26, 1
  10              		.eabi_attribute 30, 1
  11              		.eabi_attribute 34, 1
  12              		.eabi_attribute 18, 4
  13              		.file	"gd25qxx.c"
  14              		.text
  15              	.Ltext0:
  16              		.cfi_sections	.debug_frame
  17              		.section	.text.spi_flash_init,"ax",%progbits
  18              		.align	1
  19              		.global	spi_flash_init
  20              		.syntax unified
  21              		.thumb
  22              		.thumb_func
  23              		.fpu fpv4-sp-d16
  25              	spi_flash_init:
  26              	.LFB116:
  27              		.file 1 "C:/Users/49542/Desktop/GD32F30x_Demo_Suites_V2.0.0/GD32F30x_Demo_Suites_V2.0.0/BearPi-IoT
   1:C:/Users/49542/Desktop/GD32F30x_Demo_Suites_V2.0.0/GD32F30x_Demo_Suites_V2.0.0/BearPi-IoT_GD32F303_Demo_Suites/Projects/25_ALL_TEST/Soft_Drive\gd25qxx.c **** /*!
   2:C:/Users/49542/Desktop/GD32F30x_Demo_Suites_V2.0.0/GD32F30x_Demo_Suites_V2.0.0/BearPi-IoT_GD32F303_Demo_Suites/Projects/25_ALL_TEST/Soft_Drive\gd25qxx.c ****     \file  gd25qxx.c
   3:C:/Users/49542/Desktop/GD32F30x_Demo_Suites_V2.0.0/GD32F30x_Demo_Suites_V2.0.0/BearPi-IoT_GD32F303_Demo_Suites/Projects/25_ALL_TEST/Soft_Drive\gd25qxx.c ****     \brief SPI flash gd25qxx driver
   4:C:/Users/49542/Desktop/GD32F30x_Demo_Suites_V2.0.0/GD32F30x_Demo_Suites_V2.0.0/BearPi-IoT_GD32F303_Demo_Suites/Projects/25_ALL_TEST/Soft_Drive\gd25qxx.c **** 
   5:C:/Users/49542/Desktop/GD32F30x_Demo_Suites_V2.0.0/GD32F30x_Demo_Suites_V2.0.0/BearPi-IoT_GD32F303_Demo_Suites/Projects/25_ALL_TEST/Soft_Drive\gd25qxx.c ****     \version 2017-02-10, V1.0.0, demo for GD32F30x
   6:C:/Users/49542/Desktop/GD32F30x_Demo_Suites_V2.0.0/GD32F30x_Demo_Suites_V2.0.0/BearPi-IoT_GD32F303_Demo_Suites/Projects/25_ALL_TEST/Soft_Drive\gd25qxx.c ****     \version 2018-10-10, V1.1.0, demo for GD32F30x
   7:C:/Users/49542/Desktop/GD32F30x_Demo_Suites_V2.0.0/GD32F30x_Demo_Suites_V2.0.0/BearPi-IoT_GD32F303_Demo_Suites/Projects/25_ALL_TEST/Soft_Drive\gd25qxx.c ****     \version 2018-12-25, V2.0.0, demo for GD32F30x
   8:C:/Users/49542/Desktop/GD32F30x_Demo_Suites_V2.0.0/GD32F30x_Demo_Suites_V2.0.0/BearPi-IoT_GD32F303_Demo_Suites/Projects/25_ALL_TEST/Soft_Drive\gd25qxx.c **** */
   9:C:/Users/49542/Desktop/GD32F30x_Demo_Suites_V2.0.0/GD32F30x_Demo_Suites_V2.0.0/BearPi-IoT_GD32F303_Demo_Suites/Projects/25_ALL_TEST/Soft_Drive\gd25qxx.c **** 
  10:C:/Users/49542/Desktop/GD32F30x_Demo_Suites_V2.0.0/GD32F30x_Demo_Suites_V2.0.0/BearPi-IoT_GD32F303_Demo_Suites/Projects/25_ALL_TEST/Soft_Drive\gd25qxx.c **** /*
  11:C:/Users/49542/Desktop/GD32F30x_Demo_Suites_V2.0.0/GD32F30x_Demo_Suites_V2.0.0/BearPi-IoT_GD32F303_Demo_Suites/Projects/25_ALL_TEST/Soft_Drive\gd25qxx.c ****     Copyright (c) 2018, GigaDevice Semiconductor Inc.
  12:C:/Users/49542/Desktop/GD32F30x_Demo_Suites_V2.0.0/GD32F30x_Demo_Suites_V2.0.0/BearPi-IoT_GD32F303_Demo_Suites/Projects/25_ALL_TEST/Soft_Drive\gd25qxx.c **** 
  13:C:/Users/49542/Desktop/GD32F30x_Demo_Suites_V2.0.0/GD32F30x_Demo_Suites_V2.0.0/BearPi-IoT_GD32F303_Demo_Suites/Projects/25_ALL_TEST/Soft_Drive\gd25qxx.c ****     All rights reserved.
  14:C:/Users/49542/Desktop/GD32F30x_Demo_Suites_V2.0.0/GD32F30x_Demo_Suites_V2.0.0/BearPi-IoT_GD32F303_Demo_Suites/Projects/25_ALL_TEST/Soft_Drive\gd25qxx.c **** 
  15:C:/Users/49542/Desktop/GD32F30x_Demo_Suites_V2.0.0/GD32F30x_Demo_Suites_V2.0.0/BearPi-IoT_GD32F303_Demo_Suites/Projects/25_ALL_TEST/Soft_Drive\gd25qxx.c ****     Redistribution and use in source and binary forms, with or without modification, 
  16:C:/Users/49542/Desktop/GD32F30x_Demo_Suites_V2.0.0/GD32F30x_Demo_Suites_V2.0.0/BearPi-IoT_GD32F303_Demo_Suites/Projects/25_ALL_TEST/Soft_Drive\gd25qxx.c **** are permitted provided that the following conditions are met:
  17:C:/Users/49542/Desktop/GD32F30x_Demo_Suites_V2.0.0/GD32F30x_Demo_Suites_V2.0.0/BearPi-IoT_GD32F303_Demo_Suites/Projects/25_ALL_TEST/Soft_Drive\gd25qxx.c **** 
  18:C:/Users/49542/Desktop/GD32F30x_Demo_Suites_V2.0.0/GD32F30x_Demo_Suites_V2.0.0/BearPi-IoT_GD32F303_Demo_Suites/Projects/25_ALL_TEST/Soft_Drive\gd25qxx.c ****     1. Redistributions of source code must retain the above copyright notice, this 
  19:C:/Users/49542/Desktop/GD32F30x_Demo_Suites_V2.0.0/GD32F30x_Demo_Suites_V2.0.0/BearPi-IoT_GD32F303_Demo_Suites/Projects/25_ALL_TEST/Soft_Drive\gd25qxx.c ****        list of conditions and the following disclaimer.
  20:C:/Users/49542/Desktop/GD32F30x_Demo_Suites_V2.0.0/GD32F30x_Demo_Suites_V2.0.0/BearPi-IoT_GD32F303_Demo_Suites/Projects/25_ALL_TEST/Soft_Drive\gd25qxx.c ****     2. Redistributions in binary form must reproduce the above copyright notice, 
  21:C:/Users/49542/Desktop/GD32F30x_Demo_Suites_V2.0.0/GD32F30x_Demo_Suites_V2.0.0/BearPi-IoT_GD32F303_Demo_Suites/Projects/25_ALL_TEST/Soft_Drive\gd25qxx.c ****        this list of conditions and the following disclaimer in the documentation 
  22:C:/Users/49542/Desktop/GD32F30x_Demo_Suites_V2.0.0/GD32F30x_Demo_Suites_V2.0.0/BearPi-IoT_GD32F303_Demo_Suites/Projects/25_ALL_TEST/Soft_Drive\gd25qxx.c ****        and/or other materials provided with the distribution.
  23:C:/Users/49542/Desktop/GD32F30x_Demo_Suites_V2.0.0/GD32F30x_Demo_Suites_V2.0.0/BearPi-IoT_GD32F303_Demo_Suites/Projects/25_ALL_TEST/Soft_Drive\gd25qxx.c ****     3. Neither the name of the copyright holder nor the names of its contributors 
  24:C:/Users/49542/Desktop/GD32F30x_Demo_Suites_V2.0.0/GD32F30x_Demo_Suites_V2.0.0/BearPi-IoT_GD32F303_Demo_Suites/Projects/25_ALL_TEST/Soft_Drive\gd25qxx.c ****        may be used to endorse or promote products derived from this software without 
  25:C:/Users/49542/Desktop/GD32F30x_Demo_Suites_V2.0.0/GD32F30x_Demo_Suites_V2.0.0/BearPi-IoT_GD32F303_Demo_Suites/Projects/25_ALL_TEST/Soft_Drive\gd25qxx.c ****        specific prior written permission.
  26:C:/Users/49542/Desktop/GD32F30x_Demo_Suites_V2.0.0/GD32F30x_Demo_Suites_V2.0.0/BearPi-IoT_GD32F303_Demo_Suites/Projects/25_ALL_TEST/Soft_Drive\gd25qxx.c **** 
  27:C:/Users/49542/Desktop/GD32F30x_Demo_Suites_V2.0.0/GD32F30x_Demo_Suites_V2.0.0/BearPi-IoT_GD32F303_Demo_Suites/Projects/25_ALL_TEST/Soft_Drive\gd25qxx.c ****     THIS SOFTWARE IS PROVIDED BY THE COPYRIGHT HOLDERS AND CONTRIBUTORS "AS IS" 
  28:C:/Users/49542/Desktop/GD32F30x_Demo_Suites_V2.0.0/GD32F30x_Demo_Suites_V2.0.0/BearPi-IoT_GD32F303_Demo_Suites/Projects/25_ALL_TEST/Soft_Drive\gd25qxx.c **** AND ANY EXPRESS OR IMPLIED WARRANTIES, INCLUDING, BUT NOT LIMITED TO, THE IMPLIED 
  29:C:/Users/49542/Desktop/GD32F30x_Demo_Suites_V2.0.0/GD32F30x_Demo_Suites_V2.0.0/BearPi-IoT_GD32F303_Demo_Suites/Projects/25_ALL_TEST/Soft_Drive\gd25qxx.c **** WARRANTIES OF MERCHANTABILITY AND FITNESS FOR A PARTICULAR PURPOSE ARE DISCLAIMED. 
  30:C:/Users/49542/Desktop/GD32F30x_Demo_Suites_V2.0.0/GD32F30x_Demo_Suites_V2.0.0/BearPi-IoT_GD32F303_Demo_Suites/Projects/25_ALL_TEST/Soft_Drive\gd25qxx.c **** IN NO EVENT SHALL THE COPYRIGHT HOLDER OR CONTRIBUTORS BE LIABLE FOR ANY DIRECT, 
  31:C:/Users/49542/Desktop/GD32F30x_Demo_Suites_V2.0.0/GD32F30x_Demo_Suites_V2.0.0/BearPi-IoT_GD32F303_Demo_Suites/Projects/25_ALL_TEST/Soft_Drive\gd25qxx.c **** INDIRECT, INCIDENTAL, SPECIAL, EXEMPLARY, OR CONSEQUENTIAL DAMAGES (INCLUDING, BUT 
ARM GAS  C:\Users\49542\AppData\Local\Temp\ccK7V8j3.s 			page 2


  32:C:/Users/49542/Desktop/GD32F30x_Demo_Suites_V2.0.0/GD32F30x_Demo_Suites_V2.0.0/BearPi-IoT_GD32F303_Demo_Suites/Projects/25_ALL_TEST/Soft_Drive\gd25qxx.c **** NOT LIMITED TO, PROCUREMENT OF SUBSTITUTE GOODS OR SERVICES; LOSS OF USE, DATA, OR 
  33:C:/Users/49542/Desktop/GD32F30x_Demo_Suites_V2.0.0/GD32F30x_Demo_Suites_V2.0.0/BearPi-IoT_GD32F303_Demo_Suites/Projects/25_ALL_TEST/Soft_Drive\gd25qxx.c **** PROFITS; OR BUSINESS INTERRUPTION) HOWEVER CAUSED AND ON ANY THEORY OF LIABILITY, 
  34:C:/Users/49542/Desktop/GD32F30x_Demo_Suites_V2.0.0/GD32F30x_Demo_Suites_V2.0.0/BearPi-IoT_GD32F303_Demo_Suites/Projects/25_ALL_TEST/Soft_Drive\gd25qxx.c **** WHETHER IN CONTRACT, STRICT LIABILITY, OR TORT (INCLUDING NEGLIGENCE OR OTHERWISE) 
  35:C:/Users/49542/Desktop/GD32F30x_Demo_Suites_V2.0.0/GD32F30x_Demo_Suites_V2.0.0/BearPi-IoT_GD32F303_Demo_Suites/Projects/25_ALL_TEST/Soft_Drive\gd25qxx.c **** ARISING IN ANY WAY OUT OF THE USE OF THIS SOFTWARE, EVEN IF ADVISED OF THE POSSIBILITY 
  36:C:/Users/49542/Desktop/GD32F30x_Demo_Suites_V2.0.0/GD32F30x_Demo_Suites_V2.0.0/BearPi-IoT_GD32F303_Demo_Suites/Projects/25_ALL_TEST/Soft_Drive\gd25qxx.c **** OF SUCH DAMAGE.
  37:C:/Users/49542/Desktop/GD32F30x_Demo_Suites_V2.0.0/GD32F30x_Demo_Suites_V2.0.0/BearPi-IoT_GD32F303_Demo_Suites/Projects/25_ALL_TEST/Soft_Drive\gd25qxx.c **** */
  38:C:/Users/49542/Desktop/GD32F30x_Demo_Suites_V2.0.0/GD32F30x_Demo_Suites_V2.0.0/BearPi-IoT_GD32F303_Demo_Suites/Projects/25_ALL_TEST/Soft_Drive\gd25qxx.c **** 
  39:C:/Users/49542/Desktop/GD32F30x_Demo_Suites_V2.0.0/GD32F30x_Demo_Suites_V2.0.0/BearPi-IoT_GD32F303_Demo_Suites/Projects/25_ALL_TEST/Soft_Drive\gd25qxx.c **** #include "gd25qxx.h"
  40:C:/Users/49542/Desktop/GD32F30x_Demo_Suites_V2.0.0/GD32F30x_Demo_Suites_V2.0.0/BearPi-IoT_GD32F303_Demo_Suites/Projects/25_ALL_TEST/Soft_Drive\gd25qxx.c **** #include "gd32f30x.h"
  41:C:/Users/49542/Desktop/GD32F30x_Demo_Suites_V2.0.0/GD32F30x_Demo_Suites_V2.0.0/BearPi-IoT_GD32F303_Demo_Suites/Projects/25_ALL_TEST/Soft_Drive\gd25qxx.c **** #include <string.h>
  42:C:/Users/49542/Desktop/GD32F30x_Demo_Suites_V2.0.0/GD32F30x_Demo_Suites_V2.0.0/BearPi-IoT_GD32F303_Demo_Suites/Projects/25_ALL_TEST/Soft_Drive\gd25qxx.c **** 
  43:C:/Users/49542/Desktop/GD32F30x_Demo_Suites_V2.0.0/GD32F30x_Demo_Suites_V2.0.0/BearPi-IoT_GD32F303_Demo_Suites/Projects/25_ALL_TEST/Soft_Drive\gd25qxx.c **** #define WRITE            0x02     /* write to memory instruction */
  44:C:/Users/49542/Desktop/GD32F30x_Demo_Suites_V2.0.0/GD32F30x_Demo_Suites_V2.0.0/BearPi-IoT_GD32F303_Demo_Suites/Projects/25_ALL_TEST/Soft_Drive\gd25qxx.c **** #define WRSR             0x01     /* write status register instruction */
  45:C:/Users/49542/Desktop/GD32F30x_Demo_Suites_V2.0.0/GD32F30x_Demo_Suites_V2.0.0/BearPi-IoT_GD32F303_Demo_Suites/Projects/25_ALL_TEST/Soft_Drive\gd25qxx.c **** #define WREN             0x06     /* write enable instruction */
  46:C:/Users/49542/Desktop/GD32F30x_Demo_Suites_V2.0.0/GD32F30x_Demo_Suites_V2.0.0/BearPi-IoT_GD32F303_Demo_Suites/Projects/25_ALL_TEST/Soft_Drive\gd25qxx.c **** 
  47:C:/Users/49542/Desktop/GD32F30x_Demo_Suites_V2.0.0/GD32F30x_Demo_Suites_V2.0.0/BearPi-IoT_GD32F303_Demo_Suites/Projects/25_ALL_TEST/Soft_Drive\gd25qxx.c **** #define READ             0x03     /* read from memory instruction */
  48:C:/Users/49542/Desktop/GD32F30x_Demo_Suites_V2.0.0/GD32F30x_Demo_Suites_V2.0.0/BearPi-IoT_GD32F303_Demo_Suites/Projects/25_ALL_TEST/Soft_Drive\gd25qxx.c **** #define RDSR             0x05     /* read status register instruction  */
  49:C:/Users/49542/Desktop/GD32F30x_Demo_Suites_V2.0.0/GD32F30x_Demo_Suites_V2.0.0/BearPi-IoT_GD32F303_Demo_Suites/Projects/25_ALL_TEST/Soft_Drive\gd25qxx.c **** #define RDID             0x9F     /* read identification */
  50:C:/Users/49542/Desktop/GD32F30x_Demo_Suites_V2.0.0/GD32F30x_Demo_Suites_V2.0.0/BearPi-IoT_GD32F303_Demo_Suites/Projects/25_ALL_TEST/Soft_Drive\gd25qxx.c **** #define SE               0x20     /* sector erase instruction */
  51:C:/Users/49542/Desktop/GD32F30x_Demo_Suites_V2.0.0/GD32F30x_Demo_Suites_V2.0.0/BearPi-IoT_GD32F303_Demo_Suites/Projects/25_ALL_TEST/Soft_Drive\gd25qxx.c **** #define BE               0xC7     /* bulk erase instruction */
  52:C:/Users/49542/Desktop/GD32F30x_Demo_Suites_V2.0.0/GD32F30x_Demo_Suites_V2.0.0/BearPi-IoT_GD32F303_Demo_Suites/Projects/25_ALL_TEST/Soft_Drive\gd25qxx.c **** 
  53:C:/Users/49542/Desktop/GD32F30x_Demo_Suites_V2.0.0/GD32F30x_Demo_Suites_V2.0.0/BearPi-IoT_GD32F303_Demo_Suites/Projects/25_ALL_TEST/Soft_Drive\gd25qxx.c **** #define WIP_FLAG         0x01     /* write in progress(wip)flag */
  54:C:/Users/49542/Desktop/GD32F30x_Demo_Suites_V2.0.0/GD32F30x_Demo_Suites_V2.0.0/BearPi-IoT_GD32F303_Demo_Suites/Projects/25_ALL_TEST/Soft_Drive\gd25qxx.c **** #define DUMMY_BYTE       0xA5
  55:C:/Users/49542/Desktop/GD32F30x_Demo_Suites_V2.0.0/GD32F30x_Demo_Suites_V2.0.0/BearPi-IoT_GD32F303_Demo_Suites/Projects/25_ALL_TEST/Soft_Drive\gd25qxx.c **** 
  56:C:/Users/49542/Desktop/GD32F30x_Demo_Suites_V2.0.0/GD32F30x_Demo_Suites_V2.0.0/BearPi-IoT_GD32F303_Demo_Suites/Projects/25_ALL_TEST/Soft_Drive\gd25qxx.c **** /*!
  57:C:/Users/49542/Desktop/GD32F30x_Demo_Suites_V2.0.0/GD32F30x_Demo_Suites_V2.0.0/BearPi-IoT_GD32F303_Demo_Suites/Projects/25_ALL_TEST/Soft_Drive\gd25qxx.c ****     \brief      initialize SPI2 GPIO and parameter
  58:C:/Users/49542/Desktop/GD32F30x_Demo_Suites_V2.0.0/GD32F30x_Demo_Suites_V2.0.0/BearPi-IoT_GD32F303_Demo_Suites/Projects/25_ALL_TEST/Soft_Drive\gd25qxx.c ****     \param[in]  none
  59:C:/Users/49542/Desktop/GD32F30x_Demo_Suites_V2.0.0/GD32F30x_Demo_Suites_V2.0.0/BearPi-IoT_GD32F303_Demo_Suites/Projects/25_ALL_TEST/Soft_Drive\gd25qxx.c ****     \param[out] none
  60:C:/Users/49542/Desktop/GD32F30x_Demo_Suites_V2.0.0/GD32F30x_Demo_Suites_V2.0.0/BearPi-IoT_GD32F303_Demo_Suites/Projects/25_ALL_TEST/Soft_Drive\gd25qxx.c ****     \retval     none
  61:C:/Users/49542/Desktop/GD32F30x_Demo_Suites_V2.0.0/GD32F30x_Demo_Suites_V2.0.0/BearPi-IoT_GD32F303_Demo_Suites/Projects/25_ALL_TEST/Soft_Drive\gd25qxx.c **** */
  62:C:/Users/49542/Desktop/GD32F30x_Demo_Suites_V2.0.0/GD32F30x_Demo_Suites_V2.0.0/BearPi-IoT_GD32F303_Demo_Suites/Projects/25_ALL_TEST/Soft_Drive\gd25qxx.c **** void spi_flash_init(void)
  63:C:/Users/49542/Desktop/GD32F30x_Demo_Suites_V2.0.0/GD32F30x_Demo_Suites_V2.0.0/BearPi-IoT_GD32F303_Demo_Suites/Projects/25_ALL_TEST/Soft_Drive\gd25qxx.c **** {
  28              		.loc 1 63 0
  29              		.cfi_startproc
  30              		@ args = 0, pretend = 0, frame = 32
  31              		@ frame_needed = 0, uses_anonymous_args = 0
  32 0000 10B5     		push	{r4, lr}
  33              	.LCFI0:
  34              		.cfi_def_cfa_offset 8
  35              		.cfi_offset 4, -8
  36              		.cfi_offset 14, -4
  37 0002 88B0     		sub	sp, sp, #32
  38              	.LCFI1:
  39              		.cfi_def_cfa_offset 40
  64:C:/Users/49542/Desktop/GD32F30x_Demo_Suites_V2.0.0/GD32F30x_Demo_Suites_V2.0.0/BearPi-IoT_GD32F303_Demo_Suites/Projects/25_ALL_TEST/Soft_Drive\gd25qxx.c ****     spi_parameter_struct spi_init_struct;
  65:C:/Users/49542/Desktop/GD32F30x_Demo_Suites_V2.0.0/GD32F30x_Demo_Suites_V2.0.0/BearPi-IoT_GD32F303_Demo_Suites/Projects/25_ALL_TEST/Soft_Drive\gd25qxx.c **** 
  66:C:/Users/49542/Desktop/GD32F30x_Demo_Suites_V2.0.0/GD32F30x_Demo_Suites_V2.0.0/BearPi-IoT_GD32F303_Demo_Suites/Projects/25_ALL_TEST/Soft_Drive\gd25qxx.c ****     rcu_periph_clock_enable(RCU_GPIOB);
  40              		.loc 1 66 0
  41 0004 40F20360 		movw	r0, #1539
  42 0008 FFF7FEFF 		bl	rcu_periph_clock_enable
  43              	.LVL0:
  67:C:/Users/49542/Desktop/GD32F30x_Demo_Suites_V2.0.0/GD32F30x_Demo_Suites_V2.0.0/BearPi-IoT_GD32F303_Demo_Suites/Projects/25_ALL_TEST/Soft_Drive\gd25qxx.c ****     rcu_periph_clock_enable(RCU_GPIOA);
  44              		.loc 1 67 0
  45 000c 40F20260 		movw	r0, #1538
  46 0010 FFF7FEFF 		bl	rcu_periph_clock_enable
  47              	.LVL1:
  68:C:/Users/49542/Desktop/GD32F30x_Demo_Suites_V2.0.0/GD32F30x_Demo_Suites_V2.0.0/BearPi-IoT_GD32F303_Demo_Suites/Projects/25_ALL_TEST/Soft_Drive\gd25qxx.c ****     rcu_periph_clock_enable(RCU_SPI2);
ARM GAS  C:\Users\49542\AppData\Local\Temp\ccK7V8j3.s 			page 3


  48              		.loc 1 68 0
  49 0014 40F20F70 		movw	r0, #1807
  50 0018 FFF7FEFF 		bl	rcu_periph_clock_enable
  51              	.LVL2:
  69:C:/Users/49542/Desktop/GD32F30x_Demo_Suites_V2.0.0/GD32F30x_Demo_Suites_V2.0.0/BearPi-IoT_GD32F303_Demo_Suites/Projects/25_ALL_TEST/Soft_Drive\gd25qxx.c **** 
  70:C:/Users/49542/Desktop/GD32F30x_Demo_Suites_V2.0.0/GD32F30x_Demo_Suites_V2.0.0/BearPi-IoT_GD32F303_Demo_Suites/Projects/25_ALL_TEST/Soft_Drive\gd25qxx.c ****     /* SPI2_SCK(PB3), SPI2_MISO(PB4) and SPI2_MOSI(PB5) GPIO pin configuration */
  71:C:/Users/49542/Desktop/GD32F30x_Demo_Suites_V2.0.0/GD32F30x_Demo_Suites_V2.0.0/BearPi-IoT_GD32F303_Demo_Suites/Projects/25_ALL_TEST/Soft_Drive\gd25qxx.c ****     gpio_init(GPIOB, GPIO_MODE_AF_PP, GPIO_OSPEED_50MHZ, GPIO_PIN_3 | GPIO_PIN_5);
  52              		.loc 1 71 0
  53 001c 1B4C     		ldr	r4, .L3
  54 001e 2823     		movs	r3, #40
  55 0020 0322     		movs	r2, #3
  56 0022 1821     		movs	r1, #24
  57 0024 2046     		mov	r0, r4
  58 0026 FFF7FEFF 		bl	gpio_init
  59              	.LVL3:
  72:C:/Users/49542/Desktop/GD32F30x_Demo_Suites_V2.0.0/GD32F30x_Demo_Suites_V2.0.0/BearPi-IoT_GD32F303_Demo_Suites/Projects/25_ALL_TEST/Soft_Drive\gd25qxx.c ****     gpio_init(GPIOB, GPIO_MODE_IN_FLOATING, GPIO_OSPEED_50MHZ, GPIO_PIN_4);
  60              		.loc 1 72 0
  61 002a 1023     		movs	r3, #16
  62 002c 0322     		movs	r2, #3
  63 002e 0421     		movs	r1, #4
  64 0030 2046     		mov	r0, r4
  65 0032 FFF7FEFF 		bl	gpio_init
  66              	.LVL4:
  73:C:/Users/49542/Desktop/GD32F30x_Demo_Suites_V2.0.0/GD32F30x_Demo_Suites_V2.0.0/BearPi-IoT_GD32F303_Demo_Suites/Projects/25_ALL_TEST/Soft_Drive\gd25qxx.c ****     /* SPI2_CS(PA12) GPIO pin configuration */
  74:C:/Users/49542/Desktop/GD32F30x_Demo_Suites_V2.0.0/GD32F30x_Demo_Suites_V2.0.0/BearPi-IoT_GD32F303_Demo_Suites/Projects/25_ALL_TEST/Soft_Drive\gd25qxx.c ****     gpio_init(GPIOA, GPIO_MODE_OUT_PP, GPIO_OSPEED_50MHZ, GPIO_PIN_12);
  67              		.loc 1 74 0
  68 0036 A4F58064 		sub	r4, r4, #1024
  69 003a 4FF48053 		mov	r3, #4096
  70 003e 0322     		movs	r2, #3
  71 0040 1021     		movs	r1, #16
  72 0042 2046     		mov	r0, r4
  73 0044 FFF7FEFF 		bl	gpio_init
  74              	.LVL5:
  75:C:/Users/49542/Desktop/GD32F30x_Demo_Suites_V2.0.0/GD32F30x_Demo_Suites_V2.0.0/BearPi-IoT_GD32F303_Demo_Suites/Projects/25_ALL_TEST/Soft_Drive\gd25qxx.c **** 
  76:C:/Users/49542/Desktop/GD32F30x_Demo_Suites_V2.0.0/GD32F30x_Demo_Suites_V2.0.0/BearPi-IoT_GD32F303_Demo_Suites/Projects/25_ALL_TEST/Soft_Drive\gd25qxx.c ****     /* chip select invalid*/
  77:C:/Users/49542/Desktop/GD32F30x_Demo_Suites_V2.0.0/GD32F30x_Demo_Suites_V2.0.0/BearPi-IoT_GD32F303_Demo_Suites/Projects/25_ALL_TEST/Soft_Drive\gd25qxx.c ****     SPI_FLASH_CS_HIGH();
  75              		.loc 1 77 0
  76 0048 4FF48051 		mov	r1, #4096
  77 004c 2046     		mov	r0, r4
  78 004e FFF7FEFF 		bl	gpio_bit_set
  79              	.LVL6:
  78:C:/Users/49542/Desktop/GD32F30x_Demo_Suites_V2.0.0/GD32F30x_Demo_Suites_V2.0.0/BearPi-IoT_GD32F303_Demo_Suites/Projects/25_ALL_TEST/Soft_Drive\gd25qxx.c **** 
  79:C:/Users/49542/Desktop/GD32F30x_Demo_Suites_V2.0.0/GD32F30x_Demo_Suites_V2.0.0/BearPi-IoT_GD32F303_Demo_Suites/Projects/25_ALL_TEST/Soft_Drive\gd25qxx.c ****     /* SPI2 parameter config */
  80:C:/Users/49542/Desktop/GD32F30x_Demo_Suites_V2.0.0/GD32F30x_Demo_Suites_V2.0.0/BearPi-IoT_GD32F303_Demo_Suites/Projects/25_ALL_TEST/Soft_Drive\gd25qxx.c ****     spi_init_struct.trans_mode           = SPI_TRANSMODE_FULLDUPLEX;
  80              		.loc 1 80 0
  81 0052 0023     		movs	r3, #0
  82 0054 0293     		str	r3, [sp, #8]
  81:C:/Users/49542/Desktop/GD32F30x_Demo_Suites_V2.0.0/GD32F30x_Demo_Suites_V2.0.0/BearPi-IoT_GD32F303_Demo_Suites/Projects/25_ALL_TEST/Soft_Drive\gd25qxx.c ****     spi_init_struct.device_mode          = SPI_MASTER;;
  83              		.loc 1 81 0
  84 0056 4FF48272 		mov	r2, #260
  85 005a 0192     		str	r2, [sp, #4]
  82:C:/Users/49542/Desktop/GD32F30x_Demo_Suites_V2.0.0/GD32F30x_Demo_Suites_V2.0.0/BearPi-IoT_GD32F303_Demo_Suites/Projects/25_ALL_TEST/Soft_Drive\gd25qxx.c ****     spi_init_struct.frame_size           = SPI_FRAMESIZE_8BIT;;
  86              		.loc 1 82 0
  87 005c 0393     		str	r3, [sp, #12]
  83:C:/Users/49542/Desktop/GD32F30x_Demo_Suites_V2.0.0/GD32F30x_Demo_Suites_V2.0.0/BearPi-IoT_GD32F303_Demo_Suites/Projects/25_ALL_TEST/Soft_Drive\gd25qxx.c ****     spi_init_struct.clock_polarity_phase = SPI_CK_PL_LOW_PH_1EDGE;
  88              		.loc 1 83 0
  89 005e 0693     		str	r3, [sp, #24]
ARM GAS  C:\Users\49542\AppData\Local\Temp\ccK7V8j3.s 			page 4


  84:C:/Users/49542/Desktop/GD32F30x_Demo_Suites_V2.0.0/GD32F30x_Demo_Suites_V2.0.0/BearPi-IoT_GD32F303_Demo_Suites/Projects/25_ALL_TEST/Soft_Drive\gd25qxx.c ****     spi_init_struct.nss                  = SPI_NSS_SOFT;
  90              		.loc 1 84 0
  91 0060 4FF40072 		mov	r2, #512
  92 0064 0492     		str	r2, [sp, #16]
  85:C:/Users/49542/Desktop/GD32F30x_Demo_Suites_V2.0.0/GD32F30x_Demo_Suites_V2.0.0/BearPi-IoT_GD32F303_Demo_Suites/Projects/25_ALL_TEST/Soft_Drive\gd25qxx.c ****     spi_init_struct.prescale             = SPI_PSC_8 ;
  93              		.loc 1 85 0
  94 0066 1022     		movs	r2, #16
  95 0068 0792     		str	r2, [sp, #28]
  86:C:/Users/49542/Desktop/GD32F30x_Demo_Suites_V2.0.0/GD32F30x_Demo_Suites_V2.0.0/BearPi-IoT_GD32F303_Demo_Suites/Projects/25_ALL_TEST/Soft_Drive\gd25qxx.c ****     spi_init_struct.endian               = SPI_ENDIAN_MSB;;
  96              		.loc 1 86 0
  97 006a 0593     		str	r3, [sp, #20]
  87:C:/Users/49542/Desktop/GD32F30x_Demo_Suites_V2.0.0/GD32F30x_Demo_Suites_V2.0.0/BearPi-IoT_GD32F303_Demo_Suites/Projects/25_ALL_TEST/Soft_Drive\gd25qxx.c ****     spi_init(SPI2, &spi_init_struct);
  98              		.loc 1 87 0
  99 006c A4F54C44 		sub	r4, r4, #52224
 100 0070 01A9     		add	r1, sp, #4
 101 0072 2046     		mov	r0, r4
 102 0074 FFF7FEFF 		bl	spi_init
 103              	.LVL7:
  88:C:/Users/49542/Desktop/GD32F30x_Demo_Suites_V2.0.0/GD32F30x_Demo_Suites_V2.0.0/BearPi-IoT_GD32F303_Demo_Suites/Projects/25_ALL_TEST/Soft_Drive\gd25qxx.c **** 
  89:C:/Users/49542/Desktop/GD32F30x_Demo_Suites_V2.0.0/GD32F30x_Demo_Suites_V2.0.0/BearPi-IoT_GD32F303_Demo_Suites/Projects/25_ALL_TEST/Soft_Drive\gd25qxx.c ****     /* set crc polynomial */
  90:C:/Users/49542/Desktop/GD32F30x_Demo_Suites_V2.0.0/GD32F30x_Demo_Suites_V2.0.0/BearPi-IoT_GD32F303_Demo_Suites/Projects/25_ALL_TEST/Soft_Drive\gd25qxx.c ****     spi_crc_polynomial_set(SPI2,7);
 104              		.loc 1 90 0
 105 0078 0721     		movs	r1, #7
 106 007a 2046     		mov	r0, r4
 107 007c FFF7FEFF 		bl	spi_crc_polynomial_set
 108              	.LVL8:
  91:C:/Users/49542/Desktop/GD32F30x_Demo_Suites_V2.0.0/GD32F30x_Demo_Suites_V2.0.0/BearPi-IoT_GD32F303_Demo_Suites/Projects/25_ALL_TEST/Soft_Drive\gd25qxx.c ****     /* enable SPI2 */
  92:C:/Users/49542/Desktop/GD32F30x_Demo_Suites_V2.0.0/GD32F30x_Demo_Suites_V2.0.0/BearPi-IoT_GD32F303_Demo_Suites/Projects/25_ALL_TEST/Soft_Drive\gd25qxx.c ****     spi_enable(SPI2);
 109              		.loc 1 92 0
 110 0080 2046     		mov	r0, r4
 111 0082 FFF7FEFF 		bl	spi_enable
 112              	.LVL9:
  93:C:/Users/49542/Desktop/GD32F30x_Demo_Suites_V2.0.0/GD32F30x_Demo_Suites_V2.0.0/BearPi-IoT_GD32F303_Demo_Suites/Projects/25_ALL_TEST/Soft_Drive\gd25qxx.c **** }
 113              		.loc 1 93 0
 114 0086 08B0     		add	sp, sp, #32
 115              	.LCFI2:
 116              		.cfi_def_cfa_offset 8
 117              		@ sp needed
 118 0088 10BD     		pop	{r4, pc}
 119              	.L4:
 120 008a 00BF     		.align	2
 121              	.L3:
 122 008c 000C0140 		.word	1073810432
 123              		.cfi_endproc
 124              	.LFE116:
 126              		.section	.text.spi_flash_send_byte,"ax",%progbits
 127              		.align	1
 128              		.global	spi_flash_send_byte
 129              		.syntax unified
 130              		.thumb
 131              		.thumb_func
 132              		.fpu fpv4-sp-d16
 134              	spi_flash_send_byte:
 135              	.LFB125:
  94:C:/Users/49542/Desktop/GD32F30x_Demo_Suites_V2.0.0/GD32F30x_Demo_Suites_V2.0.0/BearPi-IoT_GD32F303_Demo_Suites/Projects/25_ALL_TEST/Soft_Drive\gd25qxx.c **** 
  95:C:/Users/49542/Desktop/GD32F30x_Demo_Suites_V2.0.0/GD32F30x_Demo_Suites_V2.0.0/BearPi-IoT_GD32F303_Demo_Suites/Projects/25_ALL_TEST/Soft_Drive\gd25qxx.c **** /*!
  96:C:/Users/49542/Desktop/GD32F30x_Demo_Suites_V2.0.0/GD32F30x_Demo_Suites_V2.0.0/BearPi-IoT_GD32F303_Demo_Suites/Projects/25_ALL_TEST/Soft_Drive\gd25qxx.c ****     \brief      erase the specified flash sector
ARM GAS  C:\Users\49542\AppData\Local\Temp\ccK7V8j3.s 			page 5


  97:C:/Users/49542/Desktop/GD32F30x_Demo_Suites_V2.0.0/GD32F30x_Demo_Suites_V2.0.0/BearPi-IoT_GD32F303_Demo_Suites/Projects/25_ALL_TEST/Soft_Drive\gd25qxx.c ****     \param[in]  sector_addr: address of the sector to erase
  98:C:/Users/49542/Desktop/GD32F30x_Demo_Suites_V2.0.0/GD32F30x_Demo_Suites_V2.0.0/BearPi-IoT_GD32F303_Demo_Suites/Projects/25_ALL_TEST/Soft_Drive\gd25qxx.c ****     \param[out] none
  99:C:/Users/49542/Desktop/GD32F30x_Demo_Suites_V2.0.0/GD32F30x_Demo_Suites_V2.0.0/BearPi-IoT_GD32F303_Demo_Suites/Projects/25_ALL_TEST/Soft_Drive\gd25qxx.c ****     \retval     none
 100:C:/Users/49542/Desktop/GD32F30x_Demo_Suites_V2.0.0/GD32F30x_Demo_Suites_V2.0.0/BearPi-IoT_GD32F303_Demo_Suites/Projects/25_ALL_TEST/Soft_Drive\gd25qxx.c **** */
 101:C:/Users/49542/Desktop/GD32F30x_Demo_Suites_V2.0.0/GD32F30x_Demo_Suites_V2.0.0/BearPi-IoT_GD32F303_Demo_Suites/Projects/25_ALL_TEST/Soft_Drive\gd25qxx.c **** void spi_flash_sector_erase(uint32_t sector_addr)
 102:C:/Users/49542/Desktop/GD32F30x_Demo_Suites_V2.0.0/GD32F30x_Demo_Suites_V2.0.0/BearPi-IoT_GD32F303_Demo_Suites/Projects/25_ALL_TEST/Soft_Drive\gd25qxx.c **** {
 103:C:/Users/49542/Desktop/GD32F30x_Demo_Suites_V2.0.0/GD32F30x_Demo_Suites_V2.0.0/BearPi-IoT_GD32F303_Demo_Suites/Projects/25_ALL_TEST/Soft_Drive\gd25qxx.c ****     /* send write enable instruction */
 104:C:/Users/49542/Desktop/GD32F30x_Demo_Suites_V2.0.0/GD32F30x_Demo_Suites_V2.0.0/BearPi-IoT_GD32F303_Demo_Suites/Projects/25_ALL_TEST/Soft_Drive\gd25qxx.c ****     spi_flash_write_enable();
 105:C:/Users/49542/Desktop/GD32F30x_Demo_Suites_V2.0.0/GD32F30x_Demo_Suites_V2.0.0/BearPi-IoT_GD32F303_Demo_Suites/Projects/25_ALL_TEST/Soft_Drive\gd25qxx.c **** 
 106:C:/Users/49542/Desktop/GD32F30x_Demo_Suites_V2.0.0/GD32F30x_Demo_Suites_V2.0.0/BearPi-IoT_GD32F303_Demo_Suites/Projects/25_ALL_TEST/Soft_Drive\gd25qxx.c ****     /* sector erase */
 107:C:/Users/49542/Desktop/GD32F30x_Demo_Suites_V2.0.0/GD32F30x_Demo_Suites_V2.0.0/BearPi-IoT_GD32F303_Demo_Suites/Projects/25_ALL_TEST/Soft_Drive\gd25qxx.c ****     /* select the flash: chip select low */
 108:C:/Users/49542/Desktop/GD32F30x_Demo_Suites_V2.0.0/GD32F30x_Demo_Suites_V2.0.0/BearPi-IoT_GD32F303_Demo_Suites/Projects/25_ALL_TEST/Soft_Drive\gd25qxx.c ****     SPI_FLASH_CS_LOW();
 109:C:/Users/49542/Desktop/GD32F30x_Demo_Suites_V2.0.0/GD32F30x_Demo_Suites_V2.0.0/BearPi-IoT_GD32F303_Demo_Suites/Projects/25_ALL_TEST/Soft_Drive\gd25qxx.c ****     /* send sector erase instruction */
 110:C:/Users/49542/Desktop/GD32F30x_Demo_Suites_V2.0.0/GD32F30x_Demo_Suites_V2.0.0/BearPi-IoT_GD32F303_Demo_Suites/Projects/25_ALL_TEST/Soft_Drive\gd25qxx.c ****     spi_flash_send_byte(SE);
 111:C:/Users/49542/Desktop/GD32F30x_Demo_Suites_V2.0.0/GD32F30x_Demo_Suites_V2.0.0/BearPi-IoT_GD32F303_Demo_Suites/Projects/25_ALL_TEST/Soft_Drive\gd25qxx.c ****     /* send sector_addr high nibble address byte */
 112:C:/Users/49542/Desktop/GD32F30x_Demo_Suites_V2.0.0/GD32F30x_Demo_Suites_V2.0.0/BearPi-IoT_GD32F303_Demo_Suites/Projects/25_ALL_TEST/Soft_Drive\gd25qxx.c ****     spi_flash_send_byte((sector_addr & 0xFF0000) >> 16);
 113:C:/Users/49542/Desktop/GD32F30x_Demo_Suites_V2.0.0/GD32F30x_Demo_Suites_V2.0.0/BearPi-IoT_GD32F303_Demo_Suites/Projects/25_ALL_TEST/Soft_Drive\gd25qxx.c ****     /* send sector_addr medium nibble address byte */
 114:C:/Users/49542/Desktop/GD32F30x_Demo_Suites_V2.0.0/GD32F30x_Demo_Suites_V2.0.0/BearPi-IoT_GD32F303_Demo_Suites/Projects/25_ALL_TEST/Soft_Drive\gd25qxx.c ****     spi_flash_send_byte((sector_addr & 0xFF00) >> 8);
 115:C:/Users/49542/Desktop/GD32F30x_Demo_Suites_V2.0.0/GD32F30x_Demo_Suites_V2.0.0/BearPi-IoT_GD32F303_Demo_Suites/Projects/25_ALL_TEST/Soft_Drive\gd25qxx.c ****     /* send sector_addr low nibble address byte */
 116:C:/Users/49542/Desktop/GD32F30x_Demo_Suites_V2.0.0/GD32F30x_Demo_Suites_V2.0.0/BearPi-IoT_GD32F303_Demo_Suites/Projects/25_ALL_TEST/Soft_Drive\gd25qxx.c ****     spi_flash_send_byte(sector_addr & 0xFF);
 117:C:/Users/49542/Desktop/GD32F30x_Demo_Suites_V2.0.0/GD32F30x_Demo_Suites_V2.0.0/BearPi-IoT_GD32F303_Demo_Suites/Projects/25_ALL_TEST/Soft_Drive\gd25qxx.c ****     /* deselect the flash: chip select high */
 118:C:/Users/49542/Desktop/GD32F30x_Demo_Suites_V2.0.0/GD32F30x_Demo_Suites_V2.0.0/BearPi-IoT_GD32F303_Demo_Suites/Projects/25_ALL_TEST/Soft_Drive\gd25qxx.c ****     SPI_FLASH_CS_HIGH();
 119:C:/Users/49542/Desktop/GD32F30x_Demo_Suites_V2.0.0/GD32F30x_Demo_Suites_V2.0.0/BearPi-IoT_GD32F303_Demo_Suites/Projects/25_ALL_TEST/Soft_Drive\gd25qxx.c **** 
 120:C:/Users/49542/Desktop/GD32F30x_Demo_Suites_V2.0.0/GD32F30x_Demo_Suites_V2.0.0/BearPi-IoT_GD32F303_Demo_Suites/Projects/25_ALL_TEST/Soft_Drive\gd25qxx.c ****     /* wait the end of flash writing */
 121:C:/Users/49542/Desktop/GD32F30x_Demo_Suites_V2.0.0/GD32F30x_Demo_Suites_V2.0.0/BearPi-IoT_GD32F303_Demo_Suites/Projects/25_ALL_TEST/Soft_Drive\gd25qxx.c ****     spi_flash_wait_for_write_end();
 122:C:/Users/49542/Desktop/GD32F30x_Demo_Suites_V2.0.0/GD32F30x_Demo_Suites_V2.0.0/BearPi-IoT_GD32F303_Demo_Suites/Projects/25_ALL_TEST/Soft_Drive\gd25qxx.c **** }
 123:C:/Users/49542/Desktop/GD32F30x_Demo_Suites_V2.0.0/GD32F30x_Demo_Suites_V2.0.0/BearPi-IoT_GD32F303_Demo_Suites/Projects/25_ALL_TEST/Soft_Drive\gd25qxx.c **** 
 124:C:/Users/49542/Desktop/GD32F30x_Demo_Suites_V2.0.0/GD32F30x_Demo_Suites_V2.0.0/BearPi-IoT_GD32F303_Demo_Suites/Projects/25_ALL_TEST/Soft_Drive\gd25qxx.c **** /*!
 125:C:/Users/49542/Desktop/GD32F30x_Demo_Suites_V2.0.0/GD32F30x_Demo_Suites_V2.0.0/BearPi-IoT_GD32F303_Demo_Suites/Projects/25_ALL_TEST/Soft_Drive\gd25qxx.c ****     \brief      erase the entire flash
 126:C:/Users/49542/Desktop/GD32F30x_Demo_Suites_V2.0.0/GD32F30x_Demo_Suites_V2.0.0/BearPi-IoT_GD32F303_Demo_Suites/Projects/25_ALL_TEST/Soft_Drive\gd25qxx.c ****     \param[in]  none
 127:C:/Users/49542/Desktop/GD32F30x_Demo_Suites_V2.0.0/GD32F30x_Demo_Suites_V2.0.0/BearPi-IoT_GD32F303_Demo_Suites/Projects/25_ALL_TEST/Soft_Drive\gd25qxx.c ****     \param[out] none
 128:C:/Users/49542/Desktop/GD32F30x_Demo_Suites_V2.0.0/GD32F30x_Demo_Suites_V2.0.0/BearPi-IoT_GD32F303_Demo_Suites/Projects/25_ALL_TEST/Soft_Drive\gd25qxx.c ****     \retval     none
 129:C:/Users/49542/Desktop/GD32F30x_Demo_Suites_V2.0.0/GD32F30x_Demo_Suites_V2.0.0/BearPi-IoT_GD32F303_Demo_Suites/Projects/25_ALL_TEST/Soft_Drive\gd25qxx.c **** */
 130:C:/Users/49542/Desktop/GD32F30x_Demo_Suites_V2.0.0/GD32F30x_Demo_Suites_V2.0.0/BearPi-IoT_GD32F303_Demo_Suites/Projects/25_ALL_TEST/Soft_Drive\gd25qxx.c **** void spi_flash_bulk_erase(void)
 131:C:/Users/49542/Desktop/GD32F30x_Demo_Suites_V2.0.0/GD32F30x_Demo_Suites_V2.0.0/BearPi-IoT_GD32F303_Demo_Suites/Projects/25_ALL_TEST/Soft_Drive\gd25qxx.c **** {
 132:C:/Users/49542/Desktop/GD32F30x_Demo_Suites_V2.0.0/GD32F30x_Demo_Suites_V2.0.0/BearPi-IoT_GD32F303_Demo_Suites/Projects/25_ALL_TEST/Soft_Drive\gd25qxx.c ****     /* send write enable instruction */
 133:C:/Users/49542/Desktop/GD32F30x_Demo_Suites_V2.0.0/GD32F30x_Demo_Suites_V2.0.0/BearPi-IoT_GD32F303_Demo_Suites/Projects/25_ALL_TEST/Soft_Drive\gd25qxx.c ****     spi_flash_write_enable();
 134:C:/Users/49542/Desktop/GD32F30x_Demo_Suites_V2.0.0/GD32F30x_Demo_Suites_V2.0.0/BearPi-IoT_GD32F303_Demo_Suites/Projects/25_ALL_TEST/Soft_Drive\gd25qxx.c **** 
 135:C:/Users/49542/Desktop/GD32F30x_Demo_Suites_V2.0.0/GD32F30x_Demo_Suites_V2.0.0/BearPi-IoT_GD32F303_Demo_Suites/Projects/25_ALL_TEST/Soft_Drive\gd25qxx.c ****     /* bulk erase */
 136:C:/Users/49542/Desktop/GD32F30x_Demo_Suites_V2.0.0/GD32F30x_Demo_Suites_V2.0.0/BearPi-IoT_GD32F303_Demo_Suites/Projects/25_ALL_TEST/Soft_Drive\gd25qxx.c ****     /* select the flash: chip select low */
 137:C:/Users/49542/Desktop/GD32F30x_Demo_Suites_V2.0.0/GD32F30x_Demo_Suites_V2.0.0/BearPi-IoT_GD32F303_Demo_Suites/Projects/25_ALL_TEST/Soft_Drive\gd25qxx.c ****     SPI_FLASH_CS_LOW();
 138:C:/Users/49542/Desktop/GD32F30x_Demo_Suites_V2.0.0/GD32F30x_Demo_Suites_V2.0.0/BearPi-IoT_GD32F303_Demo_Suites/Projects/25_ALL_TEST/Soft_Drive\gd25qxx.c ****     /* send bulk erase instruction  */
 139:C:/Users/49542/Desktop/GD32F30x_Demo_Suites_V2.0.0/GD32F30x_Demo_Suites_V2.0.0/BearPi-IoT_GD32F303_Demo_Suites/Projects/25_ALL_TEST/Soft_Drive\gd25qxx.c ****     spi_flash_send_byte(BE);
 140:C:/Users/49542/Desktop/GD32F30x_Demo_Suites_V2.0.0/GD32F30x_Demo_Suites_V2.0.0/BearPi-IoT_GD32F303_Demo_Suites/Projects/25_ALL_TEST/Soft_Drive\gd25qxx.c ****     /* deselect the flash: chip select high */
 141:C:/Users/49542/Desktop/GD32F30x_Demo_Suites_V2.0.0/GD32F30x_Demo_Suites_V2.0.0/BearPi-IoT_GD32F303_Demo_Suites/Projects/25_ALL_TEST/Soft_Drive\gd25qxx.c ****     SPI_FLASH_CS_HIGH();
 142:C:/Users/49542/Desktop/GD32F30x_Demo_Suites_V2.0.0/GD32F30x_Demo_Suites_V2.0.0/BearPi-IoT_GD32F303_Demo_Suites/Projects/25_ALL_TEST/Soft_Drive\gd25qxx.c **** 
 143:C:/Users/49542/Desktop/GD32F30x_Demo_Suites_V2.0.0/GD32F30x_Demo_Suites_V2.0.0/BearPi-IoT_GD32F303_Demo_Suites/Projects/25_ALL_TEST/Soft_Drive\gd25qxx.c ****     /* wait the end of flash writing */
 144:C:/Users/49542/Desktop/GD32F30x_Demo_Suites_V2.0.0/GD32F30x_Demo_Suites_V2.0.0/BearPi-IoT_GD32F303_Demo_Suites/Projects/25_ALL_TEST/Soft_Drive\gd25qxx.c ****     spi_flash_wait_for_write_end();
 145:C:/Users/49542/Desktop/GD32F30x_Demo_Suites_V2.0.0/GD32F30x_Demo_Suites_V2.0.0/BearPi-IoT_GD32F303_Demo_Suites/Projects/25_ALL_TEST/Soft_Drive\gd25qxx.c **** }
 146:C:/Users/49542/Desktop/GD32F30x_Demo_Suites_V2.0.0/GD32F30x_Demo_Suites_V2.0.0/BearPi-IoT_GD32F303_Demo_Suites/Projects/25_ALL_TEST/Soft_Drive\gd25qxx.c **** 
 147:C:/Users/49542/Desktop/GD32F30x_Demo_Suites_V2.0.0/GD32F30x_Demo_Suites_V2.0.0/BearPi-IoT_GD32F303_Demo_Suites/Projects/25_ALL_TEST/Soft_Drive\gd25qxx.c **** /*!
 148:C:/Users/49542/Desktop/GD32F30x_Demo_Suites_V2.0.0/GD32F30x_Demo_Suites_V2.0.0/BearPi-IoT_GD32F303_Demo_Suites/Projects/25_ALL_TEST/Soft_Drive\gd25qxx.c ****     \brief      write more than one byte to the flash
 149:C:/Users/49542/Desktop/GD32F30x_Demo_Suites_V2.0.0/GD32F30x_Demo_Suites_V2.0.0/BearPi-IoT_GD32F303_Demo_Suites/Projects/25_ALL_TEST/Soft_Drive\gd25qxx.c ****     \param[in]  pbuffer: pointer to the buffer
 150:C:/Users/49542/Desktop/GD32F30x_Demo_Suites_V2.0.0/GD32F30x_Demo_Suites_V2.0.0/BearPi-IoT_GD32F303_Demo_Suites/Projects/25_ALL_TEST/Soft_Drive\gd25qxx.c ****     \param[in]  write_addr: flash's internal address to write
 151:C:/Users/49542/Desktop/GD32F30x_Demo_Suites_V2.0.0/GD32F30x_Demo_Suites_V2.0.0/BearPi-IoT_GD32F303_Demo_Suites/Projects/25_ALL_TEST/Soft_Drive\gd25qxx.c ****     \param[in]  num_byte_to_write: number of bytes to write to the flash
 152:C:/Users/49542/Desktop/GD32F30x_Demo_Suites_V2.0.0/GD32F30x_Demo_Suites_V2.0.0/BearPi-IoT_GD32F303_Demo_Suites/Projects/25_ALL_TEST/Soft_Drive\gd25qxx.c ****     \param[out] none
 153:C:/Users/49542/Desktop/GD32F30x_Demo_Suites_V2.0.0/GD32F30x_Demo_Suites_V2.0.0/BearPi-IoT_GD32F303_Demo_Suites/Projects/25_ALL_TEST/Soft_Drive\gd25qxx.c ****     \retval     none
ARM GAS  C:\Users\49542\AppData\Local\Temp\ccK7V8j3.s 			page 6


 154:C:/Users/49542/Desktop/GD32F30x_Demo_Suites_V2.0.0/GD32F30x_Demo_Suites_V2.0.0/BearPi-IoT_GD32F303_Demo_Suites/Projects/25_ALL_TEST/Soft_Drive\gd25qxx.c **** */
 155:C:/Users/49542/Desktop/GD32F30x_Demo_Suites_V2.0.0/GD32F30x_Demo_Suites_V2.0.0/BearPi-IoT_GD32F303_Demo_Suites/Projects/25_ALL_TEST/Soft_Drive\gd25qxx.c **** void spi_flash_page_write(uint8_t* pbuffer, uint32_t write_addr, uint16_t num_byte_to_write)
 156:C:/Users/49542/Desktop/GD32F30x_Demo_Suites_V2.0.0/GD32F30x_Demo_Suites_V2.0.0/BearPi-IoT_GD32F303_Demo_Suites/Projects/25_ALL_TEST/Soft_Drive\gd25qxx.c **** {
 157:C:/Users/49542/Desktop/GD32F30x_Demo_Suites_V2.0.0/GD32F30x_Demo_Suites_V2.0.0/BearPi-IoT_GD32F303_Demo_Suites/Projects/25_ALL_TEST/Soft_Drive\gd25qxx.c ****     /* enable the write access to the flash */
 158:C:/Users/49542/Desktop/GD32F30x_Demo_Suites_V2.0.0/GD32F30x_Demo_Suites_V2.0.0/BearPi-IoT_GD32F303_Demo_Suites/Projects/25_ALL_TEST/Soft_Drive\gd25qxx.c ****     spi_flash_write_enable();
 159:C:/Users/49542/Desktop/GD32F30x_Demo_Suites_V2.0.0/GD32F30x_Demo_Suites_V2.0.0/BearPi-IoT_GD32F303_Demo_Suites/Projects/25_ALL_TEST/Soft_Drive\gd25qxx.c **** 
 160:C:/Users/49542/Desktop/GD32F30x_Demo_Suites_V2.0.0/GD32F30x_Demo_Suites_V2.0.0/BearPi-IoT_GD32F303_Demo_Suites/Projects/25_ALL_TEST/Soft_Drive\gd25qxx.c ****     /* select the flash: chip select low */
 161:C:/Users/49542/Desktop/GD32F30x_Demo_Suites_V2.0.0/GD32F30x_Demo_Suites_V2.0.0/BearPi-IoT_GD32F303_Demo_Suites/Projects/25_ALL_TEST/Soft_Drive\gd25qxx.c ****     SPI_FLASH_CS_LOW();
 162:C:/Users/49542/Desktop/GD32F30x_Demo_Suites_V2.0.0/GD32F30x_Demo_Suites_V2.0.0/BearPi-IoT_GD32F303_Demo_Suites/Projects/25_ALL_TEST/Soft_Drive\gd25qxx.c **** 
 163:C:/Users/49542/Desktop/GD32F30x_Demo_Suites_V2.0.0/GD32F30x_Demo_Suites_V2.0.0/BearPi-IoT_GD32F303_Demo_Suites/Projects/25_ALL_TEST/Soft_Drive\gd25qxx.c ****     /* send "write to memory" instruction */
 164:C:/Users/49542/Desktop/GD32F30x_Demo_Suites_V2.0.0/GD32F30x_Demo_Suites_V2.0.0/BearPi-IoT_GD32F303_Demo_Suites/Projects/25_ALL_TEST/Soft_Drive\gd25qxx.c ****     spi_flash_send_byte(WRITE);
 165:C:/Users/49542/Desktop/GD32F30x_Demo_Suites_V2.0.0/GD32F30x_Demo_Suites_V2.0.0/BearPi-IoT_GD32F303_Demo_Suites/Projects/25_ALL_TEST/Soft_Drive\gd25qxx.c ****     /* send write_addr high nibble address byte to write to */
 166:C:/Users/49542/Desktop/GD32F30x_Demo_Suites_V2.0.0/GD32F30x_Demo_Suites_V2.0.0/BearPi-IoT_GD32F303_Demo_Suites/Projects/25_ALL_TEST/Soft_Drive\gd25qxx.c ****     spi_flash_send_byte((write_addr & 0xFF0000) >> 16);
 167:C:/Users/49542/Desktop/GD32F30x_Demo_Suites_V2.0.0/GD32F30x_Demo_Suites_V2.0.0/BearPi-IoT_GD32F303_Demo_Suites/Projects/25_ALL_TEST/Soft_Drive\gd25qxx.c ****     /* send write_addr medium nibble address byte to write to */
 168:C:/Users/49542/Desktop/GD32F30x_Demo_Suites_V2.0.0/GD32F30x_Demo_Suites_V2.0.0/BearPi-IoT_GD32F303_Demo_Suites/Projects/25_ALL_TEST/Soft_Drive\gd25qxx.c ****     spi_flash_send_byte((write_addr & 0xFF00) >> 8);
 169:C:/Users/49542/Desktop/GD32F30x_Demo_Suites_V2.0.0/GD32F30x_Demo_Suites_V2.0.0/BearPi-IoT_GD32F303_Demo_Suites/Projects/25_ALL_TEST/Soft_Drive\gd25qxx.c ****     /* send write_addr low nibble address byte to write to */
 170:C:/Users/49542/Desktop/GD32F30x_Demo_Suites_V2.0.0/GD32F30x_Demo_Suites_V2.0.0/BearPi-IoT_GD32F303_Demo_Suites/Projects/25_ALL_TEST/Soft_Drive\gd25qxx.c ****     spi_flash_send_byte(write_addr & 0xFF);
 171:C:/Users/49542/Desktop/GD32F30x_Demo_Suites_V2.0.0/GD32F30x_Demo_Suites_V2.0.0/BearPi-IoT_GD32F303_Demo_Suites/Projects/25_ALL_TEST/Soft_Drive\gd25qxx.c **** 
 172:C:/Users/49542/Desktop/GD32F30x_Demo_Suites_V2.0.0/GD32F30x_Demo_Suites_V2.0.0/BearPi-IoT_GD32F303_Demo_Suites/Projects/25_ALL_TEST/Soft_Drive\gd25qxx.c ****     /* while there is data to be written on the flash */
 173:C:/Users/49542/Desktop/GD32F30x_Demo_Suites_V2.0.0/GD32F30x_Demo_Suites_V2.0.0/BearPi-IoT_GD32F303_Demo_Suites/Projects/25_ALL_TEST/Soft_Drive\gd25qxx.c ****     while(num_byte_to_write--){
 174:C:/Users/49542/Desktop/GD32F30x_Demo_Suites_V2.0.0/GD32F30x_Demo_Suites_V2.0.0/BearPi-IoT_GD32F303_Demo_Suites/Projects/25_ALL_TEST/Soft_Drive\gd25qxx.c ****         /* send the current byte */
 175:C:/Users/49542/Desktop/GD32F30x_Demo_Suites_V2.0.0/GD32F30x_Demo_Suites_V2.0.0/BearPi-IoT_GD32F303_Demo_Suites/Projects/25_ALL_TEST/Soft_Drive\gd25qxx.c ****         spi_flash_send_byte(*pbuffer);
 176:C:/Users/49542/Desktop/GD32F30x_Demo_Suites_V2.0.0/GD32F30x_Demo_Suites_V2.0.0/BearPi-IoT_GD32F303_Demo_Suites/Projects/25_ALL_TEST/Soft_Drive\gd25qxx.c ****         /* point on the next byte to be written */
 177:C:/Users/49542/Desktop/GD32F30x_Demo_Suites_V2.0.0/GD32F30x_Demo_Suites_V2.0.0/BearPi-IoT_GD32F303_Demo_Suites/Projects/25_ALL_TEST/Soft_Drive\gd25qxx.c ****         pbuffer++;
 178:C:/Users/49542/Desktop/GD32F30x_Demo_Suites_V2.0.0/GD32F30x_Demo_Suites_V2.0.0/BearPi-IoT_GD32F303_Demo_Suites/Projects/25_ALL_TEST/Soft_Drive\gd25qxx.c ****     }
 179:C:/Users/49542/Desktop/GD32F30x_Demo_Suites_V2.0.0/GD32F30x_Demo_Suites_V2.0.0/BearPi-IoT_GD32F303_Demo_Suites/Projects/25_ALL_TEST/Soft_Drive\gd25qxx.c **** 
 180:C:/Users/49542/Desktop/GD32F30x_Demo_Suites_V2.0.0/GD32F30x_Demo_Suites_V2.0.0/BearPi-IoT_GD32F303_Demo_Suites/Projects/25_ALL_TEST/Soft_Drive\gd25qxx.c ****     /* deselect the flash: chip select high */
 181:C:/Users/49542/Desktop/GD32F30x_Demo_Suites_V2.0.0/GD32F30x_Demo_Suites_V2.0.0/BearPi-IoT_GD32F303_Demo_Suites/Projects/25_ALL_TEST/Soft_Drive\gd25qxx.c ****     SPI_FLASH_CS_HIGH();
 182:C:/Users/49542/Desktop/GD32F30x_Demo_Suites_V2.0.0/GD32F30x_Demo_Suites_V2.0.0/BearPi-IoT_GD32F303_Demo_Suites/Projects/25_ALL_TEST/Soft_Drive\gd25qxx.c **** 
 183:C:/Users/49542/Desktop/GD32F30x_Demo_Suites_V2.0.0/GD32F30x_Demo_Suites_V2.0.0/BearPi-IoT_GD32F303_Demo_Suites/Projects/25_ALL_TEST/Soft_Drive\gd25qxx.c ****     /* wait the end of flash writing */
 184:C:/Users/49542/Desktop/GD32F30x_Demo_Suites_V2.0.0/GD32F30x_Demo_Suites_V2.0.0/BearPi-IoT_GD32F303_Demo_Suites/Projects/25_ALL_TEST/Soft_Drive\gd25qxx.c ****     spi_flash_wait_for_write_end();
 185:C:/Users/49542/Desktop/GD32F30x_Demo_Suites_V2.0.0/GD32F30x_Demo_Suites_V2.0.0/BearPi-IoT_GD32F303_Demo_Suites/Projects/25_ALL_TEST/Soft_Drive\gd25qxx.c **** }
 186:C:/Users/49542/Desktop/GD32F30x_Demo_Suites_V2.0.0/GD32F30x_Demo_Suites_V2.0.0/BearPi-IoT_GD32F303_Demo_Suites/Projects/25_ALL_TEST/Soft_Drive\gd25qxx.c **** 
 187:C:/Users/49542/Desktop/GD32F30x_Demo_Suites_V2.0.0/GD32F30x_Demo_Suites_V2.0.0/BearPi-IoT_GD32F303_Demo_Suites/Projects/25_ALL_TEST/Soft_Drive\gd25qxx.c **** /*!
 188:C:/Users/49542/Desktop/GD32F30x_Demo_Suites_V2.0.0/GD32F30x_Demo_Suites_V2.0.0/BearPi-IoT_GD32F303_Demo_Suites/Projects/25_ALL_TEST/Soft_Drive\gd25qxx.c ****     \brief      write block of data to the flash
 189:C:/Users/49542/Desktop/GD32F30x_Demo_Suites_V2.0.0/GD32F30x_Demo_Suites_V2.0.0/BearPi-IoT_GD32F303_Demo_Suites/Projects/25_ALL_TEST/Soft_Drive\gd25qxx.c ****     \param[in]  pbuffer: pointer to the buffer
 190:C:/Users/49542/Desktop/GD32F30x_Demo_Suites_V2.0.0/GD32F30x_Demo_Suites_V2.0.0/BearPi-IoT_GD32F303_Demo_Suites/Projects/25_ALL_TEST/Soft_Drive\gd25qxx.c ****     \param[in]  write_addr: flash's internal address to write
 191:C:/Users/49542/Desktop/GD32F30x_Demo_Suites_V2.0.0/GD32F30x_Demo_Suites_V2.0.0/BearPi-IoT_GD32F303_Demo_Suites/Projects/25_ALL_TEST/Soft_Drive\gd25qxx.c ****     \param[in]  num_byte_to_write: number of bytes to write to the flash
 192:C:/Users/49542/Desktop/GD32F30x_Demo_Suites_V2.0.0/GD32F30x_Demo_Suites_V2.0.0/BearPi-IoT_GD32F303_Demo_Suites/Projects/25_ALL_TEST/Soft_Drive\gd25qxx.c ****     \param[out] none
 193:C:/Users/49542/Desktop/GD32F30x_Demo_Suites_V2.0.0/GD32F30x_Demo_Suites_V2.0.0/BearPi-IoT_GD32F303_Demo_Suites/Projects/25_ALL_TEST/Soft_Drive\gd25qxx.c ****     \retval     none
 194:C:/Users/49542/Desktop/GD32F30x_Demo_Suites_V2.0.0/GD32F30x_Demo_Suites_V2.0.0/BearPi-IoT_GD32F303_Demo_Suites/Projects/25_ALL_TEST/Soft_Drive\gd25qxx.c **** */
 195:C:/Users/49542/Desktop/GD32F30x_Demo_Suites_V2.0.0/GD32F30x_Demo_Suites_V2.0.0/BearPi-IoT_GD32F303_Demo_Suites/Projects/25_ALL_TEST/Soft_Drive\gd25qxx.c **** void spi_flash_buffer_write(uint8_t* pbuffer, uint32_t write_addr, uint16_t num_byte_to_write)
 196:C:/Users/49542/Desktop/GD32F30x_Demo_Suites_V2.0.0/GD32F30x_Demo_Suites_V2.0.0/BearPi-IoT_GD32F303_Demo_Suites/Projects/25_ALL_TEST/Soft_Drive\gd25qxx.c **** {
 197:C:/Users/49542/Desktop/GD32F30x_Demo_Suites_V2.0.0/GD32F30x_Demo_Suites_V2.0.0/BearPi-IoT_GD32F303_Demo_Suites/Projects/25_ALL_TEST/Soft_Drive\gd25qxx.c ****     uint8_t num_of_page = 0, num_of_single = 0, addr = 0, count = 0, temp = 0;
 198:C:/Users/49542/Desktop/GD32F30x_Demo_Suites_V2.0.0/GD32F30x_Demo_Suites_V2.0.0/BearPi-IoT_GD32F303_Demo_Suites/Projects/25_ALL_TEST/Soft_Drive\gd25qxx.c **** 
 199:C:/Users/49542/Desktop/GD32F30x_Demo_Suites_V2.0.0/GD32F30x_Demo_Suites_V2.0.0/BearPi-IoT_GD32F303_Demo_Suites/Projects/25_ALL_TEST/Soft_Drive\gd25qxx.c ****     addr          = write_addr % SPI_FLASH_PAGE_SIZE;
 200:C:/Users/49542/Desktop/GD32F30x_Demo_Suites_V2.0.0/GD32F30x_Demo_Suites_V2.0.0/BearPi-IoT_GD32F303_Demo_Suites/Projects/25_ALL_TEST/Soft_Drive\gd25qxx.c ****     count         = SPI_FLASH_PAGE_SIZE - addr;
 201:C:/Users/49542/Desktop/GD32F30x_Demo_Suites_V2.0.0/GD32F30x_Demo_Suites_V2.0.0/BearPi-IoT_GD32F303_Demo_Suites/Projects/25_ALL_TEST/Soft_Drive\gd25qxx.c ****     num_of_page   = num_byte_to_write / SPI_FLASH_PAGE_SIZE;
 202:C:/Users/49542/Desktop/GD32F30x_Demo_Suites_V2.0.0/GD32F30x_Demo_Suites_V2.0.0/BearPi-IoT_GD32F303_Demo_Suites/Projects/25_ALL_TEST/Soft_Drive\gd25qxx.c ****     num_of_single = num_byte_to_write % SPI_FLASH_PAGE_SIZE;
 203:C:/Users/49542/Desktop/GD32F30x_Demo_Suites_V2.0.0/GD32F30x_Demo_Suites_V2.0.0/BearPi-IoT_GD32F303_Demo_Suites/Projects/25_ALL_TEST/Soft_Drive\gd25qxx.c **** 
 204:C:/Users/49542/Desktop/GD32F30x_Demo_Suites_V2.0.0/GD32F30x_Demo_Suites_V2.0.0/BearPi-IoT_GD32F303_Demo_Suites/Projects/25_ALL_TEST/Soft_Drive\gd25qxx.c ****      /* write_addr is SPI_FLASH_PAGE_SIZE aligned  */
 205:C:/Users/49542/Desktop/GD32F30x_Demo_Suites_V2.0.0/GD32F30x_Demo_Suites_V2.0.0/BearPi-IoT_GD32F303_Demo_Suites/Projects/25_ALL_TEST/Soft_Drive\gd25qxx.c ****     if(0 == addr){
 206:C:/Users/49542/Desktop/GD32F30x_Demo_Suites_V2.0.0/GD32F30x_Demo_Suites_V2.0.0/BearPi-IoT_GD32F303_Demo_Suites/Projects/25_ALL_TEST/Soft_Drive\gd25qxx.c ****         /* num_byte_to_write < SPI_FLASH_PAGE_SIZE */
 207:C:/Users/49542/Desktop/GD32F30x_Demo_Suites_V2.0.0/GD32F30x_Demo_Suites_V2.0.0/BearPi-IoT_GD32F303_Demo_Suites/Projects/25_ALL_TEST/Soft_Drive\gd25qxx.c ****         if(0 == num_of_page)
 208:C:/Users/49542/Desktop/GD32F30x_Demo_Suites_V2.0.0/GD32F30x_Demo_Suites_V2.0.0/BearPi-IoT_GD32F303_Demo_Suites/Projects/25_ALL_TEST/Soft_Drive\gd25qxx.c ****             spi_flash_page_write(pbuffer,write_addr,num_byte_to_write);
 209:C:/Users/49542/Desktop/GD32F30x_Demo_Suites_V2.0.0/GD32F30x_Demo_Suites_V2.0.0/BearPi-IoT_GD32F303_Demo_Suites/Projects/25_ALL_TEST/Soft_Drive\gd25qxx.c ****         /* num_byte_to_write > SPI_FLASH_PAGE_SIZE */
 210:C:/Users/49542/Desktop/GD32F30x_Demo_Suites_V2.0.0/GD32F30x_Demo_Suites_V2.0.0/BearPi-IoT_GD32F303_Demo_Suites/Projects/25_ALL_TEST/Soft_Drive\gd25qxx.c ****         else{
ARM GAS  C:\Users\49542\AppData\Local\Temp\ccK7V8j3.s 			page 7


 211:C:/Users/49542/Desktop/GD32F30x_Demo_Suites_V2.0.0/GD32F30x_Demo_Suites_V2.0.0/BearPi-IoT_GD32F303_Demo_Suites/Projects/25_ALL_TEST/Soft_Drive\gd25qxx.c ****             while(num_of_page--){
 212:C:/Users/49542/Desktop/GD32F30x_Demo_Suites_V2.0.0/GD32F30x_Demo_Suites_V2.0.0/BearPi-IoT_GD32F303_Demo_Suites/Projects/25_ALL_TEST/Soft_Drive\gd25qxx.c ****                 spi_flash_page_write(pbuffer,write_addr,SPI_FLASH_PAGE_SIZE);
 213:C:/Users/49542/Desktop/GD32F30x_Demo_Suites_V2.0.0/GD32F30x_Demo_Suites_V2.0.0/BearPi-IoT_GD32F303_Demo_Suites/Projects/25_ALL_TEST/Soft_Drive\gd25qxx.c ****                 write_addr += SPI_FLASH_PAGE_SIZE;
 214:C:/Users/49542/Desktop/GD32F30x_Demo_Suites_V2.0.0/GD32F30x_Demo_Suites_V2.0.0/BearPi-IoT_GD32F303_Demo_Suites/Projects/25_ALL_TEST/Soft_Drive\gd25qxx.c ****                 pbuffer += SPI_FLASH_PAGE_SIZE;
 215:C:/Users/49542/Desktop/GD32F30x_Demo_Suites_V2.0.0/GD32F30x_Demo_Suites_V2.0.0/BearPi-IoT_GD32F303_Demo_Suites/Projects/25_ALL_TEST/Soft_Drive\gd25qxx.c ****             }
 216:C:/Users/49542/Desktop/GD32F30x_Demo_Suites_V2.0.0/GD32F30x_Demo_Suites_V2.0.0/BearPi-IoT_GD32F303_Demo_Suites/Projects/25_ALL_TEST/Soft_Drive\gd25qxx.c ****             spi_flash_page_write(pbuffer,write_addr,num_of_single);
 217:C:/Users/49542/Desktop/GD32F30x_Demo_Suites_V2.0.0/GD32F30x_Demo_Suites_V2.0.0/BearPi-IoT_GD32F303_Demo_Suites/Projects/25_ALL_TEST/Soft_Drive\gd25qxx.c ****         }
 218:C:/Users/49542/Desktop/GD32F30x_Demo_Suites_V2.0.0/GD32F30x_Demo_Suites_V2.0.0/BearPi-IoT_GD32F303_Demo_Suites/Projects/25_ALL_TEST/Soft_Drive\gd25qxx.c ****     }else{
 219:C:/Users/49542/Desktop/GD32F30x_Demo_Suites_V2.0.0/GD32F30x_Demo_Suites_V2.0.0/BearPi-IoT_GD32F303_Demo_Suites/Projects/25_ALL_TEST/Soft_Drive\gd25qxx.c ****         /* write_addr is not SPI_FLASH_PAGE_SIZE aligned  */
 220:C:/Users/49542/Desktop/GD32F30x_Demo_Suites_V2.0.0/GD32F30x_Demo_Suites_V2.0.0/BearPi-IoT_GD32F303_Demo_Suites/Projects/25_ALL_TEST/Soft_Drive\gd25qxx.c ****         if(0 == num_of_page){
 221:C:/Users/49542/Desktop/GD32F30x_Demo_Suites_V2.0.0/GD32F30x_Demo_Suites_V2.0.0/BearPi-IoT_GD32F303_Demo_Suites/Projects/25_ALL_TEST/Soft_Drive\gd25qxx.c ****             /* (num_byte_to_write + write_addr) > SPI_FLASH_PAGE_SIZE */
 222:C:/Users/49542/Desktop/GD32F30x_Demo_Suites_V2.0.0/GD32F30x_Demo_Suites_V2.0.0/BearPi-IoT_GD32F303_Demo_Suites/Projects/25_ALL_TEST/Soft_Drive\gd25qxx.c ****             if(num_of_single > count){
 223:C:/Users/49542/Desktop/GD32F30x_Demo_Suites_V2.0.0/GD32F30x_Demo_Suites_V2.0.0/BearPi-IoT_GD32F303_Demo_Suites/Projects/25_ALL_TEST/Soft_Drive\gd25qxx.c ****                 temp = num_of_single - count;
 224:C:/Users/49542/Desktop/GD32F30x_Demo_Suites_V2.0.0/GD32F30x_Demo_Suites_V2.0.0/BearPi-IoT_GD32F303_Demo_Suites/Projects/25_ALL_TEST/Soft_Drive\gd25qxx.c ****                 spi_flash_page_write(pbuffer,write_addr,count);
 225:C:/Users/49542/Desktop/GD32F30x_Demo_Suites_V2.0.0/GD32F30x_Demo_Suites_V2.0.0/BearPi-IoT_GD32F303_Demo_Suites/Projects/25_ALL_TEST/Soft_Drive\gd25qxx.c ****                 write_addr += count;
 226:C:/Users/49542/Desktop/GD32F30x_Demo_Suites_V2.0.0/GD32F30x_Demo_Suites_V2.0.0/BearPi-IoT_GD32F303_Demo_Suites/Projects/25_ALL_TEST/Soft_Drive\gd25qxx.c ****                 pbuffer += count;
 227:C:/Users/49542/Desktop/GD32F30x_Demo_Suites_V2.0.0/GD32F30x_Demo_Suites_V2.0.0/BearPi-IoT_GD32F303_Demo_Suites/Projects/25_ALL_TEST/Soft_Drive\gd25qxx.c ****                 spi_flash_page_write(pbuffer,write_addr,temp);
 228:C:/Users/49542/Desktop/GD32F30x_Demo_Suites_V2.0.0/GD32F30x_Demo_Suites_V2.0.0/BearPi-IoT_GD32F303_Demo_Suites/Projects/25_ALL_TEST/Soft_Drive\gd25qxx.c ****             }else
 229:C:/Users/49542/Desktop/GD32F30x_Demo_Suites_V2.0.0/GD32F30x_Demo_Suites_V2.0.0/BearPi-IoT_GD32F303_Demo_Suites/Projects/25_ALL_TEST/Soft_Drive\gd25qxx.c ****                 spi_flash_page_write(pbuffer,write_addr,num_byte_to_write);
 230:C:/Users/49542/Desktop/GD32F30x_Demo_Suites_V2.0.0/GD32F30x_Demo_Suites_V2.0.0/BearPi-IoT_GD32F303_Demo_Suites/Projects/25_ALL_TEST/Soft_Drive\gd25qxx.c ****         }else{
 231:C:/Users/49542/Desktop/GD32F30x_Demo_Suites_V2.0.0/GD32F30x_Demo_Suites_V2.0.0/BearPi-IoT_GD32F303_Demo_Suites/Projects/25_ALL_TEST/Soft_Drive\gd25qxx.c ****             /* num_byte_to_write > SPI_FLASH_PAGE_SIZE */
 232:C:/Users/49542/Desktop/GD32F30x_Demo_Suites_V2.0.0/GD32F30x_Demo_Suites_V2.0.0/BearPi-IoT_GD32F303_Demo_Suites/Projects/25_ALL_TEST/Soft_Drive\gd25qxx.c ****             num_byte_to_write -= count;
 233:C:/Users/49542/Desktop/GD32F30x_Demo_Suites_V2.0.0/GD32F30x_Demo_Suites_V2.0.0/BearPi-IoT_GD32F303_Demo_Suites/Projects/25_ALL_TEST/Soft_Drive\gd25qxx.c ****             num_of_page = num_byte_to_write / SPI_FLASH_PAGE_SIZE;
 234:C:/Users/49542/Desktop/GD32F30x_Demo_Suites_V2.0.0/GD32F30x_Demo_Suites_V2.0.0/BearPi-IoT_GD32F303_Demo_Suites/Projects/25_ALL_TEST/Soft_Drive\gd25qxx.c ****             num_of_single = num_byte_to_write % SPI_FLASH_PAGE_SIZE;
 235:C:/Users/49542/Desktop/GD32F30x_Demo_Suites_V2.0.0/GD32F30x_Demo_Suites_V2.0.0/BearPi-IoT_GD32F303_Demo_Suites/Projects/25_ALL_TEST/Soft_Drive\gd25qxx.c **** 
 236:C:/Users/49542/Desktop/GD32F30x_Demo_Suites_V2.0.0/GD32F30x_Demo_Suites_V2.0.0/BearPi-IoT_GD32F303_Demo_Suites/Projects/25_ALL_TEST/Soft_Drive\gd25qxx.c ****             spi_flash_page_write(pbuffer,write_addr, count);
 237:C:/Users/49542/Desktop/GD32F30x_Demo_Suites_V2.0.0/GD32F30x_Demo_Suites_V2.0.0/BearPi-IoT_GD32F303_Demo_Suites/Projects/25_ALL_TEST/Soft_Drive\gd25qxx.c ****             write_addr += count;
 238:C:/Users/49542/Desktop/GD32F30x_Demo_Suites_V2.0.0/GD32F30x_Demo_Suites_V2.0.0/BearPi-IoT_GD32F303_Demo_Suites/Projects/25_ALL_TEST/Soft_Drive\gd25qxx.c ****             pbuffer += count;
 239:C:/Users/49542/Desktop/GD32F30x_Demo_Suites_V2.0.0/GD32F30x_Demo_Suites_V2.0.0/BearPi-IoT_GD32F303_Demo_Suites/Projects/25_ALL_TEST/Soft_Drive\gd25qxx.c **** 
 240:C:/Users/49542/Desktop/GD32F30x_Demo_Suites_V2.0.0/GD32F30x_Demo_Suites_V2.0.0/BearPi-IoT_GD32F303_Demo_Suites/Projects/25_ALL_TEST/Soft_Drive\gd25qxx.c ****             while(num_of_page--){
 241:C:/Users/49542/Desktop/GD32F30x_Demo_Suites_V2.0.0/GD32F30x_Demo_Suites_V2.0.0/BearPi-IoT_GD32F303_Demo_Suites/Projects/25_ALL_TEST/Soft_Drive\gd25qxx.c ****                 spi_flash_page_write(pbuffer,write_addr,SPI_FLASH_PAGE_SIZE);
 242:C:/Users/49542/Desktop/GD32F30x_Demo_Suites_V2.0.0/GD32F30x_Demo_Suites_V2.0.0/BearPi-IoT_GD32F303_Demo_Suites/Projects/25_ALL_TEST/Soft_Drive\gd25qxx.c ****                 write_addr += SPI_FLASH_PAGE_SIZE;
 243:C:/Users/49542/Desktop/GD32F30x_Demo_Suites_V2.0.0/GD32F30x_Demo_Suites_V2.0.0/BearPi-IoT_GD32F303_Demo_Suites/Projects/25_ALL_TEST/Soft_Drive\gd25qxx.c ****                 pbuffer += SPI_FLASH_PAGE_SIZE;
 244:C:/Users/49542/Desktop/GD32F30x_Demo_Suites_V2.0.0/GD32F30x_Demo_Suites_V2.0.0/BearPi-IoT_GD32F303_Demo_Suites/Projects/25_ALL_TEST/Soft_Drive\gd25qxx.c ****             }
 245:C:/Users/49542/Desktop/GD32F30x_Demo_Suites_V2.0.0/GD32F30x_Demo_Suites_V2.0.0/BearPi-IoT_GD32F303_Demo_Suites/Projects/25_ALL_TEST/Soft_Drive\gd25qxx.c **** 
 246:C:/Users/49542/Desktop/GD32F30x_Demo_Suites_V2.0.0/GD32F30x_Demo_Suites_V2.0.0/BearPi-IoT_GD32F303_Demo_Suites/Projects/25_ALL_TEST/Soft_Drive\gd25qxx.c ****             if(0 != num_of_single)
 247:C:/Users/49542/Desktop/GD32F30x_Demo_Suites_V2.0.0/GD32F30x_Demo_Suites_V2.0.0/BearPi-IoT_GD32F303_Demo_Suites/Projects/25_ALL_TEST/Soft_Drive\gd25qxx.c ****                 spi_flash_page_write(pbuffer,write_addr,num_of_single);
 248:C:/Users/49542/Desktop/GD32F30x_Demo_Suites_V2.0.0/GD32F30x_Demo_Suites_V2.0.0/BearPi-IoT_GD32F303_Demo_Suites/Projects/25_ALL_TEST/Soft_Drive\gd25qxx.c ****         }
 249:C:/Users/49542/Desktop/GD32F30x_Demo_Suites_V2.0.0/GD32F30x_Demo_Suites_V2.0.0/BearPi-IoT_GD32F303_Demo_Suites/Projects/25_ALL_TEST/Soft_Drive\gd25qxx.c ****     }
 250:C:/Users/49542/Desktop/GD32F30x_Demo_Suites_V2.0.0/GD32F30x_Demo_Suites_V2.0.0/BearPi-IoT_GD32F303_Demo_Suites/Projects/25_ALL_TEST/Soft_Drive\gd25qxx.c **** }
 251:C:/Users/49542/Desktop/GD32F30x_Demo_Suites_V2.0.0/GD32F30x_Demo_Suites_V2.0.0/BearPi-IoT_GD32F303_Demo_Suites/Projects/25_ALL_TEST/Soft_Drive\gd25qxx.c **** 
 252:C:/Users/49542/Desktop/GD32F30x_Demo_Suites_V2.0.0/GD32F30x_Demo_Suites_V2.0.0/BearPi-IoT_GD32F303_Demo_Suites/Projects/25_ALL_TEST/Soft_Drive\gd25qxx.c **** /*!
 253:C:/Users/49542/Desktop/GD32F30x_Demo_Suites_V2.0.0/GD32F30x_Demo_Suites_V2.0.0/BearPi-IoT_GD32F303_Demo_Suites/Projects/25_ALL_TEST/Soft_Drive\gd25qxx.c ****     \brief      read a block of data from the flash
 254:C:/Users/49542/Desktop/GD32F30x_Demo_Suites_V2.0.0/GD32F30x_Demo_Suites_V2.0.0/BearPi-IoT_GD32F303_Demo_Suites/Projects/25_ALL_TEST/Soft_Drive\gd25qxx.c ****     \param[in]  pbuffer: pointer to the buffer that receives the data read from the flash
 255:C:/Users/49542/Desktop/GD32F30x_Demo_Suites_V2.0.0/GD32F30x_Demo_Suites_V2.0.0/BearPi-IoT_GD32F303_Demo_Suites/Projects/25_ALL_TEST/Soft_Drive\gd25qxx.c ****     \param[in]  read_addr: flash's internal address to read from
 256:C:/Users/49542/Desktop/GD32F30x_Demo_Suites_V2.0.0/GD32F30x_Demo_Suites_V2.0.0/BearPi-IoT_GD32F303_Demo_Suites/Projects/25_ALL_TEST/Soft_Drive\gd25qxx.c ****     \param[in]  num_byte_to_read: number of bytes to read from the flash
 257:C:/Users/49542/Desktop/GD32F30x_Demo_Suites_V2.0.0/GD32F30x_Demo_Suites_V2.0.0/BearPi-IoT_GD32F303_Demo_Suites/Projects/25_ALL_TEST/Soft_Drive\gd25qxx.c ****     \param[out] none
 258:C:/Users/49542/Desktop/GD32F30x_Demo_Suites_V2.0.0/GD32F30x_Demo_Suites_V2.0.0/BearPi-IoT_GD32F303_Demo_Suites/Projects/25_ALL_TEST/Soft_Drive\gd25qxx.c ****     \retval     none
 259:C:/Users/49542/Desktop/GD32F30x_Demo_Suites_V2.0.0/GD32F30x_Demo_Suites_V2.0.0/BearPi-IoT_GD32F303_Demo_Suites/Projects/25_ALL_TEST/Soft_Drive\gd25qxx.c **** */
 260:C:/Users/49542/Desktop/GD32F30x_Demo_Suites_V2.0.0/GD32F30x_Demo_Suites_V2.0.0/BearPi-IoT_GD32F303_Demo_Suites/Projects/25_ALL_TEST/Soft_Drive\gd25qxx.c **** void spi_flash_buffer_read(uint8_t* pbuffer, uint32_t read_addr, uint16_t num_byte_to_read)
 261:C:/Users/49542/Desktop/GD32F30x_Demo_Suites_V2.0.0/GD32F30x_Demo_Suites_V2.0.0/BearPi-IoT_GD32F303_Demo_Suites/Projects/25_ALL_TEST/Soft_Drive\gd25qxx.c **** {
 262:C:/Users/49542/Desktop/GD32F30x_Demo_Suites_V2.0.0/GD32F30x_Demo_Suites_V2.0.0/BearPi-IoT_GD32F303_Demo_Suites/Projects/25_ALL_TEST/Soft_Drive\gd25qxx.c ****     /* select the flash: chip slect low */
 263:C:/Users/49542/Desktop/GD32F30x_Demo_Suites_V2.0.0/GD32F30x_Demo_Suites_V2.0.0/BearPi-IoT_GD32F303_Demo_Suites/Projects/25_ALL_TEST/Soft_Drive\gd25qxx.c ****     SPI_FLASH_CS_LOW();
 264:C:/Users/49542/Desktop/GD32F30x_Demo_Suites_V2.0.0/GD32F30x_Demo_Suites_V2.0.0/BearPi-IoT_GD32F303_Demo_Suites/Projects/25_ALL_TEST/Soft_Drive\gd25qxx.c **** 
 265:C:/Users/49542/Desktop/GD32F30x_Demo_Suites_V2.0.0/GD32F30x_Demo_Suites_V2.0.0/BearPi-IoT_GD32F303_Demo_Suites/Projects/25_ALL_TEST/Soft_Drive\gd25qxx.c ****     /* send "read from memory " instruction */
 266:C:/Users/49542/Desktop/GD32F30x_Demo_Suites_V2.0.0/GD32F30x_Demo_Suites_V2.0.0/BearPi-IoT_GD32F303_Demo_Suites/Projects/25_ALL_TEST/Soft_Drive\gd25qxx.c ****     spi_flash_send_byte(READ);
 267:C:/Users/49542/Desktop/GD32F30x_Demo_Suites_V2.0.0/GD32F30x_Demo_Suites_V2.0.0/BearPi-IoT_GD32F303_Demo_Suites/Projects/25_ALL_TEST/Soft_Drive\gd25qxx.c **** 
ARM GAS  C:\Users\49542\AppData\Local\Temp\ccK7V8j3.s 			page 8


 268:C:/Users/49542/Desktop/GD32F30x_Demo_Suites_V2.0.0/GD32F30x_Demo_Suites_V2.0.0/BearPi-IoT_GD32F303_Demo_Suites/Projects/25_ALL_TEST/Soft_Drive\gd25qxx.c ****     /* send read_addr high nibble address byte to read from */
 269:C:/Users/49542/Desktop/GD32F30x_Demo_Suites_V2.0.0/GD32F30x_Demo_Suites_V2.0.0/BearPi-IoT_GD32F303_Demo_Suites/Projects/25_ALL_TEST/Soft_Drive\gd25qxx.c ****     spi_flash_send_byte((read_addr & 0xFF0000) >> 16);
 270:C:/Users/49542/Desktop/GD32F30x_Demo_Suites_V2.0.0/GD32F30x_Demo_Suites_V2.0.0/BearPi-IoT_GD32F303_Demo_Suites/Projects/25_ALL_TEST/Soft_Drive\gd25qxx.c ****     /* send read_addr medium nibble address byte to read from */
 271:C:/Users/49542/Desktop/GD32F30x_Demo_Suites_V2.0.0/GD32F30x_Demo_Suites_V2.0.0/BearPi-IoT_GD32F303_Demo_Suites/Projects/25_ALL_TEST/Soft_Drive\gd25qxx.c ****     spi_flash_send_byte((read_addr& 0xFF00) >> 8);
 272:C:/Users/49542/Desktop/GD32F30x_Demo_Suites_V2.0.0/GD32F30x_Demo_Suites_V2.0.0/BearPi-IoT_GD32F303_Demo_Suites/Projects/25_ALL_TEST/Soft_Drive\gd25qxx.c ****     /* send read_addr low nibble address byte to read from */
 273:C:/Users/49542/Desktop/GD32F30x_Demo_Suites_V2.0.0/GD32F30x_Demo_Suites_V2.0.0/BearPi-IoT_GD32F303_Demo_Suites/Projects/25_ALL_TEST/Soft_Drive\gd25qxx.c ****     spi_flash_send_byte(read_addr & 0xFF);
 274:C:/Users/49542/Desktop/GD32F30x_Demo_Suites_V2.0.0/GD32F30x_Demo_Suites_V2.0.0/BearPi-IoT_GD32F303_Demo_Suites/Projects/25_ALL_TEST/Soft_Drive\gd25qxx.c **** 
 275:C:/Users/49542/Desktop/GD32F30x_Demo_Suites_V2.0.0/GD32F30x_Demo_Suites_V2.0.0/BearPi-IoT_GD32F303_Demo_Suites/Projects/25_ALL_TEST/Soft_Drive\gd25qxx.c ****     /* while there is data to be read */
 276:C:/Users/49542/Desktop/GD32F30x_Demo_Suites_V2.0.0/GD32F30x_Demo_Suites_V2.0.0/BearPi-IoT_GD32F303_Demo_Suites/Projects/25_ALL_TEST/Soft_Drive\gd25qxx.c ****     while(num_byte_to_read--){
 277:C:/Users/49542/Desktop/GD32F30x_Demo_Suites_V2.0.0/GD32F30x_Demo_Suites_V2.0.0/BearPi-IoT_GD32F303_Demo_Suites/Projects/25_ALL_TEST/Soft_Drive\gd25qxx.c ****         /* read a byte from the flash */
 278:C:/Users/49542/Desktop/GD32F30x_Demo_Suites_V2.0.0/GD32F30x_Demo_Suites_V2.0.0/BearPi-IoT_GD32F303_Demo_Suites/Projects/25_ALL_TEST/Soft_Drive\gd25qxx.c ****         *pbuffer = spi_flash_send_byte(DUMMY_BYTE);
 279:C:/Users/49542/Desktop/GD32F30x_Demo_Suites_V2.0.0/GD32F30x_Demo_Suites_V2.0.0/BearPi-IoT_GD32F303_Demo_Suites/Projects/25_ALL_TEST/Soft_Drive\gd25qxx.c ****         /* point to the next location where the byte read will be saved */
 280:C:/Users/49542/Desktop/GD32F30x_Demo_Suites_V2.0.0/GD32F30x_Demo_Suites_V2.0.0/BearPi-IoT_GD32F303_Demo_Suites/Projects/25_ALL_TEST/Soft_Drive\gd25qxx.c ****         pbuffer++;
 281:C:/Users/49542/Desktop/GD32F30x_Demo_Suites_V2.0.0/GD32F30x_Demo_Suites_V2.0.0/BearPi-IoT_GD32F303_Demo_Suites/Projects/25_ALL_TEST/Soft_Drive\gd25qxx.c ****     }
 282:C:/Users/49542/Desktop/GD32F30x_Demo_Suites_V2.0.0/GD32F30x_Demo_Suites_V2.0.0/BearPi-IoT_GD32F303_Demo_Suites/Projects/25_ALL_TEST/Soft_Drive\gd25qxx.c **** 
 283:C:/Users/49542/Desktop/GD32F30x_Demo_Suites_V2.0.0/GD32F30x_Demo_Suites_V2.0.0/BearPi-IoT_GD32F303_Demo_Suites/Projects/25_ALL_TEST/Soft_Drive\gd25qxx.c ****     /* deselect the flash: chip select high */
 284:C:/Users/49542/Desktop/GD32F30x_Demo_Suites_V2.0.0/GD32F30x_Demo_Suites_V2.0.0/BearPi-IoT_GD32F303_Demo_Suites/Projects/25_ALL_TEST/Soft_Drive\gd25qxx.c ****     SPI_FLASH_CS_HIGH();
 285:C:/Users/49542/Desktop/GD32F30x_Demo_Suites_V2.0.0/GD32F30x_Demo_Suites_V2.0.0/BearPi-IoT_GD32F303_Demo_Suites/Projects/25_ALL_TEST/Soft_Drive\gd25qxx.c **** }
 286:C:/Users/49542/Desktop/GD32F30x_Demo_Suites_V2.0.0/GD32F30x_Demo_Suites_V2.0.0/BearPi-IoT_GD32F303_Demo_Suites/Projects/25_ALL_TEST/Soft_Drive\gd25qxx.c **** 
 287:C:/Users/49542/Desktop/GD32F30x_Demo_Suites_V2.0.0/GD32F30x_Demo_Suites_V2.0.0/BearPi-IoT_GD32F303_Demo_Suites/Projects/25_ALL_TEST/Soft_Drive\gd25qxx.c **** /*!
 288:C:/Users/49542/Desktop/GD32F30x_Demo_Suites_V2.0.0/GD32F30x_Demo_Suites_V2.0.0/BearPi-IoT_GD32F303_Demo_Suites/Projects/25_ALL_TEST/Soft_Drive\gd25qxx.c ****     \brief      read flash identification
 289:C:/Users/49542/Desktop/GD32F30x_Demo_Suites_V2.0.0/GD32F30x_Demo_Suites_V2.0.0/BearPi-IoT_GD32F303_Demo_Suites/Projects/25_ALL_TEST/Soft_Drive\gd25qxx.c ****     \param[in]  none
 290:C:/Users/49542/Desktop/GD32F30x_Demo_Suites_V2.0.0/GD32F30x_Demo_Suites_V2.0.0/BearPi-IoT_GD32F303_Demo_Suites/Projects/25_ALL_TEST/Soft_Drive\gd25qxx.c ****     \param[out] none
 291:C:/Users/49542/Desktop/GD32F30x_Demo_Suites_V2.0.0/GD32F30x_Demo_Suites_V2.0.0/BearPi-IoT_GD32F303_Demo_Suites/Projects/25_ALL_TEST/Soft_Drive\gd25qxx.c ****     \retval     flash identification
 292:C:/Users/49542/Desktop/GD32F30x_Demo_Suites_V2.0.0/GD32F30x_Demo_Suites_V2.0.0/BearPi-IoT_GD32F303_Demo_Suites/Projects/25_ALL_TEST/Soft_Drive\gd25qxx.c **** */
 293:C:/Users/49542/Desktop/GD32F30x_Demo_Suites_V2.0.0/GD32F30x_Demo_Suites_V2.0.0/BearPi-IoT_GD32F303_Demo_Suites/Projects/25_ALL_TEST/Soft_Drive\gd25qxx.c **** uint32_t spi_flash_read_id(void)
 294:C:/Users/49542/Desktop/GD32F30x_Demo_Suites_V2.0.0/GD32F30x_Demo_Suites_V2.0.0/BearPi-IoT_GD32F303_Demo_Suites/Projects/25_ALL_TEST/Soft_Drive\gd25qxx.c **** {
 295:C:/Users/49542/Desktop/GD32F30x_Demo_Suites_V2.0.0/GD32F30x_Demo_Suites_V2.0.0/BearPi-IoT_GD32F303_Demo_Suites/Projects/25_ALL_TEST/Soft_Drive\gd25qxx.c ****     uint32_t temp = 0, temp0 = 0, temp1 = 0, temp2 = 0;
 296:C:/Users/49542/Desktop/GD32F30x_Demo_Suites_V2.0.0/GD32F30x_Demo_Suites_V2.0.0/BearPi-IoT_GD32F303_Demo_Suites/Projects/25_ALL_TEST/Soft_Drive\gd25qxx.c **** 
 297:C:/Users/49542/Desktop/GD32F30x_Demo_Suites_V2.0.0/GD32F30x_Demo_Suites_V2.0.0/BearPi-IoT_GD32F303_Demo_Suites/Projects/25_ALL_TEST/Soft_Drive\gd25qxx.c ****     /* select the flash: chip select low */
 298:C:/Users/49542/Desktop/GD32F30x_Demo_Suites_V2.0.0/GD32F30x_Demo_Suites_V2.0.0/BearPi-IoT_GD32F303_Demo_Suites/Projects/25_ALL_TEST/Soft_Drive\gd25qxx.c ****     SPI_FLASH_CS_LOW();
 299:C:/Users/49542/Desktop/GD32F30x_Demo_Suites_V2.0.0/GD32F30x_Demo_Suites_V2.0.0/BearPi-IoT_GD32F303_Demo_Suites/Projects/25_ALL_TEST/Soft_Drive\gd25qxx.c **** 
 300:C:/Users/49542/Desktop/GD32F30x_Demo_Suites_V2.0.0/GD32F30x_Demo_Suites_V2.0.0/BearPi-IoT_GD32F303_Demo_Suites/Projects/25_ALL_TEST/Soft_Drive\gd25qxx.c ****     /* send "RDID " instruction */
 301:C:/Users/49542/Desktop/GD32F30x_Demo_Suites_V2.0.0/GD32F30x_Demo_Suites_V2.0.0/BearPi-IoT_GD32F303_Demo_Suites/Projects/25_ALL_TEST/Soft_Drive\gd25qxx.c ****     spi_flash_send_byte(RDID);
 302:C:/Users/49542/Desktop/GD32F30x_Demo_Suites_V2.0.0/GD32F30x_Demo_Suites_V2.0.0/BearPi-IoT_GD32F303_Demo_Suites/Projects/25_ALL_TEST/Soft_Drive\gd25qxx.c **** 
 303:C:/Users/49542/Desktop/GD32F30x_Demo_Suites_V2.0.0/GD32F30x_Demo_Suites_V2.0.0/BearPi-IoT_GD32F303_Demo_Suites/Projects/25_ALL_TEST/Soft_Drive\gd25qxx.c ****     /* read a byte from the flash */
 304:C:/Users/49542/Desktop/GD32F30x_Demo_Suites_V2.0.0/GD32F30x_Demo_Suites_V2.0.0/BearPi-IoT_GD32F303_Demo_Suites/Projects/25_ALL_TEST/Soft_Drive\gd25qxx.c ****     temp0 = spi_flash_send_byte(DUMMY_BYTE);
 305:C:/Users/49542/Desktop/GD32F30x_Demo_Suites_V2.0.0/GD32F30x_Demo_Suites_V2.0.0/BearPi-IoT_GD32F303_Demo_Suites/Projects/25_ALL_TEST/Soft_Drive\gd25qxx.c **** 
 306:C:/Users/49542/Desktop/GD32F30x_Demo_Suites_V2.0.0/GD32F30x_Demo_Suites_V2.0.0/BearPi-IoT_GD32F303_Demo_Suites/Projects/25_ALL_TEST/Soft_Drive\gd25qxx.c ****     /* read a byte from the flash */
 307:C:/Users/49542/Desktop/GD32F30x_Demo_Suites_V2.0.0/GD32F30x_Demo_Suites_V2.0.0/BearPi-IoT_GD32F303_Demo_Suites/Projects/25_ALL_TEST/Soft_Drive\gd25qxx.c ****     temp1 = spi_flash_send_byte(DUMMY_BYTE);
 308:C:/Users/49542/Desktop/GD32F30x_Demo_Suites_V2.0.0/GD32F30x_Demo_Suites_V2.0.0/BearPi-IoT_GD32F303_Demo_Suites/Projects/25_ALL_TEST/Soft_Drive\gd25qxx.c **** 
 309:C:/Users/49542/Desktop/GD32F30x_Demo_Suites_V2.0.0/GD32F30x_Demo_Suites_V2.0.0/BearPi-IoT_GD32F303_Demo_Suites/Projects/25_ALL_TEST/Soft_Drive\gd25qxx.c ****     /* read a byte from the flash */
 310:C:/Users/49542/Desktop/GD32F30x_Demo_Suites_V2.0.0/GD32F30x_Demo_Suites_V2.0.0/BearPi-IoT_GD32F303_Demo_Suites/Projects/25_ALL_TEST/Soft_Drive\gd25qxx.c ****     temp2 = spi_flash_send_byte(DUMMY_BYTE);
 311:C:/Users/49542/Desktop/GD32F30x_Demo_Suites_V2.0.0/GD32F30x_Demo_Suites_V2.0.0/BearPi-IoT_GD32F303_Demo_Suites/Projects/25_ALL_TEST/Soft_Drive\gd25qxx.c **** 
 312:C:/Users/49542/Desktop/GD32F30x_Demo_Suites_V2.0.0/GD32F30x_Demo_Suites_V2.0.0/BearPi-IoT_GD32F303_Demo_Suites/Projects/25_ALL_TEST/Soft_Drive\gd25qxx.c ****     /* deselect the flash: chip select high */
 313:C:/Users/49542/Desktop/GD32F30x_Demo_Suites_V2.0.0/GD32F30x_Demo_Suites_V2.0.0/BearPi-IoT_GD32F303_Demo_Suites/Projects/25_ALL_TEST/Soft_Drive\gd25qxx.c ****     SPI_FLASH_CS_HIGH();
 314:C:/Users/49542/Desktop/GD32F30x_Demo_Suites_V2.0.0/GD32F30x_Demo_Suites_V2.0.0/BearPi-IoT_GD32F303_Demo_Suites/Projects/25_ALL_TEST/Soft_Drive\gd25qxx.c **** 
 315:C:/Users/49542/Desktop/GD32F30x_Demo_Suites_V2.0.0/GD32F30x_Demo_Suites_V2.0.0/BearPi-IoT_GD32F303_Demo_Suites/Projects/25_ALL_TEST/Soft_Drive\gd25qxx.c ****     temp = (temp0 << 16) | (temp1 << 8) | temp2;
 316:C:/Users/49542/Desktop/GD32F30x_Demo_Suites_V2.0.0/GD32F30x_Demo_Suites_V2.0.0/BearPi-IoT_GD32F303_Demo_Suites/Projects/25_ALL_TEST/Soft_Drive\gd25qxx.c **** 
 317:C:/Users/49542/Desktop/GD32F30x_Demo_Suites_V2.0.0/GD32F30x_Demo_Suites_V2.0.0/BearPi-IoT_GD32F303_Demo_Suites/Projects/25_ALL_TEST/Soft_Drive\gd25qxx.c ****     return temp;
 318:C:/Users/49542/Desktop/GD32F30x_Demo_Suites_V2.0.0/GD32F30x_Demo_Suites_V2.0.0/BearPi-IoT_GD32F303_Demo_Suites/Projects/25_ALL_TEST/Soft_Drive\gd25qxx.c **** }
 319:C:/Users/49542/Desktop/GD32F30x_Demo_Suites_V2.0.0/GD32F30x_Demo_Suites_V2.0.0/BearPi-IoT_GD32F303_Demo_Suites/Projects/25_ALL_TEST/Soft_Drive\gd25qxx.c **** 
 320:C:/Users/49542/Desktop/GD32F30x_Demo_Suites_V2.0.0/GD32F30x_Demo_Suites_V2.0.0/BearPi-IoT_GD32F303_Demo_Suites/Projects/25_ALL_TEST/Soft_Drive\gd25qxx.c **** /*!
 321:C:/Users/49542/Desktop/GD32F30x_Demo_Suites_V2.0.0/GD32F30x_Demo_Suites_V2.0.0/BearPi-IoT_GD32F303_Demo_Suites/Projects/25_ALL_TEST/Soft_Drive\gd25qxx.c ****     \brief      initiate a read data byte (read) sequence from the flash
 322:C:/Users/49542/Desktop/GD32F30x_Demo_Suites_V2.0.0/GD32F30x_Demo_Suites_V2.0.0/BearPi-IoT_GD32F303_Demo_Suites/Projects/25_ALL_TEST/Soft_Drive\gd25qxx.c ****     \param[in]  read_addr: flash's internal address to read from
 323:C:/Users/49542/Desktop/GD32F30x_Demo_Suites_V2.0.0/GD32F30x_Demo_Suites_V2.0.0/BearPi-IoT_GD32F303_Demo_Suites/Projects/25_ALL_TEST/Soft_Drive\gd25qxx.c ****     \param[out] none
 324:C:/Users/49542/Desktop/GD32F30x_Demo_Suites_V2.0.0/GD32F30x_Demo_Suites_V2.0.0/BearPi-IoT_GD32F303_Demo_Suites/Projects/25_ALL_TEST/Soft_Drive\gd25qxx.c ****     \retval     none
ARM GAS  C:\Users\49542\AppData\Local\Temp\ccK7V8j3.s 			page 9


 325:C:/Users/49542/Desktop/GD32F30x_Demo_Suites_V2.0.0/GD32F30x_Demo_Suites_V2.0.0/BearPi-IoT_GD32F303_Demo_Suites/Projects/25_ALL_TEST/Soft_Drive\gd25qxx.c **** */
 326:C:/Users/49542/Desktop/GD32F30x_Demo_Suites_V2.0.0/GD32F30x_Demo_Suites_V2.0.0/BearPi-IoT_GD32F303_Demo_Suites/Projects/25_ALL_TEST/Soft_Drive\gd25qxx.c **** void spi_flash_start_read_sequence(uint32_t read_addr)
 327:C:/Users/49542/Desktop/GD32F30x_Demo_Suites_V2.0.0/GD32F30x_Demo_Suites_V2.0.0/BearPi-IoT_GD32F303_Demo_Suites/Projects/25_ALL_TEST/Soft_Drive\gd25qxx.c **** {
 328:C:/Users/49542/Desktop/GD32F30x_Demo_Suites_V2.0.0/GD32F30x_Demo_Suites_V2.0.0/BearPi-IoT_GD32F303_Demo_Suites/Projects/25_ALL_TEST/Soft_Drive\gd25qxx.c ****     /* select the flash: chip select low */
 329:C:/Users/49542/Desktop/GD32F30x_Demo_Suites_V2.0.0/GD32F30x_Demo_Suites_V2.0.0/BearPi-IoT_GD32F303_Demo_Suites/Projects/25_ALL_TEST/Soft_Drive\gd25qxx.c ****     SPI_FLASH_CS_LOW();
 330:C:/Users/49542/Desktop/GD32F30x_Demo_Suites_V2.0.0/GD32F30x_Demo_Suites_V2.0.0/BearPi-IoT_GD32F303_Demo_Suites/Projects/25_ALL_TEST/Soft_Drive\gd25qxx.c **** 
 331:C:/Users/49542/Desktop/GD32F30x_Demo_Suites_V2.0.0/GD32F30x_Demo_Suites_V2.0.0/BearPi-IoT_GD32F303_Demo_Suites/Projects/25_ALL_TEST/Soft_Drive\gd25qxx.c ****     /* send "read from memory " instruction */
 332:C:/Users/49542/Desktop/GD32F30x_Demo_Suites_V2.0.0/GD32F30x_Demo_Suites_V2.0.0/BearPi-IoT_GD32F303_Demo_Suites/Projects/25_ALL_TEST/Soft_Drive\gd25qxx.c ****     spi_flash_send_byte(READ);
 333:C:/Users/49542/Desktop/GD32F30x_Demo_Suites_V2.0.0/GD32F30x_Demo_Suites_V2.0.0/BearPi-IoT_GD32F303_Demo_Suites/Projects/25_ALL_TEST/Soft_Drive\gd25qxx.c **** 
 334:C:/Users/49542/Desktop/GD32F30x_Demo_Suites_V2.0.0/GD32F30x_Demo_Suites_V2.0.0/BearPi-IoT_GD32F303_Demo_Suites/Projects/25_ALL_TEST/Soft_Drive\gd25qxx.c ****     /* send the 24-bit address of the address to read from */
 335:C:/Users/49542/Desktop/GD32F30x_Demo_Suites_V2.0.0/GD32F30x_Demo_Suites_V2.0.0/BearPi-IoT_GD32F303_Demo_Suites/Projects/25_ALL_TEST/Soft_Drive\gd25qxx.c ****     /* send read_addr high nibble address byte */
 336:C:/Users/49542/Desktop/GD32F30x_Demo_Suites_V2.0.0/GD32F30x_Demo_Suites_V2.0.0/BearPi-IoT_GD32F303_Demo_Suites/Projects/25_ALL_TEST/Soft_Drive\gd25qxx.c ****     spi_flash_send_byte((read_addr & 0xFF0000) >> 16);
 337:C:/Users/49542/Desktop/GD32F30x_Demo_Suites_V2.0.0/GD32F30x_Demo_Suites_V2.0.0/BearPi-IoT_GD32F303_Demo_Suites/Projects/25_ALL_TEST/Soft_Drive\gd25qxx.c ****     /* send read_addr medium nibble address byte */
 338:C:/Users/49542/Desktop/GD32F30x_Demo_Suites_V2.0.0/GD32F30x_Demo_Suites_V2.0.0/BearPi-IoT_GD32F303_Demo_Suites/Projects/25_ALL_TEST/Soft_Drive\gd25qxx.c ****     spi_flash_send_byte((read_addr& 0xFF00) >> 8);
 339:C:/Users/49542/Desktop/GD32F30x_Demo_Suites_V2.0.0/GD32F30x_Demo_Suites_V2.0.0/BearPi-IoT_GD32F303_Demo_Suites/Projects/25_ALL_TEST/Soft_Drive\gd25qxx.c ****     /* send read_addr low nibble address byte */
 340:C:/Users/49542/Desktop/GD32F30x_Demo_Suites_V2.0.0/GD32F30x_Demo_Suites_V2.0.0/BearPi-IoT_GD32F303_Demo_Suites/Projects/25_ALL_TEST/Soft_Drive\gd25qxx.c ****     spi_flash_send_byte(read_addr & 0xFF);
 341:C:/Users/49542/Desktop/GD32F30x_Demo_Suites_V2.0.0/GD32F30x_Demo_Suites_V2.0.0/BearPi-IoT_GD32F303_Demo_Suites/Projects/25_ALL_TEST/Soft_Drive\gd25qxx.c **** }
 342:C:/Users/49542/Desktop/GD32F30x_Demo_Suites_V2.0.0/GD32F30x_Demo_Suites_V2.0.0/BearPi-IoT_GD32F303_Demo_Suites/Projects/25_ALL_TEST/Soft_Drive\gd25qxx.c **** 
 343:C:/Users/49542/Desktop/GD32F30x_Demo_Suites_V2.0.0/GD32F30x_Demo_Suites_V2.0.0/BearPi-IoT_GD32F303_Demo_Suites/Projects/25_ALL_TEST/Soft_Drive\gd25qxx.c **** /*!
 344:C:/Users/49542/Desktop/GD32F30x_Demo_Suites_V2.0.0/GD32F30x_Demo_Suites_V2.0.0/BearPi-IoT_GD32F303_Demo_Suites/Projects/25_ALL_TEST/Soft_Drive\gd25qxx.c ****     \brief      read a byte from the SPI flash
 345:C:/Users/49542/Desktop/GD32F30x_Demo_Suites_V2.0.0/GD32F30x_Demo_Suites_V2.0.0/BearPi-IoT_GD32F303_Demo_Suites/Projects/25_ALL_TEST/Soft_Drive\gd25qxx.c ****     \param[in]  none
 346:C:/Users/49542/Desktop/GD32F30x_Demo_Suites_V2.0.0/GD32F30x_Demo_Suites_V2.0.0/BearPi-IoT_GD32F303_Demo_Suites/Projects/25_ALL_TEST/Soft_Drive\gd25qxx.c ****     \param[out] none
 347:C:/Users/49542/Desktop/GD32F30x_Demo_Suites_V2.0.0/GD32F30x_Demo_Suites_V2.0.0/BearPi-IoT_GD32F303_Demo_Suites/Projects/25_ALL_TEST/Soft_Drive\gd25qxx.c ****     \retval     byte read from the SPI flash
 348:C:/Users/49542/Desktop/GD32F30x_Demo_Suites_V2.0.0/GD32F30x_Demo_Suites_V2.0.0/BearPi-IoT_GD32F303_Demo_Suites/Projects/25_ALL_TEST/Soft_Drive\gd25qxx.c **** */
 349:C:/Users/49542/Desktop/GD32F30x_Demo_Suites_V2.0.0/GD32F30x_Demo_Suites_V2.0.0/BearPi-IoT_GD32F303_Demo_Suites/Projects/25_ALL_TEST/Soft_Drive\gd25qxx.c **** uint8_t spi_flash_read_byte(void)
 350:C:/Users/49542/Desktop/GD32F30x_Demo_Suites_V2.0.0/GD32F30x_Demo_Suites_V2.0.0/BearPi-IoT_GD32F303_Demo_Suites/Projects/25_ALL_TEST/Soft_Drive\gd25qxx.c **** {
 351:C:/Users/49542/Desktop/GD32F30x_Demo_Suites_V2.0.0/GD32F30x_Demo_Suites_V2.0.0/BearPi-IoT_GD32F303_Demo_Suites/Projects/25_ALL_TEST/Soft_Drive\gd25qxx.c ****     return(spi_flash_send_byte(DUMMY_BYTE));
 352:C:/Users/49542/Desktop/GD32F30x_Demo_Suites_V2.0.0/GD32F30x_Demo_Suites_V2.0.0/BearPi-IoT_GD32F303_Demo_Suites/Projects/25_ALL_TEST/Soft_Drive\gd25qxx.c **** }
 353:C:/Users/49542/Desktop/GD32F30x_Demo_Suites_V2.0.0/GD32F30x_Demo_Suites_V2.0.0/BearPi-IoT_GD32F303_Demo_Suites/Projects/25_ALL_TEST/Soft_Drive\gd25qxx.c **** 
 354:C:/Users/49542/Desktop/GD32F30x_Demo_Suites_V2.0.0/GD32F30x_Demo_Suites_V2.0.0/BearPi-IoT_GD32F303_Demo_Suites/Projects/25_ALL_TEST/Soft_Drive\gd25qxx.c **** /*!
 355:C:/Users/49542/Desktop/GD32F30x_Demo_Suites_V2.0.0/GD32F30x_Demo_Suites_V2.0.0/BearPi-IoT_GD32F303_Demo_Suites/Projects/25_ALL_TEST/Soft_Drive\gd25qxx.c ****     \brief      send a byte through the SPI interface and return the byte received from the SPI bus
 356:C:/Users/49542/Desktop/GD32F30x_Demo_Suites_V2.0.0/GD32F30x_Demo_Suites_V2.0.0/BearPi-IoT_GD32F303_Demo_Suites/Projects/25_ALL_TEST/Soft_Drive\gd25qxx.c ****     \param[in]  byte: byte to send
 357:C:/Users/49542/Desktop/GD32F30x_Demo_Suites_V2.0.0/GD32F30x_Demo_Suites_V2.0.0/BearPi-IoT_GD32F303_Demo_Suites/Projects/25_ALL_TEST/Soft_Drive\gd25qxx.c ****     \param[out] none
 358:C:/Users/49542/Desktop/GD32F30x_Demo_Suites_V2.0.0/GD32F30x_Demo_Suites_V2.0.0/BearPi-IoT_GD32F303_Demo_Suites/Projects/25_ALL_TEST/Soft_Drive\gd25qxx.c ****     \retval     the value of the received byte
 359:C:/Users/49542/Desktop/GD32F30x_Demo_Suites_V2.0.0/GD32F30x_Demo_Suites_V2.0.0/BearPi-IoT_GD32F303_Demo_Suites/Projects/25_ALL_TEST/Soft_Drive\gd25qxx.c **** */
 360:C:/Users/49542/Desktop/GD32F30x_Demo_Suites_V2.0.0/GD32F30x_Demo_Suites_V2.0.0/BearPi-IoT_GD32F303_Demo_Suites/Projects/25_ALL_TEST/Soft_Drive\gd25qxx.c **** uint8_t spi_flash_send_byte(uint8_t byte)
 361:C:/Users/49542/Desktop/GD32F30x_Demo_Suites_V2.0.0/GD32F30x_Demo_Suites_V2.0.0/BearPi-IoT_GD32F303_Demo_Suites/Projects/25_ALL_TEST/Soft_Drive\gd25qxx.c **** {
 136              		.loc 1 361 0
 137              		.cfi_startproc
 138              		@ args = 0, pretend = 0, frame = 0
 139              		@ frame_needed = 0, uses_anonymous_args = 0
 140              	.LVL10:
 141 0000 10B5     		push	{r4, lr}
 142              	.LCFI3:
 143              		.cfi_def_cfa_offset 8
 144              		.cfi_offset 4, -8
 145              		.cfi_offset 14, -4
 146 0002 0446     		mov	r4, r0
 147              	.LVL11:
 148              	.L6:
 362:C:/Users/49542/Desktop/GD32F30x_Demo_Suites_V2.0.0/GD32F30x_Demo_Suites_V2.0.0/BearPi-IoT_GD32F303_Demo_Suites/Projects/25_ALL_TEST/Soft_Drive\gd25qxx.c ****     /* loop while data register in not emplty */
 363:C:/Users/49542/Desktop/GD32F30x_Demo_Suites_V2.0.0/GD32F30x_Demo_Suites_V2.0.0/BearPi-IoT_GD32F303_Demo_Suites/Projects/25_ALL_TEST/Soft_Drive\gd25qxx.c ****     while (RESET == spi_i2s_flag_get(SPI2,SPI_FLAG_TBE));
 149              		.loc 1 363 0 discriminator 1
 150 0004 0221     		movs	r1, #2
 151 0006 0A48     		ldr	r0, .L9
 152 0008 FFF7FEFF 		bl	spi_i2s_flag_get
 153              	.LVL12:
ARM GAS  C:\Users\49542\AppData\Local\Temp\ccK7V8j3.s 			page 10


 154 000c 0028     		cmp	r0, #0
 155 000e F9D0     		beq	.L6
 364:C:/Users/49542/Desktop/GD32F30x_Demo_Suites_V2.0.0/GD32F30x_Demo_Suites_V2.0.0/BearPi-IoT_GD32F303_Demo_Suites/Projects/25_ALL_TEST/Soft_Drive\gd25qxx.c **** 
 365:C:/Users/49542/Desktop/GD32F30x_Demo_Suites_V2.0.0/GD32F30x_Demo_Suites_V2.0.0/BearPi-IoT_GD32F303_Demo_Suites/Projects/25_ALL_TEST/Soft_Drive\gd25qxx.c ****     /* send byte through the SPI2 peripheral */
 366:C:/Users/49542/Desktop/GD32F30x_Demo_Suites_V2.0.0/GD32F30x_Demo_Suites_V2.0.0/BearPi-IoT_GD32F303_Demo_Suites/Projects/25_ALL_TEST/Soft_Drive\gd25qxx.c ****     spi_i2s_data_transmit(SPI2,byte);
 156              		.loc 1 366 0
 157 0010 2146     		mov	r1, r4
 158 0012 0748     		ldr	r0, .L9
 159 0014 FFF7FEFF 		bl	spi_i2s_data_transmit
 160              	.LVL13:
 161              	.L7:
 367:C:/Users/49542/Desktop/GD32F30x_Demo_Suites_V2.0.0/GD32F30x_Demo_Suites_V2.0.0/BearPi-IoT_GD32F303_Demo_Suites/Projects/25_ALL_TEST/Soft_Drive\gd25qxx.c **** 
 368:C:/Users/49542/Desktop/GD32F30x_Demo_Suites_V2.0.0/GD32F30x_Demo_Suites_V2.0.0/BearPi-IoT_GD32F303_Demo_Suites/Projects/25_ALL_TEST/Soft_Drive\gd25qxx.c ****     /* wait to receive a byte */
 369:C:/Users/49542/Desktop/GD32F30x_Demo_Suites_V2.0.0/GD32F30x_Demo_Suites_V2.0.0/BearPi-IoT_GD32F303_Demo_Suites/Projects/25_ALL_TEST/Soft_Drive\gd25qxx.c ****     while(RESET == spi_i2s_flag_get(SPI2,SPI_FLAG_RBNE));
 162              		.loc 1 369 0 discriminator 1
 163 0018 0121     		movs	r1, #1
 164 001a 0548     		ldr	r0, .L9
 165 001c FFF7FEFF 		bl	spi_i2s_flag_get
 166              	.LVL14:
 167 0020 0028     		cmp	r0, #0
 168 0022 F9D0     		beq	.L7
 370:C:/Users/49542/Desktop/GD32F30x_Demo_Suites_V2.0.0/GD32F30x_Demo_Suites_V2.0.0/BearPi-IoT_GD32F303_Demo_Suites/Projects/25_ALL_TEST/Soft_Drive\gd25qxx.c **** 
 371:C:/Users/49542/Desktop/GD32F30x_Demo_Suites_V2.0.0/GD32F30x_Demo_Suites_V2.0.0/BearPi-IoT_GD32F303_Demo_Suites/Projects/25_ALL_TEST/Soft_Drive\gd25qxx.c ****     /* return the byte read from the SPI bus */
 372:C:/Users/49542/Desktop/GD32F30x_Demo_Suites_V2.0.0/GD32F30x_Demo_Suites_V2.0.0/BearPi-IoT_GD32F303_Demo_Suites/Projects/25_ALL_TEST/Soft_Drive\gd25qxx.c ****     return(spi_i2s_data_receive(SPI2));
 169              		.loc 1 372 0
 170 0024 0248     		ldr	r0, .L9
 171 0026 FFF7FEFF 		bl	spi_i2s_data_receive
 172              	.LVL15:
 373:C:/Users/49542/Desktop/GD32F30x_Demo_Suites_V2.0.0/GD32F30x_Demo_Suites_V2.0.0/BearPi-IoT_GD32F303_Demo_Suites/Projects/25_ALL_TEST/Soft_Drive\gd25qxx.c **** }
 173              		.loc 1 373 0
 174 002a C0B2     		uxtb	r0, r0
 175 002c 10BD     		pop	{r4, pc}
 176              	.L10:
 177 002e 00BF     		.align	2
 178              	.L9:
 179 0030 003C0040 		.word	1073757184
 180              		.cfi_endproc
 181              	.LFE125:
 183              		.section	.text.spi_flash_buffer_read,"ax",%progbits
 184              		.align	1
 185              		.global	spi_flash_buffer_read
 186              		.syntax unified
 187              		.thumb
 188              		.thumb_func
 189              		.fpu fpv4-sp-d16
 191              	spi_flash_buffer_read:
 192              	.LFB121:
 261:C:/Users/49542/Desktop/GD32F30x_Demo_Suites_V2.0.0/GD32F30x_Demo_Suites_V2.0.0/BearPi-IoT_GD32F303_Demo_Suites/Projects/25_ALL_TEST/Soft_Drive\gd25qxx.c ****     /* select the flash: chip slect low */
 193              		.loc 1 261 0
 194              		.cfi_startproc
 195              		@ args = 0, pretend = 0, frame = 0
 196              		@ frame_needed = 0, uses_anonymous_args = 0
 197              	.LVL16:
 198 0000 70B5     		push	{r4, r5, r6, lr}
 199              	.LCFI4:
 200              		.cfi_def_cfa_offset 16
 201              		.cfi_offset 4, -16
ARM GAS  C:\Users\49542\AppData\Local\Temp\ccK7V8j3.s 			page 11


 202              		.cfi_offset 5, -12
 203              		.cfi_offset 6, -8
 204              		.cfi_offset 14, -4
 205 0002 0646     		mov	r6, r0
 206 0004 0C46     		mov	r4, r1
 207 0006 1546     		mov	r5, r2
 263:C:/Users/49542/Desktop/GD32F30x_Demo_Suites_V2.0.0/GD32F30x_Demo_Suites_V2.0.0/BearPi-IoT_GD32F303_Demo_Suites/Projects/25_ALL_TEST/Soft_Drive\gd25qxx.c **** 
 208              		.loc 1 263 0
 209 0008 4FF48051 		mov	r1, #4096
 210              	.LVL17:
 211 000c 1048     		ldr	r0, .L15
 212              	.LVL18:
 213 000e FFF7FEFF 		bl	gpio_bit_reset
 214              	.LVL19:
 266:C:/Users/49542/Desktop/GD32F30x_Demo_Suites_V2.0.0/GD32F30x_Demo_Suites_V2.0.0/BearPi-IoT_GD32F303_Demo_Suites/Projects/25_ALL_TEST/Soft_Drive\gd25qxx.c **** 
 215              		.loc 1 266 0
 216 0012 0320     		movs	r0, #3
 217 0014 FFF7FEFF 		bl	spi_flash_send_byte
 218              	.LVL20:
 269:C:/Users/49542/Desktop/GD32F30x_Demo_Suites_V2.0.0/GD32F30x_Demo_Suites_V2.0.0/BearPi-IoT_GD32F303_Demo_Suites/Projects/25_ALL_TEST/Soft_Drive\gd25qxx.c ****     /* send read_addr medium nibble address byte to read from */
 219              		.loc 1 269 0
 220 0018 C4F30740 		ubfx	r0, r4, #16, #8
 221 001c FFF7FEFF 		bl	spi_flash_send_byte
 222              	.LVL21:
 271:C:/Users/49542/Desktop/GD32F30x_Demo_Suites_V2.0.0/GD32F30x_Demo_Suites_V2.0.0/BearPi-IoT_GD32F303_Demo_Suites/Projects/25_ALL_TEST/Soft_Drive\gd25qxx.c ****     /* send read_addr low nibble address byte to read from */
 223              		.loc 1 271 0
 224 0020 C4F30720 		ubfx	r0, r4, #8, #8
 225 0024 FFF7FEFF 		bl	spi_flash_send_byte
 226              	.LVL22:
 273:C:/Users/49542/Desktop/GD32F30x_Demo_Suites_V2.0.0/GD32F30x_Demo_Suites_V2.0.0/BearPi-IoT_GD32F303_Demo_Suites/Projects/25_ALL_TEST/Soft_Drive\gd25qxx.c **** 
 227              		.loc 1 273 0
 228 0028 E0B2     		uxtb	r0, r4
 229 002a FFF7FEFF 		bl	spi_flash_send_byte
 230              	.LVL23:
 276:C:/Users/49542/Desktop/GD32F30x_Demo_Suites_V2.0.0/GD32F30x_Demo_Suites_V2.0.0/BearPi-IoT_GD32F303_Demo_Suites/Projects/25_ALL_TEST/Soft_Drive\gd25qxx.c ****         /* read a byte from the flash */
 231              		.loc 1 276 0
 232 002e 05E0     		b	.L12
 233              	.LVL24:
 234              	.L13:
 278:C:/Users/49542/Desktop/GD32F30x_Demo_Suites_V2.0.0/GD32F30x_Demo_Suites_V2.0.0/BearPi-IoT_GD32F303_Demo_Suites/Projects/25_ALL_TEST/Soft_Drive\gd25qxx.c ****         /* point to the next location where the byte read will be saved */
 235              		.loc 1 278 0
 236 0030 A520     		movs	r0, #165
 237 0032 FFF7FEFF 		bl	spi_flash_send_byte
 238              	.LVL25:
 239 0036 06F8010B 		strb	r0, [r6], #1
 240              	.LVL26:
 276:C:/Users/49542/Desktop/GD32F30x_Demo_Suites_V2.0.0/GD32F30x_Demo_Suites_V2.0.0/BearPi-IoT_GD32F303_Demo_Suites/Projects/25_ALL_TEST/Soft_Drive\gd25qxx.c ****         /* read a byte from the flash */
 241              		.loc 1 276 0
 242 003a 2546     		mov	r5, r4
 243              	.LVL27:
 244              	.L12:
 245 003c 6B1E     		subs	r3, r5, #1
 246 003e 9CB2     		uxth	r4, r3
 247              	.LVL28:
 248 0040 002D     		cmp	r5, #0
 249 0042 F5D1     		bne	.L13
 284:C:/Users/49542/Desktop/GD32F30x_Demo_Suites_V2.0.0/GD32F30x_Demo_Suites_V2.0.0/BearPi-IoT_GD32F303_Demo_Suites/Projects/25_ALL_TEST/Soft_Drive\gd25qxx.c **** }
ARM GAS  C:\Users\49542\AppData\Local\Temp\ccK7V8j3.s 			page 12


 250              		.loc 1 284 0
 251 0044 4FF48051 		mov	r1, #4096
 252 0048 0148     		ldr	r0, .L15
 253 004a FFF7FEFF 		bl	gpio_bit_set
 254              	.LVL29:
 285:C:/Users/49542/Desktop/GD32F30x_Demo_Suites_V2.0.0/GD32F30x_Demo_Suites_V2.0.0/BearPi-IoT_GD32F303_Demo_Suites/Projects/25_ALL_TEST/Soft_Drive\gd25qxx.c **** 
 255              		.loc 1 285 0
 256 004e 70BD     		pop	{r4, r5, r6, pc}
 257              	.LVL30:
 258              	.L16:
 259              		.align	2
 260              	.L15:
 261 0050 00080140 		.word	1073809408
 262              		.cfi_endproc
 263              	.LFE121:
 265              		.section	.text.spi_flash_read_id,"ax",%progbits
 266              		.align	1
 267              		.global	spi_flash_read_id
 268              		.syntax unified
 269              		.thumb
 270              		.thumb_func
 271              		.fpu fpv4-sp-d16
 273              	spi_flash_read_id:
 274              	.LFB122:
 294:C:/Users/49542/Desktop/GD32F30x_Demo_Suites_V2.0.0/GD32F30x_Demo_Suites_V2.0.0/BearPi-IoT_GD32F303_Demo_Suites/Projects/25_ALL_TEST/Soft_Drive\gd25qxx.c ****     uint32_t temp = 0, temp0 = 0, temp1 = 0, temp2 = 0;
 275              		.loc 1 294 0
 276              		.cfi_startproc
 277              		@ args = 0, pretend = 0, frame = 0
 278              		@ frame_needed = 0, uses_anonymous_args = 0
 279 0000 F8B5     		push	{r3, r4, r5, r6, r7, lr}
 280              	.LCFI5:
 281              		.cfi_def_cfa_offset 24
 282              		.cfi_offset 3, -24
 283              		.cfi_offset 4, -20
 284              		.cfi_offset 5, -16
 285              		.cfi_offset 6, -12
 286              		.cfi_offset 7, -8
 287              		.cfi_offset 14, -4
 288              	.LVL31:
 298:C:/Users/49542/Desktop/GD32F30x_Demo_Suites_V2.0.0/GD32F30x_Demo_Suites_V2.0.0/BearPi-IoT_GD32F303_Demo_Suites/Projects/25_ALL_TEST/Soft_Drive\gd25qxx.c **** 
 289              		.loc 1 298 0
 290 0002 0F4D     		ldr	r5, .L19
 291 0004 4FF48051 		mov	r1, #4096
 292 0008 2846     		mov	r0, r5
 293 000a FFF7FEFF 		bl	gpio_bit_reset
 294              	.LVL32:
 301:C:/Users/49542/Desktop/GD32F30x_Demo_Suites_V2.0.0/GD32F30x_Demo_Suites_V2.0.0/BearPi-IoT_GD32F303_Demo_Suites/Projects/25_ALL_TEST/Soft_Drive\gd25qxx.c **** 
 295              		.loc 1 301 0
 296 000e 9F20     		movs	r0, #159
 297 0010 FFF7FEFF 		bl	spi_flash_send_byte
 298              	.LVL33:
 304:C:/Users/49542/Desktop/GD32F30x_Demo_Suites_V2.0.0/GD32F30x_Demo_Suites_V2.0.0/BearPi-IoT_GD32F303_Demo_Suites/Projects/25_ALL_TEST/Soft_Drive\gd25qxx.c **** 
 299              		.loc 1 304 0
 300 0014 A520     		movs	r0, #165
 301 0016 FFF7FEFF 		bl	spi_flash_send_byte
 302              	.LVL34:
 303 001a 0746     		mov	r7, r0
ARM GAS  C:\Users\49542\AppData\Local\Temp\ccK7V8j3.s 			page 13


 304              	.LVL35:
 307:C:/Users/49542/Desktop/GD32F30x_Demo_Suites_V2.0.0/GD32F30x_Demo_Suites_V2.0.0/BearPi-IoT_GD32F303_Demo_Suites/Projects/25_ALL_TEST/Soft_Drive\gd25qxx.c **** 
 305              		.loc 1 307 0
 306 001c A520     		movs	r0, #165
 307              	.LVL36:
 308 001e FFF7FEFF 		bl	spi_flash_send_byte
 309              	.LVL37:
 310 0022 0446     		mov	r4, r0
 311              	.LVL38:
 310:C:/Users/49542/Desktop/GD32F30x_Demo_Suites_V2.0.0/GD32F30x_Demo_Suites_V2.0.0/BearPi-IoT_GD32F303_Demo_Suites/Projects/25_ALL_TEST/Soft_Drive\gd25qxx.c **** 
 312              		.loc 1 310 0
 313 0024 A520     		movs	r0, #165
 314              	.LVL39:
 315 0026 FFF7FEFF 		bl	spi_flash_send_byte
 316              	.LVL40:
 317 002a 0646     		mov	r6, r0
 318              	.LVL41:
 313:C:/Users/49542/Desktop/GD32F30x_Demo_Suites_V2.0.0/GD32F30x_Demo_Suites_V2.0.0/BearPi-IoT_GD32F303_Demo_Suites/Projects/25_ALL_TEST/Soft_Drive\gd25qxx.c **** 
 319              		.loc 1 313 0
 320 002c 4FF48051 		mov	r1, #4096
 321 0030 2846     		mov	r0, r5
 322              	.LVL42:
 323 0032 FFF7FEFF 		bl	gpio_bit_set
 324              	.LVL43:
 315:C:/Users/49542/Desktop/GD32F30x_Demo_Suites_V2.0.0/GD32F30x_Demo_Suites_V2.0.0/BearPi-IoT_GD32F303_Demo_Suites/Projects/25_ALL_TEST/Soft_Drive\gd25qxx.c **** 
 325              		.loc 1 315 0
 326 0036 2002     		lsls	r0, r4, #8
 327 0038 40EA0740 		orr	r0, r0, r7, lsl #16
 328              	.LVL44:
 318:C:/Users/49542/Desktop/GD32F30x_Demo_Suites_V2.0.0/GD32F30x_Demo_Suites_V2.0.0/BearPi-IoT_GD32F303_Demo_Suites/Projects/25_ALL_TEST/Soft_Drive\gd25qxx.c **** 
 329              		.loc 1 318 0
 330 003c 3043     		orrs	r0, r0, r6
 331              	.LVL45:
 332 003e F8BD     		pop	{r3, r4, r5, r6, r7, pc}
 333              	.LVL46:
 334              	.L20:
 335              		.align	2
 336              	.L19:
 337 0040 00080140 		.word	1073809408
 338              		.cfi_endproc
 339              	.LFE122:
 341              		.section	.text.spi_flash_start_read_sequence,"ax",%progbits
 342              		.align	1
 343              		.global	spi_flash_start_read_sequence
 344              		.syntax unified
 345              		.thumb
 346              		.thumb_func
 347              		.fpu fpv4-sp-d16
 349              	spi_flash_start_read_sequence:
 350              	.LFB123:
 327:C:/Users/49542/Desktop/GD32F30x_Demo_Suites_V2.0.0/GD32F30x_Demo_Suites_V2.0.0/BearPi-IoT_GD32F303_Demo_Suites/Projects/25_ALL_TEST/Soft_Drive\gd25qxx.c ****     /* select the flash: chip select low */
 351              		.loc 1 327 0
 352              		.cfi_startproc
 353              		@ args = 0, pretend = 0, frame = 0
 354              		@ frame_needed = 0, uses_anonymous_args = 0
 355              	.LVL47:
 356 0000 10B5     		push	{r4, lr}
ARM GAS  C:\Users\49542\AppData\Local\Temp\ccK7V8j3.s 			page 14


 357              	.LCFI6:
 358              		.cfi_def_cfa_offset 8
 359              		.cfi_offset 4, -8
 360              		.cfi_offset 14, -4
 361 0002 0446     		mov	r4, r0
 329:C:/Users/49542/Desktop/GD32F30x_Demo_Suites_V2.0.0/GD32F30x_Demo_Suites_V2.0.0/BearPi-IoT_GD32F303_Demo_Suites/Projects/25_ALL_TEST/Soft_Drive\gd25qxx.c **** 
 362              		.loc 1 329 0
 363 0004 4FF48051 		mov	r1, #4096
 364 0008 0848     		ldr	r0, .L23
 365              	.LVL48:
 366 000a FFF7FEFF 		bl	gpio_bit_reset
 367              	.LVL49:
 332:C:/Users/49542/Desktop/GD32F30x_Demo_Suites_V2.0.0/GD32F30x_Demo_Suites_V2.0.0/BearPi-IoT_GD32F303_Demo_Suites/Projects/25_ALL_TEST/Soft_Drive\gd25qxx.c **** 
 368              		.loc 1 332 0
 369 000e 0320     		movs	r0, #3
 370 0010 FFF7FEFF 		bl	spi_flash_send_byte
 371              	.LVL50:
 336:C:/Users/49542/Desktop/GD32F30x_Demo_Suites_V2.0.0/GD32F30x_Demo_Suites_V2.0.0/BearPi-IoT_GD32F303_Demo_Suites/Projects/25_ALL_TEST/Soft_Drive\gd25qxx.c ****     /* send read_addr medium nibble address byte */
 372              		.loc 1 336 0
 373 0014 C4F30740 		ubfx	r0, r4, #16, #8
 374 0018 FFF7FEFF 		bl	spi_flash_send_byte
 375              	.LVL51:
 338:C:/Users/49542/Desktop/GD32F30x_Demo_Suites_V2.0.0/GD32F30x_Demo_Suites_V2.0.0/BearPi-IoT_GD32F303_Demo_Suites/Projects/25_ALL_TEST/Soft_Drive\gd25qxx.c ****     /* send read_addr low nibble address byte */
 376              		.loc 1 338 0
 377 001c C4F30720 		ubfx	r0, r4, #8, #8
 378 0020 FFF7FEFF 		bl	spi_flash_send_byte
 379              	.LVL52:
 340:C:/Users/49542/Desktop/GD32F30x_Demo_Suites_V2.0.0/GD32F30x_Demo_Suites_V2.0.0/BearPi-IoT_GD32F303_Demo_Suites/Projects/25_ALL_TEST/Soft_Drive\gd25qxx.c **** }
 380              		.loc 1 340 0
 381 0024 E0B2     		uxtb	r0, r4
 382 0026 FFF7FEFF 		bl	spi_flash_send_byte
 383              	.LVL53:
 341:C:/Users/49542/Desktop/GD32F30x_Demo_Suites_V2.0.0/GD32F30x_Demo_Suites_V2.0.0/BearPi-IoT_GD32F303_Demo_Suites/Projects/25_ALL_TEST/Soft_Drive\gd25qxx.c **** 
 384              		.loc 1 341 0
 385 002a 10BD     		pop	{r4, pc}
 386              	.LVL54:
 387              	.L24:
 388              		.align	2
 389              	.L23:
 390 002c 00080140 		.word	1073809408
 391              		.cfi_endproc
 392              	.LFE123:
 394              		.section	.text.spi_flash_read_byte,"ax",%progbits
 395              		.align	1
 396              		.global	spi_flash_read_byte
 397              		.syntax unified
 398              		.thumb
 399              		.thumb_func
 400              		.fpu fpv4-sp-d16
 402              	spi_flash_read_byte:
 403              	.LFB124:
 350:C:/Users/49542/Desktop/GD32F30x_Demo_Suites_V2.0.0/GD32F30x_Demo_Suites_V2.0.0/BearPi-IoT_GD32F303_Demo_Suites/Projects/25_ALL_TEST/Soft_Drive\gd25qxx.c ****     return(spi_flash_send_byte(DUMMY_BYTE));
 404              		.loc 1 350 0
 405              		.cfi_startproc
 406              		@ args = 0, pretend = 0, frame = 0
 407              		@ frame_needed = 0, uses_anonymous_args = 0
 408 0000 08B5     		push	{r3, lr}
ARM GAS  C:\Users\49542\AppData\Local\Temp\ccK7V8j3.s 			page 15


 409              	.LCFI7:
 410              		.cfi_def_cfa_offset 8
 411              		.cfi_offset 3, -8
 412              		.cfi_offset 14, -4
 351:C:/Users/49542/Desktop/GD32F30x_Demo_Suites_V2.0.0/GD32F30x_Demo_Suites_V2.0.0/BearPi-IoT_GD32F303_Demo_Suites/Projects/25_ALL_TEST/Soft_Drive\gd25qxx.c **** }
 413              		.loc 1 351 0
 414 0002 A520     		movs	r0, #165
 415 0004 FFF7FEFF 		bl	spi_flash_send_byte
 416              	.LVL55:
 352:C:/Users/49542/Desktop/GD32F30x_Demo_Suites_V2.0.0/GD32F30x_Demo_Suites_V2.0.0/BearPi-IoT_GD32F303_Demo_Suites/Projects/25_ALL_TEST/Soft_Drive\gd25qxx.c **** 
 417              		.loc 1 352 0
 418 0008 08BD     		pop	{r3, pc}
 419              		.cfi_endproc
 420              	.LFE124:
 422              		.section	.text.spi_flash_send_halfword,"ax",%progbits
 423              		.align	1
 424              		.global	spi_flash_send_halfword
 425              		.syntax unified
 426              		.thumb
 427              		.thumb_func
 428              		.fpu fpv4-sp-d16
 430              	spi_flash_send_halfword:
 431              	.LFB126:
 374:C:/Users/49542/Desktop/GD32F30x_Demo_Suites_V2.0.0/GD32F30x_Demo_Suites_V2.0.0/BearPi-IoT_GD32F303_Demo_Suites/Projects/25_ALL_TEST/Soft_Drive\gd25qxx.c **** 
 375:C:/Users/49542/Desktop/GD32F30x_Demo_Suites_V2.0.0/GD32F30x_Demo_Suites_V2.0.0/BearPi-IoT_GD32F303_Demo_Suites/Projects/25_ALL_TEST/Soft_Drive\gd25qxx.c **** /*!
 376:C:/Users/49542/Desktop/GD32F30x_Demo_Suites_V2.0.0/GD32F30x_Demo_Suites_V2.0.0/BearPi-IoT_GD32F303_Demo_Suites/Projects/25_ALL_TEST/Soft_Drive\gd25qxx.c ****     \brief      send a half word through the SPI interface and return the half word received from t
 377:C:/Users/49542/Desktop/GD32F30x_Demo_Suites_V2.0.0/GD32F30x_Demo_Suites_V2.0.0/BearPi-IoT_GD32F303_Demo_Suites/Projects/25_ALL_TEST/Soft_Drive\gd25qxx.c ****     \param[in]  half_word: half word to send
 378:C:/Users/49542/Desktop/GD32F30x_Demo_Suites_V2.0.0/GD32F30x_Demo_Suites_V2.0.0/BearPi-IoT_GD32F303_Demo_Suites/Projects/25_ALL_TEST/Soft_Drive\gd25qxx.c ****     \param[out] none
 379:C:/Users/49542/Desktop/GD32F30x_Demo_Suites_V2.0.0/GD32F30x_Demo_Suites_V2.0.0/BearPi-IoT_GD32F303_Demo_Suites/Projects/25_ALL_TEST/Soft_Drive\gd25qxx.c ****     \retval     the value of the received byte
 380:C:/Users/49542/Desktop/GD32F30x_Demo_Suites_V2.0.0/GD32F30x_Demo_Suites_V2.0.0/BearPi-IoT_GD32F303_Demo_Suites/Projects/25_ALL_TEST/Soft_Drive\gd25qxx.c **** */
 381:C:/Users/49542/Desktop/GD32F30x_Demo_Suites_V2.0.0/GD32F30x_Demo_Suites_V2.0.0/BearPi-IoT_GD32F303_Demo_Suites/Projects/25_ALL_TEST/Soft_Drive\gd25qxx.c **** uint16_t spi_flash_send_halfword(uint16_t half_word)
 382:C:/Users/49542/Desktop/GD32F30x_Demo_Suites_V2.0.0/GD32F30x_Demo_Suites_V2.0.0/BearPi-IoT_GD32F303_Demo_Suites/Projects/25_ALL_TEST/Soft_Drive\gd25qxx.c **** {
 432              		.loc 1 382 0
 433              		.cfi_startproc
 434              		@ args = 0, pretend = 0, frame = 0
 435              		@ frame_needed = 0, uses_anonymous_args = 0
 436              	.LVL56:
 437 0000 10B5     		push	{r4, lr}
 438              	.LCFI8:
 439              		.cfi_def_cfa_offset 8
 440              		.cfi_offset 4, -8
 441              		.cfi_offset 14, -4
 442 0002 0446     		mov	r4, r0
 443              	.LVL57:
 444              	.L28:
 383:C:/Users/49542/Desktop/GD32F30x_Demo_Suites_V2.0.0/GD32F30x_Demo_Suites_V2.0.0/BearPi-IoT_GD32F303_Demo_Suites/Projects/25_ALL_TEST/Soft_Drive\gd25qxx.c ****     /* loop while data register in not emplty */
 384:C:/Users/49542/Desktop/GD32F30x_Demo_Suites_V2.0.0/GD32F30x_Demo_Suites_V2.0.0/BearPi-IoT_GD32F303_Demo_Suites/Projects/25_ALL_TEST/Soft_Drive\gd25qxx.c ****     while(RESET == spi_i2s_flag_get(SPI2,SPI_FLAG_TBE));
 445              		.loc 1 384 0 discriminator 1
 446 0004 0221     		movs	r1, #2
 447 0006 0948     		ldr	r0, .L31
 448 0008 FFF7FEFF 		bl	spi_i2s_flag_get
 449              	.LVL58:
 450 000c 0028     		cmp	r0, #0
 451 000e F9D0     		beq	.L28
 385:C:/Users/49542/Desktop/GD32F30x_Demo_Suites_V2.0.0/GD32F30x_Demo_Suites_V2.0.0/BearPi-IoT_GD32F303_Demo_Suites/Projects/25_ALL_TEST/Soft_Drive\gd25qxx.c **** 
 386:C:/Users/49542/Desktop/GD32F30x_Demo_Suites_V2.0.0/GD32F30x_Demo_Suites_V2.0.0/BearPi-IoT_GD32F303_Demo_Suites/Projects/25_ALL_TEST/Soft_Drive\gd25qxx.c ****     /* send half word through the SPI2 peripheral */
 387:C:/Users/49542/Desktop/GD32F30x_Demo_Suites_V2.0.0/GD32F30x_Demo_Suites_V2.0.0/BearPi-IoT_GD32F303_Demo_Suites/Projects/25_ALL_TEST/Soft_Drive\gd25qxx.c ****     spi_i2s_data_transmit(SPI2,half_word);
ARM GAS  C:\Users\49542\AppData\Local\Temp\ccK7V8j3.s 			page 16


 452              		.loc 1 387 0
 453 0010 2146     		mov	r1, r4
 454 0012 0648     		ldr	r0, .L31
 455 0014 FFF7FEFF 		bl	spi_i2s_data_transmit
 456              	.LVL59:
 457              	.L29:
 388:C:/Users/49542/Desktop/GD32F30x_Demo_Suites_V2.0.0/GD32F30x_Demo_Suites_V2.0.0/BearPi-IoT_GD32F303_Demo_Suites/Projects/25_ALL_TEST/Soft_Drive\gd25qxx.c **** 
 389:C:/Users/49542/Desktop/GD32F30x_Demo_Suites_V2.0.0/GD32F30x_Demo_Suites_V2.0.0/BearPi-IoT_GD32F303_Demo_Suites/Projects/25_ALL_TEST/Soft_Drive\gd25qxx.c ****     /* wait to receive a half word */
 390:C:/Users/49542/Desktop/GD32F30x_Demo_Suites_V2.0.0/GD32F30x_Demo_Suites_V2.0.0/BearPi-IoT_GD32F303_Demo_Suites/Projects/25_ALL_TEST/Soft_Drive\gd25qxx.c ****     while(RESET == spi_i2s_flag_get(SPI2,SPI_FLAG_RBNE));
 458              		.loc 1 390 0 discriminator 1
 459 0018 0121     		movs	r1, #1
 460 001a 0448     		ldr	r0, .L31
 461 001c FFF7FEFF 		bl	spi_i2s_flag_get
 462              	.LVL60:
 463 0020 0028     		cmp	r0, #0
 464 0022 F9D0     		beq	.L29
 391:C:/Users/49542/Desktop/GD32F30x_Demo_Suites_V2.0.0/GD32F30x_Demo_Suites_V2.0.0/BearPi-IoT_GD32F303_Demo_Suites/Projects/25_ALL_TEST/Soft_Drive\gd25qxx.c **** 
 392:C:/Users/49542/Desktop/GD32F30x_Demo_Suites_V2.0.0/GD32F30x_Demo_Suites_V2.0.0/BearPi-IoT_GD32F303_Demo_Suites/Projects/25_ALL_TEST/Soft_Drive\gd25qxx.c ****     /* return the half word read from the SPI bus */
 393:C:/Users/49542/Desktop/GD32F30x_Demo_Suites_V2.0.0/GD32F30x_Demo_Suites_V2.0.0/BearPi-IoT_GD32F303_Demo_Suites/Projects/25_ALL_TEST/Soft_Drive\gd25qxx.c ****     return spi_i2s_data_receive(SPI2);
 465              		.loc 1 393 0
 466 0024 0148     		ldr	r0, .L31
 467 0026 FFF7FEFF 		bl	spi_i2s_data_receive
 468              	.LVL61:
 394:C:/Users/49542/Desktop/GD32F30x_Demo_Suites_V2.0.0/GD32F30x_Demo_Suites_V2.0.0/BearPi-IoT_GD32F303_Demo_Suites/Projects/25_ALL_TEST/Soft_Drive\gd25qxx.c **** }
 469              		.loc 1 394 0
 470 002a 10BD     		pop	{r4, pc}
 471              	.L32:
 472              		.align	2
 473              	.L31:
 474 002c 003C0040 		.word	1073757184
 475              		.cfi_endproc
 476              	.LFE126:
 478              		.section	.text.spi_flash_write_enable,"ax",%progbits
 479              		.align	1
 480              		.global	spi_flash_write_enable
 481              		.syntax unified
 482              		.thumb
 483              		.thumb_func
 484              		.fpu fpv4-sp-d16
 486              	spi_flash_write_enable:
 487              	.LFB127:
 395:C:/Users/49542/Desktop/GD32F30x_Demo_Suites_V2.0.0/GD32F30x_Demo_Suites_V2.0.0/BearPi-IoT_GD32F303_Demo_Suites/Projects/25_ALL_TEST/Soft_Drive\gd25qxx.c **** 
 396:C:/Users/49542/Desktop/GD32F30x_Demo_Suites_V2.0.0/GD32F30x_Demo_Suites_V2.0.0/BearPi-IoT_GD32F303_Demo_Suites/Projects/25_ALL_TEST/Soft_Drive\gd25qxx.c **** /*!
 397:C:/Users/49542/Desktop/GD32F30x_Demo_Suites_V2.0.0/GD32F30x_Demo_Suites_V2.0.0/BearPi-IoT_GD32F303_Demo_Suites/Projects/25_ALL_TEST/Soft_Drive\gd25qxx.c ****     \brief      enable the write access to the flash
 398:C:/Users/49542/Desktop/GD32F30x_Demo_Suites_V2.0.0/GD32F30x_Demo_Suites_V2.0.0/BearPi-IoT_GD32F303_Demo_Suites/Projects/25_ALL_TEST/Soft_Drive\gd25qxx.c ****     \param[in]  none
 399:C:/Users/49542/Desktop/GD32F30x_Demo_Suites_V2.0.0/GD32F30x_Demo_Suites_V2.0.0/BearPi-IoT_GD32F303_Demo_Suites/Projects/25_ALL_TEST/Soft_Drive\gd25qxx.c ****     \param[out] none
 400:C:/Users/49542/Desktop/GD32F30x_Demo_Suites_V2.0.0/GD32F30x_Demo_Suites_V2.0.0/BearPi-IoT_GD32F303_Demo_Suites/Projects/25_ALL_TEST/Soft_Drive\gd25qxx.c ****     \retval     none
 401:C:/Users/49542/Desktop/GD32F30x_Demo_Suites_V2.0.0/GD32F30x_Demo_Suites_V2.0.0/BearPi-IoT_GD32F303_Demo_Suites/Projects/25_ALL_TEST/Soft_Drive\gd25qxx.c **** */
 402:C:/Users/49542/Desktop/GD32F30x_Demo_Suites_V2.0.0/GD32F30x_Demo_Suites_V2.0.0/BearPi-IoT_GD32F303_Demo_Suites/Projects/25_ALL_TEST/Soft_Drive\gd25qxx.c **** void spi_flash_write_enable(void)
 403:C:/Users/49542/Desktop/GD32F30x_Demo_Suites_V2.0.0/GD32F30x_Demo_Suites_V2.0.0/BearPi-IoT_GD32F303_Demo_Suites/Projects/25_ALL_TEST/Soft_Drive\gd25qxx.c **** {
 488              		.loc 1 403 0
 489              		.cfi_startproc
 490              		@ args = 0, pretend = 0, frame = 0
 491              		@ frame_needed = 0, uses_anonymous_args = 0
 492 0000 10B5     		push	{r4, lr}
 493              	.LCFI9:
 494              		.cfi_def_cfa_offset 8
ARM GAS  C:\Users\49542\AppData\Local\Temp\ccK7V8j3.s 			page 17


 495              		.cfi_offset 4, -8
 496              		.cfi_offset 14, -4
 404:C:/Users/49542/Desktop/GD32F30x_Demo_Suites_V2.0.0/GD32F30x_Demo_Suites_V2.0.0/BearPi-IoT_GD32F303_Demo_Suites/Projects/25_ALL_TEST/Soft_Drive\gd25qxx.c ****     /* select the flash: chip select low */
 405:C:/Users/49542/Desktop/GD32F30x_Demo_Suites_V2.0.0/GD32F30x_Demo_Suites_V2.0.0/BearPi-IoT_GD32F303_Demo_Suites/Projects/25_ALL_TEST/Soft_Drive\gd25qxx.c ****     SPI_FLASH_CS_LOW();
 497              		.loc 1 405 0
 498 0002 074C     		ldr	r4, .L35
 499 0004 4FF48051 		mov	r1, #4096
 500 0008 2046     		mov	r0, r4
 501 000a FFF7FEFF 		bl	gpio_bit_reset
 502              	.LVL62:
 406:C:/Users/49542/Desktop/GD32F30x_Demo_Suites_V2.0.0/GD32F30x_Demo_Suites_V2.0.0/BearPi-IoT_GD32F303_Demo_Suites/Projects/25_ALL_TEST/Soft_Drive\gd25qxx.c **** 
 407:C:/Users/49542/Desktop/GD32F30x_Demo_Suites_V2.0.0/GD32F30x_Demo_Suites_V2.0.0/BearPi-IoT_GD32F303_Demo_Suites/Projects/25_ALL_TEST/Soft_Drive\gd25qxx.c ****     /* send "write enable" instruction */
 408:C:/Users/49542/Desktop/GD32F30x_Demo_Suites_V2.0.0/GD32F30x_Demo_Suites_V2.0.0/BearPi-IoT_GD32F303_Demo_Suites/Projects/25_ALL_TEST/Soft_Drive\gd25qxx.c ****     spi_flash_send_byte(WREN);
 503              		.loc 1 408 0
 504 000e 0620     		movs	r0, #6
 505 0010 FFF7FEFF 		bl	spi_flash_send_byte
 506              	.LVL63:
 409:C:/Users/49542/Desktop/GD32F30x_Demo_Suites_V2.0.0/GD32F30x_Demo_Suites_V2.0.0/BearPi-IoT_GD32F303_Demo_Suites/Projects/25_ALL_TEST/Soft_Drive\gd25qxx.c **** 
 410:C:/Users/49542/Desktop/GD32F30x_Demo_Suites_V2.0.0/GD32F30x_Demo_Suites_V2.0.0/BearPi-IoT_GD32F303_Demo_Suites/Projects/25_ALL_TEST/Soft_Drive\gd25qxx.c ****     /* deselect the flash: chip select high */
 411:C:/Users/49542/Desktop/GD32F30x_Demo_Suites_V2.0.0/GD32F30x_Demo_Suites_V2.0.0/BearPi-IoT_GD32F303_Demo_Suites/Projects/25_ALL_TEST/Soft_Drive\gd25qxx.c ****     SPI_FLASH_CS_HIGH();
 507              		.loc 1 411 0
 508 0014 4FF48051 		mov	r1, #4096
 509 0018 2046     		mov	r0, r4
 510 001a FFF7FEFF 		bl	gpio_bit_set
 511              	.LVL64:
 412:C:/Users/49542/Desktop/GD32F30x_Demo_Suites_V2.0.0/GD32F30x_Demo_Suites_V2.0.0/BearPi-IoT_GD32F303_Demo_Suites/Projects/25_ALL_TEST/Soft_Drive\gd25qxx.c **** }
 512              		.loc 1 412 0
 513 001e 10BD     		pop	{r4, pc}
 514              	.L36:
 515              		.align	2
 516              	.L35:
 517 0020 00080140 		.word	1073809408
 518              		.cfi_endproc
 519              	.LFE127:
 521              		.section	.text.spi_flash_wait_for_write_end,"ax",%progbits
 522              		.align	1
 523              		.global	spi_flash_wait_for_write_end
 524              		.syntax unified
 525              		.thumb
 526              		.thumb_func
 527              		.fpu fpv4-sp-d16
 529              	spi_flash_wait_for_write_end:
 530              	.LFB128:
 413:C:/Users/49542/Desktop/GD32F30x_Demo_Suites_V2.0.0/GD32F30x_Demo_Suites_V2.0.0/BearPi-IoT_GD32F303_Demo_Suites/Projects/25_ALL_TEST/Soft_Drive\gd25qxx.c **** 
 414:C:/Users/49542/Desktop/GD32F30x_Demo_Suites_V2.0.0/GD32F30x_Demo_Suites_V2.0.0/BearPi-IoT_GD32F303_Demo_Suites/Projects/25_ALL_TEST/Soft_Drive\gd25qxx.c **** /*!
 415:C:/Users/49542/Desktop/GD32F30x_Demo_Suites_V2.0.0/GD32F30x_Demo_Suites_V2.0.0/BearPi-IoT_GD32F303_Demo_Suites/Projects/25_ALL_TEST/Soft_Drive\gd25qxx.c ****     \brief      poll the status of the write in progress(wip) flag in the flash's status register
 416:C:/Users/49542/Desktop/GD32F30x_Demo_Suites_V2.0.0/GD32F30x_Demo_Suites_V2.0.0/BearPi-IoT_GD32F303_Demo_Suites/Projects/25_ALL_TEST/Soft_Drive\gd25qxx.c ****     \param[in]  none
 417:C:/Users/49542/Desktop/GD32F30x_Demo_Suites_V2.0.0/GD32F30x_Demo_Suites_V2.0.0/BearPi-IoT_GD32F303_Demo_Suites/Projects/25_ALL_TEST/Soft_Drive\gd25qxx.c ****     \param[out] none
 418:C:/Users/49542/Desktop/GD32F30x_Demo_Suites_V2.0.0/GD32F30x_Demo_Suites_V2.0.0/BearPi-IoT_GD32F303_Demo_Suites/Projects/25_ALL_TEST/Soft_Drive\gd25qxx.c ****     \retval     none
 419:C:/Users/49542/Desktop/GD32F30x_Demo_Suites_V2.0.0/GD32F30x_Demo_Suites_V2.0.0/BearPi-IoT_GD32F303_Demo_Suites/Projects/25_ALL_TEST/Soft_Drive\gd25qxx.c **** */
 420:C:/Users/49542/Desktop/GD32F30x_Demo_Suites_V2.0.0/GD32F30x_Demo_Suites_V2.0.0/BearPi-IoT_GD32F303_Demo_Suites/Projects/25_ALL_TEST/Soft_Drive\gd25qxx.c **** void spi_flash_wait_for_write_end(void)
 421:C:/Users/49542/Desktop/GD32F30x_Demo_Suites_V2.0.0/GD32F30x_Demo_Suites_V2.0.0/BearPi-IoT_GD32F303_Demo_Suites/Projects/25_ALL_TEST/Soft_Drive\gd25qxx.c **** {
 531              		.loc 1 421 0
 532              		.cfi_startproc
 533              		@ args = 0, pretend = 0, frame = 0
 534              		@ frame_needed = 0, uses_anonymous_args = 0
 535 0000 08B5     		push	{r3, lr}
ARM GAS  C:\Users\49542\AppData\Local\Temp\ccK7V8j3.s 			page 18


 536              	.LCFI10:
 537              		.cfi_def_cfa_offset 8
 538              		.cfi_offset 3, -8
 539              		.cfi_offset 14, -4
 540              	.LVL65:
 422:C:/Users/49542/Desktop/GD32F30x_Demo_Suites_V2.0.0/GD32F30x_Demo_Suites_V2.0.0/BearPi-IoT_GD32F303_Demo_Suites/Projects/25_ALL_TEST/Soft_Drive\gd25qxx.c ****     uint8_t flash_status = 0;
 423:C:/Users/49542/Desktop/GD32F30x_Demo_Suites_V2.0.0/GD32F30x_Demo_Suites_V2.0.0/BearPi-IoT_GD32F303_Demo_Suites/Projects/25_ALL_TEST/Soft_Drive\gd25qxx.c **** 
 424:C:/Users/49542/Desktop/GD32F30x_Demo_Suites_V2.0.0/GD32F30x_Demo_Suites_V2.0.0/BearPi-IoT_GD32F303_Demo_Suites/Projects/25_ALL_TEST/Soft_Drive\gd25qxx.c ****     /* select the flash: chip select low */
 425:C:/Users/49542/Desktop/GD32F30x_Demo_Suites_V2.0.0/GD32F30x_Demo_Suites_V2.0.0/BearPi-IoT_GD32F303_Demo_Suites/Projects/25_ALL_TEST/Soft_Drive\gd25qxx.c ****     SPI_FLASH_CS_LOW();
 541              		.loc 1 425 0
 542 0002 4FF48051 		mov	r1, #4096
 543 0006 0948     		ldr	r0, .L40
 544 0008 FFF7FEFF 		bl	gpio_bit_reset
 545              	.LVL66:
 426:C:/Users/49542/Desktop/GD32F30x_Demo_Suites_V2.0.0/GD32F30x_Demo_Suites_V2.0.0/BearPi-IoT_GD32F303_Demo_Suites/Projects/25_ALL_TEST/Soft_Drive\gd25qxx.c **** 
 427:C:/Users/49542/Desktop/GD32F30x_Demo_Suites_V2.0.0/GD32F30x_Demo_Suites_V2.0.0/BearPi-IoT_GD32F303_Demo_Suites/Projects/25_ALL_TEST/Soft_Drive\gd25qxx.c ****     /* send "read status register" instruction */
 428:C:/Users/49542/Desktop/GD32F30x_Demo_Suites_V2.0.0/GD32F30x_Demo_Suites_V2.0.0/BearPi-IoT_GD32F303_Demo_Suites/Projects/25_ALL_TEST/Soft_Drive\gd25qxx.c ****     spi_flash_send_byte(RDSR);
 546              		.loc 1 428 0
 547 000c 0520     		movs	r0, #5
 548 000e FFF7FEFF 		bl	spi_flash_send_byte
 549              	.LVL67:
 550              	.L38:
 429:C:/Users/49542/Desktop/GD32F30x_Demo_Suites_V2.0.0/GD32F30x_Demo_Suites_V2.0.0/BearPi-IoT_GD32F303_Demo_Suites/Projects/25_ALL_TEST/Soft_Drive\gd25qxx.c **** 
 430:C:/Users/49542/Desktop/GD32F30x_Demo_Suites_V2.0.0/GD32F30x_Demo_Suites_V2.0.0/BearPi-IoT_GD32F303_Demo_Suites/Projects/25_ALL_TEST/Soft_Drive\gd25qxx.c ****     /* loop as long as the memory is busy with a write cycle */
 431:C:/Users/49542/Desktop/GD32F30x_Demo_Suites_V2.0.0/GD32F30x_Demo_Suites_V2.0.0/BearPi-IoT_GD32F303_Demo_Suites/Projects/25_ALL_TEST/Soft_Drive\gd25qxx.c ****     do{
 432:C:/Users/49542/Desktop/GD32F30x_Demo_Suites_V2.0.0/GD32F30x_Demo_Suites_V2.0.0/BearPi-IoT_GD32F303_Demo_Suites/Projects/25_ALL_TEST/Soft_Drive\gd25qxx.c ****         /* send a dummy byte to generate the clock needed by the flash
 433:C:/Users/49542/Desktop/GD32F30x_Demo_Suites_V2.0.0/GD32F30x_Demo_Suites_V2.0.0/BearPi-IoT_GD32F303_Demo_Suites/Projects/25_ALL_TEST/Soft_Drive\gd25qxx.c ****         and put the value of the status register in flash_status variable */
 434:C:/Users/49542/Desktop/GD32F30x_Demo_Suites_V2.0.0/GD32F30x_Demo_Suites_V2.0.0/BearPi-IoT_GD32F303_Demo_Suites/Projects/25_ALL_TEST/Soft_Drive\gd25qxx.c ****         flash_status = spi_flash_send_byte(DUMMY_BYTE);
 551              		.loc 1 434 0 discriminator 1
 552 0012 A520     		movs	r0, #165
 553 0014 FFF7FEFF 		bl	spi_flash_send_byte
 554              	.LVL68:
 435:C:/Users/49542/Desktop/GD32F30x_Demo_Suites_V2.0.0/GD32F30x_Demo_Suites_V2.0.0/BearPi-IoT_GD32F303_Demo_Suites/Projects/25_ALL_TEST/Soft_Drive\gd25qxx.c ****     }while((flash_status & WIP_FLAG) == SET);
 555              		.loc 1 435 0 discriminator 1
 556 0018 10F0010F 		tst	r0, #1
 557 001c F9D1     		bne	.L38
 436:C:/Users/49542/Desktop/GD32F30x_Demo_Suites_V2.0.0/GD32F30x_Demo_Suites_V2.0.0/BearPi-IoT_GD32F303_Demo_Suites/Projects/25_ALL_TEST/Soft_Drive\gd25qxx.c **** 
 437:C:/Users/49542/Desktop/GD32F30x_Demo_Suites_V2.0.0/GD32F30x_Demo_Suites_V2.0.0/BearPi-IoT_GD32F303_Demo_Suites/Projects/25_ALL_TEST/Soft_Drive\gd25qxx.c ****     /* deselect the flash: chip select high */
 438:C:/Users/49542/Desktop/GD32F30x_Demo_Suites_V2.0.0/GD32F30x_Demo_Suites_V2.0.0/BearPi-IoT_GD32F303_Demo_Suites/Projects/25_ALL_TEST/Soft_Drive\gd25qxx.c ****     SPI_FLASH_CS_HIGH();
 558              		.loc 1 438 0
 559 001e 4FF48051 		mov	r1, #4096
 560 0022 0248     		ldr	r0, .L40
 561              	.LVL69:
 562 0024 FFF7FEFF 		bl	gpio_bit_set
 563              	.LVL70:
 439:C:/Users/49542/Desktop/GD32F30x_Demo_Suites_V2.0.0/GD32F30x_Demo_Suites_V2.0.0/BearPi-IoT_GD32F303_Demo_Suites/Projects/25_ALL_TEST/Soft_Drive\gd25qxx.c **** }
 564              		.loc 1 439 0
 565 0028 08BD     		pop	{r3, pc}
 566              	.L41:
 567 002a 00BF     		.align	2
 568              	.L40:
 569 002c 00080140 		.word	1073809408
 570              		.cfi_endproc
 571              	.LFE128:
 573              		.section	.text.spi_flash_sector_erase,"ax",%progbits
 574              		.align	1
 575              		.global	spi_flash_sector_erase
ARM GAS  C:\Users\49542\AppData\Local\Temp\ccK7V8j3.s 			page 19


 576              		.syntax unified
 577              		.thumb
 578              		.thumb_func
 579              		.fpu fpv4-sp-d16
 581              	spi_flash_sector_erase:
 582              	.LFB117:
 102:C:/Users/49542/Desktop/GD32F30x_Demo_Suites_V2.0.0/GD32F30x_Demo_Suites_V2.0.0/BearPi-IoT_GD32F303_Demo_Suites/Projects/25_ALL_TEST/Soft_Drive\gd25qxx.c ****     /* send write enable instruction */
 583              		.loc 1 102 0
 584              		.cfi_startproc
 585              		@ args = 0, pretend = 0, frame = 0
 586              		@ frame_needed = 0, uses_anonymous_args = 0
 587              	.LVL71:
 588 0000 38B5     		push	{r3, r4, r5, lr}
 589              	.LCFI11:
 590              		.cfi_def_cfa_offset 16
 591              		.cfi_offset 3, -16
 592              		.cfi_offset 4, -12
 593              		.cfi_offset 5, -8
 594              		.cfi_offset 14, -4
 595 0002 0446     		mov	r4, r0
 104:C:/Users/49542/Desktop/GD32F30x_Demo_Suites_V2.0.0/GD32F30x_Demo_Suites_V2.0.0/BearPi-IoT_GD32F303_Demo_Suites/Projects/25_ALL_TEST/Soft_Drive\gd25qxx.c **** 
 596              		.loc 1 104 0
 597 0004 FFF7FEFF 		bl	spi_flash_write_enable
 598              	.LVL72:
 108:C:/Users/49542/Desktop/GD32F30x_Demo_Suites_V2.0.0/GD32F30x_Demo_Suites_V2.0.0/BearPi-IoT_GD32F303_Demo_Suites/Projects/25_ALL_TEST/Soft_Drive\gd25qxx.c ****     /* send sector erase instruction */
 599              		.loc 1 108 0
 600 0008 0D4D     		ldr	r5, .L44
 601 000a 4FF48051 		mov	r1, #4096
 602 000e 2846     		mov	r0, r5
 603 0010 FFF7FEFF 		bl	gpio_bit_reset
 604              	.LVL73:
 110:C:/Users/49542/Desktop/GD32F30x_Demo_Suites_V2.0.0/GD32F30x_Demo_Suites_V2.0.0/BearPi-IoT_GD32F303_Demo_Suites/Projects/25_ALL_TEST/Soft_Drive\gd25qxx.c ****     /* send sector_addr high nibble address byte */
 605              		.loc 1 110 0
 606 0014 2020     		movs	r0, #32
 607 0016 FFF7FEFF 		bl	spi_flash_send_byte
 608              	.LVL74:
 112:C:/Users/49542/Desktop/GD32F30x_Demo_Suites_V2.0.0/GD32F30x_Demo_Suites_V2.0.0/BearPi-IoT_GD32F303_Demo_Suites/Projects/25_ALL_TEST/Soft_Drive\gd25qxx.c ****     /* send sector_addr medium nibble address byte */
 609              		.loc 1 112 0
 610 001a C4F30740 		ubfx	r0, r4, #16, #8
 611 001e FFF7FEFF 		bl	spi_flash_send_byte
 612              	.LVL75:
 114:C:/Users/49542/Desktop/GD32F30x_Demo_Suites_V2.0.0/GD32F30x_Demo_Suites_V2.0.0/BearPi-IoT_GD32F303_Demo_Suites/Projects/25_ALL_TEST/Soft_Drive\gd25qxx.c ****     /* send sector_addr low nibble address byte */
 613              		.loc 1 114 0
 614 0022 C4F30720 		ubfx	r0, r4, #8, #8
 615 0026 FFF7FEFF 		bl	spi_flash_send_byte
 616              	.LVL76:
 116:C:/Users/49542/Desktop/GD32F30x_Demo_Suites_V2.0.0/GD32F30x_Demo_Suites_V2.0.0/BearPi-IoT_GD32F303_Demo_Suites/Projects/25_ALL_TEST/Soft_Drive\gd25qxx.c ****     /* deselect the flash: chip select high */
 617              		.loc 1 116 0
 618 002a E0B2     		uxtb	r0, r4
 619 002c FFF7FEFF 		bl	spi_flash_send_byte
 620              	.LVL77:
 118:C:/Users/49542/Desktop/GD32F30x_Demo_Suites_V2.0.0/GD32F30x_Demo_Suites_V2.0.0/BearPi-IoT_GD32F303_Demo_Suites/Projects/25_ALL_TEST/Soft_Drive\gd25qxx.c **** 
 621              		.loc 1 118 0
 622 0030 4FF48051 		mov	r1, #4096
 623 0034 2846     		mov	r0, r5
 624 0036 FFF7FEFF 		bl	gpio_bit_set
 625              	.LVL78:
ARM GAS  C:\Users\49542\AppData\Local\Temp\ccK7V8j3.s 			page 20


 121:C:/Users/49542/Desktop/GD32F30x_Demo_Suites_V2.0.0/GD32F30x_Demo_Suites_V2.0.0/BearPi-IoT_GD32F303_Demo_Suites/Projects/25_ALL_TEST/Soft_Drive\gd25qxx.c **** }
 626              		.loc 1 121 0
 627 003a FFF7FEFF 		bl	spi_flash_wait_for_write_end
 628              	.LVL79:
 122:C:/Users/49542/Desktop/GD32F30x_Demo_Suites_V2.0.0/GD32F30x_Demo_Suites_V2.0.0/BearPi-IoT_GD32F303_Demo_Suites/Projects/25_ALL_TEST/Soft_Drive\gd25qxx.c **** 
 629              		.loc 1 122 0
 630 003e 38BD     		pop	{r3, r4, r5, pc}
 631              	.LVL80:
 632              	.L45:
 633              		.align	2
 634              	.L44:
 635 0040 00080140 		.word	1073809408
 636              		.cfi_endproc
 637              	.LFE117:
 639              		.section	.text.spi_flash_bulk_erase,"ax",%progbits
 640              		.align	1
 641              		.global	spi_flash_bulk_erase
 642              		.syntax unified
 643              		.thumb
 644              		.thumb_func
 645              		.fpu fpv4-sp-d16
 647              	spi_flash_bulk_erase:
 648              	.LFB118:
 131:C:/Users/49542/Desktop/GD32F30x_Demo_Suites_V2.0.0/GD32F30x_Demo_Suites_V2.0.0/BearPi-IoT_GD32F303_Demo_Suites/Projects/25_ALL_TEST/Soft_Drive\gd25qxx.c ****     /* send write enable instruction */
 649              		.loc 1 131 0
 650              		.cfi_startproc
 651              		@ args = 0, pretend = 0, frame = 0
 652              		@ frame_needed = 0, uses_anonymous_args = 0
 653 0000 10B5     		push	{r4, lr}
 654              	.LCFI12:
 655              		.cfi_def_cfa_offset 8
 656              		.cfi_offset 4, -8
 657              		.cfi_offset 14, -4
 133:C:/Users/49542/Desktop/GD32F30x_Demo_Suites_V2.0.0/GD32F30x_Demo_Suites_V2.0.0/BearPi-IoT_GD32F303_Demo_Suites/Projects/25_ALL_TEST/Soft_Drive\gd25qxx.c **** 
 658              		.loc 1 133 0
 659 0002 FFF7FEFF 		bl	spi_flash_write_enable
 660              	.LVL81:
 137:C:/Users/49542/Desktop/GD32F30x_Demo_Suites_V2.0.0/GD32F30x_Demo_Suites_V2.0.0/BearPi-IoT_GD32F303_Demo_Suites/Projects/25_ALL_TEST/Soft_Drive\gd25qxx.c ****     /* send bulk erase instruction  */
 661              		.loc 1 137 0
 662 0006 084C     		ldr	r4, .L48
 663 0008 4FF48051 		mov	r1, #4096
 664 000c 2046     		mov	r0, r4
 665 000e FFF7FEFF 		bl	gpio_bit_reset
 666              	.LVL82:
 139:C:/Users/49542/Desktop/GD32F30x_Demo_Suites_V2.0.0/GD32F30x_Demo_Suites_V2.0.0/BearPi-IoT_GD32F303_Demo_Suites/Projects/25_ALL_TEST/Soft_Drive\gd25qxx.c ****     /* deselect the flash: chip select high */
 667              		.loc 1 139 0
 668 0012 C720     		movs	r0, #199
 669 0014 FFF7FEFF 		bl	spi_flash_send_byte
 670              	.LVL83:
 141:C:/Users/49542/Desktop/GD32F30x_Demo_Suites_V2.0.0/GD32F30x_Demo_Suites_V2.0.0/BearPi-IoT_GD32F303_Demo_Suites/Projects/25_ALL_TEST/Soft_Drive\gd25qxx.c **** 
 671              		.loc 1 141 0
 672 0018 4FF48051 		mov	r1, #4096
 673 001c 2046     		mov	r0, r4
 674 001e FFF7FEFF 		bl	gpio_bit_set
 675              	.LVL84:
 144:C:/Users/49542/Desktop/GD32F30x_Demo_Suites_V2.0.0/GD32F30x_Demo_Suites_V2.0.0/BearPi-IoT_GD32F303_Demo_Suites/Projects/25_ALL_TEST/Soft_Drive\gd25qxx.c **** }
 676              		.loc 1 144 0
ARM GAS  C:\Users\49542\AppData\Local\Temp\ccK7V8j3.s 			page 21


 677 0022 FFF7FEFF 		bl	spi_flash_wait_for_write_end
 678              	.LVL85:
 145:C:/Users/49542/Desktop/GD32F30x_Demo_Suites_V2.0.0/GD32F30x_Demo_Suites_V2.0.0/BearPi-IoT_GD32F303_Demo_Suites/Projects/25_ALL_TEST/Soft_Drive\gd25qxx.c **** 
 679              		.loc 1 145 0
 680 0026 10BD     		pop	{r4, pc}
 681              	.L49:
 682              		.align	2
 683              	.L48:
 684 0028 00080140 		.word	1073809408
 685              		.cfi_endproc
 686              	.LFE118:
 688              		.section	.text.spi_flash_page_write,"ax",%progbits
 689              		.align	1
 690              		.global	spi_flash_page_write
 691              		.syntax unified
 692              		.thumb
 693              		.thumb_func
 694              		.fpu fpv4-sp-d16
 696              	spi_flash_page_write:
 697              	.LFB119:
 156:C:/Users/49542/Desktop/GD32F30x_Demo_Suites_V2.0.0/GD32F30x_Demo_Suites_V2.0.0/BearPi-IoT_GD32F303_Demo_Suites/Projects/25_ALL_TEST/Soft_Drive\gd25qxx.c ****     /* enable the write access to the flash */
 698              		.loc 1 156 0
 699              		.cfi_startproc
 700              		@ args = 0, pretend = 0, frame = 0
 701              		@ frame_needed = 0, uses_anonymous_args = 0
 702              	.LVL86:
 703 0000 70B5     		push	{r4, r5, r6, lr}
 704              	.LCFI13:
 705              		.cfi_def_cfa_offset 16
 706              		.cfi_offset 4, -16
 707              		.cfi_offset 5, -12
 708              		.cfi_offset 6, -8
 709              		.cfi_offset 14, -4
 710 0002 0646     		mov	r6, r0
 711 0004 0C46     		mov	r4, r1
 712 0006 1546     		mov	r5, r2
 158:C:/Users/49542/Desktop/GD32F30x_Demo_Suites_V2.0.0/GD32F30x_Demo_Suites_V2.0.0/BearPi-IoT_GD32F303_Demo_Suites/Projects/25_ALL_TEST/Soft_Drive\gd25qxx.c **** 
 713              		.loc 1 158 0
 714 0008 FFF7FEFF 		bl	spi_flash_write_enable
 715              	.LVL87:
 161:C:/Users/49542/Desktop/GD32F30x_Demo_Suites_V2.0.0/GD32F30x_Demo_Suites_V2.0.0/BearPi-IoT_GD32F303_Demo_Suites/Projects/25_ALL_TEST/Soft_Drive\gd25qxx.c **** 
 716              		.loc 1 161 0
 717 000c 4FF48051 		mov	r1, #4096
 718 0010 1148     		ldr	r0, .L54
 719 0012 FFF7FEFF 		bl	gpio_bit_reset
 720              	.LVL88:
 164:C:/Users/49542/Desktop/GD32F30x_Demo_Suites_V2.0.0/GD32F30x_Demo_Suites_V2.0.0/BearPi-IoT_GD32F303_Demo_Suites/Projects/25_ALL_TEST/Soft_Drive\gd25qxx.c ****     /* send write_addr high nibble address byte to write to */
 721              		.loc 1 164 0
 722 0016 0220     		movs	r0, #2
 723 0018 FFF7FEFF 		bl	spi_flash_send_byte
 724              	.LVL89:
 166:C:/Users/49542/Desktop/GD32F30x_Demo_Suites_V2.0.0/GD32F30x_Demo_Suites_V2.0.0/BearPi-IoT_GD32F303_Demo_Suites/Projects/25_ALL_TEST/Soft_Drive\gd25qxx.c ****     /* send write_addr medium nibble address byte to write to */
 725              		.loc 1 166 0
 726 001c C4F30740 		ubfx	r0, r4, #16, #8
 727 0020 FFF7FEFF 		bl	spi_flash_send_byte
 728              	.LVL90:
 168:C:/Users/49542/Desktop/GD32F30x_Demo_Suites_V2.0.0/GD32F30x_Demo_Suites_V2.0.0/BearPi-IoT_GD32F303_Demo_Suites/Projects/25_ALL_TEST/Soft_Drive\gd25qxx.c ****     /* send write_addr low nibble address byte to write to */
ARM GAS  C:\Users\49542\AppData\Local\Temp\ccK7V8j3.s 			page 22


 729              		.loc 1 168 0
 730 0024 C4F30720 		ubfx	r0, r4, #8, #8
 731 0028 FFF7FEFF 		bl	spi_flash_send_byte
 732              	.LVL91:
 170:C:/Users/49542/Desktop/GD32F30x_Demo_Suites_V2.0.0/GD32F30x_Demo_Suites_V2.0.0/BearPi-IoT_GD32F303_Demo_Suites/Projects/25_ALL_TEST/Soft_Drive\gd25qxx.c **** 
 733              		.loc 1 170 0
 734 002c E0B2     		uxtb	r0, r4
 735 002e FFF7FEFF 		bl	spi_flash_send_byte
 736              	.LVL92:
 173:C:/Users/49542/Desktop/GD32F30x_Demo_Suites_V2.0.0/GD32F30x_Demo_Suites_V2.0.0/BearPi-IoT_GD32F303_Demo_Suites/Projects/25_ALL_TEST/Soft_Drive\gd25qxx.c ****         /* send the current byte */
 737              		.loc 1 173 0
 738 0032 04E0     		b	.L51
 739              	.LVL93:
 740              	.L52:
 175:C:/Users/49542/Desktop/GD32F30x_Demo_Suites_V2.0.0/GD32F30x_Demo_Suites_V2.0.0/BearPi-IoT_GD32F303_Demo_Suites/Projects/25_ALL_TEST/Soft_Drive\gd25qxx.c ****         /* point on the next byte to be written */
 741              		.loc 1 175 0
 742 0034 16F8010B 		ldrb	r0, [r6], #1	@ zero_extendqisi2
 743              	.LVL94:
 744 0038 FFF7FEFF 		bl	spi_flash_send_byte
 745              	.LVL95:
 173:C:/Users/49542/Desktop/GD32F30x_Demo_Suites_V2.0.0/GD32F30x_Demo_Suites_V2.0.0/BearPi-IoT_GD32F303_Demo_Suites/Projects/25_ALL_TEST/Soft_Drive\gd25qxx.c ****         /* send the current byte */
 746              		.loc 1 173 0
 747 003c 2546     		mov	r5, r4
 748              	.LVL96:
 749              	.L51:
 750 003e 6B1E     		subs	r3, r5, #1
 751 0040 9CB2     		uxth	r4, r3
 752              	.LVL97:
 753 0042 002D     		cmp	r5, #0
 754 0044 F6D1     		bne	.L52
 181:C:/Users/49542/Desktop/GD32F30x_Demo_Suites_V2.0.0/GD32F30x_Demo_Suites_V2.0.0/BearPi-IoT_GD32F303_Demo_Suites/Projects/25_ALL_TEST/Soft_Drive\gd25qxx.c **** 
 755              		.loc 1 181 0
 756 0046 4FF48051 		mov	r1, #4096
 757 004a 0348     		ldr	r0, .L54
 758 004c FFF7FEFF 		bl	gpio_bit_set
 759              	.LVL98:
 184:C:/Users/49542/Desktop/GD32F30x_Demo_Suites_V2.0.0/GD32F30x_Demo_Suites_V2.0.0/BearPi-IoT_GD32F303_Demo_Suites/Projects/25_ALL_TEST/Soft_Drive\gd25qxx.c **** }
 760              		.loc 1 184 0
 761 0050 FFF7FEFF 		bl	spi_flash_wait_for_write_end
 762              	.LVL99:
 185:C:/Users/49542/Desktop/GD32F30x_Demo_Suites_V2.0.0/GD32F30x_Demo_Suites_V2.0.0/BearPi-IoT_GD32F303_Demo_Suites/Projects/25_ALL_TEST/Soft_Drive\gd25qxx.c **** 
 763              		.loc 1 185 0
 764 0054 70BD     		pop	{r4, r5, r6, pc}
 765              	.LVL100:
 766              	.L55:
 767 0056 00BF     		.align	2
 768              	.L54:
 769 0058 00080140 		.word	1073809408
 770              		.cfi_endproc
 771              	.LFE119:
 773              		.section	.text.spi_flash_buffer_write,"ax",%progbits
 774              		.align	1
 775              		.global	spi_flash_buffer_write
 776              		.syntax unified
 777              		.thumb
 778              		.thumb_func
 779              		.fpu fpv4-sp-d16
ARM GAS  C:\Users\49542\AppData\Local\Temp\ccK7V8j3.s 			page 23


 781              	spi_flash_buffer_write:
 782              	.LFB120:
 196:C:/Users/49542/Desktop/GD32F30x_Demo_Suites_V2.0.0/GD32F30x_Demo_Suites_V2.0.0/BearPi-IoT_GD32F303_Demo_Suites/Projects/25_ALL_TEST/Soft_Drive\gd25qxx.c ****     uint8_t num_of_page = 0, num_of_single = 0, addr = 0, count = 0, temp = 0;
 783              		.loc 1 196 0
 784              		.cfi_startproc
 785              		@ args = 0, pretend = 0, frame = 0
 786              		@ frame_needed = 0, uses_anonymous_args = 0
 787              	.LVL101:
 788 0000 2DE9F843 		push	{r3, r4, r5, r6, r7, r8, r9, lr}
 789              	.LCFI14:
 790              		.cfi_def_cfa_offset 32
 791              		.cfi_offset 3, -32
 792              		.cfi_offset 4, -28
 793              		.cfi_offset 5, -24
 794              		.cfi_offset 6, -20
 795              		.cfi_offset 7, -16
 796              		.cfi_offset 8, -12
 797              		.cfi_offset 9, -8
 798              		.cfi_offset 14, -4
 799 0004 0546     		mov	r5, r0
 800 0006 0C46     		mov	r4, r1
 801 0008 9046     		mov	r8, r2
 802              	.LVL102:
 199:C:/Users/49542/Desktop/GD32F30x_Demo_Suites_V2.0.0/GD32F30x_Demo_Suites_V2.0.0/BearPi-IoT_GD32F303_Demo_Suites/Projects/25_ALL_TEST/Soft_Drive\gd25qxx.c ****     count         = SPI_FLASH_PAGE_SIZE - addr;
 803              		.loc 1 199 0
 804 000a CBB2     		uxtb	r3, r1
 805              	.LVL103:
 201:C:/Users/49542/Desktop/GD32F30x_Demo_Suites_V2.0.0/GD32F30x_Demo_Suites_V2.0.0/BearPi-IoT_GD32F303_Demo_Suites/Projects/25_ALL_TEST/Soft_Drive\gd25qxx.c ****     num_of_single = num_byte_to_write % SPI_FLASH_PAGE_SIZE;
 806              		.loc 1 201 0
 807 000c 110A     		lsrs	r1, r2, #8
 808              	.LVL104:
 205:C:/Users/49542/Desktop/GD32F30x_Demo_Suites_V2.0.0/GD32F30x_Demo_Suites_V2.0.0/BearPi-IoT_GD32F303_Demo_Suites/Projects/25_ALL_TEST/Soft_Drive\gd25qxx.c ****         /* num_byte_to_write < SPI_FLASH_PAGE_SIZE */
 809              		.loc 1 205 0
 810 000e DBB9     		cbnz	r3, .L57
 207:C:/Users/49542/Desktop/GD32F30x_Demo_Suites_V2.0.0/GD32F30x_Demo_Suites_V2.0.0/BearPi-IoT_GD32F303_Demo_Suites/Projects/25_ALL_TEST/Soft_Drive\gd25qxx.c ****             spi_flash_page_write(pbuffer,write_addr,num_byte_to_write);
 811              		.loc 1 207 0
 812 0010 71B9     		cbnz	r1, .L58
 208:C:/Users/49542/Desktop/GD32F30x_Demo_Suites_V2.0.0/GD32F30x_Demo_Suites_V2.0.0/BearPi-IoT_GD32F303_Demo_Suites/Projects/25_ALL_TEST/Soft_Drive\gd25qxx.c ****         /* num_byte_to_write > SPI_FLASH_PAGE_SIZE */
 813              		.loc 1 208 0
 814 0012 2146     		mov	r1, r4
 815              	.LVL105:
 816 0014 FFF7FEFF 		bl	spi_flash_page_write
 817              	.LVL106:
 818 0018 14E0     		b	.L56
 819              	.LVL107:
 820              	.L60:
 212:C:/Users/49542/Desktop/GD32F30x_Demo_Suites_V2.0.0/GD32F30x_Demo_Suites_V2.0.0/BearPi-IoT_GD32F303_Demo_Suites/Projects/25_ALL_TEST/Soft_Drive\gd25qxx.c ****                 write_addr += SPI_FLASH_PAGE_SIZE;
 821              		.loc 1 212 0
 822 001a 4FF48072 		mov	r2, #256
 823 001e 2146     		mov	r1, r4
 824 0020 2846     		mov	r0, r5
 825 0022 FFF7FEFF 		bl	spi_flash_page_write
 826              	.LVL108:
 213:C:/Users/49542/Desktop/GD32F30x_Demo_Suites_V2.0.0/GD32F30x_Demo_Suites_V2.0.0/BearPi-IoT_GD32F303_Demo_Suites/Projects/25_ALL_TEST/Soft_Drive\gd25qxx.c ****                 pbuffer += SPI_FLASH_PAGE_SIZE;
 827              		.loc 1 213 0
 828 0026 04F58074 		add	r4, r4, #256
 829              	.LVL109:
ARM GAS  C:\Users\49542\AppData\Local\Temp\ccK7V8j3.s 			page 24


 214:C:/Users/49542/Desktop/GD32F30x_Demo_Suites_V2.0.0/GD32F30x_Demo_Suites_V2.0.0/BearPi-IoT_GD32F303_Demo_Suites/Projects/25_ALL_TEST/Soft_Drive\gd25qxx.c ****             }
 830              		.loc 1 214 0
 831 002a 05F58075 		add	r5, r5, #256
 832              	.LVL110:
 211:C:/Users/49542/Desktop/GD32F30x_Demo_Suites_V2.0.0/GD32F30x_Demo_Suites_V2.0.0/BearPi-IoT_GD32F303_Demo_Suites/Projects/25_ALL_TEST/Soft_Drive\gd25qxx.c ****                 spi_flash_page_write(pbuffer,write_addr,SPI_FLASH_PAGE_SIZE);
 833              		.loc 1 211 0
 834 002e 3146     		mov	r1, r6
 835              	.LVL111:
 836              	.L58:
 837 0030 4B1E     		subs	r3, r1, #1
 838 0032 DEB2     		uxtb	r6, r3
 839              	.LVL112:
 840 0034 0029     		cmp	r1, #0
 841 0036 F0D1     		bne	.L60
 216:C:/Users/49542/Desktop/GD32F30x_Demo_Suites_V2.0.0/GD32F30x_Demo_Suites_V2.0.0/BearPi-IoT_GD32F303_Demo_Suites/Projects/25_ALL_TEST/Soft_Drive\gd25qxx.c ****         }
 842              		.loc 1 216 0
 843 0038 5FFA88F2 		uxtb	r2, r8
 844 003c 2146     		mov	r1, r4
 845 003e 2846     		mov	r0, r5
 846 0040 FFF7FEFF 		bl	spi_flash_page_write
 847              	.LVL113:
 848              	.L56:
 250:C:/Users/49542/Desktop/GD32F30x_Demo_Suites_V2.0.0/GD32F30x_Demo_Suites_V2.0.0/BearPi-IoT_GD32F303_Demo_Suites/Projects/25_ALL_TEST/Soft_Drive\gd25qxx.c **** 
 849              		.loc 1 250 0
 850 0044 BDE8F883 		pop	{r3, r4, r5, r6, r7, r8, r9, pc}
 851              	.LVL114:
 852              	.L57:
 853 0048 5F42     		negs	r7, r3
 854 004a FFB2     		uxtb	r7, r7
 855 004c D6B2     		uxtb	r6, r2
 220:C:/Users/49542/Desktop/GD32F30x_Demo_Suites_V2.0.0/GD32F30x_Demo_Suites_V2.0.0/BearPi-IoT_GD32F303_Demo_Suites/Projects/25_ALL_TEST/Soft_Drive\gd25qxx.c ****             /* (num_byte_to_write + write_addr) > SPI_FLASH_PAGE_SIZE */
 856              		.loc 1 220 0
 857 004e 89B9     		cbnz	r1, .L61
 222:C:/Users/49542/Desktop/GD32F30x_Demo_Suites_V2.0.0/GD32F30x_Demo_Suites_V2.0.0/BearPi-IoT_GD32F303_Demo_Suites/Projects/25_ALL_TEST/Soft_Drive\gd25qxx.c ****                 temp = num_of_single - count;
 858              		.loc 1 222 0
 859 0050 B742     		cmp	r7, r6
 860 0052 0BD2     		bcs	.L62
 223:C:/Users/49542/Desktop/GD32F30x_Demo_Suites_V2.0.0/GD32F30x_Demo_Suites_V2.0.0/BearPi-IoT_GD32F303_Demo_Suites/Projects/25_ALL_TEST/Soft_Drive\gd25qxx.c ****                 spi_flash_page_write(pbuffer,write_addr,count);
 861              		.loc 1 223 0
 862 0054 3344     		add	r3, r3, r6
 863              	.LVL115:
 864 0056 DEB2     		uxtb	r6, r3
 865              	.LVL116:
 224:C:/Users/49542/Desktop/GD32F30x_Demo_Suites_V2.0.0/GD32F30x_Demo_Suites_V2.0.0/BearPi-IoT_GD32F303_Demo_Suites/Projects/25_ALL_TEST/Soft_Drive\gd25qxx.c ****                 write_addr += count;
 866              		.loc 1 224 0
 867 0058 3A46     		mov	r2, r7
 868              	.LVL117:
 869 005a 2146     		mov	r1, r4
 870              	.LVL118:
 871 005c FFF7FEFF 		bl	spi_flash_page_write
 872              	.LVL119:
 227:C:/Users/49542/Desktop/GD32F30x_Demo_Suites_V2.0.0/GD32F30x_Demo_Suites_V2.0.0/BearPi-IoT_GD32F303_Demo_Suites/Projects/25_ALL_TEST/Soft_Drive\gd25qxx.c ****             }else
 873              		.loc 1 227 0
 874 0060 3246     		mov	r2, r6
 875 0062 3919     		adds	r1, r7, r4
 876              	.LVL120:
 877 0064 E819     		adds	r0, r5, r7
ARM GAS  C:\Users\49542\AppData\Local\Temp\ccK7V8j3.s 			page 25


 878              	.LVL121:
 879 0066 FFF7FEFF 		bl	spi_flash_page_write
 880              	.LVL122:
 881 006a EBE7     		b	.L56
 882              	.LVL123:
 883              	.L62:
 229:C:/Users/49542/Desktop/GD32F30x_Demo_Suites_V2.0.0/GD32F30x_Demo_Suites_V2.0.0/BearPi-IoT_GD32F303_Demo_Suites/Projects/25_ALL_TEST/Soft_Drive\gd25qxx.c ****         }else{
 884              		.loc 1 229 0
 885 006c 2146     		mov	r1, r4
 886              	.LVL124:
 887 006e FFF7FEFF 		bl	spi_flash_page_write
 888              	.LVL125:
 889 0072 E7E7     		b	.L56
 890              	.LVL126:
 891              	.L61:
 232:C:/Users/49542/Desktop/GD32F30x_Demo_Suites_V2.0.0/GD32F30x_Demo_Suites_V2.0.0/BearPi-IoT_GD32F303_Demo_Suites/Projects/25_ALL_TEST/Soft_Drive\gd25qxx.c ****             num_of_page = num_byte_to_write / SPI_FLASH_PAGE_SIZE;
 892              		.loc 1 232 0
 893 0074 BAB2     		uxth	r2, r7
 894              	.LVL127:
 895 0076 A8EB0206 		sub	r6, r8, r2
 896              	.LVL128:
 897 007a B6B2     		uxth	r6, r6
 898              	.LVL129:
 233:C:/Users/49542/Desktop/GD32F30x_Demo_Suites_V2.0.0/GD32F30x_Demo_Suites_V2.0.0/BearPi-IoT_GD32F303_Demo_Suites/Projects/25_ALL_TEST/Soft_Drive\gd25qxx.c ****             num_of_single = num_byte_to_write % SPI_FLASH_PAGE_SIZE;
 899              		.loc 1 233 0
 900 007c 4FEA1628 		lsr	r8, r6, #8
 901              	.LVL130:
 234:C:/Users/49542/Desktop/GD32F30x_Demo_Suites_V2.0.0/GD32F30x_Demo_Suites_V2.0.0/BearPi-IoT_GD32F303_Demo_Suites/Projects/25_ALL_TEST/Soft_Drive\gd25qxx.c **** 
 902              		.loc 1 234 0
 903 0080 5FFA86F9 		uxtb	r9, r6
 904              	.LVL131:
 236:C:/Users/49542/Desktop/GD32F30x_Demo_Suites_V2.0.0/GD32F30x_Demo_Suites_V2.0.0/BearPi-IoT_GD32F303_Demo_Suites/Projects/25_ALL_TEST/Soft_Drive\gd25qxx.c ****             write_addr += count;
 905              		.loc 1 236 0
 906 0084 2146     		mov	r1, r4
 907 0086 FFF7FEFF 		bl	spi_flash_page_write
 908              	.LVL132:
 237:C:/Users/49542/Desktop/GD32F30x_Demo_Suites_V2.0.0/GD32F30x_Demo_Suites_V2.0.0/BearPi-IoT_GD32F303_Demo_Suites/Projects/25_ALL_TEST/Soft_Drive\gd25qxx.c ****             pbuffer += count;
 909              		.loc 1 237 0
 910 008a 3C44     		add	r4, r4, r7
 911              	.LVL133:
 238:C:/Users/49542/Desktop/GD32F30x_Demo_Suites_V2.0.0/GD32F30x_Demo_Suites_V2.0.0/BearPi-IoT_GD32F303_Demo_Suites/Projects/25_ALL_TEST/Soft_Drive\gd25qxx.c **** 
 912              		.loc 1 238 0
 913 008c 3D44     		add	r5, r5, r7
 914              	.LVL134:
 240:C:/Users/49542/Desktop/GD32F30x_Demo_Suites_V2.0.0/GD32F30x_Demo_Suites_V2.0.0/BearPi-IoT_GD32F303_Demo_Suites/Projects/25_ALL_TEST/Soft_Drive\gd25qxx.c ****                 spi_flash_page_write(pbuffer,write_addr,SPI_FLASH_PAGE_SIZE);
 915              		.loc 1 240 0
 916 008e 0AE0     		b	.L63
 917              	.LVL135:
 918              	.L64:
 241:C:/Users/49542/Desktop/GD32F30x_Demo_Suites_V2.0.0/GD32F30x_Demo_Suites_V2.0.0/BearPi-IoT_GD32F303_Demo_Suites/Projects/25_ALL_TEST/Soft_Drive\gd25qxx.c ****                 write_addr += SPI_FLASH_PAGE_SIZE;
 919              		.loc 1 241 0
 920 0090 4FF48072 		mov	r2, #256
 921 0094 2146     		mov	r1, r4
 922 0096 2846     		mov	r0, r5
 923 0098 FFF7FEFF 		bl	spi_flash_page_write
 924              	.LVL136:
 242:C:/Users/49542/Desktop/GD32F30x_Demo_Suites_V2.0.0/GD32F30x_Demo_Suites_V2.0.0/BearPi-IoT_GD32F303_Demo_Suites/Projects/25_ALL_TEST/Soft_Drive\gd25qxx.c ****                 pbuffer += SPI_FLASH_PAGE_SIZE;
ARM GAS  C:\Users\49542\AppData\Local\Temp\ccK7V8j3.s 			page 26


 925              		.loc 1 242 0
 926 009c 04F58074 		add	r4, r4, #256
 927              	.LVL137:
 243:C:/Users/49542/Desktop/GD32F30x_Demo_Suites_V2.0.0/GD32F30x_Demo_Suites_V2.0.0/BearPi-IoT_GD32F303_Demo_Suites/Projects/25_ALL_TEST/Soft_Drive\gd25qxx.c ****             }
 928              		.loc 1 243 0
 929 00a0 05F58075 		add	r5, r5, #256
 930              	.LVL138:
 240:C:/Users/49542/Desktop/GD32F30x_Demo_Suites_V2.0.0/GD32F30x_Demo_Suites_V2.0.0/BearPi-IoT_GD32F303_Demo_Suites/Projects/25_ALL_TEST/Soft_Drive\gd25qxx.c ****                 spi_flash_page_write(pbuffer,write_addr,SPI_FLASH_PAGE_SIZE);
 931              		.loc 1 240 0
 932 00a4 B846     		mov	r8, r7
 933              	.LVL139:
 934              	.L63:
 935 00a6 08F1FF33 		add	r3, r8, #-1
 936 00aa DFB2     		uxtb	r7, r3
 937              	.LVL140:
 938 00ac B8F1000F 		cmp	r8, #0
 939 00b0 EED1     		bne	.L64
 246:C:/Users/49542/Desktop/GD32F30x_Demo_Suites_V2.0.0/GD32F30x_Demo_Suites_V2.0.0/BearPi-IoT_GD32F303_Demo_Suites/Projects/25_ALL_TEST/Soft_Drive\gd25qxx.c ****                 spi_flash_page_write(pbuffer,write_addr,num_of_single);
 940              		.loc 1 246 0
 941 00b2 B9F1000F 		cmp	r9, #0
 942 00b6 C5D0     		beq	.L56
 247:C:/Users/49542/Desktop/GD32F30x_Demo_Suites_V2.0.0/GD32F30x_Demo_Suites_V2.0.0/BearPi-IoT_GD32F303_Demo_Suites/Projects/25_ALL_TEST/Soft_Drive\gd25qxx.c ****         }
 943              		.loc 1 247 0
 944 00b8 F2B2     		uxtb	r2, r6
 945 00ba 2146     		mov	r1, r4
 946 00bc 2846     		mov	r0, r5
 947 00be FFF7FEFF 		bl	spi_flash_page_write
 948              	.LVL141:
 250:C:/Users/49542/Desktop/GD32F30x_Demo_Suites_V2.0.0/GD32F30x_Demo_Suites_V2.0.0/BearPi-IoT_GD32F303_Demo_Suites/Projects/25_ALL_TEST/Soft_Drive\gd25qxx.c **** 
 949              		.loc 1 250 0
 950 00c2 BFE7     		b	.L56
 951              		.cfi_endproc
 952              	.LFE120:
 954              		.text
 955              	.Letext0:
 956              		.file 2 "c:\\users\\49542\\opensourcetools\\gnu tools arm embedded\\7 2018-q2-update\\arm-none-eab
 957              		.file 3 "c:\\users\\49542\\opensourcetools\\gnu tools arm embedded\\7 2018-q2-update\\arm-none-eab
 958              		.file 4 "C:/Users/49542/Desktop/GD32F30x_Demo_Suites_V2.0.0/GD32F30x_Demo_Suites_V2.0.0/GD32F30x_F
 959              		.file 5 "C:/Users/49542/Desktop/GD32F30x_Demo_Suites_V2.0.0/GD32F30x_Demo_Suites_V2.0.0/GD32F30x_F
 960              		.file 6 "C:/Users/49542/Desktop/GD32F30x_Demo_Suites_V2.0.0/GD32F30x_Demo_Suites_V2.0.0/GD32F30x_F
 961              		.file 7 "C:/Users/49542/Desktop/GD32F30x_Demo_Suites_V2.0.0/GD32F30x_Demo_Suites_V2.0.0/GD32F30x_F
 962              		.file 8 "C:/Users/49542/Desktop/GD32F30x_Demo_Suites_V2.0.0/GD32F30x_Demo_Suites_V2.0.0/GD32F30x_F
 963              		.file 9 "c:\\users\\49542\\opensourcetools\\gnu tools arm embedded\\7 2018-q2-update\\arm-none-eab
 964              		.file 10 "c:\\users\\49542\\opensourcetools\\gnu tools arm embedded\\7 2018-q2-update\\arm-none-ea
 965              		.file 11 "c:\\users\\49542\\opensourcetools\\gnu tools arm embedded\\7 2018-q2-update\\lib\\gcc\\a
 966              		.file 12 "c:\\users\\49542\\opensourcetools\\gnu tools arm embedded\\7 2018-q2-update\\arm-none-ea
 967              		.file 13 "c:\\users\\49542\\opensourcetools\\gnu tools arm embedded\\7 2018-q2-update\\arm-none-ea
 968              		.file 14 "C:/Users/49542/Desktop/GD32F30x_Demo_Suites_V2.0.0/GD32F30x_Demo_Suites_V2.0.0/GD32F30x_
ARM GAS  C:\Users\49542\AppData\Local\Temp\ccK7V8j3.s 			page 27

