ARM GAS  C:\Users\49542\AppData\Local\Temp\ccCfvzZ4.s 			page 1


   1              		.cpu cortex-m4
   2              		.eabi_attribute 27, 1
   3              		.eabi_attribute 28, 1
   4              		.eabi_attribute 20, 1
   5              		.eabi_attribute 21, 1
   6              		.eabi_attribute 23, 3
   7              		.eabi_attribute 24, 1
   8              		.eabi_attribute 25, 1
   9              		.eabi_attribute 26, 1
  10              		.eabi_attribute 30, 1
  11              		.eabi_attribute 34, 1
  12              		.eabi_attribute 18, 4
  13              		.file	"gd32f30x_exmc.c"
  14              		.text
  15              	.Ltext0:
  16              		.cfi_sections	.debug_frame
  17              		.section	.text.exmc_norsram_deinit,"ax",%progbits
  18              		.align	1
  19              		.global	exmc_norsram_deinit
  20              		.syntax unified
  21              		.thumb
  22              		.thumb_func
  23              		.fpu fpv4-sp-d16
  25              	exmc_norsram_deinit:
  26              	.LFB116:
  27              		.file 1 "C:/Users/49542/Desktop/GD32F30x_Demo_Suites_V2.0.0/GD32F30x_Demo_Suites_V2.0.0/GD32F30x_F
   1:C:/Users/49542/Desktop/GD32F30x_Demo_Suites_V2.0.0/GD32F30x_Demo_Suites_V2.0.0/GD32F30x_Firmware_Library/GD32F30x_standard_peripheral/Source\gd32f30x_exmc.c **** /*!
   2:C:/Users/49542/Desktop/GD32F30x_Demo_Suites_V2.0.0/GD32F30x_Demo_Suites_V2.0.0/GD32F30x_Firmware_Library/GD32F30x_standard_peripheral/Source\gd32f30x_exmc.c ****     \file  gd32f30x_exmc.c
   3:C:/Users/49542/Desktop/GD32F30x_Demo_Suites_V2.0.0/GD32F30x_Demo_Suites_V2.0.0/GD32F30x_Firmware_Library/GD32F30x_standard_peripheral/Source\gd32f30x_exmc.c ****     \brief EXMC driver
   4:C:/Users/49542/Desktop/GD32F30x_Demo_Suites_V2.0.0/GD32F30x_Demo_Suites_V2.0.0/GD32F30x_Firmware_Library/GD32F30x_standard_peripheral/Source\gd32f30x_exmc.c **** 
   5:C:/Users/49542/Desktop/GD32F30x_Demo_Suites_V2.0.0/GD32F30x_Demo_Suites_V2.0.0/GD32F30x_Firmware_Library/GD32F30x_standard_peripheral/Source\gd32f30x_exmc.c ****     \version 2017-02-10, V1.0.0, firmware for GD32F30x
   6:C:/Users/49542/Desktop/GD32F30x_Demo_Suites_V2.0.0/GD32F30x_Demo_Suites_V2.0.0/GD32F30x_Firmware_Library/GD32F30x_standard_peripheral/Source\gd32f30x_exmc.c ****     \version 2018-10-10, V1.1.0, firmware for GD32F30x
   7:C:/Users/49542/Desktop/GD32F30x_Demo_Suites_V2.0.0/GD32F30x_Demo_Suites_V2.0.0/GD32F30x_Firmware_Library/GD32F30x_standard_peripheral/Source\gd32f30x_exmc.c ****     \version 2018-12-25, V2.0.0, firmware for GD32F30x
   8:C:/Users/49542/Desktop/GD32F30x_Demo_Suites_V2.0.0/GD32F30x_Demo_Suites_V2.0.0/GD32F30x_Firmware_Library/GD32F30x_standard_peripheral/Source\gd32f30x_exmc.c **** */
   9:C:/Users/49542/Desktop/GD32F30x_Demo_Suites_V2.0.0/GD32F30x_Demo_Suites_V2.0.0/GD32F30x_Firmware_Library/GD32F30x_standard_peripheral/Source\gd32f30x_exmc.c **** 
  10:C:/Users/49542/Desktop/GD32F30x_Demo_Suites_V2.0.0/GD32F30x_Demo_Suites_V2.0.0/GD32F30x_Firmware_Library/GD32F30x_standard_peripheral/Source\gd32f30x_exmc.c **** /*
  11:C:/Users/49542/Desktop/GD32F30x_Demo_Suites_V2.0.0/GD32F30x_Demo_Suites_V2.0.0/GD32F30x_Firmware_Library/GD32F30x_standard_peripheral/Source\gd32f30x_exmc.c ****     Copyright (c) 2018, GigaDevice Semiconductor Inc.
  12:C:/Users/49542/Desktop/GD32F30x_Demo_Suites_V2.0.0/GD32F30x_Demo_Suites_V2.0.0/GD32F30x_Firmware_Library/GD32F30x_standard_peripheral/Source\gd32f30x_exmc.c **** 
  13:C:/Users/49542/Desktop/GD32F30x_Demo_Suites_V2.0.0/GD32F30x_Demo_Suites_V2.0.0/GD32F30x_Firmware_Library/GD32F30x_standard_peripheral/Source\gd32f30x_exmc.c ****     All rights reserved.
  14:C:/Users/49542/Desktop/GD32F30x_Demo_Suites_V2.0.0/GD32F30x_Demo_Suites_V2.0.0/GD32F30x_Firmware_Library/GD32F30x_standard_peripheral/Source\gd32f30x_exmc.c **** 
  15:C:/Users/49542/Desktop/GD32F30x_Demo_Suites_V2.0.0/GD32F30x_Demo_Suites_V2.0.0/GD32F30x_Firmware_Library/GD32F30x_standard_peripheral/Source\gd32f30x_exmc.c ****     Redistribution and use in source and binary forms, with or without modification, 
  16:C:/Users/49542/Desktop/GD32F30x_Demo_Suites_V2.0.0/GD32F30x_Demo_Suites_V2.0.0/GD32F30x_Firmware_Library/GD32F30x_standard_peripheral/Source\gd32f30x_exmc.c **** are permitted provided that the following conditions are met:
  17:C:/Users/49542/Desktop/GD32F30x_Demo_Suites_V2.0.0/GD32F30x_Demo_Suites_V2.0.0/GD32F30x_Firmware_Library/GD32F30x_standard_peripheral/Source\gd32f30x_exmc.c **** 
  18:C:/Users/49542/Desktop/GD32F30x_Demo_Suites_V2.0.0/GD32F30x_Demo_Suites_V2.0.0/GD32F30x_Firmware_Library/GD32F30x_standard_peripheral/Source\gd32f30x_exmc.c ****     1. Redistributions of source code must retain the above copyright notice, this 
  19:C:/Users/49542/Desktop/GD32F30x_Demo_Suites_V2.0.0/GD32F30x_Demo_Suites_V2.0.0/GD32F30x_Firmware_Library/GD32F30x_standard_peripheral/Source\gd32f30x_exmc.c ****        list of conditions and the following disclaimer.
  20:C:/Users/49542/Desktop/GD32F30x_Demo_Suites_V2.0.0/GD32F30x_Demo_Suites_V2.0.0/GD32F30x_Firmware_Library/GD32F30x_standard_peripheral/Source\gd32f30x_exmc.c ****     2. Redistributions in binary form must reproduce the above copyright notice, 
  21:C:/Users/49542/Desktop/GD32F30x_Demo_Suites_V2.0.0/GD32F30x_Demo_Suites_V2.0.0/GD32F30x_Firmware_Library/GD32F30x_standard_peripheral/Source\gd32f30x_exmc.c ****        this list of conditions and the following disclaimer in the documentation 
  22:C:/Users/49542/Desktop/GD32F30x_Demo_Suites_V2.0.0/GD32F30x_Demo_Suites_V2.0.0/GD32F30x_Firmware_Library/GD32F30x_standard_peripheral/Source\gd32f30x_exmc.c ****        and/or other materials provided with the distribution.
  23:C:/Users/49542/Desktop/GD32F30x_Demo_Suites_V2.0.0/GD32F30x_Demo_Suites_V2.0.0/GD32F30x_Firmware_Library/GD32F30x_standard_peripheral/Source\gd32f30x_exmc.c ****     3. Neither the name of the copyright holder nor the names of its contributors 
  24:C:/Users/49542/Desktop/GD32F30x_Demo_Suites_V2.0.0/GD32F30x_Demo_Suites_V2.0.0/GD32F30x_Firmware_Library/GD32F30x_standard_peripheral/Source\gd32f30x_exmc.c ****        may be used to endorse or promote products derived from this software without 
  25:C:/Users/49542/Desktop/GD32F30x_Demo_Suites_V2.0.0/GD32F30x_Demo_Suites_V2.0.0/GD32F30x_Firmware_Library/GD32F30x_standard_peripheral/Source\gd32f30x_exmc.c ****        specific prior written permission.
  26:C:/Users/49542/Desktop/GD32F30x_Demo_Suites_V2.0.0/GD32F30x_Demo_Suites_V2.0.0/GD32F30x_Firmware_Library/GD32F30x_standard_peripheral/Source\gd32f30x_exmc.c **** 
  27:C:/Users/49542/Desktop/GD32F30x_Demo_Suites_V2.0.0/GD32F30x_Demo_Suites_V2.0.0/GD32F30x_Firmware_Library/GD32F30x_standard_peripheral/Source\gd32f30x_exmc.c ****     THIS SOFTWARE IS PROVIDED BY THE COPYRIGHT HOLDERS AND CONTRIBUTORS "AS IS" 
  28:C:/Users/49542/Desktop/GD32F30x_Demo_Suites_V2.0.0/GD32F30x_Demo_Suites_V2.0.0/GD32F30x_Firmware_Library/GD32F30x_standard_peripheral/Source\gd32f30x_exmc.c **** AND ANY EXPRESS OR IMPLIED WARRANTIES, INCLUDING, BUT NOT LIMITED TO, THE IMPLIED 
  29:C:/Users/49542/Desktop/GD32F30x_Demo_Suites_V2.0.0/GD32F30x_Demo_Suites_V2.0.0/GD32F30x_Firmware_Library/GD32F30x_standard_peripheral/Source\gd32f30x_exmc.c **** WARRANTIES OF MERCHANTABILITY AND FITNESS FOR A PARTICULAR PURPOSE ARE DISCLAIMED. 
  30:C:/Users/49542/Desktop/GD32F30x_Demo_Suites_V2.0.0/GD32F30x_Demo_Suites_V2.0.0/GD32F30x_Firmware_Library/GD32F30x_standard_peripheral/Source\gd32f30x_exmc.c **** IN NO EVENT SHALL THE COPYRIGHT HOLDER OR CONTRIBUTORS BE LIABLE FOR ANY DIRECT, 
  31:C:/Users/49542/Desktop/GD32F30x_Demo_Suites_V2.0.0/GD32F30x_Demo_Suites_V2.0.0/GD32F30x_Firmware_Library/GD32F30x_standard_peripheral/Source\gd32f30x_exmc.c **** INDIRECT, INCIDENTAL, SPECIAL, EXEMPLARY, OR CONSEQUENTIAL DAMAGES (INCLUDING, BUT 
ARM GAS  C:\Users\49542\AppData\Local\Temp\ccCfvzZ4.s 			page 2


  32:C:/Users/49542/Desktop/GD32F30x_Demo_Suites_V2.0.0/GD32F30x_Demo_Suites_V2.0.0/GD32F30x_Firmware_Library/GD32F30x_standard_peripheral/Source\gd32f30x_exmc.c **** NOT LIMITED TO, PROCUREMENT OF SUBSTITUTE GOODS OR SERVICES; LOSS OF USE, DATA, OR 
  33:C:/Users/49542/Desktop/GD32F30x_Demo_Suites_V2.0.0/GD32F30x_Demo_Suites_V2.0.0/GD32F30x_Firmware_Library/GD32F30x_standard_peripheral/Source\gd32f30x_exmc.c **** PROFITS; OR BUSINESS INTERRUPTION) HOWEVER CAUSED AND ON ANY THEORY OF LIABILITY, 
  34:C:/Users/49542/Desktop/GD32F30x_Demo_Suites_V2.0.0/GD32F30x_Demo_Suites_V2.0.0/GD32F30x_Firmware_Library/GD32F30x_standard_peripheral/Source\gd32f30x_exmc.c **** WHETHER IN CONTRACT, STRICT LIABILITY, OR TORT (INCLUDING NEGLIGENCE OR OTHERWISE) 
  35:C:/Users/49542/Desktop/GD32F30x_Demo_Suites_V2.0.0/GD32F30x_Demo_Suites_V2.0.0/GD32F30x_Firmware_Library/GD32F30x_standard_peripheral/Source\gd32f30x_exmc.c **** ARISING IN ANY WAY OUT OF THE USE OF THIS SOFTWARE, EVEN IF ADVISED OF THE POSSIBILITY 
  36:C:/Users/49542/Desktop/GD32F30x_Demo_Suites_V2.0.0/GD32F30x_Demo_Suites_V2.0.0/GD32F30x_Firmware_Library/GD32F30x_standard_peripheral/Source\gd32f30x_exmc.c **** OF SUCH DAMAGE.
  37:C:/Users/49542/Desktop/GD32F30x_Demo_Suites_V2.0.0/GD32F30x_Demo_Suites_V2.0.0/GD32F30x_Firmware_Library/GD32F30x_standard_peripheral/Source\gd32f30x_exmc.c **** */
  38:C:/Users/49542/Desktop/GD32F30x_Demo_Suites_V2.0.0/GD32F30x_Demo_Suites_V2.0.0/GD32F30x_Firmware_Library/GD32F30x_standard_peripheral/Source\gd32f30x_exmc.c **** 
  39:C:/Users/49542/Desktop/GD32F30x_Demo_Suites_V2.0.0/GD32F30x_Demo_Suites_V2.0.0/GD32F30x_Firmware_Library/GD32F30x_standard_peripheral/Source\gd32f30x_exmc.c **** #include "gd32f30x_exmc.h"
  40:C:/Users/49542/Desktop/GD32F30x_Demo_Suites_V2.0.0/GD32F30x_Demo_Suites_V2.0.0/GD32F30x_Firmware_Library/GD32F30x_standard_peripheral/Source\gd32f30x_exmc.c **** 
  41:C:/Users/49542/Desktop/GD32F30x_Demo_Suites_V2.0.0/GD32F30x_Demo_Suites_V2.0.0/GD32F30x_Firmware_Library/GD32F30x_standard_peripheral/Source\gd32f30x_exmc.c **** /* EXMC bank0 register reset value */
  42:C:/Users/49542/Desktop/GD32F30x_Demo_Suites_V2.0.0/GD32F30x_Demo_Suites_V2.0.0/GD32F30x_Firmware_Library/GD32F30x_standard_peripheral/Source\gd32f30x_exmc.c **** #define BANK0_SNCTL_REGION0_RESET         ((uint32_t)0x000030DBU)
  43:C:/Users/49542/Desktop/GD32F30x_Demo_Suites_V2.0.0/GD32F30x_Demo_Suites_V2.0.0/GD32F30x_Firmware_Library/GD32F30x_standard_peripheral/Source\gd32f30x_exmc.c **** #define BANK0_SNCTL_REGION1_2_3_RESET     ((uint32_t)0x000030D2U)
  44:C:/Users/49542/Desktop/GD32F30x_Demo_Suites_V2.0.0/GD32F30x_Demo_Suites_V2.0.0/GD32F30x_Firmware_Library/GD32F30x_standard_peripheral/Source\gd32f30x_exmc.c **** #define BANK0_SNTCFG_RESET                ((uint32_t)0x0FFFFFFFU)
  45:C:/Users/49542/Desktop/GD32F30x_Demo_Suites_V2.0.0/GD32F30x_Demo_Suites_V2.0.0/GD32F30x_Firmware_Library/GD32F30x_standard_peripheral/Source\gd32f30x_exmc.c **** #define BANK0_SNWTCFG_RESET               ((uint32_t)0x0FFFFFFFU)
  46:C:/Users/49542/Desktop/GD32F30x_Demo_Suites_V2.0.0/GD32F30x_Demo_Suites_V2.0.0/GD32F30x_Firmware_Library/GD32F30x_standard_peripheral/Source\gd32f30x_exmc.c **** 
  47:C:/Users/49542/Desktop/GD32F30x_Demo_Suites_V2.0.0/GD32F30x_Demo_Suites_V2.0.0/GD32F30x_Firmware_Library/GD32F30x_standard_peripheral/Source\gd32f30x_exmc.c **** /* EXMC bank1/2 register reset mask */
  48:C:/Users/49542/Desktop/GD32F30x_Demo_Suites_V2.0.0/GD32F30x_Demo_Suites_V2.0.0/GD32F30x_Firmware_Library/GD32F30x_standard_peripheral/Source\gd32f30x_exmc.c **** #define BANK1_2_NPCTL_RESET               ((uint32_t)0x00000018U)
  49:C:/Users/49542/Desktop/GD32F30x_Demo_Suites_V2.0.0/GD32F30x_Demo_Suites_V2.0.0/GD32F30x_Firmware_Library/GD32F30x_standard_peripheral/Source\gd32f30x_exmc.c **** #define BANK1_2_NPINTEN_RESET             ((uint32_t)0x00000042U)
  50:C:/Users/49542/Desktop/GD32F30x_Demo_Suites_V2.0.0/GD32F30x_Demo_Suites_V2.0.0/GD32F30x_Firmware_Library/GD32F30x_standard_peripheral/Source\gd32f30x_exmc.c **** #define BANK1_2_NPCTCFG_RESET             ((uint32_t)0xFCFCFCFCU)
  51:C:/Users/49542/Desktop/GD32F30x_Demo_Suites_V2.0.0/GD32F30x_Demo_Suites_V2.0.0/GD32F30x_Firmware_Library/GD32F30x_standard_peripheral/Source\gd32f30x_exmc.c **** #define BANK1_2_NPATCFG_RESET             ((uint32_t)0xFCFCFCFCU)
  52:C:/Users/49542/Desktop/GD32F30x_Demo_Suites_V2.0.0/GD32F30x_Demo_Suites_V2.0.0/GD32F30x_Firmware_Library/GD32F30x_standard_peripheral/Source\gd32f30x_exmc.c **** 
  53:C:/Users/49542/Desktop/GD32F30x_Demo_Suites_V2.0.0/GD32F30x_Demo_Suites_V2.0.0/GD32F30x_Firmware_Library/GD32F30x_standard_peripheral/Source\gd32f30x_exmc.c **** /* EXMC bank3 register reset mask */
  54:C:/Users/49542/Desktop/GD32F30x_Demo_Suites_V2.0.0/GD32F30x_Demo_Suites_V2.0.0/GD32F30x_Firmware_Library/GD32F30x_standard_peripheral/Source\gd32f30x_exmc.c **** #define BANK3_NPCTL_RESET                 ((uint32_t)0x00000018U)
  55:C:/Users/49542/Desktop/GD32F30x_Demo_Suites_V2.0.0/GD32F30x_Demo_Suites_V2.0.0/GD32F30x_Firmware_Library/GD32F30x_standard_peripheral/Source\gd32f30x_exmc.c **** #define BANK3_NPINTEN_RESET               ((uint32_t)0x00000043U)
  56:C:/Users/49542/Desktop/GD32F30x_Demo_Suites_V2.0.0/GD32F30x_Demo_Suites_V2.0.0/GD32F30x_Firmware_Library/GD32F30x_standard_peripheral/Source\gd32f30x_exmc.c **** #define BANK3_NPCTCFG_RESET               ((uint32_t)0xFCFCFCFCU)
  57:C:/Users/49542/Desktop/GD32F30x_Demo_Suites_V2.0.0/GD32F30x_Demo_Suites_V2.0.0/GD32F30x_Firmware_Library/GD32F30x_standard_peripheral/Source\gd32f30x_exmc.c **** #define BANK3_NPATCFG_RESET               ((uint32_t)0xFCFCFCFCU)
  58:C:/Users/49542/Desktop/GD32F30x_Demo_Suites_V2.0.0/GD32F30x_Demo_Suites_V2.0.0/GD32F30x_Firmware_Library/GD32F30x_standard_peripheral/Source\gd32f30x_exmc.c **** #define BANK3_PIOTCFG3_RESET              ((uint32_t)0xFCFCFCFCU)
  59:C:/Users/49542/Desktop/GD32F30x_Demo_Suites_V2.0.0/GD32F30x_Demo_Suites_V2.0.0/GD32F30x_Firmware_Library/GD32F30x_standard_peripheral/Source\gd32f30x_exmc.c **** 
  60:C:/Users/49542/Desktop/GD32F30x_Demo_Suites_V2.0.0/GD32F30x_Demo_Suites_V2.0.0/GD32F30x_Firmware_Library/GD32F30x_standard_peripheral/Source\gd32f30x_exmc.c **** /* EXMC register bit offset */
  61:C:/Users/49542/Desktop/GD32F30x_Demo_Suites_V2.0.0/GD32F30x_Demo_Suites_V2.0.0/GD32F30x_Firmware_Library/GD32F30x_standard_peripheral/Source\gd32f30x_exmc.c **** #define SNCTL_NRMUX_OFFSET                ((uint32_t)1U)
  62:C:/Users/49542/Desktop/GD32F30x_Demo_Suites_V2.0.0/GD32F30x_Demo_Suites_V2.0.0/GD32F30x_Firmware_Library/GD32F30x_standard_peripheral/Source\gd32f30x_exmc.c **** #define SNCTL_SBRSTEN_OFFSET              ((uint32_t)8U)
  63:C:/Users/49542/Desktop/GD32F30x_Demo_Suites_V2.0.0/GD32F30x_Demo_Suites_V2.0.0/GD32F30x_Firmware_Library/GD32F30x_standard_peripheral/Source\gd32f30x_exmc.c **** #define SNCTL_WRAPEN_OFFSET               ((uint32_t)10U)
  64:C:/Users/49542/Desktop/GD32F30x_Demo_Suites_V2.0.0/GD32F30x_Demo_Suites_V2.0.0/GD32F30x_Firmware_Library/GD32F30x_standard_peripheral/Source\gd32f30x_exmc.c **** #define SNCTL_WREN_OFFSET                 ((uint32_t)12U)
  65:C:/Users/49542/Desktop/GD32F30x_Demo_Suites_V2.0.0/GD32F30x_Demo_Suites_V2.0.0/GD32F30x_Firmware_Library/GD32F30x_standard_peripheral/Source\gd32f30x_exmc.c **** #define SNCTL_NRWTEN_OFFSET               ((uint32_t)13U)
  66:C:/Users/49542/Desktop/GD32F30x_Demo_Suites_V2.0.0/GD32F30x_Demo_Suites_V2.0.0/GD32F30x_Firmware_Library/GD32F30x_standard_peripheral/Source\gd32f30x_exmc.c **** #define SNCTL_EXMODEN_OFFSET              ((uint32_t)14U)
  67:C:/Users/49542/Desktop/GD32F30x_Demo_Suites_V2.0.0/GD32F30x_Demo_Suites_V2.0.0/GD32F30x_Firmware_Library/GD32F30x_standard_peripheral/Source\gd32f30x_exmc.c **** #define SNCTL_ASYNCWAIT_OFFSET            ((uint32_t)15U)
  68:C:/Users/49542/Desktop/GD32F30x_Demo_Suites_V2.0.0/GD32F30x_Demo_Suites_V2.0.0/GD32F30x_Firmware_Library/GD32F30x_standard_peripheral/Source\gd32f30x_exmc.c **** 
  69:C:/Users/49542/Desktop/GD32F30x_Demo_Suites_V2.0.0/GD32F30x_Demo_Suites_V2.0.0/GD32F30x_Firmware_Library/GD32F30x_standard_peripheral/Source\gd32f30x_exmc.c **** #define SNTCFG_AHLD_OFFSET                ((uint32_t)4U)
  70:C:/Users/49542/Desktop/GD32F30x_Demo_Suites_V2.0.0/GD32F30x_Demo_Suites_V2.0.0/GD32F30x_Firmware_Library/GD32F30x_standard_peripheral/Source\gd32f30x_exmc.c **** #define SNTCFG_DSET_OFFSET                ((uint32_t)8U)
  71:C:/Users/49542/Desktop/GD32F30x_Demo_Suites_V2.0.0/GD32F30x_Demo_Suites_V2.0.0/GD32F30x_Firmware_Library/GD32F30x_standard_peripheral/Source\gd32f30x_exmc.c **** #define SNTCFG_BUSLAT_OFFSET              ((uint32_t)16U)
  72:C:/Users/49542/Desktop/GD32F30x_Demo_Suites_V2.0.0/GD32F30x_Demo_Suites_V2.0.0/GD32F30x_Firmware_Library/GD32F30x_standard_peripheral/Source\gd32f30x_exmc.c **** 
  73:C:/Users/49542/Desktop/GD32F30x_Demo_Suites_V2.0.0/GD32F30x_Demo_Suites_V2.0.0/GD32F30x_Firmware_Library/GD32F30x_standard_peripheral/Source\gd32f30x_exmc.c **** #define SNWTCFG_WAHLD_OFFSET              ((uint32_t)4U)
  74:C:/Users/49542/Desktop/GD32F30x_Demo_Suites_V2.0.0/GD32F30x_Demo_Suites_V2.0.0/GD32F30x_Firmware_Library/GD32F30x_standard_peripheral/Source\gd32f30x_exmc.c **** #define SNWTCFG_WDSET_OFFSET              ((uint32_t)8U)
  75:C:/Users/49542/Desktop/GD32F30x_Demo_Suites_V2.0.0/GD32F30x_Demo_Suites_V2.0.0/GD32F30x_Firmware_Library/GD32F30x_standard_peripheral/Source\gd32f30x_exmc.c **** #define SNWTCFG_WBUSLAT_OFFSET            ((uint32_t)16U)
  76:C:/Users/49542/Desktop/GD32F30x_Demo_Suites_V2.0.0/GD32F30x_Demo_Suites_V2.0.0/GD32F30x_Firmware_Library/GD32F30x_standard_peripheral/Source\gd32f30x_exmc.c **** 
  77:C:/Users/49542/Desktop/GD32F30x_Demo_Suites_V2.0.0/GD32F30x_Demo_Suites_V2.0.0/GD32F30x_Firmware_Library/GD32F30x_standard_peripheral/Source\gd32f30x_exmc.c **** #define NPCTL_NDWTEN_OFFSET               ((uint32_t)1U)
  78:C:/Users/49542/Desktop/GD32F30x_Demo_Suites_V2.0.0/GD32F30x_Demo_Suites_V2.0.0/GD32F30x_Firmware_Library/GD32F30x_standard_peripheral/Source\gd32f30x_exmc.c **** #define NPCTL_ECCEN_OFFSET                ((uint32_t)6U)
  79:C:/Users/49542/Desktop/GD32F30x_Demo_Suites_V2.0.0/GD32F30x_Demo_Suites_V2.0.0/GD32F30x_Firmware_Library/GD32F30x_standard_peripheral/Source\gd32f30x_exmc.c **** 
  80:C:/Users/49542/Desktop/GD32F30x_Demo_Suites_V2.0.0/GD32F30x_Demo_Suites_V2.0.0/GD32F30x_Firmware_Library/GD32F30x_standard_peripheral/Source\gd32f30x_exmc.c **** #define NPCTCFG_COMWAIT_OFFSET            ((uint32_t)8U)
  81:C:/Users/49542/Desktop/GD32F30x_Demo_Suites_V2.0.0/GD32F30x_Demo_Suites_V2.0.0/GD32F30x_Firmware_Library/GD32F30x_standard_peripheral/Source\gd32f30x_exmc.c **** #define NPCTCFG_COMHLD_OFFSET             ((uint32_t)16U)
  82:C:/Users/49542/Desktop/GD32F30x_Demo_Suites_V2.0.0/GD32F30x_Demo_Suites_V2.0.0/GD32F30x_Firmware_Library/GD32F30x_standard_peripheral/Source\gd32f30x_exmc.c **** #define NPCTCFG_COMHIZ_OFFSET             ((uint32_t)24U)
  83:C:/Users/49542/Desktop/GD32F30x_Demo_Suites_V2.0.0/GD32F30x_Demo_Suites_V2.0.0/GD32F30x_Firmware_Library/GD32F30x_standard_peripheral/Source\gd32f30x_exmc.c **** 
  84:C:/Users/49542/Desktop/GD32F30x_Demo_Suites_V2.0.0/GD32F30x_Demo_Suites_V2.0.0/GD32F30x_Firmware_Library/GD32F30x_standard_peripheral/Source\gd32f30x_exmc.c **** #define NPATCFG_ATTWAIT_OFFSET            ((uint32_t)8U)
  85:C:/Users/49542/Desktop/GD32F30x_Demo_Suites_V2.0.0/GD32F30x_Demo_Suites_V2.0.0/GD32F30x_Firmware_Library/GD32F30x_standard_peripheral/Source\gd32f30x_exmc.c **** #define NPATCFG_ATTHLD_OFFSET             ((uint32_t)16U)
  86:C:/Users/49542/Desktop/GD32F30x_Demo_Suites_V2.0.0/GD32F30x_Demo_Suites_V2.0.0/GD32F30x_Firmware_Library/GD32F30x_standard_peripheral/Source\gd32f30x_exmc.c **** #define NPATCFG_ATTHIZ_OFFSET             ((uint32_t)24U)
  87:C:/Users/49542/Desktop/GD32F30x_Demo_Suites_V2.0.0/GD32F30x_Demo_Suites_V2.0.0/GD32F30x_Firmware_Library/GD32F30x_standard_peripheral/Source\gd32f30x_exmc.c **** 
  88:C:/Users/49542/Desktop/GD32F30x_Demo_Suites_V2.0.0/GD32F30x_Demo_Suites_V2.0.0/GD32F30x_Firmware_Library/GD32F30x_standard_peripheral/Source\gd32f30x_exmc.c **** #define PIOTCFG_IOWAIT_OFFSET             ((uint32_t)8U)
ARM GAS  C:\Users\49542\AppData\Local\Temp\ccCfvzZ4.s 			page 3


  89:C:/Users/49542/Desktop/GD32F30x_Demo_Suites_V2.0.0/GD32F30x_Demo_Suites_V2.0.0/GD32F30x_Firmware_Library/GD32F30x_standard_peripheral/Source\gd32f30x_exmc.c **** #define PIOTCFG_IOHLD_OFFSET              ((uint32_t)16U)
  90:C:/Users/49542/Desktop/GD32F30x_Demo_Suites_V2.0.0/GD32F30x_Demo_Suites_V2.0.0/GD32F30x_Firmware_Library/GD32F30x_standard_peripheral/Source\gd32f30x_exmc.c **** #define PIOTCFG_IOHIZ_OFFSET              ((uint32_t)24U)
  91:C:/Users/49542/Desktop/GD32F30x_Demo_Suites_V2.0.0/GD32F30x_Demo_Suites_V2.0.0/GD32F30x_Firmware_Library/GD32F30x_standard_peripheral/Source\gd32f30x_exmc.c **** 
  92:C:/Users/49542/Desktop/GD32F30x_Demo_Suites_V2.0.0/GD32F30x_Demo_Suites_V2.0.0/GD32F30x_Firmware_Library/GD32F30x_standard_peripheral/Source\gd32f30x_exmc.c **** #define INTEN_INTS_OFFSET                 ((uint32_t)3U)
  93:C:/Users/49542/Desktop/GD32F30x_Demo_Suites_V2.0.0/GD32F30x_Demo_Suites_V2.0.0/GD32F30x_Firmware_Library/GD32F30x_standard_peripheral/Source\gd32f30x_exmc.c **** 
  94:C:/Users/49542/Desktop/GD32F30x_Demo_Suites_V2.0.0/GD32F30x_Demo_Suites_V2.0.0/GD32F30x_Firmware_Library/GD32F30x_standard_peripheral/Source\gd32f30x_exmc.c **** /*!
  95:C:/Users/49542/Desktop/GD32F30x_Demo_Suites_V2.0.0/GD32F30x_Demo_Suites_V2.0.0/GD32F30x_Firmware_Library/GD32F30x_standard_peripheral/Source\gd32f30x_exmc.c ****     \brief      deinitialize EXMC NOR/SRAM region
  96:C:/Users/49542/Desktop/GD32F30x_Demo_Suites_V2.0.0/GD32F30x_Demo_Suites_V2.0.0/GD32F30x_Firmware_Library/GD32F30x_standard_peripheral/Source\gd32f30x_exmc.c ****     \param[in]  exmc_norsram_region: select the region of bank0
  97:C:/Users/49542/Desktop/GD32F30x_Demo_Suites_V2.0.0/GD32F30x_Demo_Suites_V2.0.0/GD32F30x_Firmware_Library/GD32F30x_standard_peripheral/Source\gd32f30x_exmc.c ****                 only one parameter can be selected which is shown as below:
  98:C:/Users/49542/Desktop/GD32F30x_Demo_Suites_V2.0.0/GD32F30x_Demo_Suites_V2.0.0/GD32F30x_Firmware_Library/GD32F30x_standard_peripheral/Source\gd32f30x_exmc.c ****       \arg        EXMC_BANK0_NORSRAM_REGIONx(x=0..3)
  99:C:/Users/49542/Desktop/GD32F30x_Demo_Suites_V2.0.0/GD32F30x_Demo_Suites_V2.0.0/GD32F30x_Firmware_Library/GD32F30x_standard_peripheral/Source\gd32f30x_exmc.c ****     \param[out] none
 100:C:/Users/49542/Desktop/GD32F30x_Demo_Suites_V2.0.0/GD32F30x_Demo_Suites_V2.0.0/GD32F30x_Firmware_Library/GD32F30x_standard_peripheral/Source\gd32f30x_exmc.c ****     \retval     none
 101:C:/Users/49542/Desktop/GD32F30x_Demo_Suites_V2.0.0/GD32F30x_Demo_Suites_V2.0.0/GD32F30x_Firmware_Library/GD32F30x_standard_peripheral/Source\gd32f30x_exmc.c **** */
 102:C:/Users/49542/Desktop/GD32F30x_Demo_Suites_V2.0.0/GD32F30x_Demo_Suites_V2.0.0/GD32F30x_Firmware_Library/GD32F30x_standard_peripheral/Source\gd32f30x_exmc.c **** void exmc_norsram_deinit(uint32_t exmc_norsram_region)
 103:C:/Users/49542/Desktop/GD32F30x_Demo_Suites_V2.0.0/GD32F30x_Demo_Suites_V2.0.0/GD32F30x_Firmware_Library/GD32F30x_standard_peripheral/Source\gd32f30x_exmc.c **** {
  28              		.loc 1 103 0
  29              		.cfi_startproc
  30              		@ args = 0, pretend = 0, frame = 0
  31              		@ frame_needed = 0, uses_anonymous_args = 0
  32              		@ link register save eliminated.
  33              	.LVL0:
 104:C:/Users/49542/Desktop/GD32F30x_Demo_Suites_V2.0.0/GD32F30x_Demo_Suites_V2.0.0/GD32F30x_Firmware_Library/GD32F30x_standard_peripheral/Source\gd32f30x_exmc.c ****     /* reset the registers */
 105:C:/Users/49542/Desktop/GD32F30x_Demo_Suites_V2.0.0/GD32F30x_Demo_Suites_V2.0.0/GD32F30x_Firmware_Library/GD32F30x_standard_peripheral/Source\gd32f30x_exmc.c ****     if(EXMC_BANK0_NORSRAM_REGION0 == exmc_norsram_region){
  34              		.loc 1 105 0
  35 0000 0346     		mov	r3, r0
  36 0002 70B1     		cbz	r0, .L4
 106:C:/Users/49542/Desktop/GD32F30x_Demo_Suites_V2.0.0/GD32F30x_Demo_Suites_V2.0.0/GD32F30x_Firmware_Library/GD32F30x_standard_peripheral/Source\gd32f30x_exmc.c ****         EXMC_SNCTL(exmc_norsram_region) = BANK0_SNCTL_REGION0_RESET;
 107:C:/Users/49542/Desktop/GD32F30x_Demo_Suites_V2.0.0/GD32F30x_Demo_Suites_V2.0.0/GD32F30x_Firmware_Library/GD32F30x_standard_peripheral/Source\gd32f30x_exmc.c ****     }else{
 108:C:/Users/49542/Desktop/GD32F30x_Demo_Suites_V2.0.0/GD32F30x_Demo_Suites_V2.0.0/GD32F30x_Firmware_Library/GD32F30x_standard_peripheral/Source\gd32f30x_exmc.c ****         EXMC_SNCTL(exmc_norsram_region) = BANK0_SNCTL_REGION1_2_3_RESET;
  37              		.loc 1 108 0
  38 0004 00F1A052 		add	r2, r0, #335544320
  39 0008 D200     		lsls	r2, r2, #3
  40 000a 43F2D201 		movw	r1, #12498
  41 000e 1160     		str	r1, [r2]
  42              	.L3:
 109:C:/Users/49542/Desktop/GD32F30x_Demo_Suites_V2.0.0/GD32F30x_Demo_Suites_V2.0.0/GD32F30x_Firmware_Library/GD32F30x_standard_peripheral/Source\gd32f30x_exmc.c ****     }
 110:C:/Users/49542/Desktop/GD32F30x_Demo_Suites_V2.0.0/GD32F30x_Demo_Suites_V2.0.0/GD32F30x_Firmware_Library/GD32F30x_standard_peripheral/Source\gd32f30x_exmc.c ****     EXMC_SNTCFG(exmc_norsram_region) = BANK0_SNTCFG_RESET;
  43              		.loc 1 110 0
  44 0010 DB00     		lsls	r3, r3, #3
  45 0012 03F12043 		add	r3, r3, #-1610612736
  46 0016 6FF07042 		mvn	r2, #-268435456
  47 001a 5A60     		str	r2, [r3, #4]
 111:C:/Users/49542/Desktop/GD32F30x_Demo_Suites_V2.0.0/GD32F30x_Demo_Suites_V2.0.0/GD32F30x_Firmware_Library/GD32F30x_standard_peripheral/Source\gd32f30x_exmc.c ****     EXMC_SNWTCFG(exmc_norsram_region) = BANK0_SNWTCFG_RESET;
  48              		.loc 1 111 0
  49 001c C3F80421 		str	r2, [r3, #260]
 112:C:/Users/49542/Desktop/GD32F30x_Demo_Suites_V2.0.0/GD32F30x_Demo_Suites_V2.0.0/GD32F30x_Firmware_Library/GD32F30x_standard_peripheral/Source\gd32f30x_exmc.c **** }
  50              		.loc 1 112 0
  51 0020 7047     		bx	lr
  52              	.L4:
 106:C:/Users/49542/Desktop/GD32F30x_Demo_Suites_V2.0.0/GD32F30x_Demo_Suites_V2.0.0/GD32F30x_Firmware_Library/GD32F30x_standard_peripheral/Source\gd32f30x_exmc.c ****     }else{
  53              		.loc 1 106 0
  54 0022 00F1A052 		add	r2, r0, #335544320
  55 0026 D200     		lsls	r2, r2, #3
  56 0028 43F2DB01 		movw	r1, #12507
  57 002c 1160     		str	r1, [r2]
  58 002e EFE7     		b	.L3
  59              		.cfi_endproc
ARM GAS  C:\Users\49542\AppData\Local\Temp\ccCfvzZ4.s 			page 4


  60              	.LFE116:
  62              		.section	.text.exmc_norsram_struct_para_init,"ax",%progbits
  63              		.align	1
  64              		.global	exmc_norsram_struct_para_init
  65              		.syntax unified
  66              		.thumb
  67              		.thumb_func
  68              		.fpu fpv4-sp-d16
  70              	exmc_norsram_struct_para_init:
  71              	.LFB117:
 113:C:/Users/49542/Desktop/GD32F30x_Demo_Suites_V2.0.0/GD32F30x_Demo_Suites_V2.0.0/GD32F30x_Firmware_Library/GD32F30x_standard_peripheral/Source\gd32f30x_exmc.c **** 
 114:C:/Users/49542/Desktop/GD32F30x_Demo_Suites_V2.0.0/GD32F30x_Demo_Suites_V2.0.0/GD32F30x_Firmware_Library/GD32F30x_standard_peripheral/Source\gd32f30x_exmc.c **** /*!
 115:C:/Users/49542/Desktop/GD32F30x_Demo_Suites_V2.0.0/GD32F30x_Demo_Suites_V2.0.0/GD32F30x_Firmware_Library/GD32F30x_standard_peripheral/Source\gd32f30x_exmc.c ****     \brief      initialize exmc_norsram_parameter_struct with the default values
 116:C:/Users/49542/Desktop/GD32F30x_Demo_Suites_V2.0.0/GD32F30x_Demo_Suites_V2.0.0/GD32F30x_Firmware_Library/GD32F30x_standard_peripheral/Source\gd32f30x_exmc.c ****     \param[in]  none
 117:C:/Users/49542/Desktop/GD32F30x_Demo_Suites_V2.0.0/GD32F30x_Demo_Suites_V2.0.0/GD32F30x_Firmware_Library/GD32F30x_standard_peripheral/Source\gd32f30x_exmc.c ****     \param[out] exmc_norsram_init_struct: the initialized struct exmc_norsram_parameter_struct poin
 118:C:/Users/49542/Desktop/GD32F30x_Demo_Suites_V2.0.0/GD32F30x_Demo_Suites_V2.0.0/GD32F30x_Firmware_Library/GD32F30x_standard_peripheral/Source\gd32f30x_exmc.c ****     \retval     none
 119:C:/Users/49542/Desktop/GD32F30x_Demo_Suites_V2.0.0/GD32F30x_Demo_Suites_V2.0.0/GD32F30x_Firmware_Library/GD32F30x_standard_peripheral/Source\gd32f30x_exmc.c **** */
 120:C:/Users/49542/Desktop/GD32F30x_Demo_Suites_V2.0.0/GD32F30x_Demo_Suites_V2.0.0/GD32F30x_Firmware_Library/GD32F30x_standard_peripheral/Source\gd32f30x_exmc.c **** void exmc_norsram_struct_para_init(exmc_norsram_parameter_struct* exmc_norsram_init_struct)
 121:C:/Users/49542/Desktop/GD32F30x_Demo_Suites_V2.0.0/GD32F30x_Demo_Suites_V2.0.0/GD32F30x_Firmware_Library/GD32F30x_standard_peripheral/Source\gd32f30x_exmc.c **** {
  72              		.loc 1 121 0
  73              		.cfi_startproc
  74              		@ args = 0, pretend = 0, frame = 0
  75              		@ frame_needed = 0, uses_anonymous_args = 0
  76              		@ link register save eliminated.
  77              	.LVL1:
  78 0000 30B4     		push	{r4, r5}
  79              	.LCFI0:
  80              		.cfi_def_cfa_offset 8
  81              		.cfi_offset 4, -8
  82              		.cfi_offset 5, -4
 122:C:/Users/49542/Desktop/GD32F30x_Demo_Suites_V2.0.0/GD32F30x_Demo_Suites_V2.0.0/GD32F30x_Firmware_Library/GD32F30x_standard_peripheral/Source\gd32f30x_exmc.c ****     /* configure the structure with default values */
 123:C:/Users/49542/Desktop/GD32F30x_Demo_Suites_V2.0.0/GD32F30x_Demo_Suites_V2.0.0/GD32F30x_Firmware_Library/GD32F30x_standard_peripheral/Source\gd32f30x_exmc.c ****     exmc_norsram_init_struct->norsram_region = EXMC_BANK0_NORSRAM_REGION0;
  83              		.loc 1 123 0
  84 0002 0023     		movs	r3, #0
  85 0004 0360     		str	r3, [r0]
 124:C:/Users/49542/Desktop/GD32F30x_Demo_Suites_V2.0.0/GD32F30x_Demo_Suites_V2.0.0/GD32F30x_Firmware_Library/GD32F30x_standard_peripheral/Source\gd32f30x_exmc.c ****     exmc_norsram_init_struct->address_data_mux = ENABLE;
  86              		.loc 1 124 0
  87 0006 0122     		movs	r2, #1
  88 0008 0263     		str	r2, [r0, #48]
 125:C:/Users/49542/Desktop/GD32F30x_Demo_Suites_V2.0.0/GD32F30x_Demo_Suites_V2.0.0/GD32F30x_Firmware_Library/GD32F30x_standard_peripheral/Source\gd32f30x_exmc.c ****     exmc_norsram_init_struct->memory_type = EXMC_MEMORY_TYPE_SRAM;
  89              		.loc 1 125 0
  90 000a C362     		str	r3, [r0, #44]
 126:C:/Users/49542/Desktop/GD32F30x_Demo_Suites_V2.0.0/GD32F30x_Demo_Suites_V2.0.0/GD32F30x_Firmware_Library/GD32F30x_standard_peripheral/Source\gd32f30x_exmc.c ****     exmc_norsram_init_struct->databus_width = EXMC_NOR_DATABUS_WIDTH_8B;
  91              		.loc 1 126 0
  92 000c 8362     		str	r3, [r0, #40]
 127:C:/Users/49542/Desktop/GD32F30x_Demo_Suites_V2.0.0/GD32F30x_Demo_Suites_V2.0.0/GD32F30x_Firmware_Library/GD32F30x_standard_peripheral/Source\gd32f30x_exmc.c ****     exmc_norsram_init_struct->burst_mode = DISABLE;
  93              		.loc 1 127 0
  94 000e 4362     		str	r3, [r0, #36]
 128:C:/Users/49542/Desktop/GD32F30x_Demo_Suites_V2.0.0/GD32F30x_Demo_Suites_V2.0.0/GD32F30x_Firmware_Library/GD32F30x_standard_peripheral/Source\gd32f30x_exmc.c ****     exmc_norsram_init_struct->nwait_polarity = EXMC_NWAIT_POLARITY_LOW;
  95              		.loc 1 128 0
  96 0010 0362     		str	r3, [r0, #32]
 129:C:/Users/49542/Desktop/GD32F30x_Demo_Suites_V2.0.0/GD32F30x_Demo_Suites_V2.0.0/GD32F30x_Firmware_Library/GD32F30x_standard_peripheral/Source\gd32f30x_exmc.c ****     exmc_norsram_init_struct->wrap_burst_mode = DISABLE;
  97              		.loc 1 129 0
  98 0012 C361     		str	r3, [r0, #28]
 130:C:/Users/49542/Desktop/GD32F30x_Demo_Suites_V2.0.0/GD32F30x_Demo_Suites_V2.0.0/GD32F30x_Firmware_Library/GD32F30x_standard_peripheral/Source\gd32f30x_exmc.c ****     exmc_norsram_init_struct->nwait_config = EXMC_NWAIT_CONFIG_BEFORE;
  99              		.loc 1 130 0
 100 0014 8361     		str	r3, [r0, #24]
ARM GAS  C:\Users\49542\AppData\Local\Temp\ccCfvzZ4.s 			page 5


 131:C:/Users/49542/Desktop/GD32F30x_Demo_Suites_V2.0.0/GD32F30x_Demo_Suites_V2.0.0/GD32F30x_Firmware_Library/GD32F30x_standard_peripheral/Source\gd32f30x_exmc.c ****     exmc_norsram_init_struct->memory_write = ENABLE;
 101              		.loc 1 131 0
 102 0016 4261     		str	r2, [r0, #20]
 132:C:/Users/49542/Desktop/GD32F30x_Demo_Suites_V2.0.0/GD32F30x_Demo_Suites_V2.0.0/GD32F30x_Firmware_Library/GD32F30x_standard_peripheral/Source\gd32f30x_exmc.c ****     exmc_norsram_init_struct->nwait_signal = ENABLE;
 103              		.loc 1 132 0
 104 0018 0261     		str	r2, [r0, #16]
 133:C:/Users/49542/Desktop/GD32F30x_Demo_Suites_V2.0.0/GD32F30x_Demo_Suites_V2.0.0/GD32F30x_Firmware_Library/GD32F30x_standard_peripheral/Source\gd32f30x_exmc.c ****     exmc_norsram_init_struct->extended_mode = DISABLE;
 105              		.loc 1 133 0
 106 001a 8360     		str	r3, [r0, #8]
 134:C:/Users/49542/Desktop/GD32F30x_Demo_Suites_V2.0.0/GD32F30x_Demo_Suites_V2.0.0/GD32F30x_Firmware_Library/GD32F30x_standard_peripheral/Source\gd32f30x_exmc.c ****     exmc_norsram_init_struct->asyn_wait = DISABLE;
 107              		.loc 1 134 0
 108 001c C360     		str	r3, [r0, #12]
 135:C:/Users/49542/Desktop/GD32F30x_Demo_Suites_V2.0.0/GD32F30x_Demo_Suites_V2.0.0/GD32F30x_Firmware_Library/GD32F30x_standard_peripheral/Source\gd32f30x_exmc.c ****     exmc_norsram_init_struct->write_mode = EXMC_ASYN_WRITE;
 109              		.loc 1 135 0
 110 001e 4360     		str	r3, [r0, #4]
 136:C:/Users/49542/Desktop/GD32F30x_Demo_Suites_V2.0.0/GD32F30x_Demo_Suites_V2.0.0/GD32F30x_Firmware_Library/GD32F30x_standard_peripheral/Source\gd32f30x_exmc.c **** 
 137:C:/Users/49542/Desktop/GD32F30x_Demo_Suites_V2.0.0/GD32F30x_Demo_Suites_V2.0.0/GD32F30x_Firmware_Library/GD32F30x_standard_peripheral/Source\gd32f30x_exmc.c ****     /* read/write timing configure */
 138:C:/Users/49542/Desktop/GD32F30x_Demo_Suites_V2.0.0/GD32F30x_Demo_Suites_V2.0.0/GD32F30x_Firmware_Library/GD32F30x_standard_peripheral/Source\gd32f30x_exmc.c ****     exmc_norsram_init_struct->read_write_timing->asyn_address_setuptime = 0xFU;
 111              		.loc 1 138 0
 112 0020 416B     		ldr	r1, [r0, #52]
 113 0022 0F22     		movs	r2, #15
 114 0024 8A61     		str	r2, [r1, #24]
 139:C:/Users/49542/Desktop/GD32F30x_Demo_Suites_V2.0.0/GD32F30x_Demo_Suites_V2.0.0/GD32F30x_Firmware_Library/GD32F30x_standard_peripheral/Source\gd32f30x_exmc.c ****     exmc_norsram_init_struct->read_write_timing->asyn_address_holdtime = 0xFU;
 115              		.loc 1 139 0
 116 0026 416B     		ldr	r1, [r0, #52]
 117 0028 4A61     		str	r2, [r1, #20]
 140:C:/Users/49542/Desktop/GD32F30x_Demo_Suites_V2.0.0/GD32F30x_Demo_Suites_V2.0.0/GD32F30x_Firmware_Library/GD32F30x_standard_peripheral/Source\gd32f30x_exmc.c ****     exmc_norsram_init_struct->read_write_timing->asyn_data_setuptime = 0xFFU;
 118              		.loc 1 140 0
 119 002a 446B     		ldr	r4, [r0, #52]
 120 002c FF21     		movs	r1, #255
 121 002e 2161     		str	r1, [r4, #16]
 141:C:/Users/49542/Desktop/GD32F30x_Demo_Suites_V2.0.0/GD32F30x_Demo_Suites_V2.0.0/GD32F30x_Firmware_Library/GD32F30x_standard_peripheral/Source\gd32f30x_exmc.c ****     exmc_norsram_init_struct->read_write_timing->bus_latency = 0xFU;
 122              		.loc 1 141 0
 123 0030 446B     		ldr	r4, [r0, #52]
 124 0032 E260     		str	r2, [r4, #12]
 142:C:/Users/49542/Desktop/GD32F30x_Demo_Suites_V2.0.0/GD32F30x_Demo_Suites_V2.0.0/GD32F30x_Firmware_Library/GD32F30x_standard_peripheral/Source\gd32f30x_exmc.c ****     exmc_norsram_init_struct->read_write_timing->syn_clk_division = EXMC_SYN_CLOCK_RATIO_16_CLK;
 125              		.loc 1 142 0
 126 0034 446B     		ldr	r4, [r0, #52]
 127 0036 4FF47005 		mov	r5, #15728640
 128 003a A560     		str	r5, [r4, #8]
 143:C:/Users/49542/Desktop/GD32F30x_Demo_Suites_V2.0.0/GD32F30x_Demo_Suites_V2.0.0/GD32F30x_Firmware_Library/GD32F30x_standard_peripheral/Source\gd32f30x_exmc.c ****     exmc_norsram_init_struct->read_write_timing->syn_data_latency = EXMC_DATALAT_17_CLK;
 129              		.loc 1 143 0
 130 003c 446B     		ldr	r4, [r0, #52]
 131 003e 4FF07065 		mov	r5, #251658240
 132 0042 6560     		str	r5, [r4, #4]
 144:C:/Users/49542/Desktop/GD32F30x_Demo_Suites_V2.0.0/GD32F30x_Demo_Suites_V2.0.0/GD32F30x_Firmware_Library/GD32F30x_standard_peripheral/Source\gd32f30x_exmc.c ****     exmc_norsram_init_struct->read_write_timing->asyn_access_mode = EXMC_ACCESS_MODE_A;
 133              		.loc 1 144 0
 134 0044 446B     		ldr	r4, [r0, #52]
 135 0046 2360     		str	r3, [r4]
 145:C:/Users/49542/Desktop/GD32F30x_Demo_Suites_V2.0.0/GD32F30x_Demo_Suites_V2.0.0/GD32F30x_Firmware_Library/GD32F30x_standard_peripheral/Source\gd32f30x_exmc.c **** 
 146:C:/Users/49542/Desktop/GD32F30x_Demo_Suites_V2.0.0/GD32F30x_Demo_Suites_V2.0.0/GD32F30x_Firmware_Library/GD32F30x_standard_peripheral/Source\gd32f30x_exmc.c ****     /* write timing configure, when extended mode is used */
 147:C:/Users/49542/Desktop/GD32F30x_Demo_Suites_V2.0.0/GD32F30x_Demo_Suites_V2.0.0/GD32F30x_Firmware_Library/GD32F30x_standard_peripheral/Source\gd32f30x_exmc.c ****     exmc_norsram_init_struct->write_timing->asyn_address_setuptime = 0xFU;
 136              		.loc 1 147 0
 137 0048 846B     		ldr	r4, [r0, #56]
 138 004a A261     		str	r2, [r4, #24]
 148:C:/Users/49542/Desktop/GD32F30x_Demo_Suites_V2.0.0/GD32F30x_Demo_Suites_V2.0.0/GD32F30x_Firmware_Library/GD32F30x_standard_peripheral/Source\gd32f30x_exmc.c ****     exmc_norsram_init_struct->write_timing->asyn_address_holdtime = 0xFU;
 139              		.loc 1 148 0
ARM GAS  C:\Users\49542\AppData\Local\Temp\ccCfvzZ4.s 			page 6


 140 004c 846B     		ldr	r4, [r0, #56]
 141 004e 6261     		str	r2, [r4, #20]
 149:C:/Users/49542/Desktop/GD32F30x_Demo_Suites_V2.0.0/GD32F30x_Demo_Suites_V2.0.0/GD32F30x_Firmware_Library/GD32F30x_standard_peripheral/Source\gd32f30x_exmc.c ****     exmc_norsram_init_struct->write_timing->asyn_data_setuptime = 0xFFU;
 142              		.loc 1 149 0
 143 0050 846B     		ldr	r4, [r0, #56]
 144 0052 2161     		str	r1, [r4, #16]
 150:C:/Users/49542/Desktop/GD32F30x_Demo_Suites_V2.0.0/GD32F30x_Demo_Suites_V2.0.0/GD32F30x_Firmware_Library/GD32F30x_standard_peripheral/Source\gd32f30x_exmc.c ****     exmc_norsram_init_struct->write_timing->bus_latency = 0xFU;
 145              		.loc 1 150 0
 146 0054 816B     		ldr	r1, [r0, #56]
 147 0056 CA60     		str	r2, [r1, #12]
 151:C:/Users/49542/Desktop/GD32F30x_Demo_Suites_V2.0.0/GD32F30x_Demo_Suites_V2.0.0/GD32F30x_Firmware_Library/GD32F30x_standard_peripheral/Source\gd32f30x_exmc.c ****     exmc_norsram_init_struct->write_timing->asyn_access_mode = EXMC_ACCESS_MODE_A;
 148              		.loc 1 151 0
 149 0058 826B     		ldr	r2, [r0, #56]
 150 005a 1360     		str	r3, [r2]
 152:C:/Users/49542/Desktop/GD32F30x_Demo_Suites_V2.0.0/GD32F30x_Demo_Suites_V2.0.0/GD32F30x_Firmware_Library/GD32F30x_standard_peripheral/Source\gd32f30x_exmc.c **** }
 151              		.loc 1 152 0
 152 005c 30BC     		pop	{r4, r5}
 153              	.LCFI1:
 154              		.cfi_restore 5
 155              		.cfi_restore 4
 156              		.cfi_def_cfa_offset 0
 157 005e 7047     		bx	lr
 158              		.cfi_endproc
 159              	.LFE117:
 161              		.section	.text.exmc_norsram_init,"ax",%progbits
 162              		.align	1
 163              		.global	exmc_norsram_init
 164              		.syntax unified
 165              		.thumb
 166              		.thumb_func
 167              		.fpu fpv4-sp-d16
 169              	exmc_norsram_init:
 170              	.LFB118:
 153:C:/Users/49542/Desktop/GD32F30x_Demo_Suites_V2.0.0/GD32F30x_Demo_Suites_V2.0.0/GD32F30x_Firmware_Library/GD32F30x_standard_peripheral/Source\gd32f30x_exmc.c **** 
 154:C:/Users/49542/Desktop/GD32F30x_Demo_Suites_V2.0.0/GD32F30x_Demo_Suites_V2.0.0/GD32F30x_Firmware_Library/GD32F30x_standard_peripheral/Source\gd32f30x_exmc.c **** /*!
 155:C:/Users/49542/Desktop/GD32F30x_Demo_Suites_V2.0.0/GD32F30x_Demo_Suites_V2.0.0/GD32F30x_Firmware_Library/GD32F30x_standard_peripheral/Source\gd32f30x_exmc.c ****     \brief      initialize EXMC NOR/SRAM region
 156:C:/Users/49542/Desktop/GD32F30x_Demo_Suites_V2.0.0/GD32F30x_Demo_Suites_V2.0.0/GD32F30x_Firmware_Library/GD32F30x_standard_peripheral/Source\gd32f30x_exmc.c ****     \param[in]  exmc_norsram_parameter_struct: configure the EXMC NOR/SRAM parameter
 157:C:/Users/49542/Desktop/GD32F30x_Demo_Suites_V2.0.0/GD32F30x_Demo_Suites_V2.0.0/GD32F30x_Firmware_Library/GD32F30x_standard_peripheral/Source\gd32f30x_exmc.c ****                   norsram_region: EXMC_BANK0_NORSRAM_REGIONx,x=0..3
 158:C:/Users/49542/Desktop/GD32F30x_Demo_Suites_V2.0.0/GD32F30x_Demo_Suites_V2.0.0/GD32F30x_Firmware_Library/GD32F30x_standard_peripheral/Source\gd32f30x_exmc.c ****                   write_mode: EXMC_ASYN_WRITE,EXMC_SYN_WRITE
 159:C:/Users/49542/Desktop/GD32F30x_Demo_Suites_V2.0.0/GD32F30x_Demo_Suites_V2.0.0/GD32F30x_Firmware_Library/GD32F30x_standard_peripheral/Source\gd32f30x_exmc.c ****                   extended_mode: ENABLE or DISABLE 
 160:C:/Users/49542/Desktop/GD32F30x_Demo_Suites_V2.0.0/GD32F30x_Demo_Suites_V2.0.0/GD32F30x_Firmware_Library/GD32F30x_standard_peripheral/Source\gd32f30x_exmc.c ****                   asyn_wait: ENABLE or DISABLE
 161:C:/Users/49542/Desktop/GD32F30x_Demo_Suites_V2.0.0/GD32F30x_Demo_Suites_V2.0.0/GD32F30x_Firmware_Library/GD32F30x_standard_peripheral/Source\gd32f30x_exmc.c ****                   nwait_signal: ENABLE or DISABLE
 162:C:/Users/49542/Desktop/GD32F30x_Demo_Suites_V2.0.0/GD32F30x_Demo_Suites_V2.0.0/GD32F30x_Firmware_Library/GD32F30x_standard_peripheral/Source\gd32f30x_exmc.c ****                   memory_write: ENABLE or DISABLE
 163:C:/Users/49542/Desktop/GD32F30x_Demo_Suites_V2.0.0/GD32F30x_Demo_Suites_V2.0.0/GD32F30x_Firmware_Library/GD32F30x_standard_peripheral/Source\gd32f30x_exmc.c ****                   nwait_config: EXMC_NWAIT_CONFIG_BEFORE,EXMC_NWAIT_CONFIG_DURING
 164:C:/Users/49542/Desktop/GD32F30x_Demo_Suites_V2.0.0/GD32F30x_Demo_Suites_V2.0.0/GD32F30x_Firmware_Library/GD32F30x_standard_peripheral/Source\gd32f30x_exmc.c ****                   wrap_burst_mode: ENABLE or DISABLE
 165:C:/Users/49542/Desktop/GD32F30x_Demo_Suites_V2.0.0/GD32F30x_Demo_Suites_V2.0.0/GD32F30x_Firmware_Library/GD32F30x_standard_peripheral/Source\gd32f30x_exmc.c ****                   nwait_polarity: EXMC_NWAIT_POLARITY_LOW,EXMC_NWAIT_POLARITY_HIGH
 166:C:/Users/49542/Desktop/GD32F30x_Demo_Suites_V2.0.0/GD32F30x_Demo_Suites_V2.0.0/GD32F30x_Firmware_Library/GD32F30x_standard_peripheral/Source\gd32f30x_exmc.c ****                   burst_mode: ENABLE or DISABLE
 167:C:/Users/49542/Desktop/GD32F30x_Demo_Suites_V2.0.0/GD32F30x_Demo_Suites_V2.0.0/GD32F30x_Firmware_Library/GD32F30x_standard_peripheral/Source\gd32f30x_exmc.c ****                   databus_width: EXMC_NOR_DATABUS_WIDTH_8B,EXMC_NOR_DATABUS_WIDTH_16B
 168:C:/Users/49542/Desktop/GD32F30x_Demo_Suites_V2.0.0/GD32F30x_Demo_Suites_V2.0.0/GD32F30x_Firmware_Library/GD32F30x_standard_peripheral/Source\gd32f30x_exmc.c ****                   memory_type: EXMC_MEMORY_TYPE_SRAM,EXMC_MEMORY_TYPE_PSRAM,EXMC_MEMORY_TYPE_NOR
 169:C:/Users/49542/Desktop/GD32F30x_Demo_Suites_V2.0.0/GD32F30x_Demo_Suites_V2.0.0/GD32F30x_Firmware_Library/GD32F30x_standard_peripheral/Source\gd32f30x_exmc.c ****                   address_data_mux: ENABLE or DISABLE
 170:C:/Users/49542/Desktop/GD32F30x_Demo_Suites_V2.0.0/GD32F30x_Demo_Suites_V2.0.0/GD32F30x_Firmware_Library/GD32F30x_standard_peripheral/Source\gd32f30x_exmc.c ****                   read_write_timing: struct exmc_norsram_timing_parameter_struct set the time
 171:C:/Users/49542/Desktop/GD32F30x_Demo_Suites_V2.0.0/GD32F30x_Demo_Suites_V2.0.0/GD32F30x_Firmware_Library/GD32F30x_standard_peripheral/Source\gd32f30x_exmc.c ****                   write_timing: struct exmc_norsram_timing_parameter_struct set the time
 172:C:/Users/49542/Desktop/GD32F30x_Demo_Suites_V2.0.0/GD32F30x_Demo_Suites_V2.0.0/GD32F30x_Firmware_Library/GD32F30x_standard_peripheral/Source\gd32f30x_exmc.c ****     \param[out] none
 173:C:/Users/49542/Desktop/GD32F30x_Demo_Suites_V2.0.0/GD32F30x_Demo_Suites_V2.0.0/GD32F30x_Firmware_Library/GD32F30x_standard_peripheral/Source\gd32f30x_exmc.c ****     \retval     none
 174:C:/Users/49542/Desktop/GD32F30x_Demo_Suites_V2.0.0/GD32F30x_Demo_Suites_V2.0.0/GD32F30x_Firmware_Library/GD32F30x_standard_peripheral/Source\gd32f30x_exmc.c **** */
 175:C:/Users/49542/Desktop/GD32F30x_Demo_Suites_V2.0.0/GD32F30x_Demo_Suites_V2.0.0/GD32F30x_Firmware_Library/GD32F30x_standard_peripheral/Source\gd32f30x_exmc.c **** void exmc_norsram_init(exmc_norsram_parameter_struct* exmc_norsram_init_struct)
 176:C:/Users/49542/Desktop/GD32F30x_Demo_Suites_V2.0.0/GD32F30x_Demo_Suites_V2.0.0/GD32F30x_Firmware_Library/GD32F30x_standard_peripheral/Source\gd32f30x_exmc.c **** {
ARM GAS  C:\Users\49542\AppData\Local\Temp\ccCfvzZ4.s 			page 7


 171              		.loc 1 176 0
 172              		.cfi_startproc
 173              		@ args = 0, pretend = 0, frame = 0
 174              		@ frame_needed = 0, uses_anonymous_args = 0
 175              		@ link register save eliminated.
 176              	.LVL2:
 177 0000 F0B4     		push	{r4, r5, r6, r7}
 178              	.LCFI2:
 179              		.cfi_def_cfa_offset 16
 180              		.cfi_offset 4, -16
 181              		.cfi_offset 5, -12
 182              		.cfi_offset 6, -8
 183              		.cfi_offset 7, -4
 184              	.LVL3:
 177:C:/Users/49542/Desktop/GD32F30x_Demo_Suites_V2.0.0/GD32F30x_Demo_Suites_V2.0.0/GD32F30x_Firmware_Library/GD32F30x_standard_peripheral/Source\gd32f30x_exmc.c ****     uint32_t snctl = 0x00000000U,sntcfg = 0x00000000U,snwtcfg = 0x00000000U;
 178:C:/Users/49542/Desktop/GD32F30x_Demo_Suites_V2.0.0/GD32F30x_Demo_Suites_V2.0.0/GD32F30x_Firmware_Library/GD32F30x_standard_peripheral/Source\gd32f30x_exmc.c **** 
 179:C:/Users/49542/Desktop/GD32F30x_Demo_Suites_V2.0.0/GD32F30x_Demo_Suites_V2.0.0/GD32F30x_Firmware_Library/GD32F30x_standard_peripheral/Source\gd32f30x_exmc.c ****     /* get the register value */
 180:C:/Users/49542/Desktop/GD32F30x_Demo_Suites_V2.0.0/GD32F30x_Demo_Suites_V2.0.0/GD32F30x_Firmware_Library/GD32F30x_standard_peripheral/Source\gd32f30x_exmc.c ****     snctl = EXMC_SNCTL(exmc_norsram_init_struct->norsram_region);
 185              		.loc 1 180 0
 186 0002 0168     		ldr	r1, [r0]
 187 0004 01F1A051 		add	r1, r1, #335544320
 188 0008 C900     		lsls	r1, r1, #3
 189 000a 0B68     		ldr	r3, [r1]
 190              	.LVL4:
 181:C:/Users/49542/Desktop/GD32F30x_Demo_Suites_V2.0.0/GD32F30x_Demo_Suites_V2.0.0/GD32F30x_Firmware_Library/GD32F30x_standard_peripheral/Source\gd32f30x_exmc.c **** 
 182:C:/Users/49542/Desktop/GD32F30x_Demo_Suites_V2.0.0/GD32F30x_Demo_Suites_V2.0.0/GD32F30x_Firmware_Library/GD32F30x_standard_peripheral/Source\gd32f30x_exmc.c ****     /* clear relative bits */
 183:C:/Users/49542/Desktop/GD32F30x_Demo_Suites_V2.0.0/GD32F30x_Demo_Suites_V2.0.0/GD32F30x_Firmware_Library/GD32F30x_standard_peripheral/Source\gd32f30x_exmc.c ****     snctl &= ((uint32_t)~(EXMC_SNCTL_NRMUX | EXMC_SNCTL_NRTP | EXMC_SNCTL_NRW | EXMC_SNCTL_SBRSTEN 
 191              		.loc 1 183 0
 192 000c 354D     		ldr	r5, .L14
 193 000e 1D40     		ands	r5, r5, r3
 194              	.LVL5:
 184:C:/Users/49542/Desktop/GD32F30x_Demo_Suites_V2.0.0/GD32F30x_Demo_Suites_V2.0.0/GD32F30x_Firmware_Library/GD32F30x_standard_peripheral/Source\gd32f30x_exmc.c ****                           EXMC_SNCTL_NREN | EXMC_SNCTL_NRWTPOL | EXMC_SNCTL_WRAPEN | EXMC_SNCTL_NRW
 185:C:/Users/49542/Desktop/GD32F30x_Demo_Suites_V2.0.0/GD32F30x_Demo_Suites_V2.0.0/GD32F30x_Firmware_Library/GD32F30x_standard_peripheral/Source\gd32f30x_exmc.c ****                           EXMC_SNCTL_WREN | EXMC_SNCTL_NRWTEN | EXMC_SNCTL_EXMODEN | EXMC_SNCTL_ASY
 186:C:/Users/49542/Desktop/GD32F30x_Demo_Suites_V2.0.0/GD32F30x_Demo_Suites_V2.0.0/GD32F30x_Firmware_Library/GD32F30x_standard_peripheral/Source\gd32f30x_exmc.c ****                           EXMC_SNCTL_SYNCWR ));
 187:C:/Users/49542/Desktop/GD32F30x_Demo_Suites_V2.0.0/GD32F30x_Demo_Suites_V2.0.0/GD32F30x_Firmware_Library/GD32F30x_standard_peripheral/Source\gd32f30x_exmc.c **** 
 188:C:/Users/49542/Desktop/GD32F30x_Demo_Suites_V2.0.0/GD32F30x_Demo_Suites_V2.0.0/GD32F30x_Firmware_Library/GD32F30x_standard_peripheral/Source\gd32f30x_exmc.c ****     snctl |= (uint32_t)(exmc_norsram_init_struct->address_data_mux << SNCTL_NRMUX_OFFSET) |
 195              		.loc 1 188 0
 196 0010 026B     		ldr	r2, [r0, #48]
 189:C:/Users/49542/Desktop/GD32F30x_Demo_Suites_V2.0.0/GD32F30x_Demo_Suites_V2.0.0/GD32F30x_Firmware_Library/GD32F30x_standard_peripheral/Source\gd32f30x_exmc.c ****                         exmc_norsram_init_struct->memory_type |
 197              		.loc 1 189 0
 198 0012 C46A     		ldr	r4, [r0, #44]
 188:C:/Users/49542/Desktop/GD32F30x_Demo_Suites_V2.0.0/GD32F30x_Demo_Suites_V2.0.0/GD32F30x_Firmware_Library/GD32F30x_standard_peripheral/Source\gd32f30x_exmc.c ****                         exmc_norsram_init_struct->memory_type |
 199              		.loc 1 188 0
 200 0014 44EA4203 		orr	r3, r4, r2, lsl #1
 190:C:/Users/49542/Desktop/GD32F30x_Demo_Suites_V2.0.0/GD32F30x_Demo_Suites_V2.0.0/GD32F30x_Firmware_Library/GD32F30x_standard_peripheral/Source\gd32f30x_exmc.c ****                         exmc_norsram_init_struct->databus_width |
 201              		.loc 1 190 0
 202 0018 826A     		ldr	r2, [r0, #40]
 189:C:/Users/49542/Desktop/GD32F30x_Demo_Suites_V2.0.0/GD32F30x_Demo_Suites_V2.0.0/GD32F30x_Firmware_Library/GD32F30x_standard_peripheral/Source\gd32f30x_exmc.c ****                         exmc_norsram_init_struct->memory_type |
 203              		.loc 1 189 0
 204 001a 1343     		orrs	r3, r3, r2
 191:C:/Users/49542/Desktop/GD32F30x_Demo_Suites_V2.0.0/GD32F30x_Demo_Suites_V2.0.0/GD32F30x_Firmware_Library/GD32F30x_standard_peripheral/Source\gd32f30x_exmc.c ****                        (exmc_norsram_init_struct->burst_mode << SNCTL_SBRSTEN_OFFSET) |
 205              		.loc 1 191 0
 206 001c 426A     		ldr	r2, [r0, #36]
 190:C:/Users/49542/Desktop/GD32F30x_Demo_Suites_V2.0.0/GD32F30x_Demo_Suites_V2.0.0/GD32F30x_Firmware_Library/GD32F30x_standard_peripheral/Source\gd32f30x_exmc.c ****                         exmc_norsram_init_struct->databus_width |
 207              		.loc 1 190 0
 208 001e 43EA0223 		orr	r3, r3, r2, lsl #8
 192:C:/Users/49542/Desktop/GD32F30x_Demo_Suites_V2.0.0/GD32F30x_Demo_Suites_V2.0.0/GD32F30x_Firmware_Library/GD32F30x_standard_peripheral/Source\gd32f30x_exmc.c ****                         exmc_norsram_init_struct->nwait_polarity |
ARM GAS  C:\Users\49542\AppData\Local\Temp\ccCfvzZ4.s 			page 8


 209              		.loc 1 192 0
 210 0022 026A     		ldr	r2, [r0, #32]
 191:C:/Users/49542/Desktop/GD32F30x_Demo_Suites_V2.0.0/GD32F30x_Demo_Suites_V2.0.0/GD32F30x_Firmware_Library/GD32F30x_standard_peripheral/Source\gd32f30x_exmc.c ****                        (exmc_norsram_init_struct->burst_mode << SNCTL_SBRSTEN_OFFSET) |
 211              		.loc 1 191 0
 212 0024 1343     		orrs	r3, r3, r2
 193:C:/Users/49542/Desktop/GD32F30x_Demo_Suites_V2.0.0/GD32F30x_Demo_Suites_V2.0.0/GD32F30x_Firmware_Library/GD32F30x_standard_peripheral/Source\gd32f30x_exmc.c ****                        (exmc_norsram_init_struct->wrap_burst_mode << SNCTL_WRAPEN_OFFSET) |
 213              		.loc 1 193 0
 214 0026 C269     		ldr	r2, [r0, #28]
 192:C:/Users/49542/Desktop/GD32F30x_Demo_Suites_V2.0.0/GD32F30x_Demo_Suites_V2.0.0/GD32F30x_Firmware_Library/GD32F30x_standard_peripheral/Source\gd32f30x_exmc.c ****                         exmc_norsram_init_struct->nwait_polarity |
 215              		.loc 1 192 0
 216 0028 43EA8223 		orr	r3, r3, r2, lsl #10
 194:C:/Users/49542/Desktop/GD32F30x_Demo_Suites_V2.0.0/GD32F30x_Demo_Suites_V2.0.0/GD32F30x_Firmware_Library/GD32F30x_standard_peripheral/Source\gd32f30x_exmc.c ****                         exmc_norsram_init_struct->nwait_config |
 217              		.loc 1 194 0
 218 002c 8269     		ldr	r2, [r0, #24]
 193:C:/Users/49542/Desktop/GD32F30x_Demo_Suites_V2.0.0/GD32F30x_Demo_Suites_V2.0.0/GD32F30x_Firmware_Library/GD32F30x_standard_peripheral/Source\gd32f30x_exmc.c ****                        (exmc_norsram_init_struct->wrap_burst_mode << SNCTL_WRAPEN_OFFSET) |
 219              		.loc 1 193 0
 220 002e 1343     		orrs	r3, r3, r2
 195:C:/Users/49542/Desktop/GD32F30x_Demo_Suites_V2.0.0/GD32F30x_Demo_Suites_V2.0.0/GD32F30x_Firmware_Library/GD32F30x_standard_peripheral/Source\gd32f30x_exmc.c ****                        (exmc_norsram_init_struct->memory_write << SNCTL_WREN_OFFSET) |
 221              		.loc 1 195 0
 222 0030 4269     		ldr	r2, [r0, #20]
 194:C:/Users/49542/Desktop/GD32F30x_Demo_Suites_V2.0.0/GD32F30x_Demo_Suites_V2.0.0/GD32F30x_Firmware_Library/GD32F30x_standard_peripheral/Source\gd32f30x_exmc.c ****                         exmc_norsram_init_struct->nwait_config |
 223              		.loc 1 194 0
 224 0032 43EA0233 		orr	r3, r3, r2, lsl #12
 196:C:/Users/49542/Desktop/GD32F30x_Demo_Suites_V2.0.0/GD32F30x_Demo_Suites_V2.0.0/GD32F30x_Firmware_Library/GD32F30x_standard_peripheral/Source\gd32f30x_exmc.c ****                        (exmc_norsram_init_struct->nwait_signal << SNCTL_NRWTEN_OFFSET) |
 225              		.loc 1 196 0
 226 0036 0269     		ldr	r2, [r0, #16]
 195:C:/Users/49542/Desktop/GD32F30x_Demo_Suites_V2.0.0/GD32F30x_Demo_Suites_V2.0.0/GD32F30x_Firmware_Library/GD32F30x_standard_peripheral/Source\gd32f30x_exmc.c ****                        (exmc_norsram_init_struct->memory_write << SNCTL_WREN_OFFSET) |
 227              		.loc 1 195 0
 228 0038 43EA4233 		orr	r3, r3, r2, lsl #13
 197:C:/Users/49542/Desktop/GD32F30x_Demo_Suites_V2.0.0/GD32F30x_Demo_Suites_V2.0.0/GD32F30x_Firmware_Library/GD32F30x_standard_peripheral/Source\gd32f30x_exmc.c ****                        (exmc_norsram_init_struct->extended_mode << SNCTL_EXMODEN_OFFSET) |
 229              		.loc 1 197 0
 230 003c 8668     		ldr	r6, [r0, #8]
 196:C:/Users/49542/Desktop/GD32F30x_Demo_Suites_V2.0.0/GD32F30x_Demo_Suites_V2.0.0/GD32F30x_Firmware_Library/GD32F30x_standard_peripheral/Source\gd32f30x_exmc.c ****                        (exmc_norsram_init_struct->nwait_signal << SNCTL_NRWTEN_OFFSET) |
 231              		.loc 1 196 0
 232 003e 43EA8633 		orr	r3, r3, r6, lsl #14
 198:C:/Users/49542/Desktop/GD32F30x_Demo_Suites_V2.0.0/GD32F30x_Demo_Suites_V2.0.0/GD32F30x_Firmware_Library/GD32F30x_standard_peripheral/Source\gd32f30x_exmc.c ****                        (exmc_norsram_init_struct->asyn_wait << SNCTL_ASYNCWAIT_OFFSET) |
 233              		.loc 1 198 0
 234 0042 C268     		ldr	r2, [r0, #12]
 197:C:/Users/49542/Desktop/GD32F30x_Demo_Suites_V2.0.0/GD32F30x_Demo_Suites_V2.0.0/GD32F30x_Firmware_Library/GD32F30x_standard_peripheral/Source\gd32f30x_exmc.c ****                        (exmc_norsram_init_struct->extended_mode << SNCTL_EXMODEN_OFFSET) |
 235              		.loc 1 197 0
 236 0044 43EAC233 		orr	r3, r3, r2, lsl #15
 199:C:/Users/49542/Desktop/GD32F30x_Demo_Suites_V2.0.0/GD32F30x_Demo_Suites_V2.0.0/GD32F30x_Firmware_Library/GD32F30x_standard_peripheral/Source\gd32f30x_exmc.c ****                         exmc_norsram_init_struct->write_mode;
 237              		.loc 1 199 0
 238 0048 4268     		ldr	r2, [r0, #4]
 198:C:/Users/49542/Desktop/GD32F30x_Demo_Suites_V2.0.0/GD32F30x_Demo_Suites_V2.0.0/GD32F30x_Firmware_Library/GD32F30x_standard_peripheral/Source\gd32f30x_exmc.c ****                        (exmc_norsram_init_struct->asyn_wait << SNCTL_ASYNCWAIT_OFFSET) |
 239              		.loc 1 198 0
 240 004a 1343     		orrs	r3, r3, r2
 188:C:/Users/49542/Desktop/GD32F30x_Demo_Suites_V2.0.0/GD32F30x_Demo_Suites_V2.0.0/GD32F30x_Firmware_Library/GD32F30x_standard_peripheral/Source\gd32f30x_exmc.c ****                         exmc_norsram_init_struct->memory_type |
 241              		.loc 1 188 0
 242 004c 2B43     		orrs	r3, r3, r5
 243              	.LVL6:
 200:C:/Users/49542/Desktop/GD32F30x_Demo_Suites_V2.0.0/GD32F30x_Demo_Suites_V2.0.0/GD32F30x_Firmware_Library/GD32F30x_standard_peripheral/Source\gd32f30x_exmc.c **** 
 201:C:/Users/49542/Desktop/GD32F30x_Demo_Suites_V2.0.0/GD32F30x_Demo_Suites_V2.0.0/GD32F30x_Firmware_Library/GD32F30x_standard_peripheral/Source\gd32f30x_exmc.c ****     sntcfg = (uint32_t)((exmc_norsram_init_struct->read_write_timing->asyn_address_setuptime - 1U )
 244              		.loc 1 201 0
 245 004e 456B     		ldr	r5, [r0, #52]
 246 0050 AA69     		ldr	r2, [r5, #24]
 247 0052 013A     		subs	r2, r2, #1
ARM GAS  C:\Users\49542\AppData\Local\Temp\ccCfvzZ4.s 			page 9


 248 0054 02F00F02 		and	r2, r2, #15
 202:C:/Users/49542/Desktop/GD32F30x_Demo_Suites_V2.0.0/GD32F30x_Demo_Suites_V2.0.0/GD32F30x_Firmware_Library/GD32F30x_standard_peripheral/Source\gd32f30x_exmc.c ****                        (((exmc_norsram_init_struct->read_write_timing->asyn_address_holdtime - 1U )
 249              		.loc 1 202 0
 250 0058 6F69     		ldr	r7, [r5, #20]
 251 005a 013F     		subs	r7, r7, #1
 252 005c 3F01     		lsls	r7, r7, #4
 253 005e FFB2     		uxtb	r7, r7
 201:C:/Users/49542/Desktop/GD32F30x_Demo_Suites_V2.0.0/GD32F30x_Demo_Suites_V2.0.0/GD32F30x_Firmware_Library/GD32F30x_standard_peripheral/Source\gd32f30x_exmc.c ****                        (((exmc_norsram_init_struct->read_write_timing->asyn_address_holdtime - 1U )
 254              		.loc 1 201 0
 255 0060 3A43     		orrs	r2, r2, r7
 203:C:/Users/49542/Desktop/GD32F30x_Demo_Suites_V2.0.0/GD32F30x_Demo_Suites_V2.0.0/GD32F30x_Firmware_Library/GD32F30x_standard_peripheral/Source\gd32f30x_exmc.c ****                        (((exmc_norsram_init_struct->read_write_timing->asyn_data_setuptime - 1U ) <
 256              		.loc 1 203 0
 257 0062 2F69     		ldr	r7, [r5, #16]
 258 0064 013F     		subs	r7, r7, #1
 259 0066 3F02     		lsls	r7, r7, #8
 260 0068 BFB2     		uxth	r7, r7
 202:C:/Users/49542/Desktop/GD32F30x_Demo_Suites_V2.0.0/GD32F30x_Demo_Suites_V2.0.0/GD32F30x_Firmware_Library/GD32F30x_standard_peripheral/Source\gd32f30x_exmc.c ****                        (((exmc_norsram_init_struct->read_write_timing->asyn_address_holdtime - 1U )
 261              		.loc 1 202 0
 262 006a 3A43     		orrs	r2, r2, r7
 204:C:/Users/49542/Desktop/GD32F30x_Demo_Suites_V2.0.0/GD32F30x_Demo_Suites_V2.0.0/GD32F30x_Firmware_Library/GD32F30x_standard_peripheral/Source\gd32f30x_exmc.c ****                        (((exmc_norsram_init_struct->read_write_timing->bus_latency - 1U ) << SNTCFG
 263              		.loc 1 204 0
 264 006c EF68     		ldr	r7, [r5, #12]
 265 006e 013F     		subs	r7, r7, #1
 266 0070 3F04     		lsls	r7, r7, #16
 267 0072 07F47027 		and	r7, r7, #983040
 203:C:/Users/49542/Desktop/GD32F30x_Demo_Suites_V2.0.0/GD32F30x_Demo_Suites_V2.0.0/GD32F30x_Firmware_Library/GD32F30x_standard_peripheral/Source\gd32f30x_exmc.c ****                        (((exmc_norsram_init_struct->read_write_timing->asyn_data_setuptime - 1U ) <
 268              		.loc 1 203 0
 269 0076 3A43     		orrs	r2, r2, r7
 205:C:/Users/49542/Desktop/GD32F30x_Demo_Suites_V2.0.0/GD32F30x_Demo_Suites_V2.0.0/GD32F30x_Firmware_Library/GD32F30x_standard_peripheral/Source\gd32f30x_exmc.c ****                        exmc_norsram_init_struct->read_write_timing->syn_clk_division |
 270              		.loc 1 205 0
 271 0078 AF68     		ldr	r7, [r5, #8]
 204:C:/Users/49542/Desktop/GD32F30x_Demo_Suites_V2.0.0/GD32F30x_Demo_Suites_V2.0.0/GD32F30x_Firmware_Library/GD32F30x_standard_peripheral/Source\gd32f30x_exmc.c ****                        (((exmc_norsram_init_struct->read_write_timing->bus_latency - 1U ) << SNTCFG
 272              		.loc 1 204 0
 273 007a 3A43     		orrs	r2, r2, r7
 206:C:/Users/49542/Desktop/GD32F30x_Demo_Suites_V2.0.0/GD32F30x_Demo_Suites_V2.0.0/GD32F30x_Firmware_Library/GD32F30x_standard_peripheral/Source\gd32f30x_exmc.c ****                        exmc_norsram_init_struct->read_write_timing->syn_data_latency |
 274              		.loc 1 206 0
 275 007c 6F68     		ldr	r7, [r5, #4]
 205:C:/Users/49542/Desktop/GD32F30x_Demo_Suites_V2.0.0/GD32F30x_Demo_Suites_V2.0.0/GD32F30x_Firmware_Library/GD32F30x_standard_peripheral/Source\gd32f30x_exmc.c ****                        exmc_norsram_init_struct->read_write_timing->syn_clk_division |
 276              		.loc 1 205 0
 277 007e 3A43     		orrs	r2, r2, r7
 207:C:/Users/49542/Desktop/GD32F30x_Demo_Suites_V2.0.0/GD32F30x_Demo_Suites_V2.0.0/GD32F30x_Firmware_Library/GD32F30x_standard_peripheral/Source\gd32f30x_exmc.c ****                        exmc_norsram_init_struct->read_write_timing->asyn_access_mode;
 278              		.loc 1 207 0
 279 0080 2D68     		ldr	r5, [r5]
 201:C:/Users/49542/Desktop/GD32F30x_Demo_Suites_V2.0.0/GD32F30x_Demo_Suites_V2.0.0/GD32F30x_Firmware_Library/GD32F30x_standard_peripheral/Source\gd32f30x_exmc.c ****                        (((exmc_norsram_init_struct->read_write_timing->asyn_address_holdtime - 1U )
 280              		.loc 1 201 0
 281 0082 2A43     		orrs	r2, r2, r5
 282              	.LVL7:
 208:C:/Users/49542/Desktop/GD32F30x_Demo_Suites_V2.0.0/GD32F30x_Demo_Suites_V2.0.0/GD32F30x_Firmware_Library/GD32F30x_standard_peripheral/Source\gd32f30x_exmc.c **** 
 209:C:/Users/49542/Desktop/GD32F30x_Demo_Suites_V2.0.0/GD32F30x_Demo_Suites_V2.0.0/GD32F30x_Firmware_Library/GD32F30x_standard_peripheral/Source\gd32f30x_exmc.c ****     /* nor flash access enable */
 210:C:/Users/49542/Desktop/GD32F30x_Demo_Suites_V2.0.0/GD32F30x_Demo_Suites_V2.0.0/GD32F30x_Firmware_Library/GD32F30x_standard_peripheral/Source\gd32f30x_exmc.c ****     if(EXMC_MEMORY_TYPE_NOR == exmc_norsram_init_struct->memory_type){
 283              		.loc 1 210 0
 284 0084 082C     		cmp	r4, #8
 285 0086 11D0     		beq	.L12
 286              	.L8:
 211:C:/Users/49542/Desktop/GD32F30x_Demo_Suites_V2.0.0/GD32F30x_Demo_Suites_V2.0.0/GD32F30x_Firmware_Library/GD32F30x_standard_peripheral/Source\gd32f30x_exmc.c ****         snctl |= (uint32_t)EXMC_SNCTL_NREN;
 212:C:/Users/49542/Desktop/GD32F30x_Demo_Suites_V2.0.0/GD32F30x_Demo_Suites_V2.0.0/GD32F30x_Firmware_Library/GD32F30x_standard_peripheral/Source\gd32f30x_exmc.c ****     }
 213:C:/Users/49542/Desktop/GD32F30x_Demo_Suites_V2.0.0/GD32F30x_Demo_Suites_V2.0.0/GD32F30x_Firmware_Library/GD32F30x_standard_peripheral/Source\gd32f30x_exmc.c **** 
ARM GAS  C:\Users\49542\AppData\Local\Temp\ccCfvzZ4.s 			page 10


 214:C:/Users/49542/Desktop/GD32F30x_Demo_Suites_V2.0.0/GD32F30x_Demo_Suites_V2.0.0/GD32F30x_Firmware_Library/GD32F30x_standard_peripheral/Source\gd32f30x_exmc.c ****     /* extended mode configure */
 215:C:/Users/49542/Desktop/GD32F30x_Demo_Suites_V2.0.0/GD32F30x_Demo_Suites_V2.0.0/GD32F30x_Firmware_Library/GD32F30x_standard_peripheral/Source\gd32f30x_exmc.c ****     if(ENABLE == exmc_norsram_init_struct->extended_mode){
 287              		.loc 1 215 0
 288 0088 012E     		cmp	r6, #1
 289 008a 12D0     		beq	.L13
 216:C:/Users/49542/Desktop/GD32F30x_Demo_Suites_V2.0.0/GD32F30x_Demo_Suites_V2.0.0/GD32F30x_Firmware_Library/GD32F30x_standard_peripheral/Source\gd32f30x_exmc.c ****         snwtcfg = (uint32_t)((exmc_norsram_init_struct->write_timing->asyn_address_setuptime - 1U) 
 217:C:/Users/49542/Desktop/GD32F30x_Demo_Suites_V2.0.0/GD32F30x_Demo_Suites_V2.0.0/GD32F30x_Firmware_Library/GD32F30x_standard_peripheral/Source\gd32f30x_exmc.c ****                            (((exmc_norsram_init_struct->write_timing->asyn_address_holdtime -1U ) <
 218:C:/Users/49542/Desktop/GD32F30x_Demo_Suites_V2.0.0/GD32F30x_Demo_Suites_V2.0.0/GD32F30x_Firmware_Library/GD32F30x_standard_peripheral/Source\gd32f30x_exmc.c ****                            (((exmc_norsram_init_struct->write_timing->asyn_data_setuptime -1U ) << 
 219:C:/Users/49542/Desktop/GD32F30x_Demo_Suites_V2.0.0/GD32F30x_Demo_Suites_V2.0.0/GD32F30x_Firmware_Library/GD32F30x_standard_peripheral/Source\gd32f30x_exmc.c ****                            (((exmc_norsram_init_struct->write_timing->bus_latency - 1U ) << SNWTCFG
 220:C:/Users/49542/Desktop/GD32F30x_Demo_Suites_V2.0.0/GD32F30x_Demo_Suites_V2.0.0/GD32F30x_Firmware_Library/GD32F30x_standard_peripheral/Source\gd32f30x_exmc.c ****                             exmc_norsram_init_struct->write_timing->asyn_access_mode;
 221:C:/Users/49542/Desktop/GD32F30x_Demo_Suites_V2.0.0/GD32F30x_Demo_Suites_V2.0.0/GD32F30x_Firmware_Library/GD32F30x_standard_peripheral/Source\gd32f30x_exmc.c ****     }else{
 222:C:/Users/49542/Desktop/GD32F30x_Demo_Suites_V2.0.0/GD32F30x_Demo_Suites_V2.0.0/GD32F30x_Firmware_Library/GD32F30x_standard_peripheral/Source\gd32f30x_exmc.c ****         snwtcfg = BANK0_SNWTCFG_RESET;
 290              		.loc 1 222 0
 291 008c 6FF07044 		mvn	r4, #-268435456
 292              	.LVL8:
 293              	.L9:
 223:C:/Users/49542/Desktop/GD32F30x_Demo_Suites_V2.0.0/GD32F30x_Demo_Suites_V2.0.0/GD32F30x_Firmware_Library/GD32F30x_standard_peripheral/Source\gd32f30x_exmc.c ****     }
 224:C:/Users/49542/Desktop/GD32F30x_Demo_Suites_V2.0.0/GD32F30x_Demo_Suites_V2.0.0/GD32F30x_Firmware_Library/GD32F30x_standard_peripheral/Source\gd32f30x_exmc.c **** 
 225:C:/Users/49542/Desktop/GD32F30x_Demo_Suites_V2.0.0/GD32F30x_Demo_Suites_V2.0.0/GD32F30x_Firmware_Library/GD32F30x_standard_peripheral/Source\gd32f30x_exmc.c ****     /* configure the registers */
 226:C:/Users/49542/Desktop/GD32F30x_Demo_Suites_V2.0.0/GD32F30x_Demo_Suites_V2.0.0/GD32F30x_Firmware_Library/GD32F30x_standard_peripheral/Source\gd32f30x_exmc.c ****     EXMC_SNCTL(exmc_norsram_init_struct->norsram_region) = snctl;
 294              		.loc 1 226 0
 295 0090 0B60     		str	r3, [r1]
 227:C:/Users/49542/Desktop/GD32F30x_Demo_Suites_V2.0.0/GD32F30x_Demo_Suites_V2.0.0/GD32F30x_Firmware_Library/GD32F30x_standard_peripheral/Source\gd32f30x_exmc.c ****     EXMC_SNTCFG(exmc_norsram_init_struct->norsram_region) = sntcfg;
 296              		.loc 1 227 0
 297 0092 0368     		ldr	r3, [r0]
 298              	.LVL9:
 299 0094 DB00     		lsls	r3, r3, #3
 300 0096 03F12043 		add	r3, r3, #-1610612736
 301 009a 5A60     		str	r2, [r3, #4]
 302              	.LVL10:
 228:C:/Users/49542/Desktop/GD32F30x_Demo_Suites_V2.0.0/GD32F30x_Demo_Suites_V2.0.0/GD32F30x_Firmware_Library/GD32F30x_standard_peripheral/Source\gd32f30x_exmc.c ****     EXMC_SNWTCFG(exmc_norsram_init_struct->norsram_region) = snwtcfg;
 303              		.loc 1 228 0
 304 009c 0368     		ldr	r3, [r0]
 305 009e DB00     		lsls	r3, r3, #3
 306 00a0 03F12043 		add	r3, r3, #-1610612736
 307 00a4 C3F80441 		str	r4, [r3, #260]
 229:C:/Users/49542/Desktop/GD32F30x_Demo_Suites_V2.0.0/GD32F30x_Demo_Suites_V2.0.0/GD32F30x_Firmware_Library/GD32F30x_standard_peripheral/Source\gd32f30x_exmc.c **** }
 308              		.loc 1 229 0
 309 00a8 F0BC     		pop	{r4, r5, r6, r7}
 310              	.LCFI3:
 311              		.cfi_remember_state
 312              		.cfi_restore 7
 313              		.cfi_restore 6
 314              		.cfi_restore 5
 315              		.cfi_restore 4
 316              		.cfi_def_cfa_offset 0
 317              	.LVL11:
 318 00aa 7047     		bx	lr
 319              	.LVL12:
 320              	.L12:
 321              	.LCFI4:
 322              		.cfi_restore_state
 211:C:/Users/49542/Desktop/GD32F30x_Demo_Suites_V2.0.0/GD32F30x_Demo_Suites_V2.0.0/GD32F30x_Firmware_Library/GD32F30x_standard_peripheral/Source\gd32f30x_exmc.c ****     }
 323              		.loc 1 211 0
 324 00ac 43F04003 		orr	r3, r3, #64
 325              	.LVL13:
 326 00b0 EAE7     		b	.L8
ARM GAS  C:\Users\49542\AppData\Local\Temp\ccCfvzZ4.s 			page 11


 327              	.L13:
 216:C:/Users/49542/Desktop/GD32F30x_Demo_Suites_V2.0.0/GD32F30x_Demo_Suites_V2.0.0/GD32F30x_Firmware_Library/GD32F30x_standard_peripheral/Source\gd32f30x_exmc.c ****                            (((exmc_norsram_init_struct->write_timing->asyn_address_holdtime -1U ) <
 328              		.loc 1 216 0
 329 00b2 866B     		ldr	r6, [r0, #56]
 330 00b4 B469     		ldr	r4, [r6, #24]
 331 00b6 013C     		subs	r4, r4, #1
 332 00b8 04F00F04 		and	r4, r4, #15
 217:C:/Users/49542/Desktop/GD32F30x_Demo_Suites_V2.0.0/GD32F30x_Demo_Suites_V2.0.0/GD32F30x_Firmware_Library/GD32F30x_standard_peripheral/Source\gd32f30x_exmc.c ****                            (((exmc_norsram_init_struct->write_timing->asyn_data_setuptime -1U ) << 
 333              		.loc 1 217 0
 334 00bc 7569     		ldr	r5, [r6, #20]
 335 00be 013D     		subs	r5, r5, #1
 336 00c0 2D01     		lsls	r5, r5, #4
 337 00c2 EDB2     		uxtb	r5, r5
 216:C:/Users/49542/Desktop/GD32F30x_Demo_Suites_V2.0.0/GD32F30x_Demo_Suites_V2.0.0/GD32F30x_Firmware_Library/GD32F30x_standard_peripheral/Source\gd32f30x_exmc.c ****                            (((exmc_norsram_init_struct->write_timing->asyn_address_holdtime -1U ) <
 338              		.loc 1 216 0
 339 00c4 2C43     		orrs	r4, r4, r5
 218:C:/Users/49542/Desktop/GD32F30x_Demo_Suites_V2.0.0/GD32F30x_Demo_Suites_V2.0.0/GD32F30x_Firmware_Library/GD32F30x_standard_peripheral/Source\gd32f30x_exmc.c ****                            (((exmc_norsram_init_struct->write_timing->bus_latency - 1U ) << SNWTCFG
 340              		.loc 1 218 0
 341 00c6 3569     		ldr	r5, [r6, #16]
 342 00c8 013D     		subs	r5, r5, #1
 343 00ca 2D02     		lsls	r5, r5, #8
 344 00cc ADB2     		uxth	r5, r5
 217:C:/Users/49542/Desktop/GD32F30x_Demo_Suites_V2.0.0/GD32F30x_Demo_Suites_V2.0.0/GD32F30x_Firmware_Library/GD32F30x_standard_peripheral/Source\gd32f30x_exmc.c ****                            (((exmc_norsram_init_struct->write_timing->asyn_data_setuptime -1U ) << 
 345              		.loc 1 217 0
 346 00ce 2C43     		orrs	r4, r4, r5
 219:C:/Users/49542/Desktop/GD32F30x_Demo_Suites_V2.0.0/GD32F30x_Demo_Suites_V2.0.0/GD32F30x_Firmware_Library/GD32F30x_standard_peripheral/Source\gd32f30x_exmc.c ****                             exmc_norsram_init_struct->write_timing->asyn_access_mode;
 347              		.loc 1 219 0
 348 00d0 F568     		ldr	r5, [r6, #12]
 349 00d2 013D     		subs	r5, r5, #1
 350 00d4 2D04     		lsls	r5, r5, #16
 351 00d6 05F47025 		and	r5, r5, #983040
 218:C:/Users/49542/Desktop/GD32F30x_Demo_Suites_V2.0.0/GD32F30x_Demo_Suites_V2.0.0/GD32F30x_Firmware_Library/GD32F30x_standard_peripheral/Source\gd32f30x_exmc.c ****                            (((exmc_norsram_init_struct->write_timing->bus_latency - 1U ) << SNWTCFG
 352              		.loc 1 218 0
 353 00da 2C43     		orrs	r4, r4, r5
 220:C:/Users/49542/Desktop/GD32F30x_Demo_Suites_V2.0.0/GD32F30x_Demo_Suites_V2.0.0/GD32F30x_Firmware_Library/GD32F30x_standard_peripheral/Source\gd32f30x_exmc.c ****     }else{
 354              		.loc 1 220 0
 355 00dc 3568     		ldr	r5, [r6]
 216:C:/Users/49542/Desktop/GD32F30x_Demo_Suites_V2.0.0/GD32F30x_Demo_Suites_V2.0.0/GD32F30x_Firmware_Library/GD32F30x_standard_peripheral/Source\gd32f30x_exmc.c ****                            (((exmc_norsram_init_struct->write_timing->asyn_address_holdtime -1U ) <
 356              		.loc 1 216 0
 357 00de 2C43     		orrs	r4, r4, r5
 358              	.LVL14:
 359 00e0 D6E7     		b	.L9
 360              	.L15:
 361 00e2 00BF     		.align	2
 362              	.L14:
 363 00e4 8100F7FF 		.word	-589695
 364              		.cfi_endproc
 365              	.LFE118:
 367              		.section	.text.exmc_norsram_enable,"ax",%progbits
 368              		.align	1
 369              		.global	exmc_norsram_enable
 370              		.syntax unified
 371              		.thumb
 372              		.thumb_func
 373              		.fpu fpv4-sp-d16
 375              	exmc_norsram_enable:
 376              	.LFB119:
ARM GAS  C:\Users\49542\AppData\Local\Temp\ccCfvzZ4.s 			page 12


 230:C:/Users/49542/Desktop/GD32F30x_Demo_Suites_V2.0.0/GD32F30x_Demo_Suites_V2.0.0/GD32F30x_Firmware_Library/GD32F30x_standard_peripheral/Source\gd32f30x_exmc.c **** 
 231:C:/Users/49542/Desktop/GD32F30x_Demo_Suites_V2.0.0/GD32F30x_Demo_Suites_V2.0.0/GD32F30x_Firmware_Library/GD32F30x_standard_peripheral/Source\gd32f30x_exmc.c **** /*!
 232:C:/Users/49542/Desktop/GD32F30x_Demo_Suites_V2.0.0/GD32F30x_Demo_Suites_V2.0.0/GD32F30x_Firmware_Library/GD32F30x_standard_peripheral/Source\gd32f30x_exmc.c ****     \brief      enable EXMC NOR/PSRAM bank region
 233:C:/Users/49542/Desktop/GD32F30x_Demo_Suites_V2.0.0/GD32F30x_Demo_Suites_V2.0.0/GD32F30x_Firmware_Library/GD32F30x_standard_peripheral/Source\gd32f30x_exmc.c ****     \param[in]  exmc_norsram_region: specifie the region of NOR/PSRAM bank
 234:C:/Users/49542/Desktop/GD32F30x_Demo_Suites_V2.0.0/GD32F30x_Demo_Suites_V2.0.0/GD32F30x_Firmware_Library/GD32F30x_standard_peripheral/Source\gd32f30x_exmc.c ****                 only one parameter can be selected which is shown as below:
 235:C:/Users/49542/Desktop/GD32F30x_Demo_Suites_V2.0.0/GD32F30x_Demo_Suites_V2.0.0/GD32F30x_Firmware_Library/GD32F30x_standard_peripheral/Source\gd32f30x_exmc.c ****       \arg        EXMC_BANK0_NORSRAM_REGIONx(x=0..3)
 236:C:/Users/49542/Desktop/GD32F30x_Demo_Suites_V2.0.0/GD32F30x_Demo_Suites_V2.0.0/GD32F30x_Firmware_Library/GD32F30x_standard_peripheral/Source\gd32f30x_exmc.c ****     \param[out] none
 237:C:/Users/49542/Desktop/GD32F30x_Demo_Suites_V2.0.0/GD32F30x_Demo_Suites_V2.0.0/GD32F30x_Firmware_Library/GD32F30x_standard_peripheral/Source\gd32f30x_exmc.c ****     \retval     none
 238:C:/Users/49542/Desktop/GD32F30x_Demo_Suites_V2.0.0/GD32F30x_Demo_Suites_V2.0.0/GD32F30x_Firmware_Library/GD32F30x_standard_peripheral/Source\gd32f30x_exmc.c **** */
 239:C:/Users/49542/Desktop/GD32F30x_Demo_Suites_V2.0.0/GD32F30x_Demo_Suites_V2.0.0/GD32F30x_Firmware_Library/GD32F30x_standard_peripheral/Source\gd32f30x_exmc.c **** void exmc_norsram_enable(uint32_t exmc_norsram_region)
 240:C:/Users/49542/Desktop/GD32F30x_Demo_Suites_V2.0.0/GD32F30x_Demo_Suites_V2.0.0/GD32F30x_Firmware_Library/GD32F30x_standard_peripheral/Source\gd32f30x_exmc.c **** {
 377              		.loc 1 240 0
 378              		.cfi_startproc
 379              		@ args = 0, pretend = 0, frame = 0
 380              		@ frame_needed = 0, uses_anonymous_args = 0
 381              		@ link register save eliminated.
 382              	.LVL15:
 241:C:/Users/49542/Desktop/GD32F30x_Demo_Suites_V2.0.0/GD32F30x_Demo_Suites_V2.0.0/GD32F30x_Firmware_Library/GD32F30x_standard_peripheral/Source\gd32f30x_exmc.c ****     EXMC_SNCTL(exmc_norsram_region) |= (uint32_t)EXMC_SNCTL_NRBKEN;
 383              		.loc 1 241 0
 384 0000 00F1A050 		add	r0, r0, #335544320
 385              	.LVL16:
 386 0004 C000     		lsls	r0, r0, #3
 387              	.LVL17:
 388 0006 0368     		ldr	r3, [r0]
 389 0008 43F00103 		orr	r3, r3, #1
 390 000c 0360     		str	r3, [r0]
 242:C:/Users/49542/Desktop/GD32F30x_Demo_Suites_V2.0.0/GD32F30x_Demo_Suites_V2.0.0/GD32F30x_Firmware_Library/GD32F30x_standard_peripheral/Source\gd32f30x_exmc.c **** }
 391              		.loc 1 242 0
 392 000e 7047     		bx	lr
 393              		.cfi_endproc
 394              	.LFE119:
 396              		.section	.text.exmc_norsram_disable,"ax",%progbits
 397              		.align	1
 398              		.global	exmc_norsram_disable
 399              		.syntax unified
 400              		.thumb
 401              		.thumb_func
 402              		.fpu fpv4-sp-d16
 404              	exmc_norsram_disable:
 405              	.LFB120:
 243:C:/Users/49542/Desktop/GD32F30x_Demo_Suites_V2.0.0/GD32F30x_Demo_Suites_V2.0.0/GD32F30x_Firmware_Library/GD32F30x_standard_peripheral/Source\gd32f30x_exmc.c **** 
 244:C:/Users/49542/Desktop/GD32F30x_Demo_Suites_V2.0.0/GD32F30x_Demo_Suites_V2.0.0/GD32F30x_Firmware_Library/GD32F30x_standard_peripheral/Source\gd32f30x_exmc.c **** /*!
 245:C:/Users/49542/Desktop/GD32F30x_Demo_Suites_V2.0.0/GD32F30x_Demo_Suites_V2.0.0/GD32F30x_Firmware_Library/GD32F30x_standard_peripheral/Source\gd32f30x_exmc.c ****     \brief      disable EXMC NOR/PSRAM bank region
 246:C:/Users/49542/Desktop/GD32F30x_Demo_Suites_V2.0.0/GD32F30x_Demo_Suites_V2.0.0/GD32F30x_Firmware_Library/GD32F30x_standard_peripheral/Source\gd32f30x_exmc.c ****     \param[in]  exmc_norsram_region: specifie the region of NOR/PSRAM Bank
 247:C:/Users/49542/Desktop/GD32F30x_Demo_Suites_V2.0.0/GD32F30x_Demo_Suites_V2.0.0/GD32F30x_Firmware_Library/GD32F30x_standard_peripheral/Source\gd32f30x_exmc.c ****                 only one parameter can be selected which is shown as below:
 248:C:/Users/49542/Desktop/GD32F30x_Demo_Suites_V2.0.0/GD32F30x_Demo_Suites_V2.0.0/GD32F30x_Firmware_Library/GD32F30x_standard_peripheral/Source\gd32f30x_exmc.c ****       \arg        EXMC_BANK0_NORSRAM_REGIONx(x=0..3)
 249:C:/Users/49542/Desktop/GD32F30x_Demo_Suites_V2.0.0/GD32F30x_Demo_Suites_V2.0.0/GD32F30x_Firmware_Library/GD32F30x_standard_peripheral/Source\gd32f30x_exmc.c ****     \param[out] none
 250:C:/Users/49542/Desktop/GD32F30x_Demo_Suites_V2.0.0/GD32F30x_Demo_Suites_V2.0.0/GD32F30x_Firmware_Library/GD32F30x_standard_peripheral/Source\gd32f30x_exmc.c ****     \retval     none
 251:C:/Users/49542/Desktop/GD32F30x_Demo_Suites_V2.0.0/GD32F30x_Demo_Suites_V2.0.0/GD32F30x_Firmware_Library/GD32F30x_standard_peripheral/Source\gd32f30x_exmc.c **** */
 252:C:/Users/49542/Desktop/GD32F30x_Demo_Suites_V2.0.0/GD32F30x_Demo_Suites_V2.0.0/GD32F30x_Firmware_Library/GD32F30x_standard_peripheral/Source\gd32f30x_exmc.c **** void exmc_norsram_disable(uint32_t exmc_norsram_region)
 253:C:/Users/49542/Desktop/GD32F30x_Demo_Suites_V2.0.0/GD32F30x_Demo_Suites_V2.0.0/GD32F30x_Firmware_Library/GD32F30x_standard_peripheral/Source\gd32f30x_exmc.c **** {
 406              		.loc 1 253 0
 407              		.cfi_startproc
 408              		@ args = 0, pretend = 0, frame = 0
 409              		@ frame_needed = 0, uses_anonymous_args = 0
 410              		@ link register save eliminated.
 411              	.LVL18:
ARM GAS  C:\Users\49542\AppData\Local\Temp\ccCfvzZ4.s 			page 13


 254:C:/Users/49542/Desktop/GD32F30x_Demo_Suites_V2.0.0/GD32F30x_Demo_Suites_V2.0.0/GD32F30x_Firmware_Library/GD32F30x_standard_peripheral/Source\gd32f30x_exmc.c ****     EXMC_SNCTL(exmc_norsram_region) &= ~(uint32_t)EXMC_SNCTL_NRBKEN;
 412              		.loc 1 254 0
 413 0000 00F1A050 		add	r0, r0, #335544320
 414              	.LVL19:
 415 0004 C000     		lsls	r0, r0, #3
 416              	.LVL20:
 417 0006 0368     		ldr	r3, [r0]
 418 0008 23F00103 		bic	r3, r3, #1
 419 000c 0360     		str	r3, [r0]
 255:C:/Users/49542/Desktop/GD32F30x_Demo_Suites_V2.0.0/GD32F30x_Demo_Suites_V2.0.0/GD32F30x_Firmware_Library/GD32F30x_standard_peripheral/Source\gd32f30x_exmc.c **** }
 420              		.loc 1 255 0
 421 000e 7047     		bx	lr
 422              		.cfi_endproc
 423              	.LFE120:
 425              		.section	.text.exmc_nand_deinit,"ax",%progbits
 426              		.align	1
 427              		.global	exmc_nand_deinit
 428              		.syntax unified
 429              		.thumb
 430              		.thumb_func
 431              		.fpu fpv4-sp-d16
 433              	exmc_nand_deinit:
 434              	.LFB121:
 256:C:/Users/49542/Desktop/GD32F30x_Demo_Suites_V2.0.0/GD32F30x_Demo_Suites_V2.0.0/GD32F30x_Firmware_Library/GD32F30x_standard_peripheral/Source\gd32f30x_exmc.c **** 
 257:C:/Users/49542/Desktop/GD32F30x_Demo_Suites_V2.0.0/GD32F30x_Demo_Suites_V2.0.0/GD32F30x_Firmware_Library/GD32F30x_standard_peripheral/Source\gd32f30x_exmc.c **** /*!
 258:C:/Users/49542/Desktop/GD32F30x_Demo_Suites_V2.0.0/GD32F30x_Demo_Suites_V2.0.0/GD32F30x_Firmware_Library/GD32F30x_standard_peripheral/Source\gd32f30x_exmc.c ****     \brief      deinitialize EXMC NAND bank
 259:C:/Users/49542/Desktop/GD32F30x_Demo_Suites_V2.0.0/GD32F30x_Demo_Suites_V2.0.0/GD32F30x_Firmware_Library/GD32F30x_standard_peripheral/Source\gd32f30x_exmc.c ****     \param[in]  exmc_nand_bank: select the bank of NAND
 260:C:/Users/49542/Desktop/GD32F30x_Demo_Suites_V2.0.0/GD32F30x_Demo_Suites_V2.0.0/GD32F30x_Firmware_Library/GD32F30x_standard_peripheral/Source\gd32f30x_exmc.c ****                 only one parameter can be selected which is shown as below:
 261:C:/Users/49542/Desktop/GD32F30x_Demo_Suites_V2.0.0/GD32F30x_Demo_Suites_V2.0.0/GD32F30x_Firmware_Library/GD32F30x_standard_peripheral/Source\gd32f30x_exmc.c ****       \arg        EXMC_BANKx_NAND(x=1..2)
 262:C:/Users/49542/Desktop/GD32F30x_Demo_Suites_V2.0.0/GD32F30x_Demo_Suites_V2.0.0/GD32F30x_Firmware_Library/GD32F30x_standard_peripheral/Source\gd32f30x_exmc.c ****     \param[out] none
 263:C:/Users/49542/Desktop/GD32F30x_Demo_Suites_V2.0.0/GD32F30x_Demo_Suites_V2.0.0/GD32F30x_Firmware_Library/GD32F30x_standard_peripheral/Source\gd32f30x_exmc.c ****     \retval     none
 264:C:/Users/49542/Desktop/GD32F30x_Demo_Suites_V2.0.0/GD32F30x_Demo_Suites_V2.0.0/GD32F30x_Firmware_Library/GD32F30x_standard_peripheral/Source\gd32f30x_exmc.c **** */
 265:C:/Users/49542/Desktop/GD32F30x_Demo_Suites_V2.0.0/GD32F30x_Demo_Suites_V2.0.0/GD32F30x_Firmware_Library/GD32F30x_standard_peripheral/Source\gd32f30x_exmc.c **** void exmc_nand_deinit(uint32_t exmc_nand_bank)
 266:C:/Users/49542/Desktop/GD32F30x_Demo_Suites_V2.0.0/GD32F30x_Demo_Suites_V2.0.0/GD32F30x_Firmware_Library/GD32F30x_standard_peripheral/Source\gd32f30x_exmc.c **** {
 435              		.loc 1 266 0
 436              		.cfi_startproc
 437              		@ args = 0, pretend = 0, frame = 0
 438              		@ frame_needed = 0, uses_anonymous_args = 0
 439              		@ link register save eliminated.
 440              	.LVL21:
 267:C:/Users/49542/Desktop/GD32F30x_Demo_Suites_V2.0.0/GD32F30x_Demo_Suites_V2.0.0/GD32F30x_Firmware_Library/GD32F30x_standard_peripheral/Source\gd32f30x_exmc.c ****     /* EXMC_BANK1_NAND or EXMC_BANK2_NAND */
 268:C:/Users/49542/Desktop/GD32F30x_Demo_Suites_V2.0.0/GD32F30x_Demo_Suites_V2.0.0/GD32F30x_Firmware_Library/GD32F30x_standard_peripheral/Source\gd32f30x_exmc.c ****     EXMC_NPCTL(exmc_nand_bank) = BANK1_2_NPCTL_RESET;
 441              		.loc 1 268 0
 442 0000 00F1A063 		add	r3, r0, #83886080
 443 0004 0233     		adds	r3, r3, #2
 444 0006 5B01     		lsls	r3, r3, #5
 445 0008 1822     		movs	r2, #24
 446 000a 1A60     		str	r2, [r3]
 269:C:/Users/49542/Desktop/GD32F30x_Demo_Suites_V2.0.0/GD32F30x_Demo_Suites_V2.0.0/GD32F30x_Firmware_Library/GD32F30x_standard_peripheral/Source\gd32f30x_exmc.c ****     EXMC_NPINTEN(exmc_nand_bank) = BANK1_2_NPINTEN_RESET;
 447              		.loc 1 269 0
 448 000c 4001     		lsls	r0, r0, #5
 449              	.LVL22:
 450 000e 00F12040 		add	r0, r0, #-1610612736
 451 0012 4223     		movs	r3, #66
 452 0014 4364     		str	r3, [r0, #68]
 270:C:/Users/49542/Desktop/GD32F30x_Demo_Suites_V2.0.0/GD32F30x_Demo_Suites_V2.0.0/GD32F30x_Firmware_Library/GD32F30x_standard_peripheral/Source\gd32f30x_exmc.c ****     EXMC_NPCTCFG(exmc_nand_bank) = BANK1_2_NPCTCFG_RESET;
 453              		.loc 1 270 0
ARM GAS  C:\Users\49542\AppData\Local\Temp\ccCfvzZ4.s 			page 14


 454 0016 4FF0FC33 		mov	r3, #-50529028
 455 001a 8364     		str	r3, [r0, #72]
 271:C:/Users/49542/Desktop/GD32F30x_Demo_Suites_V2.0.0/GD32F30x_Demo_Suites_V2.0.0/GD32F30x_Firmware_Library/GD32F30x_standard_peripheral/Source\gd32f30x_exmc.c ****     EXMC_NPATCFG(exmc_nand_bank) = BANK1_2_NPATCFG_RESET;
 456              		.loc 1 271 0
 457 001c C364     		str	r3, [r0, #76]
 272:C:/Users/49542/Desktop/GD32F30x_Demo_Suites_V2.0.0/GD32F30x_Demo_Suites_V2.0.0/GD32F30x_Firmware_Library/GD32F30x_standard_peripheral/Source\gd32f30x_exmc.c **** }
 458              		.loc 1 272 0
 459 001e 7047     		bx	lr
 460              		.cfi_endproc
 461              	.LFE121:
 463              		.section	.text.exmc_nand_struct_para_init,"ax",%progbits
 464              		.align	1
 465              		.global	exmc_nand_struct_para_init
 466              		.syntax unified
 467              		.thumb
 468              		.thumb_func
 469              		.fpu fpv4-sp-d16
 471              	exmc_nand_struct_para_init:
 472              	.LFB122:
 273:C:/Users/49542/Desktop/GD32F30x_Demo_Suites_V2.0.0/GD32F30x_Demo_Suites_V2.0.0/GD32F30x_Firmware_Library/GD32F30x_standard_peripheral/Source\gd32f30x_exmc.c **** 
 274:C:/Users/49542/Desktop/GD32F30x_Demo_Suites_V2.0.0/GD32F30x_Demo_Suites_V2.0.0/GD32F30x_Firmware_Library/GD32F30x_standard_peripheral/Source\gd32f30x_exmc.c **** /*!
 275:C:/Users/49542/Desktop/GD32F30x_Demo_Suites_V2.0.0/GD32F30x_Demo_Suites_V2.0.0/GD32F30x_Firmware_Library/GD32F30x_standard_peripheral/Source\gd32f30x_exmc.c ****     \brief      initialize exmc_norsram_parameter_struct with the default values
 276:C:/Users/49542/Desktop/GD32F30x_Demo_Suites_V2.0.0/GD32F30x_Demo_Suites_V2.0.0/GD32F30x_Firmware_Library/GD32F30x_standard_peripheral/Source\gd32f30x_exmc.c ****     \param[in]  none
 277:C:/Users/49542/Desktop/GD32F30x_Demo_Suites_V2.0.0/GD32F30x_Demo_Suites_V2.0.0/GD32F30x_Firmware_Library/GD32F30x_standard_peripheral/Source\gd32f30x_exmc.c ****     \param[out] the initialized struct exmc_norsram_parameter_struct pointer
 278:C:/Users/49542/Desktop/GD32F30x_Demo_Suites_V2.0.0/GD32F30x_Demo_Suites_V2.0.0/GD32F30x_Firmware_Library/GD32F30x_standard_peripheral/Source\gd32f30x_exmc.c ****     \retval     none
 279:C:/Users/49542/Desktop/GD32F30x_Demo_Suites_V2.0.0/GD32F30x_Demo_Suites_V2.0.0/GD32F30x_Firmware_Library/GD32F30x_standard_peripheral/Source\gd32f30x_exmc.c **** */
 280:C:/Users/49542/Desktop/GD32F30x_Demo_Suites_V2.0.0/GD32F30x_Demo_Suites_V2.0.0/GD32F30x_Firmware_Library/GD32F30x_standard_peripheral/Source\gd32f30x_exmc.c **** void exmc_nand_struct_para_init(exmc_nand_parameter_struct* exmc_nand_init_struct)
 281:C:/Users/49542/Desktop/GD32F30x_Demo_Suites_V2.0.0/GD32F30x_Demo_Suites_V2.0.0/GD32F30x_Firmware_Library/GD32F30x_standard_peripheral/Source\gd32f30x_exmc.c **** {
 473              		.loc 1 281 0
 474              		.cfi_startproc
 475              		@ args = 0, pretend = 0, frame = 0
 476              		@ frame_needed = 0, uses_anonymous_args = 0
 477              		@ link register save eliminated.
 478              	.LVL23:
 282:C:/Users/49542/Desktop/GD32F30x_Demo_Suites_V2.0.0/GD32F30x_Demo_Suites_V2.0.0/GD32F30x_Firmware_Library/GD32F30x_standard_peripheral/Source\gd32f30x_exmc.c ****     /* configure the structure with default values */
 283:C:/Users/49542/Desktop/GD32F30x_Demo_Suites_V2.0.0/GD32F30x_Demo_Suites_V2.0.0/GD32F30x_Firmware_Library/GD32F30x_standard_peripheral/Source\gd32f30x_exmc.c ****     exmc_nand_init_struct->nand_bank = EXMC_BANK1_NAND;
 479              		.loc 1 283 0
 480 0000 0123     		movs	r3, #1
 481 0002 0360     		str	r3, [r0]
 284:C:/Users/49542/Desktop/GD32F30x_Demo_Suites_V2.0.0/GD32F30x_Demo_Suites_V2.0.0/GD32F30x_Firmware_Library/GD32F30x_standard_peripheral/Source\gd32f30x_exmc.c ****     exmc_nand_init_struct->wait_feature = DISABLE;
 482              		.loc 1 284 0
 483 0004 0023     		movs	r3, #0
 484 0006 8361     		str	r3, [r0, #24]
 285:C:/Users/49542/Desktop/GD32F30x_Demo_Suites_V2.0.0/GD32F30x_Demo_Suites_V2.0.0/GD32F30x_Firmware_Library/GD32F30x_standard_peripheral/Source\gd32f30x_exmc.c ****     exmc_nand_init_struct->databus_width = EXMC_NAND_DATABUS_WIDTH_8B;
 485              		.loc 1 285 0
 486 0008 4361     		str	r3, [r0, #20]
 286:C:/Users/49542/Desktop/GD32F30x_Demo_Suites_V2.0.0/GD32F30x_Demo_Suites_V2.0.0/GD32F30x_Firmware_Library/GD32F30x_standard_peripheral/Source\gd32f30x_exmc.c ****     exmc_nand_init_struct->ecc_logic = DISABLE;
 487              		.loc 1 286 0
 488 000a 0361     		str	r3, [r0, #16]
 287:C:/Users/49542/Desktop/GD32F30x_Demo_Suites_V2.0.0/GD32F30x_Demo_Suites_V2.0.0/GD32F30x_Firmware_Library/GD32F30x_standard_peripheral/Source\gd32f30x_exmc.c ****     exmc_nand_init_struct->ecc_size = EXMC_ECC_SIZE_256BYTES;
 489              		.loc 1 287 0
 490 000c 4360     		str	r3, [r0, #4]
 288:C:/Users/49542/Desktop/GD32F30x_Demo_Suites_V2.0.0/GD32F30x_Demo_Suites_V2.0.0/GD32F30x_Firmware_Library/GD32F30x_standard_peripheral/Source\gd32f30x_exmc.c ****     exmc_nand_init_struct->ctr_latency = 0x0U;
 491              		.loc 1 288 0
 492 000e C360     		str	r3, [r0, #12]
 289:C:/Users/49542/Desktop/GD32F30x_Demo_Suites_V2.0.0/GD32F30x_Demo_Suites_V2.0.0/GD32F30x_Firmware_Library/GD32F30x_standard_peripheral/Source\gd32f30x_exmc.c ****     exmc_nand_init_struct->atr_latency = 0x0U;
 493              		.loc 1 289 0
ARM GAS  C:\Users\49542\AppData\Local\Temp\ccCfvzZ4.s 			page 15


 494 0010 8360     		str	r3, [r0, #8]
 290:C:/Users/49542/Desktop/GD32F30x_Demo_Suites_V2.0.0/GD32F30x_Demo_Suites_V2.0.0/GD32F30x_Firmware_Library/GD32F30x_standard_peripheral/Source\gd32f30x_exmc.c ****     exmc_nand_init_struct->common_space_timing->setuptime = 0xFCU;
 495              		.loc 1 290 0
 496 0012 C269     		ldr	r2, [r0, #28]
 497 0014 FC23     		movs	r3, #252
 498 0016 D360     		str	r3, [r2, #12]
 291:C:/Users/49542/Desktop/GD32F30x_Demo_Suites_V2.0.0/GD32F30x_Demo_Suites_V2.0.0/GD32F30x_Firmware_Library/GD32F30x_standard_peripheral/Source\gd32f30x_exmc.c ****     exmc_nand_init_struct->common_space_timing->waittime = 0xFCU;
 499              		.loc 1 291 0
 500 0018 C269     		ldr	r2, [r0, #28]
 501 001a 9360     		str	r3, [r2, #8]
 292:C:/Users/49542/Desktop/GD32F30x_Demo_Suites_V2.0.0/GD32F30x_Demo_Suites_V2.0.0/GD32F30x_Firmware_Library/GD32F30x_standard_peripheral/Source\gd32f30x_exmc.c ****     exmc_nand_init_struct->common_space_timing->holdtime = 0xFCU;
 502              		.loc 1 292 0
 503 001c C269     		ldr	r2, [r0, #28]
 504 001e 5360     		str	r3, [r2, #4]
 293:C:/Users/49542/Desktop/GD32F30x_Demo_Suites_V2.0.0/GD32F30x_Demo_Suites_V2.0.0/GD32F30x_Firmware_Library/GD32F30x_standard_peripheral/Source\gd32f30x_exmc.c ****     exmc_nand_init_struct->common_space_timing->databus_hiztime = 0xFCU;
 505              		.loc 1 293 0
 506 0020 C269     		ldr	r2, [r0, #28]
 507 0022 1360     		str	r3, [r2]
 294:C:/Users/49542/Desktop/GD32F30x_Demo_Suites_V2.0.0/GD32F30x_Demo_Suites_V2.0.0/GD32F30x_Firmware_Library/GD32F30x_standard_peripheral/Source\gd32f30x_exmc.c ****     exmc_nand_init_struct->attribute_space_timing->setuptime = 0xFCU;
 508              		.loc 1 294 0
 509 0024 026A     		ldr	r2, [r0, #32]
 510 0026 D360     		str	r3, [r2, #12]
 295:C:/Users/49542/Desktop/GD32F30x_Demo_Suites_V2.0.0/GD32F30x_Demo_Suites_V2.0.0/GD32F30x_Firmware_Library/GD32F30x_standard_peripheral/Source\gd32f30x_exmc.c ****     exmc_nand_init_struct->attribute_space_timing->waittime = 0xFCU;
 511              		.loc 1 295 0
 512 0028 026A     		ldr	r2, [r0, #32]
 513 002a 9360     		str	r3, [r2, #8]
 296:C:/Users/49542/Desktop/GD32F30x_Demo_Suites_V2.0.0/GD32F30x_Demo_Suites_V2.0.0/GD32F30x_Firmware_Library/GD32F30x_standard_peripheral/Source\gd32f30x_exmc.c ****     exmc_nand_init_struct->attribute_space_timing->holdtime = 0xFCU;
 514              		.loc 1 296 0
 515 002c 026A     		ldr	r2, [r0, #32]
 516 002e 5360     		str	r3, [r2, #4]
 297:C:/Users/49542/Desktop/GD32F30x_Demo_Suites_V2.0.0/GD32F30x_Demo_Suites_V2.0.0/GD32F30x_Firmware_Library/GD32F30x_standard_peripheral/Source\gd32f30x_exmc.c ****     exmc_nand_init_struct->attribute_space_timing->databus_hiztime = 0xFCU;
 517              		.loc 1 297 0
 518 0030 026A     		ldr	r2, [r0, #32]
 519 0032 1360     		str	r3, [r2]
 298:C:/Users/49542/Desktop/GD32F30x_Demo_Suites_V2.0.0/GD32F30x_Demo_Suites_V2.0.0/GD32F30x_Firmware_Library/GD32F30x_standard_peripheral/Source\gd32f30x_exmc.c **** }
 520              		.loc 1 298 0
 521 0034 7047     		bx	lr
 522              		.cfi_endproc
 523              	.LFE122:
 525              		.section	.text.exmc_nand_init,"ax",%progbits
 526              		.align	1
 527              		.global	exmc_nand_init
 528              		.syntax unified
 529              		.thumb
 530              		.thumb_func
 531              		.fpu fpv4-sp-d16
 533              	exmc_nand_init:
 534              	.LFB123:
 299:C:/Users/49542/Desktop/GD32F30x_Demo_Suites_V2.0.0/GD32F30x_Demo_Suites_V2.0.0/GD32F30x_Firmware_Library/GD32F30x_standard_peripheral/Source\gd32f30x_exmc.c **** 
 300:C:/Users/49542/Desktop/GD32F30x_Demo_Suites_V2.0.0/GD32F30x_Demo_Suites_V2.0.0/GD32F30x_Firmware_Library/GD32F30x_standard_peripheral/Source\gd32f30x_exmc.c **** /*!
 301:C:/Users/49542/Desktop/GD32F30x_Demo_Suites_V2.0.0/GD32F30x_Demo_Suites_V2.0.0/GD32F30x_Firmware_Library/GD32F30x_standard_peripheral/Source\gd32f30x_exmc.c ****     \brief      initialize EXMC NAND bank
 302:C:/Users/49542/Desktop/GD32F30x_Demo_Suites_V2.0.0/GD32F30x_Demo_Suites_V2.0.0/GD32F30x_Firmware_Library/GD32F30x_standard_peripheral/Source\gd32f30x_exmc.c ****     \param[in]  exmc_nand_parameter_struct: configure the EXMC NAND parameter
 303:C:/Users/49542/Desktop/GD32F30x_Demo_Suites_V2.0.0/GD32F30x_Demo_Suites_V2.0.0/GD32F30x_Firmware_Library/GD32F30x_standard_peripheral/Source\gd32f30x_exmc.c ****                   nand_bank: EXMC_BANK1_NAND,EXMC_BANK2_NAND
 304:C:/Users/49542/Desktop/GD32F30x_Demo_Suites_V2.0.0/GD32F30x_Demo_Suites_V2.0.0/GD32F30x_Firmware_Library/GD32F30x_standard_peripheral/Source\gd32f30x_exmc.c ****                   ecc_size: EXMC_ECC_SIZE_xBYTES,x=256,512,1024,2048,4096
 305:C:/Users/49542/Desktop/GD32F30x_Demo_Suites_V2.0.0/GD32F30x_Demo_Suites_V2.0.0/GD32F30x_Firmware_Library/GD32F30x_standard_peripheral/Source\gd32f30x_exmc.c ****                   atr_latency: EXMC_ALE_RE_DELAY_x_HCLK,x=1..16
 306:C:/Users/49542/Desktop/GD32F30x_Demo_Suites_V2.0.0/GD32F30x_Demo_Suites_V2.0.0/GD32F30x_Firmware_Library/GD32F30x_standard_peripheral/Source\gd32f30x_exmc.c ****                   ctr_latency: EXMC_CLE_RE_DELAY_x_HCLK,x=1..16
 307:C:/Users/49542/Desktop/GD32F30x_Demo_Suites_V2.0.0/GD32F30x_Demo_Suites_V2.0.0/GD32F30x_Firmware_Library/GD32F30x_standard_peripheral/Source\gd32f30x_exmc.c ****                   ecc_logic: ENABLE or DISABLE
ARM GAS  C:\Users\49542\AppData\Local\Temp\ccCfvzZ4.s 			page 16


 308:C:/Users/49542/Desktop/GD32F30x_Demo_Suites_V2.0.0/GD32F30x_Demo_Suites_V2.0.0/GD32F30x_Firmware_Library/GD32F30x_standard_peripheral/Source\gd32f30x_exmc.c ****                   databus_width: EXMC_NAND_DATABUS_WIDTH_8B,EXMC_NAND_DATABUS_WIDTH_16B
 309:C:/Users/49542/Desktop/GD32F30x_Demo_Suites_V2.0.0/GD32F30x_Demo_Suites_V2.0.0/GD32F30x_Firmware_Library/GD32F30x_standard_peripheral/Source\gd32f30x_exmc.c ****                   wait_feature: ENABLE or DISABLE
 310:C:/Users/49542/Desktop/GD32F30x_Demo_Suites_V2.0.0/GD32F30x_Demo_Suites_V2.0.0/GD32F30x_Firmware_Library/GD32F30x_standard_peripheral/Source\gd32f30x_exmc.c ****                   common_space_timing: struct exmc_nand_pccard_timing_parameter_struct set the time
 311:C:/Users/49542/Desktop/GD32F30x_Demo_Suites_V2.0.0/GD32F30x_Demo_Suites_V2.0.0/GD32F30x_Firmware_Library/GD32F30x_standard_peripheral/Source\gd32f30x_exmc.c ****                   attribute_space_timing: struct exmc_nand_pccard_timing_parameter_struct set the t
 312:C:/Users/49542/Desktop/GD32F30x_Demo_Suites_V2.0.0/GD32F30x_Demo_Suites_V2.0.0/GD32F30x_Firmware_Library/GD32F30x_standard_peripheral/Source\gd32f30x_exmc.c ****     \param[out] none
 313:C:/Users/49542/Desktop/GD32F30x_Demo_Suites_V2.0.0/GD32F30x_Demo_Suites_V2.0.0/GD32F30x_Firmware_Library/GD32F30x_standard_peripheral/Source\gd32f30x_exmc.c ****     \retval     none
 314:C:/Users/49542/Desktop/GD32F30x_Demo_Suites_V2.0.0/GD32F30x_Demo_Suites_V2.0.0/GD32F30x_Firmware_Library/GD32F30x_standard_peripheral/Source\gd32f30x_exmc.c **** */
 315:C:/Users/49542/Desktop/GD32F30x_Demo_Suites_V2.0.0/GD32F30x_Demo_Suites_V2.0.0/GD32F30x_Firmware_Library/GD32F30x_standard_peripheral/Source\gd32f30x_exmc.c **** void exmc_nand_init(exmc_nand_parameter_struct* exmc_nand_init_struct)
 316:C:/Users/49542/Desktop/GD32F30x_Demo_Suites_V2.0.0/GD32F30x_Demo_Suites_V2.0.0/GD32F30x_Firmware_Library/GD32F30x_standard_peripheral/Source\gd32f30x_exmc.c **** {
 535              		.loc 1 316 0
 536              		.cfi_startproc
 537              		@ args = 0, pretend = 0, frame = 0
 538              		@ frame_needed = 0, uses_anonymous_args = 0
 539              		@ link register save eliminated.
 540              	.LVL24:
 541 0000 30B4     		push	{r4, r5}
 542              	.LCFI5:
 543              		.cfi_def_cfa_offset 8
 544              		.cfi_offset 4, -8
 545              		.cfi_offset 5, -4
 546              	.LVL25:
 317:C:/Users/49542/Desktop/GD32F30x_Demo_Suites_V2.0.0/GD32F30x_Demo_Suites_V2.0.0/GD32F30x_Firmware_Library/GD32F30x_standard_peripheral/Source\gd32f30x_exmc.c ****     uint32_t npctl = 0x00000000U, npctcfg = 0x00000000U, npatcfg = 0x00000000U;
 318:C:/Users/49542/Desktop/GD32F30x_Demo_Suites_V2.0.0/GD32F30x_Demo_Suites_V2.0.0/GD32F30x_Firmware_Library/GD32F30x_standard_peripheral/Source\gd32f30x_exmc.c ****     
 319:C:/Users/49542/Desktop/GD32F30x_Demo_Suites_V2.0.0/GD32F30x_Demo_Suites_V2.0.0/GD32F30x_Firmware_Library/GD32F30x_standard_peripheral/Source\gd32f30x_exmc.c ****     npctl = (uint32_t)(exmc_nand_init_struct->wait_feature << NPCTL_NDWTEN_OFFSET)|
 547              		.loc 1 319 0
 548 0002 8269     		ldr	r2, [r0, #24]
 320:C:/Users/49542/Desktop/GD32F30x_Demo_Suites_V2.0.0/GD32F30x_Demo_Suites_V2.0.0/GD32F30x_Firmware_Library/GD32F30x_standard_peripheral/Source\gd32f30x_exmc.c ****                        EXMC_NPCTL_NDTP |
 321:C:/Users/49542/Desktop/GD32F30x_Demo_Suites_V2.0.0/GD32F30x_Demo_Suites_V2.0.0/GD32F30x_Firmware_Library/GD32F30x_standard_peripheral/Source\gd32f30x_exmc.c ****                        exmc_nand_init_struct->databus_width |
 549              		.loc 1 321 0
 550 0004 4369     		ldr	r3, [r0, #20]
 320:C:/Users/49542/Desktop/GD32F30x_Demo_Suites_V2.0.0/GD32F30x_Demo_Suites_V2.0.0/GD32F30x_Firmware_Library/GD32F30x_standard_peripheral/Source\gd32f30x_exmc.c ****                        EXMC_NPCTL_NDTP |
 551              		.loc 1 320 0
 552 0006 43EA4202 		orr	r2, r3, r2, lsl #1
 322:C:/Users/49542/Desktop/GD32F30x_Demo_Suites_V2.0.0/GD32F30x_Demo_Suites_V2.0.0/GD32F30x_Firmware_Library/GD32F30x_standard_peripheral/Source\gd32f30x_exmc.c ****                       (exmc_nand_init_struct->ecc_logic << NPCTL_ECCEN_OFFSET)|
 553              		.loc 1 322 0
 554 000a 0369     		ldr	r3, [r0, #16]
 321:C:/Users/49542/Desktop/GD32F30x_Demo_Suites_V2.0.0/GD32F30x_Demo_Suites_V2.0.0/GD32F30x_Firmware_Library/GD32F30x_standard_peripheral/Source\gd32f30x_exmc.c ****                       (exmc_nand_init_struct->ecc_logic << NPCTL_ECCEN_OFFSET)|
 555              		.loc 1 321 0
 556 000c 42EA8312 		orr	r2, r2, r3, lsl #6
 323:C:/Users/49542/Desktop/GD32F30x_Demo_Suites_V2.0.0/GD32F30x_Demo_Suites_V2.0.0/GD32F30x_Firmware_Library/GD32F30x_standard_peripheral/Source\gd32f30x_exmc.c ****                        exmc_nand_init_struct->ecc_size |
 557              		.loc 1 323 0
 558 0010 4368     		ldr	r3, [r0, #4]
 322:C:/Users/49542/Desktop/GD32F30x_Demo_Suites_V2.0.0/GD32F30x_Demo_Suites_V2.0.0/GD32F30x_Firmware_Library/GD32F30x_standard_peripheral/Source\gd32f30x_exmc.c ****                       (exmc_nand_init_struct->ecc_logic << NPCTL_ECCEN_OFFSET)|
 559              		.loc 1 322 0
 560 0012 1A43     		orrs	r2, r2, r3
 324:C:/Users/49542/Desktop/GD32F30x_Demo_Suites_V2.0.0/GD32F30x_Demo_Suites_V2.0.0/GD32F30x_Firmware_Library/GD32F30x_standard_peripheral/Source\gd32f30x_exmc.c ****                        exmc_nand_init_struct->ctr_latency |
 561              		.loc 1 324 0
 562 0014 C368     		ldr	r3, [r0, #12]
 323:C:/Users/49542/Desktop/GD32F30x_Demo_Suites_V2.0.0/GD32F30x_Demo_Suites_V2.0.0/GD32F30x_Firmware_Library/GD32F30x_standard_peripheral/Source\gd32f30x_exmc.c ****                        exmc_nand_init_struct->ecc_size |
 563              		.loc 1 323 0
 564 0016 1A43     		orrs	r2, r2, r3
 325:C:/Users/49542/Desktop/GD32F30x_Demo_Suites_V2.0.0/GD32F30x_Demo_Suites_V2.0.0/GD32F30x_Firmware_Library/GD32F30x_standard_peripheral/Source\gd32f30x_exmc.c ****                        exmc_nand_init_struct->atr_latency;
 565              		.loc 1 325 0
 566 0018 8368     		ldr	r3, [r0, #8]
 324:C:/Users/49542/Desktop/GD32F30x_Demo_Suites_V2.0.0/GD32F30x_Demo_Suites_V2.0.0/GD32F30x_Firmware_Library/GD32F30x_standard_peripheral/Source\gd32f30x_exmc.c ****                        exmc_nand_init_struct->ctr_latency |
 567              		.loc 1 324 0
 568 001a 1A43     		orrs	r2, r2, r3
ARM GAS  C:\Users\49542\AppData\Local\Temp\ccCfvzZ4.s 			page 17


 319:C:/Users/49542/Desktop/GD32F30x_Demo_Suites_V2.0.0/GD32F30x_Demo_Suites_V2.0.0/GD32F30x_Firmware_Library/GD32F30x_standard_peripheral/Source\gd32f30x_exmc.c ****                        EXMC_NPCTL_NDTP |
 569              		.loc 1 319 0
 570 001c 42F00802 		orr	r2, r2, #8
 571              	.LVL26:
 326:C:/Users/49542/Desktop/GD32F30x_Demo_Suites_V2.0.0/GD32F30x_Demo_Suites_V2.0.0/GD32F30x_Firmware_Library/GD32F30x_standard_peripheral/Source\gd32f30x_exmc.c **** 
 327:C:/Users/49542/Desktop/GD32F30x_Demo_Suites_V2.0.0/GD32F30x_Demo_Suites_V2.0.0/GD32F30x_Firmware_Library/GD32F30x_standard_peripheral/Source\gd32f30x_exmc.c ****     npctcfg = (uint32_t)((exmc_nand_init_struct->common_space_timing->setuptime - 1U) & EXMC_NPCTCF
 572              		.loc 1 327 0
 573 0020 C469     		ldr	r4, [r0, #28]
 574 0022 E368     		ldr	r3, [r4, #12]
 575 0024 591E     		subs	r1, r3, #1
 576 0026 C9B2     		uxtb	r1, r1
 328:C:/Users/49542/Desktop/GD32F30x_Demo_Suites_V2.0.0/GD32F30x_Demo_Suites_V2.0.0/GD32F30x_Firmware_Library/GD32F30x_standard_peripheral/Source\gd32f30x_exmc.c ****                         (((exmc_nand_init_struct->common_space_timing->waittime - 1U) << NPCTCFG_CO
 577              		.loc 1 328 0
 578 0028 A368     		ldr	r3, [r4, #8]
 579 002a 013B     		subs	r3, r3, #1
 580 002c 1B02     		lsls	r3, r3, #8
 581 002e 9BB2     		uxth	r3, r3
 327:C:/Users/49542/Desktop/GD32F30x_Demo_Suites_V2.0.0/GD32F30x_Demo_Suites_V2.0.0/GD32F30x_Firmware_Library/GD32F30x_standard_peripheral/Source\gd32f30x_exmc.c ****                         (((exmc_nand_init_struct->common_space_timing->waittime - 1U) << NPCTCFG_CO
 582              		.loc 1 327 0
 583 0030 1943     		orrs	r1, r1, r3
 329:C:/Users/49542/Desktop/GD32F30x_Demo_Suites_V2.0.0/GD32F30x_Demo_Suites_V2.0.0/GD32F30x_Firmware_Library/GD32F30x_standard_peripheral/Source\gd32f30x_exmc.c ****                         ((exmc_nand_init_struct->common_space_timing->holdtime << NPCTCFG_COMHLD_OF
 584              		.loc 1 329 0
 585 0032 6368     		ldr	r3, [r4, #4]
 586 0034 1B04     		lsls	r3, r3, #16
 587 0036 03F47F03 		and	r3, r3, #16711680
 328:C:/Users/49542/Desktop/GD32F30x_Demo_Suites_V2.0.0/GD32F30x_Demo_Suites_V2.0.0/GD32F30x_Firmware_Library/GD32F30x_standard_peripheral/Source\gd32f30x_exmc.c ****                         (((exmc_nand_init_struct->common_space_timing->waittime - 1U) << NPCTCFG_CO
 588              		.loc 1 328 0
 589 003a 1943     		orrs	r1, r1, r3
 330:C:/Users/49542/Desktop/GD32F30x_Demo_Suites_V2.0.0/GD32F30x_Demo_Suites_V2.0.0/GD32F30x_Firmware_Library/GD32F30x_standard_peripheral/Source\gd32f30x_exmc.c ****                         (((exmc_nand_init_struct->common_space_timing->databus_hiztime - 1U) << NPC
 590              		.loc 1 330 0
 591 003c 2368     		ldr	r3, [r4]
 592 003e 013B     		subs	r3, r3, #1
 327:C:/Users/49542/Desktop/GD32F30x_Demo_Suites_V2.0.0/GD32F30x_Demo_Suites_V2.0.0/GD32F30x_Firmware_Library/GD32F30x_standard_peripheral/Source\gd32f30x_exmc.c ****                         (((exmc_nand_init_struct->common_space_timing->waittime - 1U) << NPCTCFG_CO
 593              		.loc 1 327 0
 594 0040 41EA0361 		orr	r1, r1, r3, lsl #24
 595              	.LVL27:
 331:C:/Users/49542/Desktop/GD32F30x_Demo_Suites_V2.0.0/GD32F30x_Demo_Suites_V2.0.0/GD32F30x_Firmware_Library/GD32F30x_standard_peripheral/Source\gd32f30x_exmc.c **** 
 332:C:/Users/49542/Desktop/GD32F30x_Demo_Suites_V2.0.0/GD32F30x_Demo_Suites_V2.0.0/GD32F30x_Firmware_Library/GD32F30x_standard_peripheral/Source\gd32f30x_exmc.c ****     npatcfg = (uint32_t)((exmc_nand_init_struct->attribute_space_timing->setuptime - 1U) & EXMC_NPA
 596              		.loc 1 332 0
 597 0044 056A     		ldr	r5, [r0, #32]
 598 0046 EB68     		ldr	r3, [r5, #12]
 599 0048 013B     		subs	r3, r3, #1
 600 004a DBB2     		uxtb	r3, r3
 333:C:/Users/49542/Desktop/GD32F30x_Demo_Suites_V2.0.0/GD32F30x_Demo_Suites_V2.0.0/GD32F30x_Firmware_Library/GD32F30x_standard_peripheral/Source\gd32f30x_exmc.c ****                         (((exmc_nand_init_struct->attribute_space_timing->waittime - 1U) << NPATCFG
 601              		.loc 1 333 0
 602 004c AC68     		ldr	r4, [r5, #8]
 603 004e 013C     		subs	r4, r4, #1
 604 0050 2402     		lsls	r4, r4, #8
 605 0052 A4B2     		uxth	r4, r4
 332:C:/Users/49542/Desktop/GD32F30x_Demo_Suites_V2.0.0/GD32F30x_Demo_Suites_V2.0.0/GD32F30x_Firmware_Library/GD32F30x_standard_peripheral/Source\gd32f30x_exmc.c ****                         (((exmc_nand_init_struct->attribute_space_timing->waittime - 1U) << NPATCFG
 606              		.loc 1 332 0
 607 0054 2343     		orrs	r3, r3, r4
 334:C:/Users/49542/Desktop/GD32F30x_Demo_Suites_V2.0.0/GD32F30x_Demo_Suites_V2.0.0/GD32F30x_Firmware_Library/GD32F30x_standard_peripheral/Source\gd32f30x_exmc.c ****                         ((exmc_nand_init_struct->attribute_space_timing->holdtime << NPATCFG_ATTHLD
 608              		.loc 1 334 0
 609 0056 6C68     		ldr	r4, [r5, #4]
 610 0058 2404     		lsls	r4, r4, #16
 611 005a 04F47F04 		and	r4, r4, #16711680
ARM GAS  C:\Users\49542\AppData\Local\Temp\ccCfvzZ4.s 			page 18


 333:C:/Users/49542/Desktop/GD32F30x_Demo_Suites_V2.0.0/GD32F30x_Demo_Suites_V2.0.0/GD32F30x_Firmware_Library/GD32F30x_standard_peripheral/Source\gd32f30x_exmc.c ****                         (((exmc_nand_init_struct->attribute_space_timing->waittime - 1U) << NPATCFG
 612              		.loc 1 333 0
 613 005e 2343     		orrs	r3, r3, r4
 335:C:/Users/49542/Desktop/GD32F30x_Demo_Suites_V2.0.0/GD32F30x_Demo_Suites_V2.0.0/GD32F30x_Firmware_Library/GD32F30x_standard_peripheral/Source\gd32f30x_exmc.c ****                         (((exmc_nand_init_struct->attribute_space_timing->databus_hiztime -1U) << N
 614              		.loc 1 335 0
 615 0060 2C68     		ldr	r4, [r5]
 616 0062 013C     		subs	r4, r4, #1
 332:C:/Users/49542/Desktop/GD32F30x_Demo_Suites_V2.0.0/GD32F30x_Demo_Suites_V2.0.0/GD32F30x_Firmware_Library/GD32F30x_standard_peripheral/Source\gd32f30x_exmc.c ****                         (((exmc_nand_init_struct->attribute_space_timing->waittime - 1U) << NPATCFG
 617              		.loc 1 332 0
 618 0064 43EA0463 		orr	r3, r3, r4, lsl #24
 619              	.LVL28:
 336:C:/Users/49542/Desktop/GD32F30x_Demo_Suites_V2.0.0/GD32F30x_Demo_Suites_V2.0.0/GD32F30x_Firmware_Library/GD32F30x_standard_peripheral/Source\gd32f30x_exmc.c **** 
 337:C:/Users/49542/Desktop/GD32F30x_Demo_Suites_V2.0.0/GD32F30x_Demo_Suites_V2.0.0/GD32F30x_Firmware_Library/GD32F30x_standard_peripheral/Source\gd32f30x_exmc.c ****     /* EXMC_BANK1_NAND or EXMC_BANK2_NAND initialize */
 338:C:/Users/49542/Desktop/GD32F30x_Demo_Suites_V2.0.0/GD32F30x_Demo_Suites_V2.0.0/GD32F30x_Firmware_Library/GD32F30x_standard_peripheral/Source\gd32f30x_exmc.c ****     EXMC_NPCTL(exmc_nand_init_struct->nand_bank) = npctl;
 620              		.loc 1 338 0
 621 0068 0468     		ldr	r4, [r0]
 622 006a 04F1A064 		add	r4, r4, #83886080
 623 006e 0234     		adds	r4, r4, #2
 624 0070 6401     		lsls	r4, r4, #5
 625 0072 2260     		str	r2, [r4]
 339:C:/Users/49542/Desktop/GD32F30x_Demo_Suites_V2.0.0/GD32F30x_Demo_Suites_V2.0.0/GD32F30x_Firmware_Library/GD32F30x_standard_peripheral/Source\gd32f30x_exmc.c ****     EXMC_NPCTCFG(exmc_nand_init_struct->nand_bank) = npctcfg;
 626              		.loc 1 339 0
 627 0074 0268     		ldr	r2, [r0]
 628              	.LVL29:
 629 0076 5201     		lsls	r2, r2, #5
 630 0078 02F12042 		add	r2, r2, #-1610612736
 631 007c 9164     		str	r1, [r2, #72]
 632              	.LVL30:
 340:C:/Users/49542/Desktop/GD32F30x_Demo_Suites_V2.0.0/GD32F30x_Demo_Suites_V2.0.0/GD32F30x_Firmware_Library/GD32F30x_standard_peripheral/Source\gd32f30x_exmc.c ****     EXMC_NPATCFG(exmc_nand_init_struct->nand_bank) = npatcfg;
 633              		.loc 1 340 0
 634 007e 0268     		ldr	r2, [r0]
 635 0080 5201     		lsls	r2, r2, #5
 636 0082 02F12042 		add	r2, r2, #-1610612736
 637 0086 D364     		str	r3, [r2, #76]
 341:C:/Users/49542/Desktop/GD32F30x_Demo_Suites_V2.0.0/GD32F30x_Demo_Suites_V2.0.0/GD32F30x_Firmware_Library/GD32F30x_standard_peripheral/Source\gd32f30x_exmc.c **** }
 638              		.loc 1 341 0
 639 0088 30BC     		pop	{r4, r5}
 640              	.LCFI6:
 641              		.cfi_restore 5
 642              		.cfi_restore 4
 643              		.cfi_def_cfa_offset 0
 644 008a 7047     		bx	lr
 645              		.cfi_endproc
 646              	.LFE123:
 648              		.section	.text.exmc_nand_enable,"ax",%progbits
 649              		.align	1
 650              		.global	exmc_nand_enable
 651              		.syntax unified
 652              		.thumb
 653              		.thumb_func
 654              		.fpu fpv4-sp-d16
 656              	exmc_nand_enable:
 657              	.LFB124:
 342:C:/Users/49542/Desktop/GD32F30x_Demo_Suites_V2.0.0/GD32F30x_Demo_Suites_V2.0.0/GD32F30x_Firmware_Library/GD32F30x_standard_peripheral/Source\gd32f30x_exmc.c **** 
 343:C:/Users/49542/Desktop/GD32F30x_Demo_Suites_V2.0.0/GD32F30x_Demo_Suites_V2.0.0/GD32F30x_Firmware_Library/GD32F30x_standard_peripheral/Source\gd32f30x_exmc.c **** /*!
 344:C:/Users/49542/Desktop/GD32F30x_Demo_Suites_V2.0.0/GD32F30x_Demo_Suites_V2.0.0/GD32F30x_Firmware_Library/GD32F30x_standard_peripheral/Source\gd32f30x_exmc.c ****     \brief      enable NAND bank
 345:C:/Users/49542/Desktop/GD32F30x_Demo_Suites_V2.0.0/GD32F30x_Demo_Suites_V2.0.0/GD32F30x_Firmware_Library/GD32F30x_standard_peripheral/Source\gd32f30x_exmc.c ****     \param[in]  exmc_nand_bank: specifie the NAND bank
ARM GAS  C:\Users\49542\AppData\Local\Temp\ccCfvzZ4.s 			page 19


 346:C:/Users/49542/Desktop/GD32F30x_Demo_Suites_V2.0.0/GD32F30x_Demo_Suites_V2.0.0/GD32F30x_Firmware_Library/GD32F30x_standard_peripheral/Source\gd32f30x_exmc.c ****                 only one parameter can be selected which is shown as below:
 347:C:/Users/49542/Desktop/GD32F30x_Demo_Suites_V2.0.0/GD32F30x_Demo_Suites_V2.0.0/GD32F30x_Firmware_Library/GD32F30x_standard_peripheral/Source\gd32f30x_exmc.c ****       \arg        EXMC_BANKx_NAND(x=1,2)
 348:C:/Users/49542/Desktop/GD32F30x_Demo_Suites_V2.0.0/GD32F30x_Demo_Suites_V2.0.0/GD32F30x_Firmware_Library/GD32F30x_standard_peripheral/Source\gd32f30x_exmc.c ****     \param[out] none
 349:C:/Users/49542/Desktop/GD32F30x_Demo_Suites_V2.0.0/GD32F30x_Demo_Suites_V2.0.0/GD32F30x_Firmware_Library/GD32F30x_standard_peripheral/Source\gd32f30x_exmc.c ****     \retval     none
 350:C:/Users/49542/Desktop/GD32F30x_Demo_Suites_V2.0.0/GD32F30x_Demo_Suites_V2.0.0/GD32F30x_Firmware_Library/GD32F30x_standard_peripheral/Source\gd32f30x_exmc.c **** */
 351:C:/Users/49542/Desktop/GD32F30x_Demo_Suites_V2.0.0/GD32F30x_Demo_Suites_V2.0.0/GD32F30x_Firmware_Library/GD32F30x_standard_peripheral/Source\gd32f30x_exmc.c **** void exmc_nand_enable(uint32_t exmc_nand_bank)
 352:C:/Users/49542/Desktop/GD32F30x_Demo_Suites_V2.0.0/GD32F30x_Demo_Suites_V2.0.0/GD32F30x_Firmware_Library/GD32F30x_standard_peripheral/Source\gd32f30x_exmc.c **** {
 658              		.loc 1 352 0
 659              		.cfi_startproc
 660              		@ args = 0, pretend = 0, frame = 0
 661              		@ frame_needed = 0, uses_anonymous_args = 0
 662              		@ link register save eliminated.
 663              	.LVL31:
 353:C:/Users/49542/Desktop/GD32F30x_Demo_Suites_V2.0.0/GD32F30x_Demo_Suites_V2.0.0/GD32F30x_Firmware_Library/GD32F30x_standard_peripheral/Source\gd32f30x_exmc.c ****     EXMC_NPCTL(exmc_nand_bank) |= EXMC_NPCTL_NDBKEN;
 664              		.loc 1 353 0
 665 0000 00F1A060 		add	r0, r0, #83886080
 666              	.LVL32:
 667 0004 0230     		adds	r0, r0, #2
 668              	.LVL33:
 669 0006 4001     		lsls	r0, r0, #5
 670              	.LVL34:
 671 0008 0368     		ldr	r3, [r0]
 672 000a 43F00403 		orr	r3, r3, #4
 673 000e 0360     		str	r3, [r0]
 354:C:/Users/49542/Desktop/GD32F30x_Demo_Suites_V2.0.0/GD32F30x_Demo_Suites_V2.0.0/GD32F30x_Firmware_Library/GD32F30x_standard_peripheral/Source\gd32f30x_exmc.c **** }
 674              		.loc 1 354 0
 675 0010 7047     		bx	lr
 676              		.cfi_endproc
 677              	.LFE124:
 679              		.section	.text.exmc_nand_disable,"ax",%progbits
 680              		.align	1
 681              		.global	exmc_nand_disable
 682              		.syntax unified
 683              		.thumb
 684              		.thumb_func
 685              		.fpu fpv4-sp-d16
 687              	exmc_nand_disable:
 688              	.LFB125:
 355:C:/Users/49542/Desktop/GD32F30x_Demo_Suites_V2.0.0/GD32F30x_Demo_Suites_V2.0.0/GD32F30x_Firmware_Library/GD32F30x_standard_peripheral/Source\gd32f30x_exmc.c **** 
 356:C:/Users/49542/Desktop/GD32F30x_Demo_Suites_V2.0.0/GD32F30x_Demo_Suites_V2.0.0/GD32F30x_Firmware_Library/GD32F30x_standard_peripheral/Source\gd32f30x_exmc.c **** /*!
 357:C:/Users/49542/Desktop/GD32F30x_Demo_Suites_V2.0.0/GD32F30x_Demo_Suites_V2.0.0/GD32F30x_Firmware_Library/GD32F30x_standard_peripheral/Source\gd32f30x_exmc.c ****     \brief      disable NAND bank
 358:C:/Users/49542/Desktop/GD32F30x_Demo_Suites_V2.0.0/GD32F30x_Demo_Suites_V2.0.0/GD32F30x_Firmware_Library/GD32F30x_standard_peripheral/Source\gd32f30x_exmc.c ****     \param[in]  exmc_nand_bank: specifie the NAND bank
 359:C:/Users/49542/Desktop/GD32F30x_Demo_Suites_V2.0.0/GD32F30x_Demo_Suites_V2.0.0/GD32F30x_Firmware_Library/GD32F30x_standard_peripheral/Source\gd32f30x_exmc.c ****                 only one parameter can be selected which is shown as below:
 360:C:/Users/49542/Desktop/GD32F30x_Demo_Suites_V2.0.0/GD32F30x_Demo_Suites_V2.0.0/GD32F30x_Firmware_Library/GD32F30x_standard_peripheral/Source\gd32f30x_exmc.c ****       \arg        EXMC_BANKx_NAND(x=1,2)
 361:C:/Users/49542/Desktop/GD32F30x_Demo_Suites_V2.0.0/GD32F30x_Demo_Suites_V2.0.0/GD32F30x_Firmware_Library/GD32F30x_standard_peripheral/Source\gd32f30x_exmc.c ****     \param[out] none
 362:C:/Users/49542/Desktop/GD32F30x_Demo_Suites_V2.0.0/GD32F30x_Demo_Suites_V2.0.0/GD32F30x_Firmware_Library/GD32F30x_standard_peripheral/Source\gd32f30x_exmc.c ****     \retval     none
 363:C:/Users/49542/Desktop/GD32F30x_Demo_Suites_V2.0.0/GD32F30x_Demo_Suites_V2.0.0/GD32F30x_Firmware_Library/GD32F30x_standard_peripheral/Source\gd32f30x_exmc.c **** */
 364:C:/Users/49542/Desktop/GD32F30x_Demo_Suites_V2.0.0/GD32F30x_Demo_Suites_V2.0.0/GD32F30x_Firmware_Library/GD32F30x_standard_peripheral/Source\gd32f30x_exmc.c **** void exmc_nand_disable(uint32_t exmc_nand_bank)
 365:C:/Users/49542/Desktop/GD32F30x_Demo_Suites_V2.0.0/GD32F30x_Demo_Suites_V2.0.0/GD32F30x_Firmware_Library/GD32F30x_standard_peripheral/Source\gd32f30x_exmc.c **** {
 689              		.loc 1 365 0
 690              		.cfi_startproc
 691              		@ args = 0, pretend = 0, frame = 0
 692              		@ frame_needed = 0, uses_anonymous_args = 0
 693              		@ link register save eliminated.
 694              	.LVL35:
 366:C:/Users/49542/Desktop/GD32F30x_Demo_Suites_V2.0.0/GD32F30x_Demo_Suites_V2.0.0/GD32F30x_Firmware_Library/GD32F30x_standard_peripheral/Source\gd32f30x_exmc.c ****     EXMC_NPCTL(exmc_nand_bank) &= (~EXMC_NPCTL_NDBKEN);
 695              		.loc 1 366 0
ARM GAS  C:\Users\49542\AppData\Local\Temp\ccCfvzZ4.s 			page 20


 696 0000 00F1A060 		add	r0, r0, #83886080
 697              	.LVL36:
 698 0004 0230     		adds	r0, r0, #2
 699              	.LVL37:
 700 0006 4001     		lsls	r0, r0, #5
 701              	.LVL38:
 702 0008 0368     		ldr	r3, [r0]
 703 000a 23F00403 		bic	r3, r3, #4
 704 000e 0360     		str	r3, [r0]
 367:C:/Users/49542/Desktop/GD32F30x_Demo_Suites_V2.0.0/GD32F30x_Demo_Suites_V2.0.0/GD32F30x_Firmware_Library/GD32F30x_standard_peripheral/Source\gd32f30x_exmc.c **** }
 705              		.loc 1 367 0
 706 0010 7047     		bx	lr
 707              		.cfi_endproc
 708              	.LFE125:
 710              		.section	.text.exmc_pccard_deinit,"ax",%progbits
 711              		.align	1
 712              		.global	exmc_pccard_deinit
 713              		.syntax unified
 714              		.thumb
 715              		.thumb_func
 716              		.fpu fpv4-sp-d16
 718              	exmc_pccard_deinit:
 719              	.LFB126:
 368:C:/Users/49542/Desktop/GD32F30x_Demo_Suites_V2.0.0/GD32F30x_Demo_Suites_V2.0.0/GD32F30x_Firmware_Library/GD32F30x_standard_peripheral/Source\gd32f30x_exmc.c **** 
 369:C:/Users/49542/Desktop/GD32F30x_Demo_Suites_V2.0.0/GD32F30x_Demo_Suites_V2.0.0/GD32F30x_Firmware_Library/GD32F30x_standard_peripheral/Source\gd32f30x_exmc.c **** /*!
 370:C:/Users/49542/Desktop/GD32F30x_Demo_Suites_V2.0.0/GD32F30x_Demo_Suites_V2.0.0/GD32F30x_Firmware_Library/GD32F30x_standard_peripheral/Source\gd32f30x_exmc.c ****     \brief      deinitialize EXMC PC card bank
 371:C:/Users/49542/Desktop/GD32F30x_Demo_Suites_V2.0.0/GD32F30x_Demo_Suites_V2.0.0/GD32F30x_Firmware_Library/GD32F30x_standard_peripheral/Source\gd32f30x_exmc.c ****     \param[in]  none
 372:C:/Users/49542/Desktop/GD32F30x_Demo_Suites_V2.0.0/GD32F30x_Demo_Suites_V2.0.0/GD32F30x_Firmware_Library/GD32F30x_standard_peripheral/Source\gd32f30x_exmc.c ****     \param[out] none
 373:C:/Users/49542/Desktop/GD32F30x_Demo_Suites_V2.0.0/GD32F30x_Demo_Suites_V2.0.0/GD32F30x_Firmware_Library/GD32F30x_standard_peripheral/Source\gd32f30x_exmc.c ****     \retval     none
 374:C:/Users/49542/Desktop/GD32F30x_Demo_Suites_V2.0.0/GD32F30x_Demo_Suites_V2.0.0/GD32F30x_Firmware_Library/GD32F30x_standard_peripheral/Source\gd32f30x_exmc.c **** */
 375:C:/Users/49542/Desktop/GD32F30x_Demo_Suites_V2.0.0/GD32F30x_Demo_Suites_V2.0.0/GD32F30x_Firmware_Library/GD32F30x_standard_peripheral/Source\gd32f30x_exmc.c **** void exmc_pccard_deinit(void)
 376:C:/Users/49542/Desktop/GD32F30x_Demo_Suites_V2.0.0/GD32F30x_Demo_Suites_V2.0.0/GD32F30x_Firmware_Library/GD32F30x_standard_peripheral/Source\gd32f30x_exmc.c **** {
 720              		.loc 1 376 0
 721              		.cfi_startproc
 722              		@ args = 0, pretend = 0, frame = 0
 723              		@ frame_needed = 0, uses_anonymous_args = 0
 724              		@ link register save eliminated.
 377:C:/Users/49542/Desktop/GD32F30x_Demo_Suites_V2.0.0/GD32F30x_Demo_Suites_V2.0.0/GD32F30x_Firmware_Library/GD32F30x_standard_peripheral/Source\gd32f30x_exmc.c ****     /* EXMC_BANK3_PCCARD */
 378:C:/Users/49542/Desktop/GD32F30x_Demo_Suites_V2.0.0/GD32F30x_Demo_Suites_V2.0.0/GD32F30x_Firmware_Library/GD32F30x_standard_peripheral/Source\gd32f30x_exmc.c ****     EXMC_NPCTL3 = BANK3_NPCTL_RESET;
 725              		.loc 1 378 0
 726 0000 074B     		ldr	r3, .L25
 727 0002 1822     		movs	r2, #24
 728 0004 1A60     		str	r2, [r3]
 379:C:/Users/49542/Desktop/GD32F30x_Demo_Suites_V2.0.0/GD32F30x_Demo_Suites_V2.0.0/GD32F30x_Firmware_Library/GD32F30x_standard_peripheral/Source\gd32f30x_exmc.c ****     EXMC_NPINTEN3 = BANK3_NPINTEN_RESET;
 729              		.loc 1 379 0
 730 0006 0433     		adds	r3, r3, #4
 731 0008 4322     		movs	r2, #67
 732 000a 1A60     		str	r2, [r3]
 380:C:/Users/49542/Desktop/GD32F30x_Demo_Suites_V2.0.0/GD32F30x_Demo_Suites_V2.0.0/GD32F30x_Firmware_Library/GD32F30x_standard_peripheral/Source\gd32f30x_exmc.c ****     EXMC_NPCTCFG3 = BANK3_NPCTCFG_RESET;
 733              		.loc 1 380 0
 734 000c 4FF0FC33 		mov	r3, #-50529028
 735 0010 044A     		ldr	r2, .L25+4
 736 0012 1360     		str	r3, [r2]
 381:C:/Users/49542/Desktop/GD32F30x_Demo_Suites_V2.0.0/GD32F30x_Demo_Suites_V2.0.0/GD32F30x_Firmware_Library/GD32F30x_standard_peripheral/Source\gd32f30x_exmc.c ****     EXMC_NPATCFG3 = BANK3_NPATCFG_RESET;
 737              		.loc 1 381 0
 738 0014 0432     		adds	r2, r2, #4
 739 0016 1360     		str	r3, [r2]
ARM GAS  C:\Users\49542\AppData\Local\Temp\ccCfvzZ4.s 			page 21


 382:C:/Users/49542/Desktop/GD32F30x_Demo_Suites_V2.0.0/GD32F30x_Demo_Suites_V2.0.0/GD32F30x_Firmware_Library/GD32F30x_standard_peripheral/Source\gd32f30x_exmc.c ****     EXMC_PIOTCFG3 = BANK3_PIOTCFG3_RESET;
 740              		.loc 1 382 0
 741 0018 0432     		adds	r2, r2, #4
 742 001a 1360     		str	r3, [r2]
 383:C:/Users/49542/Desktop/GD32F30x_Demo_Suites_V2.0.0/GD32F30x_Demo_Suites_V2.0.0/GD32F30x_Firmware_Library/GD32F30x_standard_peripheral/Source\gd32f30x_exmc.c **** }
 743              		.loc 1 383 0
 744 001c 7047     		bx	lr
 745              	.L26:
 746 001e 00BF     		.align	2
 747              	.L25:
 748 0020 A00000A0 		.word	-1610612576
 749 0024 A80000A0 		.word	-1610612568
 750              		.cfi_endproc
 751              	.LFE126:
 753              		.section	.text.exmc_pccard_struct_para_init,"ax",%progbits
 754              		.align	1
 755              		.global	exmc_pccard_struct_para_init
 756              		.syntax unified
 757              		.thumb
 758              		.thumb_func
 759              		.fpu fpv4-sp-d16
 761              	exmc_pccard_struct_para_init:
 762              	.LFB127:
 384:C:/Users/49542/Desktop/GD32F30x_Demo_Suites_V2.0.0/GD32F30x_Demo_Suites_V2.0.0/GD32F30x_Firmware_Library/GD32F30x_standard_peripheral/Source\gd32f30x_exmc.c **** 
 385:C:/Users/49542/Desktop/GD32F30x_Demo_Suites_V2.0.0/GD32F30x_Demo_Suites_V2.0.0/GD32F30x_Firmware_Library/GD32F30x_standard_peripheral/Source\gd32f30x_exmc.c **** /*!
 386:C:/Users/49542/Desktop/GD32F30x_Demo_Suites_V2.0.0/GD32F30x_Demo_Suites_V2.0.0/GD32F30x_Firmware_Library/GD32F30x_standard_peripheral/Source\gd32f30x_exmc.c ****     \brief      initialize exmc_pccard_parameter_struct parameter with the default values
 387:C:/Users/49542/Desktop/GD32F30x_Demo_Suites_V2.0.0/GD32F30x_Demo_Suites_V2.0.0/GD32F30x_Firmware_Library/GD32F30x_standard_peripheral/Source\gd32f30x_exmc.c ****     \param[in]  none
 388:C:/Users/49542/Desktop/GD32F30x_Demo_Suites_V2.0.0/GD32F30x_Demo_Suites_V2.0.0/GD32F30x_Firmware_Library/GD32F30x_standard_peripheral/Source\gd32f30x_exmc.c ****     \param[out] the initialized struct exmc_pccard_parameter_struct pointer
 389:C:/Users/49542/Desktop/GD32F30x_Demo_Suites_V2.0.0/GD32F30x_Demo_Suites_V2.0.0/GD32F30x_Firmware_Library/GD32F30x_standard_peripheral/Source\gd32f30x_exmc.c ****     \retval     none
 390:C:/Users/49542/Desktop/GD32F30x_Demo_Suites_V2.0.0/GD32F30x_Demo_Suites_V2.0.0/GD32F30x_Firmware_Library/GD32F30x_standard_peripheral/Source\gd32f30x_exmc.c **** */
 391:C:/Users/49542/Desktop/GD32F30x_Demo_Suites_V2.0.0/GD32F30x_Demo_Suites_V2.0.0/GD32F30x_Firmware_Library/GD32F30x_standard_peripheral/Source\gd32f30x_exmc.c **** void exmc_pccard_struct_para_init(exmc_pccard_parameter_struct* exmc_pccard_init_struct)
 392:C:/Users/49542/Desktop/GD32F30x_Demo_Suites_V2.0.0/GD32F30x_Demo_Suites_V2.0.0/GD32F30x_Firmware_Library/GD32F30x_standard_peripheral/Source\gd32f30x_exmc.c **** {
 763              		.loc 1 392 0
 764              		.cfi_startproc
 765              		@ args = 0, pretend = 0, frame = 0
 766              		@ frame_needed = 0, uses_anonymous_args = 0
 767              		@ link register save eliminated.
 768              	.LVL39:
 393:C:/Users/49542/Desktop/GD32F30x_Demo_Suites_V2.0.0/GD32F30x_Demo_Suites_V2.0.0/GD32F30x_Firmware_Library/GD32F30x_standard_peripheral/Source\gd32f30x_exmc.c ****     /* configure the structure with default values */
 394:C:/Users/49542/Desktop/GD32F30x_Demo_Suites_V2.0.0/GD32F30x_Demo_Suites_V2.0.0/GD32F30x_Firmware_Library/GD32F30x_standard_peripheral/Source\gd32f30x_exmc.c ****     exmc_pccard_init_struct->wait_feature = DISABLE;
 769              		.loc 1 394 0
 770 0000 0023     		movs	r3, #0
 771 0002 8360     		str	r3, [r0, #8]
 395:C:/Users/49542/Desktop/GD32F30x_Demo_Suites_V2.0.0/GD32F30x_Demo_Suites_V2.0.0/GD32F30x_Firmware_Library/GD32F30x_standard_peripheral/Source\gd32f30x_exmc.c ****     exmc_pccard_init_struct->ctr_latency = 0x0U;
 772              		.loc 1 395 0
 773 0004 4360     		str	r3, [r0, #4]
 396:C:/Users/49542/Desktop/GD32F30x_Demo_Suites_V2.0.0/GD32F30x_Demo_Suites_V2.0.0/GD32F30x_Firmware_Library/GD32F30x_standard_peripheral/Source\gd32f30x_exmc.c ****     exmc_pccard_init_struct->atr_latency = 0x0U;
 774              		.loc 1 396 0
 775 0006 0360     		str	r3, [r0]
 397:C:/Users/49542/Desktop/GD32F30x_Demo_Suites_V2.0.0/GD32F30x_Demo_Suites_V2.0.0/GD32F30x_Firmware_Library/GD32F30x_standard_peripheral/Source\gd32f30x_exmc.c ****     exmc_pccard_init_struct->common_space_timing->setuptime = 0xFCU;
 776              		.loc 1 397 0
 777 0008 C268     		ldr	r2, [r0, #12]
 778 000a FC23     		movs	r3, #252
 779 000c D360     		str	r3, [r2, #12]
 398:C:/Users/49542/Desktop/GD32F30x_Demo_Suites_V2.0.0/GD32F30x_Demo_Suites_V2.0.0/GD32F30x_Firmware_Library/GD32F30x_standard_peripheral/Source\gd32f30x_exmc.c ****     exmc_pccard_init_struct->common_space_timing->waittime = 0xFCU;
 780              		.loc 1 398 0
 781 000e C268     		ldr	r2, [r0, #12]
ARM GAS  C:\Users\49542\AppData\Local\Temp\ccCfvzZ4.s 			page 22


 782 0010 9360     		str	r3, [r2, #8]
 399:C:/Users/49542/Desktop/GD32F30x_Demo_Suites_V2.0.0/GD32F30x_Demo_Suites_V2.0.0/GD32F30x_Firmware_Library/GD32F30x_standard_peripheral/Source\gd32f30x_exmc.c ****     exmc_pccard_init_struct->common_space_timing->holdtime = 0xFCU;
 783              		.loc 1 399 0
 784 0012 C268     		ldr	r2, [r0, #12]
 785 0014 5360     		str	r3, [r2, #4]
 400:C:/Users/49542/Desktop/GD32F30x_Demo_Suites_V2.0.0/GD32F30x_Demo_Suites_V2.0.0/GD32F30x_Firmware_Library/GD32F30x_standard_peripheral/Source\gd32f30x_exmc.c ****     exmc_pccard_init_struct->common_space_timing->databus_hiztime = 0xFCU;
 786              		.loc 1 400 0
 787 0016 C268     		ldr	r2, [r0, #12]
 788 0018 1360     		str	r3, [r2]
 401:C:/Users/49542/Desktop/GD32F30x_Demo_Suites_V2.0.0/GD32F30x_Demo_Suites_V2.0.0/GD32F30x_Firmware_Library/GD32F30x_standard_peripheral/Source\gd32f30x_exmc.c ****     exmc_pccard_init_struct->attribute_space_timing->setuptime = 0xFCU;
 789              		.loc 1 401 0
 790 001a 0269     		ldr	r2, [r0, #16]
 791 001c D360     		str	r3, [r2, #12]
 402:C:/Users/49542/Desktop/GD32F30x_Demo_Suites_V2.0.0/GD32F30x_Demo_Suites_V2.0.0/GD32F30x_Firmware_Library/GD32F30x_standard_peripheral/Source\gd32f30x_exmc.c ****     exmc_pccard_init_struct->attribute_space_timing->waittime = 0xFCU;
 792              		.loc 1 402 0
 793 001e 0269     		ldr	r2, [r0, #16]
 794 0020 9360     		str	r3, [r2, #8]
 403:C:/Users/49542/Desktop/GD32F30x_Demo_Suites_V2.0.0/GD32F30x_Demo_Suites_V2.0.0/GD32F30x_Firmware_Library/GD32F30x_standard_peripheral/Source\gd32f30x_exmc.c ****     exmc_pccard_init_struct->attribute_space_timing->holdtime = 0xFCU;
 795              		.loc 1 403 0
 796 0022 0269     		ldr	r2, [r0, #16]
 797 0024 5360     		str	r3, [r2, #4]
 404:C:/Users/49542/Desktop/GD32F30x_Demo_Suites_V2.0.0/GD32F30x_Demo_Suites_V2.0.0/GD32F30x_Firmware_Library/GD32F30x_standard_peripheral/Source\gd32f30x_exmc.c ****     exmc_pccard_init_struct->attribute_space_timing->databus_hiztime = 0xFCU;
 798              		.loc 1 404 0
 799 0026 0269     		ldr	r2, [r0, #16]
 800 0028 1360     		str	r3, [r2]
 405:C:/Users/49542/Desktop/GD32F30x_Demo_Suites_V2.0.0/GD32F30x_Demo_Suites_V2.0.0/GD32F30x_Firmware_Library/GD32F30x_standard_peripheral/Source\gd32f30x_exmc.c ****     exmc_pccard_init_struct->io_space_timing->setuptime = 0xFCU;
 801              		.loc 1 405 0
 802 002a 4269     		ldr	r2, [r0, #20]
 803 002c D360     		str	r3, [r2, #12]
 406:C:/Users/49542/Desktop/GD32F30x_Demo_Suites_V2.0.0/GD32F30x_Demo_Suites_V2.0.0/GD32F30x_Firmware_Library/GD32F30x_standard_peripheral/Source\gd32f30x_exmc.c ****     exmc_pccard_init_struct->io_space_timing->waittime = 0xFCU;
 804              		.loc 1 406 0
 805 002e 4269     		ldr	r2, [r0, #20]
 806 0030 9360     		str	r3, [r2, #8]
 407:C:/Users/49542/Desktop/GD32F30x_Demo_Suites_V2.0.0/GD32F30x_Demo_Suites_V2.0.0/GD32F30x_Firmware_Library/GD32F30x_standard_peripheral/Source\gd32f30x_exmc.c ****     exmc_pccard_init_struct->io_space_timing->holdtime = 0xFCU;
 807              		.loc 1 407 0
 808 0032 4269     		ldr	r2, [r0, #20]
 809 0034 5360     		str	r3, [r2, #4]
 408:C:/Users/49542/Desktop/GD32F30x_Demo_Suites_V2.0.0/GD32F30x_Demo_Suites_V2.0.0/GD32F30x_Firmware_Library/GD32F30x_standard_peripheral/Source\gd32f30x_exmc.c ****     exmc_pccard_init_struct->io_space_timing->databus_hiztime = 0xFCU;
 810              		.loc 1 408 0
 811 0036 4269     		ldr	r2, [r0, #20]
 812 0038 1360     		str	r3, [r2]
 409:C:/Users/49542/Desktop/GD32F30x_Demo_Suites_V2.0.0/GD32F30x_Demo_Suites_V2.0.0/GD32F30x_Firmware_Library/GD32F30x_standard_peripheral/Source\gd32f30x_exmc.c **** }
 813              		.loc 1 409 0
 814 003a 7047     		bx	lr
 815              		.cfi_endproc
 816              	.LFE127:
 818              		.section	.text.exmc_pccard_init,"ax",%progbits
 819              		.align	1
 820              		.global	exmc_pccard_init
 821              		.syntax unified
 822              		.thumb
 823              		.thumb_func
 824              		.fpu fpv4-sp-d16
 826              	exmc_pccard_init:
 827              	.LFB128:
 410:C:/Users/49542/Desktop/GD32F30x_Demo_Suites_V2.0.0/GD32F30x_Demo_Suites_V2.0.0/GD32F30x_Firmware_Library/GD32F30x_standard_peripheral/Source\gd32f30x_exmc.c **** 
 411:C:/Users/49542/Desktop/GD32F30x_Demo_Suites_V2.0.0/GD32F30x_Demo_Suites_V2.0.0/GD32F30x_Firmware_Library/GD32F30x_standard_peripheral/Source\gd32f30x_exmc.c **** /*!
ARM GAS  C:\Users\49542\AppData\Local\Temp\ccCfvzZ4.s 			page 23


 412:C:/Users/49542/Desktop/GD32F30x_Demo_Suites_V2.0.0/GD32F30x_Demo_Suites_V2.0.0/GD32F30x_Firmware_Library/GD32F30x_standard_peripheral/Source\gd32f30x_exmc.c ****     \brief      initialize EXMC PC card bank
 413:C:/Users/49542/Desktop/GD32F30x_Demo_Suites_V2.0.0/GD32F30x_Demo_Suites_V2.0.0/GD32F30x_Firmware_Library/GD32F30x_standard_peripheral/Source\gd32f30x_exmc.c ****     \param[in]  exmc_pccard_parameter_struct: configure the EXMC NAND parameter
 414:C:/Users/49542/Desktop/GD32F30x_Demo_Suites_V2.0.0/GD32F30x_Demo_Suites_V2.0.0/GD32F30x_Firmware_Library/GD32F30x_standard_peripheral/Source\gd32f30x_exmc.c ****                   atr_latency: EXMC_ALE_RE_DELAY_x_HCLK,x=1..16
 415:C:/Users/49542/Desktop/GD32F30x_Demo_Suites_V2.0.0/GD32F30x_Demo_Suites_V2.0.0/GD32F30x_Firmware_Library/GD32F30x_standard_peripheral/Source\gd32f30x_exmc.c ****                   ctr_latency: EXMC_CLE_RE_DELAY_x_HCLK,x=1..16
 416:C:/Users/49542/Desktop/GD32F30x_Demo_Suites_V2.0.0/GD32F30x_Demo_Suites_V2.0.0/GD32F30x_Firmware_Library/GD32F30x_standard_peripheral/Source\gd32f30x_exmc.c ****                   wait_feature: ENABLE or DISABLE
 417:C:/Users/49542/Desktop/GD32F30x_Demo_Suites_V2.0.0/GD32F30x_Demo_Suites_V2.0.0/GD32F30x_Firmware_Library/GD32F30x_standard_peripheral/Source\gd32f30x_exmc.c ****                   common_space_timing: struct exmc_nand_pccard_timing_parameter_struct set the time
 418:C:/Users/49542/Desktop/GD32F30x_Demo_Suites_V2.0.0/GD32F30x_Demo_Suites_V2.0.0/GD32F30x_Firmware_Library/GD32F30x_standard_peripheral/Source\gd32f30x_exmc.c ****                   attribute_space_timing: struct exmc_nand_pccard_timing_parameter_struct set the t
 419:C:/Users/49542/Desktop/GD32F30x_Demo_Suites_V2.0.0/GD32F30x_Demo_Suites_V2.0.0/GD32F30x_Firmware_Library/GD32F30x_standard_peripheral/Source\gd32f30x_exmc.c ****                   io_space_timing: exmc_nand_pccard_timing_parameter_struct set the time
 420:C:/Users/49542/Desktop/GD32F30x_Demo_Suites_V2.0.0/GD32F30x_Demo_Suites_V2.0.0/GD32F30x_Firmware_Library/GD32F30x_standard_peripheral/Source\gd32f30x_exmc.c ****     \param[out] none
 421:C:/Users/49542/Desktop/GD32F30x_Demo_Suites_V2.0.0/GD32F30x_Demo_Suites_V2.0.0/GD32F30x_Firmware_Library/GD32F30x_standard_peripheral/Source\gd32f30x_exmc.c ****     \retval     none
 422:C:/Users/49542/Desktop/GD32F30x_Demo_Suites_V2.0.0/GD32F30x_Demo_Suites_V2.0.0/GD32F30x_Firmware_Library/GD32F30x_standard_peripheral/Source\gd32f30x_exmc.c **** */
 423:C:/Users/49542/Desktop/GD32F30x_Demo_Suites_V2.0.0/GD32F30x_Demo_Suites_V2.0.0/GD32F30x_Firmware_Library/GD32F30x_standard_peripheral/Source\gd32f30x_exmc.c **** void exmc_pccard_init(exmc_pccard_parameter_struct* exmc_pccard_init_struct)
 424:C:/Users/49542/Desktop/GD32F30x_Demo_Suites_V2.0.0/GD32F30x_Demo_Suites_V2.0.0/GD32F30x_Firmware_Library/GD32F30x_standard_peripheral/Source\gd32f30x_exmc.c **** {
 828              		.loc 1 424 0
 829              		.cfi_startproc
 830              		@ args = 0, pretend = 0, frame = 0
 831              		@ frame_needed = 0, uses_anonymous_args = 0
 832              		@ link register save eliminated.
 833              	.LVL40:
 425:C:/Users/49542/Desktop/GD32F30x_Demo_Suites_V2.0.0/GD32F30x_Demo_Suites_V2.0.0/GD32F30x_Firmware_Library/GD32F30x_standard_peripheral/Source\gd32f30x_exmc.c ****     /* configure the EXMC bank3 PC card control register */
 426:C:/Users/49542/Desktop/GD32F30x_Demo_Suites_V2.0.0/GD32F30x_Demo_Suites_V2.0.0/GD32F30x_Firmware_Library/GD32F30x_standard_peripheral/Source\gd32f30x_exmc.c ****     EXMC_NPCTL3 = (uint32_t)(exmc_pccard_init_struct->wait_feature << NPCTL_NDWTEN_OFFSET) |
 834              		.loc 1 426 0
 835 0000 8268     		ldr	r2, [r0, #8]
 427:C:/Users/49542/Desktop/GD32F30x_Demo_Suites_V2.0.0/GD32F30x_Demo_Suites_V2.0.0/GD32F30x_Firmware_Library/GD32F30x_standard_peripheral/Source\gd32f30x_exmc.c ****                              EXMC_NAND_DATABUS_WIDTH_16B |  
 428:C:/Users/49542/Desktop/GD32F30x_Demo_Suites_V2.0.0/GD32F30x_Demo_Suites_V2.0.0/GD32F30x_Firmware_Library/GD32F30x_standard_peripheral/Source\gd32f30x_exmc.c ****                              exmc_pccard_init_struct->ctr_latency |
 836              		.loc 1 428 0
 837 0002 4368     		ldr	r3, [r0, #4]
 427:C:/Users/49542/Desktop/GD32F30x_Demo_Suites_V2.0.0/GD32F30x_Demo_Suites_V2.0.0/GD32F30x_Firmware_Library/GD32F30x_standard_peripheral/Source\gd32f30x_exmc.c ****                              EXMC_NAND_DATABUS_WIDTH_16B |  
 838              		.loc 1 427 0
 839 0004 43EA4203 		orr	r3, r3, r2, lsl #1
 429:C:/Users/49542/Desktop/GD32F30x_Demo_Suites_V2.0.0/GD32F30x_Demo_Suites_V2.0.0/GD32F30x_Firmware_Library/GD32F30x_standard_peripheral/Source\gd32f30x_exmc.c ****                              exmc_pccard_init_struct->atr_latency ;
 840              		.loc 1 429 0
 841 0008 0268     		ldr	r2, [r0]
 428:C:/Users/49542/Desktop/GD32F30x_Demo_Suites_V2.0.0/GD32F30x_Demo_Suites_V2.0.0/GD32F30x_Firmware_Library/GD32F30x_standard_peripheral/Source\gd32f30x_exmc.c ****                              exmc_pccard_init_struct->atr_latency ;
 842              		.loc 1 428 0
 843 000a 1343     		orrs	r3, r3, r2
 844 000c 43F01003 		orr	r3, r3, #16
 426:C:/Users/49542/Desktop/GD32F30x_Demo_Suites_V2.0.0/GD32F30x_Demo_Suites_V2.0.0/GD32F30x_Firmware_Library/GD32F30x_standard_peripheral/Source\gd32f30x_exmc.c ****                              EXMC_NAND_DATABUS_WIDTH_16B |  
 845              		.loc 1 426 0
 846 0010 1E4A     		ldr	r2, .L29
 847 0012 1360     		str	r3, [r2]
 430:C:/Users/49542/Desktop/GD32F30x_Demo_Suites_V2.0.0/GD32F30x_Demo_Suites_V2.0.0/GD32F30x_Firmware_Library/GD32F30x_standard_peripheral/Source\gd32f30x_exmc.c **** 
 431:C:/Users/49542/Desktop/GD32F30x_Demo_Suites_V2.0.0/GD32F30x_Demo_Suites_V2.0.0/GD32F30x_Firmware_Library/GD32F30x_standard_peripheral/Source\gd32f30x_exmc.c ****     /* configure the EXMC bank3 PC card common space timing configuration register */
 432:C:/Users/49542/Desktop/GD32F30x_Demo_Suites_V2.0.0/GD32F30x_Demo_Suites_V2.0.0/GD32F30x_Firmware_Library/GD32F30x_standard_peripheral/Source\gd32f30x_exmc.c ****     EXMC_NPCTCFG3 = (uint32_t)((exmc_pccard_init_struct->common_space_timing->setuptime - 1U)& EXMC
 848              		.loc 1 432 0
 849 0014 C168     		ldr	r1, [r0, #12]
 850 0016 CB68     		ldr	r3, [r1, #12]
 851 0018 013B     		subs	r3, r3, #1
 852 001a DBB2     		uxtb	r3, r3
 433:C:/Users/49542/Desktop/GD32F30x_Demo_Suites_V2.0.0/GD32F30x_Demo_Suites_V2.0.0/GD32F30x_Firmware_Library/GD32F30x_standard_peripheral/Source\gd32f30x_exmc.c ****                               (((exmc_pccard_init_struct->common_space_timing->waittime - 1U) << NP
 853              		.loc 1 433 0
 854 001c 8A68     		ldr	r2, [r1, #8]
 855 001e 013A     		subs	r2, r2, #1
 856 0020 1202     		lsls	r2, r2, #8
 857 0022 92B2     		uxth	r2, r2
 432:C:/Users/49542/Desktop/GD32F30x_Demo_Suites_V2.0.0/GD32F30x_Demo_Suites_V2.0.0/GD32F30x_Firmware_Library/GD32F30x_standard_peripheral/Source\gd32f30x_exmc.c ****                               (((exmc_pccard_init_struct->common_space_timing->waittime - 1U) << NP
 858              		.loc 1 432 0
ARM GAS  C:\Users\49542\AppData\Local\Temp\ccCfvzZ4.s 			page 24


 859 0024 1343     		orrs	r3, r3, r2
 434:C:/Users/49542/Desktop/GD32F30x_Demo_Suites_V2.0.0/GD32F30x_Demo_Suites_V2.0.0/GD32F30x_Firmware_Library/GD32F30x_standard_peripheral/Source\gd32f30x_exmc.c ****                               ((exmc_pccard_init_struct->common_space_timing->holdtime << NPCTCFG_C
 860              		.loc 1 434 0
 861 0026 4A68     		ldr	r2, [r1, #4]
 862 0028 1204     		lsls	r2, r2, #16
 863 002a 02F47F02 		and	r2, r2, #16711680
 433:C:/Users/49542/Desktop/GD32F30x_Demo_Suites_V2.0.0/GD32F30x_Demo_Suites_V2.0.0/GD32F30x_Firmware_Library/GD32F30x_standard_peripheral/Source\gd32f30x_exmc.c ****                               (((exmc_pccard_init_struct->common_space_timing->waittime - 1U) << NP
 864              		.loc 1 433 0
 865 002e 1343     		orrs	r3, r3, r2
 435:C:/Users/49542/Desktop/GD32F30x_Demo_Suites_V2.0.0/GD32F30x_Demo_Suites_V2.0.0/GD32F30x_Firmware_Library/GD32F30x_standard_peripheral/Source\gd32f30x_exmc.c ****                               (((exmc_pccard_init_struct->common_space_timing->databus_hiztime - 1U
 866              		.loc 1 435 0
 867 0030 0A68     		ldr	r2, [r1]
 868 0032 013A     		subs	r2, r2, #1
 434:C:/Users/49542/Desktop/GD32F30x_Demo_Suites_V2.0.0/GD32F30x_Demo_Suites_V2.0.0/GD32F30x_Firmware_Library/GD32F30x_standard_peripheral/Source\gd32f30x_exmc.c ****                               ((exmc_pccard_init_struct->common_space_timing->holdtime << NPCTCFG_C
 869              		.loc 1 434 0
 870 0034 43EA0263 		orr	r3, r3, r2, lsl #24
 432:C:/Users/49542/Desktop/GD32F30x_Demo_Suites_V2.0.0/GD32F30x_Demo_Suites_V2.0.0/GD32F30x_Firmware_Library/GD32F30x_standard_peripheral/Source\gd32f30x_exmc.c ****                               (((exmc_pccard_init_struct->common_space_timing->waittime - 1U) << NP
 871              		.loc 1 432 0
 872 0038 154A     		ldr	r2, .L29+4
 873 003a 1360     		str	r3, [r2]
 436:C:/Users/49542/Desktop/GD32F30x_Demo_Suites_V2.0.0/GD32F30x_Demo_Suites_V2.0.0/GD32F30x_Firmware_Library/GD32F30x_standard_peripheral/Source\gd32f30x_exmc.c **** 
 437:C:/Users/49542/Desktop/GD32F30x_Demo_Suites_V2.0.0/GD32F30x_Demo_Suites_V2.0.0/GD32F30x_Firmware_Library/GD32F30x_standard_peripheral/Source\gd32f30x_exmc.c ****     /* configure the EXMC bank3 PC card attribute space timing configuration register */
 438:C:/Users/49542/Desktop/GD32F30x_Demo_Suites_V2.0.0/GD32F30x_Demo_Suites_V2.0.0/GD32F30x_Firmware_Library/GD32F30x_standard_peripheral/Source\gd32f30x_exmc.c ****     EXMC_NPATCFG3 = (uint32_t)((exmc_pccard_init_struct->attribute_space_timing->setuptime - 1U) & 
 874              		.loc 1 438 0
 875 003c 0169     		ldr	r1, [r0, #16]
 876 003e CB68     		ldr	r3, [r1, #12]
 877 0040 013B     		subs	r3, r3, #1
 878 0042 DBB2     		uxtb	r3, r3
 439:C:/Users/49542/Desktop/GD32F30x_Demo_Suites_V2.0.0/GD32F30x_Demo_Suites_V2.0.0/GD32F30x_Firmware_Library/GD32F30x_standard_peripheral/Source\gd32f30x_exmc.c ****                               (((exmc_pccard_init_struct->attribute_space_timing->waittime - 1U) <<
 879              		.loc 1 439 0
 880 0044 8A68     		ldr	r2, [r1, #8]
 881 0046 013A     		subs	r2, r2, #1
 882 0048 1202     		lsls	r2, r2, #8
 883 004a 92B2     		uxth	r2, r2
 438:C:/Users/49542/Desktop/GD32F30x_Demo_Suites_V2.0.0/GD32F30x_Demo_Suites_V2.0.0/GD32F30x_Firmware_Library/GD32F30x_standard_peripheral/Source\gd32f30x_exmc.c ****                               (((exmc_pccard_init_struct->attribute_space_timing->waittime - 1U) <<
 884              		.loc 1 438 0
 885 004c 1343     		orrs	r3, r3, r2
 440:C:/Users/49542/Desktop/GD32F30x_Demo_Suites_V2.0.0/GD32F30x_Demo_Suites_V2.0.0/GD32F30x_Firmware_Library/GD32F30x_standard_peripheral/Source\gd32f30x_exmc.c ****                               ((exmc_pccard_init_struct->attribute_space_timing->holdtime << NPATCF
 886              		.loc 1 440 0
 887 004e 4A68     		ldr	r2, [r1, #4]
 888 0050 1204     		lsls	r2, r2, #16
 889 0052 02F47F02 		and	r2, r2, #16711680
 439:C:/Users/49542/Desktop/GD32F30x_Demo_Suites_V2.0.0/GD32F30x_Demo_Suites_V2.0.0/GD32F30x_Firmware_Library/GD32F30x_standard_peripheral/Source\gd32f30x_exmc.c ****                               (((exmc_pccard_init_struct->attribute_space_timing->waittime - 1U) <<
 890              		.loc 1 439 0
 891 0056 1343     		orrs	r3, r3, r2
 441:C:/Users/49542/Desktop/GD32F30x_Demo_Suites_V2.0.0/GD32F30x_Demo_Suites_V2.0.0/GD32F30x_Firmware_Library/GD32F30x_standard_peripheral/Source\gd32f30x_exmc.c ****                               (((exmc_pccard_init_struct->attribute_space_timing->databus_hiztime -
 892              		.loc 1 441 0
 893 0058 0A68     		ldr	r2, [r1]
 894 005a 013A     		subs	r2, r2, #1
 440:C:/Users/49542/Desktop/GD32F30x_Demo_Suites_V2.0.0/GD32F30x_Demo_Suites_V2.0.0/GD32F30x_Firmware_Library/GD32F30x_standard_peripheral/Source\gd32f30x_exmc.c ****                               ((exmc_pccard_init_struct->attribute_space_timing->holdtime << NPATCF
 895              		.loc 1 440 0
 896 005c 43EA0263 		orr	r3, r3, r2, lsl #24
 438:C:/Users/49542/Desktop/GD32F30x_Demo_Suites_V2.0.0/GD32F30x_Demo_Suites_V2.0.0/GD32F30x_Firmware_Library/GD32F30x_standard_peripheral/Source\gd32f30x_exmc.c ****                               (((exmc_pccard_init_struct->attribute_space_timing->waittime - 1U) <<
 897              		.loc 1 438 0
 898 0060 0C4A     		ldr	r2, .L29+8
 899 0062 1360     		str	r3, [r2]
 442:C:/Users/49542/Desktop/GD32F30x_Demo_Suites_V2.0.0/GD32F30x_Demo_Suites_V2.0.0/GD32F30x_Firmware_Library/GD32F30x_standard_peripheral/Source\gd32f30x_exmc.c **** 
ARM GAS  C:\Users\49542\AppData\Local\Temp\ccCfvzZ4.s 			page 25


 443:C:/Users/49542/Desktop/GD32F30x_Demo_Suites_V2.0.0/GD32F30x_Demo_Suites_V2.0.0/GD32F30x_Firmware_Library/GD32F30x_standard_peripheral/Source\gd32f30x_exmc.c ****     /* configure the EXMC bank3 PC card io space timing configuration register */
 444:C:/Users/49542/Desktop/GD32F30x_Demo_Suites_V2.0.0/GD32F30x_Demo_Suites_V2.0.0/GD32F30x_Firmware_Library/GD32F30x_standard_peripheral/Source\gd32f30x_exmc.c ****     EXMC_PIOTCFG3 = (uint32_t)((exmc_pccard_init_struct->io_space_timing->setuptime - 1U) & EXMC_PI
 900              		.loc 1 444 0
 901 0064 4169     		ldr	r1, [r0, #20]
 902 0066 CB68     		ldr	r3, [r1, #12]
 903 0068 013B     		subs	r3, r3, #1
 904 006a DBB2     		uxtb	r3, r3
 445:C:/Users/49542/Desktop/GD32F30x_Demo_Suites_V2.0.0/GD32F30x_Demo_Suites_V2.0.0/GD32F30x_Firmware_Library/GD32F30x_standard_peripheral/Source\gd32f30x_exmc.c ****                               (((exmc_pccard_init_struct->io_space_timing->waittime - 1U) << PIOTCF
 905              		.loc 1 445 0
 906 006c 8A68     		ldr	r2, [r1, #8]
 907 006e 013A     		subs	r2, r2, #1
 908 0070 1202     		lsls	r2, r2, #8
 909 0072 92B2     		uxth	r2, r2
 444:C:/Users/49542/Desktop/GD32F30x_Demo_Suites_V2.0.0/GD32F30x_Demo_Suites_V2.0.0/GD32F30x_Firmware_Library/GD32F30x_standard_peripheral/Source\gd32f30x_exmc.c ****                               (((exmc_pccard_init_struct->io_space_timing->waittime - 1U) << PIOTCF
 910              		.loc 1 444 0
 911 0074 1343     		orrs	r3, r3, r2
 446:C:/Users/49542/Desktop/GD32F30x_Demo_Suites_V2.0.0/GD32F30x_Demo_Suites_V2.0.0/GD32F30x_Firmware_Library/GD32F30x_standard_peripheral/Source\gd32f30x_exmc.c ****                               ((exmc_pccard_init_struct->io_space_timing->holdtime << PIOTCFG_IOHLD
 912              		.loc 1 446 0
 913 0076 4A68     		ldr	r2, [r1, #4]
 914 0078 1204     		lsls	r2, r2, #16
 915 007a 02F47F02 		and	r2, r2, #16711680
 445:C:/Users/49542/Desktop/GD32F30x_Demo_Suites_V2.0.0/GD32F30x_Demo_Suites_V2.0.0/GD32F30x_Firmware_Library/GD32F30x_standard_peripheral/Source\gd32f30x_exmc.c ****                               (((exmc_pccard_init_struct->io_space_timing->waittime - 1U) << PIOTCF
 916              		.loc 1 445 0
 917 007e 1343     		orrs	r3, r3, r2
 447:C:/Users/49542/Desktop/GD32F30x_Demo_Suites_V2.0.0/GD32F30x_Demo_Suites_V2.0.0/GD32F30x_Firmware_Library/GD32F30x_standard_peripheral/Source\gd32f30x_exmc.c ****                               ((exmc_pccard_init_struct->io_space_timing->databus_hiztime << PIOTCF
 918              		.loc 1 447 0
 919 0080 0A68     		ldr	r2, [r1]
 446:C:/Users/49542/Desktop/GD32F30x_Demo_Suites_V2.0.0/GD32F30x_Demo_Suites_V2.0.0/GD32F30x_Firmware_Library/GD32F30x_standard_peripheral/Source\gd32f30x_exmc.c ****                               ((exmc_pccard_init_struct->io_space_timing->holdtime << PIOTCFG_IOHLD
 920              		.loc 1 446 0
 921 0082 43EA0263 		orr	r3, r3, r2, lsl #24
 444:C:/Users/49542/Desktop/GD32F30x_Demo_Suites_V2.0.0/GD32F30x_Demo_Suites_V2.0.0/GD32F30x_Firmware_Library/GD32F30x_standard_peripheral/Source\gd32f30x_exmc.c ****                               (((exmc_pccard_init_struct->io_space_timing->waittime - 1U) << PIOTCF
 922              		.loc 1 444 0
 923 0086 044A     		ldr	r2, .L29+12
 924 0088 1360     		str	r3, [r2]
 448:C:/Users/49542/Desktop/GD32F30x_Demo_Suites_V2.0.0/GD32F30x_Demo_Suites_V2.0.0/GD32F30x_Firmware_Library/GD32F30x_standard_peripheral/Source\gd32f30x_exmc.c **** }
 925              		.loc 1 448 0
 926 008a 7047     		bx	lr
 927              	.L30:
 928              		.align	2
 929              	.L29:
 930 008c A00000A0 		.word	-1610612576
 931 0090 A80000A0 		.word	-1610612568
 932 0094 AC0000A0 		.word	-1610612564
 933 0098 B00000A0 		.word	-1610612560
 934              		.cfi_endproc
 935              	.LFE128:
 937              		.section	.text.exmc_pccard_enable,"ax",%progbits
 938              		.align	1
 939              		.global	exmc_pccard_enable
 940              		.syntax unified
 941              		.thumb
 942              		.thumb_func
 943              		.fpu fpv4-sp-d16
 945              	exmc_pccard_enable:
 946              	.LFB129:
 449:C:/Users/49542/Desktop/GD32F30x_Demo_Suites_V2.0.0/GD32F30x_Demo_Suites_V2.0.0/GD32F30x_Firmware_Library/GD32F30x_standard_peripheral/Source\gd32f30x_exmc.c **** 
 450:C:/Users/49542/Desktop/GD32F30x_Demo_Suites_V2.0.0/GD32F30x_Demo_Suites_V2.0.0/GD32F30x_Firmware_Library/GD32F30x_standard_peripheral/Source\gd32f30x_exmc.c **** /*!
ARM GAS  C:\Users\49542\AppData\Local\Temp\ccCfvzZ4.s 			page 26


 451:C:/Users/49542/Desktop/GD32F30x_Demo_Suites_V2.0.0/GD32F30x_Demo_Suites_V2.0.0/GD32F30x_Firmware_Library/GD32F30x_standard_peripheral/Source\gd32f30x_exmc.c ****     \brief      enable PC Card Bank
 452:C:/Users/49542/Desktop/GD32F30x_Demo_Suites_V2.0.0/GD32F30x_Demo_Suites_V2.0.0/GD32F30x_Firmware_Library/GD32F30x_standard_peripheral/Source\gd32f30x_exmc.c ****     \param[in]  none
 453:C:/Users/49542/Desktop/GD32F30x_Demo_Suites_V2.0.0/GD32F30x_Demo_Suites_V2.0.0/GD32F30x_Firmware_Library/GD32F30x_standard_peripheral/Source\gd32f30x_exmc.c ****     \param[out] none
 454:C:/Users/49542/Desktop/GD32F30x_Demo_Suites_V2.0.0/GD32F30x_Demo_Suites_V2.0.0/GD32F30x_Firmware_Library/GD32F30x_standard_peripheral/Source\gd32f30x_exmc.c ****     \retval     none
 455:C:/Users/49542/Desktop/GD32F30x_Demo_Suites_V2.0.0/GD32F30x_Demo_Suites_V2.0.0/GD32F30x_Firmware_Library/GD32F30x_standard_peripheral/Source\gd32f30x_exmc.c **** */
 456:C:/Users/49542/Desktop/GD32F30x_Demo_Suites_V2.0.0/GD32F30x_Demo_Suites_V2.0.0/GD32F30x_Firmware_Library/GD32F30x_standard_peripheral/Source\gd32f30x_exmc.c **** void exmc_pccard_enable(void)
 457:C:/Users/49542/Desktop/GD32F30x_Demo_Suites_V2.0.0/GD32F30x_Demo_Suites_V2.0.0/GD32F30x_Firmware_Library/GD32F30x_standard_peripheral/Source\gd32f30x_exmc.c **** {
 947              		.loc 1 457 0
 948              		.cfi_startproc
 949              		@ args = 0, pretend = 0, frame = 0
 950              		@ frame_needed = 0, uses_anonymous_args = 0
 951              		@ link register save eliminated.
 458:C:/Users/49542/Desktop/GD32F30x_Demo_Suites_V2.0.0/GD32F30x_Demo_Suites_V2.0.0/GD32F30x_Firmware_Library/GD32F30x_standard_peripheral/Source\gd32f30x_exmc.c ****     EXMC_NPCTL3 |= EXMC_NPCTL_NDBKEN;
 952              		.loc 1 458 0
 953 0000 024A     		ldr	r2, .L32
 954 0002 1368     		ldr	r3, [r2]
 955 0004 43F00403 		orr	r3, r3, #4
 956 0008 1360     		str	r3, [r2]
 459:C:/Users/49542/Desktop/GD32F30x_Demo_Suites_V2.0.0/GD32F30x_Demo_Suites_V2.0.0/GD32F30x_Firmware_Library/GD32F30x_standard_peripheral/Source\gd32f30x_exmc.c **** }
 957              		.loc 1 459 0
 958 000a 7047     		bx	lr
 959              	.L33:
 960              		.align	2
 961              	.L32:
 962 000c A00000A0 		.word	-1610612576
 963              		.cfi_endproc
 964              	.LFE129:
 966              		.section	.text.exmc_pccard_disable,"ax",%progbits
 967              		.align	1
 968              		.global	exmc_pccard_disable
 969              		.syntax unified
 970              		.thumb
 971              		.thumb_func
 972              		.fpu fpv4-sp-d16
 974              	exmc_pccard_disable:
 975              	.LFB130:
 460:C:/Users/49542/Desktop/GD32F30x_Demo_Suites_V2.0.0/GD32F30x_Demo_Suites_V2.0.0/GD32F30x_Firmware_Library/GD32F30x_standard_peripheral/Source\gd32f30x_exmc.c **** 
 461:C:/Users/49542/Desktop/GD32F30x_Demo_Suites_V2.0.0/GD32F30x_Demo_Suites_V2.0.0/GD32F30x_Firmware_Library/GD32F30x_standard_peripheral/Source\gd32f30x_exmc.c **** /*!
 462:C:/Users/49542/Desktop/GD32F30x_Demo_Suites_V2.0.0/GD32F30x_Demo_Suites_V2.0.0/GD32F30x_Firmware_Library/GD32F30x_standard_peripheral/Source\gd32f30x_exmc.c ****     \brief      disable PC Card Bank
 463:C:/Users/49542/Desktop/GD32F30x_Demo_Suites_V2.0.0/GD32F30x_Demo_Suites_V2.0.0/GD32F30x_Firmware_Library/GD32F30x_standard_peripheral/Source\gd32f30x_exmc.c ****     \param[in]  none
 464:C:/Users/49542/Desktop/GD32F30x_Demo_Suites_V2.0.0/GD32F30x_Demo_Suites_V2.0.0/GD32F30x_Firmware_Library/GD32F30x_standard_peripheral/Source\gd32f30x_exmc.c ****     \param[out] none
 465:C:/Users/49542/Desktop/GD32F30x_Demo_Suites_V2.0.0/GD32F30x_Demo_Suites_V2.0.0/GD32F30x_Firmware_Library/GD32F30x_standard_peripheral/Source\gd32f30x_exmc.c ****     \retval     none
 466:C:/Users/49542/Desktop/GD32F30x_Demo_Suites_V2.0.0/GD32F30x_Demo_Suites_V2.0.0/GD32F30x_Firmware_Library/GD32F30x_standard_peripheral/Source\gd32f30x_exmc.c **** */
 467:C:/Users/49542/Desktop/GD32F30x_Demo_Suites_V2.0.0/GD32F30x_Demo_Suites_V2.0.0/GD32F30x_Firmware_Library/GD32F30x_standard_peripheral/Source\gd32f30x_exmc.c **** void exmc_pccard_disable(void)
 468:C:/Users/49542/Desktop/GD32F30x_Demo_Suites_V2.0.0/GD32F30x_Demo_Suites_V2.0.0/GD32F30x_Firmware_Library/GD32F30x_standard_peripheral/Source\gd32f30x_exmc.c **** {
 976              		.loc 1 468 0
 977              		.cfi_startproc
 978              		@ args = 0, pretend = 0, frame = 0
 979              		@ frame_needed = 0, uses_anonymous_args = 0
 980              		@ link register save eliminated.
 469:C:/Users/49542/Desktop/GD32F30x_Demo_Suites_V2.0.0/GD32F30x_Demo_Suites_V2.0.0/GD32F30x_Firmware_Library/GD32F30x_standard_peripheral/Source\gd32f30x_exmc.c ****    EXMC_NPCTL3 &= (~EXMC_NPCTL_NDBKEN);
 981              		.loc 1 469 0
 982 0000 024A     		ldr	r2, .L35
 983 0002 1368     		ldr	r3, [r2]
 984 0004 23F00403 		bic	r3, r3, #4
 985 0008 1360     		str	r3, [r2]
 470:C:/Users/49542/Desktop/GD32F30x_Demo_Suites_V2.0.0/GD32F30x_Demo_Suites_V2.0.0/GD32F30x_Firmware_Library/GD32F30x_standard_peripheral/Source\gd32f30x_exmc.c **** }
ARM GAS  C:\Users\49542\AppData\Local\Temp\ccCfvzZ4.s 			page 27


 986              		.loc 1 470 0
 987 000a 7047     		bx	lr
 988              	.L36:
 989              		.align	2
 990              	.L35:
 991 000c A00000A0 		.word	-1610612576
 992              		.cfi_endproc
 993              	.LFE130:
 995              		.section	.text.exmc_norsram_page_size_config,"ax",%progbits
 996              		.align	1
 997              		.global	exmc_norsram_page_size_config
 998              		.syntax unified
 999              		.thumb
 1000              		.thumb_func
 1001              		.fpu fpv4-sp-d16
 1003              	exmc_norsram_page_size_config:
 1004              	.LFB131:
 471:C:/Users/49542/Desktop/GD32F30x_Demo_Suites_V2.0.0/GD32F30x_Demo_Suites_V2.0.0/GD32F30x_Firmware_Library/GD32F30x_standard_peripheral/Source\gd32f30x_exmc.c **** 
 472:C:/Users/49542/Desktop/GD32F30x_Demo_Suites_V2.0.0/GD32F30x_Demo_Suites_V2.0.0/GD32F30x_Firmware_Library/GD32F30x_standard_peripheral/Source\gd32f30x_exmc.c **** /*!
 473:C:/Users/49542/Desktop/GD32F30x_Demo_Suites_V2.0.0/GD32F30x_Demo_Suites_V2.0.0/GD32F30x_Firmware_Library/GD32F30x_standard_peripheral/Source\gd32f30x_exmc.c ****     \brief      configure CRAM page size
 474:C:/Users/49542/Desktop/GD32F30x_Demo_Suites_V2.0.0/GD32F30x_Demo_Suites_V2.0.0/GD32F30x_Firmware_Library/GD32F30x_standard_peripheral/Source\gd32f30x_exmc.c ****     \param[in]  exmc_norsram_region: specifie the region of NOR/PSRAM bank
 475:C:/Users/49542/Desktop/GD32F30x_Demo_Suites_V2.0.0/GD32F30x_Demo_Suites_V2.0.0/GD32F30x_Firmware_Library/GD32F30x_standard_peripheral/Source\gd32f30x_exmc.c ****                 only one parameter can be selected which is shown as below:
 476:C:/Users/49542/Desktop/GD32F30x_Demo_Suites_V2.0.0/GD32F30x_Demo_Suites_V2.0.0/GD32F30x_Firmware_Library/GD32F30x_standard_peripheral/Source\gd32f30x_exmc.c ****       \arg        EXMC_BANK0_NORSRAM_REGIONx(x=0..3)
 477:C:/Users/49542/Desktop/GD32F30x_Demo_Suites_V2.0.0/GD32F30x_Demo_Suites_V2.0.0/GD32F30x_Firmware_Library/GD32F30x_standard_peripheral/Source\gd32f30x_exmc.c ****     \param[in]  page_size: CRAM page size
 478:C:/Users/49542/Desktop/GD32F30x_Demo_Suites_V2.0.0/GD32F30x_Demo_Suites_V2.0.0/GD32F30x_Firmware_Library/GD32F30x_standard_peripheral/Source\gd32f30x_exmc.c ****                 only one parameter can be selected which is shown as below:
 479:C:/Users/49542/Desktop/GD32F30x_Demo_Suites_V2.0.0/GD32F30x_Demo_Suites_V2.0.0/GD32F30x_Firmware_Library/GD32F30x_standard_peripheral/Source\gd32f30x_exmc.c ****       \arg        EXMC_CRAM_AUTO_SPLIT: the clock is generated only during synchronous access
 480:C:/Users/49542/Desktop/GD32F30x_Demo_Suites_V2.0.0/GD32F30x_Demo_Suites_V2.0.0/GD32F30x_Firmware_Library/GD32F30x_standard_peripheral/Source\gd32f30x_exmc.c ****       \arg        EXMC_CRAM_PAGE_SIZE_128_BYTES: page size is 128 bytes
 481:C:/Users/49542/Desktop/GD32F30x_Demo_Suites_V2.0.0/GD32F30x_Demo_Suites_V2.0.0/GD32F30x_Firmware_Library/GD32F30x_standard_peripheral/Source\gd32f30x_exmc.c ****       \arg        EXMC_CRAM_PAGE_SIZE_256_BYTES: page size is 256 bytes
 482:C:/Users/49542/Desktop/GD32F30x_Demo_Suites_V2.0.0/GD32F30x_Demo_Suites_V2.0.0/GD32F30x_Firmware_Library/GD32F30x_standard_peripheral/Source\gd32f30x_exmc.c ****       \arg        EXMC_CRAM_PAGE_SIZE_512_BYTES: page size is 512 bytes
 483:C:/Users/49542/Desktop/GD32F30x_Demo_Suites_V2.0.0/GD32F30x_Demo_Suites_V2.0.0/GD32F30x_Firmware_Library/GD32F30x_standard_peripheral/Source\gd32f30x_exmc.c ****       \arg        EXMC_CRAM_PAGE_SIZE_1024_BYTES: page size is 1024 bytes
 484:C:/Users/49542/Desktop/GD32F30x_Demo_Suites_V2.0.0/GD32F30x_Demo_Suites_V2.0.0/GD32F30x_Firmware_Library/GD32F30x_standard_peripheral/Source\gd32f30x_exmc.c ****     \param[out] none
 485:C:/Users/49542/Desktop/GD32F30x_Demo_Suites_V2.0.0/GD32F30x_Demo_Suites_V2.0.0/GD32F30x_Firmware_Library/GD32F30x_standard_peripheral/Source\gd32f30x_exmc.c ****     \retval     none
 486:C:/Users/49542/Desktop/GD32F30x_Demo_Suites_V2.0.0/GD32F30x_Demo_Suites_V2.0.0/GD32F30x_Firmware_Library/GD32F30x_standard_peripheral/Source\gd32f30x_exmc.c **** */
 487:C:/Users/49542/Desktop/GD32F30x_Demo_Suites_V2.0.0/GD32F30x_Demo_Suites_V2.0.0/GD32F30x_Firmware_Library/GD32F30x_standard_peripheral/Source\gd32f30x_exmc.c **** void exmc_norsram_page_size_config(uint32_t exmc_norsram_region, uint32_t page_size)
 488:C:/Users/49542/Desktop/GD32F30x_Demo_Suites_V2.0.0/GD32F30x_Demo_Suites_V2.0.0/GD32F30x_Firmware_Library/GD32F30x_standard_peripheral/Source\gd32f30x_exmc.c **** {
 1005              		.loc 1 488 0
 1006              		.cfi_startproc
 1007              		@ args = 0, pretend = 0, frame = 0
 1008              		@ frame_needed = 0, uses_anonymous_args = 0
 1009              		@ link register save eliminated.
 1010              	.LVL41:
 489:C:/Users/49542/Desktop/GD32F30x_Demo_Suites_V2.0.0/GD32F30x_Demo_Suites_V2.0.0/GD32F30x_Firmware_Library/GD32F30x_standard_peripheral/Source\gd32f30x_exmc.c ****     /* reset the bits */
 490:C:/Users/49542/Desktop/GD32F30x_Demo_Suites_V2.0.0/GD32F30x_Demo_Suites_V2.0.0/GD32F30x_Firmware_Library/GD32F30x_standard_peripheral/Source\gd32f30x_exmc.c ****     EXMC_SNCTL(exmc_norsram_region) &= ~EXMC_SNCTL_CPS;
 1011              		.loc 1 490 0
 1012 0000 00F1A050 		add	r0, r0, #335544320
 1013              	.LVL42:
 1014 0004 C000     		lsls	r0, r0, #3
 1015              	.LVL43:
 1016 0006 0368     		ldr	r3, [r0]
 1017 0008 23F4E023 		bic	r3, r3, #458752
 1018 000c 0360     		str	r3, [r0]
 491:C:/Users/49542/Desktop/GD32F30x_Demo_Suites_V2.0.0/GD32F30x_Demo_Suites_V2.0.0/GD32F30x_Firmware_Library/GD32F30x_standard_peripheral/Source\gd32f30x_exmc.c **** 
 492:C:/Users/49542/Desktop/GD32F30x_Demo_Suites_V2.0.0/GD32F30x_Demo_Suites_V2.0.0/GD32F30x_Firmware_Library/GD32F30x_standard_peripheral/Source\gd32f30x_exmc.c ****     /* set the CPS bits */
 493:C:/Users/49542/Desktop/GD32F30x_Demo_Suites_V2.0.0/GD32F30x_Demo_Suites_V2.0.0/GD32F30x_Firmware_Library/GD32F30x_standard_peripheral/Source\gd32f30x_exmc.c ****     EXMC_SNCTL(exmc_norsram_region) |= page_size;
 1019              		.loc 1 493 0
 1020 000e 0368     		ldr	r3, [r0]
 1021 0010 1943     		orrs	r1, r1, r3
ARM GAS  C:\Users\49542\AppData\Local\Temp\ccCfvzZ4.s 			page 28


 1022              	.LVL44:
 1023 0012 0160     		str	r1, [r0]
 494:C:/Users/49542/Desktop/GD32F30x_Demo_Suites_V2.0.0/GD32F30x_Demo_Suites_V2.0.0/GD32F30x_Firmware_Library/GD32F30x_standard_peripheral/Source\gd32f30x_exmc.c **** }
 1024              		.loc 1 494 0
 1025 0014 7047     		bx	lr
 1026              		.cfi_endproc
 1027              	.LFE131:
 1029              		.section	.text.exmc_nand_ecc_config,"ax",%progbits
 1030              		.align	1
 1031              		.global	exmc_nand_ecc_config
 1032              		.syntax unified
 1033              		.thumb
 1034              		.thumb_func
 1035              		.fpu fpv4-sp-d16
 1037              	exmc_nand_ecc_config:
 1038              	.LFB132:
 495:C:/Users/49542/Desktop/GD32F30x_Demo_Suites_V2.0.0/GD32F30x_Demo_Suites_V2.0.0/GD32F30x_Firmware_Library/GD32F30x_standard_peripheral/Source\gd32f30x_exmc.c **** 
 496:C:/Users/49542/Desktop/GD32F30x_Demo_Suites_V2.0.0/GD32F30x_Demo_Suites_V2.0.0/GD32F30x_Firmware_Library/GD32F30x_standard_peripheral/Source\gd32f30x_exmc.c **** /*!
 497:C:/Users/49542/Desktop/GD32F30x_Demo_Suites_V2.0.0/GD32F30x_Demo_Suites_V2.0.0/GD32F30x_Firmware_Library/GD32F30x_standard_peripheral/Source\gd32f30x_exmc.c ****     \brief      enable or disable the EXMC NAND ECC function
 498:C:/Users/49542/Desktop/GD32F30x_Demo_Suites_V2.0.0/GD32F30x_Demo_Suites_V2.0.0/GD32F30x_Firmware_Library/GD32F30x_standard_peripheral/Source\gd32f30x_exmc.c ****     \param[in]  exmc_nand_bank: specifie the NAND bank
 499:C:/Users/49542/Desktop/GD32F30x_Demo_Suites_V2.0.0/GD32F30x_Demo_Suites_V2.0.0/GD32F30x_Firmware_Library/GD32F30x_standard_peripheral/Source\gd32f30x_exmc.c ****                 only one parameter can be selected which is shown as below:
 500:C:/Users/49542/Desktop/GD32F30x_Demo_Suites_V2.0.0/GD32F30x_Demo_Suites_V2.0.0/GD32F30x_Firmware_Library/GD32F30x_standard_peripheral/Source\gd32f30x_exmc.c ****       \arg        EXMC_BANKx_NAND(x=1,2)
 501:C:/Users/49542/Desktop/GD32F30x_Demo_Suites_V2.0.0/GD32F30x_Demo_Suites_V2.0.0/GD32F30x_Firmware_Library/GD32F30x_standard_peripheral/Source\gd32f30x_exmc.c ****     \param[in]  newvalue: ENABLE or DISABLE
 502:C:/Users/49542/Desktop/GD32F30x_Demo_Suites_V2.0.0/GD32F30x_Demo_Suites_V2.0.0/GD32F30x_Firmware_Library/GD32F30x_standard_peripheral/Source\gd32f30x_exmc.c ****     \param[out] none
 503:C:/Users/49542/Desktop/GD32F30x_Demo_Suites_V2.0.0/GD32F30x_Demo_Suites_V2.0.0/GD32F30x_Firmware_Library/GD32F30x_standard_peripheral/Source\gd32f30x_exmc.c ****     \retval     none
 504:C:/Users/49542/Desktop/GD32F30x_Demo_Suites_V2.0.0/GD32F30x_Demo_Suites_V2.0.0/GD32F30x_Firmware_Library/GD32F30x_standard_peripheral/Source\gd32f30x_exmc.c **** */
 505:C:/Users/49542/Desktop/GD32F30x_Demo_Suites_V2.0.0/GD32F30x_Demo_Suites_V2.0.0/GD32F30x_Firmware_Library/GD32F30x_standard_peripheral/Source\gd32f30x_exmc.c **** void exmc_nand_ecc_config(uint32_t exmc_nand_bank, ControlStatus newvalue)
 506:C:/Users/49542/Desktop/GD32F30x_Demo_Suites_V2.0.0/GD32F30x_Demo_Suites_V2.0.0/GD32F30x_Firmware_Library/GD32F30x_standard_peripheral/Source\gd32f30x_exmc.c **** {
 1039              		.loc 1 506 0
 1040              		.cfi_startproc
 1041              		@ args = 0, pretend = 0, frame = 0
 1042              		@ frame_needed = 0, uses_anonymous_args = 0
 1043              		@ link register save eliminated.
 1044              	.LVL45:
 507:C:/Users/49542/Desktop/GD32F30x_Demo_Suites_V2.0.0/GD32F30x_Demo_Suites_V2.0.0/GD32F30x_Firmware_Library/GD32F30x_standard_peripheral/Source\gd32f30x_exmc.c ****     if (ENABLE == newvalue){
 1045              		.loc 1 507 0
 1046 0000 0129     		cmp	r1, #1
 1047 0002 08D0     		beq	.L41
 508:C:/Users/49542/Desktop/GD32F30x_Demo_Suites_V2.0.0/GD32F30x_Demo_Suites_V2.0.0/GD32F30x_Firmware_Library/GD32F30x_standard_peripheral/Source\gd32f30x_exmc.c ****         /* enable the selected NAND bank ECC function */
 509:C:/Users/49542/Desktop/GD32F30x_Demo_Suites_V2.0.0/GD32F30x_Demo_Suites_V2.0.0/GD32F30x_Firmware_Library/GD32F30x_standard_peripheral/Source\gd32f30x_exmc.c ****         EXMC_NPCTL(exmc_nand_bank) |= EXMC_NPCTL_ECCEN;
 510:C:/Users/49542/Desktop/GD32F30x_Demo_Suites_V2.0.0/GD32F30x_Demo_Suites_V2.0.0/GD32F30x_Firmware_Library/GD32F30x_standard_peripheral/Source\gd32f30x_exmc.c ****     }else{
 511:C:/Users/49542/Desktop/GD32F30x_Demo_Suites_V2.0.0/GD32F30x_Demo_Suites_V2.0.0/GD32F30x_Firmware_Library/GD32F30x_standard_peripheral/Source\gd32f30x_exmc.c ****         /* disable the selected NAND bank ECC function */
 512:C:/Users/49542/Desktop/GD32F30x_Demo_Suites_V2.0.0/GD32F30x_Demo_Suites_V2.0.0/GD32F30x_Firmware_Library/GD32F30x_standard_peripheral/Source\gd32f30x_exmc.c ****         EXMC_NPCTL(exmc_nand_bank) &= (~EXMC_NPCTL_ECCEN);
 1048              		.loc 1 512 0
 1049 0004 00F1A060 		add	r0, r0, #83886080
 1050              	.LVL46:
 1051 0008 0230     		adds	r0, r0, #2
 1052              	.LVL47:
 1053 000a 4001     		lsls	r0, r0, #5
 1054              	.LVL48:
 1055 000c 0368     		ldr	r3, [r0]
 1056 000e 23F04003 		bic	r3, r3, #64
 1057 0012 0360     		str	r3, [r0]
 513:C:/Users/49542/Desktop/GD32F30x_Demo_Suites_V2.0.0/GD32F30x_Demo_Suites_V2.0.0/GD32F30x_Firmware_Library/GD32F30x_standard_peripheral/Source\gd32f30x_exmc.c ****     }
 514:C:/Users/49542/Desktop/GD32F30x_Demo_Suites_V2.0.0/GD32F30x_Demo_Suites_V2.0.0/GD32F30x_Firmware_Library/GD32F30x_standard_peripheral/Source\gd32f30x_exmc.c **** }
 1058              		.loc 1 514 0
 1059 0014 7047     		bx	lr
ARM GAS  C:\Users\49542\AppData\Local\Temp\ccCfvzZ4.s 			page 29


 1060              	.LVL49:
 1061              	.L41:
 509:C:/Users/49542/Desktop/GD32F30x_Demo_Suites_V2.0.0/GD32F30x_Demo_Suites_V2.0.0/GD32F30x_Firmware_Library/GD32F30x_standard_peripheral/Source\gd32f30x_exmc.c ****     }else{
 1062              		.loc 1 509 0
 1063 0016 00F1A060 		add	r0, r0, #83886080
 1064              	.LVL50:
 1065 001a 0230     		adds	r0, r0, #2
 1066              	.LVL51:
 1067 001c 4001     		lsls	r0, r0, #5
 1068              	.LVL52:
 1069 001e 0368     		ldr	r3, [r0]
 1070 0020 43F04003 		orr	r3, r3, #64
 1071 0024 0360     		str	r3, [r0]
 1072 0026 7047     		bx	lr
 1073              		.cfi_endproc
 1074              	.LFE132:
 1076              		.section	.text.exmc_ecc_get,"ax",%progbits
 1077              		.align	1
 1078              		.global	exmc_ecc_get
 1079              		.syntax unified
 1080              		.thumb
 1081              		.thumb_func
 1082              		.fpu fpv4-sp-d16
 1084              	exmc_ecc_get:
 1085              	.LFB133:
 515:C:/Users/49542/Desktop/GD32F30x_Demo_Suites_V2.0.0/GD32F30x_Demo_Suites_V2.0.0/GD32F30x_Firmware_Library/GD32F30x_standard_peripheral/Source\gd32f30x_exmc.c **** 
 516:C:/Users/49542/Desktop/GD32F30x_Demo_Suites_V2.0.0/GD32F30x_Demo_Suites_V2.0.0/GD32F30x_Firmware_Library/GD32F30x_standard_peripheral/Source\gd32f30x_exmc.c **** /*!
 517:C:/Users/49542/Desktop/GD32F30x_Demo_Suites_V2.0.0/GD32F30x_Demo_Suites_V2.0.0/GD32F30x_Firmware_Library/GD32F30x_standard_peripheral/Source\gd32f30x_exmc.c ****     \brief      get the EXMC ECC value
 518:C:/Users/49542/Desktop/GD32F30x_Demo_Suites_V2.0.0/GD32F30x_Demo_Suites_V2.0.0/GD32F30x_Firmware_Library/GD32F30x_standard_peripheral/Source\gd32f30x_exmc.c ****     \param[in]  exmc_nand_bank: specifie the NAND bank
 519:C:/Users/49542/Desktop/GD32F30x_Demo_Suites_V2.0.0/GD32F30x_Demo_Suites_V2.0.0/GD32F30x_Firmware_Library/GD32F30x_standard_peripheral/Source\gd32f30x_exmc.c ****                 only one parameter can be selected which is shown as below:
 520:C:/Users/49542/Desktop/GD32F30x_Demo_Suites_V2.0.0/GD32F30x_Demo_Suites_V2.0.0/GD32F30x_Firmware_Library/GD32F30x_standard_peripheral/Source\gd32f30x_exmc.c ****       \arg        EXMC_BANKx_NAND(x=1,2)
 521:C:/Users/49542/Desktop/GD32F30x_Demo_Suites_V2.0.0/GD32F30x_Demo_Suites_V2.0.0/GD32F30x_Firmware_Library/GD32F30x_standard_peripheral/Source\gd32f30x_exmc.c ****     \param[out] none
 522:C:/Users/49542/Desktop/GD32F30x_Demo_Suites_V2.0.0/GD32F30x_Demo_Suites_V2.0.0/GD32F30x_Firmware_Library/GD32F30x_standard_peripheral/Source\gd32f30x_exmc.c ****     \retval     the error correction code(ECC) value
 523:C:/Users/49542/Desktop/GD32F30x_Demo_Suites_V2.0.0/GD32F30x_Demo_Suites_V2.0.0/GD32F30x_Firmware_Library/GD32F30x_standard_peripheral/Source\gd32f30x_exmc.c **** */
 524:C:/Users/49542/Desktop/GD32F30x_Demo_Suites_V2.0.0/GD32F30x_Demo_Suites_V2.0.0/GD32F30x_Firmware_Library/GD32F30x_standard_peripheral/Source\gd32f30x_exmc.c **** uint32_t exmc_ecc_get(uint32_t exmc_nand_bank)
 525:C:/Users/49542/Desktop/GD32F30x_Demo_Suites_V2.0.0/GD32F30x_Demo_Suites_V2.0.0/GD32F30x_Firmware_Library/GD32F30x_standard_peripheral/Source\gd32f30x_exmc.c **** {
 1086              		.loc 1 525 0
 1087              		.cfi_startproc
 1088              		@ args = 0, pretend = 0, frame = 0
 1089              		@ frame_needed = 0, uses_anonymous_args = 0
 1090              		@ link register save eliminated.
 1091              	.LVL53:
 526:C:/Users/49542/Desktop/GD32F30x_Demo_Suites_V2.0.0/GD32F30x_Demo_Suites_V2.0.0/GD32F30x_Firmware_Library/GD32F30x_standard_peripheral/Source\gd32f30x_exmc.c ****     return (EXMC_NECC(exmc_nand_bank));
 1092              		.loc 1 526 0
 1093 0000 4001     		lsls	r0, r0, #5
 1094              	.LVL54:
 1095 0002 00F12040 		add	r0, r0, #-1610612736
 1096 0006 406D     		ldr	r0, [r0, #84]
 527:C:/Users/49542/Desktop/GD32F30x_Demo_Suites_V2.0.0/GD32F30x_Demo_Suites_V2.0.0/GD32F30x_Firmware_Library/GD32F30x_standard_peripheral/Source\gd32f30x_exmc.c **** }
 1097              		.loc 1 527 0
 1098 0008 7047     		bx	lr
 1099              		.cfi_endproc
 1100              	.LFE133:
 1102              		.section	.text.exmc_interrupt_enable,"ax",%progbits
 1103              		.align	1
 1104              		.global	exmc_interrupt_enable
 1105              		.syntax unified
ARM GAS  C:\Users\49542\AppData\Local\Temp\ccCfvzZ4.s 			page 30


 1106              		.thumb
 1107              		.thumb_func
 1108              		.fpu fpv4-sp-d16
 1110              	exmc_interrupt_enable:
 1111              	.LFB134:
 528:C:/Users/49542/Desktop/GD32F30x_Demo_Suites_V2.0.0/GD32F30x_Demo_Suites_V2.0.0/GD32F30x_Firmware_Library/GD32F30x_standard_peripheral/Source\gd32f30x_exmc.c **** 
 529:C:/Users/49542/Desktop/GD32F30x_Demo_Suites_V2.0.0/GD32F30x_Demo_Suites_V2.0.0/GD32F30x_Firmware_Library/GD32F30x_standard_peripheral/Source\gd32f30x_exmc.c **** /*!
 530:C:/Users/49542/Desktop/GD32F30x_Demo_Suites_V2.0.0/GD32F30x_Demo_Suites_V2.0.0/GD32F30x_Firmware_Library/GD32F30x_standard_peripheral/Source\gd32f30x_exmc.c ****     \brief      enable EXMC interrupt
 531:C:/Users/49542/Desktop/GD32F30x_Demo_Suites_V2.0.0/GD32F30x_Demo_Suites_V2.0.0/GD32F30x_Firmware_Library/GD32F30x_standard_peripheral/Source\gd32f30x_exmc.c ****     \param[in]  exmc_bank: specifies the NAND bank,PC card bank
 532:C:/Users/49542/Desktop/GD32F30x_Demo_Suites_V2.0.0/GD32F30x_Demo_Suites_V2.0.0/GD32F30x_Firmware_Library/GD32F30x_standard_peripheral/Source\gd32f30x_exmc.c ****                 only one parameter can be selected which is shown as below:
 533:C:/Users/49542/Desktop/GD32F30x_Demo_Suites_V2.0.0/GD32F30x_Demo_Suites_V2.0.0/GD32F30x_Firmware_Library/GD32F30x_standard_peripheral/Source\gd32f30x_exmc.c ****       \arg        EXMC_BANK1_NAND: the NAND bank1
 534:C:/Users/49542/Desktop/GD32F30x_Demo_Suites_V2.0.0/GD32F30x_Demo_Suites_V2.0.0/GD32F30x_Firmware_Library/GD32F30x_standard_peripheral/Source\gd32f30x_exmc.c ****       \arg        EXMC_BANK2_NAND: the NAND bank2
 535:C:/Users/49542/Desktop/GD32F30x_Demo_Suites_V2.0.0/GD32F30x_Demo_Suites_V2.0.0/GD32F30x_Firmware_Library/GD32F30x_standard_peripheral/Source\gd32f30x_exmc.c ****       \arg        EXMC_BANK3_PCCARD: the PC card bank
 536:C:/Users/49542/Desktop/GD32F30x_Demo_Suites_V2.0.0/GD32F30x_Demo_Suites_V2.0.0/GD32F30x_Firmware_Library/GD32F30x_standard_peripheral/Source\gd32f30x_exmc.c ****     \param[in]  interrupt: EXMC interrupt flag
 537:C:/Users/49542/Desktop/GD32F30x_Demo_Suites_V2.0.0/GD32F30x_Demo_Suites_V2.0.0/GD32F30x_Firmware_Library/GD32F30x_standard_peripheral/Source\gd32f30x_exmc.c ****                 only one parameter can be selected which are shown as below:
 538:C:/Users/49542/Desktop/GD32F30x_Demo_Suites_V2.0.0/GD32F30x_Demo_Suites_V2.0.0/GD32F30x_Firmware_Library/GD32F30x_standard_peripheral/Source\gd32f30x_exmc.c ****       \arg        EXMC_NAND_PCCARD_INT_FLAG_RISE: rising edge interrupt and flag
 539:C:/Users/49542/Desktop/GD32F30x_Demo_Suites_V2.0.0/GD32F30x_Demo_Suites_V2.0.0/GD32F30x_Firmware_Library/GD32F30x_standard_peripheral/Source\gd32f30x_exmc.c ****       \arg        EXMC_NAND_PCCARD_INT_FLAG_LEVEL: high-level interrupt and flag
 540:C:/Users/49542/Desktop/GD32F30x_Demo_Suites_V2.0.0/GD32F30x_Demo_Suites_V2.0.0/GD32F30x_Firmware_Library/GD32F30x_standard_peripheral/Source\gd32f30x_exmc.c ****       \arg        EXMC_NAND_PCCARD_INT_FLAG_FALL: falling edge interrupt and flag
 541:C:/Users/49542/Desktop/GD32F30x_Demo_Suites_V2.0.0/GD32F30x_Demo_Suites_V2.0.0/GD32F30x_Firmware_Library/GD32F30x_standard_peripheral/Source\gd32f30x_exmc.c ****     \param[out] none
 542:C:/Users/49542/Desktop/GD32F30x_Demo_Suites_V2.0.0/GD32F30x_Demo_Suites_V2.0.0/GD32F30x_Firmware_Library/GD32F30x_standard_peripheral/Source\gd32f30x_exmc.c ****     \retval     none
 543:C:/Users/49542/Desktop/GD32F30x_Demo_Suites_V2.0.0/GD32F30x_Demo_Suites_V2.0.0/GD32F30x_Firmware_Library/GD32F30x_standard_peripheral/Source\gd32f30x_exmc.c **** */
 544:C:/Users/49542/Desktop/GD32F30x_Demo_Suites_V2.0.0/GD32F30x_Demo_Suites_V2.0.0/GD32F30x_Firmware_Library/GD32F30x_standard_peripheral/Source\gd32f30x_exmc.c **** void exmc_interrupt_enable(uint32_t exmc_bank,uint32_t interrupt)
 545:C:/Users/49542/Desktop/GD32F30x_Demo_Suites_V2.0.0/GD32F30x_Demo_Suites_V2.0.0/GD32F30x_Firmware_Library/GD32F30x_standard_peripheral/Source\gd32f30x_exmc.c **** {
 1112              		.loc 1 545 0
 1113              		.cfi_startproc
 1114              		@ args = 0, pretend = 0, frame = 0
 1115              		@ frame_needed = 0, uses_anonymous_args = 0
 1116              		@ link register save eliminated.
 1117              	.LVL55:
 546:C:/Users/49542/Desktop/GD32F30x_Demo_Suites_V2.0.0/GD32F30x_Demo_Suites_V2.0.0/GD32F30x_Firmware_Library/GD32F30x_standard_peripheral/Source\gd32f30x_exmc.c ****     /* NAND bank1,bank2 or PC card bank3 */
 547:C:/Users/49542/Desktop/GD32F30x_Demo_Suites_V2.0.0/GD32F30x_Demo_Suites_V2.0.0/GD32F30x_Firmware_Library/GD32F30x_standard_peripheral/Source\gd32f30x_exmc.c ****     EXMC_NPINTEN(exmc_bank) |= interrupt;
 1118              		.loc 1 547 0
 1119 0000 4001     		lsls	r0, r0, #5
 1120              	.LVL56:
 1121 0002 00F12040 		add	r0, r0, #-1610612736
 1122 0006 436C     		ldr	r3, [r0, #68]
 1123 0008 1943     		orrs	r1, r1, r3
 1124              	.LVL57:
 1125 000a 4164     		str	r1, [r0, #68]
 548:C:/Users/49542/Desktop/GD32F30x_Demo_Suites_V2.0.0/GD32F30x_Demo_Suites_V2.0.0/GD32F30x_Firmware_Library/GD32F30x_standard_peripheral/Source\gd32f30x_exmc.c **** }
 1126              		.loc 1 548 0
 1127 000c 7047     		bx	lr
 1128              		.cfi_endproc
 1129              	.LFE134:
 1131              		.section	.text.exmc_interrupt_disable,"ax",%progbits
 1132              		.align	1
 1133              		.global	exmc_interrupt_disable
 1134              		.syntax unified
 1135              		.thumb
 1136              		.thumb_func
 1137              		.fpu fpv4-sp-d16
 1139              	exmc_interrupt_disable:
 1140              	.LFB135:
 549:C:/Users/49542/Desktop/GD32F30x_Demo_Suites_V2.0.0/GD32F30x_Demo_Suites_V2.0.0/GD32F30x_Firmware_Library/GD32F30x_standard_peripheral/Source\gd32f30x_exmc.c **** 
 550:C:/Users/49542/Desktop/GD32F30x_Demo_Suites_V2.0.0/GD32F30x_Demo_Suites_V2.0.0/GD32F30x_Firmware_Library/GD32F30x_standard_peripheral/Source\gd32f30x_exmc.c **** /*!
 551:C:/Users/49542/Desktop/GD32F30x_Demo_Suites_V2.0.0/GD32F30x_Demo_Suites_V2.0.0/GD32F30x_Firmware_Library/GD32F30x_standard_peripheral/Source\gd32f30x_exmc.c ****     \brief      disable EXMC interrupt
 552:C:/Users/49542/Desktop/GD32F30x_Demo_Suites_V2.0.0/GD32F30x_Demo_Suites_V2.0.0/GD32F30x_Firmware_Library/GD32F30x_standard_peripheral/Source\gd32f30x_exmc.c ****     \param[in]  exmc_bank: specifies the NAND bank , PC card bank
ARM GAS  C:\Users\49542\AppData\Local\Temp\ccCfvzZ4.s 			page 31


 553:C:/Users/49542/Desktop/GD32F30x_Demo_Suites_V2.0.0/GD32F30x_Demo_Suites_V2.0.0/GD32F30x_Firmware_Library/GD32F30x_standard_peripheral/Source\gd32f30x_exmc.c ****                 only one parameter can be selected which is shown as below:
 554:C:/Users/49542/Desktop/GD32F30x_Demo_Suites_V2.0.0/GD32F30x_Demo_Suites_V2.0.0/GD32F30x_Firmware_Library/GD32F30x_standard_peripheral/Source\gd32f30x_exmc.c ****       \arg        EXMC_BANK1_NAND: the NAND bank1
 555:C:/Users/49542/Desktop/GD32F30x_Demo_Suites_V2.0.0/GD32F30x_Demo_Suites_V2.0.0/GD32F30x_Firmware_Library/GD32F30x_standard_peripheral/Source\gd32f30x_exmc.c ****       \arg        EXMC_BANK2_NAND: the NAND bank2
 556:C:/Users/49542/Desktop/GD32F30x_Demo_Suites_V2.0.0/GD32F30x_Demo_Suites_V2.0.0/GD32F30x_Firmware_Library/GD32F30x_standard_peripheral/Source\gd32f30x_exmc.c ****       \arg        EXMC_BANK3_PCCARD: the PC card bank
 557:C:/Users/49542/Desktop/GD32F30x_Demo_Suites_V2.0.0/GD32F30x_Demo_Suites_V2.0.0/GD32F30x_Firmware_Library/GD32F30x_standard_peripheral/Source\gd32f30x_exmc.c ****     \param[in]  interrupt: EXMC interrupt flag
 558:C:/Users/49542/Desktop/GD32F30x_Demo_Suites_V2.0.0/GD32F30x_Demo_Suites_V2.0.0/GD32F30x_Firmware_Library/GD32F30x_standard_peripheral/Source\gd32f30x_exmc.c ****                 only one parameter can be selected which are shown as below:
 559:C:/Users/49542/Desktop/GD32F30x_Demo_Suites_V2.0.0/GD32F30x_Demo_Suites_V2.0.0/GD32F30x_Firmware_Library/GD32F30x_standard_peripheral/Source\gd32f30x_exmc.c ****       \arg        EXMC_NAND_PCCARD_INT_FLAG_RISE: rising edge interrupt and flag
 560:C:/Users/49542/Desktop/GD32F30x_Demo_Suites_V2.0.0/GD32F30x_Demo_Suites_V2.0.0/GD32F30x_Firmware_Library/GD32F30x_standard_peripheral/Source\gd32f30x_exmc.c ****       \arg        EXMC_NAND_PCCARD_INT_FLAG_LEVEL: high-level interrupt and flag
 561:C:/Users/49542/Desktop/GD32F30x_Demo_Suites_V2.0.0/GD32F30x_Demo_Suites_V2.0.0/GD32F30x_Firmware_Library/GD32F30x_standard_peripheral/Source\gd32f30x_exmc.c ****       \arg        EXMC_NAND_PCCARD_INT_FLAG_FALL: falling edge interrupt and flag
 562:C:/Users/49542/Desktop/GD32F30x_Demo_Suites_V2.0.0/GD32F30x_Demo_Suites_V2.0.0/GD32F30x_Firmware_Library/GD32F30x_standard_peripheral/Source\gd32f30x_exmc.c ****     \param[out] none
 563:C:/Users/49542/Desktop/GD32F30x_Demo_Suites_V2.0.0/GD32F30x_Demo_Suites_V2.0.0/GD32F30x_Firmware_Library/GD32F30x_standard_peripheral/Source\gd32f30x_exmc.c ****     \retval     none
 564:C:/Users/49542/Desktop/GD32F30x_Demo_Suites_V2.0.0/GD32F30x_Demo_Suites_V2.0.0/GD32F30x_Firmware_Library/GD32F30x_standard_peripheral/Source\gd32f30x_exmc.c **** */
 565:C:/Users/49542/Desktop/GD32F30x_Demo_Suites_V2.0.0/GD32F30x_Demo_Suites_V2.0.0/GD32F30x_Firmware_Library/GD32F30x_standard_peripheral/Source\gd32f30x_exmc.c **** void exmc_interrupt_disable(uint32_t exmc_bank,uint32_t interrupt)
 566:C:/Users/49542/Desktop/GD32F30x_Demo_Suites_V2.0.0/GD32F30x_Demo_Suites_V2.0.0/GD32F30x_Firmware_Library/GD32F30x_standard_peripheral/Source\gd32f30x_exmc.c **** {
 1141              		.loc 1 566 0
 1142              		.cfi_startproc
 1143              		@ args = 0, pretend = 0, frame = 0
 1144              		@ frame_needed = 0, uses_anonymous_args = 0
 1145              		@ link register save eliminated.
 1146              	.LVL58:
 567:C:/Users/49542/Desktop/GD32F30x_Demo_Suites_V2.0.0/GD32F30x_Demo_Suites_V2.0.0/GD32F30x_Firmware_Library/GD32F30x_standard_peripheral/Source\gd32f30x_exmc.c ****     /* NAND bank1,bank2 or PC card bank3 */
 568:C:/Users/49542/Desktop/GD32F30x_Demo_Suites_V2.0.0/GD32F30x_Demo_Suites_V2.0.0/GD32F30x_Firmware_Library/GD32F30x_standard_peripheral/Source\gd32f30x_exmc.c ****     EXMC_NPINTEN(exmc_bank) &= (~interrupt);
 1147              		.loc 1 568 0
 1148 0000 4001     		lsls	r0, r0, #5
 1149              	.LVL59:
 1150 0002 00F12040 		add	r0, r0, #-1610612736
 1151 0006 436C     		ldr	r3, [r0, #68]
 1152 0008 23EA0101 		bic	r1, r3, r1
 1153              	.LVL60:
 1154 000c 4164     		str	r1, [r0, #68]
 569:C:/Users/49542/Desktop/GD32F30x_Demo_Suites_V2.0.0/GD32F30x_Demo_Suites_V2.0.0/GD32F30x_Firmware_Library/GD32F30x_standard_peripheral/Source\gd32f30x_exmc.c **** }
 1155              		.loc 1 569 0
 1156 000e 7047     		bx	lr
 1157              		.cfi_endproc
 1158              	.LFE135:
 1160              		.section	.text.exmc_flag_get,"ax",%progbits
 1161              		.align	1
 1162              		.global	exmc_flag_get
 1163              		.syntax unified
 1164              		.thumb
 1165              		.thumb_func
 1166              		.fpu fpv4-sp-d16
 1168              	exmc_flag_get:
 1169              	.LFB136:
 570:C:/Users/49542/Desktop/GD32F30x_Demo_Suites_V2.0.0/GD32F30x_Demo_Suites_V2.0.0/GD32F30x_Firmware_Library/GD32F30x_standard_peripheral/Source\gd32f30x_exmc.c **** 
 571:C:/Users/49542/Desktop/GD32F30x_Demo_Suites_V2.0.0/GD32F30x_Demo_Suites_V2.0.0/GD32F30x_Firmware_Library/GD32F30x_standard_peripheral/Source\gd32f30x_exmc.c **** /*!
 572:C:/Users/49542/Desktop/GD32F30x_Demo_Suites_V2.0.0/GD32F30x_Demo_Suites_V2.0.0/GD32F30x_Firmware_Library/GD32F30x_standard_peripheral/Source\gd32f30x_exmc.c ****     \brief      get EXMC flag status
 573:C:/Users/49542/Desktop/GD32F30x_Demo_Suites_V2.0.0/GD32F30x_Demo_Suites_V2.0.0/GD32F30x_Firmware_Library/GD32F30x_standard_peripheral/Source\gd32f30x_exmc.c ****     \param[in]  exmc_bank: specifies the NAND bank , PC card bank
 574:C:/Users/49542/Desktop/GD32F30x_Demo_Suites_V2.0.0/GD32F30x_Demo_Suites_V2.0.0/GD32F30x_Firmware_Library/GD32F30x_standard_peripheral/Source\gd32f30x_exmc.c ****                 only one parameter can be selected which is shown as below:
 575:C:/Users/49542/Desktop/GD32F30x_Demo_Suites_V2.0.0/GD32F30x_Demo_Suites_V2.0.0/GD32F30x_Firmware_Library/GD32F30x_standard_peripheral/Source\gd32f30x_exmc.c ****       \arg        EXMC_BANK1_NAND: the NAND bank1
 576:C:/Users/49542/Desktop/GD32F30x_Demo_Suites_V2.0.0/GD32F30x_Demo_Suites_V2.0.0/GD32F30x_Firmware_Library/GD32F30x_standard_peripheral/Source\gd32f30x_exmc.c ****       \arg        EXMC_BANK2_NAND: the NAND bank2
 577:C:/Users/49542/Desktop/GD32F30x_Demo_Suites_V2.0.0/GD32F30x_Demo_Suites_V2.0.0/GD32F30x_Firmware_Library/GD32F30x_standard_peripheral/Source\gd32f30x_exmc.c ****       \arg        EXMC_BANK3_PCCARD: the PC Card bank
 578:C:/Users/49542/Desktop/GD32F30x_Demo_Suites_V2.0.0/GD32F30x_Demo_Suites_V2.0.0/GD32F30x_Firmware_Library/GD32F30x_standard_peripheral/Source\gd32f30x_exmc.c ****     \param[in]  flag: EXMC status and flag
 579:C:/Users/49542/Desktop/GD32F30x_Demo_Suites_V2.0.0/GD32F30x_Demo_Suites_V2.0.0/GD32F30x_Firmware_Library/GD32F30x_standard_peripheral/Source\gd32f30x_exmc.c ****                 only one parameter can be selected which are shown as below:
 580:C:/Users/49542/Desktop/GD32F30x_Demo_Suites_V2.0.0/GD32F30x_Demo_Suites_V2.0.0/GD32F30x_Firmware_Library/GD32F30x_standard_peripheral/Source\gd32f30x_exmc.c ****       \arg        EXMC_NAND_PCCARD_FLAG_RISE: interrupt rising edge status
 581:C:/Users/49542/Desktop/GD32F30x_Demo_Suites_V2.0.0/GD32F30x_Demo_Suites_V2.0.0/GD32F30x_Firmware_Library/GD32F30x_standard_peripheral/Source\gd32f30x_exmc.c ****       \arg        EXMC_NAND_PCCARD_FLAG_LEVEL: interrupt high-level status
 582:C:/Users/49542/Desktop/GD32F30x_Demo_Suites_V2.0.0/GD32F30x_Demo_Suites_V2.0.0/GD32F30x_Firmware_Library/GD32F30x_standard_peripheral/Source\gd32f30x_exmc.c ****       \arg        EXMC_NAND_PCCARD_FLAG_FALL: interrupt falling edge status
ARM GAS  C:\Users\49542\AppData\Local\Temp\ccCfvzZ4.s 			page 32


 583:C:/Users/49542/Desktop/GD32F30x_Demo_Suites_V2.0.0/GD32F30x_Demo_Suites_V2.0.0/GD32F30x_Firmware_Library/GD32F30x_standard_peripheral/Source\gd32f30x_exmc.c ****       \arg        EXMC_NAND_PCCARD_FLAG_FIFOE: FIFO empty flag
 584:C:/Users/49542/Desktop/GD32F30x_Demo_Suites_V2.0.0/GD32F30x_Demo_Suites_V2.0.0/GD32F30x_Firmware_Library/GD32F30x_standard_peripheral/Source\gd32f30x_exmc.c ****     \param[out] none
 585:C:/Users/49542/Desktop/GD32F30x_Demo_Suites_V2.0.0/GD32F30x_Demo_Suites_V2.0.0/GD32F30x_Firmware_Library/GD32F30x_standard_peripheral/Source\gd32f30x_exmc.c ****     \retval     FlagStatus: SET or RESET
 586:C:/Users/49542/Desktop/GD32F30x_Demo_Suites_V2.0.0/GD32F30x_Demo_Suites_V2.0.0/GD32F30x_Firmware_Library/GD32F30x_standard_peripheral/Source\gd32f30x_exmc.c **** */
 587:C:/Users/49542/Desktop/GD32F30x_Demo_Suites_V2.0.0/GD32F30x_Demo_Suites_V2.0.0/GD32F30x_Firmware_Library/GD32F30x_standard_peripheral/Source\gd32f30x_exmc.c **** FlagStatus exmc_flag_get(uint32_t exmc_bank,uint32_t flag)
 588:C:/Users/49542/Desktop/GD32F30x_Demo_Suites_V2.0.0/GD32F30x_Demo_Suites_V2.0.0/GD32F30x_Firmware_Library/GD32F30x_standard_peripheral/Source\gd32f30x_exmc.c **** {
 1170              		.loc 1 588 0
 1171              		.cfi_startproc
 1172              		@ args = 0, pretend = 0, frame = 0
 1173              		@ frame_needed = 0, uses_anonymous_args = 0
 1174              		@ link register save eliminated.
 1175              	.LVL61:
 589:C:/Users/49542/Desktop/GD32F30x_Demo_Suites_V2.0.0/GD32F30x_Demo_Suites_V2.0.0/GD32F30x_Firmware_Library/GD32F30x_standard_peripheral/Source\gd32f30x_exmc.c ****     uint32_t status = 0x00000000U;
 590:C:/Users/49542/Desktop/GD32F30x_Demo_Suites_V2.0.0/GD32F30x_Demo_Suites_V2.0.0/GD32F30x_Firmware_Library/GD32F30x_standard_peripheral/Source\gd32f30x_exmc.c **** 
 591:C:/Users/49542/Desktop/GD32F30x_Demo_Suites_V2.0.0/GD32F30x_Demo_Suites_V2.0.0/GD32F30x_Firmware_Library/GD32F30x_standard_peripheral/Source\gd32f30x_exmc.c ****     /* NAND bank1,bank2 or PC card bank3 */
 592:C:/Users/49542/Desktop/GD32F30x_Demo_Suites_V2.0.0/GD32F30x_Demo_Suites_V2.0.0/GD32F30x_Firmware_Library/GD32F30x_standard_peripheral/Source\gd32f30x_exmc.c ****     status = EXMC_NPINTEN(exmc_bank);
 1176              		.loc 1 592 0
 1177 0000 4001     		lsls	r0, r0, #5
 1178              	.LVL62:
 1179 0002 00F12040 		add	r0, r0, #-1610612736
 1180 0006 436C     		ldr	r3, [r0, #68]
 1181              	.LVL63:
 593:C:/Users/49542/Desktop/GD32F30x_Demo_Suites_V2.0.0/GD32F30x_Demo_Suites_V2.0.0/GD32F30x_Firmware_Library/GD32F30x_standard_peripheral/Source\gd32f30x_exmc.c ****     
 594:C:/Users/49542/Desktop/GD32F30x_Demo_Suites_V2.0.0/GD32F30x_Demo_Suites_V2.0.0/GD32F30x_Firmware_Library/GD32F30x_standard_peripheral/Source\gd32f30x_exmc.c ****     if ((status & flag) != (uint32_t)flag ){
 1182              		.loc 1 594 0
 1183 0008 31EA0303 		bics	r3, r1, r3
 1184              	.LVL64:
 1185 000c 01D0     		beq	.L47
 595:C:/Users/49542/Desktop/GD32F30x_Demo_Suites_V2.0.0/GD32F30x_Demo_Suites_V2.0.0/GD32F30x_Firmware_Library/GD32F30x_standard_peripheral/Source\gd32f30x_exmc.c ****         /* flag is reset */
 596:C:/Users/49542/Desktop/GD32F30x_Demo_Suites_V2.0.0/GD32F30x_Demo_Suites_V2.0.0/GD32F30x_Firmware_Library/GD32F30x_standard_peripheral/Source\gd32f30x_exmc.c ****         return RESET;
 1186              		.loc 1 596 0
 1187 000e 0020     		movs	r0, #0
 1188 0010 7047     		bx	lr
 1189              	.L47:
 597:C:/Users/49542/Desktop/GD32F30x_Demo_Suites_V2.0.0/GD32F30x_Demo_Suites_V2.0.0/GD32F30x_Firmware_Library/GD32F30x_standard_peripheral/Source\gd32f30x_exmc.c ****     }else{
 598:C:/Users/49542/Desktop/GD32F30x_Demo_Suites_V2.0.0/GD32F30x_Demo_Suites_V2.0.0/GD32F30x_Firmware_Library/GD32F30x_standard_peripheral/Source\gd32f30x_exmc.c ****         /* flag is set */
 599:C:/Users/49542/Desktop/GD32F30x_Demo_Suites_V2.0.0/GD32F30x_Demo_Suites_V2.0.0/GD32F30x_Firmware_Library/GD32F30x_standard_peripheral/Source\gd32f30x_exmc.c ****         return SET;
 1190              		.loc 1 599 0
 1191 0012 0120     		movs	r0, #1
 600:C:/Users/49542/Desktop/GD32F30x_Demo_Suites_V2.0.0/GD32F30x_Demo_Suites_V2.0.0/GD32F30x_Firmware_Library/GD32F30x_standard_peripheral/Source\gd32f30x_exmc.c ****     }
 601:C:/Users/49542/Desktop/GD32F30x_Demo_Suites_V2.0.0/GD32F30x_Demo_Suites_V2.0.0/GD32F30x_Firmware_Library/GD32F30x_standard_peripheral/Source\gd32f30x_exmc.c **** }
 1192              		.loc 1 601 0
 1193 0014 7047     		bx	lr
 1194              		.cfi_endproc
 1195              	.LFE136:
 1197              		.section	.text.exmc_flag_clear,"ax",%progbits
 1198              		.align	1
 1199              		.global	exmc_flag_clear
 1200              		.syntax unified
 1201              		.thumb
 1202              		.thumb_func
 1203              		.fpu fpv4-sp-d16
 1205              	exmc_flag_clear:
 1206              	.LFB137:
 602:C:/Users/49542/Desktop/GD32F30x_Demo_Suites_V2.0.0/GD32F30x_Demo_Suites_V2.0.0/GD32F30x_Firmware_Library/GD32F30x_standard_peripheral/Source\gd32f30x_exmc.c **** 
 603:C:/Users/49542/Desktop/GD32F30x_Demo_Suites_V2.0.0/GD32F30x_Demo_Suites_V2.0.0/GD32F30x_Firmware_Library/GD32F30x_standard_peripheral/Source\gd32f30x_exmc.c **** /*!
 604:C:/Users/49542/Desktop/GD32F30x_Demo_Suites_V2.0.0/GD32F30x_Demo_Suites_V2.0.0/GD32F30x_Firmware_Library/GD32F30x_standard_peripheral/Source\gd32f30x_exmc.c ****     \brief      clear EXMC flag status
ARM GAS  C:\Users\49542\AppData\Local\Temp\ccCfvzZ4.s 			page 33


 605:C:/Users/49542/Desktop/GD32F30x_Demo_Suites_V2.0.0/GD32F30x_Demo_Suites_V2.0.0/GD32F30x_Firmware_Library/GD32F30x_standard_peripheral/Source\gd32f30x_exmc.c ****     \param[in]  exmc_bank: specifie the NAND bank , PCCARD bank
 606:C:/Users/49542/Desktop/GD32F30x_Demo_Suites_V2.0.0/GD32F30x_Demo_Suites_V2.0.0/GD32F30x_Firmware_Library/GD32F30x_standard_peripheral/Source\gd32f30x_exmc.c ****                 only one parameter can be selected which is shown as below:
 607:C:/Users/49542/Desktop/GD32F30x_Demo_Suites_V2.0.0/GD32F30x_Demo_Suites_V2.0.0/GD32F30x_Firmware_Library/GD32F30x_standard_peripheral/Source\gd32f30x_exmc.c ****       \arg        EXMC_BANK1_NAND: the NAND bank1
 608:C:/Users/49542/Desktop/GD32F30x_Demo_Suites_V2.0.0/GD32F30x_Demo_Suites_V2.0.0/GD32F30x_Firmware_Library/GD32F30x_standard_peripheral/Source\gd32f30x_exmc.c ****       \arg        EXMC_BANK2_NAND: the NAND bank2
 609:C:/Users/49542/Desktop/GD32F30x_Demo_Suites_V2.0.0/GD32F30x_Demo_Suites_V2.0.0/GD32F30x_Firmware_Library/GD32F30x_standard_peripheral/Source\gd32f30x_exmc.c ****       \arg        EXMC_BANK3_PCCARD: the PC card bank
 610:C:/Users/49542/Desktop/GD32F30x_Demo_Suites_V2.0.0/GD32F30x_Demo_Suites_V2.0.0/GD32F30x_Firmware_Library/GD32F30x_standard_peripheral/Source\gd32f30x_exmc.c ****     \param[in]  flag: EXMC status and flag
 611:C:/Users/49542/Desktop/GD32F30x_Demo_Suites_V2.0.0/GD32F30x_Demo_Suites_V2.0.0/GD32F30x_Firmware_Library/GD32F30x_standard_peripheral/Source\gd32f30x_exmc.c ****                 only one parameter can be selected which are shown as below:
 612:C:/Users/49542/Desktop/GD32F30x_Demo_Suites_V2.0.0/GD32F30x_Demo_Suites_V2.0.0/GD32F30x_Firmware_Library/GD32F30x_standard_peripheral/Source\gd32f30x_exmc.c ****       \arg        EXMC_NAND_PCCARD_FLAG_RISE: interrupt rising edge status
 613:C:/Users/49542/Desktop/GD32F30x_Demo_Suites_V2.0.0/GD32F30x_Demo_Suites_V2.0.0/GD32F30x_Firmware_Library/GD32F30x_standard_peripheral/Source\gd32f30x_exmc.c ****       \arg        EXMC_NAND_PCCARD_FLAG_LEVEL: interrupt high-level status
 614:C:/Users/49542/Desktop/GD32F30x_Demo_Suites_V2.0.0/GD32F30x_Demo_Suites_V2.0.0/GD32F30x_Firmware_Library/GD32F30x_standard_peripheral/Source\gd32f30x_exmc.c ****       \arg        EXMC_NAND_PCCARD_FLAG_FALL: interrupt falling edge status
 615:C:/Users/49542/Desktop/GD32F30x_Demo_Suites_V2.0.0/GD32F30x_Demo_Suites_V2.0.0/GD32F30x_Firmware_Library/GD32F30x_standard_peripheral/Source\gd32f30x_exmc.c ****       \arg        EXMC_NAND_PCCARD_FLAG_FIFOE: FIFO empty flag
 616:C:/Users/49542/Desktop/GD32F30x_Demo_Suites_V2.0.0/GD32F30x_Demo_Suites_V2.0.0/GD32F30x_Firmware_Library/GD32F30x_standard_peripheral/Source\gd32f30x_exmc.c ****     \param[out] none
 617:C:/Users/49542/Desktop/GD32F30x_Demo_Suites_V2.0.0/GD32F30x_Demo_Suites_V2.0.0/GD32F30x_Firmware_Library/GD32F30x_standard_peripheral/Source\gd32f30x_exmc.c ****     \retval     none
 618:C:/Users/49542/Desktop/GD32F30x_Demo_Suites_V2.0.0/GD32F30x_Demo_Suites_V2.0.0/GD32F30x_Firmware_Library/GD32F30x_standard_peripheral/Source\gd32f30x_exmc.c **** */
 619:C:/Users/49542/Desktop/GD32F30x_Demo_Suites_V2.0.0/GD32F30x_Demo_Suites_V2.0.0/GD32F30x_Firmware_Library/GD32F30x_standard_peripheral/Source\gd32f30x_exmc.c **** void exmc_flag_clear(uint32_t exmc_bank,uint32_t flag)
 620:C:/Users/49542/Desktop/GD32F30x_Demo_Suites_V2.0.0/GD32F30x_Demo_Suites_V2.0.0/GD32F30x_Firmware_Library/GD32F30x_standard_peripheral/Source\gd32f30x_exmc.c **** {
 1207              		.loc 1 620 0
 1208              		.cfi_startproc
 1209              		@ args = 0, pretend = 0, frame = 0
 1210              		@ frame_needed = 0, uses_anonymous_args = 0
 1211              		@ link register save eliminated.
 1212              	.LVL65:
 621:C:/Users/49542/Desktop/GD32F30x_Demo_Suites_V2.0.0/GD32F30x_Demo_Suites_V2.0.0/GD32F30x_Firmware_Library/GD32F30x_standard_peripheral/Source\gd32f30x_exmc.c ****     /* NAND bank1,bank2 or PC card bank3 */
 622:C:/Users/49542/Desktop/GD32F30x_Demo_Suites_V2.0.0/GD32F30x_Demo_Suites_V2.0.0/GD32F30x_Firmware_Library/GD32F30x_standard_peripheral/Source\gd32f30x_exmc.c ****     EXMC_NPINTEN(exmc_bank) &= (~flag);
 1213              		.loc 1 622 0
 1214 0000 4001     		lsls	r0, r0, #5
 1215              	.LVL66:
 1216 0002 00F12040 		add	r0, r0, #-1610612736
 1217 0006 436C     		ldr	r3, [r0, #68]
 1218 0008 23EA0101 		bic	r1, r3, r1
 1219              	.LVL67:
 1220 000c 4164     		str	r1, [r0, #68]
 623:C:/Users/49542/Desktop/GD32F30x_Demo_Suites_V2.0.0/GD32F30x_Demo_Suites_V2.0.0/GD32F30x_Firmware_Library/GD32F30x_standard_peripheral/Source\gd32f30x_exmc.c **** }
 1221              		.loc 1 623 0
 1222 000e 7047     		bx	lr
 1223              		.cfi_endproc
 1224              	.LFE137:
 1226              		.section	.text.exmc_interrupt_flag_get,"ax",%progbits
 1227              		.align	1
 1228              		.global	exmc_interrupt_flag_get
 1229              		.syntax unified
 1230              		.thumb
 1231              		.thumb_func
 1232              		.fpu fpv4-sp-d16
 1234              	exmc_interrupt_flag_get:
 1235              	.LFB138:
 624:C:/Users/49542/Desktop/GD32F30x_Demo_Suites_V2.0.0/GD32F30x_Demo_Suites_V2.0.0/GD32F30x_Firmware_Library/GD32F30x_standard_peripheral/Source\gd32f30x_exmc.c **** 
 625:C:/Users/49542/Desktop/GD32F30x_Demo_Suites_V2.0.0/GD32F30x_Demo_Suites_V2.0.0/GD32F30x_Firmware_Library/GD32F30x_standard_peripheral/Source\gd32f30x_exmc.c **** /*!
 626:C:/Users/49542/Desktop/GD32F30x_Demo_Suites_V2.0.0/GD32F30x_Demo_Suites_V2.0.0/GD32F30x_Firmware_Library/GD32F30x_standard_peripheral/Source\gd32f30x_exmc.c ****     \brief      get EXMC interrupt flag
 627:C:/Users/49542/Desktop/GD32F30x_Demo_Suites_V2.0.0/GD32F30x_Demo_Suites_V2.0.0/GD32F30x_Firmware_Library/GD32F30x_standard_peripheral/Source\gd32f30x_exmc.c ****     \param[in]  exmc_bank: specifies the NAND bank , PC card bank
 628:C:/Users/49542/Desktop/GD32F30x_Demo_Suites_V2.0.0/GD32F30x_Demo_Suites_V2.0.0/GD32F30x_Firmware_Library/GD32F30x_standard_peripheral/Source\gd32f30x_exmc.c ****                 only one parameter can be selected which is shown as below:
 629:C:/Users/49542/Desktop/GD32F30x_Demo_Suites_V2.0.0/GD32F30x_Demo_Suites_V2.0.0/GD32F30x_Firmware_Library/GD32F30x_standard_peripheral/Source\gd32f30x_exmc.c ****       \arg        EXMC_BANK1_NAND: the NAND bank1
 630:C:/Users/49542/Desktop/GD32F30x_Demo_Suites_V2.0.0/GD32F30x_Demo_Suites_V2.0.0/GD32F30x_Firmware_Library/GD32F30x_standard_peripheral/Source\gd32f30x_exmc.c ****       \arg        EXMC_BANK2_NAND: the NAND bank2
 631:C:/Users/49542/Desktop/GD32F30x_Demo_Suites_V2.0.0/GD32F30x_Demo_Suites_V2.0.0/GD32F30x_Firmware_Library/GD32F30x_standard_peripheral/Source\gd32f30x_exmc.c ****       \arg        EXMC_BANK3_PCCARD: the PC card bank
 632:C:/Users/49542/Desktop/GD32F30x_Demo_Suites_V2.0.0/GD32F30x_Demo_Suites_V2.0.0/GD32F30x_Firmware_Library/GD32F30x_standard_peripheral/Source\gd32f30x_exmc.c ****     \param[in]  interrupt: EXMC interrupt flag
 633:C:/Users/49542/Desktop/GD32F30x_Demo_Suites_V2.0.0/GD32F30x_Demo_Suites_V2.0.0/GD32F30x_Firmware_Library/GD32F30x_standard_peripheral/Source\gd32f30x_exmc.c ****                 only one parameter can be selected which are shown as below:
 634:C:/Users/49542/Desktop/GD32F30x_Demo_Suites_V2.0.0/GD32F30x_Demo_Suites_V2.0.0/GD32F30x_Firmware_Library/GD32F30x_standard_peripheral/Source\gd32f30x_exmc.c ****       \arg        EXMC_NAND_PCCARD_INT_FLAG_RISE: rising edge interrupt and flag
ARM GAS  C:\Users\49542\AppData\Local\Temp\ccCfvzZ4.s 			page 34


 635:C:/Users/49542/Desktop/GD32F30x_Demo_Suites_V2.0.0/GD32F30x_Demo_Suites_V2.0.0/GD32F30x_Firmware_Library/GD32F30x_standard_peripheral/Source\gd32f30x_exmc.c ****       \arg        EXMC_NAND_PCCARD_INT_FLAG_LEVEL: high-level interrupt and flag
 636:C:/Users/49542/Desktop/GD32F30x_Demo_Suites_V2.0.0/GD32F30x_Demo_Suites_V2.0.0/GD32F30x_Firmware_Library/GD32F30x_standard_peripheral/Source\gd32f30x_exmc.c ****       \arg        EXMC_NAND_PCCARD_INT_FLAG_FALL: falling edge interrupt and flag
 637:C:/Users/49542/Desktop/GD32F30x_Demo_Suites_V2.0.0/GD32F30x_Demo_Suites_V2.0.0/GD32F30x_Firmware_Library/GD32F30x_standard_peripheral/Source\gd32f30x_exmc.c ****     \param[out] none
 638:C:/Users/49542/Desktop/GD32F30x_Demo_Suites_V2.0.0/GD32F30x_Demo_Suites_V2.0.0/GD32F30x_Firmware_Library/GD32F30x_standard_peripheral/Source\gd32f30x_exmc.c ****     \retval     FlagStatus: SET or RESET
 639:C:/Users/49542/Desktop/GD32F30x_Demo_Suites_V2.0.0/GD32F30x_Demo_Suites_V2.0.0/GD32F30x_Firmware_Library/GD32F30x_standard_peripheral/Source\gd32f30x_exmc.c **** */
 640:C:/Users/49542/Desktop/GD32F30x_Demo_Suites_V2.0.0/GD32F30x_Demo_Suites_V2.0.0/GD32F30x_Firmware_Library/GD32F30x_standard_peripheral/Source\gd32f30x_exmc.c **** FlagStatus exmc_interrupt_flag_get(uint32_t exmc_bank,uint32_t interrupt)
 641:C:/Users/49542/Desktop/GD32F30x_Demo_Suites_V2.0.0/GD32F30x_Demo_Suites_V2.0.0/GD32F30x_Firmware_Library/GD32F30x_standard_peripheral/Source\gd32f30x_exmc.c **** {
 1236              		.loc 1 641 0
 1237              		.cfi_startproc
 1238              		@ args = 0, pretend = 0, frame = 0
 1239              		@ frame_needed = 0, uses_anonymous_args = 0
 1240              		@ link register save eliminated.
 1241              	.LVL68:
 642:C:/Users/49542/Desktop/GD32F30x_Demo_Suites_V2.0.0/GD32F30x_Demo_Suites_V2.0.0/GD32F30x_Firmware_Library/GD32F30x_standard_peripheral/Source\gd32f30x_exmc.c ****     uint32_t status = 0x00000000U,interrupt_enable = 0x00000000U,interrupt_state = 0x00000000U;
 643:C:/Users/49542/Desktop/GD32F30x_Demo_Suites_V2.0.0/GD32F30x_Demo_Suites_V2.0.0/GD32F30x_Firmware_Library/GD32F30x_standard_peripheral/Source\gd32f30x_exmc.c **** 
 644:C:/Users/49542/Desktop/GD32F30x_Demo_Suites_V2.0.0/GD32F30x_Demo_Suites_V2.0.0/GD32F30x_Firmware_Library/GD32F30x_standard_peripheral/Source\gd32f30x_exmc.c ****     /* NAND bank1,bank2 or PC card bank3 */
 645:C:/Users/49542/Desktop/GD32F30x_Demo_Suites_V2.0.0/GD32F30x_Demo_Suites_V2.0.0/GD32F30x_Firmware_Library/GD32F30x_standard_peripheral/Source\gd32f30x_exmc.c ****     status = EXMC_NPINTEN(exmc_bank);
 1242              		.loc 1 645 0
 1243 0000 4001     		lsls	r0, r0, #5
 1244              	.LVL69:
 1245 0002 00F12040 		add	r0, r0, #-1610612736
 1246 0006 436C     		ldr	r3, [r0, #68]
 1247              	.LVL70:
 646:C:/Users/49542/Desktop/GD32F30x_Demo_Suites_V2.0.0/GD32F30x_Demo_Suites_V2.0.0/GD32F30x_Firmware_Library/GD32F30x_standard_peripheral/Source\gd32f30x_exmc.c ****     interrupt_state = (status & (interrupt >> INTEN_INTS_OFFSET));
 1248              		.loc 1 646 0
 1249 0008 03EAD102 		and	r2, r3, r1, lsr #3
 1250              	.LVL71:
 647:C:/Users/49542/Desktop/GD32F30x_Demo_Suites_V2.0.0/GD32F30x_Demo_Suites_V2.0.0/GD32F30x_Firmware_Library/GD32F30x_standard_peripheral/Source\gd32f30x_exmc.c **** 
 648:C:/Users/49542/Desktop/GD32F30x_Demo_Suites_V2.0.0/GD32F30x_Demo_Suites_V2.0.0/GD32F30x_Firmware_Library/GD32F30x_standard_peripheral/Source\gd32f30x_exmc.c ****     interrupt_enable = (status & interrupt);
 649:C:/Users/49542/Desktop/GD32F30x_Demo_Suites_V2.0.0/GD32F30x_Demo_Suites_V2.0.0/GD32F30x_Firmware_Library/GD32F30x_standard_peripheral/Source\gd32f30x_exmc.c **** 
 650:C:/Users/49542/Desktop/GD32F30x_Demo_Suites_V2.0.0/GD32F30x_Demo_Suites_V2.0.0/GD32F30x_Firmware_Library/GD32F30x_standard_peripheral/Source\gd32f30x_exmc.c ****     if ((interrupt_enable) && (interrupt_state)){
 1251              		.loc 1 650 0
 1252 000c 0B42     		tst	r3, r1
 1253 000e 02D0     		beq	.L51
 1254              		.loc 1 650 0 is_stmt 0 discriminator 1
 1255 0010 1AB9     		cbnz	r2, .L52
 651:C:/Users/49542/Desktop/GD32F30x_Demo_Suites_V2.0.0/GD32F30x_Demo_Suites_V2.0.0/GD32F30x_Firmware_Library/GD32F30x_standard_peripheral/Source\gd32f30x_exmc.c ****         /* interrupt flag is set */
 652:C:/Users/49542/Desktop/GD32F30x_Demo_Suites_V2.0.0/GD32F30x_Demo_Suites_V2.0.0/GD32F30x_Firmware_Library/GD32F30x_standard_peripheral/Source\gd32f30x_exmc.c ****         return SET;
 653:C:/Users/49542/Desktop/GD32F30x_Demo_Suites_V2.0.0/GD32F30x_Demo_Suites_V2.0.0/GD32F30x_Firmware_Library/GD32F30x_standard_peripheral/Source\gd32f30x_exmc.c ****     }else{
 654:C:/Users/49542/Desktop/GD32F30x_Demo_Suites_V2.0.0/GD32F30x_Demo_Suites_V2.0.0/GD32F30x_Firmware_Library/GD32F30x_standard_peripheral/Source\gd32f30x_exmc.c ****         /* interrupt flag is reset */
 655:C:/Users/49542/Desktop/GD32F30x_Demo_Suites_V2.0.0/GD32F30x_Demo_Suites_V2.0.0/GD32F30x_Firmware_Library/GD32F30x_standard_peripheral/Source\gd32f30x_exmc.c ****         return RESET;
 1256              		.loc 1 655 0 is_stmt 1
 1257 0012 0020     		movs	r0, #0
 1258 0014 7047     		bx	lr
 1259              	.L51:
 1260 0016 0020     		movs	r0, #0
 1261 0018 7047     		bx	lr
 1262              	.L52:
 652:C:/Users/49542/Desktop/GD32F30x_Demo_Suites_V2.0.0/GD32F30x_Demo_Suites_V2.0.0/GD32F30x_Firmware_Library/GD32F30x_standard_peripheral/Source\gd32f30x_exmc.c ****     }else{
 1263              		.loc 1 652 0
 1264 001a 0120     		movs	r0, #1
 656:C:/Users/49542/Desktop/GD32F30x_Demo_Suites_V2.0.0/GD32F30x_Demo_Suites_V2.0.0/GD32F30x_Firmware_Library/GD32F30x_standard_peripheral/Source\gd32f30x_exmc.c ****     }
 657:C:/Users/49542/Desktop/GD32F30x_Demo_Suites_V2.0.0/GD32F30x_Demo_Suites_V2.0.0/GD32F30x_Firmware_Library/GD32F30x_standard_peripheral/Source\gd32f30x_exmc.c **** }
 1265              		.loc 1 657 0
 1266 001c 7047     		bx	lr
 1267              		.cfi_endproc
 1268              	.LFE138:
ARM GAS  C:\Users\49542\AppData\Local\Temp\ccCfvzZ4.s 			page 35


 1270              		.section	.text.exmc_interrupt_flag_clear,"ax",%progbits
 1271              		.align	1
 1272              		.global	exmc_interrupt_flag_clear
 1273              		.syntax unified
 1274              		.thumb
 1275              		.thumb_func
 1276              		.fpu fpv4-sp-d16
 1278              	exmc_interrupt_flag_clear:
 1279              	.LFB139:
 658:C:/Users/49542/Desktop/GD32F30x_Demo_Suites_V2.0.0/GD32F30x_Demo_Suites_V2.0.0/GD32F30x_Firmware_Library/GD32F30x_standard_peripheral/Source\gd32f30x_exmc.c **** 
 659:C:/Users/49542/Desktop/GD32F30x_Demo_Suites_V2.0.0/GD32F30x_Demo_Suites_V2.0.0/GD32F30x_Firmware_Library/GD32F30x_standard_peripheral/Source\gd32f30x_exmc.c **** /*!
 660:C:/Users/49542/Desktop/GD32F30x_Demo_Suites_V2.0.0/GD32F30x_Demo_Suites_V2.0.0/GD32F30x_Firmware_Library/GD32F30x_standard_peripheral/Source\gd32f30x_exmc.c ****     \brief      clear EXMC interrupt flag
 661:C:/Users/49542/Desktop/GD32F30x_Demo_Suites_V2.0.0/GD32F30x_Demo_Suites_V2.0.0/GD32F30x_Firmware_Library/GD32F30x_standard_peripheral/Source\gd32f30x_exmc.c ****     \param[in]  exmc_bank: specifies the NAND bank , PC card bank
 662:C:/Users/49542/Desktop/GD32F30x_Demo_Suites_V2.0.0/GD32F30x_Demo_Suites_V2.0.0/GD32F30x_Firmware_Library/GD32F30x_standard_peripheral/Source\gd32f30x_exmc.c ****                 only one parameter can be selected which is shown as below:
 663:C:/Users/49542/Desktop/GD32F30x_Demo_Suites_V2.0.0/GD32F30x_Demo_Suites_V2.0.0/GD32F30x_Firmware_Library/GD32F30x_standard_peripheral/Source\gd32f30x_exmc.c ****       \arg        EXMC_BANK1_NAND: the NAND bank1
 664:C:/Users/49542/Desktop/GD32F30x_Demo_Suites_V2.0.0/GD32F30x_Demo_Suites_V2.0.0/GD32F30x_Firmware_Library/GD32F30x_standard_peripheral/Source\gd32f30x_exmc.c ****       \arg        EXMC_BANK2_NAND: the NAND bank2
 665:C:/Users/49542/Desktop/GD32F30x_Demo_Suites_V2.0.0/GD32F30x_Demo_Suites_V2.0.0/GD32F30x_Firmware_Library/GD32F30x_standard_peripheral/Source\gd32f30x_exmc.c ****       \arg        EXMC_BANK3_PCCARD: the PC card bank
 666:C:/Users/49542/Desktop/GD32F30x_Demo_Suites_V2.0.0/GD32F30x_Demo_Suites_V2.0.0/GD32F30x_Firmware_Library/GD32F30x_standard_peripheral/Source\gd32f30x_exmc.c ****     \param[in]  interrupt: EXMC interrupt flag
 667:C:/Users/49542/Desktop/GD32F30x_Demo_Suites_V2.0.0/GD32F30x_Demo_Suites_V2.0.0/GD32F30x_Firmware_Library/GD32F30x_standard_peripheral/Source\gd32f30x_exmc.c ****                 only one parameter can be selected which are shown as below:
 668:C:/Users/49542/Desktop/GD32F30x_Demo_Suites_V2.0.0/GD32F30x_Demo_Suites_V2.0.0/GD32F30x_Firmware_Library/GD32F30x_standard_peripheral/Source\gd32f30x_exmc.c ****       \arg        EXMC_NAND_PCCARD_INT_FLAG_RISE: rising edge interrupt and flag
 669:C:/Users/49542/Desktop/GD32F30x_Demo_Suites_V2.0.0/GD32F30x_Demo_Suites_V2.0.0/GD32F30x_Firmware_Library/GD32F30x_standard_peripheral/Source\gd32f30x_exmc.c ****       \arg        EXMC_NAND_PCCARD_INT_FLAG_LEVEL: high-level interrupt and flag
 670:C:/Users/49542/Desktop/GD32F30x_Demo_Suites_V2.0.0/GD32F30x_Demo_Suites_V2.0.0/GD32F30x_Firmware_Library/GD32F30x_standard_peripheral/Source\gd32f30x_exmc.c ****       \arg        EXMC_NAND_PCCARD_INT_FLAG_FALL: falling edge interrupt and flag
 671:C:/Users/49542/Desktop/GD32F30x_Demo_Suites_V2.0.0/GD32F30x_Demo_Suites_V2.0.0/GD32F30x_Firmware_Library/GD32F30x_standard_peripheral/Source\gd32f30x_exmc.c ****     \param[out] none
 672:C:/Users/49542/Desktop/GD32F30x_Demo_Suites_V2.0.0/GD32F30x_Demo_Suites_V2.0.0/GD32F30x_Firmware_Library/GD32F30x_standard_peripheral/Source\gd32f30x_exmc.c ****     \retval     none
 673:C:/Users/49542/Desktop/GD32F30x_Demo_Suites_V2.0.0/GD32F30x_Demo_Suites_V2.0.0/GD32F30x_Firmware_Library/GD32F30x_standard_peripheral/Source\gd32f30x_exmc.c **** */
 674:C:/Users/49542/Desktop/GD32F30x_Demo_Suites_V2.0.0/GD32F30x_Demo_Suites_V2.0.0/GD32F30x_Firmware_Library/GD32F30x_standard_peripheral/Source\gd32f30x_exmc.c **** void exmc_interrupt_flag_clear(uint32_t exmc_bank,uint32_t interrupt)
 675:C:/Users/49542/Desktop/GD32F30x_Demo_Suites_V2.0.0/GD32F30x_Demo_Suites_V2.0.0/GD32F30x_Firmware_Library/GD32F30x_standard_peripheral/Source\gd32f30x_exmc.c **** {
 1280              		.loc 1 675 0
 1281              		.cfi_startproc
 1282              		@ args = 0, pretend = 0, frame = 0
 1283              		@ frame_needed = 0, uses_anonymous_args = 0
 1284              		@ link register save eliminated.
 1285              	.LVL72:
 676:C:/Users/49542/Desktop/GD32F30x_Demo_Suites_V2.0.0/GD32F30x_Demo_Suites_V2.0.0/GD32F30x_Firmware_Library/GD32F30x_standard_peripheral/Source\gd32f30x_exmc.c ****     /* NAND bank1,bank2 or PC card bank3 */
 677:C:/Users/49542/Desktop/GD32F30x_Demo_Suites_V2.0.0/GD32F30x_Demo_Suites_V2.0.0/GD32F30x_Firmware_Library/GD32F30x_standard_peripheral/Source\gd32f30x_exmc.c ****     EXMC_NPINTEN(exmc_bank) &= ~(interrupt >> INTEN_INTS_OFFSET);
 1286              		.loc 1 677 0
 1287 0000 4001     		lsls	r0, r0, #5
 1288              	.LVL73:
 1289 0002 00F12040 		add	r0, r0, #-1610612736
 1290 0006 436C     		ldr	r3, [r0, #68]
 1291 0008 23EAD101 		bic	r1, r3, r1, lsr #3
 1292              	.LVL74:
 1293 000c 4164     		str	r1, [r0, #68]
 678:C:/Users/49542/Desktop/GD32F30x_Demo_Suites_V2.0.0/GD32F30x_Demo_Suites_V2.0.0/GD32F30x_Firmware_Library/GD32F30x_standard_peripheral/Source\gd32f30x_exmc.c **** }
 1294              		.loc 1 678 0
 1295 000e 7047     		bx	lr
 1296              		.cfi_endproc
 1297              	.LFE139:
 1299              		.text
 1300              	.Letext0:
 1301              		.file 2 "c:\\users\\49542\\opensourcetools\\gnu tools arm embedded\\7 2018-q2-update\\arm-none-eab
 1302              		.file 3 "c:\\users\\49542\\opensourcetools\\gnu tools arm embedded\\7 2018-q2-update\\arm-none-eab
 1303              		.file 4 "C:/Users/49542/Desktop/GD32F30x_Demo_Suites_V2.0.0/GD32F30x_Demo_Suites_V2.0.0/GD32F30x_F
 1304              		.file 5 "C:/Users/49542/Desktop/GD32F30x_Demo_Suites_V2.0.0/GD32F30x_Demo_Suites_V2.0.0/GD32F30x_F
 1305              		.file 6 "C:/Users/49542/Desktop/GD32F30x_Demo_Suites_V2.0.0/GD32F30x_Demo_Suites_V2.0.0/GD32F30x_F
 1306              		.file 7 "c:\\users\\49542\\opensourcetools\\gnu tools arm embedded\\7 2018-q2-update\\arm-none-eab
 1307              		.file 8 "c:\\users\\49542\\opensourcetools\\gnu tools arm embedded\\7 2018-q2-update\\arm-none-eab
ARM GAS  C:\Users\49542\AppData\Local\Temp\ccCfvzZ4.s 			page 36


 1308              		.file 9 "c:\\users\\49542\\opensourcetools\\gnu tools arm embedded\\7 2018-q2-update\\lib\\gcc\\ar
 1309              		.file 10 "c:\\users\\49542\\opensourcetools\\gnu tools arm embedded\\7 2018-q2-update\\arm-none-ea
 1310              		.file 11 "c:\\users\\49542\\opensourcetools\\gnu tools arm embedded\\7 2018-q2-update\\arm-none-ea
 1311              		.file 12 "C:/Users/49542/Desktop/GD32F30x_Demo_Suites_V2.0.0/GD32F30x_Demo_Suites_V2.0.0/GD32F30x_
ARM GAS  C:\Users\49542\AppData\Local\Temp\ccCfvzZ4.s 			page 37

