ARM GAS  C:\Users\49542\AppData\Local\Temp\ccsfhkzv.s 			page 1


   1              		.cpu cortex-m4
   2              		.eabi_attribute 27, 1
   3              		.eabi_attribute 28, 1
   4              		.eabi_attribute 20, 1
   5              		.eabi_attribute 21, 1
   6              		.eabi_attribute 23, 3
   7              		.eabi_attribute 24, 1
   8              		.eabi_attribute 25, 1
   9              		.eabi_attribute 26, 1
  10              		.eabi_attribute 30, 1
  11              		.eabi_attribute 34, 1
  12              		.eabi_attribute 18, 4
  13              		.file	"at24cxx.c"
  14              		.text
  15              	.Ltext0:
  16              		.cfi_sections	.debug_frame
  17              		.section	.text.i2c_eeprom_init,"ax",%progbits
  18              		.align	1
  19              		.global	i2c_eeprom_init
  20              		.syntax unified
  21              		.thumb
  22              		.thumb_func
  23              		.fpu fpv4-sp-d16
  25              	i2c_eeprom_init:
  26              	.LFB120:
  27              		.file 1 "C:/Users/49542/Desktop/GD32F30x_Demo_Suites_V2.0.0/GD32F30x_Demo_Suites_V2.0.0/BearPi-IoT
   1:C:/Users/49542/Desktop/GD32F30x_Demo_Suites_V2.0.0/GD32F30x_Demo_Suites_V2.0.0/BearPi-IoT_GD32F303_Demo_Suites/Projects/13_I2C_EEPROM/Soft_Drive\at24cxx.c **** /*!
   2:C:/Users/49542/Desktop/GD32F30x_Demo_Suites_V2.0.0/GD32F30x_Demo_Suites_V2.0.0/BearPi-IoT_GD32F303_Demo_Suites/Projects/13_I2C_EEPROM/Soft_Drive\at24cxx.c ****     \file  at24cxx.c
   3:C:/Users/49542/Desktop/GD32F30x_Demo_Suites_V2.0.0/GD32F30x_Demo_Suites_V2.0.0/BearPi-IoT_GD32F303_Demo_Suites/Projects/13_I2C_EEPROM/Soft_Drive\at24cxx.c ****     \brief the read and write function file
   4:C:/Users/49542/Desktop/GD32F30x_Demo_Suites_V2.0.0/GD32F30x_Demo_Suites_V2.0.0/BearPi-IoT_GD32F303_Demo_Suites/Projects/13_I2C_EEPROM/Soft_Drive\at24cxx.c ****     
   5:C:/Users/49542/Desktop/GD32F30x_Demo_Suites_V2.0.0/GD32F30x_Demo_Suites_V2.0.0/BearPi-IoT_GD32F303_Demo_Suites/Projects/13_I2C_EEPROM/Soft_Drive\at24cxx.c ****     \version 2019-10-30, V1.0.0, demo for BearPi-IoT_GD32F30x
   6:C:/Users/49542/Desktop/GD32F30x_Demo_Suites_V2.0.0/GD32F30x_Demo_Suites_V2.0.0/BearPi-IoT_GD32F303_Demo_Suites/Projects/13_I2C_EEPROM/Soft_Drive\at24cxx.c **** */
   7:C:/Users/49542/Desktop/GD32F30x_Demo_Suites_V2.0.0/GD32F30x_Demo_Suites_V2.0.0/BearPi-IoT_GD32F303_Demo_Suites/Projects/13_I2C_EEPROM/Soft_Drive\at24cxx.c **** 
   8:C:/Users/49542/Desktop/GD32F30x_Demo_Suites_V2.0.0/GD32F30x_Demo_Suites_V2.0.0/BearPi-IoT_GD32F303_Demo_Suites/Projects/13_I2C_EEPROM/Soft_Drive\at24cxx.c **** /*
   9:C:/Users/49542/Desktop/GD32F30x_Demo_Suites_V2.0.0/GD32F30x_Demo_Suites_V2.0.0/BearPi-IoT_GD32F303_Demo_Suites/Projects/13_I2C_EEPROM/Soft_Drive\at24cxx.c ****     Copyright (c) 2019, BearPi LIMITED.
  10:C:/Users/49542/Desktop/GD32F30x_Demo_Suites_V2.0.0/GD32F30x_Demo_Suites_V2.0.0/BearPi-IoT_GD32F303_Demo_Suites/Projects/13_I2C_EEPROM/Soft_Drive\at24cxx.c **** 
  11:C:/Users/49542/Desktop/GD32F30x_Demo_Suites_V2.0.0/GD32F30x_Demo_Suites_V2.0.0/BearPi-IoT_GD32F303_Demo_Suites/Projects/13_I2C_EEPROM/Soft_Drive\at24cxx.c ****     All rights reserved.
  12:C:/Users/49542/Desktop/GD32F30x_Demo_Suites_V2.0.0/GD32F30x_Demo_Suites_V2.0.0/BearPi-IoT_GD32F303_Demo_Suites/Projects/13_I2C_EEPROM/Soft_Drive\at24cxx.c **** 
  13:C:/Users/49542/Desktop/GD32F30x_Demo_Suites_V2.0.0/GD32F30x_Demo_Suites_V2.0.0/BearPi-IoT_GD32F303_Demo_Suites/Projects/13_I2C_EEPROM/Soft_Drive\at24cxx.c ****     Redistribution and use in source and binary forms, with or without modification, 
  14:C:/Users/49542/Desktop/GD32F30x_Demo_Suites_V2.0.0/GD32F30x_Demo_Suites_V2.0.0/BearPi-IoT_GD32F303_Demo_Suites/Projects/13_I2C_EEPROM/Soft_Drive\at24cxx.c **** are permitted provided that the following conditions are met:
  15:C:/Users/49542/Desktop/GD32F30x_Demo_Suites_V2.0.0/GD32F30x_Demo_Suites_V2.0.0/BearPi-IoT_GD32F303_Demo_Suites/Projects/13_I2C_EEPROM/Soft_Drive\at24cxx.c **** 
  16:C:/Users/49542/Desktop/GD32F30x_Demo_Suites_V2.0.0/GD32F30x_Demo_Suites_V2.0.0/BearPi-IoT_GD32F303_Demo_Suites/Projects/13_I2C_EEPROM/Soft_Drive\at24cxx.c ****     1. Redistributions of source code must retain the above copyright notice, this 
  17:C:/Users/49542/Desktop/GD32F30x_Demo_Suites_V2.0.0/GD32F30x_Demo_Suites_V2.0.0/BearPi-IoT_GD32F303_Demo_Suites/Projects/13_I2C_EEPROM/Soft_Drive\at24cxx.c ****        list of conditions and the following disclaimer.
  18:C:/Users/49542/Desktop/GD32F30x_Demo_Suites_V2.0.0/GD32F30x_Demo_Suites_V2.0.0/BearPi-IoT_GD32F303_Demo_Suites/Projects/13_I2C_EEPROM/Soft_Drive\at24cxx.c ****     2. Redistributions in binary form must reproduce the above copyright notice, 
  19:C:/Users/49542/Desktop/GD32F30x_Demo_Suites_V2.0.0/GD32F30x_Demo_Suites_V2.0.0/BearPi-IoT_GD32F303_Demo_Suites/Projects/13_I2C_EEPROM/Soft_Drive\at24cxx.c ****        this list of conditions and the following disclaimer in the documentation 
  20:C:/Users/49542/Desktop/GD32F30x_Demo_Suites_V2.0.0/GD32F30x_Demo_Suites_V2.0.0/BearPi-IoT_GD32F303_Demo_Suites/Projects/13_I2C_EEPROM/Soft_Drive\at24cxx.c ****        and/or other materials provided with the distribution.
  21:C:/Users/49542/Desktop/GD32F30x_Demo_Suites_V2.0.0/GD32F30x_Demo_Suites_V2.0.0/BearPi-IoT_GD32F303_Demo_Suites/Projects/13_I2C_EEPROM/Soft_Drive\at24cxx.c ****     3. Neither the name of the copyright holder nor the names of its contributors 
  22:C:/Users/49542/Desktop/GD32F30x_Demo_Suites_V2.0.0/GD32F30x_Demo_Suites_V2.0.0/BearPi-IoT_GD32F303_Demo_Suites/Projects/13_I2C_EEPROM/Soft_Drive\at24cxx.c ****        may be used to endorse or promote products derived from this software without 
  23:C:/Users/49542/Desktop/GD32F30x_Demo_Suites_V2.0.0/GD32F30x_Demo_Suites_V2.0.0/BearPi-IoT_GD32F303_Demo_Suites/Projects/13_I2C_EEPROM/Soft_Drive\at24cxx.c ****        specific prior written permission.
  24:C:/Users/49542/Desktop/GD32F30x_Demo_Suites_V2.0.0/GD32F30x_Demo_Suites_V2.0.0/BearPi-IoT_GD32F303_Demo_Suites/Projects/13_I2C_EEPROM/Soft_Drive\at24cxx.c **** 
  25:C:/Users/49542/Desktop/GD32F30x_Demo_Suites_V2.0.0/GD32F30x_Demo_Suites_V2.0.0/BearPi-IoT_GD32F303_Demo_Suites/Projects/13_I2C_EEPROM/Soft_Drive\at24cxx.c ****     THIS SOFTWARE IS PROVIDED BY THE COPYRIGHT HOLDERS AND CONTRIBUTORS "AS IS" 
  26:C:/Users/49542/Desktop/GD32F30x_Demo_Suites_V2.0.0/GD32F30x_Demo_Suites_V2.0.0/BearPi-IoT_GD32F303_Demo_Suites/Projects/13_I2C_EEPROM/Soft_Drive\at24cxx.c **** AND ANY EXPRESS OR IMPLIED WARRANTIES, INCLUDING, BUT NOT LIMITED TO, THE IMPLIED 
  27:C:/Users/49542/Desktop/GD32F30x_Demo_Suites_V2.0.0/GD32F30x_Demo_Suites_V2.0.0/BearPi-IoT_GD32F303_Demo_Suites/Projects/13_I2C_EEPROM/Soft_Drive\at24cxx.c **** WARRANTIES OF MERCHANTABILITY AND FITNESS FOR A PARTICULAR PURPOSE ARE DISCLAIMED. 
  28:C:/Users/49542/Desktop/GD32F30x_Demo_Suites_V2.0.0/GD32F30x_Demo_Suites_V2.0.0/BearPi-IoT_GD32F303_Demo_Suites/Projects/13_I2C_EEPROM/Soft_Drive\at24cxx.c **** IN NO EVENT SHALL THE COPYRIGHT HOLDER OR CONTRIBUTORS BE LIABLE FOR ANY DIRECT, 
  29:C:/Users/49542/Desktop/GD32F30x_Demo_Suites_V2.0.0/GD32F30x_Demo_Suites_V2.0.0/BearPi-IoT_GD32F303_Demo_Suites/Projects/13_I2C_EEPROM/Soft_Drive\at24cxx.c **** INDIRECT, INCIDENTAL, SPECIAL, EXEMPLARY, OR CONSEQUENTIAL DAMAGES (INCLUDING, BUT 
  30:C:/Users/49542/Desktop/GD32F30x_Demo_Suites_V2.0.0/GD32F30x_Demo_Suites_V2.0.0/BearPi-IoT_GD32F303_Demo_Suites/Projects/13_I2C_EEPROM/Soft_Drive\at24cxx.c **** NOT LIMITED TO, PROCUREMENT OF SUBSTITUTE GOODS OR SERVICES; LOSS OF USE, DATA, OR 
  31:C:/Users/49542/Desktop/GD32F30x_Demo_Suites_V2.0.0/GD32F30x_Demo_Suites_V2.0.0/BearPi-IoT_GD32F303_Demo_Suites/Projects/13_I2C_EEPROM/Soft_Drive\at24cxx.c **** PROFITS; OR BUSINESS INTERRUPTION) HOWEVER CAUSED AND ON ANY THEORY OF LIABILITY, 
ARM GAS  C:\Users\49542\AppData\Local\Temp\ccsfhkzv.s 			page 2


  32:C:/Users/49542/Desktop/GD32F30x_Demo_Suites_V2.0.0/GD32F30x_Demo_Suites_V2.0.0/BearPi-IoT_GD32F303_Demo_Suites/Projects/13_I2C_EEPROM/Soft_Drive\at24cxx.c **** WHETHER IN CONTRACT, STRICT LIABILITY, OR TORT (INCLUDING NEGLIGENCE OR OTHERWISE) 
  33:C:/Users/49542/Desktop/GD32F30x_Demo_Suites_V2.0.0/GD32F30x_Demo_Suites_V2.0.0/BearPi-IoT_GD32F303_Demo_Suites/Projects/13_I2C_EEPROM/Soft_Drive\at24cxx.c **** ARISING IN ANY WAY OUT OF THE USE OF THIS SOFTWARE, EVEN IF ADVISED OF THE POSSIBILITY 
  34:C:/Users/49542/Desktop/GD32F30x_Demo_Suites_V2.0.0/GD32F30x_Demo_Suites_V2.0.0/BearPi-IoT_GD32F303_Demo_Suites/Projects/13_I2C_EEPROM/Soft_Drive\at24cxx.c **** OF SUCH DAMAGE.
  35:C:/Users/49542/Desktop/GD32F30x_Demo_Suites_V2.0.0/GD32F30x_Demo_Suites_V2.0.0/BearPi-IoT_GD32F303_Demo_Suites/Projects/13_I2C_EEPROM/Soft_Drive\at24cxx.c **** */
  36:C:/Users/49542/Desktop/GD32F30x_Demo_Suites_V2.0.0/GD32F30x_Demo_Suites_V2.0.0/BearPi-IoT_GD32F303_Demo_Suites/Projects/13_I2C_EEPROM/Soft_Drive\at24cxx.c **** 
  37:C:/Users/49542/Desktop/GD32F30x_Demo_Suites_V2.0.0/GD32F30x_Demo_Suites_V2.0.0/BearPi-IoT_GD32F303_Demo_Suites/Projects/13_I2C_EEPROM/Soft_Drive\at24cxx.c **** #include "at24cxx.h"
  38:C:/Users/49542/Desktop/GD32F30x_Demo_Suites_V2.0.0/GD32F30x_Demo_Suites_V2.0.0/BearPi-IoT_GD32F303_Demo_Suites/Projects/13_I2C_EEPROM/Soft_Drive\at24cxx.c **** #include "i2c.h"
  39:C:/Users/49542/Desktop/GD32F30x_Demo_Suites_V2.0.0/GD32F30x_Demo_Suites_V2.0.0/BearPi-IoT_GD32F303_Demo_Suites/Projects/13_I2C_EEPROM/Soft_Drive\at24cxx.c **** #include <stdio.h>
  40:C:/Users/49542/Desktop/GD32F30x_Demo_Suites_V2.0.0/GD32F30x_Demo_Suites_V2.0.0/BearPi-IoT_GD32F303_Demo_Suites/Projects/13_I2C_EEPROM/Soft_Drive\at24cxx.c **** 
  41:C:/Users/49542/Desktop/GD32F30x_Demo_Suites_V2.0.0/GD32F30x_Demo_Suites_V2.0.0/BearPi-IoT_GD32F303_Demo_Suites/Projects/13_I2C_EEPROM/Soft_Drive\at24cxx.c **** #define EEPROM_BLOCK0_ADDRESS    0xA0
  42:C:/Users/49542/Desktop/GD32F30x_Demo_Suites_V2.0.0/GD32F30x_Demo_Suites_V2.0.0/BearPi-IoT_GD32F303_Demo_Suites/Projects/13_I2C_EEPROM/Soft_Drive\at24cxx.c **** #define BUFFER_SIZE              256
  43:C:/Users/49542/Desktop/GD32F30x_Demo_Suites_V2.0.0/GD32F30x_Demo_Suites_V2.0.0/BearPi-IoT_GD32F303_Demo_Suites/Projects/13_I2C_EEPROM/Soft_Drive\at24cxx.c **** uint16_t eeprom_address;
  44:C:/Users/49542/Desktop/GD32F30x_Demo_Suites_V2.0.0/GD32F30x_Demo_Suites_V2.0.0/BearPi-IoT_GD32F303_Demo_Suites/Projects/13_I2C_EEPROM/Soft_Drive\at24cxx.c **** 
  45:C:/Users/49542/Desktop/GD32F30x_Demo_Suites_V2.0.0/GD32F30x_Demo_Suites_V2.0.0/BearPi-IoT_GD32F303_Demo_Suites/Projects/13_I2C_EEPROM/Soft_Drive\at24cxx.c **** /*!
  46:C:/Users/49542/Desktop/GD32F30x_Demo_Suites_V2.0.0/GD32F30x_Demo_Suites_V2.0.0/BearPi-IoT_GD32F303_Demo_Suites/Projects/13_I2C_EEPROM/Soft_Drive\at24cxx.c ****     \brief      I2C read and write functions
  47:C:/Users/49542/Desktop/GD32F30x_Demo_Suites_V2.0.0/GD32F30x_Demo_Suites_V2.0.0/BearPi-IoT_GD32F303_Demo_Suites/Projects/13_I2C_EEPROM/Soft_Drive\at24cxx.c ****     \param[in]  none
  48:C:/Users/49542/Desktop/GD32F30x_Demo_Suites_V2.0.0/GD32F30x_Demo_Suites_V2.0.0/BearPi-IoT_GD32F303_Demo_Suites/Projects/13_I2C_EEPROM/Soft_Drive\at24cxx.c ****     \param[out] none
  49:C:/Users/49542/Desktop/GD32F30x_Demo_Suites_V2.0.0/GD32F30x_Demo_Suites_V2.0.0/BearPi-IoT_GD32F303_Demo_Suites/Projects/13_I2C_EEPROM/Soft_Drive\at24cxx.c ****     \retval     I2C_OK or I2C_FAIL 
  50:C:/Users/49542/Desktop/GD32F30x_Demo_Suites_V2.0.0/GD32F30x_Demo_Suites_V2.0.0/BearPi-IoT_GD32F303_Demo_Suites/Projects/13_I2C_EEPROM/Soft_Drive\at24cxx.c **** */
  51:C:/Users/49542/Desktop/GD32F30x_Demo_Suites_V2.0.0/GD32F30x_Demo_Suites_V2.0.0/BearPi-IoT_GD32F303_Demo_Suites/Projects/13_I2C_EEPROM/Soft_Drive\at24cxx.c **** uint8_t i2c_24c02_test(void)
  52:C:/Users/49542/Desktop/GD32F30x_Demo_Suites_V2.0.0/GD32F30x_Demo_Suites_V2.0.0/BearPi-IoT_GD32F303_Demo_Suites/Projects/13_I2C_EEPROM/Soft_Drive\at24cxx.c **** {
  53:C:/Users/49542/Desktop/GD32F30x_Demo_Suites_V2.0.0/GD32F30x_Demo_Suites_V2.0.0/BearPi-IoT_GD32F303_Demo_Suites/Projects/13_I2C_EEPROM/Soft_Drive\at24cxx.c ****     uint16_t i;
  54:C:/Users/49542/Desktop/GD32F30x_Demo_Suites_V2.0.0/GD32F30x_Demo_Suites_V2.0.0/BearPi-IoT_GD32F303_Demo_Suites/Projects/13_I2C_EEPROM/Soft_Drive\at24cxx.c ****     uint8_t i2c_buffer_write[BUFFER_SIZE];
  55:C:/Users/49542/Desktop/GD32F30x_Demo_Suites_V2.0.0/GD32F30x_Demo_Suites_V2.0.0/BearPi-IoT_GD32F303_Demo_Suites/Projects/13_I2C_EEPROM/Soft_Drive\at24cxx.c ****     uint8_t i2c_buffer_read[BUFFER_SIZE];
  56:C:/Users/49542/Desktop/GD32F30x_Demo_Suites_V2.0.0/GD32F30x_Demo_Suites_V2.0.0/BearPi-IoT_GD32F303_Demo_Suites/Projects/13_I2C_EEPROM/Soft_Drive\at24cxx.c ****     
  57:C:/Users/49542/Desktop/GD32F30x_Demo_Suites_V2.0.0/GD32F30x_Demo_Suites_V2.0.0/BearPi-IoT_GD32F303_Demo_Suites/Projects/13_I2C_EEPROM/Soft_Drive\at24cxx.c ****     printf("\r\nAT24C02 writing...\r\n");
  58:C:/Users/49542/Desktop/GD32F30x_Demo_Suites_V2.0.0/GD32F30x_Demo_Suites_V2.0.0/BearPi-IoT_GD32F303_Demo_Suites/Projects/13_I2C_EEPROM/Soft_Drive\at24cxx.c ****     
  59:C:/Users/49542/Desktop/GD32F30x_Demo_Suites_V2.0.0/GD32F30x_Demo_Suites_V2.0.0/BearPi-IoT_GD32F303_Demo_Suites/Projects/13_I2C_EEPROM/Soft_Drive\at24cxx.c ****     /* initialize i2c_buffer_write */
  60:C:/Users/49542/Desktop/GD32F30x_Demo_Suites_V2.0.0/GD32F30x_Demo_Suites_V2.0.0/BearPi-IoT_GD32F303_Demo_Suites/Projects/13_I2C_EEPROM/Soft_Drive\at24cxx.c ****     for(i = 0;i < BUFFER_SIZE;i++){ 
  61:C:/Users/49542/Desktop/GD32F30x_Demo_Suites_V2.0.0/GD32F30x_Demo_Suites_V2.0.0/BearPi-IoT_GD32F303_Demo_Suites/Projects/13_I2C_EEPROM/Soft_Drive\at24cxx.c ****         i2c_buffer_write[i]=i;
  62:C:/Users/49542/Desktop/GD32F30x_Demo_Suites_V2.0.0/GD32F30x_Demo_Suites_V2.0.0/BearPi-IoT_GD32F303_Demo_Suites/Projects/13_I2C_EEPROM/Soft_Drive\at24cxx.c ****         printf("0x%02X ",i2c_buffer_write[i]);
  63:C:/Users/49542/Desktop/GD32F30x_Demo_Suites_V2.0.0/GD32F30x_Demo_Suites_V2.0.0/BearPi-IoT_GD32F303_Demo_Suites/Projects/13_I2C_EEPROM/Soft_Drive\at24cxx.c ****         if(15 == i%16){
  64:C:/Users/49542/Desktop/GD32F30x_Demo_Suites_V2.0.0/GD32F30x_Demo_Suites_V2.0.0/BearPi-IoT_GD32F303_Demo_Suites/Projects/13_I2C_EEPROM/Soft_Drive\at24cxx.c ****             printf("\r\n");
  65:C:/Users/49542/Desktop/GD32F30x_Demo_Suites_V2.0.0/GD32F30x_Demo_Suites_V2.0.0/BearPi-IoT_GD32F303_Demo_Suites/Projects/13_I2C_EEPROM/Soft_Drive\at24cxx.c ****         }
  66:C:/Users/49542/Desktop/GD32F30x_Demo_Suites_V2.0.0/GD32F30x_Demo_Suites_V2.0.0/BearPi-IoT_GD32F303_Demo_Suites/Projects/13_I2C_EEPROM/Soft_Drive\at24cxx.c ****     }
  67:C:/Users/49542/Desktop/GD32F30x_Demo_Suites_V2.0.0/GD32F30x_Demo_Suites_V2.0.0/BearPi-IoT_GD32F303_Demo_Suites/Projects/13_I2C_EEPROM/Soft_Drive\at24cxx.c ****     /* EEPROM data write */
  68:C:/Users/49542/Desktop/GD32F30x_Demo_Suites_V2.0.0/GD32F30x_Demo_Suites_V2.0.0/BearPi-IoT_GD32F303_Demo_Suites/Projects/13_I2C_EEPROM/Soft_Drive\at24cxx.c ****     eeprom_buffer_write(i2c_buffer_write,EEP_FIRST_PAGE, BUFFER_SIZE); 
  69:C:/Users/49542/Desktop/GD32F30x_Demo_Suites_V2.0.0/GD32F30x_Demo_Suites_V2.0.0/BearPi-IoT_GD32F303_Demo_Suites/Projects/13_I2C_EEPROM/Soft_Drive\at24cxx.c ****     printf("AT24C02 reading...\r\n");
  70:C:/Users/49542/Desktop/GD32F30x_Demo_Suites_V2.0.0/GD32F30x_Demo_Suites_V2.0.0/BearPi-IoT_GD32F303_Demo_Suites/Projects/13_I2C_EEPROM/Soft_Drive\at24cxx.c ****     /* EEPROM data read */
  71:C:/Users/49542/Desktop/GD32F30x_Demo_Suites_V2.0.0/GD32F30x_Demo_Suites_V2.0.0/BearPi-IoT_GD32F303_Demo_Suites/Projects/13_I2C_EEPROM/Soft_Drive\at24cxx.c ****     eeprom_buffer_read(i2c_buffer_read,EEP_FIRST_PAGE, BUFFER_SIZE); 
  72:C:/Users/49542/Desktop/GD32F30x_Demo_Suites_V2.0.0/GD32F30x_Demo_Suites_V2.0.0/BearPi-IoT_GD32F303_Demo_Suites/Projects/13_I2C_EEPROM/Soft_Drive\at24cxx.c ****     /* compare the read buffer and write buffer */
  73:C:/Users/49542/Desktop/GD32F30x_Demo_Suites_V2.0.0/GD32F30x_Demo_Suites_V2.0.0/BearPi-IoT_GD32F303_Demo_Suites/Projects/13_I2C_EEPROM/Soft_Drive\at24cxx.c ****     for(i = 0;i < BUFFER_SIZE;i++){
  74:C:/Users/49542/Desktop/GD32F30x_Demo_Suites_V2.0.0/GD32F30x_Demo_Suites_V2.0.0/BearPi-IoT_GD32F303_Demo_Suites/Projects/13_I2C_EEPROM/Soft_Drive\at24cxx.c ****         if(i2c_buffer_read[i] != i2c_buffer_write[i]){
  75:C:/Users/49542/Desktop/GD32F30x_Demo_Suites_V2.0.0/GD32F30x_Demo_Suites_V2.0.0/BearPi-IoT_GD32F303_Demo_Suites/Projects/13_I2C_EEPROM/Soft_Drive\at24cxx.c ****             printf("0x%02X ", i2c_buffer_read[i]);
  76:C:/Users/49542/Desktop/GD32F30x_Demo_Suites_V2.0.0/GD32F30x_Demo_Suites_V2.0.0/BearPi-IoT_GD32F303_Demo_Suites/Projects/13_I2C_EEPROM/Soft_Drive\at24cxx.c ****             printf("Err:data read and write aren't matching.\n\r");
  77:C:/Users/49542/Desktop/GD32F30x_Demo_Suites_V2.0.0/GD32F30x_Demo_Suites_V2.0.0/BearPi-IoT_GD32F303_Demo_Suites/Projects/13_I2C_EEPROM/Soft_Drive\at24cxx.c ****             return I2C_FAIL;
  78:C:/Users/49542/Desktop/GD32F30x_Demo_Suites_V2.0.0/GD32F30x_Demo_Suites_V2.0.0/BearPi-IoT_GD32F303_Demo_Suites/Projects/13_I2C_EEPROM/Soft_Drive\at24cxx.c ****         }
  79:C:/Users/49542/Desktop/GD32F30x_Demo_Suites_V2.0.0/GD32F30x_Demo_Suites_V2.0.0/BearPi-IoT_GD32F303_Demo_Suites/Projects/13_I2C_EEPROM/Soft_Drive\at24cxx.c ****         printf("0x%02X ", i2c_buffer_read[i]);
  80:C:/Users/49542/Desktop/GD32F30x_Demo_Suites_V2.0.0/GD32F30x_Demo_Suites_V2.0.0/BearPi-IoT_GD32F303_Demo_Suites/Projects/13_I2C_EEPROM/Soft_Drive\at24cxx.c ****         if(15 == i%16){
  81:C:/Users/49542/Desktop/GD32F30x_Demo_Suites_V2.0.0/GD32F30x_Demo_Suites_V2.0.0/BearPi-IoT_GD32F303_Demo_Suites/Projects/13_I2C_EEPROM/Soft_Drive\at24cxx.c ****             printf("\r\n");
  82:C:/Users/49542/Desktop/GD32F30x_Demo_Suites_V2.0.0/GD32F30x_Demo_Suites_V2.0.0/BearPi-IoT_GD32F303_Demo_Suites/Projects/13_I2C_EEPROM/Soft_Drive\at24cxx.c ****         }
  83:C:/Users/49542/Desktop/GD32F30x_Demo_Suites_V2.0.0/GD32F30x_Demo_Suites_V2.0.0/BearPi-IoT_GD32F303_Demo_Suites/Projects/13_I2C_EEPROM/Soft_Drive\at24cxx.c ****     }
  84:C:/Users/49542/Desktop/GD32F30x_Demo_Suites_V2.0.0/GD32F30x_Demo_Suites_V2.0.0/BearPi-IoT_GD32F303_Demo_Suites/Projects/13_I2C_EEPROM/Soft_Drive\at24cxx.c ****     printf("I2C-AT24C02 test passed!\n\r");
  85:C:/Users/49542/Desktop/GD32F30x_Demo_Suites_V2.0.0/GD32F30x_Demo_Suites_V2.0.0/BearPi-IoT_GD32F303_Demo_Suites/Projects/13_I2C_EEPROM/Soft_Drive\at24cxx.c ****     return I2C_OK;
  86:C:/Users/49542/Desktop/GD32F30x_Demo_Suites_V2.0.0/GD32F30x_Demo_Suites_V2.0.0/BearPi-IoT_GD32F303_Demo_Suites/Projects/13_I2C_EEPROM/Soft_Drive\at24cxx.c **** }
  87:C:/Users/49542/Desktop/GD32F30x_Demo_Suites_V2.0.0/GD32F30x_Demo_Suites_V2.0.0/BearPi-IoT_GD32F303_Demo_Suites/Projects/13_I2C_EEPROM/Soft_Drive\at24cxx.c **** 
  88:C:/Users/49542/Desktop/GD32F30x_Demo_Suites_V2.0.0/GD32F30x_Demo_Suites_V2.0.0/BearPi-IoT_GD32F303_Demo_Suites/Projects/13_I2C_EEPROM/Soft_Drive\at24cxx.c **** /*!
ARM GAS  C:\Users\49542\AppData\Local\Temp\ccsfhkzv.s 			page 3


  89:C:/Users/49542/Desktop/GD32F30x_Demo_Suites_V2.0.0/GD32F30x_Demo_Suites_V2.0.0/BearPi-IoT_GD32F303_Demo_Suites/Projects/13_I2C_EEPROM/Soft_Drive\at24cxx.c ****     \brief      initialize peripherals used by the I2C EEPROM driver
  90:C:/Users/49542/Desktop/GD32F30x_Demo_Suites_V2.0.0/GD32F30x_Demo_Suites_V2.0.0/BearPi-IoT_GD32F303_Demo_Suites/Projects/13_I2C_EEPROM/Soft_Drive\at24cxx.c ****     \param[in]  none
  91:C:/Users/49542/Desktop/GD32F30x_Demo_Suites_V2.0.0/GD32F30x_Demo_Suites_V2.0.0/BearPi-IoT_GD32F303_Demo_Suites/Projects/13_I2C_EEPROM/Soft_Drive\at24cxx.c ****     \param[out] none
  92:C:/Users/49542/Desktop/GD32F30x_Demo_Suites_V2.0.0/GD32F30x_Demo_Suites_V2.0.0/BearPi-IoT_GD32F303_Demo_Suites/Projects/13_I2C_EEPROM/Soft_Drive\at24cxx.c ****     \retval     none
  93:C:/Users/49542/Desktop/GD32F30x_Demo_Suites_V2.0.0/GD32F30x_Demo_Suites_V2.0.0/BearPi-IoT_GD32F303_Demo_Suites/Projects/13_I2C_EEPROM/Soft_Drive\at24cxx.c **** */
  94:C:/Users/49542/Desktop/GD32F30x_Demo_Suites_V2.0.0/GD32F30x_Demo_Suites_V2.0.0/BearPi-IoT_GD32F303_Demo_Suites/Projects/13_I2C_EEPROM/Soft_Drive\at24cxx.c **** void i2c_eeprom_init()
  95:C:/Users/49542/Desktop/GD32F30x_Demo_Suites_V2.0.0/GD32F30x_Demo_Suites_V2.0.0/BearPi-IoT_GD32F303_Demo_Suites/Projects/13_I2C_EEPROM/Soft_Drive\at24cxx.c **** {
  28              		.loc 1 95 0
  29              		.cfi_startproc
  30              		@ args = 0, pretend = 0, frame = 0
  31              		@ frame_needed = 0, uses_anonymous_args = 0
  32              		@ link register save eliminated.
  96:C:/Users/49542/Desktop/GD32F30x_Demo_Suites_V2.0.0/GD32F30x_Demo_Suites_V2.0.0/BearPi-IoT_GD32F303_Demo_Suites/Projects/13_I2C_EEPROM/Soft_Drive\at24cxx.c ****     eeprom_address = EEPROM_BLOCK0_ADDRESS;
  33              		.loc 1 96 0
  34 0000 014B     		ldr	r3, .L2
  35 0002 A022     		movs	r2, #160
  36 0004 1A80     		strh	r2, [r3]	@ movhi
  97:C:/Users/49542/Desktop/GD32F30x_Demo_Suites_V2.0.0/GD32F30x_Demo_Suites_V2.0.0/BearPi-IoT_GD32F303_Demo_Suites/Projects/13_I2C_EEPROM/Soft_Drive\at24cxx.c **** }
  37              		.loc 1 97 0
  38 0006 7047     		bx	lr
  39              	.L3:
  40              		.align	2
  41              	.L2:
  42 0008 00000000 		.word	eeprom_address
  43              		.cfi_endproc
  44              	.LFE120:
  46              		.section	.text.eeprom_byte_write,"ax",%progbits
  47              		.align	1
  48              		.global	eeprom_byte_write
  49              		.syntax unified
  50              		.thumb
  51              		.thumb_func
  52              		.fpu fpv4-sp-d16
  54              	eeprom_byte_write:
  55              	.LFB122:
  98:C:/Users/49542/Desktop/GD32F30x_Demo_Suites_V2.0.0/GD32F30x_Demo_Suites_V2.0.0/BearPi-IoT_GD32F303_Demo_Suites/Projects/13_I2C_EEPROM/Soft_Drive\at24cxx.c **** 
  99:C:/Users/49542/Desktop/GD32F30x_Demo_Suites_V2.0.0/GD32F30x_Demo_Suites_V2.0.0/BearPi-IoT_GD32F303_Demo_Suites/Projects/13_I2C_EEPROM/Soft_Drive\at24cxx.c **** /*!
 100:C:/Users/49542/Desktop/GD32F30x_Demo_Suites_V2.0.0/GD32F30x_Demo_Suites_V2.0.0/BearPi-IoT_GD32F303_Demo_Suites/Projects/13_I2C_EEPROM/Soft_Drive\at24cxx.c ****     \brief      write buffer of data to the I2C EEPROM
 101:C:/Users/49542/Desktop/GD32F30x_Demo_Suites_V2.0.0/GD32F30x_Demo_Suites_V2.0.0/BearPi-IoT_GD32F303_Demo_Suites/Projects/13_I2C_EEPROM/Soft_Drive\at24cxx.c ****     \param[in]  p_buffer: pointer to the buffer  containing the data to be written to the EEPROM
 102:C:/Users/49542/Desktop/GD32F30x_Demo_Suites_V2.0.0/GD32F30x_Demo_Suites_V2.0.0/BearPi-IoT_GD32F303_Demo_Suites/Projects/13_I2C_EEPROM/Soft_Drive\at24cxx.c ****     \param[in]  write_address: EEPROM's internal address to write to
 103:C:/Users/49542/Desktop/GD32F30x_Demo_Suites_V2.0.0/GD32F30x_Demo_Suites_V2.0.0/BearPi-IoT_GD32F303_Demo_Suites/Projects/13_I2C_EEPROM/Soft_Drive\at24cxx.c ****     \param[in]  number_of_byte: number of bytes to write to the EEPROM
 104:C:/Users/49542/Desktop/GD32F30x_Demo_Suites_V2.0.0/GD32F30x_Demo_Suites_V2.0.0/BearPi-IoT_GD32F303_Demo_Suites/Projects/13_I2C_EEPROM/Soft_Drive\at24cxx.c ****     \param[out] none
 105:C:/Users/49542/Desktop/GD32F30x_Demo_Suites_V2.0.0/GD32F30x_Demo_Suites_V2.0.0/BearPi-IoT_GD32F303_Demo_Suites/Projects/13_I2C_EEPROM/Soft_Drive\at24cxx.c ****     \retval     none
 106:C:/Users/49542/Desktop/GD32F30x_Demo_Suites_V2.0.0/GD32F30x_Demo_Suites_V2.0.0/BearPi-IoT_GD32F303_Demo_Suites/Projects/13_I2C_EEPROM/Soft_Drive\at24cxx.c **** */
 107:C:/Users/49542/Desktop/GD32F30x_Demo_Suites_V2.0.0/GD32F30x_Demo_Suites_V2.0.0/BearPi-IoT_GD32F303_Demo_Suites/Projects/13_I2C_EEPROM/Soft_Drive\at24cxx.c **** void eeprom_buffer_write(uint8_t* p_buffer, uint8_t write_address, uint16_t number_of_byte)
 108:C:/Users/49542/Desktop/GD32F30x_Demo_Suites_V2.0.0/GD32F30x_Demo_Suites_V2.0.0/BearPi-IoT_GD32F303_Demo_Suites/Projects/13_I2C_EEPROM/Soft_Drive\at24cxx.c **** {
 109:C:/Users/49542/Desktop/GD32F30x_Demo_Suites_V2.0.0/GD32F30x_Demo_Suites_V2.0.0/BearPi-IoT_GD32F303_Demo_Suites/Projects/13_I2C_EEPROM/Soft_Drive\at24cxx.c ****     uint8_t number_of_page = 0, number_of_single = 0, address = 0, count = 0;
 110:C:/Users/49542/Desktop/GD32F30x_Demo_Suites_V2.0.0/GD32F30x_Demo_Suites_V2.0.0/BearPi-IoT_GD32F303_Demo_Suites/Projects/13_I2C_EEPROM/Soft_Drive\at24cxx.c ****     
 111:C:/Users/49542/Desktop/GD32F30x_Demo_Suites_V2.0.0/GD32F30x_Demo_Suites_V2.0.0/BearPi-IoT_GD32F303_Demo_Suites/Projects/13_I2C_EEPROM/Soft_Drive\at24cxx.c ****     address = write_address % I2C_PAGE_SIZE;
 112:C:/Users/49542/Desktop/GD32F30x_Demo_Suites_V2.0.0/GD32F30x_Demo_Suites_V2.0.0/BearPi-IoT_GD32F303_Demo_Suites/Projects/13_I2C_EEPROM/Soft_Drive\at24cxx.c ****     count = I2C_PAGE_SIZE - address;
 113:C:/Users/49542/Desktop/GD32F30x_Demo_Suites_V2.0.0/GD32F30x_Demo_Suites_V2.0.0/BearPi-IoT_GD32F303_Demo_Suites/Projects/13_I2C_EEPROM/Soft_Drive\at24cxx.c ****     number_of_page =  number_of_byte / I2C_PAGE_SIZE;
 114:C:/Users/49542/Desktop/GD32F30x_Demo_Suites_V2.0.0/GD32F30x_Demo_Suites_V2.0.0/BearPi-IoT_GD32F303_Demo_Suites/Projects/13_I2C_EEPROM/Soft_Drive\at24cxx.c ****     number_of_single = number_of_byte % I2C_PAGE_SIZE;
 115:C:/Users/49542/Desktop/GD32F30x_Demo_Suites_V2.0.0/GD32F30x_Demo_Suites_V2.0.0/BearPi-IoT_GD32F303_Demo_Suites/Projects/13_I2C_EEPROM/Soft_Drive\at24cxx.c ****     
 116:C:/Users/49542/Desktop/GD32F30x_Demo_Suites_V2.0.0/GD32F30x_Demo_Suites_V2.0.0/BearPi-IoT_GD32F303_Demo_Suites/Projects/13_I2C_EEPROM/Soft_Drive\at24cxx.c ****     /* if write_address is I2C_PAGE_SIZE aligned  */
 117:C:/Users/49542/Desktop/GD32F30x_Demo_Suites_V2.0.0/GD32F30x_Demo_Suites_V2.0.0/BearPi-IoT_GD32F303_Demo_Suites/Projects/13_I2C_EEPROM/Soft_Drive\at24cxx.c ****     if(0 == address){
 118:C:/Users/49542/Desktop/GD32F30x_Demo_Suites_V2.0.0/GD32F30x_Demo_Suites_V2.0.0/BearPi-IoT_GD32F303_Demo_Suites/Projects/13_I2C_EEPROM/Soft_Drive\at24cxx.c ****         while(number_of_page--){
 119:C:/Users/49542/Desktop/GD32F30x_Demo_Suites_V2.0.0/GD32F30x_Demo_Suites_V2.0.0/BearPi-IoT_GD32F303_Demo_Suites/Projects/13_I2C_EEPROM/Soft_Drive\at24cxx.c ****             eeprom_page_write(p_buffer, write_address, I2C_PAGE_SIZE); 
ARM GAS  C:\Users\49542\AppData\Local\Temp\ccsfhkzv.s 			page 4


 120:C:/Users/49542/Desktop/GD32F30x_Demo_Suites_V2.0.0/GD32F30x_Demo_Suites_V2.0.0/BearPi-IoT_GD32F303_Demo_Suites/Projects/13_I2C_EEPROM/Soft_Drive\at24cxx.c ****             eeprom_wait_standby_state();
 121:C:/Users/49542/Desktop/GD32F30x_Demo_Suites_V2.0.0/GD32F30x_Demo_Suites_V2.0.0/BearPi-IoT_GD32F303_Demo_Suites/Projects/13_I2C_EEPROM/Soft_Drive\at24cxx.c ****             write_address +=  I2C_PAGE_SIZE;
 122:C:/Users/49542/Desktop/GD32F30x_Demo_Suites_V2.0.0/GD32F30x_Demo_Suites_V2.0.0/BearPi-IoT_GD32F303_Demo_Suites/Projects/13_I2C_EEPROM/Soft_Drive\at24cxx.c ****             p_buffer += I2C_PAGE_SIZE;
 123:C:/Users/49542/Desktop/GD32F30x_Demo_Suites_V2.0.0/GD32F30x_Demo_Suites_V2.0.0/BearPi-IoT_GD32F303_Demo_Suites/Projects/13_I2C_EEPROM/Soft_Drive\at24cxx.c ****         }
 124:C:/Users/49542/Desktop/GD32F30x_Demo_Suites_V2.0.0/GD32F30x_Demo_Suites_V2.0.0/BearPi-IoT_GD32F303_Demo_Suites/Projects/13_I2C_EEPROM/Soft_Drive\at24cxx.c ****         if(0 != number_of_single){
 125:C:/Users/49542/Desktop/GD32F30x_Demo_Suites_V2.0.0/GD32F30x_Demo_Suites_V2.0.0/BearPi-IoT_GD32F303_Demo_Suites/Projects/13_I2C_EEPROM/Soft_Drive\at24cxx.c ****             eeprom_page_write(p_buffer, write_address, number_of_single);
 126:C:/Users/49542/Desktop/GD32F30x_Demo_Suites_V2.0.0/GD32F30x_Demo_Suites_V2.0.0/BearPi-IoT_GD32F303_Demo_Suites/Projects/13_I2C_EEPROM/Soft_Drive\at24cxx.c ****             eeprom_wait_standby_state();
 127:C:/Users/49542/Desktop/GD32F30x_Demo_Suites_V2.0.0/GD32F30x_Demo_Suites_V2.0.0/BearPi-IoT_GD32F303_Demo_Suites/Projects/13_I2C_EEPROM/Soft_Drive\at24cxx.c ****         }      
 128:C:/Users/49542/Desktop/GD32F30x_Demo_Suites_V2.0.0/GD32F30x_Demo_Suites_V2.0.0/BearPi-IoT_GD32F303_Demo_Suites/Projects/13_I2C_EEPROM/Soft_Drive\at24cxx.c ****     }else{
 129:C:/Users/49542/Desktop/GD32F30x_Demo_Suites_V2.0.0/GD32F30x_Demo_Suites_V2.0.0/BearPi-IoT_GD32F303_Demo_Suites/Projects/13_I2C_EEPROM/Soft_Drive\at24cxx.c ****         /* if write_address is not I2C_PAGE_SIZE aligned */
 130:C:/Users/49542/Desktop/GD32F30x_Demo_Suites_V2.0.0/GD32F30x_Demo_Suites_V2.0.0/BearPi-IoT_GD32F303_Demo_Suites/Projects/13_I2C_EEPROM/Soft_Drive\at24cxx.c ****         if(number_of_byte < count){ 
 131:C:/Users/49542/Desktop/GD32F30x_Demo_Suites_V2.0.0/GD32F30x_Demo_Suites_V2.0.0/BearPi-IoT_GD32F303_Demo_Suites/Projects/13_I2C_EEPROM/Soft_Drive\at24cxx.c ****             eeprom_page_write(p_buffer, write_address, number_of_byte);
 132:C:/Users/49542/Desktop/GD32F30x_Demo_Suites_V2.0.0/GD32F30x_Demo_Suites_V2.0.0/BearPi-IoT_GD32F303_Demo_Suites/Projects/13_I2C_EEPROM/Soft_Drive\at24cxx.c ****             eeprom_wait_standby_state();
 133:C:/Users/49542/Desktop/GD32F30x_Demo_Suites_V2.0.0/GD32F30x_Demo_Suites_V2.0.0/BearPi-IoT_GD32F303_Demo_Suites/Projects/13_I2C_EEPROM/Soft_Drive\at24cxx.c ****         }else{
 134:C:/Users/49542/Desktop/GD32F30x_Demo_Suites_V2.0.0/GD32F30x_Demo_Suites_V2.0.0/BearPi-IoT_GD32F303_Demo_Suites/Projects/13_I2C_EEPROM/Soft_Drive\at24cxx.c ****             number_of_byte -= count;
 135:C:/Users/49542/Desktop/GD32F30x_Demo_Suites_V2.0.0/GD32F30x_Demo_Suites_V2.0.0/BearPi-IoT_GD32F303_Demo_Suites/Projects/13_I2C_EEPROM/Soft_Drive\at24cxx.c ****             number_of_page =  number_of_byte / I2C_PAGE_SIZE;
 136:C:/Users/49542/Desktop/GD32F30x_Demo_Suites_V2.0.0/GD32F30x_Demo_Suites_V2.0.0/BearPi-IoT_GD32F303_Demo_Suites/Projects/13_I2C_EEPROM/Soft_Drive\at24cxx.c ****             number_of_single = number_of_byte % I2C_PAGE_SIZE;
 137:C:/Users/49542/Desktop/GD32F30x_Demo_Suites_V2.0.0/GD32F30x_Demo_Suites_V2.0.0/BearPi-IoT_GD32F303_Demo_Suites/Projects/13_I2C_EEPROM/Soft_Drive\at24cxx.c ****             
 138:C:/Users/49542/Desktop/GD32F30x_Demo_Suites_V2.0.0/GD32F30x_Demo_Suites_V2.0.0/BearPi-IoT_GD32F303_Demo_Suites/Projects/13_I2C_EEPROM/Soft_Drive\at24cxx.c ****             if(0 != count){
 139:C:/Users/49542/Desktop/GD32F30x_Demo_Suites_V2.0.0/GD32F30x_Demo_Suites_V2.0.0/BearPi-IoT_GD32F303_Demo_Suites/Projects/13_I2C_EEPROM/Soft_Drive\at24cxx.c ****                 eeprom_page_write(p_buffer, write_address, count);
 140:C:/Users/49542/Desktop/GD32F30x_Demo_Suites_V2.0.0/GD32F30x_Demo_Suites_V2.0.0/BearPi-IoT_GD32F303_Demo_Suites/Projects/13_I2C_EEPROM/Soft_Drive\at24cxx.c ****                 eeprom_wait_standby_state();
 141:C:/Users/49542/Desktop/GD32F30x_Demo_Suites_V2.0.0/GD32F30x_Demo_Suites_V2.0.0/BearPi-IoT_GD32F303_Demo_Suites/Projects/13_I2C_EEPROM/Soft_Drive\at24cxx.c ****                 write_address += count;
 142:C:/Users/49542/Desktop/GD32F30x_Demo_Suites_V2.0.0/GD32F30x_Demo_Suites_V2.0.0/BearPi-IoT_GD32F303_Demo_Suites/Projects/13_I2C_EEPROM/Soft_Drive\at24cxx.c ****                 p_buffer += count;
 143:C:/Users/49542/Desktop/GD32F30x_Demo_Suites_V2.0.0/GD32F30x_Demo_Suites_V2.0.0/BearPi-IoT_GD32F303_Demo_Suites/Projects/13_I2C_EEPROM/Soft_Drive\at24cxx.c ****             } 
 144:C:/Users/49542/Desktop/GD32F30x_Demo_Suites_V2.0.0/GD32F30x_Demo_Suites_V2.0.0/BearPi-IoT_GD32F303_Demo_Suites/Projects/13_I2C_EEPROM/Soft_Drive\at24cxx.c ****             /* write page */
 145:C:/Users/49542/Desktop/GD32F30x_Demo_Suites_V2.0.0/GD32F30x_Demo_Suites_V2.0.0/BearPi-IoT_GD32F303_Demo_Suites/Projects/13_I2C_EEPROM/Soft_Drive\at24cxx.c ****             while(number_of_page--){
 146:C:/Users/49542/Desktop/GD32F30x_Demo_Suites_V2.0.0/GD32F30x_Demo_Suites_V2.0.0/BearPi-IoT_GD32F303_Demo_Suites/Projects/13_I2C_EEPROM/Soft_Drive\at24cxx.c ****                 eeprom_page_write(p_buffer, write_address, I2C_PAGE_SIZE);
 147:C:/Users/49542/Desktop/GD32F30x_Demo_Suites_V2.0.0/GD32F30x_Demo_Suites_V2.0.0/BearPi-IoT_GD32F303_Demo_Suites/Projects/13_I2C_EEPROM/Soft_Drive\at24cxx.c ****                 eeprom_wait_standby_state();
 148:C:/Users/49542/Desktop/GD32F30x_Demo_Suites_V2.0.0/GD32F30x_Demo_Suites_V2.0.0/BearPi-IoT_GD32F303_Demo_Suites/Projects/13_I2C_EEPROM/Soft_Drive\at24cxx.c ****                 write_address +=  I2C_PAGE_SIZE;
 149:C:/Users/49542/Desktop/GD32F30x_Demo_Suites_V2.0.0/GD32F30x_Demo_Suites_V2.0.0/BearPi-IoT_GD32F303_Demo_Suites/Projects/13_I2C_EEPROM/Soft_Drive\at24cxx.c ****                 p_buffer += I2C_PAGE_SIZE;
 150:C:/Users/49542/Desktop/GD32F30x_Demo_Suites_V2.0.0/GD32F30x_Demo_Suites_V2.0.0/BearPi-IoT_GD32F303_Demo_Suites/Projects/13_I2C_EEPROM/Soft_Drive\at24cxx.c ****             }
 151:C:/Users/49542/Desktop/GD32F30x_Demo_Suites_V2.0.0/GD32F30x_Demo_Suites_V2.0.0/BearPi-IoT_GD32F303_Demo_Suites/Projects/13_I2C_EEPROM/Soft_Drive\at24cxx.c ****             /* write single */
 152:C:/Users/49542/Desktop/GD32F30x_Demo_Suites_V2.0.0/GD32F30x_Demo_Suites_V2.0.0/BearPi-IoT_GD32F303_Demo_Suites/Projects/13_I2C_EEPROM/Soft_Drive\at24cxx.c ****             if(0 != number_of_single){
 153:C:/Users/49542/Desktop/GD32F30x_Demo_Suites_V2.0.0/GD32F30x_Demo_Suites_V2.0.0/BearPi-IoT_GD32F303_Demo_Suites/Projects/13_I2C_EEPROM/Soft_Drive\at24cxx.c ****                 eeprom_page_write(p_buffer, write_address, number_of_single); 
 154:C:/Users/49542/Desktop/GD32F30x_Demo_Suites_V2.0.0/GD32F30x_Demo_Suites_V2.0.0/BearPi-IoT_GD32F303_Demo_Suites/Projects/13_I2C_EEPROM/Soft_Drive\at24cxx.c ****                 eeprom_wait_standby_state();
 155:C:/Users/49542/Desktop/GD32F30x_Demo_Suites_V2.0.0/GD32F30x_Demo_Suites_V2.0.0/BearPi-IoT_GD32F303_Demo_Suites/Projects/13_I2C_EEPROM/Soft_Drive\at24cxx.c ****             }
 156:C:/Users/49542/Desktop/GD32F30x_Demo_Suites_V2.0.0/GD32F30x_Demo_Suites_V2.0.0/BearPi-IoT_GD32F303_Demo_Suites/Projects/13_I2C_EEPROM/Soft_Drive\at24cxx.c ****         }
 157:C:/Users/49542/Desktop/GD32F30x_Demo_Suites_V2.0.0/GD32F30x_Demo_Suites_V2.0.0/BearPi-IoT_GD32F303_Demo_Suites/Projects/13_I2C_EEPROM/Soft_Drive\at24cxx.c ****     }  
 158:C:/Users/49542/Desktop/GD32F30x_Demo_Suites_V2.0.0/GD32F30x_Demo_Suites_V2.0.0/BearPi-IoT_GD32F303_Demo_Suites/Projects/13_I2C_EEPROM/Soft_Drive\at24cxx.c **** }
 159:C:/Users/49542/Desktop/GD32F30x_Demo_Suites_V2.0.0/GD32F30x_Demo_Suites_V2.0.0/BearPi-IoT_GD32F303_Demo_Suites/Projects/13_I2C_EEPROM/Soft_Drive\at24cxx.c **** 
 160:C:/Users/49542/Desktop/GD32F30x_Demo_Suites_V2.0.0/GD32F30x_Demo_Suites_V2.0.0/BearPi-IoT_GD32F303_Demo_Suites/Projects/13_I2C_EEPROM/Soft_Drive\at24cxx.c **** /*!
 161:C:/Users/49542/Desktop/GD32F30x_Demo_Suites_V2.0.0/GD32F30x_Demo_Suites_V2.0.0/BearPi-IoT_GD32F303_Demo_Suites/Projects/13_I2C_EEPROM/Soft_Drive\at24cxx.c ****     \brief      write one byte to the I2C EEPROM
 162:C:/Users/49542/Desktop/GD32F30x_Demo_Suites_V2.0.0/GD32F30x_Demo_Suites_V2.0.0/BearPi-IoT_GD32F303_Demo_Suites/Projects/13_I2C_EEPROM/Soft_Drive\at24cxx.c ****     \param[in]  p_buffer: pointer to the buffer containing the data to be written to the EEPROM
 163:C:/Users/49542/Desktop/GD32F30x_Demo_Suites_V2.0.0/GD32F30x_Demo_Suites_V2.0.0/BearPi-IoT_GD32F303_Demo_Suites/Projects/13_I2C_EEPROM/Soft_Drive\at24cxx.c ****     \param[in]  write_address: EEPROM's internal address to write to
 164:C:/Users/49542/Desktop/GD32F30x_Demo_Suites_V2.0.0/GD32F30x_Demo_Suites_V2.0.0/BearPi-IoT_GD32F303_Demo_Suites/Projects/13_I2C_EEPROM/Soft_Drive\at24cxx.c ****     \param[out] none
 165:C:/Users/49542/Desktop/GD32F30x_Demo_Suites_V2.0.0/GD32F30x_Demo_Suites_V2.0.0/BearPi-IoT_GD32F303_Demo_Suites/Projects/13_I2C_EEPROM/Soft_Drive\at24cxx.c ****     \retval     none
 166:C:/Users/49542/Desktop/GD32F30x_Demo_Suites_V2.0.0/GD32F30x_Demo_Suites_V2.0.0/BearPi-IoT_GD32F303_Demo_Suites/Projects/13_I2C_EEPROM/Soft_Drive\at24cxx.c **** */
 167:C:/Users/49542/Desktop/GD32F30x_Demo_Suites_V2.0.0/GD32F30x_Demo_Suites_V2.0.0/BearPi-IoT_GD32F303_Demo_Suites/Projects/13_I2C_EEPROM/Soft_Drive\at24cxx.c **** void eeprom_byte_write(uint8_t* p_buffer, uint8_t write_address)
 168:C:/Users/49542/Desktop/GD32F30x_Demo_Suites_V2.0.0/GD32F30x_Demo_Suites_V2.0.0/BearPi-IoT_GD32F303_Demo_Suites/Projects/13_I2C_EEPROM/Soft_Drive\at24cxx.c **** {
  56              		.loc 1 168 0
  57              		.cfi_startproc
  58              		@ args = 0, pretend = 0, frame = 0
  59              		@ frame_needed = 0, uses_anonymous_args = 0
  60              	.LVL0:
  61 0000 38B5     		push	{r3, r4, r5, lr}
  62              	.LCFI0:
  63              		.cfi_def_cfa_offset 16
ARM GAS  C:\Users\49542\AppData\Local\Temp\ccsfhkzv.s 			page 5


  64              		.cfi_offset 3, -16
  65              		.cfi_offset 4, -12
  66              		.cfi_offset 5, -8
  67              		.cfi_offset 14, -4
  68 0002 0446     		mov	r4, r0
  69 0004 0D46     		mov	r5, r1
  70              	.LVL1:
  71              	.L5:
 169:C:/Users/49542/Desktop/GD32F30x_Demo_Suites_V2.0.0/GD32F30x_Demo_Suites_V2.0.0/BearPi-IoT_GD32F303_Demo_Suites/Projects/13_I2C_EEPROM/Soft_Drive\at24cxx.c ****     /* wait until I2C bus is idle */
 170:C:/Users/49542/Desktop/GD32F30x_Demo_Suites_V2.0.0/GD32F30x_Demo_Suites_V2.0.0/BearPi-IoT_GD32F303_Demo_Suites/Projects/13_I2C_EEPROM/Soft_Drive\at24cxx.c ****     while(i2c_flag_get(I2C0, I2C_FLAG_I2CBSY));
  72              		.loc 1 170 0 discriminator 1
  73 0006 40F20161 		movw	r1, #1537
  74 000a 2448     		ldr	r0, .L13
  75 000c FFF7FEFF 		bl	i2c_flag_get
  76              	.LVL2:
  77 0010 0028     		cmp	r0, #0
  78 0012 F8D1     		bne	.L5
 171:C:/Users/49542/Desktop/GD32F30x_Demo_Suites_V2.0.0/GD32F30x_Demo_Suites_V2.0.0/BearPi-IoT_GD32F303_Demo_Suites/Projects/13_I2C_EEPROM/Soft_Drive\at24cxx.c **** 
 172:C:/Users/49542/Desktop/GD32F30x_Demo_Suites_V2.0.0/GD32F30x_Demo_Suites_V2.0.0/BearPi-IoT_GD32F303_Demo_Suites/Projects/13_I2C_EEPROM/Soft_Drive\at24cxx.c ****     /* send a start condition to I2C bus */
 173:C:/Users/49542/Desktop/GD32F30x_Demo_Suites_V2.0.0/GD32F30x_Demo_Suites_V2.0.0/BearPi-IoT_GD32F303_Demo_Suites/Projects/13_I2C_EEPROM/Soft_Drive\at24cxx.c ****     i2c_start_on_bus(I2C0);
  79              		.loc 1 173 0
  80 0014 2148     		ldr	r0, .L13
  81 0016 FFF7FEFF 		bl	i2c_start_on_bus
  82              	.LVL3:
  83              	.L6:
 174:C:/Users/49542/Desktop/GD32F30x_Demo_Suites_V2.0.0/GD32F30x_Demo_Suites_V2.0.0/BearPi-IoT_GD32F303_Demo_Suites/Projects/13_I2C_EEPROM/Soft_Drive\at24cxx.c ****     
 175:C:/Users/49542/Desktop/GD32F30x_Demo_Suites_V2.0.0/GD32F30x_Demo_Suites_V2.0.0/BearPi-IoT_GD32F303_Demo_Suites/Projects/13_I2C_EEPROM/Soft_Drive\at24cxx.c ****     /* wait until SBSEND bit is set */
 176:C:/Users/49542/Desktop/GD32F30x_Demo_Suites_V2.0.0/GD32F30x_Demo_Suites_V2.0.0/BearPi-IoT_GD32F303_Demo_Suites/Projects/13_I2C_EEPROM/Soft_Drive\at24cxx.c ****     while(!i2c_flag_get(I2C0, I2C_FLAG_SBSEND));
  84              		.loc 1 176 0 discriminator 1
  85 001a 4FF4A061 		mov	r1, #1280
  86 001e 1F48     		ldr	r0, .L13
  87 0020 FFF7FEFF 		bl	i2c_flag_get
  88              	.LVL4:
  89 0024 0028     		cmp	r0, #0
  90 0026 F8D0     		beq	.L6
 177:C:/Users/49542/Desktop/GD32F30x_Demo_Suites_V2.0.0/GD32F30x_Demo_Suites_V2.0.0/BearPi-IoT_GD32F303_Demo_Suites/Projects/13_I2C_EEPROM/Soft_Drive\at24cxx.c ****     
 178:C:/Users/49542/Desktop/GD32F30x_Demo_Suites_V2.0.0/GD32F30x_Demo_Suites_V2.0.0/BearPi-IoT_GD32F303_Demo_Suites/Projects/13_I2C_EEPROM/Soft_Drive\at24cxx.c ****     /* send slave address to I2C bus */
 179:C:/Users/49542/Desktop/GD32F30x_Demo_Suites_V2.0.0/GD32F30x_Demo_Suites_V2.0.0/BearPi-IoT_GD32F303_Demo_Suites/Projects/13_I2C_EEPROM/Soft_Drive\at24cxx.c ****     i2c_master_addressing(I2C0, eeprom_address, I2C_TRANSMITTER);
  91              		.loc 1 179 0
  92 0028 6FF00102 		mvn	r2, #1
  93 002c 1C4B     		ldr	r3, .L13+4
  94 002e 1988     		ldrh	r1, [r3]
  95 0030 1A48     		ldr	r0, .L13
  96 0032 FFF7FEFF 		bl	i2c_master_addressing
  97              	.LVL5:
  98              	.L7:
 180:C:/Users/49542/Desktop/GD32F30x_Demo_Suites_V2.0.0/GD32F30x_Demo_Suites_V2.0.0/BearPi-IoT_GD32F303_Demo_Suites/Projects/13_I2C_EEPROM/Soft_Drive\at24cxx.c ****     
 181:C:/Users/49542/Desktop/GD32F30x_Demo_Suites_V2.0.0/GD32F30x_Demo_Suites_V2.0.0/BearPi-IoT_GD32F303_Demo_Suites/Projects/13_I2C_EEPROM/Soft_Drive\at24cxx.c ****     /* wait until ADDSEND bit is set */
 182:C:/Users/49542/Desktop/GD32F30x_Demo_Suites_V2.0.0/GD32F30x_Demo_Suites_V2.0.0/BearPi-IoT_GD32F303_Demo_Suites/Projects/13_I2C_EEPROM/Soft_Drive\at24cxx.c ****     while(!i2c_flag_get(I2C0, I2C_FLAG_ADDSEND));
  99              		.loc 1 182 0 discriminator 1
 100 0036 40F20151 		movw	r1, #1281
 101 003a 1848     		ldr	r0, .L13
 102 003c FFF7FEFF 		bl	i2c_flag_get
 103              	.LVL6:
 104 0040 0028     		cmp	r0, #0
 105 0042 F8D0     		beq	.L7
 183:C:/Users/49542/Desktop/GD32F30x_Demo_Suites_V2.0.0/GD32F30x_Demo_Suites_V2.0.0/BearPi-IoT_GD32F303_Demo_Suites/Projects/13_I2C_EEPROM/Soft_Drive\at24cxx.c ****     
ARM GAS  C:\Users\49542\AppData\Local\Temp\ccsfhkzv.s 			page 6


 184:C:/Users/49542/Desktop/GD32F30x_Demo_Suites_V2.0.0/GD32F30x_Demo_Suites_V2.0.0/BearPi-IoT_GD32F303_Demo_Suites/Projects/13_I2C_EEPROM/Soft_Drive\at24cxx.c ****     /* clear the ADDSEND bit */
 185:C:/Users/49542/Desktop/GD32F30x_Demo_Suites_V2.0.0/GD32F30x_Demo_Suites_V2.0.0/BearPi-IoT_GD32F303_Demo_Suites/Projects/13_I2C_EEPROM/Soft_Drive\at24cxx.c ****     i2c_flag_clear(I2C0,I2C_FLAG_ADDSEND);
 106              		.loc 1 185 0
 107 0044 40F20151 		movw	r1, #1281
 108 0048 1448     		ldr	r0, .L13
 109 004a FFF7FEFF 		bl	i2c_flag_clear
 110              	.LVL7:
 111              	.L8:
 186:C:/Users/49542/Desktop/GD32F30x_Demo_Suites_V2.0.0/GD32F30x_Demo_Suites_V2.0.0/BearPi-IoT_GD32F303_Demo_Suites/Projects/13_I2C_EEPROM/Soft_Drive\at24cxx.c ****     
 187:C:/Users/49542/Desktop/GD32F30x_Demo_Suites_V2.0.0/GD32F30x_Demo_Suites_V2.0.0/BearPi-IoT_GD32F303_Demo_Suites/Projects/13_I2C_EEPROM/Soft_Drive\at24cxx.c ****     /* wait until the transmit data buffer is empty */
 188:C:/Users/49542/Desktop/GD32F30x_Demo_Suites_V2.0.0/GD32F30x_Demo_Suites_V2.0.0/BearPi-IoT_GD32F303_Demo_Suites/Projects/13_I2C_EEPROM/Soft_Drive\at24cxx.c ****     while(SET != i2c_flag_get(I2C0, I2C_FLAG_TBE));
 112              		.loc 1 188 0 discriminator 1
 113 004e 40F20751 		movw	r1, #1287
 114 0052 1248     		ldr	r0, .L13
 115 0054 FFF7FEFF 		bl	i2c_flag_get
 116              	.LVL8:
 117 0058 0128     		cmp	r0, #1
 118 005a F8D1     		bne	.L8
 189:C:/Users/49542/Desktop/GD32F30x_Demo_Suites_V2.0.0/GD32F30x_Demo_Suites_V2.0.0/BearPi-IoT_GD32F303_Demo_Suites/Projects/13_I2C_EEPROM/Soft_Drive\at24cxx.c ****     
 190:C:/Users/49542/Desktop/GD32F30x_Demo_Suites_V2.0.0/GD32F30x_Demo_Suites_V2.0.0/BearPi-IoT_GD32F303_Demo_Suites/Projects/13_I2C_EEPROM/Soft_Drive\at24cxx.c ****     /* send the EEPROM's internal address to write to : only one byte address */
 191:C:/Users/49542/Desktop/GD32F30x_Demo_Suites_V2.0.0/GD32F30x_Demo_Suites_V2.0.0/BearPi-IoT_GD32F303_Demo_Suites/Projects/13_I2C_EEPROM/Soft_Drive\at24cxx.c ****     i2c_data_transmit(I2C0, write_address);
 119              		.loc 1 191 0
 120 005c 2946     		mov	r1, r5
 121 005e 0F48     		ldr	r0, .L13
 122 0060 FFF7FEFF 		bl	i2c_data_transmit
 123              	.LVL9:
 124              	.L9:
 192:C:/Users/49542/Desktop/GD32F30x_Demo_Suites_V2.0.0/GD32F30x_Demo_Suites_V2.0.0/BearPi-IoT_GD32F303_Demo_Suites/Projects/13_I2C_EEPROM/Soft_Drive\at24cxx.c ****     
 193:C:/Users/49542/Desktop/GD32F30x_Demo_Suites_V2.0.0/GD32F30x_Demo_Suites_V2.0.0/BearPi-IoT_GD32F303_Demo_Suites/Projects/13_I2C_EEPROM/Soft_Drive\at24cxx.c ****     /* wait until BTC bit is set */
 194:C:/Users/49542/Desktop/GD32F30x_Demo_Suites_V2.0.0/GD32F30x_Demo_Suites_V2.0.0/BearPi-IoT_GD32F303_Demo_Suites/Projects/13_I2C_EEPROM/Soft_Drive\at24cxx.c ****     while(!i2c_flag_get(I2C0, I2C_FLAG_BTC));
 125              		.loc 1 194 0 discriminator 1
 126 0064 40F20251 		movw	r1, #1282
 127 0068 0C48     		ldr	r0, .L13
 128 006a FFF7FEFF 		bl	i2c_flag_get
 129              	.LVL10:
 130 006e 0028     		cmp	r0, #0
 131 0070 F8D0     		beq	.L9
 195:C:/Users/49542/Desktop/GD32F30x_Demo_Suites_V2.0.0/GD32F30x_Demo_Suites_V2.0.0/BearPi-IoT_GD32F303_Demo_Suites/Projects/13_I2C_EEPROM/Soft_Drive\at24cxx.c ****     
 196:C:/Users/49542/Desktop/GD32F30x_Demo_Suites_V2.0.0/GD32F30x_Demo_Suites_V2.0.0/BearPi-IoT_GD32F303_Demo_Suites/Projects/13_I2C_EEPROM/Soft_Drive\at24cxx.c ****     /* send the byte to be written */
 197:C:/Users/49542/Desktop/GD32F30x_Demo_Suites_V2.0.0/GD32F30x_Demo_Suites_V2.0.0/BearPi-IoT_GD32F303_Demo_Suites/Projects/13_I2C_EEPROM/Soft_Drive\at24cxx.c ****     i2c_data_transmit(I2C0, *p_buffer); 
 132              		.loc 1 197 0
 133 0072 2178     		ldrb	r1, [r4]	@ zero_extendqisi2
 134 0074 0948     		ldr	r0, .L13
 135 0076 FFF7FEFF 		bl	i2c_data_transmit
 136              	.LVL11:
 137              	.L10:
 198:C:/Users/49542/Desktop/GD32F30x_Demo_Suites_V2.0.0/GD32F30x_Demo_Suites_V2.0.0/BearPi-IoT_GD32F303_Demo_Suites/Projects/13_I2C_EEPROM/Soft_Drive\at24cxx.c ****     
 199:C:/Users/49542/Desktop/GD32F30x_Demo_Suites_V2.0.0/GD32F30x_Demo_Suites_V2.0.0/BearPi-IoT_GD32F303_Demo_Suites/Projects/13_I2C_EEPROM/Soft_Drive\at24cxx.c ****     /* wait until BTC bit is set */
 200:C:/Users/49542/Desktop/GD32F30x_Demo_Suites_V2.0.0/GD32F30x_Demo_Suites_V2.0.0/BearPi-IoT_GD32F303_Demo_Suites/Projects/13_I2C_EEPROM/Soft_Drive\at24cxx.c ****     while(!i2c_flag_get(I2C0, I2C_FLAG_BTC));
 138              		.loc 1 200 0 discriminator 1
 139 007a 40F20251 		movw	r1, #1282
 140 007e 0748     		ldr	r0, .L13
 141 0080 FFF7FEFF 		bl	i2c_flag_get
 142              	.LVL12:
 143 0084 0028     		cmp	r0, #0
 144 0086 F8D0     		beq	.L10
 201:C:/Users/49542/Desktop/GD32F30x_Demo_Suites_V2.0.0/GD32F30x_Demo_Suites_V2.0.0/BearPi-IoT_GD32F303_Demo_Suites/Projects/13_I2C_EEPROM/Soft_Drive\at24cxx.c **** 
ARM GAS  C:\Users\49542\AppData\Local\Temp\ccsfhkzv.s 			page 7


 202:C:/Users/49542/Desktop/GD32F30x_Demo_Suites_V2.0.0/GD32F30x_Demo_Suites_V2.0.0/BearPi-IoT_GD32F303_Demo_Suites/Projects/13_I2C_EEPROM/Soft_Drive\at24cxx.c ****     /* send a stop condition to I2C bus */
 203:C:/Users/49542/Desktop/GD32F30x_Demo_Suites_V2.0.0/GD32F30x_Demo_Suites_V2.0.0/BearPi-IoT_GD32F303_Demo_Suites/Projects/13_I2C_EEPROM/Soft_Drive\at24cxx.c ****     i2c_stop_on_bus(I2C0);
 145              		.loc 1 203 0
 146 0088 0448     		ldr	r0, .L13
 147 008a FFF7FEFF 		bl	i2c_stop_on_bus
 148              	.LVL13:
 149              	.L11:
 204:C:/Users/49542/Desktop/GD32F30x_Demo_Suites_V2.0.0/GD32F30x_Demo_Suites_V2.0.0/BearPi-IoT_GD32F303_Demo_Suites/Projects/13_I2C_EEPROM/Soft_Drive\at24cxx.c ****     
 205:C:/Users/49542/Desktop/GD32F30x_Demo_Suites_V2.0.0/GD32F30x_Demo_Suites_V2.0.0/BearPi-IoT_GD32F303_Demo_Suites/Projects/13_I2C_EEPROM/Soft_Drive\at24cxx.c ****     /* wait until the stop condition is finished */
 206:C:/Users/49542/Desktop/GD32F30x_Demo_Suites_V2.0.0/GD32F30x_Demo_Suites_V2.0.0/BearPi-IoT_GD32F303_Demo_Suites/Projects/13_I2C_EEPROM/Soft_Drive\at24cxx.c ****     while(I2C_CTL0(I2C0)&0x0200);
 150              		.loc 1 206 0 discriminator 1
 151 008e 034B     		ldr	r3, .L13
 152 0090 1B68     		ldr	r3, [r3]
 153 0092 13F4007F 		tst	r3, #512
 154 0096 FAD1     		bne	.L11
 207:C:/Users/49542/Desktop/GD32F30x_Demo_Suites_V2.0.0/GD32F30x_Demo_Suites_V2.0.0/BearPi-IoT_GD32F303_Demo_Suites/Projects/13_I2C_EEPROM/Soft_Drive\at24cxx.c **** }
 155              		.loc 1 207 0
 156 0098 38BD     		pop	{r3, r4, r5, pc}
 157              	.LVL14:
 158              	.L14:
 159 009a 00BF     		.align	2
 160              	.L13:
 161 009c 00540040 		.word	1073763328
 162 00a0 00000000 		.word	eeprom_address
 163              		.cfi_endproc
 164              	.LFE122:
 166              		.section	.text.eeprom_page_write,"ax",%progbits
 167              		.align	1
 168              		.global	eeprom_page_write
 169              		.syntax unified
 170              		.thumb
 171              		.thumb_func
 172              		.fpu fpv4-sp-d16
 174              	eeprom_page_write:
 175              	.LFB123:
 208:C:/Users/49542/Desktop/GD32F30x_Demo_Suites_V2.0.0/GD32F30x_Demo_Suites_V2.0.0/BearPi-IoT_GD32F303_Demo_Suites/Projects/13_I2C_EEPROM/Soft_Drive\at24cxx.c **** 
 209:C:/Users/49542/Desktop/GD32F30x_Demo_Suites_V2.0.0/GD32F30x_Demo_Suites_V2.0.0/BearPi-IoT_GD32F303_Demo_Suites/Projects/13_I2C_EEPROM/Soft_Drive\at24cxx.c **** /*!
 210:C:/Users/49542/Desktop/GD32F30x_Demo_Suites_V2.0.0/GD32F30x_Demo_Suites_V2.0.0/BearPi-IoT_GD32F303_Demo_Suites/Projects/13_I2C_EEPROM/Soft_Drive\at24cxx.c ****     \brief      write more than one byte to the EEPROM with a single write cycle
 211:C:/Users/49542/Desktop/GD32F30x_Demo_Suites_V2.0.0/GD32F30x_Demo_Suites_V2.0.0/BearPi-IoT_GD32F303_Demo_Suites/Projects/13_I2C_EEPROM/Soft_Drive\at24cxx.c ****     \param[in]  p_buffer: pointer to the buffer containing the data to be written to the EEPROM
 212:C:/Users/49542/Desktop/GD32F30x_Demo_Suites_V2.0.0/GD32F30x_Demo_Suites_V2.0.0/BearPi-IoT_GD32F303_Demo_Suites/Projects/13_I2C_EEPROM/Soft_Drive\at24cxx.c ****     \param[in]  write_address: EEPROM's internal address to write to
 213:C:/Users/49542/Desktop/GD32F30x_Demo_Suites_V2.0.0/GD32F30x_Demo_Suites_V2.0.0/BearPi-IoT_GD32F303_Demo_Suites/Projects/13_I2C_EEPROM/Soft_Drive\at24cxx.c ****     \param[in]  number_of_byte: number of bytes to write to the EEPROM
 214:C:/Users/49542/Desktop/GD32F30x_Demo_Suites_V2.0.0/GD32F30x_Demo_Suites_V2.0.0/BearPi-IoT_GD32F303_Demo_Suites/Projects/13_I2C_EEPROM/Soft_Drive\at24cxx.c ****     \param[out] none
 215:C:/Users/49542/Desktop/GD32F30x_Demo_Suites_V2.0.0/GD32F30x_Demo_Suites_V2.0.0/BearPi-IoT_GD32F303_Demo_Suites/Projects/13_I2C_EEPROM/Soft_Drive\at24cxx.c ****     \retval     none
 216:C:/Users/49542/Desktop/GD32F30x_Demo_Suites_V2.0.0/GD32F30x_Demo_Suites_V2.0.0/BearPi-IoT_GD32F303_Demo_Suites/Projects/13_I2C_EEPROM/Soft_Drive\at24cxx.c **** */
 217:C:/Users/49542/Desktop/GD32F30x_Demo_Suites_V2.0.0/GD32F30x_Demo_Suites_V2.0.0/BearPi-IoT_GD32F303_Demo_Suites/Projects/13_I2C_EEPROM/Soft_Drive\at24cxx.c **** void eeprom_page_write(uint8_t* p_buffer, uint8_t write_address, uint8_t number_of_byte)
 218:C:/Users/49542/Desktop/GD32F30x_Demo_Suites_V2.0.0/GD32F30x_Demo_Suites_V2.0.0/BearPi-IoT_GD32F303_Demo_Suites/Projects/13_I2C_EEPROM/Soft_Drive\at24cxx.c **** {
 176              		.loc 1 218 0
 177              		.cfi_startproc
 178              		@ args = 0, pretend = 0, frame = 0
 179              		@ frame_needed = 0, uses_anonymous_args = 0
 180              	.LVL15:
 181 0000 70B5     		push	{r4, r5, r6, lr}
 182              	.LCFI1:
 183              		.cfi_def_cfa_offset 16
 184              		.cfi_offset 4, -16
 185              		.cfi_offset 5, -12
 186              		.cfi_offset 6, -8
ARM GAS  C:\Users\49542\AppData\Local\Temp\ccsfhkzv.s 			page 8


 187              		.cfi_offset 14, -4
 188 0002 0646     		mov	r6, r0
 189 0004 0C46     		mov	r4, r1
 190 0006 1546     		mov	r5, r2
 191              	.LVL16:
 192              	.L16:
 219:C:/Users/49542/Desktop/GD32F30x_Demo_Suites_V2.0.0/GD32F30x_Demo_Suites_V2.0.0/BearPi-IoT_GD32F303_Demo_Suites/Projects/13_I2C_EEPROM/Soft_Drive\at24cxx.c ****     /* wait until I2C bus is idle */
 220:C:/Users/49542/Desktop/GD32F30x_Demo_Suites_V2.0.0/GD32F30x_Demo_Suites_V2.0.0/BearPi-IoT_GD32F303_Demo_Suites/Projects/13_I2C_EEPROM/Soft_Drive\at24cxx.c ****     while(i2c_flag_get(I2C0, I2C_FLAG_I2CBSY));
 193              		.loc 1 220 0 discriminator 1
 194 0008 40F20161 		movw	r1, #1537
 195 000c 2748     		ldr	r0, .L26
 196 000e FFF7FEFF 		bl	i2c_flag_get
 197              	.LVL17:
 198 0012 0028     		cmp	r0, #0
 199 0014 F8D1     		bne	.L16
 221:C:/Users/49542/Desktop/GD32F30x_Demo_Suites_V2.0.0/GD32F30x_Demo_Suites_V2.0.0/BearPi-IoT_GD32F303_Demo_Suites/Projects/13_I2C_EEPROM/Soft_Drive\at24cxx.c ****     
 222:C:/Users/49542/Desktop/GD32F30x_Demo_Suites_V2.0.0/GD32F30x_Demo_Suites_V2.0.0/BearPi-IoT_GD32F303_Demo_Suites/Projects/13_I2C_EEPROM/Soft_Drive\at24cxx.c ****     /* send a start condition to I2C bus */
 223:C:/Users/49542/Desktop/GD32F30x_Demo_Suites_V2.0.0/GD32F30x_Demo_Suites_V2.0.0/BearPi-IoT_GD32F303_Demo_Suites/Projects/13_I2C_EEPROM/Soft_Drive\at24cxx.c ****     i2c_start_on_bus(I2C0);
 200              		.loc 1 223 0
 201 0016 2548     		ldr	r0, .L26
 202 0018 FFF7FEFF 		bl	i2c_start_on_bus
 203              	.LVL18:
 204              	.L17:
 224:C:/Users/49542/Desktop/GD32F30x_Demo_Suites_V2.0.0/GD32F30x_Demo_Suites_V2.0.0/BearPi-IoT_GD32F303_Demo_Suites/Projects/13_I2C_EEPROM/Soft_Drive\at24cxx.c ****     
 225:C:/Users/49542/Desktop/GD32F30x_Demo_Suites_V2.0.0/GD32F30x_Demo_Suites_V2.0.0/BearPi-IoT_GD32F303_Demo_Suites/Projects/13_I2C_EEPROM/Soft_Drive\at24cxx.c ****     /* wait until SBSEND bit is set */
 226:C:/Users/49542/Desktop/GD32F30x_Demo_Suites_V2.0.0/GD32F30x_Demo_Suites_V2.0.0/BearPi-IoT_GD32F303_Demo_Suites/Projects/13_I2C_EEPROM/Soft_Drive\at24cxx.c ****     while(!i2c_flag_get(I2C0, I2C_FLAG_SBSEND));
 205              		.loc 1 226 0 discriminator 1
 206 001c 4FF4A061 		mov	r1, #1280
 207 0020 2248     		ldr	r0, .L26
 208 0022 FFF7FEFF 		bl	i2c_flag_get
 209              	.LVL19:
 210 0026 0028     		cmp	r0, #0
 211 0028 F8D0     		beq	.L17
 227:C:/Users/49542/Desktop/GD32F30x_Demo_Suites_V2.0.0/GD32F30x_Demo_Suites_V2.0.0/BearPi-IoT_GD32F303_Demo_Suites/Projects/13_I2C_EEPROM/Soft_Drive\at24cxx.c ****     
 228:C:/Users/49542/Desktop/GD32F30x_Demo_Suites_V2.0.0/GD32F30x_Demo_Suites_V2.0.0/BearPi-IoT_GD32F303_Demo_Suites/Projects/13_I2C_EEPROM/Soft_Drive\at24cxx.c ****     /* send slave address to I2C bus */
 229:C:/Users/49542/Desktop/GD32F30x_Demo_Suites_V2.0.0/GD32F30x_Demo_Suites_V2.0.0/BearPi-IoT_GD32F303_Demo_Suites/Projects/13_I2C_EEPROM/Soft_Drive\at24cxx.c ****     i2c_master_addressing(I2C0, eeprom_address, I2C_TRANSMITTER);
 212              		.loc 1 229 0
 213 002a 6FF00102 		mvn	r2, #1
 214 002e 204B     		ldr	r3, .L26+4
 215 0030 1988     		ldrh	r1, [r3]
 216 0032 1E48     		ldr	r0, .L26
 217 0034 FFF7FEFF 		bl	i2c_master_addressing
 218              	.LVL20:
 219              	.L18:
 230:C:/Users/49542/Desktop/GD32F30x_Demo_Suites_V2.0.0/GD32F30x_Demo_Suites_V2.0.0/BearPi-IoT_GD32F303_Demo_Suites/Projects/13_I2C_EEPROM/Soft_Drive\at24cxx.c ****     
 231:C:/Users/49542/Desktop/GD32F30x_Demo_Suites_V2.0.0/GD32F30x_Demo_Suites_V2.0.0/BearPi-IoT_GD32F303_Demo_Suites/Projects/13_I2C_EEPROM/Soft_Drive\at24cxx.c ****     /* wait until ADDSEND bit is set */
 232:C:/Users/49542/Desktop/GD32F30x_Demo_Suites_V2.0.0/GD32F30x_Demo_Suites_V2.0.0/BearPi-IoT_GD32F303_Demo_Suites/Projects/13_I2C_EEPROM/Soft_Drive\at24cxx.c ****     while(!i2c_flag_get(I2C0, I2C_FLAG_ADDSEND));
 220              		.loc 1 232 0 discriminator 1
 221 0038 40F20151 		movw	r1, #1281
 222 003c 1B48     		ldr	r0, .L26
 223 003e FFF7FEFF 		bl	i2c_flag_get
 224              	.LVL21:
 225 0042 0028     		cmp	r0, #0
 226 0044 F8D0     		beq	.L18
 233:C:/Users/49542/Desktop/GD32F30x_Demo_Suites_V2.0.0/GD32F30x_Demo_Suites_V2.0.0/BearPi-IoT_GD32F303_Demo_Suites/Projects/13_I2C_EEPROM/Soft_Drive\at24cxx.c ****     
 234:C:/Users/49542/Desktop/GD32F30x_Demo_Suites_V2.0.0/GD32F30x_Demo_Suites_V2.0.0/BearPi-IoT_GD32F303_Demo_Suites/Projects/13_I2C_EEPROM/Soft_Drive\at24cxx.c ****     /* clear the ADDSEND bit */
 235:C:/Users/49542/Desktop/GD32F30x_Demo_Suites_V2.0.0/GD32F30x_Demo_Suites_V2.0.0/BearPi-IoT_GD32F303_Demo_Suites/Projects/13_I2C_EEPROM/Soft_Drive\at24cxx.c ****     i2c_flag_clear(I2C0,I2C_FLAG_ADDSEND);
ARM GAS  C:\Users\49542\AppData\Local\Temp\ccsfhkzv.s 			page 9


 227              		.loc 1 235 0
 228 0046 40F20151 		movw	r1, #1281
 229 004a 1848     		ldr	r0, .L26
 230 004c FFF7FEFF 		bl	i2c_flag_clear
 231              	.LVL22:
 232              	.L19:
 236:C:/Users/49542/Desktop/GD32F30x_Demo_Suites_V2.0.0/GD32F30x_Demo_Suites_V2.0.0/BearPi-IoT_GD32F303_Demo_Suites/Projects/13_I2C_EEPROM/Soft_Drive\at24cxx.c ****     
 237:C:/Users/49542/Desktop/GD32F30x_Demo_Suites_V2.0.0/GD32F30x_Demo_Suites_V2.0.0/BearPi-IoT_GD32F303_Demo_Suites/Projects/13_I2C_EEPROM/Soft_Drive\at24cxx.c ****     /* wait until the transmit data buffer is empty */
 238:C:/Users/49542/Desktop/GD32F30x_Demo_Suites_V2.0.0/GD32F30x_Demo_Suites_V2.0.0/BearPi-IoT_GD32F303_Demo_Suites/Projects/13_I2C_EEPROM/Soft_Drive\at24cxx.c ****     while( SET != i2c_flag_get(I2C0, I2C_FLAG_TBE));
 233              		.loc 1 238 0 discriminator 1
 234 0050 40F20751 		movw	r1, #1287
 235 0054 1548     		ldr	r0, .L26
 236 0056 FFF7FEFF 		bl	i2c_flag_get
 237              	.LVL23:
 238 005a 0128     		cmp	r0, #1
 239 005c F8D1     		bne	.L19
 239:C:/Users/49542/Desktop/GD32F30x_Demo_Suites_V2.0.0/GD32F30x_Demo_Suites_V2.0.0/BearPi-IoT_GD32F303_Demo_Suites/Projects/13_I2C_EEPROM/Soft_Drive\at24cxx.c ****     
 240:C:/Users/49542/Desktop/GD32F30x_Demo_Suites_V2.0.0/GD32F30x_Demo_Suites_V2.0.0/BearPi-IoT_GD32F303_Demo_Suites/Projects/13_I2C_EEPROM/Soft_Drive\at24cxx.c ****     /* send the EEPROM's internal address to write to : only one byte address */
 241:C:/Users/49542/Desktop/GD32F30x_Demo_Suites_V2.0.0/GD32F30x_Demo_Suites_V2.0.0/BearPi-IoT_GD32F303_Demo_Suites/Projects/13_I2C_EEPROM/Soft_Drive\at24cxx.c ****     i2c_data_transmit(I2C0, write_address);
 240              		.loc 1 241 0
 241 005e 2146     		mov	r1, r4
 242 0060 1248     		ldr	r0, .L26
 243 0062 FFF7FEFF 		bl	i2c_data_transmit
 244              	.LVL24:
 245              	.L20:
 242:C:/Users/49542/Desktop/GD32F30x_Demo_Suites_V2.0.0/GD32F30x_Demo_Suites_V2.0.0/BearPi-IoT_GD32F303_Demo_Suites/Projects/13_I2C_EEPROM/Soft_Drive\at24cxx.c ****     
 243:C:/Users/49542/Desktop/GD32F30x_Demo_Suites_V2.0.0/GD32F30x_Demo_Suites_V2.0.0/BearPi-IoT_GD32F303_Demo_Suites/Projects/13_I2C_EEPROM/Soft_Drive\at24cxx.c ****     /* wait until BTC bit is set */
 244:C:/Users/49542/Desktop/GD32F30x_Demo_Suites_V2.0.0/GD32F30x_Demo_Suites_V2.0.0/BearPi-IoT_GD32F303_Demo_Suites/Projects/13_I2C_EEPROM/Soft_Drive\at24cxx.c ****     while(!i2c_flag_get(I2C0, I2C_FLAG_BTC));
 246              		.loc 1 244 0 discriminator 1
 247 0066 40F20251 		movw	r1, #1282
 248 006a 1048     		ldr	r0, .L26
 249 006c FFF7FEFF 		bl	i2c_flag_get
 250              	.LVL25:
 251 0070 0028     		cmp	r0, #0
 252 0072 F8D0     		beq	.L20
 253 0074 0CE0     		b	.L21
 254              	.LVL26:
 255              	.L23:
 245:C:/Users/49542/Desktop/GD32F30x_Demo_Suites_V2.0.0/GD32F30x_Demo_Suites_V2.0.0/BearPi-IoT_GD32F303_Demo_Suites/Projects/13_I2C_EEPROM/Soft_Drive\at24cxx.c ****     
 246:C:/Users/49542/Desktop/GD32F30x_Demo_Suites_V2.0.0/GD32F30x_Demo_Suites_V2.0.0/BearPi-IoT_GD32F303_Demo_Suites/Projects/13_I2C_EEPROM/Soft_Drive\at24cxx.c ****     /* while there is data to be written */
 247:C:/Users/49542/Desktop/GD32F30x_Demo_Suites_V2.0.0/GD32F30x_Demo_Suites_V2.0.0/BearPi-IoT_GD32F303_Demo_Suites/Projects/13_I2C_EEPROM/Soft_Drive\at24cxx.c ****     while(number_of_byte--){  
 248:C:/Users/49542/Desktop/GD32F30x_Demo_Suites_V2.0.0/GD32F30x_Demo_Suites_V2.0.0/BearPi-IoT_GD32F303_Demo_Suites/Projects/13_I2C_EEPROM/Soft_Drive\at24cxx.c ****         i2c_data_transmit(I2C0, *p_buffer);
 256              		.loc 1 248 0
 257 0076 16F8011B 		ldrb	r1, [r6], #1	@ zero_extendqisi2
 258              	.LVL27:
 259 007a 0C48     		ldr	r0, .L26
 260 007c FFF7FEFF 		bl	i2c_data_transmit
 261              	.LVL28:
 262              	.L22:
 249:C:/Users/49542/Desktop/GD32F30x_Demo_Suites_V2.0.0/GD32F30x_Demo_Suites_V2.0.0/BearPi-IoT_GD32F303_Demo_Suites/Projects/13_I2C_EEPROM/Soft_Drive\at24cxx.c ****         
 250:C:/Users/49542/Desktop/GD32F30x_Demo_Suites_V2.0.0/GD32F30x_Demo_Suites_V2.0.0/BearPi-IoT_GD32F303_Demo_Suites/Projects/13_I2C_EEPROM/Soft_Drive\at24cxx.c ****         /* point to the next byte to be written */
 251:C:/Users/49542/Desktop/GD32F30x_Demo_Suites_V2.0.0/GD32F30x_Demo_Suites_V2.0.0/BearPi-IoT_GD32F303_Demo_Suites/Projects/13_I2C_EEPROM/Soft_Drive\at24cxx.c ****         p_buffer++; 
 252:C:/Users/49542/Desktop/GD32F30x_Demo_Suites_V2.0.0/GD32F30x_Demo_Suites_V2.0.0/BearPi-IoT_GD32F303_Demo_Suites/Projects/13_I2C_EEPROM/Soft_Drive\at24cxx.c ****         
 253:C:/Users/49542/Desktop/GD32F30x_Demo_Suites_V2.0.0/GD32F30x_Demo_Suites_V2.0.0/BearPi-IoT_GD32F303_Demo_Suites/Projects/13_I2C_EEPROM/Soft_Drive\at24cxx.c ****         /* wait until BTC bit is set */
 254:C:/Users/49542/Desktop/GD32F30x_Demo_Suites_V2.0.0/GD32F30x_Demo_Suites_V2.0.0/BearPi-IoT_GD32F303_Demo_Suites/Projects/13_I2C_EEPROM/Soft_Drive\at24cxx.c ****         while(!i2c_flag_get(I2C0, I2C_FLAG_BTC));
 263              		.loc 1 254 0 discriminator 1
 264 0080 40F20251 		movw	r1, #1282
ARM GAS  C:\Users\49542\AppData\Local\Temp\ccsfhkzv.s 			page 10


 265 0084 0948     		ldr	r0, .L26
 266 0086 FFF7FEFF 		bl	i2c_flag_get
 267              	.LVL29:
 268 008a 0028     		cmp	r0, #0
 269 008c F8D0     		beq	.L22
 247:C:/Users/49542/Desktop/GD32F30x_Demo_Suites_V2.0.0/GD32F30x_Demo_Suites_V2.0.0/BearPi-IoT_GD32F303_Demo_Suites/Projects/13_I2C_EEPROM/Soft_Drive\at24cxx.c ****         i2c_data_transmit(I2C0, *p_buffer);
 270              		.loc 1 247 0
 271 008e 2546     		mov	r5, r4
 272              	.LVL30:
 273              	.L21:
 274 0090 6B1E     		subs	r3, r5, #1
 275 0092 DCB2     		uxtb	r4, r3
 276              	.LVL31:
 277 0094 002D     		cmp	r5, #0
 278 0096 EED1     		bne	.L23
 255:C:/Users/49542/Desktop/GD32F30x_Demo_Suites_V2.0.0/GD32F30x_Demo_Suites_V2.0.0/BearPi-IoT_GD32F303_Demo_Suites/Projects/13_I2C_EEPROM/Soft_Drive\at24cxx.c ****     }
 256:C:/Users/49542/Desktop/GD32F30x_Demo_Suites_V2.0.0/GD32F30x_Demo_Suites_V2.0.0/BearPi-IoT_GD32F303_Demo_Suites/Projects/13_I2C_EEPROM/Soft_Drive\at24cxx.c ****     /* send a stop condition to I2C bus */
 257:C:/Users/49542/Desktop/GD32F30x_Demo_Suites_V2.0.0/GD32F30x_Demo_Suites_V2.0.0/BearPi-IoT_GD32F303_Demo_Suites/Projects/13_I2C_EEPROM/Soft_Drive\at24cxx.c ****     i2c_stop_on_bus(I2C0);
 279              		.loc 1 257 0
 280 0098 0448     		ldr	r0, .L26
 281 009a FFF7FEFF 		bl	i2c_stop_on_bus
 282              	.LVL32:
 283              	.L24:
 258:C:/Users/49542/Desktop/GD32F30x_Demo_Suites_V2.0.0/GD32F30x_Demo_Suites_V2.0.0/BearPi-IoT_GD32F303_Demo_Suites/Projects/13_I2C_EEPROM/Soft_Drive\at24cxx.c ****     
 259:C:/Users/49542/Desktop/GD32F30x_Demo_Suites_V2.0.0/GD32F30x_Demo_Suites_V2.0.0/BearPi-IoT_GD32F303_Demo_Suites/Projects/13_I2C_EEPROM/Soft_Drive\at24cxx.c ****     /* wait until the stop condition is finished */
 260:C:/Users/49542/Desktop/GD32F30x_Demo_Suites_V2.0.0/GD32F30x_Demo_Suites_V2.0.0/BearPi-IoT_GD32F303_Demo_Suites/Projects/13_I2C_EEPROM/Soft_Drive\at24cxx.c ****     while(I2C_CTL0(I2C0)&0x0200);
 284              		.loc 1 260 0 discriminator 1
 285 009e 034B     		ldr	r3, .L26
 286 00a0 1B68     		ldr	r3, [r3]
 287 00a2 13F4007F 		tst	r3, #512
 288 00a6 FAD1     		bne	.L24
 261:C:/Users/49542/Desktop/GD32F30x_Demo_Suites_V2.0.0/GD32F30x_Demo_Suites_V2.0.0/BearPi-IoT_GD32F303_Demo_Suites/Projects/13_I2C_EEPROM/Soft_Drive\at24cxx.c **** }
 289              		.loc 1 261 0
 290 00a8 70BD     		pop	{r4, r5, r6, pc}
 291              	.LVL33:
 292              	.L27:
 293 00aa 00BF     		.align	2
 294              	.L26:
 295 00ac 00540040 		.word	1073763328
 296 00b0 00000000 		.word	eeprom_address
 297              		.cfi_endproc
 298              	.LFE123:
 300              		.section	.text.eeprom_buffer_read,"ax",%progbits
 301              		.align	1
 302              		.global	eeprom_buffer_read
 303              		.syntax unified
 304              		.thumb
 305              		.thumb_func
 306              		.fpu fpv4-sp-d16
 308              	eeprom_buffer_read:
 309              	.LFB124:
 262:C:/Users/49542/Desktop/GD32F30x_Demo_Suites_V2.0.0/GD32F30x_Demo_Suites_V2.0.0/BearPi-IoT_GD32F303_Demo_Suites/Projects/13_I2C_EEPROM/Soft_Drive\at24cxx.c **** 
 263:C:/Users/49542/Desktop/GD32F30x_Demo_Suites_V2.0.0/GD32F30x_Demo_Suites_V2.0.0/BearPi-IoT_GD32F303_Demo_Suites/Projects/13_I2C_EEPROM/Soft_Drive\at24cxx.c **** /*!
 264:C:/Users/49542/Desktop/GD32F30x_Demo_Suites_V2.0.0/GD32F30x_Demo_Suites_V2.0.0/BearPi-IoT_GD32F303_Demo_Suites/Projects/13_I2C_EEPROM/Soft_Drive\at24cxx.c ****     \brief      read data from the EEPROM
 265:C:/Users/49542/Desktop/GD32F30x_Demo_Suites_V2.0.0/GD32F30x_Demo_Suites_V2.0.0/BearPi-IoT_GD32F303_Demo_Suites/Projects/13_I2C_EEPROM/Soft_Drive\at24cxx.c ****     \param[in]  p_buffer: pointer to the buffer that receives the data read from the EEPROM
 266:C:/Users/49542/Desktop/GD32F30x_Demo_Suites_V2.0.0/GD32F30x_Demo_Suites_V2.0.0/BearPi-IoT_GD32F303_Demo_Suites/Projects/13_I2C_EEPROM/Soft_Drive\at24cxx.c ****     \param[in]  read_address: EEPROM's internal address to start reading from
 267:C:/Users/49542/Desktop/GD32F30x_Demo_Suites_V2.0.0/GD32F30x_Demo_Suites_V2.0.0/BearPi-IoT_GD32F303_Demo_Suites/Projects/13_I2C_EEPROM/Soft_Drive\at24cxx.c ****     \param[in]  number_of_byte: number of bytes to reads from the EEPROM
ARM GAS  C:\Users\49542\AppData\Local\Temp\ccsfhkzv.s 			page 11


 268:C:/Users/49542/Desktop/GD32F30x_Demo_Suites_V2.0.0/GD32F30x_Demo_Suites_V2.0.0/BearPi-IoT_GD32F303_Demo_Suites/Projects/13_I2C_EEPROM/Soft_Drive\at24cxx.c ****     \param[out] none
 269:C:/Users/49542/Desktop/GD32F30x_Demo_Suites_V2.0.0/GD32F30x_Demo_Suites_V2.0.0/BearPi-IoT_GD32F303_Demo_Suites/Projects/13_I2C_EEPROM/Soft_Drive\at24cxx.c ****     \retval     none
 270:C:/Users/49542/Desktop/GD32F30x_Demo_Suites_V2.0.0/GD32F30x_Demo_Suites_V2.0.0/BearPi-IoT_GD32F303_Demo_Suites/Projects/13_I2C_EEPROM/Soft_Drive\at24cxx.c **** */
 271:C:/Users/49542/Desktop/GD32F30x_Demo_Suites_V2.0.0/GD32F30x_Demo_Suites_V2.0.0/BearPi-IoT_GD32F303_Demo_Suites/Projects/13_I2C_EEPROM/Soft_Drive\at24cxx.c **** void eeprom_buffer_read(uint8_t* p_buffer, uint8_t read_address, uint16_t number_of_byte)
 272:C:/Users/49542/Desktop/GD32F30x_Demo_Suites_V2.0.0/GD32F30x_Demo_Suites_V2.0.0/BearPi-IoT_GD32F303_Demo_Suites/Projects/13_I2C_EEPROM/Soft_Drive\at24cxx.c **** {  
 310              		.loc 1 272 0
 311              		.cfi_startproc
 312              		@ args = 0, pretend = 0, frame = 0
 313              		@ frame_needed = 0, uses_anonymous_args = 0
 314              	.LVL34:
 315 0000 F8B5     		push	{r3, r4, r5, r6, r7, lr}
 316              	.LCFI2:
 317              		.cfi_def_cfa_offset 24
 318              		.cfi_offset 3, -24
 319              		.cfi_offset 4, -20
 320              		.cfi_offset 5, -16
 321              		.cfi_offset 6, -12
 322              		.cfi_offset 7, -8
 323              		.cfi_offset 14, -4
 324 0002 0646     		mov	r6, r0
 325 0004 0F46     		mov	r7, r1
 326 0006 1446     		mov	r4, r2
 327              	.LVL35:
 328              	.L29:
 273:C:/Users/49542/Desktop/GD32F30x_Demo_Suites_V2.0.0/GD32F30x_Demo_Suites_V2.0.0/BearPi-IoT_GD32F303_Demo_Suites/Projects/13_I2C_EEPROM/Soft_Drive\at24cxx.c ****     /* wait until I2C bus is idle */
 274:C:/Users/49542/Desktop/GD32F30x_Demo_Suites_V2.0.0/GD32F30x_Demo_Suites_V2.0.0/BearPi-IoT_GD32F303_Demo_Suites/Projects/13_I2C_EEPROM/Soft_Drive\at24cxx.c ****     while(i2c_flag_get(I2C0, I2C_FLAG_I2CBSY));
 329              		.loc 1 274 0 discriminator 1
 330 0008 40F20161 		movw	r1, #1537
 331 000c 5048     		ldr	r0, .L51
 332 000e FFF7FEFF 		bl	i2c_flag_get
 333              	.LVL36:
 334 0012 0028     		cmp	r0, #0
 335 0014 F8D1     		bne	.L29
 275:C:/Users/49542/Desktop/GD32F30x_Demo_Suites_V2.0.0/GD32F30x_Demo_Suites_V2.0.0/BearPi-IoT_GD32F303_Demo_Suites/Projects/13_I2C_EEPROM/Soft_Drive\at24cxx.c **** 
 276:C:/Users/49542/Desktop/GD32F30x_Demo_Suites_V2.0.0/GD32F30x_Demo_Suites_V2.0.0/BearPi-IoT_GD32F303_Demo_Suites/Projects/13_I2C_EEPROM/Soft_Drive\at24cxx.c ****     if(2 == number_of_byte){
 336              		.loc 1 276 0
 337 0016 022C     		cmp	r4, #2
 338 0018 56D0     		beq	.L48
 339              	.L30:
 277:C:/Users/49542/Desktop/GD32F30x_Demo_Suites_V2.0.0/GD32F30x_Demo_Suites_V2.0.0/BearPi-IoT_GD32F303_Demo_Suites/Projects/13_I2C_EEPROM/Soft_Drive\at24cxx.c ****         i2c_ackpos_config(I2C0,I2C_ACKPOS_NEXT);
 278:C:/Users/49542/Desktop/GD32F30x_Demo_Suites_V2.0.0/GD32F30x_Demo_Suites_V2.0.0/BearPi-IoT_GD32F303_Demo_Suites/Projects/13_I2C_EEPROM/Soft_Drive\at24cxx.c ****     }
 279:C:/Users/49542/Desktop/GD32F30x_Demo_Suites_V2.0.0/GD32F30x_Demo_Suites_V2.0.0/BearPi-IoT_GD32F303_Demo_Suites/Projects/13_I2C_EEPROM/Soft_Drive\at24cxx.c ****     
 280:C:/Users/49542/Desktop/GD32F30x_Demo_Suites_V2.0.0/GD32F30x_Demo_Suites_V2.0.0/BearPi-IoT_GD32F303_Demo_Suites/Projects/13_I2C_EEPROM/Soft_Drive\at24cxx.c ****     /* send a start condition to I2C bus */
 281:C:/Users/49542/Desktop/GD32F30x_Demo_Suites_V2.0.0/GD32F30x_Demo_Suites_V2.0.0/BearPi-IoT_GD32F303_Demo_Suites/Projects/13_I2C_EEPROM/Soft_Drive\at24cxx.c ****     i2c_start_on_bus(I2C0);
 340              		.loc 1 281 0
 341 001a 4D48     		ldr	r0, .L51
 342 001c FFF7FEFF 		bl	i2c_start_on_bus
 343              	.LVL37:
 344              	.L31:
 282:C:/Users/49542/Desktop/GD32F30x_Demo_Suites_V2.0.0/GD32F30x_Demo_Suites_V2.0.0/BearPi-IoT_GD32F303_Demo_Suites/Projects/13_I2C_EEPROM/Soft_Drive\at24cxx.c ****     
 283:C:/Users/49542/Desktop/GD32F30x_Demo_Suites_V2.0.0/GD32F30x_Demo_Suites_V2.0.0/BearPi-IoT_GD32F303_Demo_Suites/Projects/13_I2C_EEPROM/Soft_Drive\at24cxx.c ****     /* wait until SBSEND bit is set */
 284:C:/Users/49542/Desktop/GD32F30x_Demo_Suites_V2.0.0/GD32F30x_Demo_Suites_V2.0.0/BearPi-IoT_GD32F303_Demo_Suites/Projects/13_I2C_EEPROM/Soft_Drive\at24cxx.c ****     while(!i2c_flag_get(I2C0, I2C_FLAG_SBSEND));
 345              		.loc 1 284 0 discriminator 1
 346 0020 4FF4A061 		mov	r1, #1280
 347 0024 4A48     		ldr	r0, .L51
 348 0026 FFF7FEFF 		bl	i2c_flag_get
 349              	.LVL38:
ARM GAS  C:\Users\49542\AppData\Local\Temp\ccsfhkzv.s 			page 12


 350 002a 0028     		cmp	r0, #0
 351 002c F8D0     		beq	.L31
 285:C:/Users/49542/Desktop/GD32F30x_Demo_Suites_V2.0.0/GD32F30x_Demo_Suites_V2.0.0/BearPi-IoT_GD32F303_Demo_Suites/Projects/13_I2C_EEPROM/Soft_Drive\at24cxx.c ****     
 286:C:/Users/49542/Desktop/GD32F30x_Demo_Suites_V2.0.0/GD32F30x_Demo_Suites_V2.0.0/BearPi-IoT_GD32F303_Demo_Suites/Projects/13_I2C_EEPROM/Soft_Drive\at24cxx.c ****     /* send slave address to I2C bus */
 287:C:/Users/49542/Desktop/GD32F30x_Demo_Suites_V2.0.0/GD32F30x_Demo_Suites_V2.0.0/BearPi-IoT_GD32F303_Demo_Suites/Projects/13_I2C_EEPROM/Soft_Drive\at24cxx.c ****     i2c_master_addressing(I2C0, eeprom_address, I2C_TRANSMITTER);
 352              		.loc 1 287 0
 353 002e 6FF00102 		mvn	r2, #1
 354 0032 484B     		ldr	r3, .L51+4
 355 0034 1988     		ldrh	r1, [r3]
 356 0036 4648     		ldr	r0, .L51
 357 0038 FFF7FEFF 		bl	i2c_master_addressing
 358              	.LVL39:
 359              	.L32:
 288:C:/Users/49542/Desktop/GD32F30x_Demo_Suites_V2.0.0/GD32F30x_Demo_Suites_V2.0.0/BearPi-IoT_GD32F303_Demo_Suites/Projects/13_I2C_EEPROM/Soft_Drive\at24cxx.c ****     
 289:C:/Users/49542/Desktop/GD32F30x_Demo_Suites_V2.0.0/GD32F30x_Demo_Suites_V2.0.0/BearPi-IoT_GD32F303_Demo_Suites/Projects/13_I2C_EEPROM/Soft_Drive\at24cxx.c ****     /* wait until ADDSEND bit is set */
 290:C:/Users/49542/Desktop/GD32F30x_Demo_Suites_V2.0.0/GD32F30x_Demo_Suites_V2.0.0/BearPi-IoT_GD32F303_Demo_Suites/Projects/13_I2C_EEPROM/Soft_Drive\at24cxx.c ****     while(!i2c_flag_get(I2C0, I2C_FLAG_ADDSEND));
 360              		.loc 1 290 0 discriminator 1
 361 003c 40F20151 		movw	r1, #1281
 362 0040 4348     		ldr	r0, .L51
 363 0042 FFF7FEFF 		bl	i2c_flag_get
 364              	.LVL40:
 365 0046 0028     		cmp	r0, #0
 366 0048 F8D0     		beq	.L32
 291:C:/Users/49542/Desktop/GD32F30x_Demo_Suites_V2.0.0/GD32F30x_Demo_Suites_V2.0.0/BearPi-IoT_GD32F303_Demo_Suites/Projects/13_I2C_EEPROM/Soft_Drive\at24cxx.c ****     
 292:C:/Users/49542/Desktop/GD32F30x_Demo_Suites_V2.0.0/GD32F30x_Demo_Suites_V2.0.0/BearPi-IoT_GD32F303_Demo_Suites/Projects/13_I2C_EEPROM/Soft_Drive\at24cxx.c ****     /* clear the ADDSEND bit */
 293:C:/Users/49542/Desktop/GD32F30x_Demo_Suites_V2.0.0/GD32F30x_Demo_Suites_V2.0.0/BearPi-IoT_GD32F303_Demo_Suites/Projects/13_I2C_EEPROM/Soft_Drive\at24cxx.c ****     i2c_flag_clear(I2C0,I2C_FLAG_ADDSEND);
 367              		.loc 1 293 0
 368 004a 40F20151 		movw	r1, #1281
 369 004e 4048     		ldr	r0, .L51
 370 0050 FFF7FEFF 		bl	i2c_flag_clear
 371              	.LVL41:
 372              	.L33:
 294:C:/Users/49542/Desktop/GD32F30x_Demo_Suites_V2.0.0/GD32F30x_Demo_Suites_V2.0.0/BearPi-IoT_GD32F303_Demo_Suites/Projects/13_I2C_EEPROM/Soft_Drive\at24cxx.c ****     
 295:C:/Users/49542/Desktop/GD32F30x_Demo_Suites_V2.0.0/GD32F30x_Demo_Suites_V2.0.0/BearPi-IoT_GD32F303_Demo_Suites/Projects/13_I2C_EEPROM/Soft_Drive\at24cxx.c ****     /* wait until the transmit data buffer is empty */
 296:C:/Users/49542/Desktop/GD32F30x_Demo_Suites_V2.0.0/GD32F30x_Demo_Suites_V2.0.0/BearPi-IoT_GD32F303_Demo_Suites/Projects/13_I2C_EEPROM/Soft_Drive\at24cxx.c ****     while(SET != i2c_flag_get( I2C0 , I2C_FLAG_TBE));
 373              		.loc 1 296 0 discriminator 1
 374 0054 40F20751 		movw	r1, #1287
 375 0058 3D48     		ldr	r0, .L51
 376 005a FFF7FEFF 		bl	i2c_flag_get
 377              	.LVL42:
 378 005e 0128     		cmp	r0, #1
 379 0060 F8D1     		bne	.L33
 297:C:/Users/49542/Desktop/GD32F30x_Demo_Suites_V2.0.0/GD32F30x_Demo_Suites_V2.0.0/BearPi-IoT_GD32F303_Demo_Suites/Projects/13_I2C_EEPROM/Soft_Drive\at24cxx.c **** 
 298:C:/Users/49542/Desktop/GD32F30x_Demo_Suites_V2.0.0/GD32F30x_Demo_Suites_V2.0.0/BearPi-IoT_GD32F303_Demo_Suites/Projects/13_I2C_EEPROM/Soft_Drive\at24cxx.c ****     /* enable I2C0*/
 299:C:/Users/49542/Desktop/GD32F30x_Demo_Suites_V2.0.0/GD32F30x_Demo_Suites_V2.0.0/BearPi-IoT_GD32F303_Demo_Suites/Projects/13_I2C_EEPROM/Soft_Drive\at24cxx.c ****     i2c_enable(I2C0);
 380              		.loc 1 299 0
 381 0062 3B4D     		ldr	r5, .L51
 382 0064 2846     		mov	r0, r5
 383 0066 FFF7FEFF 		bl	i2c_enable
 384              	.LVL43:
 300:C:/Users/49542/Desktop/GD32F30x_Demo_Suites_V2.0.0/GD32F30x_Demo_Suites_V2.0.0/BearPi-IoT_GD32F303_Demo_Suites/Projects/13_I2C_EEPROM/Soft_Drive\at24cxx.c ****     
 301:C:/Users/49542/Desktop/GD32F30x_Demo_Suites_V2.0.0/GD32F30x_Demo_Suites_V2.0.0/BearPi-IoT_GD32F303_Demo_Suites/Projects/13_I2C_EEPROM/Soft_Drive\at24cxx.c ****     /* send the EEPROM's internal address to write to */
 302:C:/Users/49542/Desktop/GD32F30x_Demo_Suites_V2.0.0/GD32F30x_Demo_Suites_V2.0.0/BearPi-IoT_GD32F303_Demo_Suites/Projects/13_I2C_EEPROM/Soft_Drive\at24cxx.c ****     i2c_data_transmit(I2C0, read_address);  
 385              		.loc 1 302 0
 386 006a 3946     		mov	r1, r7
 387 006c 2846     		mov	r0, r5
 388 006e FFF7FEFF 		bl	i2c_data_transmit
ARM GAS  C:\Users\49542\AppData\Local\Temp\ccsfhkzv.s 			page 13


 389              	.LVL44:
 390              	.L34:
 303:C:/Users/49542/Desktop/GD32F30x_Demo_Suites_V2.0.0/GD32F30x_Demo_Suites_V2.0.0/BearPi-IoT_GD32F303_Demo_Suites/Projects/13_I2C_EEPROM/Soft_Drive\at24cxx.c ****     
 304:C:/Users/49542/Desktop/GD32F30x_Demo_Suites_V2.0.0/GD32F30x_Demo_Suites_V2.0.0/BearPi-IoT_GD32F303_Demo_Suites/Projects/13_I2C_EEPROM/Soft_Drive\at24cxx.c ****     /* wait until BTC bit is set */
 305:C:/Users/49542/Desktop/GD32F30x_Demo_Suites_V2.0.0/GD32F30x_Demo_Suites_V2.0.0/BearPi-IoT_GD32F303_Demo_Suites/Projects/13_I2C_EEPROM/Soft_Drive\at24cxx.c ****     while(!i2c_flag_get(I2C0, I2C_FLAG_BTC));
 391              		.loc 1 305 0 discriminator 1
 392 0072 40F20251 		movw	r1, #1282
 393 0076 3648     		ldr	r0, .L51
 394 0078 FFF7FEFF 		bl	i2c_flag_get
 395              	.LVL45:
 396 007c 0028     		cmp	r0, #0
 397 007e F8D0     		beq	.L34
 306:C:/Users/49542/Desktop/GD32F30x_Demo_Suites_V2.0.0/GD32F30x_Demo_Suites_V2.0.0/BearPi-IoT_GD32F303_Demo_Suites/Projects/13_I2C_EEPROM/Soft_Drive\at24cxx.c ****     
 307:C:/Users/49542/Desktop/GD32F30x_Demo_Suites_V2.0.0/GD32F30x_Demo_Suites_V2.0.0/BearPi-IoT_GD32F303_Demo_Suites/Projects/13_I2C_EEPROM/Soft_Drive\at24cxx.c ****     /* send a start condition to I2C bus */
 308:C:/Users/49542/Desktop/GD32F30x_Demo_Suites_V2.0.0/GD32F30x_Demo_Suites_V2.0.0/BearPi-IoT_GD32F303_Demo_Suites/Projects/13_I2C_EEPROM/Soft_Drive\at24cxx.c ****     i2c_start_on_bus(I2C0);
 398              		.loc 1 308 0
 399 0080 3348     		ldr	r0, .L51
 400 0082 FFF7FEFF 		bl	i2c_start_on_bus
 401              	.LVL46:
 402              	.L35:
 309:C:/Users/49542/Desktop/GD32F30x_Demo_Suites_V2.0.0/GD32F30x_Demo_Suites_V2.0.0/BearPi-IoT_GD32F303_Demo_Suites/Projects/13_I2C_EEPROM/Soft_Drive\at24cxx.c ****     
 310:C:/Users/49542/Desktop/GD32F30x_Demo_Suites_V2.0.0/GD32F30x_Demo_Suites_V2.0.0/BearPi-IoT_GD32F303_Demo_Suites/Projects/13_I2C_EEPROM/Soft_Drive\at24cxx.c ****     /* wait until SBSEND bit is set */
 311:C:/Users/49542/Desktop/GD32F30x_Demo_Suites_V2.0.0/GD32F30x_Demo_Suites_V2.0.0/BearPi-IoT_GD32F303_Demo_Suites/Projects/13_I2C_EEPROM/Soft_Drive\at24cxx.c ****     while(!i2c_flag_get(I2C0, I2C_FLAG_SBSEND));
 403              		.loc 1 311 0 discriminator 1
 404 0086 4FF4A061 		mov	r1, #1280
 405 008a 3148     		ldr	r0, .L51
 406 008c FFF7FEFF 		bl	i2c_flag_get
 407              	.LVL47:
 408 0090 0028     		cmp	r0, #0
 409 0092 F8D0     		beq	.L35
 312:C:/Users/49542/Desktop/GD32F30x_Demo_Suites_V2.0.0/GD32F30x_Demo_Suites_V2.0.0/BearPi-IoT_GD32F303_Demo_Suites/Projects/13_I2C_EEPROM/Soft_Drive\at24cxx.c ****     
 313:C:/Users/49542/Desktop/GD32F30x_Demo_Suites_V2.0.0/GD32F30x_Demo_Suites_V2.0.0/BearPi-IoT_GD32F303_Demo_Suites/Projects/13_I2C_EEPROM/Soft_Drive\at24cxx.c ****     /* send slave address to I2C bus */
 314:C:/Users/49542/Desktop/GD32F30x_Demo_Suites_V2.0.0/GD32F30x_Demo_Suites_V2.0.0/BearPi-IoT_GD32F303_Demo_Suites/Projects/13_I2C_EEPROM/Soft_Drive\at24cxx.c ****     i2c_master_addressing(I2C0, eeprom_address, I2C_RECEIVER);
 410              		.loc 1 314 0
 411 0094 0122     		movs	r2, #1
 412 0096 2F4B     		ldr	r3, .L51+4
 413 0098 1988     		ldrh	r1, [r3]
 414 009a 2D48     		ldr	r0, .L51
 415 009c FFF7FEFF 		bl	i2c_master_addressing
 416              	.LVL48:
 315:C:/Users/49542/Desktop/GD32F30x_Demo_Suites_V2.0.0/GD32F30x_Demo_Suites_V2.0.0/BearPi-IoT_GD32F303_Demo_Suites/Projects/13_I2C_EEPROM/Soft_Drive\at24cxx.c **** 
 316:C:/Users/49542/Desktop/GD32F30x_Demo_Suites_V2.0.0/GD32F30x_Demo_Suites_V2.0.0/BearPi-IoT_GD32F303_Demo_Suites/Projects/13_I2C_EEPROM/Soft_Drive\at24cxx.c ****     if(number_of_byte < 3){
 417              		.loc 1 316 0
 418 00a0 022C     		cmp	r4, #2
 419 00a2 16D9     		bls	.L49
 420              	.L37:
 317:C:/Users/49542/Desktop/GD32F30x_Demo_Suites_V2.0.0/GD32F30x_Demo_Suites_V2.0.0/BearPi-IoT_GD32F303_Demo_Suites/Projects/13_I2C_EEPROM/Soft_Drive\at24cxx.c ****         /* disable acknowledge */
 318:C:/Users/49542/Desktop/GD32F30x_Demo_Suites_V2.0.0/GD32F30x_Demo_Suites_V2.0.0/BearPi-IoT_GD32F303_Demo_Suites/Projects/13_I2C_EEPROM/Soft_Drive\at24cxx.c ****         i2c_ack_config(I2C0,I2C_ACK_DISABLE);
 319:C:/Users/49542/Desktop/GD32F30x_Demo_Suites_V2.0.0/GD32F30x_Demo_Suites_V2.0.0/BearPi-IoT_GD32F303_Demo_Suites/Projects/13_I2C_EEPROM/Soft_Drive\at24cxx.c ****     }
 320:C:/Users/49542/Desktop/GD32F30x_Demo_Suites_V2.0.0/GD32F30x_Demo_Suites_V2.0.0/BearPi-IoT_GD32F303_Demo_Suites/Projects/13_I2C_EEPROM/Soft_Drive\at24cxx.c ****     
 321:C:/Users/49542/Desktop/GD32F30x_Demo_Suites_V2.0.0/GD32F30x_Demo_Suites_V2.0.0/BearPi-IoT_GD32F303_Demo_Suites/Projects/13_I2C_EEPROM/Soft_Drive\at24cxx.c ****     /* wait until ADDSEND bit is set */
 322:C:/Users/49542/Desktop/GD32F30x_Demo_Suites_V2.0.0/GD32F30x_Demo_Suites_V2.0.0/BearPi-IoT_GD32F303_Demo_Suites/Projects/13_I2C_EEPROM/Soft_Drive\at24cxx.c ****     while(!i2c_flag_get(I2C0, I2C_FLAG_ADDSEND));
 421              		.loc 1 322 0 discriminator 1
 422 00a4 40F20151 		movw	r1, #1281
 423 00a8 2948     		ldr	r0, .L51
 424 00aa FFF7FEFF 		bl	i2c_flag_get
 425              	.LVL49:
ARM GAS  C:\Users\49542\AppData\Local\Temp\ccsfhkzv.s 			page 14


 426 00ae 0028     		cmp	r0, #0
 427 00b0 F8D0     		beq	.L37
 323:C:/Users/49542/Desktop/GD32F30x_Demo_Suites_V2.0.0/GD32F30x_Demo_Suites_V2.0.0/BearPi-IoT_GD32F303_Demo_Suites/Projects/13_I2C_EEPROM/Soft_Drive\at24cxx.c ****     
 324:C:/Users/49542/Desktop/GD32F30x_Demo_Suites_V2.0.0/GD32F30x_Demo_Suites_V2.0.0/BearPi-IoT_GD32F303_Demo_Suites/Projects/13_I2C_EEPROM/Soft_Drive\at24cxx.c ****     /* clear the ADDSEND bit */
 325:C:/Users/49542/Desktop/GD32F30x_Demo_Suites_V2.0.0/GD32F30x_Demo_Suites_V2.0.0/BearPi-IoT_GD32F303_Demo_Suites/Projects/13_I2C_EEPROM/Soft_Drive\at24cxx.c ****     i2c_flag_clear(I2C0,I2C_FLAG_ADDSEND);
 428              		.loc 1 325 0
 429 00b2 40F20151 		movw	r1, #1281
 430 00b6 2648     		ldr	r0, .L51
 431 00b8 FFF7FEFF 		bl	i2c_flag_clear
 432              	.LVL50:
 326:C:/Users/49542/Desktop/GD32F30x_Demo_Suites_V2.0.0/GD32F30x_Demo_Suites_V2.0.0/BearPi-IoT_GD32F303_Demo_Suites/Projects/13_I2C_EEPROM/Soft_Drive\at24cxx.c ****     
 327:C:/Users/49542/Desktop/GD32F30x_Demo_Suites_V2.0.0/GD32F30x_Demo_Suites_V2.0.0/BearPi-IoT_GD32F303_Demo_Suites/Projects/13_I2C_EEPROM/Soft_Drive\at24cxx.c ****     if(1 == number_of_byte){
 433              		.loc 1 327 0
 434 00bc 012C     		cmp	r4, #1
 435 00be 1FD1     		bne	.L44
 328:C:/Users/49542/Desktop/GD32F30x_Demo_Suites_V2.0.0/GD32F30x_Demo_Suites_V2.0.0/BearPi-IoT_GD32F303_Demo_Suites/Projects/13_I2C_EEPROM/Soft_Drive\at24cxx.c ****         /* send a stop condition to I2C bus */
 329:C:/Users/49542/Desktop/GD32F30x_Demo_Suites_V2.0.0/GD32F30x_Demo_Suites_V2.0.0/BearPi-IoT_GD32F303_Demo_Suites/Projects/13_I2C_EEPROM/Soft_Drive\at24cxx.c ****         i2c_stop_on_bus(I2C0);
 436              		.loc 1 329 0
 437 00c0 2348     		ldr	r0, .L51
 438 00c2 FFF7FEFF 		bl	i2c_stop_on_bus
 439              	.LVL51:
 440 00c6 1BE0     		b	.L44
 441              	.L48:
 277:C:/Users/49542/Desktop/GD32F30x_Demo_Suites_V2.0.0/GD32F30x_Demo_Suites_V2.0.0/BearPi-IoT_GD32F303_Demo_Suites/Projects/13_I2C_EEPROM/Soft_Drive\at24cxx.c ****     }
 442              		.loc 1 277 0
 443 00c8 0021     		movs	r1, #0
 444 00ca 2148     		ldr	r0, .L51
 445 00cc FFF7FEFF 		bl	i2c_ackpos_config
 446              	.LVL52:
 447 00d0 A3E7     		b	.L30
 448              	.L49:
 318:C:/Users/49542/Desktop/GD32F30x_Demo_Suites_V2.0.0/GD32F30x_Demo_Suites_V2.0.0/BearPi-IoT_GD32F303_Demo_Suites/Projects/13_I2C_EEPROM/Soft_Drive\at24cxx.c ****     }
 449              		.loc 1 318 0
 450 00d2 0021     		movs	r1, #0
 451 00d4 1E48     		ldr	r0, .L51
 452 00d6 FFF7FEFF 		bl	i2c_ack_config
 453              	.LVL53:
 454 00da E3E7     		b	.L37
 455              	.LVL54:
 456              	.L41:
 330:C:/Users/49542/Desktop/GD32F30x_Demo_Suites_V2.0.0/GD32F30x_Demo_Suites_V2.0.0/BearPi-IoT_GD32F303_Demo_Suites/Projects/13_I2C_EEPROM/Soft_Drive\at24cxx.c ****     }
 331:C:/Users/49542/Desktop/GD32F30x_Demo_Suites_V2.0.0/GD32F30x_Demo_Suites_V2.0.0/BearPi-IoT_GD32F303_Demo_Suites/Projects/13_I2C_EEPROM/Soft_Drive\at24cxx.c ****     
 332:C:/Users/49542/Desktop/GD32F30x_Demo_Suites_V2.0.0/GD32F30x_Demo_Suites_V2.0.0/BearPi-IoT_GD32F303_Demo_Suites/Projects/13_I2C_EEPROM/Soft_Drive\at24cxx.c ****     /* while there is data to be read */
 333:C:/Users/49542/Desktop/GD32F30x_Demo_Suites_V2.0.0/GD32F30x_Demo_Suites_V2.0.0/BearPi-IoT_GD32F303_Demo_Suites/Projects/13_I2C_EEPROM/Soft_Drive\at24cxx.c ****     while(number_of_byte){
 334:C:/Users/49542/Desktop/GD32F30x_Demo_Suites_V2.0.0/GD32F30x_Demo_Suites_V2.0.0/BearPi-IoT_GD32F303_Demo_Suites/Projects/13_I2C_EEPROM/Soft_Drive\at24cxx.c ****         if(3 == number_of_byte){
 335:C:/Users/49542/Desktop/GD32F30x_Demo_Suites_V2.0.0/GD32F30x_Demo_Suites_V2.0.0/BearPi-IoT_GD32F303_Demo_Suites/Projects/13_I2C_EEPROM/Soft_Drive\at24cxx.c ****             /* wait until BTC bit is set */
 336:C:/Users/49542/Desktop/GD32F30x_Demo_Suites_V2.0.0/GD32F30x_Demo_Suites_V2.0.0/BearPi-IoT_GD32F303_Demo_Suites/Projects/13_I2C_EEPROM/Soft_Drive\at24cxx.c ****             while(!i2c_flag_get(I2C0, I2C_FLAG_BTC));
 457              		.loc 1 336 0 discriminator 1
 458 00dc 40F20251 		movw	r1, #1282
 459 00e0 1B48     		ldr	r0, .L51
 460 00e2 FFF7FEFF 		bl	i2c_flag_get
 461              	.LVL55:
 462 00e6 0028     		cmp	r0, #0
 463 00e8 F8D0     		beq	.L41
 337:C:/Users/49542/Desktop/GD32F30x_Demo_Suites_V2.0.0/GD32F30x_Demo_Suites_V2.0.0/BearPi-IoT_GD32F303_Demo_Suites/Projects/13_I2C_EEPROM/Soft_Drive\at24cxx.c **** 
 338:C:/Users/49542/Desktop/GD32F30x_Demo_Suites_V2.0.0/GD32F30x_Demo_Suites_V2.0.0/BearPi-IoT_GD32F303_Demo_Suites/Projects/13_I2C_EEPROM/Soft_Drive\at24cxx.c ****             /* disable acknowledge */
 339:C:/Users/49542/Desktop/GD32F30x_Demo_Suites_V2.0.0/GD32F30x_Demo_Suites_V2.0.0/BearPi-IoT_GD32F303_Demo_Suites/Projects/13_I2C_EEPROM/Soft_Drive\at24cxx.c ****             i2c_ack_config(I2C0,I2C_ACK_DISABLE);
ARM GAS  C:\Users\49542\AppData\Local\Temp\ccsfhkzv.s 			page 15


 464              		.loc 1 339 0
 465 00ea 0021     		movs	r1, #0
 466 00ec 1848     		ldr	r0, .L51
 467 00ee FFF7FEFF 		bl	i2c_ack_config
 468              	.LVL56:
 469 00f2 08E0     		b	.L40
 470              	.L42:
 340:C:/Users/49542/Desktop/GD32F30x_Demo_Suites_V2.0.0/GD32F30x_Demo_Suites_V2.0.0/BearPi-IoT_GD32F303_Demo_Suites/Projects/13_I2C_EEPROM/Soft_Drive\at24cxx.c ****         }
 341:C:/Users/49542/Desktop/GD32F30x_Demo_Suites_V2.0.0/GD32F30x_Demo_Suites_V2.0.0/BearPi-IoT_GD32F303_Demo_Suites/Projects/13_I2C_EEPROM/Soft_Drive\at24cxx.c ****         if(2 == number_of_byte){
 342:C:/Users/49542/Desktop/GD32F30x_Demo_Suites_V2.0.0/GD32F30x_Demo_Suites_V2.0.0/BearPi-IoT_GD32F303_Demo_Suites/Projects/13_I2C_EEPROM/Soft_Drive\at24cxx.c ****             /* wait until BTC bit is set */
 343:C:/Users/49542/Desktop/GD32F30x_Demo_Suites_V2.0.0/GD32F30x_Demo_Suites_V2.0.0/BearPi-IoT_GD32F303_Demo_Suites/Projects/13_I2C_EEPROM/Soft_Drive\at24cxx.c ****             while(!i2c_flag_get(I2C0, I2C_FLAG_BTC));
 344:C:/Users/49542/Desktop/GD32F30x_Demo_Suites_V2.0.0/GD32F30x_Demo_Suites_V2.0.0/BearPi-IoT_GD32F303_Demo_Suites/Projects/13_I2C_EEPROM/Soft_Drive\at24cxx.c ****             
 345:C:/Users/49542/Desktop/GD32F30x_Demo_Suites_V2.0.0/GD32F30x_Demo_Suites_V2.0.0/BearPi-IoT_GD32F303_Demo_Suites/Projects/13_I2C_EEPROM/Soft_Drive\at24cxx.c ****             /* send a stop condition to I2C bus */
 346:C:/Users/49542/Desktop/GD32F30x_Demo_Suites_V2.0.0/GD32F30x_Demo_Suites_V2.0.0/BearPi-IoT_GD32F303_Demo_Suites/Projects/13_I2C_EEPROM/Soft_Drive\at24cxx.c ****             i2c_stop_on_bus(I2C0);
 347:C:/Users/49542/Desktop/GD32F30x_Demo_Suites_V2.0.0/GD32F30x_Demo_Suites_V2.0.0/BearPi-IoT_GD32F303_Demo_Suites/Projects/13_I2C_EEPROM/Soft_Drive\at24cxx.c ****         }
 348:C:/Users/49542/Desktop/GD32F30x_Demo_Suites_V2.0.0/GD32F30x_Demo_Suites_V2.0.0/BearPi-IoT_GD32F303_Demo_Suites/Projects/13_I2C_EEPROM/Soft_Drive\at24cxx.c ****         
 349:C:/Users/49542/Desktop/GD32F30x_Demo_Suites_V2.0.0/GD32F30x_Demo_Suites_V2.0.0/BearPi-IoT_GD32F303_Demo_Suites/Projects/13_I2C_EEPROM/Soft_Drive\at24cxx.c ****         /* wait until the RBNE bit is set and clear it */
 350:C:/Users/49542/Desktop/GD32F30x_Demo_Suites_V2.0.0/GD32F30x_Demo_Suites_V2.0.0/BearPi-IoT_GD32F303_Demo_Suites/Projects/13_I2C_EEPROM/Soft_Drive\at24cxx.c ****         if(i2c_flag_get(I2C0, I2C_FLAG_RBNE)){
 471              		.loc 1 350 0
 472 00f4 40F20651 		movw	r1, #1286
 473 00f8 1548     		ldr	r0, .L51
 474 00fa FFF7FEFF 		bl	i2c_flag_get
 475              	.LVL57:
 476 00fe 78B9     		cbnz	r0, .L50
 477              	.LVL58:
 478              	.L44:
 333:C:/Users/49542/Desktop/GD32F30x_Demo_Suites_V2.0.0/GD32F30x_Demo_Suites_V2.0.0/BearPi-IoT_GD32F303_Demo_Suites/Projects/13_I2C_EEPROM/Soft_Drive\at24cxx.c ****         if(3 == number_of_byte){
 479              		.loc 1 333 0
 480 0100 B4B1     		cbz	r4, .L46
 334:C:/Users/49542/Desktop/GD32F30x_Demo_Suites_V2.0.0/GD32F30x_Demo_Suites_V2.0.0/BearPi-IoT_GD32F303_Demo_Suites/Projects/13_I2C_EEPROM/Soft_Drive\at24cxx.c ****             /* wait until BTC bit is set */
 481              		.loc 1 334 0
 482 0102 032C     		cmp	r4, #3
 483 0104 EAD0     		beq	.L41
 484              	.L40:
 341:C:/Users/49542/Desktop/GD32F30x_Demo_Suites_V2.0.0/GD32F30x_Demo_Suites_V2.0.0/BearPi-IoT_GD32F303_Demo_Suites/Projects/13_I2C_EEPROM/Soft_Drive\at24cxx.c ****             /* wait until BTC bit is set */
 485              		.loc 1 341 0
 486 0106 022C     		cmp	r4, #2
 487 0108 F4D1     		bne	.L42
 488              	.L43:
 343:C:/Users/49542/Desktop/GD32F30x_Demo_Suites_V2.0.0/GD32F30x_Demo_Suites_V2.0.0/BearPi-IoT_GD32F303_Demo_Suites/Projects/13_I2C_EEPROM/Soft_Drive\at24cxx.c ****             
 489              		.loc 1 343 0 discriminator 1
 490 010a 40F20251 		movw	r1, #1282
 491 010e 1048     		ldr	r0, .L51
 492 0110 FFF7FEFF 		bl	i2c_flag_get
 493              	.LVL59:
 494 0114 0028     		cmp	r0, #0
 495 0116 F8D0     		beq	.L43
 346:C:/Users/49542/Desktop/GD32F30x_Demo_Suites_V2.0.0/GD32F30x_Demo_Suites_V2.0.0/BearPi-IoT_GD32F303_Demo_Suites/Projects/13_I2C_EEPROM/Soft_Drive\at24cxx.c ****         }
 496              		.loc 1 346 0
 497 0118 0D48     		ldr	r0, .L51
 498 011a FFF7FEFF 		bl	i2c_stop_on_bus
 499              	.LVL60:
 500 011e E9E7     		b	.L42
 501              	.L50:
 351:C:/Users/49542/Desktop/GD32F30x_Demo_Suites_V2.0.0/GD32F30x_Demo_Suites_V2.0.0/BearPi-IoT_GD32F303_Demo_Suites/Projects/13_I2C_EEPROM/Soft_Drive\at24cxx.c ****             /* read a byte from the EEPROM */
 352:C:/Users/49542/Desktop/GD32F30x_Demo_Suites_V2.0.0/GD32F30x_Demo_Suites_V2.0.0/BearPi-IoT_GD32F303_Demo_Suites/Projects/13_I2C_EEPROM/Soft_Drive\at24cxx.c ****             *p_buffer = i2c_data_receive(I2C0);
 502              		.loc 1 352 0
ARM GAS  C:\Users\49542\AppData\Local\Temp\ccsfhkzv.s 			page 16


 503 0120 0B48     		ldr	r0, .L51
 504 0122 FFF7FEFF 		bl	i2c_data_receive
 505              	.LVL61:
 506 0126 06F8010B 		strb	r0, [r6], #1
 507              	.LVL62:
 353:C:/Users/49542/Desktop/GD32F30x_Demo_Suites_V2.0.0/GD32F30x_Demo_Suites_V2.0.0/BearPi-IoT_GD32F303_Demo_Suites/Projects/13_I2C_EEPROM/Soft_Drive\at24cxx.c ****             
 354:C:/Users/49542/Desktop/GD32F30x_Demo_Suites_V2.0.0/GD32F30x_Demo_Suites_V2.0.0/BearPi-IoT_GD32F303_Demo_Suites/Projects/13_I2C_EEPROM/Soft_Drive\at24cxx.c ****             /* point to the next location where the byte read will be saved */
 355:C:/Users/49542/Desktop/GD32F30x_Demo_Suites_V2.0.0/GD32F30x_Demo_Suites_V2.0.0/BearPi-IoT_GD32F303_Demo_Suites/Projects/13_I2C_EEPROM/Soft_Drive\at24cxx.c ****             p_buffer++; 
 356:C:/Users/49542/Desktop/GD32F30x_Demo_Suites_V2.0.0/GD32F30x_Demo_Suites_V2.0.0/BearPi-IoT_GD32F303_Demo_Suites/Projects/13_I2C_EEPROM/Soft_Drive\at24cxx.c ****             
 357:C:/Users/49542/Desktop/GD32F30x_Demo_Suites_V2.0.0/GD32F30x_Demo_Suites_V2.0.0/BearPi-IoT_GD32F303_Demo_Suites/Projects/13_I2C_EEPROM/Soft_Drive\at24cxx.c ****             /* decrement the read bytes counter */
 358:C:/Users/49542/Desktop/GD32F30x_Demo_Suites_V2.0.0/GD32F30x_Demo_Suites_V2.0.0/BearPi-IoT_GD32F303_Demo_Suites/Projects/13_I2C_EEPROM/Soft_Drive\at24cxx.c ****             number_of_byte--;
 508              		.loc 1 358 0
 509 012a 013C     		subs	r4, r4, #1
 510              	.LVL63:
 511 012c A4B2     		uxth	r4, r4
 512              	.LVL64:
 513 012e E7E7     		b	.L44
 514              	.L46:
 359:C:/Users/49542/Desktop/GD32F30x_Demo_Suites_V2.0.0/GD32F30x_Demo_Suites_V2.0.0/BearPi-IoT_GD32F303_Demo_Suites/Projects/13_I2C_EEPROM/Soft_Drive\at24cxx.c ****         } 
 360:C:/Users/49542/Desktop/GD32F30x_Demo_Suites_V2.0.0/GD32F30x_Demo_Suites_V2.0.0/BearPi-IoT_GD32F303_Demo_Suites/Projects/13_I2C_EEPROM/Soft_Drive\at24cxx.c ****     }
 361:C:/Users/49542/Desktop/GD32F30x_Demo_Suites_V2.0.0/GD32F30x_Demo_Suites_V2.0.0/BearPi-IoT_GD32F303_Demo_Suites/Projects/13_I2C_EEPROM/Soft_Drive\at24cxx.c ****     
 362:C:/Users/49542/Desktop/GD32F30x_Demo_Suites_V2.0.0/GD32F30x_Demo_Suites_V2.0.0/BearPi-IoT_GD32F303_Demo_Suites/Projects/13_I2C_EEPROM/Soft_Drive\at24cxx.c ****     /* wait until the stop condition is finished */
 363:C:/Users/49542/Desktop/GD32F30x_Demo_Suites_V2.0.0/GD32F30x_Demo_Suites_V2.0.0/BearPi-IoT_GD32F303_Demo_Suites/Projects/13_I2C_EEPROM/Soft_Drive\at24cxx.c ****     while(I2C_CTL0(I2C0)&0x0200);
 515              		.loc 1 363 0 discriminator 1
 516 0130 074B     		ldr	r3, .L51
 517 0132 1B68     		ldr	r3, [r3]
 518 0134 13F4007F 		tst	r3, #512
 519 0138 FAD1     		bne	.L46
 364:C:/Users/49542/Desktop/GD32F30x_Demo_Suites_V2.0.0/GD32F30x_Demo_Suites_V2.0.0/BearPi-IoT_GD32F303_Demo_Suites/Projects/13_I2C_EEPROM/Soft_Drive\at24cxx.c ****     
 365:C:/Users/49542/Desktop/GD32F30x_Demo_Suites_V2.0.0/GD32F30x_Demo_Suites_V2.0.0/BearPi-IoT_GD32F303_Demo_Suites/Projects/13_I2C_EEPROM/Soft_Drive\at24cxx.c ****     /* enable acknowledge */
 366:C:/Users/49542/Desktop/GD32F30x_Demo_Suites_V2.0.0/GD32F30x_Demo_Suites_V2.0.0/BearPi-IoT_GD32F303_Demo_Suites/Projects/13_I2C_EEPROM/Soft_Drive\at24cxx.c ****     i2c_ack_config(I2C0,I2C_ACK_ENABLE);
 520              		.loc 1 366 0
 521 013a 054C     		ldr	r4, .L51
 522              	.LVL65:
 523 013c 0121     		movs	r1, #1
 524 013e 2046     		mov	r0, r4
 525 0140 FFF7FEFF 		bl	i2c_ack_config
 526              	.LVL66:
 367:C:/Users/49542/Desktop/GD32F30x_Demo_Suites_V2.0.0/GD32F30x_Demo_Suites_V2.0.0/BearPi-IoT_GD32F303_Demo_Suites/Projects/13_I2C_EEPROM/Soft_Drive\at24cxx.c **** 
 368:C:/Users/49542/Desktop/GD32F30x_Demo_Suites_V2.0.0/GD32F30x_Demo_Suites_V2.0.0/BearPi-IoT_GD32F303_Demo_Suites/Projects/13_I2C_EEPROM/Soft_Drive\at24cxx.c ****     i2c_ackpos_config(I2C0,I2C_ACKPOS_CURRENT);
 527              		.loc 1 368 0
 528 0144 0121     		movs	r1, #1
 529 0146 2046     		mov	r0, r4
 530 0148 FFF7FEFF 		bl	i2c_ackpos_config
 531              	.LVL67:
 369:C:/Users/49542/Desktop/GD32F30x_Demo_Suites_V2.0.0/GD32F30x_Demo_Suites_V2.0.0/BearPi-IoT_GD32F303_Demo_Suites/Projects/13_I2C_EEPROM/Soft_Drive\at24cxx.c **** }
 532              		.loc 1 369 0
 533 014c F8BD     		pop	{r3, r4, r5, r6, r7, pc}
 534              	.LVL68:
 535              	.L52:
 536 014e 00BF     		.align	2
 537              	.L51:
 538 0150 00540040 		.word	1073763328
 539 0154 00000000 		.word	eeprom_address
 540              		.cfi_endproc
 541              	.LFE124:
 543              		.section	.text.eeprom_wait_standby_state,"ax",%progbits
ARM GAS  C:\Users\49542\AppData\Local\Temp\ccsfhkzv.s 			page 17


 544              		.align	1
 545              		.global	eeprom_wait_standby_state
 546              		.syntax unified
 547              		.thumb
 548              		.thumb_func
 549              		.fpu fpv4-sp-d16
 551              	eeprom_wait_standby_state:
 552              	.LFB125:
 370:C:/Users/49542/Desktop/GD32F30x_Demo_Suites_V2.0.0/GD32F30x_Demo_Suites_V2.0.0/BearPi-IoT_GD32F303_Demo_Suites/Projects/13_I2C_EEPROM/Soft_Drive\at24cxx.c **** 
 371:C:/Users/49542/Desktop/GD32F30x_Demo_Suites_V2.0.0/GD32F30x_Demo_Suites_V2.0.0/BearPi-IoT_GD32F303_Demo_Suites/Projects/13_I2C_EEPROM/Soft_Drive\at24cxx.c **** /*!
 372:C:/Users/49542/Desktop/GD32F30x_Demo_Suites_V2.0.0/GD32F30x_Demo_Suites_V2.0.0/BearPi-IoT_GD32F303_Demo_Suites/Projects/13_I2C_EEPROM/Soft_Drive\at24cxx.c ****     \brief      wait for EEPROM standby state
 373:C:/Users/49542/Desktop/GD32F30x_Demo_Suites_V2.0.0/GD32F30x_Demo_Suites_V2.0.0/BearPi-IoT_GD32F303_Demo_Suites/Projects/13_I2C_EEPROM/Soft_Drive\at24cxx.c ****     \param[in]  none
 374:C:/Users/49542/Desktop/GD32F30x_Demo_Suites_V2.0.0/GD32F30x_Demo_Suites_V2.0.0/BearPi-IoT_GD32F303_Demo_Suites/Projects/13_I2C_EEPROM/Soft_Drive\at24cxx.c ****     \param[out] none
 375:C:/Users/49542/Desktop/GD32F30x_Demo_Suites_V2.0.0/GD32F30x_Demo_Suites_V2.0.0/BearPi-IoT_GD32F303_Demo_Suites/Projects/13_I2C_EEPROM/Soft_Drive\at24cxx.c ****     \retval     none
 376:C:/Users/49542/Desktop/GD32F30x_Demo_Suites_V2.0.0/GD32F30x_Demo_Suites_V2.0.0/BearPi-IoT_GD32F303_Demo_Suites/Projects/13_I2C_EEPROM/Soft_Drive\at24cxx.c **** */
 377:C:/Users/49542/Desktop/GD32F30x_Demo_Suites_V2.0.0/GD32F30x_Demo_Suites_V2.0.0/BearPi-IoT_GD32F303_Demo_Suites/Projects/13_I2C_EEPROM/Soft_Drive\at24cxx.c **** void eeprom_wait_standby_state(void)
 378:C:/Users/49542/Desktop/GD32F30x_Demo_Suites_V2.0.0/GD32F30x_Demo_Suites_V2.0.0/BearPi-IoT_GD32F303_Demo_Suites/Projects/13_I2C_EEPROM/Soft_Drive\at24cxx.c **** {
 553              		.loc 1 378 0
 554              		.cfi_startproc
 555              		@ args = 0, pretend = 0, frame = 8
 556              		@ frame_needed = 0, uses_anonymous_args = 0
 557 0000 10B5     		push	{r4, lr}
 558              	.LCFI3:
 559              		.cfi_def_cfa_offset 8
 560              		.cfi_offset 4, -8
 561              		.cfi_offset 14, -4
 562 0002 82B0     		sub	sp, sp, #8
 563              	.LCFI4:
 564              		.cfi_def_cfa_offset 16
 379:C:/Users/49542/Desktop/GD32F30x_Demo_Suites_V2.0.0/GD32F30x_Demo_Suites_V2.0.0/BearPi-IoT_GD32F303_Demo_Suites/Projects/13_I2C_EEPROM/Soft_Drive\at24cxx.c ****     __IO uint32_t val = 0;
 565              		.loc 1 379 0
 566 0004 0023     		movs	r3, #0
 567 0006 0193     		str	r3, [sp, #4]
 568              	.L54:
 380:C:/Users/49542/Desktop/GD32F30x_Demo_Suites_V2.0.0/GD32F30x_Demo_Suites_V2.0.0/BearPi-IoT_GD32F303_Demo_Suites/Projects/13_I2C_EEPROM/Soft_Drive\at24cxx.c ****     
 381:C:/Users/49542/Desktop/GD32F30x_Demo_Suites_V2.0.0/GD32F30x_Demo_Suites_V2.0.0/BearPi-IoT_GD32F303_Demo_Suites/Projects/13_I2C_EEPROM/Soft_Drive\at24cxx.c ****     while(1){
 382:C:/Users/49542/Desktop/GD32F30x_Demo_Suites_V2.0.0/GD32F30x_Demo_Suites_V2.0.0/BearPi-IoT_GD32F303_Demo_Suites/Projects/13_I2C_EEPROM/Soft_Drive\at24cxx.c ****         /* wait until I2C bus is idle */
 383:C:/Users/49542/Desktop/GD32F30x_Demo_Suites_V2.0.0/GD32F30x_Demo_Suites_V2.0.0/BearPi-IoT_GD32F303_Demo_Suites/Projects/13_I2C_EEPROM/Soft_Drive\at24cxx.c ****         while(i2c_flag_get(I2C0, I2C_FLAG_I2CBSY));
 569              		.loc 1 383 0 discriminator 1
 570 0008 40F20161 		movw	r1, #1537
 571 000c 1D48     		ldr	r0, .L63
 572 000e FFF7FEFF 		bl	i2c_flag_get
 573              	.LVL69:
 574 0012 0028     		cmp	r0, #0
 575 0014 F8D1     		bne	.L54
 384:C:/Users/49542/Desktop/GD32F30x_Demo_Suites_V2.0.0/GD32F30x_Demo_Suites_V2.0.0/BearPi-IoT_GD32F303_Demo_Suites/Projects/13_I2C_EEPROM/Soft_Drive\at24cxx.c ****         
 385:C:/Users/49542/Desktop/GD32F30x_Demo_Suites_V2.0.0/GD32F30x_Demo_Suites_V2.0.0/BearPi-IoT_GD32F303_Demo_Suites/Projects/13_I2C_EEPROM/Soft_Drive\at24cxx.c ****         /* send a start condition to I2C bus */
 386:C:/Users/49542/Desktop/GD32F30x_Demo_Suites_V2.0.0/GD32F30x_Demo_Suites_V2.0.0/BearPi-IoT_GD32F303_Demo_Suites/Projects/13_I2C_EEPROM/Soft_Drive\at24cxx.c ****         i2c_start_on_bus(I2C0);
 576              		.loc 1 386 0
 577 0016 1B48     		ldr	r0, .L63
 578 0018 FFF7FEFF 		bl	i2c_start_on_bus
 579              	.LVL70:
 580              	.L55:
 387:C:/Users/49542/Desktop/GD32F30x_Demo_Suites_V2.0.0/GD32F30x_Demo_Suites_V2.0.0/BearPi-IoT_GD32F303_Demo_Suites/Projects/13_I2C_EEPROM/Soft_Drive\at24cxx.c ****         
 388:C:/Users/49542/Desktop/GD32F30x_Demo_Suites_V2.0.0/GD32F30x_Demo_Suites_V2.0.0/BearPi-IoT_GD32F303_Demo_Suites/Projects/13_I2C_EEPROM/Soft_Drive\at24cxx.c ****         /* wait until SBSEND bit is set */
 389:C:/Users/49542/Desktop/GD32F30x_Demo_Suites_V2.0.0/GD32F30x_Demo_Suites_V2.0.0/BearPi-IoT_GD32F303_Demo_Suites/Projects/13_I2C_EEPROM/Soft_Drive\at24cxx.c ****         while(!i2c_flag_get(I2C0, I2C_FLAG_SBSEND));
 581              		.loc 1 389 0 discriminator 1
ARM GAS  C:\Users\49542\AppData\Local\Temp\ccsfhkzv.s 			page 18


 582 001c 4FF4A061 		mov	r1, #1280
 583 0020 1848     		ldr	r0, .L63
 584 0022 FFF7FEFF 		bl	i2c_flag_get
 585              	.LVL71:
 586 0026 0028     		cmp	r0, #0
 587 0028 F8D0     		beq	.L55
 390:C:/Users/49542/Desktop/GD32F30x_Demo_Suites_V2.0.0/GD32F30x_Demo_Suites_V2.0.0/BearPi-IoT_GD32F303_Demo_Suites/Projects/13_I2C_EEPROM/Soft_Drive\at24cxx.c ****         
 391:C:/Users/49542/Desktop/GD32F30x_Demo_Suites_V2.0.0/GD32F30x_Demo_Suites_V2.0.0/BearPi-IoT_GD32F303_Demo_Suites/Projects/13_I2C_EEPROM/Soft_Drive\at24cxx.c ****         /* send slave address to I2C bus */
 392:C:/Users/49542/Desktop/GD32F30x_Demo_Suites_V2.0.0/GD32F30x_Demo_Suites_V2.0.0/BearPi-IoT_GD32F303_Demo_Suites/Projects/13_I2C_EEPROM/Soft_Drive\at24cxx.c ****         i2c_master_addressing(I2C0, eeprom_address, I2C_TRANSMITTER);
 588              		.loc 1 392 0
 589 002a 6FF00102 		mvn	r2, #1
 590 002e 164B     		ldr	r3, .L63+4
 591 0030 1988     		ldrh	r1, [r3]
 592 0032 1448     		ldr	r0, .L63
 593 0034 FFF7FEFF 		bl	i2c_master_addressing
 594              	.LVL72:
 595              	.L56:
 393:C:/Users/49542/Desktop/GD32F30x_Demo_Suites_V2.0.0/GD32F30x_Demo_Suites_V2.0.0/BearPi-IoT_GD32F303_Demo_Suites/Projects/13_I2C_EEPROM/Soft_Drive\at24cxx.c ****         
 394:C:/Users/49542/Desktop/GD32F30x_Demo_Suites_V2.0.0/GD32F30x_Demo_Suites_V2.0.0/BearPi-IoT_GD32F303_Demo_Suites/Projects/13_I2C_EEPROM/Soft_Drive\at24cxx.c ****         /* keep looping till the Address is acknowledged or the AE flag is set (address not acknowl
 395:C:/Users/49542/Desktop/GD32F30x_Demo_Suites_V2.0.0/GD32F30x_Demo_Suites_V2.0.0/BearPi-IoT_GD32F303_Demo_Suites/Projects/13_I2C_EEPROM/Soft_Drive\at24cxx.c ****         do{
 396:C:/Users/49542/Desktop/GD32F30x_Demo_Suites_V2.0.0/GD32F30x_Demo_Suites_V2.0.0/BearPi-IoT_GD32F303_Demo_Suites/Projects/13_I2C_EEPROM/Soft_Drive\at24cxx.c ****             /* get the current value of the I2C_STAT0 register */
 397:C:/Users/49542/Desktop/GD32F30x_Demo_Suites_V2.0.0/GD32F30x_Demo_Suites_V2.0.0/BearPi-IoT_GD32F303_Demo_Suites/Projects/13_I2C_EEPROM/Soft_Drive\at24cxx.c ****             val = I2C_STAT0(I2C0);
 596              		.loc 1 397 0 discriminator 1
 597 0038 144B     		ldr	r3, .L63+8
 598 003a 1B68     		ldr	r3, [r3]
 599 003c 0193     		str	r3, [sp, #4]
 398:C:/Users/49542/Desktop/GD32F30x_Demo_Suites_V2.0.0/GD32F30x_Demo_Suites_V2.0.0/BearPi-IoT_GD32F303_Demo_Suites/Projects/13_I2C_EEPROM/Soft_Drive\at24cxx.c ****             
 399:C:/Users/49542/Desktop/GD32F30x_Demo_Suites_V2.0.0/GD32F30x_Demo_Suites_V2.0.0/BearPi-IoT_GD32F303_Demo_Suites/Projects/13_I2C_EEPROM/Soft_Drive\at24cxx.c ****         }while(0 == (val & (I2C_STAT0_ADDSEND | I2C_STAT0_AERR)));
 600              		.loc 1 399 0 discriminator 1
 601 003e 019A     		ldr	r2, [sp, #4]
 602 0040 40F20243 		movw	r3, #1026
 603 0044 1A42     		tst	r2, r3
 604 0046 F7D0     		beq	.L56
 400:C:/Users/49542/Desktop/GD32F30x_Demo_Suites_V2.0.0/GD32F30x_Demo_Suites_V2.0.0/BearPi-IoT_GD32F303_Demo_Suites/Projects/13_I2C_EEPROM/Soft_Drive\at24cxx.c ****          
 401:C:/Users/49542/Desktop/GD32F30x_Demo_Suites_V2.0.0/GD32F30x_Demo_Suites_V2.0.0/BearPi-IoT_GD32F303_Demo_Suites/Projects/13_I2C_EEPROM/Soft_Drive\at24cxx.c ****         /* check if the ADDSEND flag has been set */
 402:C:/Users/49542/Desktop/GD32F30x_Demo_Suites_V2.0.0/GD32F30x_Demo_Suites_V2.0.0/BearPi-IoT_GD32F303_Demo_Suites/Projects/13_I2C_EEPROM/Soft_Drive\at24cxx.c ****         if(val & I2C_STAT0_ADDSEND){
 605              		.loc 1 402 0
 606 0048 019B     		ldr	r3, [sp, #4]
 607 004a 13F0020F 		tst	r3, #2
 608 004e 0ED1     		bne	.L62
 403:C:/Users/49542/Desktop/GD32F30x_Demo_Suites_V2.0.0/GD32F30x_Demo_Suites_V2.0.0/BearPi-IoT_GD32F303_Demo_Suites/Projects/13_I2C_EEPROM/Soft_Drive\at24cxx.c ****             
 404:C:/Users/49542/Desktop/GD32F30x_Demo_Suites_V2.0.0/GD32F30x_Demo_Suites_V2.0.0/BearPi-IoT_GD32F303_Demo_Suites/Projects/13_I2C_EEPROM/Soft_Drive\at24cxx.c ****             /* clear ADDSEND flag */
 405:C:/Users/49542/Desktop/GD32F30x_Demo_Suites_V2.0.0/GD32F30x_Demo_Suites_V2.0.0/BearPi-IoT_GD32F303_Demo_Suites/Projects/13_I2C_EEPROM/Soft_Drive\at24cxx.c ****             i2c_flag_clear(I2C0,I2C_FLAG_ADDSEND);
 406:C:/Users/49542/Desktop/GD32F30x_Demo_Suites_V2.0.0/GD32F30x_Demo_Suites_V2.0.0/BearPi-IoT_GD32F303_Demo_Suites/Projects/13_I2C_EEPROM/Soft_Drive\at24cxx.c ****             
 407:C:/Users/49542/Desktop/GD32F30x_Demo_Suites_V2.0.0/GD32F30x_Demo_Suites_V2.0.0/BearPi-IoT_GD32F303_Demo_Suites/Projects/13_I2C_EEPROM/Soft_Drive\at24cxx.c ****             /* send a stop condition to I2C bus */
 408:C:/Users/49542/Desktop/GD32F30x_Demo_Suites_V2.0.0/GD32F30x_Demo_Suites_V2.0.0/BearPi-IoT_GD32F303_Demo_Suites/Projects/13_I2C_EEPROM/Soft_Drive\at24cxx.c ****             i2c_stop_on_bus(I2C0);
 409:C:/Users/49542/Desktop/GD32F30x_Demo_Suites_V2.0.0/GD32F30x_Demo_Suites_V2.0.0/BearPi-IoT_GD32F303_Demo_Suites/Projects/13_I2C_EEPROM/Soft_Drive\at24cxx.c ****             
 410:C:/Users/49542/Desktop/GD32F30x_Demo_Suites_V2.0.0/GD32F30x_Demo_Suites_V2.0.0/BearPi-IoT_GD32F303_Demo_Suites/Projects/13_I2C_EEPROM/Soft_Drive\at24cxx.c ****             /* exit the function */
 411:C:/Users/49542/Desktop/GD32F30x_Demo_Suites_V2.0.0/GD32F30x_Demo_Suites_V2.0.0/BearPi-IoT_GD32F303_Demo_Suites/Projects/13_I2C_EEPROM/Soft_Drive\at24cxx.c ****             return ;
 412:C:/Users/49542/Desktop/GD32F30x_Demo_Suites_V2.0.0/GD32F30x_Demo_Suites_V2.0.0/BearPi-IoT_GD32F303_Demo_Suites/Projects/13_I2C_EEPROM/Soft_Drive\at24cxx.c ****             
 413:C:/Users/49542/Desktop/GD32F30x_Demo_Suites_V2.0.0/GD32F30x_Demo_Suites_V2.0.0/BearPi-IoT_GD32F303_Demo_Suites/Projects/13_I2C_EEPROM/Soft_Drive\at24cxx.c ****         }else{
 414:C:/Users/49542/Desktop/GD32F30x_Demo_Suites_V2.0.0/GD32F30x_Demo_Suites_V2.0.0/BearPi-IoT_GD32F303_Demo_Suites/Projects/13_I2C_EEPROM/Soft_Drive\at24cxx.c ****             /* clear the bit of AE */
 415:C:/Users/49542/Desktop/GD32F30x_Demo_Suites_V2.0.0/GD32F30x_Demo_Suites_V2.0.0/BearPi-IoT_GD32F303_Demo_Suites/Projects/13_I2C_EEPROM/Soft_Drive\at24cxx.c ****             i2c_flag_clear(I2C0,I2C_FLAG_AERR);
 609              		.loc 1 415 0
 610 0050 0C4C     		ldr	r4, .L63
 611 0052 40F20A51 		movw	r1, #1290
 612 0056 2046     		mov	r0, r4
ARM GAS  C:\Users\49542\AppData\Local\Temp\ccsfhkzv.s 			page 19


 613 0058 FFF7FEFF 		bl	i2c_flag_clear
 614              	.LVL73:
 416:C:/Users/49542/Desktop/GD32F30x_Demo_Suites_V2.0.0/GD32F30x_Demo_Suites_V2.0.0/BearPi-IoT_GD32F303_Demo_Suites/Projects/13_I2C_EEPROM/Soft_Drive\at24cxx.c ****         }
 417:C:/Users/49542/Desktop/GD32F30x_Demo_Suites_V2.0.0/GD32F30x_Demo_Suites_V2.0.0/BearPi-IoT_GD32F303_Demo_Suites/Projects/13_I2C_EEPROM/Soft_Drive\at24cxx.c ****         
 418:C:/Users/49542/Desktop/GD32F30x_Demo_Suites_V2.0.0/GD32F30x_Demo_Suites_V2.0.0/BearPi-IoT_GD32F303_Demo_Suites/Projects/13_I2C_EEPROM/Soft_Drive\at24cxx.c ****         /* send a stop condition to I2C bus */
 419:C:/Users/49542/Desktop/GD32F30x_Demo_Suites_V2.0.0/GD32F30x_Demo_Suites_V2.0.0/BearPi-IoT_GD32F303_Demo_Suites/Projects/13_I2C_EEPROM/Soft_Drive\at24cxx.c ****         i2c_stop_on_bus(I2C0);
 615              		.loc 1 419 0
 616 005c 2046     		mov	r0, r4
 617 005e FFF7FEFF 		bl	i2c_stop_on_bus
 618              	.LVL74:
 619              	.L58:
 420:C:/Users/49542/Desktop/GD32F30x_Demo_Suites_V2.0.0/GD32F30x_Demo_Suites_V2.0.0/BearPi-IoT_GD32F303_Demo_Suites/Projects/13_I2C_EEPROM/Soft_Drive\at24cxx.c ****         /* wait until the stop condition is finished */
 421:C:/Users/49542/Desktop/GD32F30x_Demo_Suites_V2.0.0/GD32F30x_Demo_Suites_V2.0.0/BearPi-IoT_GD32F303_Demo_Suites/Projects/13_I2C_EEPROM/Soft_Drive\at24cxx.c ****         while(I2C_CTL0(I2C0)&0x0200);
 620              		.loc 1 421 0 discriminator 1
 621 0062 084B     		ldr	r3, .L63
 622 0064 1B68     		ldr	r3, [r3]
 623 0066 13F4007F 		tst	r3, #512
 624 006a FAD1     		bne	.L58
 625 006c CCE7     		b	.L54
 626              	.L62:
 405:C:/Users/49542/Desktop/GD32F30x_Demo_Suites_V2.0.0/GD32F30x_Demo_Suites_V2.0.0/BearPi-IoT_GD32F303_Demo_Suites/Projects/13_I2C_EEPROM/Soft_Drive\at24cxx.c ****             
 627              		.loc 1 405 0
 628 006e 054C     		ldr	r4, .L63
 629 0070 40F20151 		movw	r1, #1281
 630 0074 2046     		mov	r0, r4
 631 0076 FFF7FEFF 		bl	i2c_flag_clear
 632              	.LVL75:
 408:C:/Users/49542/Desktop/GD32F30x_Demo_Suites_V2.0.0/GD32F30x_Demo_Suites_V2.0.0/BearPi-IoT_GD32F303_Demo_Suites/Projects/13_I2C_EEPROM/Soft_Drive\at24cxx.c ****             
 633              		.loc 1 408 0
 634 007a 2046     		mov	r0, r4
 635 007c FFF7FEFF 		bl	i2c_stop_on_bus
 636              	.LVL76:
 422:C:/Users/49542/Desktop/GD32F30x_Demo_Suites_V2.0.0/GD32F30x_Demo_Suites_V2.0.0/BearPi-IoT_GD32F303_Demo_Suites/Projects/13_I2C_EEPROM/Soft_Drive\at24cxx.c ****     }
 423:C:/Users/49542/Desktop/GD32F30x_Demo_Suites_V2.0.0/GD32F30x_Demo_Suites_V2.0.0/BearPi-IoT_GD32F303_Demo_Suites/Projects/13_I2C_EEPROM/Soft_Drive\at24cxx.c **** }
 637              		.loc 1 423 0
 638 0080 02B0     		add	sp, sp, #8
 639              	.LCFI5:
 640              		.cfi_def_cfa_offset 8
 641              		@ sp needed
 642 0082 10BD     		pop	{r4, pc}
 643              	.L64:
 644              		.align	2
 645              	.L63:
 646 0084 00540040 		.word	1073763328
 647 0088 00000000 		.word	eeprom_address
 648 008c 14540040 		.word	1073763348
 649              		.cfi_endproc
 650              	.LFE125:
 652              		.section	.text.eeprom_buffer_write,"ax",%progbits
 653              		.align	1
 654              		.global	eeprom_buffer_write
 655              		.syntax unified
 656              		.thumb
 657              		.thumb_func
 658              		.fpu fpv4-sp-d16
 660              	eeprom_buffer_write:
 661              	.LFB121:
ARM GAS  C:\Users\49542\AppData\Local\Temp\ccsfhkzv.s 			page 20


 108:C:/Users/49542/Desktop/GD32F30x_Demo_Suites_V2.0.0/GD32F30x_Demo_Suites_V2.0.0/BearPi-IoT_GD32F303_Demo_Suites/Projects/13_I2C_EEPROM/Soft_Drive\at24cxx.c ****     uint8_t number_of_page = 0, number_of_single = 0, address = 0, count = 0;
 662              		.loc 1 108 0
 663              		.cfi_startproc
 664              		@ args = 0, pretend = 0, frame = 0
 665              		@ frame_needed = 0, uses_anonymous_args = 0
 666              	.LVL77:
 667 0000 2DE9F041 		push	{r4, r5, r6, r7, r8, lr}
 668              	.LCFI6:
 669              		.cfi_def_cfa_offset 24
 670              		.cfi_offset 4, -24
 671              		.cfi_offset 5, -20
 672              		.cfi_offset 6, -16
 673              		.cfi_offset 7, -12
 674              		.cfi_offset 8, -8
 675              		.cfi_offset 14, -4
 676 0004 0546     		mov	r5, r0
 677 0006 0C46     		mov	r4, r1
 678              	.LVL78:
 111:C:/Users/49542/Desktop/GD32F30x_Demo_Suites_V2.0.0/GD32F30x_Demo_Suites_V2.0.0/BearPi-IoT_GD32F303_Demo_Suites/Projects/13_I2C_EEPROM/Soft_Drive\at24cxx.c ****     count = I2C_PAGE_SIZE - address;
 679              		.loc 1 111 0
 680 0008 01F00703 		and	r3, r1, #7
 681              	.LVL79:
 113:C:/Users/49542/Desktop/GD32F30x_Demo_Suites_V2.0.0/GD32F30x_Demo_Suites_V2.0.0/BearPi-IoT_GD32F303_Demo_Suites/Projects/13_I2C_EEPROM/Soft_Drive\at24cxx.c ****     number_of_single = number_of_byte % I2C_PAGE_SIZE;
 682              		.loc 1 113 0
 683 000c C2F3C701 		ubfx	r1, r2, #3, #8
 684              	.LVL80:
 114:C:/Users/49542/Desktop/GD32F30x_Demo_Suites_V2.0.0/GD32F30x_Demo_Suites_V2.0.0/BearPi-IoT_GD32F303_Demo_Suites/Projects/13_I2C_EEPROM/Soft_Drive\at24cxx.c ****     
 685              		.loc 1 114 0
 686 0010 D0B2     		uxtb	r0, r2
 687              	.LVL81:
 688 0012 00F00707 		and	r7, r0, #7
 689              	.LVL82:
 117:C:/Users/49542/Desktop/GD32F30x_Demo_Suites_V2.0.0/GD32F30x_Demo_Suites_V2.0.0/BearPi-IoT_GD32F303_Demo_Suites/Projects/13_I2C_EEPROM/Soft_Drive\at24cxx.c ****         while(number_of_page--){
 690              		.loc 1 117 0
 691 0016 13B3     		cbz	r3, .L66
 692 0018 C3F10806 		rsb	r6, r3, #8
 693 001c F6B2     		uxtb	r6, r6
 130:C:/Users/49542/Desktop/GD32F30x_Demo_Suites_V2.0.0/GD32F30x_Demo_Suites_V2.0.0/BearPi-IoT_GD32F303_Demo_Suites/Projects/13_I2C_EEPROM/Soft_Drive\at24cxx.c ****             eeprom_page_write(p_buffer, write_address, number_of_byte);
 694              		.loc 1 130 0
 695 001e B3B2     		uxth	r3, r6
 696              	.LVL83:
 697 0020 9342     		cmp	r3, r2
 698 0022 2BD8     		bhi	.L77
 134:C:/Users/49542/Desktop/GD32F30x_Demo_Suites_V2.0.0/GD32F30x_Demo_Suites_V2.0.0/BearPi-IoT_GD32F303_Demo_Suites/Projects/13_I2C_EEPROM/Soft_Drive\at24cxx.c ****             number_of_page =  number_of_byte / I2C_PAGE_SIZE;
 699              		.loc 1 134 0
 700 0024 D21A     		subs	r2, r2, r3
 701              	.LVL84:
 702 0026 92B2     		uxth	r2, r2
 703              	.LVL85:
 135:C:/Users/49542/Desktop/GD32F30x_Demo_Suites_V2.0.0/GD32F30x_Demo_Suites_V2.0.0/BearPi-IoT_GD32F303_Demo_Suites/Projects/13_I2C_EEPROM/Soft_Drive\at24cxx.c ****             number_of_single = number_of_byte % I2C_PAGE_SIZE;
 704              		.loc 1 135 0
 705 0028 C2F3C707 		ubfx	r7, r2, #3, #8
 706              	.LVL86:
 136:C:/Users/49542/Desktop/GD32F30x_Demo_Suites_V2.0.0/GD32F30x_Demo_Suites_V2.0.0/BearPi-IoT_GD32F303_Demo_Suites/Projects/13_I2C_EEPROM/Soft_Drive\at24cxx.c ****             
 707              		.loc 1 136 0
 708 002c 02F00708 		and	r8, r2, #7
 709              	.LVL87:
ARM GAS  C:\Users\49542\AppData\Local\Temp\ccsfhkzv.s 			page 21


 138:C:/Users/49542/Desktop/GD32F30x_Demo_Suites_V2.0.0/GD32F30x_Demo_Suites_V2.0.0/BearPi-IoT_GD32F303_Demo_Suites/Projects/13_I2C_EEPROM/Soft_Drive\at24cxx.c ****                 eeprom_page_write(p_buffer, write_address, count);
 710              		.loc 1 138 0
 711 0030 BEB3     		cbz	r6, .L72
 139:C:/Users/49542/Desktop/GD32F30x_Demo_Suites_V2.0.0/GD32F30x_Demo_Suites_V2.0.0/BearPi-IoT_GD32F303_Demo_Suites/Projects/13_I2C_EEPROM/Soft_Drive\at24cxx.c ****                 eeprom_wait_standby_state();
 712              		.loc 1 139 0
 713 0032 3246     		mov	r2, r6
 714              	.LVL88:
 715 0034 2146     		mov	r1, r4
 716 0036 2846     		mov	r0, r5
 717 0038 FFF7FEFF 		bl	eeprom_page_write
 718              	.LVL89:
 140:C:/Users/49542/Desktop/GD32F30x_Demo_Suites_V2.0.0/GD32F30x_Demo_Suites_V2.0.0/BearPi-IoT_GD32F303_Demo_Suites/Projects/13_I2C_EEPROM/Soft_Drive\at24cxx.c ****                 write_address += count;
 719              		.loc 1 140 0
 720 003c FFF7FEFF 		bl	eeprom_wait_standby_state
 721              	.LVL90:
 141:C:/Users/49542/Desktop/GD32F30x_Demo_Suites_V2.0.0/GD32F30x_Demo_Suites_V2.0.0/BearPi-IoT_GD32F303_Demo_Suites/Projects/13_I2C_EEPROM/Soft_Drive\at24cxx.c ****                 p_buffer += count;
 722              		.loc 1 141 0
 723 0040 3444     		add	r4, r4, r6
 724              	.LVL91:
 725 0042 E4B2     		uxtb	r4, r4
 726              	.LVL92:
 142:C:/Users/49542/Desktop/GD32F30x_Demo_Suites_V2.0.0/GD32F30x_Demo_Suites_V2.0.0/BearPi-IoT_GD32F303_Demo_Suites/Projects/13_I2C_EEPROM/Soft_Drive\at24cxx.c ****             } 
 727              		.loc 1 142 0
 728 0044 3544     		add	r5, r5, r6
 729              	.LVL93:
 730 0046 2CE0     		b	.L72
 731              	.LVL94:
 732              	.L68:
 119:C:/Users/49542/Desktop/GD32F30x_Demo_Suites_V2.0.0/GD32F30x_Demo_Suites_V2.0.0/BearPi-IoT_GD32F303_Demo_Suites/Projects/13_I2C_EEPROM/Soft_Drive\at24cxx.c ****             eeprom_wait_standby_state();
 733              		.loc 1 119 0
 734 0048 0822     		movs	r2, #8
 735 004a 2146     		mov	r1, r4
 736 004c 2846     		mov	r0, r5
 737 004e FFF7FEFF 		bl	eeprom_page_write
 738              	.LVL95:
 120:C:/Users/49542/Desktop/GD32F30x_Demo_Suites_V2.0.0/GD32F30x_Demo_Suites_V2.0.0/BearPi-IoT_GD32F303_Demo_Suites/Projects/13_I2C_EEPROM/Soft_Drive\at24cxx.c ****             write_address +=  I2C_PAGE_SIZE;
 739              		.loc 1 120 0
 740 0052 FFF7FEFF 		bl	eeprom_wait_standby_state
 741              	.LVL96:
 121:C:/Users/49542/Desktop/GD32F30x_Demo_Suites_V2.0.0/GD32F30x_Demo_Suites_V2.0.0/BearPi-IoT_GD32F303_Demo_Suites/Projects/13_I2C_EEPROM/Soft_Drive\at24cxx.c ****             p_buffer += I2C_PAGE_SIZE;
 742              		.loc 1 121 0
 743 0056 0834     		adds	r4, r4, #8
 744              	.LVL97:
 745 0058 E4B2     		uxtb	r4, r4
 746              	.LVL98:
 122:C:/Users/49542/Desktop/GD32F30x_Demo_Suites_V2.0.0/GD32F30x_Demo_Suites_V2.0.0/BearPi-IoT_GD32F303_Demo_Suites/Projects/13_I2C_EEPROM/Soft_Drive\at24cxx.c ****         }
 747              		.loc 1 122 0
 748 005a 0835     		adds	r5, r5, #8
 749              	.LVL99:
 118:C:/Users/49542/Desktop/GD32F30x_Demo_Suites_V2.0.0/GD32F30x_Demo_Suites_V2.0.0/BearPi-IoT_GD32F303_Demo_Suites/Projects/13_I2C_EEPROM/Soft_Drive\at24cxx.c ****             eeprom_page_write(p_buffer, write_address, I2C_PAGE_SIZE); 
 750              		.loc 1 118 0
 751 005c 3146     		mov	r1, r6
 752              	.LVL100:
 753              	.L66:
 754 005e 4B1E     		subs	r3, r1, #1
 755 0060 DEB2     		uxtb	r6, r3
 756              	.LVL101:
ARM GAS  C:\Users\49542\AppData\Local\Temp\ccsfhkzv.s 			page 22


 757 0062 0029     		cmp	r1, #0
 758 0064 F0D1     		bne	.L68
 124:C:/Users/49542/Desktop/GD32F30x_Demo_Suites_V2.0.0/GD32F30x_Demo_Suites_V2.0.0/BearPi-IoT_GD32F303_Demo_Suites/Projects/13_I2C_EEPROM/Soft_Drive\at24cxx.c ****             eeprom_page_write(p_buffer, write_address, number_of_single);
 759              		.loc 1 124 0
 760 0066 0FB9     		cbnz	r7, .L78
 761              	.LVL102:
 762              	.L65:
 158:C:/Users/49542/Desktop/GD32F30x_Demo_Suites_V2.0.0/GD32F30x_Demo_Suites_V2.0.0/BearPi-IoT_GD32F303_Demo_Suites/Projects/13_I2C_EEPROM/Soft_Drive\at24cxx.c **** 
 763              		.loc 1 158 0
 764 0068 BDE8F081 		pop	{r4, r5, r6, r7, r8, pc}
 765              	.LVL103:
 766              	.L78:
 125:C:/Users/49542/Desktop/GD32F30x_Demo_Suites_V2.0.0/GD32F30x_Demo_Suites_V2.0.0/BearPi-IoT_GD32F303_Demo_Suites/Projects/13_I2C_EEPROM/Soft_Drive\at24cxx.c ****             eeprom_wait_standby_state();
 767              		.loc 1 125 0
 768 006c 3A46     		mov	r2, r7
 769 006e 2146     		mov	r1, r4
 770 0070 2846     		mov	r0, r5
 771 0072 FFF7FEFF 		bl	eeprom_page_write
 772              	.LVL104:
 126:C:/Users/49542/Desktop/GD32F30x_Demo_Suites_V2.0.0/GD32F30x_Demo_Suites_V2.0.0/BearPi-IoT_GD32F303_Demo_Suites/Projects/13_I2C_EEPROM/Soft_Drive\at24cxx.c ****         }      
 773              		.loc 1 126 0
 774 0076 FFF7FEFF 		bl	eeprom_wait_standby_state
 775              	.LVL105:
 776 007a F5E7     		b	.L65
 777              	.LVL106:
 778              	.L77:
 131:C:/Users/49542/Desktop/GD32F30x_Demo_Suites_V2.0.0/GD32F30x_Demo_Suites_V2.0.0/BearPi-IoT_GD32F303_Demo_Suites/Projects/13_I2C_EEPROM/Soft_Drive\at24cxx.c ****             eeprom_wait_standby_state();
 779              		.loc 1 131 0
 780 007c 0246     		mov	r2, r0
 781              	.LVL107:
 782 007e 2146     		mov	r1, r4
 783              	.LVL108:
 784 0080 2846     		mov	r0, r5
 785 0082 FFF7FEFF 		bl	eeprom_page_write
 786              	.LVL109:
 132:C:/Users/49542/Desktop/GD32F30x_Demo_Suites_V2.0.0/GD32F30x_Demo_Suites_V2.0.0/BearPi-IoT_GD32F303_Demo_Suites/Projects/13_I2C_EEPROM/Soft_Drive\at24cxx.c ****         }else{
 787              		.loc 1 132 0
 788 0086 FFF7FEFF 		bl	eeprom_wait_standby_state
 789              	.LVL110:
 790 008a EDE7     		b	.L65
 791              	.LVL111:
 792              	.L73:
 146:C:/Users/49542/Desktop/GD32F30x_Demo_Suites_V2.0.0/GD32F30x_Demo_Suites_V2.0.0/BearPi-IoT_GD32F303_Demo_Suites/Projects/13_I2C_EEPROM/Soft_Drive\at24cxx.c ****                 eeprom_wait_standby_state();
 793              		.loc 1 146 0
 794 008c 0822     		movs	r2, #8
 795 008e 2146     		mov	r1, r4
 796 0090 2846     		mov	r0, r5
 797 0092 FFF7FEFF 		bl	eeprom_page_write
 798              	.LVL112:
 147:C:/Users/49542/Desktop/GD32F30x_Demo_Suites_V2.0.0/GD32F30x_Demo_Suites_V2.0.0/BearPi-IoT_GD32F303_Demo_Suites/Projects/13_I2C_EEPROM/Soft_Drive\at24cxx.c ****                 write_address +=  I2C_PAGE_SIZE;
 799              		.loc 1 147 0
 800 0096 FFF7FEFF 		bl	eeprom_wait_standby_state
 801              	.LVL113:
 148:C:/Users/49542/Desktop/GD32F30x_Demo_Suites_V2.0.0/GD32F30x_Demo_Suites_V2.0.0/BearPi-IoT_GD32F303_Demo_Suites/Projects/13_I2C_EEPROM/Soft_Drive\at24cxx.c ****                 p_buffer += I2C_PAGE_SIZE;
 802              		.loc 1 148 0
 803 009a 0834     		adds	r4, r4, #8
 804              	.LVL114:
ARM GAS  C:\Users\49542\AppData\Local\Temp\ccsfhkzv.s 			page 23


 805 009c E4B2     		uxtb	r4, r4
 806              	.LVL115:
 149:C:/Users/49542/Desktop/GD32F30x_Demo_Suites_V2.0.0/GD32F30x_Demo_Suites_V2.0.0/BearPi-IoT_GD32F303_Demo_Suites/Projects/13_I2C_EEPROM/Soft_Drive\at24cxx.c ****             }
 807              		.loc 1 149 0
 808 009e 0835     		adds	r5, r5, #8
 809              	.LVL116:
 145:C:/Users/49542/Desktop/GD32F30x_Demo_Suites_V2.0.0/GD32F30x_Demo_Suites_V2.0.0/BearPi-IoT_GD32F303_Demo_Suites/Projects/13_I2C_EEPROM/Soft_Drive\at24cxx.c ****                 eeprom_page_write(p_buffer, write_address, I2C_PAGE_SIZE);
 810              		.loc 1 145 0
 811 00a0 3746     		mov	r7, r6
 812              	.LVL117:
 813              	.L72:
 814 00a2 7B1E     		subs	r3, r7, #1
 815 00a4 DEB2     		uxtb	r6, r3
 816              	.LVL118:
 817 00a6 002F     		cmp	r7, #0
 818 00a8 F0D1     		bne	.L73
 152:C:/Users/49542/Desktop/GD32F30x_Demo_Suites_V2.0.0/GD32F30x_Demo_Suites_V2.0.0/BearPi-IoT_GD32F303_Demo_Suites/Projects/13_I2C_EEPROM/Soft_Drive\at24cxx.c ****                 eeprom_page_write(p_buffer, write_address, number_of_single); 
 819              		.loc 1 152 0
 820 00aa B8F1000F 		cmp	r8, #0
 821 00ae DBD0     		beq	.L65
 153:C:/Users/49542/Desktop/GD32F30x_Demo_Suites_V2.0.0/GD32F30x_Demo_Suites_V2.0.0/BearPi-IoT_GD32F303_Demo_Suites/Projects/13_I2C_EEPROM/Soft_Drive\at24cxx.c ****                 eeprom_wait_standby_state();
 822              		.loc 1 153 0
 823 00b0 4246     		mov	r2, r8
 824 00b2 2146     		mov	r1, r4
 825 00b4 2846     		mov	r0, r5
 826 00b6 FFF7FEFF 		bl	eeprom_page_write
 827              	.LVL119:
 154:C:/Users/49542/Desktop/GD32F30x_Demo_Suites_V2.0.0/GD32F30x_Demo_Suites_V2.0.0/BearPi-IoT_GD32F303_Demo_Suites/Projects/13_I2C_EEPROM/Soft_Drive\at24cxx.c ****             }
 828              		.loc 1 154 0
 829 00ba FFF7FEFF 		bl	eeprom_wait_standby_state
 830              	.LVL120:
 158:C:/Users/49542/Desktop/GD32F30x_Demo_Suites_V2.0.0/GD32F30x_Demo_Suites_V2.0.0/BearPi-IoT_GD32F303_Demo_Suites/Projects/13_I2C_EEPROM/Soft_Drive\at24cxx.c **** 
 831              		.loc 1 158 0
 832 00be D3E7     		b	.L65
 833              		.cfi_endproc
 834              	.LFE121:
 836              		.section	.text.i2c_24c02_test,"ax",%progbits
 837              		.align	1
 838              		.global	i2c_24c02_test
 839              		.syntax unified
 840              		.thumb
 841              		.thumb_func
 842              		.fpu fpv4-sp-d16
 844              	i2c_24c02_test:
 845              	.LFB119:
  52:C:/Users/49542/Desktop/GD32F30x_Demo_Suites_V2.0.0/GD32F30x_Demo_Suites_V2.0.0/BearPi-IoT_GD32F303_Demo_Suites/Projects/13_I2C_EEPROM/Soft_Drive\at24cxx.c ****     uint16_t i;
 846              		.loc 1 52 0
 847              		.cfi_startproc
 848              		@ args = 0, pretend = 0, frame = 512
 849              		@ frame_needed = 0, uses_anonymous_args = 0
 850 0000 10B5     		push	{r4, lr}
 851              	.LCFI7:
 852              		.cfi_def_cfa_offset 8
 853              		.cfi_offset 4, -8
 854              		.cfi_offset 14, -4
 855 0002 ADF5007D 		sub	sp, sp, #512
 856              	.LCFI8:
ARM GAS  C:\Users\49542\AppData\Local\Temp\ccsfhkzv.s 			page 24


 857              		.cfi_def_cfa_offset 520
  57:C:/Users/49542/Desktop/GD32F30x_Demo_Suites_V2.0.0/GD32F30x_Demo_Suites_V2.0.0/BearPi-IoT_GD32F303_Demo_Suites/Projects/13_I2C_EEPROM/Soft_Drive\at24cxx.c ****     
 858              		.loc 1 57 0
 859 0006 2648     		ldr	r0, .L92
 860 0008 FFF7FEFF 		bl	puts
 861              	.LVL121:
  60:C:/Users/49542/Desktop/GD32F30x_Demo_Suites_V2.0.0/GD32F30x_Demo_Suites_V2.0.0/BearPi-IoT_GD32F303_Demo_Suites/Projects/13_I2C_EEPROM/Soft_Drive\at24cxx.c ****         i2c_buffer_write[i]=i;
 862              		.loc 1 60 0
 863 000c 0024     		movs	r4, #0
 864 000e 01E0     		b	.L80
 865              	.LVL122:
 866              	.L81:
  60:C:/Users/49542/Desktop/GD32F30x_Demo_Suites_V2.0.0/GD32F30x_Demo_Suites_V2.0.0/BearPi-IoT_GD32F303_Demo_Suites/Projects/13_I2C_EEPROM/Soft_Drive\at24cxx.c ****         i2c_buffer_write[i]=i;
 867              		.loc 1 60 0 is_stmt 0 discriminator 2
 868 0010 0134     		adds	r4, r4, #1
 869              	.LVL123:
 870 0012 A4B2     		uxth	r4, r4
 871              	.LVL124:
 872              	.L80:
  60:C:/Users/49542/Desktop/GD32F30x_Demo_Suites_V2.0.0/GD32F30x_Demo_Suites_V2.0.0/BearPi-IoT_GD32F303_Demo_Suites/Projects/13_I2C_EEPROM/Soft_Drive\at24cxx.c ****         i2c_buffer_write[i]=i;
 873              		.loc 1 60 0 discriminator 1
 874 0014 FF2C     		cmp	r4, #255
 875 0016 0DD8     		bhi	.L89
  61:C:/Users/49542/Desktop/GD32F30x_Demo_Suites_V2.0.0/GD32F30x_Demo_Suites_V2.0.0/BearPi-IoT_GD32F303_Demo_Suites/Projects/13_I2C_EEPROM/Soft_Drive\at24cxx.c ****         printf("0x%02X ",i2c_buffer_write[i]);
 876              		.loc 1 61 0 is_stmt 1
 877 0018 E1B2     		uxtb	r1, r4
 878 001a 40AB     		add	r3, sp, #256
 879 001c 1955     		strb	r1, [r3, r4]
  62:C:/Users/49542/Desktop/GD32F30x_Demo_Suites_V2.0.0/GD32F30x_Demo_Suites_V2.0.0/BearPi-IoT_GD32F303_Demo_Suites/Projects/13_I2C_EEPROM/Soft_Drive\at24cxx.c ****         if(15 == i%16){
 880              		.loc 1 62 0
 881 001e 2148     		ldr	r0, .L92+4
 882 0020 FFF7FEFF 		bl	printf
 883              	.LVL125:
  63:C:/Users/49542/Desktop/GD32F30x_Demo_Suites_V2.0.0/GD32F30x_Demo_Suites_V2.0.0/BearPi-IoT_GD32F303_Demo_Suites/Projects/13_I2C_EEPROM/Soft_Drive\at24cxx.c ****             printf("\r\n");
 884              		.loc 1 63 0
 885 0024 04F00F03 		and	r3, r4, #15
 886 0028 0F2B     		cmp	r3, #15
 887 002a F1D1     		bne	.L81
  64:C:/Users/49542/Desktop/GD32F30x_Demo_Suites_V2.0.0/GD32F30x_Demo_Suites_V2.0.0/BearPi-IoT_GD32F303_Demo_Suites/Projects/13_I2C_EEPROM/Soft_Drive\at24cxx.c ****         }
 888              		.loc 1 64 0
 889 002c 1E48     		ldr	r0, .L92+8
 890 002e FFF7FEFF 		bl	puts
 891              	.LVL126:
 892 0032 EDE7     		b	.L81
 893              	.L89:
  68:C:/Users/49542/Desktop/GD32F30x_Demo_Suites_V2.0.0/GD32F30x_Demo_Suites_V2.0.0/BearPi-IoT_GD32F303_Demo_Suites/Projects/13_I2C_EEPROM/Soft_Drive\at24cxx.c ****     printf("AT24C02 reading...\r\n");
 894              		.loc 1 68 0
 895 0034 4FF48072 		mov	r2, #256
 896 0038 0021     		movs	r1, #0
 897 003a 0DEB0200 		add	r0, sp, r2
 898 003e FFF7FEFF 		bl	eeprom_buffer_write
 899              	.LVL127:
  69:C:/Users/49542/Desktop/GD32F30x_Demo_Suites_V2.0.0/GD32F30x_Demo_Suites_V2.0.0/BearPi-IoT_GD32F303_Demo_Suites/Projects/13_I2C_EEPROM/Soft_Drive\at24cxx.c ****     /* EEPROM data read */
 900              		.loc 1 69 0
 901 0042 1A48     		ldr	r0, .L92+12
 902 0044 FFF7FEFF 		bl	puts
 903              	.LVL128:
ARM GAS  C:\Users\49542\AppData\Local\Temp\ccsfhkzv.s 			page 25


  71:C:/Users/49542/Desktop/GD32F30x_Demo_Suites_V2.0.0/GD32F30x_Demo_Suites_V2.0.0/BearPi-IoT_GD32F303_Demo_Suites/Projects/13_I2C_EEPROM/Soft_Drive\at24cxx.c ****     /* compare the read buffer and write buffer */
 904              		.loc 1 71 0
 905 0048 4FF48072 		mov	r2, #256
 906 004c 0021     		movs	r1, #0
 907 004e 6846     		mov	r0, sp
 908 0050 FFF7FEFF 		bl	eeprom_buffer_read
 909              	.LVL129:
  73:C:/Users/49542/Desktop/GD32F30x_Demo_Suites_V2.0.0/GD32F30x_Demo_Suites_V2.0.0/BearPi-IoT_GD32F303_Demo_Suites/Projects/13_I2C_EEPROM/Soft_Drive\at24cxx.c ****         if(i2c_buffer_read[i] != i2c_buffer_write[i]){
 910              		.loc 1 73 0
 911 0054 0024     		movs	r4, #0
 912 0056 0BE0     		b	.L83
 913              	.LVL130:
 914              	.L91:
  75:C:/Users/49542/Desktop/GD32F30x_Demo_Suites_V2.0.0/GD32F30x_Demo_Suites_V2.0.0/BearPi-IoT_GD32F303_Demo_Suites/Projects/13_I2C_EEPROM/Soft_Drive\at24cxx.c ****             printf("Err:data read and write aren't matching.\n\r");
 915              		.loc 1 75 0
 916 0058 1248     		ldr	r0, .L92+4
 917 005a FFF7FEFF 		bl	printf
 918              	.LVL131:
  76:C:/Users/49542/Desktop/GD32F30x_Demo_Suites_V2.0.0/GD32F30x_Demo_Suites_V2.0.0/BearPi-IoT_GD32F303_Demo_Suites/Projects/13_I2C_EEPROM/Soft_Drive\at24cxx.c ****             return I2C_FAIL;
 919              		.loc 1 76 0
 920 005e 1448     		ldr	r0, .L92+16
 921 0060 FFF7FEFF 		bl	printf
 922              	.LVL132:
  77:C:/Users/49542/Desktop/GD32F30x_Demo_Suites_V2.0.0/GD32F30x_Demo_Suites_V2.0.0/BearPi-IoT_GD32F303_Demo_Suites/Projects/13_I2C_EEPROM/Soft_Drive\at24cxx.c ****         }
 923              		.loc 1 77 0
 924 0064 0120     		movs	r0, #1
 925              	.L85:
  86:C:/Users/49542/Desktop/GD32F30x_Demo_Suites_V2.0.0/GD32F30x_Demo_Suites_V2.0.0/BearPi-IoT_GD32F303_Demo_Suites/Projects/13_I2C_EEPROM/Soft_Drive\at24cxx.c **** 
 926              		.loc 1 86 0
 927 0066 0DF5007D 		add	sp, sp, #512
 928              	.LCFI9:
 929              		.cfi_remember_state
 930              		.cfi_def_cfa_offset 8
 931              		@ sp needed
 932 006a 10BD     		pop	{r4, pc}
 933              	.LVL133:
 934              	.L86:
 935              	.LCFI10:
 936              		.cfi_restore_state
  73:C:/Users/49542/Desktop/GD32F30x_Demo_Suites_V2.0.0/GD32F30x_Demo_Suites_V2.0.0/BearPi-IoT_GD32F303_Demo_Suites/Projects/13_I2C_EEPROM/Soft_Drive\at24cxx.c ****         if(i2c_buffer_read[i] != i2c_buffer_write[i]){
 937              		.loc 1 73 0 discriminator 2
 938 006c 0134     		adds	r4, r4, #1
 939              	.LVL134:
 940 006e A4B2     		uxth	r4, r4
 941              	.LVL135:
 942              	.L83:
  73:C:/Users/49542/Desktop/GD32F30x_Demo_Suites_V2.0.0/GD32F30x_Demo_Suites_V2.0.0/BearPi-IoT_GD32F303_Demo_Suites/Projects/13_I2C_EEPROM/Soft_Drive\at24cxx.c ****         if(i2c_buffer_read[i] != i2c_buffer_write[i]){
 943              		.loc 1 73 0 is_stmt 0 discriminator 1
 944 0070 FF2C     		cmp	r4, #255
 945 0072 10D8     		bhi	.L90
  74:C:/Users/49542/Desktop/GD32F30x_Demo_Suites_V2.0.0/GD32F30x_Demo_Suites_V2.0.0/BearPi-IoT_GD32F303_Demo_Suites/Projects/13_I2C_EEPROM/Soft_Drive\at24cxx.c ****             printf("0x%02X ", i2c_buffer_read[i]);
 946              		.loc 1 74 0 is_stmt 1
 947 0074 1DF80410 		ldrb	r1, [sp, r4]	@ zero_extendqisi2
 948 0078 40AB     		add	r3, sp, #256
 949 007a 1B5D     		ldrb	r3, [r3, r4]	@ zero_extendqisi2
 950 007c 9942     		cmp	r1, r3
 951 007e EBD1     		bne	.L91
ARM GAS  C:\Users\49542\AppData\Local\Temp\ccsfhkzv.s 			page 26


  79:C:/Users/49542/Desktop/GD32F30x_Demo_Suites_V2.0.0/GD32F30x_Demo_Suites_V2.0.0/BearPi-IoT_GD32F303_Demo_Suites/Projects/13_I2C_EEPROM/Soft_Drive\at24cxx.c ****         if(15 == i%16){
 952              		.loc 1 79 0
 953 0080 0848     		ldr	r0, .L92+4
 954 0082 FFF7FEFF 		bl	printf
 955              	.LVL136:
  80:C:/Users/49542/Desktop/GD32F30x_Demo_Suites_V2.0.0/GD32F30x_Demo_Suites_V2.0.0/BearPi-IoT_GD32F303_Demo_Suites/Projects/13_I2C_EEPROM/Soft_Drive\at24cxx.c ****             printf("\r\n");
 956              		.loc 1 80 0
 957 0086 04F00F03 		and	r3, r4, #15
 958 008a 0F2B     		cmp	r3, #15
 959 008c EED1     		bne	.L86
  81:C:/Users/49542/Desktop/GD32F30x_Demo_Suites_V2.0.0/GD32F30x_Demo_Suites_V2.0.0/BearPi-IoT_GD32F303_Demo_Suites/Projects/13_I2C_EEPROM/Soft_Drive\at24cxx.c ****         }
 960              		.loc 1 81 0
 961 008e 0648     		ldr	r0, .L92+8
 962 0090 FFF7FEFF 		bl	puts
 963              	.LVL137:
 964 0094 EAE7     		b	.L86
 965              	.L90:
  84:C:/Users/49542/Desktop/GD32F30x_Demo_Suites_V2.0.0/GD32F30x_Demo_Suites_V2.0.0/BearPi-IoT_GD32F303_Demo_Suites/Projects/13_I2C_EEPROM/Soft_Drive\at24cxx.c ****     return I2C_OK;
 966              		.loc 1 84 0
 967 0096 0748     		ldr	r0, .L92+20
 968 0098 FFF7FEFF 		bl	printf
 969              	.LVL138:
  85:C:/Users/49542/Desktop/GD32F30x_Demo_Suites_V2.0.0/GD32F30x_Demo_Suites_V2.0.0/BearPi-IoT_GD32F303_Demo_Suites/Projects/13_I2C_EEPROM/Soft_Drive\at24cxx.c **** }
 970              		.loc 1 85 0
 971 009c 0020     		movs	r0, #0
 972 009e E2E7     		b	.L85
 973              	.L93:
 974              		.align	2
 975              	.L92:
 976 00a0 00000000 		.word	.LC0
 977 00a4 18000000 		.word	.LC1
 978 00a8 20000000 		.word	.LC2
 979 00ac 24000000 		.word	.LC3
 980 00b0 38000000 		.word	.LC4
 981 00b4 64000000 		.word	.LC5
 982              		.cfi_endproc
 983              	.LFE119:
 985              		.comm	eeprom_address,2,2
 986              		.section	.rodata.i2c_24c02_test.str1.4,"aMS",%progbits,1
 987              		.align	2
 988              	.LC0:
 989 0000 0D0A4154 		.ascii	"\015\012AT24C02 writing...\015\000"
 989      32344330 
 989      32207772 
 989      6974696E 
 989      672E2E2E 
 990 0016 0000     		.space	2
 991              	.LC1:
 992 0018 30782530 		.ascii	"0x%02X \000"
 992      32582000 
 993              	.LC2:
 994 0020 0D00     		.ascii	"\015\000"
 995 0022 0000     		.space	2
 996              	.LC3:
 997 0024 41543234 		.ascii	"AT24C02 reading...\015\000"
 997      43303220 
 997      72656164 
ARM GAS  C:\Users\49542\AppData\Local\Temp\ccsfhkzv.s 			page 27


 997      696E672E 
 997      2E2E0D00 
 998              	.LC4:
 999 0038 4572723A 		.ascii	"Err:data read and write aren't matching.\012\015\000"
 999      64617461 
 999      20726561 
 999      6420616E 
 999      64207772 
 1000 0063 00       		.space	1
 1001              	.LC5:
 1002 0064 4932432D 		.ascii	"I2C-AT24C02 test passed!\012\015\000"
 1002      41543234 
 1002      43303220 
 1002      74657374 
 1002      20706173 
 1003              		.text
 1004              	.Letext0:
 1005              		.file 2 "c:\\users\\49542\\opensourcetools\\gnu tools arm embedded\\7 2018-q2-update\\arm-none-eab
 1006              		.file 3 "c:\\users\\49542\\opensourcetools\\gnu tools arm embedded\\7 2018-q2-update\\arm-none-eab
 1007              		.file 4 "C:/Users/49542/Desktop/GD32F30x_Demo_Suites_V2.0.0/GD32F30x_Demo_Suites_V2.0.0/GD32F30x_F
 1008              		.file 5 "C:/Users/49542/Desktop/GD32F30x_Demo_Suites_V2.0.0/GD32F30x_Demo_Suites_V2.0.0/GD32F30x_F
 1009              		.file 6 "C:/Users/49542/Desktop/GD32F30x_Demo_Suites_V2.0.0/GD32F30x_Demo_Suites_V2.0.0/GD32F30x_F
 1010              		.file 7 "C:/Users/49542/Desktop/GD32F30x_Demo_Suites_V2.0.0/GD32F30x_Demo_Suites_V2.0.0/GD32F30x_F
 1011              		.file 8 "c:\\users\\49542\\opensourcetools\\gnu tools arm embedded\\7 2018-q2-update\\arm-none-eab
 1012              		.file 9 "c:\\users\\49542\\opensourcetools\\gnu tools arm embedded\\7 2018-q2-update\\arm-none-eab
 1013              		.file 10 "c:\\users\\49542\\opensourcetools\\gnu tools arm embedded\\7 2018-q2-update\\lib\\gcc\\a
 1014              		.file 11 "c:\\users\\49542\\opensourcetools\\gnu tools arm embedded\\7 2018-q2-update\\arm-none-ea
 1015              		.file 12 "c:\\users\\49542\\opensourcetools\\gnu tools arm embedded\\7 2018-q2-update\\arm-none-ea
 1016              		.file 13 "C:/Users/49542/Desktop/GD32F30x_Demo_Suites_V2.0.0/GD32F30x_Demo_Suites_V2.0.0/GD32F30x_
 1017              		.file 14 "<built-in>"
ARM GAS  C:\Users\49542\AppData\Local\Temp\ccsfhkzv.s 			page 28

