ARM GAS  C:\Users\49542\AppData\Local\Temp\ccjbbij1.s 			page 1


   1              		.cpu cortex-m4
   2              		.eabi_attribute 27, 1
   3              		.eabi_attribute 28, 1
   4              		.eabi_attribute 20, 1
   5              		.eabi_attribute 21, 1
   6              		.eabi_attribute 23, 3
   7              		.eabi_attribute 24, 1
   8              		.eabi_attribute 25, 1
   9              		.eabi_attribute 26, 1
  10              		.eabi_attribute 30, 1
  11              		.eabi_attribute 34, 1
  12              		.eabi_attribute 18, 4
  13              		.file	"gd32f30x_wwdgt.c"
  14              		.text
  15              	.Ltext0:
  16              		.cfi_sections	.debug_frame
  17              		.section	.text.wwdgt_deinit,"ax",%progbits
  18              		.align	1
  19              		.global	wwdgt_deinit
  20              		.syntax unified
  21              		.thumb
  22              		.thumb_func
  23              		.fpu fpv4-sp-d16
  25              	wwdgt_deinit:
  26              	.LFB116:
  27              		.file 1 "C:/Users/49542/Desktop/GD32F30x_Demo_Suites_V2.0.0/GD32F30x_Demo_Suites_V2.0.0/GD32F30x_F
   1:C:/Users/49542/Desktop/GD32F30x_Demo_Suites_V2.0.0/GD32F30x_Demo_Suites_V2.0.0/GD32F30x_Firmware_Library/GD32F30x_standard_peripheral/Source\gd32f30x_wwdgt.c **** /*!
   2:C:/Users/49542/Desktop/GD32F30x_Demo_Suites_V2.0.0/GD32F30x_Demo_Suites_V2.0.0/GD32F30x_Firmware_Library/GD32F30x_standard_peripheral/Source\gd32f30x_wwdgt.c ****     \file  gd32f30x_wwdgt.c
   3:C:/Users/49542/Desktop/GD32F30x_Demo_Suites_V2.0.0/GD32F30x_Demo_Suites_V2.0.0/GD32F30x_Firmware_Library/GD32F30x_standard_peripheral/Source\gd32f30x_wwdgt.c ****     \brief WWDGT driver
   4:C:/Users/49542/Desktop/GD32F30x_Demo_Suites_V2.0.0/GD32F30x_Demo_Suites_V2.0.0/GD32F30x_Firmware_Library/GD32F30x_standard_peripheral/Source\gd32f30x_wwdgt.c **** 
   5:C:/Users/49542/Desktop/GD32F30x_Demo_Suites_V2.0.0/GD32F30x_Demo_Suites_V2.0.0/GD32F30x_Firmware_Library/GD32F30x_standard_peripheral/Source\gd32f30x_wwdgt.c ****     \version 2017-02-10, V1.0.0, firmware for GD32F30x
   6:C:/Users/49542/Desktop/GD32F30x_Demo_Suites_V2.0.0/GD32F30x_Demo_Suites_V2.0.0/GD32F30x_Firmware_Library/GD32F30x_standard_peripheral/Source\gd32f30x_wwdgt.c ****     \version 2018-10-10, V1.1.0, firmware for GD32F30x
   7:C:/Users/49542/Desktop/GD32F30x_Demo_Suites_V2.0.0/GD32F30x_Demo_Suites_V2.0.0/GD32F30x_Firmware_Library/GD32F30x_standard_peripheral/Source\gd32f30x_wwdgt.c ****     \version 2018-12-25, V2.0.0, firmware for GD32F30x
   8:C:/Users/49542/Desktop/GD32F30x_Demo_Suites_V2.0.0/GD32F30x_Demo_Suites_V2.0.0/GD32F30x_Firmware_Library/GD32F30x_standard_peripheral/Source\gd32f30x_wwdgt.c **** */
   9:C:/Users/49542/Desktop/GD32F30x_Demo_Suites_V2.0.0/GD32F30x_Demo_Suites_V2.0.0/GD32F30x_Firmware_Library/GD32F30x_standard_peripheral/Source\gd32f30x_wwdgt.c **** 
  10:C:/Users/49542/Desktop/GD32F30x_Demo_Suites_V2.0.0/GD32F30x_Demo_Suites_V2.0.0/GD32F30x_Firmware_Library/GD32F30x_standard_peripheral/Source\gd32f30x_wwdgt.c **** /*
  11:C:/Users/49542/Desktop/GD32F30x_Demo_Suites_V2.0.0/GD32F30x_Demo_Suites_V2.0.0/GD32F30x_Firmware_Library/GD32F30x_standard_peripheral/Source\gd32f30x_wwdgt.c ****     Copyright (c) 2018, GigaDevice Semiconductor Inc.
  12:C:/Users/49542/Desktop/GD32F30x_Demo_Suites_V2.0.0/GD32F30x_Demo_Suites_V2.0.0/GD32F30x_Firmware_Library/GD32F30x_standard_peripheral/Source\gd32f30x_wwdgt.c **** 
  13:C:/Users/49542/Desktop/GD32F30x_Demo_Suites_V2.0.0/GD32F30x_Demo_Suites_V2.0.0/GD32F30x_Firmware_Library/GD32F30x_standard_peripheral/Source\gd32f30x_wwdgt.c ****     All rights reserved.
  14:C:/Users/49542/Desktop/GD32F30x_Demo_Suites_V2.0.0/GD32F30x_Demo_Suites_V2.0.0/GD32F30x_Firmware_Library/GD32F30x_standard_peripheral/Source\gd32f30x_wwdgt.c **** 
  15:C:/Users/49542/Desktop/GD32F30x_Demo_Suites_V2.0.0/GD32F30x_Demo_Suites_V2.0.0/GD32F30x_Firmware_Library/GD32F30x_standard_peripheral/Source\gd32f30x_wwdgt.c ****     Redistribution and use in source and binary forms, with or without modification, 
  16:C:/Users/49542/Desktop/GD32F30x_Demo_Suites_V2.0.0/GD32F30x_Demo_Suites_V2.0.0/GD32F30x_Firmware_Library/GD32F30x_standard_peripheral/Source\gd32f30x_wwdgt.c **** are permitted provided that the following conditions are met:
  17:C:/Users/49542/Desktop/GD32F30x_Demo_Suites_V2.0.0/GD32F30x_Demo_Suites_V2.0.0/GD32F30x_Firmware_Library/GD32F30x_standard_peripheral/Source\gd32f30x_wwdgt.c **** 
  18:C:/Users/49542/Desktop/GD32F30x_Demo_Suites_V2.0.0/GD32F30x_Demo_Suites_V2.0.0/GD32F30x_Firmware_Library/GD32F30x_standard_peripheral/Source\gd32f30x_wwdgt.c ****     1. Redistributions of source code must retain the above copyright notice, this 
  19:C:/Users/49542/Desktop/GD32F30x_Demo_Suites_V2.0.0/GD32F30x_Demo_Suites_V2.0.0/GD32F30x_Firmware_Library/GD32F30x_standard_peripheral/Source\gd32f30x_wwdgt.c ****        list of conditions and the following disclaimer.
  20:C:/Users/49542/Desktop/GD32F30x_Demo_Suites_V2.0.0/GD32F30x_Demo_Suites_V2.0.0/GD32F30x_Firmware_Library/GD32F30x_standard_peripheral/Source\gd32f30x_wwdgt.c ****     2. Redistributions in binary form must reproduce the above copyright notice, 
  21:C:/Users/49542/Desktop/GD32F30x_Demo_Suites_V2.0.0/GD32F30x_Demo_Suites_V2.0.0/GD32F30x_Firmware_Library/GD32F30x_standard_peripheral/Source\gd32f30x_wwdgt.c ****        this list of conditions and the following disclaimer in the documentation 
  22:C:/Users/49542/Desktop/GD32F30x_Demo_Suites_V2.0.0/GD32F30x_Demo_Suites_V2.0.0/GD32F30x_Firmware_Library/GD32F30x_standard_peripheral/Source\gd32f30x_wwdgt.c ****        and/or other materials provided with the distribution.
  23:C:/Users/49542/Desktop/GD32F30x_Demo_Suites_V2.0.0/GD32F30x_Demo_Suites_V2.0.0/GD32F30x_Firmware_Library/GD32F30x_standard_peripheral/Source\gd32f30x_wwdgt.c ****     3. Neither the name of the copyright holder nor the names of its contributors 
  24:C:/Users/49542/Desktop/GD32F30x_Demo_Suites_V2.0.0/GD32F30x_Demo_Suites_V2.0.0/GD32F30x_Firmware_Library/GD32F30x_standard_peripheral/Source\gd32f30x_wwdgt.c ****        may be used to endorse or promote products derived from this software without 
  25:C:/Users/49542/Desktop/GD32F30x_Demo_Suites_V2.0.0/GD32F30x_Demo_Suites_V2.0.0/GD32F30x_Firmware_Library/GD32F30x_standard_peripheral/Source\gd32f30x_wwdgt.c ****        specific prior written permission.
  26:C:/Users/49542/Desktop/GD32F30x_Demo_Suites_V2.0.0/GD32F30x_Demo_Suites_V2.0.0/GD32F30x_Firmware_Library/GD32F30x_standard_peripheral/Source\gd32f30x_wwdgt.c **** 
  27:C:/Users/49542/Desktop/GD32F30x_Demo_Suites_V2.0.0/GD32F30x_Demo_Suites_V2.0.0/GD32F30x_Firmware_Library/GD32F30x_standard_peripheral/Source\gd32f30x_wwdgt.c ****     THIS SOFTWARE IS PROVIDED BY THE COPYRIGHT HOLDERS AND CONTRIBUTORS "AS IS" 
  28:C:/Users/49542/Desktop/GD32F30x_Demo_Suites_V2.0.0/GD32F30x_Demo_Suites_V2.0.0/GD32F30x_Firmware_Library/GD32F30x_standard_peripheral/Source\gd32f30x_wwdgt.c **** AND ANY EXPRESS OR IMPLIED WARRANTIES, INCLUDING, BUT NOT LIMITED TO, THE IMPLIED 
  29:C:/Users/49542/Desktop/GD32F30x_Demo_Suites_V2.0.0/GD32F30x_Demo_Suites_V2.0.0/GD32F30x_Firmware_Library/GD32F30x_standard_peripheral/Source\gd32f30x_wwdgt.c **** WARRANTIES OF MERCHANTABILITY AND FITNESS FOR A PARTICULAR PURPOSE ARE DISCLAIMED. 
  30:C:/Users/49542/Desktop/GD32F30x_Demo_Suites_V2.0.0/GD32F30x_Demo_Suites_V2.0.0/GD32F30x_Firmware_Library/GD32F30x_standard_peripheral/Source\gd32f30x_wwdgt.c **** IN NO EVENT SHALL THE COPYRIGHT HOLDER OR CONTRIBUTORS BE LIABLE FOR ANY DIRECT, 
  31:C:/Users/49542/Desktop/GD32F30x_Demo_Suites_V2.0.0/GD32F30x_Demo_Suites_V2.0.0/GD32F30x_Firmware_Library/GD32F30x_standard_peripheral/Source\gd32f30x_wwdgt.c **** INDIRECT, INCIDENTAL, SPECIAL, EXEMPLARY, OR CONSEQUENTIAL DAMAGES (INCLUDING, BUT 
ARM GAS  C:\Users\49542\AppData\Local\Temp\ccjbbij1.s 			page 2


  32:C:/Users/49542/Desktop/GD32F30x_Demo_Suites_V2.0.0/GD32F30x_Demo_Suites_V2.0.0/GD32F30x_Firmware_Library/GD32F30x_standard_peripheral/Source\gd32f30x_wwdgt.c **** NOT LIMITED TO, PROCUREMENT OF SUBSTITUTE GOODS OR SERVICES; LOSS OF USE, DATA, OR 
  33:C:/Users/49542/Desktop/GD32F30x_Demo_Suites_V2.0.0/GD32F30x_Demo_Suites_V2.0.0/GD32F30x_Firmware_Library/GD32F30x_standard_peripheral/Source\gd32f30x_wwdgt.c **** PROFITS; OR BUSINESS INTERRUPTION) HOWEVER CAUSED AND ON ANY THEORY OF LIABILITY, 
  34:C:/Users/49542/Desktop/GD32F30x_Demo_Suites_V2.0.0/GD32F30x_Demo_Suites_V2.0.0/GD32F30x_Firmware_Library/GD32F30x_standard_peripheral/Source\gd32f30x_wwdgt.c **** WHETHER IN CONTRACT, STRICT LIABILITY, OR TORT (INCLUDING NEGLIGENCE OR OTHERWISE) 
  35:C:/Users/49542/Desktop/GD32F30x_Demo_Suites_V2.0.0/GD32F30x_Demo_Suites_V2.0.0/GD32F30x_Firmware_Library/GD32F30x_standard_peripheral/Source\gd32f30x_wwdgt.c **** ARISING IN ANY WAY OUT OF THE USE OF THIS SOFTWARE, EVEN IF ADVISED OF THE POSSIBILITY 
  36:C:/Users/49542/Desktop/GD32F30x_Demo_Suites_V2.0.0/GD32F30x_Demo_Suites_V2.0.0/GD32F30x_Firmware_Library/GD32F30x_standard_peripheral/Source\gd32f30x_wwdgt.c **** OF SUCH DAMAGE.
  37:C:/Users/49542/Desktop/GD32F30x_Demo_Suites_V2.0.0/GD32F30x_Demo_Suites_V2.0.0/GD32F30x_Firmware_Library/GD32F30x_standard_peripheral/Source\gd32f30x_wwdgt.c **** */
  38:C:/Users/49542/Desktop/GD32F30x_Demo_Suites_V2.0.0/GD32F30x_Demo_Suites_V2.0.0/GD32F30x_Firmware_Library/GD32F30x_standard_peripheral/Source\gd32f30x_wwdgt.c **** 
  39:C:/Users/49542/Desktop/GD32F30x_Demo_Suites_V2.0.0/GD32F30x_Demo_Suites_V2.0.0/GD32F30x_Firmware_Library/GD32F30x_standard_peripheral/Source\gd32f30x_wwdgt.c **** #include "gd32f30x_wwdgt.h"
  40:C:/Users/49542/Desktop/GD32F30x_Demo_Suites_V2.0.0/GD32F30x_Demo_Suites_V2.0.0/GD32F30x_Firmware_Library/GD32F30x_standard_peripheral/Source\gd32f30x_wwdgt.c **** 
  41:C:/Users/49542/Desktop/GD32F30x_Demo_Suites_V2.0.0/GD32F30x_Demo_Suites_V2.0.0/GD32F30x_Firmware_Library/GD32F30x_standard_peripheral/Source\gd32f30x_wwdgt.c **** /* write value to WWDGT_CTL_CNT bit field */
  42:C:/Users/49542/Desktop/GD32F30x_Demo_Suites_V2.0.0/GD32F30x_Demo_Suites_V2.0.0/GD32F30x_Firmware_Library/GD32F30x_standard_peripheral/Source\gd32f30x_wwdgt.c **** #define CTL_CNT(regval)             (BITS(0,6) & ((uint32_t)(regval) << 0))
  43:C:/Users/49542/Desktop/GD32F30x_Demo_Suites_V2.0.0/GD32F30x_Demo_Suites_V2.0.0/GD32F30x_Firmware_Library/GD32F30x_standard_peripheral/Source\gd32f30x_wwdgt.c **** /* write value to WWDGT_CFG_WIN bit field */
  44:C:/Users/49542/Desktop/GD32F30x_Demo_Suites_V2.0.0/GD32F30x_Demo_Suites_V2.0.0/GD32F30x_Firmware_Library/GD32F30x_standard_peripheral/Source\gd32f30x_wwdgt.c **** #define CFG_WIN(regval)             (BITS(0,6) & ((uint32_t)(regval) << 0))
  45:C:/Users/49542/Desktop/GD32F30x_Demo_Suites_V2.0.0/GD32F30x_Demo_Suites_V2.0.0/GD32F30x_Firmware_Library/GD32F30x_standard_peripheral/Source\gd32f30x_wwdgt.c **** 
  46:C:/Users/49542/Desktop/GD32F30x_Demo_Suites_V2.0.0/GD32F30x_Demo_Suites_V2.0.0/GD32F30x_Firmware_Library/GD32F30x_standard_peripheral/Source\gd32f30x_wwdgt.c **** /*!
  47:C:/Users/49542/Desktop/GD32F30x_Demo_Suites_V2.0.0/GD32F30x_Demo_Suites_V2.0.0/GD32F30x_Firmware_Library/GD32F30x_standard_peripheral/Source\gd32f30x_wwdgt.c ****     \brief      reset the window watchdog timer configuration
  48:C:/Users/49542/Desktop/GD32F30x_Demo_Suites_V2.0.0/GD32F30x_Demo_Suites_V2.0.0/GD32F30x_Firmware_Library/GD32F30x_standard_peripheral/Source\gd32f30x_wwdgt.c ****     \param[in]  none
  49:C:/Users/49542/Desktop/GD32F30x_Demo_Suites_V2.0.0/GD32F30x_Demo_Suites_V2.0.0/GD32F30x_Firmware_Library/GD32F30x_standard_peripheral/Source\gd32f30x_wwdgt.c ****     \param[out] none
  50:C:/Users/49542/Desktop/GD32F30x_Demo_Suites_V2.0.0/GD32F30x_Demo_Suites_V2.0.0/GD32F30x_Firmware_Library/GD32F30x_standard_peripheral/Source\gd32f30x_wwdgt.c ****     \retval     none
  51:C:/Users/49542/Desktop/GD32F30x_Demo_Suites_V2.0.0/GD32F30x_Demo_Suites_V2.0.0/GD32F30x_Firmware_Library/GD32F30x_standard_peripheral/Source\gd32f30x_wwdgt.c **** */
  52:C:/Users/49542/Desktop/GD32F30x_Demo_Suites_V2.0.0/GD32F30x_Demo_Suites_V2.0.0/GD32F30x_Firmware_Library/GD32F30x_standard_peripheral/Source\gd32f30x_wwdgt.c **** void wwdgt_deinit(void)
  53:C:/Users/49542/Desktop/GD32F30x_Demo_Suites_V2.0.0/GD32F30x_Demo_Suites_V2.0.0/GD32F30x_Firmware_Library/GD32F30x_standard_peripheral/Source\gd32f30x_wwdgt.c **** {
  28              		.loc 1 53 0
  29              		.cfi_startproc
  30              		@ args = 0, pretend = 0, frame = 0
  31              		@ frame_needed = 0, uses_anonymous_args = 0
  32 0000 08B5     		push	{r3, lr}
  33              	.LCFI0:
  34              		.cfi_def_cfa_offset 8
  35              		.cfi_offset 3, -8
  36              		.cfi_offset 14, -4
  54:C:/Users/49542/Desktop/GD32F30x_Demo_Suites_V2.0.0/GD32F30x_Demo_Suites_V2.0.0/GD32F30x_Firmware_Library/GD32F30x_standard_peripheral/Source\gd32f30x_wwdgt.c ****     rcu_periph_reset_enable(RCU_WWDGTRST);
  37              		.loc 1 54 0
  38 0002 40F20B40 		movw	r0, #1035
  39 0006 FFF7FEFF 		bl	rcu_periph_reset_enable
  40              	.LVL0:
  55:C:/Users/49542/Desktop/GD32F30x_Demo_Suites_V2.0.0/GD32F30x_Demo_Suites_V2.0.0/GD32F30x_Firmware_Library/GD32F30x_standard_peripheral/Source\gd32f30x_wwdgt.c ****     rcu_periph_reset_disable(RCU_WWDGTRST);
  41              		.loc 1 55 0
  42 000a 40F20B40 		movw	r0, #1035
  43 000e FFF7FEFF 		bl	rcu_periph_reset_disable
  44              	.LVL1:
  56:C:/Users/49542/Desktop/GD32F30x_Demo_Suites_V2.0.0/GD32F30x_Demo_Suites_V2.0.0/GD32F30x_Firmware_Library/GD32F30x_standard_peripheral/Source\gd32f30x_wwdgt.c **** }
  45              		.loc 1 56 0
  46 0012 08BD     		pop	{r3, pc}
  47              		.cfi_endproc
  48              	.LFE116:
  50              		.section	.text.wwdgt_enable,"ax",%progbits
  51              		.align	1
  52              		.global	wwdgt_enable
  53              		.syntax unified
  54              		.thumb
  55              		.thumb_func
  56              		.fpu fpv4-sp-d16
  58              	wwdgt_enable:
  59              	.LFB117:
  57:C:/Users/49542/Desktop/GD32F30x_Demo_Suites_V2.0.0/GD32F30x_Demo_Suites_V2.0.0/GD32F30x_Firmware_Library/GD32F30x_standard_peripheral/Source\gd32f30x_wwdgt.c **** 
  58:C:/Users/49542/Desktop/GD32F30x_Demo_Suites_V2.0.0/GD32F30x_Demo_Suites_V2.0.0/GD32F30x_Firmware_Library/GD32F30x_standard_peripheral/Source\gd32f30x_wwdgt.c **** /*!
ARM GAS  C:\Users\49542\AppData\Local\Temp\ccjbbij1.s 			page 3


  59:C:/Users/49542/Desktop/GD32F30x_Demo_Suites_V2.0.0/GD32F30x_Demo_Suites_V2.0.0/GD32F30x_Firmware_Library/GD32F30x_standard_peripheral/Source\gd32f30x_wwdgt.c ****     \brief      start the window watchdog timer counter
  60:C:/Users/49542/Desktop/GD32F30x_Demo_Suites_V2.0.0/GD32F30x_Demo_Suites_V2.0.0/GD32F30x_Firmware_Library/GD32F30x_standard_peripheral/Source\gd32f30x_wwdgt.c ****     \param[in]  none
  61:C:/Users/49542/Desktop/GD32F30x_Demo_Suites_V2.0.0/GD32F30x_Demo_Suites_V2.0.0/GD32F30x_Firmware_Library/GD32F30x_standard_peripheral/Source\gd32f30x_wwdgt.c ****     \param[out] none
  62:C:/Users/49542/Desktop/GD32F30x_Demo_Suites_V2.0.0/GD32F30x_Demo_Suites_V2.0.0/GD32F30x_Firmware_Library/GD32F30x_standard_peripheral/Source\gd32f30x_wwdgt.c ****     \retval     none
  63:C:/Users/49542/Desktop/GD32F30x_Demo_Suites_V2.0.0/GD32F30x_Demo_Suites_V2.0.0/GD32F30x_Firmware_Library/GD32F30x_standard_peripheral/Source\gd32f30x_wwdgt.c **** */
  64:C:/Users/49542/Desktop/GD32F30x_Demo_Suites_V2.0.0/GD32F30x_Demo_Suites_V2.0.0/GD32F30x_Firmware_Library/GD32F30x_standard_peripheral/Source\gd32f30x_wwdgt.c **** void wwdgt_enable(void)
  65:C:/Users/49542/Desktop/GD32F30x_Demo_Suites_V2.0.0/GD32F30x_Demo_Suites_V2.0.0/GD32F30x_Firmware_Library/GD32F30x_standard_peripheral/Source\gd32f30x_wwdgt.c **** {
  60              		.loc 1 65 0
  61              		.cfi_startproc
  62              		@ args = 0, pretend = 0, frame = 0
  63              		@ frame_needed = 0, uses_anonymous_args = 0
  64              		@ link register save eliminated.
  66:C:/Users/49542/Desktop/GD32F30x_Demo_Suites_V2.0.0/GD32F30x_Demo_Suites_V2.0.0/GD32F30x_Firmware_Library/GD32F30x_standard_peripheral/Source\gd32f30x_wwdgt.c ****     WWDGT_CTL |= WWDGT_CTL_WDGTEN;
  65              		.loc 1 66 0
  66 0000 024A     		ldr	r2, .L4
  67 0002 1368     		ldr	r3, [r2]
  68 0004 43F08003 		orr	r3, r3, #128
  69 0008 1360     		str	r3, [r2]
  67:C:/Users/49542/Desktop/GD32F30x_Demo_Suites_V2.0.0/GD32F30x_Demo_Suites_V2.0.0/GD32F30x_Firmware_Library/GD32F30x_standard_peripheral/Source\gd32f30x_wwdgt.c **** }
  70              		.loc 1 67 0
  71 000a 7047     		bx	lr
  72              	.L5:
  73              		.align	2
  74              	.L4:
  75 000c 002C0040 		.word	1073753088
  76              		.cfi_endproc
  77              	.LFE117:
  79              		.section	.text.wwdgt_counter_update,"ax",%progbits
  80              		.align	1
  81              		.global	wwdgt_counter_update
  82              		.syntax unified
  83              		.thumb
  84              		.thumb_func
  85              		.fpu fpv4-sp-d16
  87              	wwdgt_counter_update:
  88              	.LFB118:
  68:C:/Users/49542/Desktop/GD32F30x_Demo_Suites_V2.0.0/GD32F30x_Demo_Suites_V2.0.0/GD32F30x_Firmware_Library/GD32F30x_standard_peripheral/Source\gd32f30x_wwdgt.c **** 
  69:C:/Users/49542/Desktop/GD32F30x_Demo_Suites_V2.0.0/GD32F30x_Demo_Suites_V2.0.0/GD32F30x_Firmware_Library/GD32F30x_standard_peripheral/Source\gd32f30x_wwdgt.c **** /*!
  70:C:/Users/49542/Desktop/GD32F30x_Demo_Suites_V2.0.0/GD32F30x_Demo_Suites_V2.0.0/GD32F30x_Firmware_Library/GD32F30x_standard_peripheral/Source\gd32f30x_wwdgt.c ****     \brief      configure the window watchdog timer counter value
  71:C:/Users/49542/Desktop/GD32F30x_Demo_Suites_V2.0.0/GD32F30x_Demo_Suites_V2.0.0/GD32F30x_Firmware_Library/GD32F30x_standard_peripheral/Source\gd32f30x_wwdgt.c ****     \param[in]  counter_value: 0x00 - 0x7F
  72:C:/Users/49542/Desktop/GD32F30x_Demo_Suites_V2.0.0/GD32F30x_Demo_Suites_V2.0.0/GD32F30x_Firmware_Library/GD32F30x_standard_peripheral/Source\gd32f30x_wwdgt.c ****     \param[out] none
  73:C:/Users/49542/Desktop/GD32F30x_Demo_Suites_V2.0.0/GD32F30x_Demo_Suites_V2.0.0/GD32F30x_Firmware_Library/GD32F30x_standard_peripheral/Source\gd32f30x_wwdgt.c ****     \retval     none
  74:C:/Users/49542/Desktop/GD32F30x_Demo_Suites_V2.0.0/GD32F30x_Demo_Suites_V2.0.0/GD32F30x_Firmware_Library/GD32F30x_standard_peripheral/Source\gd32f30x_wwdgt.c **** */
  75:C:/Users/49542/Desktop/GD32F30x_Demo_Suites_V2.0.0/GD32F30x_Demo_Suites_V2.0.0/GD32F30x_Firmware_Library/GD32F30x_standard_peripheral/Source\gd32f30x_wwdgt.c **** void wwdgt_counter_update(uint16_t counter_value)
  76:C:/Users/49542/Desktop/GD32F30x_Demo_Suites_V2.0.0/GD32F30x_Demo_Suites_V2.0.0/GD32F30x_Firmware_Library/GD32F30x_standard_peripheral/Source\gd32f30x_wwdgt.c **** {
  89              		.loc 1 76 0
  90              		.cfi_startproc
  91              		@ args = 0, pretend = 0, frame = 0
  92              		@ frame_needed = 0, uses_anonymous_args = 0
  93              		@ link register save eliminated.
  94              	.LVL2:
  77:C:/Users/49542/Desktop/GD32F30x_Demo_Suites_V2.0.0/GD32F30x_Demo_Suites_V2.0.0/GD32F30x_Firmware_Library/GD32F30x_standard_peripheral/Source\gd32f30x_wwdgt.c ****     uint32_t reg = 0U;
  78:C:/Users/49542/Desktop/GD32F30x_Demo_Suites_V2.0.0/GD32F30x_Demo_Suites_V2.0.0/GD32F30x_Firmware_Library/GD32F30x_standard_peripheral/Source\gd32f30x_wwdgt.c ****     
  79:C:/Users/49542/Desktop/GD32F30x_Demo_Suites_V2.0.0/GD32F30x_Demo_Suites_V2.0.0/GD32F30x_Firmware_Library/GD32F30x_standard_peripheral/Source\gd32f30x_wwdgt.c ****     reg = (WWDGT_CTL & (~WWDGT_CTL_CNT));
  95              		.loc 1 79 0
  96 0000 044A     		ldr	r2, .L7
  97 0002 1368     		ldr	r3, [r2]
ARM GAS  C:\Users\49542\AppData\Local\Temp\ccjbbij1.s 			page 4


  98 0004 23F07F03 		bic	r3, r3, #127
  99              	.LVL3:
  80:C:/Users/49542/Desktop/GD32F30x_Demo_Suites_V2.0.0/GD32F30x_Demo_Suites_V2.0.0/GD32F30x_Firmware_Library/GD32F30x_standard_peripheral/Source\gd32f30x_wwdgt.c ****     reg |= CTL_CNT(counter_value);
 100              		.loc 1 80 0
 101 0008 00F07F00 		and	r0, r0, #127
 102              	.LVL4:
 103 000c 1843     		orrs	r0, r0, r3
 104              	.LVL5:
  81:C:/Users/49542/Desktop/GD32F30x_Demo_Suites_V2.0.0/GD32F30x_Demo_Suites_V2.0.0/GD32F30x_Firmware_Library/GD32F30x_standard_peripheral/Source\gd32f30x_wwdgt.c ****     
  82:C:/Users/49542/Desktop/GD32F30x_Demo_Suites_V2.0.0/GD32F30x_Demo_Suites_V2.0.0/GD32F30x_Firmware_Library/GD32F30x_standard_peripheral/Source\gd32f30x_wwdgt.c ****     WWDGT_CTL = reg;
 105              		.loc 1 82 0
 106 000e 1060     		str	r0, [r2]
  83:C:/Users/49542/Desktop/GD32F30x_Demo_Suites_V2.0.0/GD32F30x_Demo_Suites_V2.0.0/GD32F30x_Firmware_Library/GD32F30x_standard_peripheral/Source\gd32f30x_wwdgt.c **** }
 107              		.loc 1 83 0
 108 0010 7047     		bx	lr
 109              	.L8:
 110 0012 00BF     		.align	2
 111              	.L7:
 112 0014 002C0040 		.word	1073753088
 113              		.cfi_endproc
 114              	.LFE118:
 116              		.section	.text.wwdgt_config,"ax",%progbits
 117              		.align	1
 118              		.global	wwdgt_config
 119              		.syntax unified
 120              		.thumb
 121              		.thumb_func
 122              		.fpu fpv4-sp-d16
 124              	wwdgt_config:
 125              	.LFB119:
  84:C:/Users/49542/Desktop/GD32F30x_Demo_Suites_V2.0.0/GD32F30x_Demo_Suites_V2.0.0/GD32F30x_Firmware_Library/GD32F30x_standard_peripheral/Source\gd32f30x_wwdgt.c **** 
  85:C:/Users/49542/Desktop/GD32F30x_Demo_Suites_V2.0.0/GD32F30x_Demo_Suites_V2.0.0/GD32F30x_Firmware_Library/GD32F30x_standard_peripheral/Source\gd32f30x_wwdgt.c **** /*!
  86:C:/Users/49542/Desktop/GD32F30x_Demo_Suites_V2.0.0/GD32F30x_Demo_Suites_V2.0.0/GD32F30x_Firmware_Library/GD32F30x_standard_peripheral/Source\gd32f30x_wwdgt.c ****     \brief      configure counter value, window value, and prescaler divider value  
  87:C:/Users/49542/Desktop/GD32F30x_Demo_Suites_V2.0.0/GD32F30x_Demo_Suites_V2.0.0/GD32F30x_Firmware_Library/GD32F30x_standard_peripheral/Source\gd32f30x_wwdgt.c ****     \param[in]  counter: 0x00 - 0x7F   
  88:C:/Users/49542/Desktop/GD32F30x_Demo_Suites_V2.0.0/GD32F30x_Demo_Suites_V2.0.0/GD32F30x_Firmware_Library/GD32F30x_standard_peripheral/Source\gd32f30x_wwdgt.c ****     \param[in]  window: 0x00 - 0x7F
  89:C:/Users/49542/Desktop/GD32F30x_Demo_Suites_V2.0.0/GD32F30x_Demo_Suites_V2.0.0/GD32F30x_Firmware_Library/GD32F30x_standard_peripheral/Source\gd32f30x_wwdgt.c ****     \param[in]  prescaler: wwdgt prescaler value
  90:C:/Users/49542/Desktop/GD32F30x_Demo_Suites_V2.0.0/GD32F30x_Demo_Suites_V2.0.0/GD32F30x_Firmware_Library/GD32F30x_standard_peripheral/Source\gd32f30x_wwdgt.c ****                 only one parameter can be selected which is shown as below:
  91:C:/Users/49542/Desktop/GD32F30x_Demo_Suites_V2.0.0/GD32F30x_Demo_Suites_V2.0.0/GD32F30x_Firmware_Library/GD32F30x_standard_peripheral/Source\gd32f30x_wwdgt.c ****       \arg        WWDGT_CFG_PSC_DIV1: the time base of window watchdog counter = (PCLK1/4096)/1
  92:C:/Users/49542/Desktop/GD32F30x_Demo_Suites_V2.0.0/GD32F30x_Demo_Suites_V2.0.0/GD32F30x_Firmware_Library/GD32F30x_standard_peripheral/Source\gd32f30x_wwdgt.c ****       \arg        WWDGT_CFG_PSC_DIV2: the time base of window watchdog counter = (PCLK1/4096)/2
  93:C:/Users/49542/Desktop/GD32F30x_Demo_Suites_V2.0.0/GD32F30x_Demo_Suites_V2.0.0/GD32F30x_Firmware_Library/GD32F30x_standard_peripheral/Source\gd32f30x_wwdgt.c ****       \arg        WWDGT_CFG_PSC_DIV4: the time base of window watchdog counter = (PCLK1/4096)/4
  94:C:/Users/49542/Desktop/GD32F30x_Demo_Suites_V2.0.0/GD32F30x_Demo_Suites_V2.0.0/GD32F30x_Firmware_Library/GD32F30x_standard_peripheral/Source\gd32f30x_wwdgt.c ****       \arg        WWDGT_CFG_PSC_DIV8: the time base of window watchdog counter = (PCLK1/4096)/8
  95:C:/Users/49542/Desktop/GD32F30x_Demo_Suites_V2.0.0/GD32F30x_Demo_Suites_V2.0.0/GD32F30x_Firmware_Library/GD32F30x_standard_peripheral/Source\gd32f30x_wwdgt.c ****     \param[out] none
  96:C:/Users/49542/Desktop/GD32F30x_Demo_Suites_V2.0.0/GD32F30x_Demo_Suites_V2.0.0/GD32F30x_Firmware_Library/GD32F30x_standard_peripheral/Source\gd32f30x_wwdgt.c ****     \retval     none
  97:C:/Users/49542/Desktop/GD32F30x_Demo_Suites_V2.0.0/GD32F30x_Demo_Suites_V2.0.0/GD32F30x_Firmware_Library/GD32F30x_standard_peripheral/Source\gd32f30x_wwdgt.c **** */
  98:C:/Users/49542/Desktop/GD32F30x_Demo_Suites_V2.0.0/GD32F30x_Demo_Suites_V2.0.0/GD32F30x_Firmware_Library/GD32F30x_standard_peripheral/Source\gd32f30x_wwdgt.c **** void wwdgt_config(uint16_t counter, uint16_t window, uint32_t prescaler)
  99:C:/Users/49542/Desktop/GD32F30x_Demo_Suites_V2.0.0/GD32F30x_Demo_Suites_V2.0.0/GD32F30x_Firmware_Library/GD32F30x_standard_peripheral/Source\gd32f30x_wwdgt.c **** {
 126              		.loc 1 99 0
 127              		.cfi_startproc
 128              		@ args = 0, pretend = 0, frame = 0
 129              		@ frame_needed = 0, uses_anonymous_args = 0
 130              		@ link register save eliminated.
 131              	.LVL6:
 132 0000 70B4     		push	{r4, r5, r6}
 133              	.LCFI1:
 134              		.cfi_def_cfa_offset 12
 135              		.cfi_offset 4, -12
 136              		.cfi_offset 5, -8
ARM GAS  C:\Users\49542\AppData\Local\Temp\ccjbbij1.s 			page 5


 137              		.cfi_offset 6, -4
 138              	.LVL7:
 100:C:/Users/49542/Desktop/GD32F30x_Demo_Suites_V2.0.0/GD32F30x_Demo_Suites_V2.0.0/GD32F30x_Firmware_Library/GD32F30x_standard_peripheral/Source\gd32f30x_wwdgt.c ****     uint32_t reg_cfg = 0U, reg_ctl = 0U;
 101:C:/Users/49542/Desktop/GD32F30x_Demo_Suites_V2.0.0/GD32F30x_Demo_Suites_V2.0.0/GD32F30x_Firmware_Library/GD32F30x_standard_peripheral/Source\gd32f30x_wwdgt.c **** 
 102:C:/Users/49542/Desktop/GD32F30x_Demo_Suites_V2.0.0/GD32F30x_Demo_Suites_V2.0.0/GD32F30x_Firmware_Library/GD32F30x_standard_peripheral/Source\gd32f30x_wwdgt.c ****     /* clear WIN and PSC bits, clear CNT bit */
 103:C:/Users/49542/Desktop/GD32F30x_Demo_Suites_V2.0.0/GD32F30x_Demo_Suites_V2.0.0/GD32F30x_Firmware_Library/GD32F30x_standard_peripheral/Source\gd32f30x_wwdgt.c ****     reg_cfg = (WWDGT_CFG &(~(WWDGT_CFG_WIN|WWDGT_CFG_PSC)));
 139              		.loc 1 103 0
 140 0002 0A4D     		ldr	r5, .L11
 141 0004 2B68     		ldr	r3, [r5]
 142 0006 23F4FF73 		bic	r3, r3, #510
 143 000a 23F00103 		bic	r3, r3, #1
 144              	.LVL8:
 104:C:/Users/49542/Desktop/GD32F30x_Demo_Suites_V2.0.0/GD32F30x_Demo_Suites_V2.0.0/GD32F30x_Firmware_Library/GD32F30x_standard_peripheral/Source\gd32f30x_wwdgt.c ****     reg_ctl = (WWDGT_CTL &(~WWDGT_CTL_CNT));
 145              		.loc 1 104 0
 146 000e 084E     		ldr	r6, .L11+4
 147 0010 3468     		ldr	r4, [r6]
 148 0012 24F07F04 		bic	r4, r4, #127
 149              	.LVL9:
 105:C:/Users/49542/Desktop/GD32F30x_Demo_Suites_V2.0.0/GD32F30x_Demo_Suites_V2.0.0/GD32F30x_Firmware_Library/GD32F30x_standard_peripheral/Source\gd32f30x_wwdgt.c ****   
 106:C:/Users/49542/Desktop/GD32F30x_Demo_Suites_V2.0.0/GD32F30x_Demo_Suites_V2.0.0/GD32F30x_Firmware_Library/GD32F30x_standard_peripheral/Source\gd32f30x_wwdgt.c ****     /* configure WIN and PSC bits, configure CNT bit */
 107:C:/Users/49542/Desktop/GD32F30x_Demo_Suites_V2.0.0/GD32F30x_Demo_Suites_V2.0.0/GD32F30x_Firmware_Library/GD32F30x_standard_peripheral/Source\gd32f30x_wwdgt.c ****     reg_cfg |= CFG_WIN(window);
 150              		.loc 1 107 0
 151 0016 01F07F01 		and	r1, r1, #127
 152              	.LVL10:
 153 001a 1943     		orrs	r1, r1, r3
 154              	.LVL11:
 108:C:/Users/49542/Desktop/GD32F30x_Demo_Suites_V2.0.0/GD32F30x_Demo_Suites_V2.0.0/GD32F30x_Firmware_Library/GD32F30x_standard_peripheral/Source\gd32f30x_wwdgt.c ****     reg_cfg |= prescaler;
 155              		.loc 1 108 0
 156 001c 1143     		orrs	r1, r1, r2
 157              	.LVL12:
 109:C:/Users/49542/Desktop/GD32F30x_Demo_Suites_V2.0.0/GD32F30x_Demo_Suites_V2.0.0/GD32F30x_Firmware_Library/GD32F30x_standard_peripheral/Source\gd32f30x_wwdgt.c ****     reg_ctl |= CTL_CNT(counter);
 158              		.loc 1 109 0
 159 001e 00F07F00 		and	r0, r0, #127
 160              	.LVL13:
 161 0022 2043     		orrs	r0, r0, r4
 162              	.LVL14:
 110:C:/Users/49542/Desktop/GD32F30x_Demo_Suites_V2.0.0/GD32F30x_Demo_Suites_V2.0.0/GD32F30x_Firmware_Library/GD32F30x_standard_peripheral/Source\gd32f30x_wwdgt.c ****     
 111:C:/Users/49542/Desktop/GD32F30x_Demo_Suites_V2.0.0/GD32F30x_Demo_Suites_V2.0.0/GD32F30x_Firmware_Library/GD32F30x_standard_peripheral/Source\gd32f30x_wwdgt.c ****     WWDGT_CTL = reg_ctl;
 163              		.loc 1 111 0
 164 0024 3060     		str	r0, [r6]
 112:C:/Users/49542/Desktop/GD32F30x_Demo_Suites_V2.0.0/GD32F30x_Demo_Suites_V2.0.0/GD32F30x_Firmware_Library/GD32F30x_standard_peripheral/Source\gd32f30x_wwdgt.c ****     WWDGT_CFG = reg_cfg;
 165              		.loc 1 112 0
 166 0026 2960     		str	r1, [r5]
 113:C:/Users/49542/Desktop/GD32F30x_Demo_Suites_V2.0.0/GD32F30x_Demo_Suites_V2.0.0/GD32F30x_Firmware_Library/GD32F30x_standard_peripheral/Source\gd32f30x_wwdgt.c **** }
 167              		.loc 1 113 0
 168 0028 70BC     		pop	{r4, r5, r6}
 169              	.LCFI2:
 170              		.cfi_restore 6
 171              		.cfi_restore 5
 172              		.cfi_restore 4
 173              		.cfi_def_cfa_offset 0
 174 002a 7047     		bx	lr
 175              	.L12:
 176              		.align	2
 177              	.L11:
 178 002c 042C0040 		.word	1073753092
 179 0030 002C0040 		.word	1073753088
ARM GAS  C:\Users\49542\AppData\Local\Temp\ccjbbij1.s 			page 6


 180              		.cfi_endproc
 181              	.LFE119:
 183              		.section	.text.wwdgt_interrupt_enable,"ax",%progbits
 184              		.align	1
 185              		.global	wwdgt_interrupt_enable
 186              		.syntax unified
 187              		.thumb
 188              		.thumb_func
 189              		.fpu fpv4-sp-d16
 191              	wwdgt_interrupt_enable:
 192              	.LFB120:
 114:C:/Users/49542/Desktop/GD32F30x_Demo_Suites_V2.0.0/GD32F30x_Demo_Suites_V2.0.0/GD32F30x_Firmware_Library/GD32F30x_standard_peripheral/Source\gd32f30x_wwdgt.c **** 
 115:C:/Users/49542/Desktop/GD32F30x_Demo_Suites_V2.0.0/GD32F30x_Demo_Suites_V2.0.0/GD32F30x_Firmware_Library/GD32F30x_standard_peripheral/Source\gd32f30x_wwdgt.c **** /*!
 116:C:/Users/49542/Desktop/GD32F30x_Demo_Suites_V2.0.0/GD32F30x_Demo_Suites_V2.0.0/GD32F30x_Firmware_Library/GD32F30x_standard_peripheral/Source\gd32f30x_wwdgt.c ****     \brief      enable early wakeup interrupt of WWDGT
 117:C:/Users/49542/Desktop/GD32F30x_Demo_Suites_V2.0.0/GD32F30x_Demo_Suites_V2.0.0/GD32F30x_Firmware_Library/GD32F30x_standard_peripheral/Source\gd32f30x_wwdgt.c ****     \param[in]  none
 118:C:/Users/49542/Desktop/GD32F30x_Demo_Suites_V2.0.0/GD32F30x_Demo_Suites_V2.0.0/GD32F30x_Firmware_Library/GD32F30x_standard_peripheral/Source\gd32f30x_wwdgt.c ****     \param[out] none
 119:C:/Users/49542/Desktop/GD32F30x_Demo_Suites_V2.0.0/GD32F30x_Demo_Suites_V2.0.0/GD32F30x_Firmware_Library/GD32F30x_standard_peripheral/Source\gd32f30x_wwdgt.c ****     \retval     none
 120:C:/Users/49542/Desktop/GD32F30x_Demo_Suites_V2.0.0/GD32F30x_Demo_Suites_V2.0.0/GD32F30x_Firmware_Library/GD32F30x_standard_peripheral/Source\gd32f30x_wwdgt.c **** */
 121:C:/Users/49542/Desktop/GD32F30x_Demo_Suites_V2.0.0/GD32F30x_Demo_Suites_V2.0.0/GD32F30x_Firmware_Library/GD32F30x_standard_peripheral/Source\gd32f30x_wwdgt.c **** void wwdgt_interrupt_enable(void)
 122:C:/Users/49542/Desktop/GD32F30x_Demo_Suites_V2.0.0/GD32F30x_Demo_Suites_V2.0.0/GD32F30x_Firmware_Library/GD32F30x_standard_peripheral/Source\gd32f30x_wwdgt.c **** {
 193              		.loc 1 122 0
 194              		.cfi_startproc
 195              		@ args = 0, pretend = 0, frame = 0
 196              		@ frame_needed = 0, uses_anonymous_args = 0
 197              		@ link register save eliminated.
 123:C:/Users/49542/Desktop/GD32F30x_Demo_Suites_V2.0.0/GD32F30x_Demo_Suites_V2.0.0/GD32F30x_Firmware_Library/GD32F30x_standard_peripheral/Source\gd32f30x_wwdgt.c ****     WWDGT_CFG |= WWDGT_CFG_EWIE;
 198              		.loc 1 123 0
 199 0000 024A     		ldr	r2, .L14
 200 0002 1368     		ldr	r3, [r2]
 201 0004 43F40073 		orr	r3, r3, #512
 202 0008 1360     		str	r3, [r2]
 124:C:/Users/49542/Desktop/GD32F30x_Demo_Suites_V2.0.0/GD32F30x_Demo_Suites_V2.0.0/GD32F30x_Firmware_Library/GD32F30x_standard_peripheral/Source\gd32f30x_wwdgt.c **** }
 203              		.loc 1 124 0
 204 000a 7047     		bx	lr
 205              	.L15:
 206              		.align	2
 207              	.L14:
 208 000c 042C0040 		.word	1073753092
 209              		.cfi_endproc
 210              	.LFE120:
 212              		.section	.text.wwdgt_flag_get,"ax",%progbits
 213              		.align	1
 214              		.global	wwdgt_flag_get
 215              		.syntax unified
 216              		.thumb
 217              		.thumb_func
 218              		.fpu fpv4-sp-d16
 220              	wwdgt_flag_get:
 221              	.LFB121:
 125:C:/Users/49542/Desktop/GD32F30x_Demo_Suites_V2.0.0/GD32F30x_Demo_Suites_V2.0.0/GD32F30x_Firmware_Library/GD32F30x_standard_peripheral/Source\gd32f30x_wwdgt.c **** 
 126:C:/Users/49542/Desktop/GD32F30x_Demo_Suites_V2.0.0/GD32F30x_Demo_Suites_V2.0.0/GD32F30x_Firmware_Library/GD32F30x_standard_peripheral/Source\gd32f30x_wwdgt.c **** /*!
 127:C:/Users/49542/Desktop/GD32F30x_Demo_Suites_V2.0.0/GD32F30x_Demo_Suites_V2.0.0/GD32F30x_Firmware_Library/GD32F30x_standard_peripheral/Source\gd32f30x_wwdgt.c ****     \brief      check early wakeup interrupt state of WWDGT
 128:C:/Users/49542/Desktop/GD32F30x_Demo_Suites_V2.0.0/GD32F30x_Demo_Suites_V2.0.0/GD32F30x_Firmware_Library/GD32F30x_standard_peripheral/Source\gd32f30x_wwdgt.c ****     \param[in]  none
 129:C:/Users/49542/Desktop/GD32F30x_Demo_Suites_V2.0.0/GD32F30x_Demo_Suites_V2.0.0/GD32F30x_Firmware_Library/GD32F30x_standard_peripheral/Source\gd32f30x_wwdgt.c ****     \param[out] none
 130:C:/Users/49542/Desktop/GD32F30x_Demo_Suites_V2.0.0/GD32F30x_Demo_Suites_V2.0.0/GD32F30x_Firmware_Library/GD32F30x_standard_peripheral/Source\gd32f30x_wwdgt.c ****     \retval     FlagStatus: SET or RESET
 131:C:/Users/49542/Desktop/GD32F30x_Demo_Suites_V2.0.0/GD32F30x_Demo_Suites_V2.0.0/GD32F30x_Firmware_Library/GD32F30x_standard_peripheral/Source\gd32f30x_wwdgt.c **** */
 132:C:/Users/49542/Desktop/GD32F30x_Demo_Suites_V2.0.0/GD32F30x_Demo_Suites_V2.0.0/GD32F30x_Firmware_Library/GD32F30x_standard_peripheral/Source\gd32f30x_wwdgt.c **** FlagStatus wwdgt_flag_get(void)
ARM GAS  C:\Users\49542\AppData\Local\Temp\ccjbbij1.s 			page 7


 133:C:/Users/49542/Desktop/GD32F30x_Demo_Suites_V2.0.0/GD32F30x_Demo_Suites_V2.0.0/GD32F30x_Firmware_Library/GD32F30x_standard_peripheral/Source\gd32f30x_wwdgt.c **** {
 222              		.loc 1 133 0
 223              		.cfi_startproc
 224              		@ args = 0, pretend = 0, frame = 0
 225              		@ frame_needed = 0, uses_anonymous_args = 0
 226              		@ link register save eliminated.
 134:C:/Users/49542/Desktop/GD32F30x_Demo_Suites_V2.0.0/GD32F30x_Demo_Suites_V2.0.0/GD32F30x_Firmware_Library/GD32F30x_standard_peripheral/Source\gd32f30x_wwdgt.c ****     if(RESET != (WWDGT_STAT & WWDGT_STAT_EWIF)){
 227              		.loc 1 134 0
 228 0000 044B     		ldr	r3, .L20
 229 0002 1B68     		ldr	r3, [r3]
 230 0004 13F0010F 		tst	r3, #1
 231 0008 01D1     		bne	.L19
 135:C:/Users/49542/Desktop/GD32F30x_Demo_Suites_V2.0.0/GD32F30x_Demo_Suites_V2.0.0/GD32F30x_Firmware_Library/GD32F30x_standard_peripheral/Source\gd32f30x_wwdgt.c ****         return SET;
 136:C:/Users/49542/Desktop/GD32F30x_Demo_Suites_V2.0.0/GD32F30x_Demo_Suites_V2.0.0/GD32F30x_Firmware_Library/GD32F30x_standard_peripheral/Source\gd32f30x_wwdgt.c ****     }
 137:C:/Users/49542/Desktop/GD32F30x_Demo_Suites_V2.0.0/GD32F30x_Demo_Suites_V2.0.0/GD32F30x_Firmware_Library/GD32F30x_standard_peripheral/Source\gd32f30x_wwdgt.c **** 
 138:C:/Users/49542/Desktop/GD32F30x_Demo_Suites_V2.0.0/GD32F30x_Demo_Suites_V2.0.0/GD32F30x_Firmware_Library/GD32F30x_standard_peripheral/Source\gd32f30x_wwdgt.c ****     return RESET;
 232              		.loc 1 138 0
 233 000a 0020     		movs	r0, #0
 139:C:/Users/49542/Desktop/GD32F30x_Demo_Suites_V2.0.0/GD32F30x_Demo_Suites_V2.0.0/GD32F30x_Firmware_Library/GD32F30x_standard_peripheral/Source\gd32f30x_wwdgt.c **** }
 234              		.loc 1 139 0
 235 000c 7047     		bx	lr
 236              	.L19:
 135:C:/Users/49542/Desktop/GD32F30x_Demo_Suites_V2.0.0/GD32F30x_Demo_Suites_V2.0.0/GD32F30x_Firmware_Library/GD32F30x_standard_peripheral/Source\gd32f30x_wwdgt.c ****         return SET;
 237              		.loc 1 135 0
 238 000e 0120     		movs	r0, #1
 239 0010 7047     		bx	lr
 240              	.L21:
 241 0012 00BF     		.align	2
 242              	.L20:
 243 0014 082C0040 		.word	1073753096
 244              		.cfi_endproc
 245              	.LFE121:
 247              		.section	.text.wwdgt_flag_clear,"ax",%progbits
 248              		.align	1
 249              		.global	wwdgt_flag_clear
 250              		.syntax unified
 251              		.thumb
 252              		.thumb_func
 253              		.fpu fpv4-sp-d16
 255              	wwdgt_flag_clear:
 256              	.LFB122:
 140:C:/Users/49542/Desktop/GD32F30x_Demo_Suites_V2.0.0/GD32F30x_Demo_Suites_V2.0.0/GD32F30x_Firmware_Library/GD32F30x_standard_peripheral/Source\gd32f30x_wwdgt.c **** 
 141:C:/Users/49542/Desktop/GD32F30x_Demo_Suites_V2.0.0/GD32F30x_Demo_Suites_V2.0.0/GD32F30x_Firmware_Library/GD32F30x_standard_peripheral/Source\gd32f30x_wwdgt.c **** /*!
 142:C:/Users/49542/Desktop/GD32F30x_Demo_Suites_V2.0.0/GD32F30x_Demo_Suites_V2.0.0/GD32F30x_Firmware_Library/GD32F30x_standard_peripheral/Source\gd32f30x_wwdgt.c ****     \brief      clear early wakeup interrupt state of WWDGT
 143:C:/Users/49542/Desktop/GD32F30x_Demo_Suites_V2.0.0/GD32F30x_Demo_Suites_V2.0.0/GD32F30x_Firmware_Library/GD32F30x_standard_peripheral/Source\gd32f30x_wwdgt.c ****     \param[in]  none
 144:C:/Users/49542/Desktop/GD32F30x_Demo_Suites_V2.0.0/GD32F30x_Demo_Suites_V2.0.0/GD32F30x_Firmware_Library/GD32F30x_standard_peripheral/Source\gd32f30x_wwdgt.c ****     \param[out] none
 145:C:/Users/49542/Desktop/GD32F30x_Demo_Suites_V2.0.0/GD32F30x_Demo_Suites_V2.0.0/GD32F30x_Firmware_Library/GD32F30x_standard_peripheral/Source\gd32f30x_wwdgt.c ****     \retval     none
 146:C:/Users/49542/Desktop/GD32F30x_Demo_Suites_V2.0.0/GD32F30x_Demo_Suites_V2.0.0/GD32F30x_Firmware_Library/GD32F30x_standard_peripheral/Source\gd32f30x_wwdgt.c **** */
 147:C:/Users/49542/Desktop/GD32F30x_Demo_Suites_V2.0.0/GD32F30x_Demo_Suites_V2.0.0/GD32F30x_Firmware_Library/GD32F30x_standard_peripheral/Source\gd32f30x_wwdgt.c **** void wwdgt_flag_clear(void)
 148:C:/Users/49542/Desktop/GD32F30x_Demo_Suites_V2.0.0/GD32F30x_Demo_Suites_V2.0.0/GD32F30x_Firmware_Library/GD32F30x_standard_peripheral/Source\gd32f30x_wwdgt.c **** {
 257              		.loc 1 148 0
 258              		.cfi_startproc
 259              		@ args = 0, pretend = 0, frame = 0
 260              		@ frame_needed = 0, uses_anonymous_args = 0
 261              		@ link register save eliminated.
 149:C:/Users/49542/Desktop/GD32F30x_Demo_Suites_V2.0.0/GD32F30x_Demo_Suites_V2.0.0/GD32F30x_Firmware_Library/GD32F30x_standard_peripheral/Source\gd32f30x_wwdgt.c ****     WWDGT_STAT &= (~WWDGT_STAT_EWIF);
 262              		.loc 1 149 0
ARM GAS  C:\Users\49542\AppData\Local\Temp\ccjbbij1.s 			page 8


 263 0000 024A     		ldr	r2, .L23
 264 0002 1368     		ldr	r3, [r2]
 265 0004 23F00103 		bic	r3, r3, #1
 266 0008 1360     		str	r3, [r2]
 150:C:/Users/49542/Desktop/GD32F30x_Demo_Suites_V2.0.0/GD32F30x_Demo_Suites_V2.0.0/GD32F30x_Firmware_Library/GD32F30x_standard_peripheral/Source\gd32f30x_wwdgt.c **** }
 267              		.loc 1 150 0
 268 000a 7047     		bx	lr
 269              	.L24:
 270              		.align	2
 271              	.L23:
 272 000c 082C0040 		.word	1073753096
 273              		.cfi_endproc
 274              	.LFE122:
 276              		.text
 277              	.Letext0:
 278              		.file 2 "c:\\users\\49542\\opensourcetools\\gnu tools arm embedded\\7 2018-q2-update\\arm-none-eab
 279              		.file 3 "c:\\users\\49542\\opensourcetools\\gnu tools arm embedded\\7 2018-q2-update\\arm-none-eab
 280              		.file 4 "C:/Users/49542/Desktop/GD32F30x_Demo_Suites_V2.0.0/GD32F30x_Demo_Suites_V2.0.0/GD32F30x_F
 281              		.file 5 "C:/Users/49542/Desktop/GD32F30x_Demo_Suites_V2.0.0/GD32F30x_Demo_Suites_V2.0.0/GD32F30x_F
 282              		.file 6 "C:/Users/49542/Desktop/GD32F30x_Demo_Suites_V2.0.0/GD32F30x_Demo_Suites_V2.0.0/GD32F30x_F
 283              		.file 7 "C:/Users/49542/Desktop/GD32F30x_Demo_Suites_V2.0.0/GD32F30x_Demo_Suites_V2.0.0/GD32F30x_F
ARM GAS  C:\Users\49542\AppData\Local\Temp\ccjbbij1.s 			page 9

