ARM GAS  C:\Users\49542\AppData\Local\Temp\cceCZdNg.s 			page 1


   1              		.cpu cortex-m4
   2              		.eabi_attribute 27, 1
   3              		.eabi_attribute 28, 1
   4              		.eabi_attribute 20, 1
   5              		.eabi_attribute 21, 1
   6              		.eabi_attribute 23, 3
   7              		.eabi_attribute 24, 1
   8              		.eabi_attribute 25, 1
   9              		.eabi_attribute 26, 1
  10              		.eabi_attribute 30, 1
  11              		.eabi_attribute 34, 1
  12              		.eabi_attribute 18, 4
  13              		.file	"gd32f30x_fmc.c"
  14              		.text
  15              	.Ltext0:
  16              		.cfi_sections	.debug_frame
  17              		.section	.text.fmc_wscnt_set,"ax",%progbits
  18              		.align	1
  19              		.global	fmc_wscnt_set
  20              		.syntax unified
  21              		.thumb
  22              		.thumb_func
  23              		.fpu fpv4-sp-d16
  25              	fmc_wscnt_set:
  26              	.LFB116:
  27              		.file 1 "C:/Users/49542/Desktop/GD32F30x_Demo_Suites_V2.0.0/GD32F30x_Demo_Suites_V2.0.0/GD32F30x_F
   1:C:/Users/49542/Desktop/GD32F30x_Demo_Suites_V2.0.0/GD32F30x_Demo_Suites_V2.0.0/GD32F30x_Firmware_Library/GD32F30x_standard_peripheral/Source\gd32f30x_fmc.c **** /*!
   2:C:/Users/49542/Desktop/GD32F30x_Demo_Suites_V2.0.0/GD32F30x_Demo_Suites_V2.0.0/GD32F30x_Firmware_Library/GD32F30x_standard_peripheral/Source\gd32f30x_fmc.c ****     \file  gd32f30x_fmc.c
   3:C:/Users/49542/Desktop/GD32F30x_Demo_Suites_V2.0.0/GD32F30x_Demo_Suites_V2.0.0/GD32F30x_Firmware_Library/GD32F30x_standard_peripheral/Source\gd32f30x_fmc.c ****     \brief FMC driver
   4:C:/Users/49542/Desktop/GD32F30x_Demo_Suites_V2.0.0/GD32F30x_Demo_Suites_V2.0.0/GD32F30x_Firmware_Library/GD32F30x_standard_peripheral/Source\gd32f30x_fmc.c **** 
   5:C:/Users/49542/Desktop/GD32F30x_Demo_Suites_V2.0.0/GD32F30x_Demo_Suites_V2.0.0/GD32F30x_Firmware_Library/GD32F30x_standard_peripheral/Source\gd32f30x_fmc.c ****     \version 2017-02-10, V1.0.0, firmware for GD32F30x
   6:C:/Users/49542/Desktop/GD32F30x_Demo_Suites_V2.0.0/GD32F30x_Demo_Suites_V2.0.0/GD32F30x_Firmware_Library/GD32F30x_standard_peripheral/Source\gd32f30x_fmc.c ****     \version 2018-10-10, V1.1.0, firmware for GD32F30x
   7:C:/Users/49542/Desktop/GD32F30x_Demo_Suites_V2.0.0/GD32F30x_Demo_Suites_V2.0.0/GD32F30x_Firmware_Library/GD32F30x_standard_peripheral/Source\gd32f30x_fmc.c ****     \version 2018-12-25, V2.0.0, firmware for GD32F30x
   8:C:/Users/49542/Desktop/GD32F30x_Demo_Suites_V2.0.0/GD32F30x_Demo_Suites_V2.0.0/GD32F30x_Firmware_Library/GD32F30x_standard_peripheral/Source\gd32f30x_fmc.c **** */
   9:C:/Users/49542/Desktop/GD32F30x_Demo_Suites_V2.0.0/GD32F30x_Demo_Suites_V2.0.0/GD32F30x_Firmware_Library/GD32F30x_standard_peripheral/Source\gd32f30x_fmc.c **** 
  10:C:/Users/49542/Desktop/GD32F30x_Demo_Suites_V2.0.0/GD32F30x_Demo_Suites_V2.0.0/GD32F30x_Firmware_Library/GD32F30x_standard_peripheral/Source\gd32f30x_fmc.c **** /*
  11:C:/Users/49542/Desktop/GD32F30x_Demo_Suites_V2.0.0/GD32F30x_Demo_Suites_V2.0.0/GD32F30x_Firmware_Library/GD32F30x_standard_peripheral/Source\gd32f30x_fmc.c ****     Copyright (c) 2018, GigaDevice Semiconductor Inc.
  12:C:/Users/49542/Desktop/GD32F30x_Demo_Suites_V2.0.0/GD32F30x_Demo_Suites_V2.0.0/GD32F30x_Firmware_Library/GD32F30x_standard_peripheral/Source\gd32f30x_fmc.c **** 
  13:C:/Users/49542/Desktop/GD32F30x_Demo_Suites_V2.0.0/GD32F30x_Demo_Suites_V2.0.0/GD32F30x_Firmware_Library/GD32F30x_standard_peripheral/Source\gd32f30x_fmc.c ****     All rights reserved.
  14:C:/Users/49542/Desktop/GD32F30x_Demo_Suites_V2.0.0/GD32F30x_Demo_Suites_V2.0.0/GD32F30x_Firmware_Library/GD32F30x_standard_peripheral/Source\gd32f30x_fmc.c **** 
  15:C:/Users/49542/Desktop/GD32F30x_Demo_Suites_V2.0.0/GD32F30x_Demo_Suites_V2.0.0/GD32F30x_Firmware_Library/GD32F30x_standard_peripheral/Source\gd32f30x_fmc.c ****     Redistribution and use in source and binary forms, with or without modification, 
  16:C:/Users/49542/Desktop/GD32F30x_Demo_Suites_V2.0.0/GD32F30x_Demo_Suites_V2.0.0/GD32F30x_Firmware_Library/GD32F30x_standard_peripheral/Source\gd32f30x_fmc.c **** are permitted provided that the following conditions are met:
  17:C:/Users/49542/Desktop/GD32F30x_Demo_Suites_V2.0.0/GD32F30x_Demo_Suites_V2.0.0/GD32F30x_Firmware_Library/GD32F30x_standard_peripheral/Source\gd32f30x_fmc.c **** 
  18:C:/Users/49542/Desktop/GD32F30x_Demo_Suites_V2.0.0/GD32F30x_Demo_Suites_V2.0.0/GD32F30x_Firmware_Library/GD32F30x_standard_peripheral/Source\gd32f30x_fmc.c ****     1. Redistributions of source code must retain the above copyright notice, this 
  19:C:/Users/49542/Desktop/GD32F30x_Demo_Suites_V2.0.0/GD32F30x_Demo_Suites_V2.0.0/GD32F30x_Firmware_Library/GD32F30x_standard_peripheral/Source\gd32f30x_fmc.c ****        list of conditions and the following disclaimer.
  20:C:/Users/49542/Desktop/GD32F30x_Demo_Suites_V2.0.0/GD32F30x_Demo_Suites_V2.0.0/GD32F30x_Firmware_Library/GD32F30x_standard_peripheral/Source\gd32f30x_fmc.c ****     2. Redistributions in binary form must reproduce the above copyright notice, 
  21:C:/Users/49542/Desktop/GD32F30x_Demo_Suites_V2.0.0/GD32F30x_Demo_Suites_V2.0.0/GD32F30x_Firmware_Library/GD32F30x_standard_peripheral/Source\gd32f30x_fmc.c ****        this list of conditions and the following disclaimer in the documentation 
  22:C:/Users/49542/Desktop/GD32F30x_Demo_Suites_V2.0.0/GD32F30x_Demo_Suites_V2.0.0/GD32F30x_Firmware_Library/GD32F30x_standard_peripheral/Source\gd32f30x_fmc.c ****        and/or other materials provided with the distribution.
  23:C:/Users/49542/Desktop/GD32F30x_Demo_Suites_V2.0.0/GD32F30x_Demo_Suites_V2.0.0/GD32F30x_Firmware_Library/GD32F30x_standard_peripheral/Source\gd32f30x_fmc.c ****     3. Neither the name of the copyright holder nor the names of its contributors 
  24:C:/Users/49542/Desktop/GD32F30x_Demo_Suites_V2.0.0/GD32F30x_Demo_Suites_V2.0.0/GD32F30x_Firmware_Library/GD32F30x_standard_peripheral/Source\gd32f30x_fmc.c ****        may be used to endorse or promote products derived from this software without 
  25:C:/Users/49542/Desktop/GD32F30x_Demo_Suites_V2.0.0/GD32F30x_Demo_Suites_V2.0.0/GD32F30x_Firmware_Library/GD32F30x_standard_peripheral/Source\gd32f30x_fmc.c ****        specific prior written permission.
  26:C:/Users/49542/Desktop/GD32F30x_Demo_Suites_V2.0.0/GD32F30x_Demo_Suites_V2.0.0/GD32F30x_Firmware_Library/GD32F30x_standard_peripheral/Source\gd32f30x_fmc.c **** 
  27:C:/Users/49542/Desktop/GD32F30x_Demo_Suites_V2.0.0/GD32F30x_Demo_Suites_V2.0.0/GD32F30x_Firmware_Library/GD32F30x_standard_peripheral/Source\gd32f30x_fmc.c ****     THIS SOFTWARE IS PROVIDED BY THE COPYRIGHT HOLDERS AND CONTRIBUTORS "AS IS" 
  28:C:/Users/49542/Desktop/GD32F30x_Demo_Suites_V2.0.0/GD32F30x_Demo_Suites_V2.0.0/GD32F30x_Firmware_Library/GD32F30x_standard_peripheral/Source\gd32f30x_fmc.c **** AND ANY EXPRESS OR IMPLIED WARRANTIES, INCLUDING, BUT NOT LIMITED TO, THE IMPLIED 
  29:C:/Users/49542/Desktop/GD32F30x_Demo_Suites_V2.0.0/GD32F30x_Demo_Suites_V2.0.0/GD32F30x_Firmware_Library/GD32F30x_standard_peripheral/Source\gd32f30x_fmc.c **** WARRANTIES OF MERCHANTABILITY AND FITNESS FOR A PARTICULAR PURPOSE ARE DISCLAIMED. 
  30:C:/Users/49542/Desktop/GD32F30x_Demo_Suites_V2.0.0/GD32F30x_Demo_Suites_V2.0.0/GD32F30x_Firmware_Library/GD32F30x_standard_peripheral/Source\gd32f30x_fmc.c **** IN NO EVENT SHALL THE COPYRIGHT HOLDER OR CONTRIBUTORS BE LIABLE FOR ANY DIRECT, 
  31:C:/Users/49542/Desktop/GD32F30x_Demo_Suites_V2.0.0/GD32F30x_Demo_Suites_V2.0.0/GD32F30x_Firmware_Library/GD32F30x_standard_peripheral/Source\gd32f30x_fmc.c **** INDIRECT, INCIDENTAL, SPECIAL, EXEMPLARY, OR CONSEQUENTIAL DAMAGES (INCLUDING, BUT 
ARM GAS  C:\Users\49542\AppData\Local\Temp\cceCZdNg.s 			page 2


  32:C:/Users/49542/Desktop/GD32F30x_Demo_Suites_V2.0.0/GD32F30x_Demo_Suites_V2.0.0/GD32F30x_Firmware_Library/GD32F30x_standard_peripheral/Source\gd32f30x_fmc.c **** NOT LIMITED TO, PROCUREMENT OF SUBSTITUTE GOODS OR SERVICES; LOSS OF USE, DATA, OR 
  33:C:/Users/49542/Desktop/GD32F30x_Demo_Suites_V2.0.0/GD32F30x_Demo_Suites_V2.0.0/GD32F30x_Firmware_Library/GD32F30x_standard_peripheral/Source\gd32f30x_fmc.c **** PROFITS; OR BUSINESS INTERRUPTION) HOWEVER CAUSED AND ON ANY THEORY OF LIABILITY, 
  34:C:/Users/49542/Desktop/GD32F30x_Demo_Suites_V2.0.0/GD32F30x_Demo_Suites_V2.0.0/GD32F30x_Firmware_Library/GD32F30x_standard_peripheral/Source\gd32f30x_fmc.c **** WHETHER IN CONTRACT, STRICT LIABILITY, OR TORT (INCLUDING NEGLIGENCE OR OTHERWISE) 
  35:C:/Users/49542/Desktop/GD32F30x_Demo_Suites_V2.0.0/GD32F30x_Demo_Suites_V2.0.0/GD32F30x_Firmware_Library/GD32F30x_standard_peripheral/Source\gd32f30x_fmc.c **** ARISING IN ANY WAY OUT OF THE USE OF THIS SOFTWARE, EVEN IF ADVISED OF THE POSSIBILITY 
  36:C:/Users/49542/Desktop/GD32F30x_Demo_Suites_V2.0.0/GD32F30x_Demo_Suites_V2.0.0/GD32F30x_Firmware_Library/GD32F30x_standard_peripheral/Source\gd32f30x_fmc.c **** OF SUCH DAMAGE.
  37:C:/Users/49542/Desktop/GD32F30x_Demo_Suites_V2.0.0/GD32F30x_Demo_Suites_V2.0.0/GD32F30x_Firmware_Library/GD32F30x_standard_peripheral/Source\gd32f30x_fmc.c **** */
  38:C:/Users/49542/Desktop/GD32F30x_Demo_Suites_V2.0.0/GD32F30x_Demo_Suites_V2.0.0/GD32F30x_Firmware_Library/GD32F30x_standard_peripheral/Source\gd32f30x_fmc.c **** 
  39:C:/Users/49542/Desktop/GD32F30x_Demo_Suites_V2.0.0/GD32F30x_Demo_Suites_V2.0.0/GD32F30x_Firmware_Library/GD32F30x_standard_peripheral/Source\gd32f30x_fmc.c **** 
  40:C:/Users/49542/Desktop/GD32F30x_Demo_Suites_V2.0.0/GD32F30x_Demo_Suites_V2.0.0/GD32F30x_Firmware_Library/GD32F30x_standard_peripheral/Source\gd32f30x_fmc.c **** #include "gd32f30x_fmc.h"
  41:C:/Users/49542/Desktop/GD32F30x_Demo_Suites_V2.0.0/GD32F30x_Demo_Suites_V2.0.0/GD32F30x_Firmware_Library/GD32F30x_standard_peripheral/Source\gd32f30x_fmc.c **** 
  42:C:/Users/49542/Desktop/GD32F30x_Demo_Suites_V2.0.0/GD32F30x_Demo_Suites_V2.0.0/GD32F30x_Firmware_Library/GD32F30x_standard_peripheral/Source\gd32f30x_fmc.c **** /*!
  43:C:/Users/49542/Desktop/GD32F30x_Demo_Suites_V2.0.0/GD32F30x_Demo_Suites_V2.0.0/GD32F30x_Firmware_Library/GD32F30x_standard_peripheral/Source\gd32f30x_fmc.c ****     \brief      set the wait state counter value
  44:C:/Users/49542/Desktop/GD32F30x_Demo_Suites_V2.0.0/GD32F30x_Demo_Suites_V2.0.0/GD32F30x_Firmware_Library/GD32F30x_standard_peripheral/Source\gd32f30x_fmc.c ****     \param[in]  wscnt:wait state counter value
  45:C:/Users/49542/Desktop/GD32F30x_Demo_Suites_V2.0.0/GD32F30x_Demo_Suites_V2.0.0/GD32F30x_Firmware_Library/GD32F30x_standard_peripheral/Source\gd32f30x_fmc.c ****       \arg        WS_WSCNT_0: FMC 0 wait
  46:C:/Users/49542/Desktop/GD32F30x_Demo_Suites_V2.0.0/GD32F30x_Demo_Suites_V2.0.0/GD32F30x_Firmware_Library/GD32F30x_standard_peripheral/Source\gd32f30x_fmc.c ****       \arg        WS_WSCNT_1: FMC 1 wait
  47:C:/Users/49542/Desktop/GD32F30x_Demo_Suites_V2.0.0/GD32F30x_Demo_Suites_V2.0.0/GD32F30x_Firmware_Library/GD32F30x_standard_peripheral/Source\gd32f30x_fmc.c ****       \arg        WS_WSCNT_2: FMC 2 wait
  48:C:/Users/49542/Desktop/GD32F30x_Demo_Suites_V2.0.0/GD32F30x_Demo_Suites_V2.0.0/GD32F30x_Firmware_Library/GD32F30x_standard_peripheral/Source\gd32f30x_fmc.c ****     \param[out] none
  49:C:/Users/49542/Desktop/GD32F30x_Demo_Suites_V2.0.0/GD32F30x_Demo_Suites_V2.0.0/GD32F30x_Firmware_Library/GD32F30x_standard_peripheral/Source\gd32f30x_fmc.c ****     \retval     none
  50:C:/Users/49542/Desktop/GD32F30x_Demo_Suites_V2.0.0/GD32F30x_Demo_Suites_V2.0.0/GD32F30x_Firmware_Library/GD32F30x_standard_peripheral/Source\gd32f30x_fmc.c **** */
  51:C:/Users/49542/Desktop/GD32F30x_Demo_Suites_V2.0.0/GD32F30x_Demo_Suites_V2.0.0/GD32F30x_Firmware_Library/GD32F30x_standard_peripheral/Source\gd32f30x_fmc.c **** void fmc_wscnt_set(uint32_t wscnt)
  52:C:/Users/49542/Desktop/GD32F30x_Demo_Suites_V2.0.0/GD32F30x_Demo_Suites_V2.0.0/GD32F30x_Firmware_Library/GD32F30x_standard_peripheral/Source\gd32f30x_fmc.c **** {
  28              		.loc 1 52 0
  29              		.cfi_startproc
  30              		@ args = 0, pretend = 0, frame = 0
  31              		@ frame_needed = 0, uses_anonymous_args = 0
  32              		@ link register save eliminated.
  33              	.LVL0:
  53:C:/Users/49542/Desktop/GD32F30x_Demo_Suites_V2.0.0/GD32F30x_Demo_Suites_V2.0.0/GD32F30x_Firmware_Library/GD32F30x_standard_peripheral/Source\gd32f30x_fmc.c ****     uint32_t reg;
  54:C:/Users/49542/Desktop/GD32F30x_Demo_Suites_V2.0.0/GD32F30x_Demo_Suites_V2.0.0/GD32F30x_Firmware_Library/GD32F30x_standard_peripheral/Source\gd32f30x_fmc.c ****     
  55:C:/Users/49542/Desktop/GD32F30x_Demo_Suites_V2.0.0/GD32F30x_Demo_Suites_V2.0.0/GD32F30x_Firmware_Library/GD32F30x_standard_peripheral/Source\gd32f30x_fmc.c ****     reg = FMC_WS;
  34              		.loc 1 55 0
  35 0000 034A     		ldr	r2, .L2
  36 0002 1368     		ldr	r3, [r2]
  37              	.LVL1:
  56:C:/Users/49542/Desktop/GD32F30x_Demo_Suites_V2.0.0/GD32F30x_Demo_Suites_V2.0.0/GD32F30x_Firmware_Library/GD32F30x_standard_peripheral/Source\gd32f30x_fmc.c ****     /* set the wait state counter value */
  57:C:/Users/49542/Desktop/GD32F30x_Demo_Suites_V2.0.0/GD32F30x_Demo_Suites_V2.0.0/GD32F30x_Firmware_Library/GD32F30x_standard_peripheral/Source\gd32f30x_fmc.c ****     reg &= ~FMC_WS_WSCNT;
  38              		.loc 1 57 0
  39 0004 23F00703 		bic	r3, r3, #7
  40              	.LVL2:
  58:C:/Users/49542/Desktop/GD32F30x_Demo_Suites_V2.0.0/GD32F30x_Demo_Suites_V2.0.0/GD32F30x_Firmware_Library/GD32F30x_standard_peripheral/Source\gd32f30x_fmc.c ****     FMC_WS = (reg | wscnt);
  41              		.loc 1 58 0
  42 0008 1843     		orrs	r0, r0, r3
  43              	.LVL3:
  44 000a 1060     		str	r0, [r2]
  59:C:/Users/49542/Desktop/GD32F30x_Demo_Suites_V2.0.0/GD32F30x_Demo_Suites_V2.0.0/GD32F30x_Firmware_Library/GD32F30x_standard_peripheral/Source\gd32f30x_fmc.c **** }
  45              		.loc 1 59 0
  46 000c 7047     		bx	lr
  47              	.L3:
  48 000e 00BF     		.align	2
  49              	.L2:
  50 0010 00200240 		.word	1073881088
  51              		.cfi_endproc
  52              	.LFE116:
  54              		.section	.text.fmc_unlock,"ax",%progbits
  55              		.align	1
  56              		.global	fmc_unlock
  57              		.syntax unified
ARM GAS  C:\Users\49542\AppData\Local\Temp\cceCZdNg.s 			page 3


  58              		.thumb
  59              		.thumb_func
  60              		.fpu fpv4-sp-d16
  62              	fmc_unlock:
  63              	.LFB117:
  60:C:/Users/49542/Desktop/GD32F30x_Demo_Suites_V2.0.0/GD32F30x_Demo_Suites_V2.0.0/GD32F30x_Firmware_Library/GD32F30x_standard_peripheral/Source\gd32f30x_fmc.c **** 
  61:C:/Users/49542/Desktop/GD32F30x_Demo_Suites_V2.0.0/GD32F30x_Demo_Suites_V2.0.0/GD32F30x_Firmware_Library/GD32F30x_standard_peripheral/Source\gd32f30x_fmc.c **** /*!
  62:C:/Users/49542/Desktop/GD32F30x_Demo_Suites_V2.0.0/GD32F30x_Demo_Suites_V2.0.0/GD32F30x_Firmware_Library/GD32F30x_standard_peripheral/Source\gd32f30x_fmc.c ****     \brief      unlock the main FMC operation
  63:C:/Users/49542/Desktop/GD32F30x_Demo_Suites_V2.0.0/GD32F30x_Demo_Suites_V2.0.0/GD32F30x_Firmware_Library/GD32F30x_standard_peripheral/Source\gd32f30x_fmc.c ****     \param[in]  none
  64:C:/Users/49542/Desktop/GD32F30x_Demo_Suites_V2.0.0/GD32F30x_Demo_Suites_V2.0.0/GD32F30x_Firmware_Library/GD32F30x_standard_peripheral/Source\gd32f30x_fmc.c ****     \param[out] none
  65:C:/Users/49542/Desktop/GD32F30x_Demo_Suites_V2.0.0/GD32F30x_Demo_Suites_V2.0.0/GD32F30x_Firmware_Library/GD32F30x_standard_peripheral/Source\gd32f30x_fmc.c ****     \retval     none
  66:C:/Users/49542/Desktop/GD32F30x_Demo_Suites_V2.0.0/GD32F30x_Demo_Suites_V2.0.0/GD32F30x_Firmware_Library/GD32F30x_standard_peripheral/Source\gd32f30x_fmc.c **** */
  67:C:/Users/49542/Desktop/GD32F30x_Demo_Suites_V2.0.0/GD32F30x_Demo_Suites_V2.0.0/GD32F30x_Firmware_Library/GD32F30x_standard_peripheral/Source\gd32f30x_fmc.c **** void fmc_unlock(void)
  68:C:/Users/49542/Desktop/GD32F30x_Demo_Suites_V2.0.0/GD32F30x_Demo_Suites_V2.0.0/GD32F30x_Firmware_Library/GD32F30x_standard_peripheral/Source\gd32f30x_fmc.c **** {
  64              		.loc 1 68 0
  65              		.cfi_startproc
  66              		@ args = 0, pretend = 0, frame = 0
  67              		@ frame_needed = 0, uses_anonymous_args = 0
  68              		@ link register save eliminated.
  69:C:/Users/49542/Desktop/GD32F30x_Demo_Suites_V2.0.0/GD32F30x_Demo_Suites_V2.0.0/GD32F30x_Firmware_Library/GD32F30x_standard_peripheral/Source\gd32f30x_fmc.c ****     if((RESET != (FMC_CTL0 & FMC_CTL0_LK))){
  69              		.loc 1 69 0
  70 0000 0D4B     		ldr	r3, .L7
  71 0002 1B68     		ldr	r3, [r3]
  72 0004 13F0800F 		tst	r3, #128
  73 0008 05D0     		beq	.L5
  70:C:/Users/49542/Desktop/GD32F30x_Demo_Suites_V2.0.0/GD32F30x_Demo_Suites_V2.0.0/GD32F30x_Firmware_Library/GD32F30x_standard_peripheral/Source\gd32f30x_fmc.c ****         /* write the FMC unlock key */
  71:C:/Users/49542/Desktop/GD32F30x_Demo_Suites_V2.0.0/GD32F30x_Demo_Suites_V2.0.0/GD32F30x_Firmware_Library/GD32F30x_standard_peripheral/Source\gd32f30x_fmc.c ****         FMC_KEY0 = UNLOCK_KEY0;
  74              		.loc 1 71 0
  75 000a 0C4B     		ldr	r3, .L7+4
  76 000c 0C4A     		ldr	r2, .L7+8
  77 000e 1A60     		str	r2, [r3]
  72:C:/Users/49542/Desktop/GD32F30x_Demo_Suites_V2.0.0/GD32F30x_Demo_Suites_V2.0.0/GD32F30x_Firmware_Library/GD32F30x_standard_peripheral/Source\gd32f30x_fmc.c ****         FMC_KEY0 = UNLOCK_KEY1;
  78              		.loc 1 72 0
  79 0010 02F18832 		add	r2, r2, #-2004318072
  80 0014 1A60     		str	r2, [r3]
  81              	.L5:
  73:C:/Users/49542/Desktop/GD32F30x_Demo_Suites_V2.0.0/GD32F30x_Demo_Suites_V2.0.0/GD32F30x_Firmware_Library/GD32F30x_standard_peripheral/Source\gd32f30x_fmc.c ****     }
  74:C:/Users/49542/Desktop/GD32F30x_Demo_Suites_V2.0.0/GD32F30x_Demo_Suites_V2.0.0/GD32F30x_Firmware_Library/GD32F30x_standard_peripheral/Source\gd32f30x_fmc.c ****     if(FMC_BANK0_SIZE < FMC_SIZE){
  82              		.loc 1 74 0
  83 0016 0B4B     		ldr	r3, .L7+12
  84 0018 1B88     		ldrh	r3, [r3]
  85 001a B3F5007F 		cmp	r3, #512
  86 001e 0AD9     		bls	.L4
  75:C:/Users/49542/Desktop/GD32F30x_Demo_Suites_V2.0.0/GD32F30x_Demo_Suites_V2.0.0/GD32F30x_Firmware_Library/GD32F30x_standard_peripheral/Source\gd32f30x_fmc.c ****         /* write the FMC unlock key */
  76:C:/Users/49542/Desktop/GD32F30x_Demo_Suites_V2.0.0/GD32F30x_Demo_Suites_V2.0.0/GD32F30x_Firmware_Library/GD32F30x_standard_peripheral/Source\gd32f30x_fmc.c ****         if(RESET != (FMC_CTL1 & FMC_CTL1_LK)){
  87              		.loc 1 76 0
  88 0020 094B     		ldr	r3, .L7+16
  89 0022 1B68     		ldr	r3, [r3]
  90 0024 13F0800F 		tst	r3, #128
  91 0028 05D0     		beq	.L4
  77:C:/Users/49542/Desktop/GD32F30x_Demo_Suites_V2.0.0/GD32F30x_Demo_Suites_V2.0.0/GD32F30x_Firmware_Library/GD32F30x_standard_peripheral/Source\gd32f30x_fmc.c ****             FMC_KEY1 = UNLOCK_KEY0;
  92              		.loc 1 77 0
  93 002a 084B     		ldr	r3, .L7+20
  94 002c 044A     		ldr	r2, .L7+8
  95 002e 1A60     		str	r2, [r3]
  78:C:/Users/49542/Desktop/GD32F30x_Demo_Suites_V2.0.0/GD32F30x_Demo_Suites_V2.0.0/GD32F30x_Firmware_Library/GD32F30x_standard_peripheral/Source\gd32f30x_fmc.c ****             FMC_KEY1 = UNLOCK_KEY1;
  96              		.loc 1 78 0
ARM GAS  C:\Users\49542\AppData\Local\Temp\cceCZdNg.s 			page 4


  97 0030 02F18832 		add	r2, r2, #-2004318072
  98 0034 1A60     		str	r2, [r3]
  99              	.L4:
  79:C:/Users/49542/Desktop/GD32F30x_Demo_Suites_V2.0.0/GD32F30x_Demo_Suites_V2.0.0/GD32F30x_Firmware_Library/GD32F30x_standard_peripheral/Source\gd32f30x_fmc.c ****         }
  80:C:/Users/49542/Desktop/GD32F30x_Demo_Suites_V2.0.0/GD32F30x_Demo_Suites_V2.0.0/GD32F30x_Firmware_Library/GD32F30x_standard_peripheral/Source\gd32f30x_fmc.c ****     }
  81:C:/Users/49542/Desktop/GD32F30x_Demo_Suites_V2.0.0/GD32F30x_Demo_Suites_V2.0.0/GD32F30x_Firmware_Library/GD32F30x_standard_peripheral/Source\gd32f30x_fmc.c **** }
 100              		.loc 1 81 0
 101 0036 7047     		bx	lr
 102              	.L8:
 103              		.align	2
 104              	.L7:
 105 0038 10200240 		.word	1073881104
 106 003c 04200240 		.word	1073881092
 107 0040 23016745 		.word	1164378403
 108 0044 E0F7FF1F 		.word	536868832
 109 0048 50200240 		.word	1073881168
 110 004c 44200240 		.word	1073881156
 111              		.cfi_endproc
 112              	.LFE117:
 114              		.section	.text.fmc_bank0_unlock,"ax",%progbits
 115              		.align	1
 116              		.global	fmc_bank0_unlock
 117              		.syntax unified
 118              		.thumb
 119              		.thumb_func
 120              		.fpu fpv4-sp-d16
 122              	fmc_bank0_unlock:
 123              	.LFB118:
  82:C:/Users/49542/Desktop/GD32F30x_Demo_Suites_V2.0.0/GD32F30x_Demo_Suites_V2.0.0/GD32F30x_Firmware_Library/GD32F30x_standard_peripheral/Source\gd32f30x_fmc.c **** 
  83:C:/Users/49542/Desktop/GD32F30x_Demo_Suites_V2.0.0/GD32F30x_Demo_Suites_V2.0.0/GD32F30x_Firmware_Library/GD32F30x_standard_peripheral/Source\gd32f30x_fmc.c **** /*!
  84:C:/Users/49542/Desktop/GD32F30x_Demo_Suites_V2.0.0/GD32F30x_Demo_Suites_V2.0.0/GD32F30x_Firmware_Library/GD32F30x_standard_peripheral/Source\gd32f30x_fmc.c ****     \brief      unlock the FMC bank0 operation 
  85:C:/Users/49542/Desktop/GD32F30x_Demo_Suites_V2.0.0/GD32F30x_Demo_Suites_V2.0.0/GD32F30x_Firmware_Library/GD32F30x_standard_peripheral/Source\gd32f30x_fmc.c ****                 this function can be used for all GD32F30x devices.
  86:C:/Users/49542/Desktop/GD32F30x_Demo_Suites_V2.0.0/GD32F30x_Demo_Suites_V2.0.0/GD32F30x_Firmware_Library/GD32F30x_standard_peripheral/Source\gd32f30x_fmc.c ****                 for GD32F30x with flash more than 512KB, this function unlocks bank0.
  87:C:/Users/49542/Desktop/GD32F30x_Demo_Suites_V2.0.0/GD32F30x_Demo_Suites_V2.0.0/GD32F30x_Firmware_Library/GD32F30x_standard_peripheral/Source\gd32f30x_fmc.c ****                 for GD32F30x with flash no more than 512KB and it is equivalent to fmc_unlock funct
  88:C:/Users/49542/Desktop/GD32F30x_Demo_Suites_V2.0.0/GD32F30x_Demo_Suites_V2.0.0/GD32F30x_Firmware_Library/GD32F30x_standard_peripheral/Source\gd32f30x_fmc.c ****     \param[in]  none
  89:C:/Users/49542/Desktop/GD32F30x_Demo_Suites_V2.0.0/GD32F30x_Demo_Suites_V2.0.0/GD32F30x_Firmware_Library/GD32F30x_standard_peripheral/Source\gd32f30x_fmc.c ****     \param[out] none
  90:C:/Users/49542/Desktop/GD32F30x_Demo_Suites_V2.0.0/GD32F30x_Demo_Suites_V2.0.0/GD32F30x_Firmware_Library/GD32F30x_standard_peripheral/Source\gd32f30x_fmc.c ****     \retval     none
  91:C:/Users/49542/Desktop/GD32F30x_Demo_Suites_V2.0.0/GD32F30x_Demo_Suites_V2.0.0/GD32F30x_Firmware_Library/GD32F30x_standard_peripheral/Source\gd32f30x_fmc.c **** */
  92:C:/Users/49542/Desktop/GD32F30x_Demo_Suites_V2.0.0/GD32F30x_Demo_Suites_V2.0.0/GD32F30x_Firmware_Library/GD32F30x_standard_peripheral/Source\gd32f30x_fmc.c **** void fmc_bank0_unlock(void)
  93:C:/Users/49542/Desktop/GD32F30x_Demo_Suites_V2.0.0/GD32F30x_Demo_Suites_V2.0.0/GD32F30x_Firmware_Library/GD32F30x_standard_peripheral/Source\gd32f30x_fmc.c **** {
 124              		.loc 1 93 0
 125              		.cfi_startproc
 126              		@ args = 0, pretend = 0, frame = 0
 127              		@ frame_needed = 0, uses_anonymous_args = 0
 128              		@ link register save eliminated.
  94:C:/Users/49542/Desktop/GD32F30x_Demo_Suites_V2.0.0/GD32F30x_Demo_Suites_V2.0.0/GD32F30x_Firmware_Library/GD32F30x_standard_peripheral/Source\gd32f30x_fmc.c ****     if((RESET != (FMC_CTL0 & FMC_CTL0_LK))){
 129              		.loc 1 94 0
 130 0000 054B     		ldr	r3, .L11
 131 0002 1B68     		ldr	r3, [r3]
 132 0004 13F0800F 		tst	r3, #128
 133 0008 05D0     		beq	.L9
  95:C:/Users/49542/Desktop/GD32F30x_Demo_Suites_V2.0.0/GD32F30x_Demo_Suites_V2.0.0/GD32F30x_Firmware_Library/GD32F30x_standard_peripheral/Source\gd32f30x_fmc.c ****         /* write the FMC unlock key */
  96:C:/Users/49542/Desktop/GD32F30x_Demo_Suites_V2.0.0/GD32F30x_Demo_Suites_V2.0.0/GD32F30x_Firmware_Library/GD32F30x_standard_peripheral/Source\gd32f30x_fmc.c ****         FMC_KEY0 = UNLOCK_KEY0;
 134              		.loc 1 96 0
 135 000a 044B     		ldr	r3, .L11+4
 136 000c 044A     		ldr	r2, .L11+8
 137 000e 1A60     		str	r2, [r3]
ARM GAS  C:\Users\49542\AppData\Local\Temp\cceCZdNg.s 			page 5


  97:C:/Users/49542/Desktop/GD32F30x_Demo_Suites_V2.0.0/GD32F30x_Demo_Suites_V2.0.0/GD32F30x_Firmware_Library/GD32F30x_standard_peripheral/Source\gd32f30x_fmc.c ****         FMC_KEY0 = UNLOCK_KEY1;
 138              		.loc 1 97 0
 139 0010 02F18832 		add	r2, r2, #-2004318072
 140 0014 1A60     		str	r2, [r3]
 141              	.L9:
  98:C:/Users/49542/Desktop/GD32F30x_Demo_Suites_V2.0.0/GD32F30x_Demo_Suites_V2.0.0/GD32F30x_Firmware_Library/GD32F30x_standard_peripheral/Source\gd32f30x_fmc.c ****     }
  99:C:/Users/49542/Desktop/GD32F30x_Demo_Suites_V2.0.0/GD32F30x_Demo_Suites_V2.0.0/GD32F30x_Firmware_Library/GD32F30x_standard_peripheral/Source\gd32f30x_fmc.c **** }
 142              		.loc 1 99 0
 143 0016 7047     		bx	lr
 144              	.L12:
 145              		.align	2
 146              	.L11:
 147 0018 10200240 		.word	1073881104
 148 001c 04200240 		.word	1073881092
 149 0020 23016745 		.word	1164378403
 150              		.cfi_endproc
 151              	.LFE118:
 153              		.section	.text.fmc_bank1_unlock,"ax",%progbits
 154              		.align	1
 155              		.global	fmc_bank1_unlock
 156              		.syntax unified
 157              		.thumb
 158              		.thumb_func
 159              		.fpu fpv4-sp-d16
 161              	fmc_bank1_unlock:
 162              	.LFB119:
 100:C:/Users/49542/Desktop/GD32F30x_Demo_Suites_V2.0.0/GD32F30x_Demo_Suites_V2.0.0/GD32F30x_Firmware_Library/GD32F30x_standard_peripheral/Source\gd32f30x_fmc.c **** 
 101:C:/Users/49542/Desktop/GD32F30x_Demo_Suites_V2.0.0/GD32F30x_Demo_Suites_V2.0.0/GD32F30x_Firmware_Library/GD32F30x_standard_peripheral/Source\gd32f30x_fmc.c **** /*!
 102:C:/Users/49542/Desktop/GD32F30x_Demo_Suites_V2.0.0/GD32F30x_Demo_Suites_V2.0.0/GD32F30x_Firmware_Library/GD32F30x_standard_peripheral/Source\gd32f30x_fmc.c ****     \brief      unlock the FMC bank1 operation 
 103:C:/Users/49542/Desktop/GD32F30x_Demo_Suites_V2.0.0/GD32F30x_Demo_Suites_V2.0.0/GD32F30x_Firmware_Library/GD32F30x_standard_peripheral/Source\gd32f30x_fmc.c ****                 this function can be used for GD32F30x with flash more than 512KB.
 104:C:/Users/49542/Desktop/GD32F30x_Demo_Suites_V2.0.0/GD32F30x_Demo_Suites_V2.0.0/GD32F30x_Firmware_Library/GD32F30x_standard_peripheral/Source\gd32f30x_fmc.c ****     \param[in]  none
 105:C:/Users/49542/Desktop/GD32F30x_Demo_Suites_V2.0.0/GD32F30x_Demo_Suites_V2.0.0/GD32F30x_Firmware_Library/GD32F30x_standard_peripheral/Source\gd32f30x_fmc.c ****     \param[out] none
 106:C:/Users/49542/Desktop/GD32F30x_Demo_Suites_V2.0.0/GD32F30x_Demo_Suites_V2.0.0/GD32F30x_Firmware_Library/GD32F30x_standard_peripheral/Source\gd32f30x_fmc.c ****     \retval     none
 107:C:/Users/49542/Desktop/GD32F30x_Demo_Suites_V2.0.0/GD32F30x_Demo_Suites_V2.0.0/GD32F30x_Firmware_Library/GD32F30x_standard_peripheral/Source\gd32f30x_fmc.c **** */
 108:C:/Users/49542/Desktop/GD32F30x_Demo_Suites_V2.0.0/GD32F30x_Demo_Suites_V2.0.0/GD32F30x_Firmware_Library/GD32F30x_standard_peripheral/Source\gd32f30x_fmc.c **** void fmc_bank1_unlock(void)
 109:C:/Users/49542/Desktop/GD32F30x_Demo_Suites_V2.0.0/GD32F30x_Demo_Suites_V2.0.0/GD32F30x_Firmware_Library/GD32F30x_standard_peripheral/Source\gd32f30x_fmc.c **** {
 163              		.loc 1 109 0
 164              		.cfi_startproc
 165              		@ args = 0, pretend = 0, frame = 0
 166              		@ frame_needed = 0, uses_anonymous_args = 0
 167              		@ link register save eliminated.
 110:C:/Users/49542/Desktop/GD32F30x_Demo_Suites_V2.0.0/GD32F30x_Demo_Suites_V2.0.0/GD32F30x_Firmware_Library/GD32F30x_standard_peripheral/Source\gd32f30x_fmc.c ****     if((RESET != (FMC_CTL1 & FMC_CTL1_LK))){
 168              		.loc 1 110 0
 169 0000 054B     		ldr	r3, .L15
 170 0002 1B68     		ldr	r3, [r3]
 171 0004 13F0800F 		tst	r3, #128
 172 0008 05D0     		beq	.L13
 111:C:/Users/49542/Desktop/GD32F30x_Demo_Suites_V2.0.0/GD32F30x_Demo_Suites_V2.0.0/GD32F30x_Firmware_Library/GD32F30x_standard_peripheral/Source\gd32f30x_fmc.c ****         /* write the FMC unlock key */
 112:C:/Users/49542/Desktop/GD32F30x_Demo_Suites_V2.0.0/GD32F30x_Demo_Suites_V2.0.0/GD32F30x_Firmware_Library/GD32F30x_standard_peripheral/Source\gd32f30x_fmc.c ****         FMC_KEY1 = UNLOCK_KEY0;
 173              		.loc 1 112 0
 174 000a 044B     		ldr	r3, .L15+4
 175 000c 044A     		ldr	r2, .L15+8
 176 000e 1A60     		str	r2, [r3]
 113:C:/Users/49542/Desktop/GD32F30x_Demo_Suites_V2.0.0/GD32F30x_Demo_Suites_V2.0.0/GD32F30x_Firmware_Library/GD32F30x_standard_peripheral/Source\gd32f30x_fmc.c ****         FMC_KEY1 = UNLOCK_KEY1;
 177              		.loc 1 113 0
 178 0010 02F18832 		add	r2, r2, #-2004318072
 179 0014 1A60     		str	r2, [r3]
ARM GAS  C:\Users\49542\AppData\Local\Temp\cceCZdNg.s 			page 6


 180              	.L13:
 114:C:/Users/49542/Desktop/GD32F30x_Demo_Suites_V2.0.0/GD32F30x_Demo_Suites_V2.0.0/GD32F30x_Firmware_Library/GD32F30x_standard_peripheral/Source\gd32f30x_fmc.c ****     }
 115:C:/Users/49542/Desktop/GD32F30x_Demo_Suites_V2.0.0/GD32F30x_Demo_Suites_V2.0.0/GD32F30x_Firmware_Library/GD32F30x_standard_peripheral/Source\gd32f30x_fmc.c **** }
 181              		.loc 1 115 0
 182 0016 7047     		bx	lr
 183              	.L16:
 184              		.align	2
 185              	.L15:
 186 0018 50200240 		.word	1073881168
 187 001c 44200240 		.word	1073881156
 188 0020 23016745 		.word	1164378403
 189              		.cfi_endproc
 190              	.LFE119:
 192              		.section	.text.fmc_lock,"ax",%progbits
 193              		.align	1
 194              		.global	fmc_lock
 195              		.syntax unified
 196              		.thumb
 197              		.thumb_func
 198              		.fpu fpv4-sp-d16
 200              	fmc_lock:
 201              	.LFB120:
 116:C:/Users/49542/Desktop/GD32F30x_Demo_Suites_V2.0.0/GD32F30x_Demo_Suites_V2.0.0/GD32F30x_Firmware_Library/GD32F30x_standard_peripheral/Source\gd32f30x_fmc.c **** 
 117:C:/Users/49542/Desktop/GD32F30x_Demo_Suites_V2.0.0/GD32F30x_Demo_Suites_V2.0.0/GD32F30x_Firmware_Library/GD32F30x_standard_peripheral/Source\gd32f30x_fmc.c **** /*!
 118:C:/Users/49542/Desktop/GD32F30x_Demo_Suites_V2.0.0/GD32F30x_Demo_Suites_V2.0.0/GD32F30x_Firmware_Library/GD32F30x_standard_peripheral/Source\gd32f30x_fmc.c ****     \brief      lock the main FMC operation
 119:C:/Users/49542/Desktop/GD32F30x_Demo_Suites_V2.0.0/GD32F30x_Demo_Suites_V2.0.0/GD32F30x_Firmware_Library/GD32F30x_standard_peripheral/Source\gd32f30x_fmc.c ****     \param[in]  none
 120:C:/Users/49542/Desktop/GD32F30x_Demo_Suites_V2.0.0/GD32F30x_Demo_Suites_V2.0.0/GD32F30x_Firmware_Library/GD32F30x_standard_peripheral/Source\gd32f30x_fmc.c ****     \param[out] none
 121:C:/Users/49542/Desktop/GD32F30x_Demo_Suites_V2.0.0/GD32F30x_Demo_Suites_V2.0.0/GD32F30x_Firmware_Library/GD32F30x_standard_peripheral/Source\gd32f30x_fmc.c ****     \retval     none
 122:C:/Users/49542/Desktop/GD32F30x_Demo_Suites_V2.0.0/GD32F30x_Demo_Suites_V2.0.0/GD32F30x_Firmware_Library/GD32F30x_standard_peripheral/Source\gd32f30x_fmc.c **** */
 123:C:/Users/49542/Desktop/GD32F30x_Demo_Suites_V2.0.0/GD32F30x_Demo_Suites_V2.0.0/GD32F30x_Firmware_Library/GD32F30x_standard_peripheral/Source\gd32f30x_fmc.c **** void fmc_lock(void)
 124:C:/Users/49542/Desktop/GD32F30x_Demo_Suites_V2.0.0/GD32F30x_Demo_Suites_V2.0.0/GD32F30x_Firmware_Library/GD32F30x_standard_peripheral/Source\gd32f30x_fmc.c **** {
 202              		.loc 1 124 0
 203              		.cfi_startproc
 204              		@ args = 0, pretend = 0, frame = 0
 205              		@ frame_needed = 0, uses_anonymous_args = 0
 206              		@ link register save eliminated.
 125:C:/Users/49542/Desktop/GD32F30x_Demo_Suites_V2.0.0/GD32F30x_Demo_Suites_V2.0.0/GD32F30x_Firmware_Library/GD32F30x_standard_peripheral/Source\gd32f30x_fmc.c ****     /* set the LK bit */
 126:C:/Users/49542/Desktop/GD32F30x_Demo_Suites_V2.0.0/GD32F30x_Demo_Suites_V2.0.0/GD32F30x_Firmware_Library/GD32F30x_standard_peripheral/Source\gd32f30x_fmc.c ****     FMC_CTL0 |= FMC_CTL0_LK;
 207              		.loc 1 126 0
 208 0000 074A     		ldr	r2, .L19
 209 0002 1368     		ldr	r3, [r2]
 210 0004 43F08003 		orr	r3, r3, #128
 211 0008 1360     		str	r3, [r2]
 127:C:/Users/49542/Desktop/GD32F30x_Demo_Suites_V2.0.0/GD32F30x_Demo_Suites_V2.0.0/GD32F30x_Firmware_Library/GD32F30x_standard_peripheral/Source\gd32f30x_fmc.c ****     
 128:C:/Users/49542/Desktop/GD32F30x_Demo_Suites_V2.0.0/GD32F30x_Demo_Suites_V2.0.0/GD32F30x_Firmware_Library/GD32F30x_standard_peripheral/Source\gd32f30x_fmc.c ****     if(FMC_BANK0_SIZE < FMC_SIZE){
 212              		.loc 1 128 0
 213 000a 064B     		ldr	r3, .L19+4
 214 000c 1B88     		ldrh	r3, [r3]
 215 000e B3F5007F 		cmp	r3, #512
 216 0012 04D9     		bls	.L17
 129:C:/Users/49542/Desktop/GD32F30x_Demo_Suites_V2.0.0/GD32F30x_Demo_Suites_V2.0.0/GD32F30x_Firmware_Library/GD32F30x_standard_peripheral/Source\gd32f30x_fmc.c ****         /* set the LK bit */
 130:C:/Users/49542/Desktop/GD32F30x_Demo_Suites_V2.0.0/GD32F30x_Demo_Suites_V2.0.0/GD32F30x_Firmware_Library/GD32F30x_standard_peripheral/Source\gd32f30x_fmc.c ****         FMC_CTL1 |= FMC_CTL1_LK;
 217              		.loc 1 130 0
 218 0014 4032     		adds	r2, r2, #64
 219 0016 1368     		ldr	r3, [r2]
 220 0018 43F08003 		orr	r3, r3, #128
 221 001c 1360     		str	r3, [r2]
ARM GAS  C:\Users\49542\AppData\Local\Temp\cceCZdNg.s 			page 7


 222              	.L17:
 131:C:/Users/49542/Desktop/GD32F30x_Demo_Suites_V2.0.0/GD32F30x_Demo_Suites_V2.0.0/GD32F30x_Firmware_Library/GD32F30x_standard_peripheral/Source\gd32f30x_fmc.c ****     }
 132:C:/Users/49542/Desktop/GD32F30x_Demo_Suites_V2.0.0/GD32F30x_Demo_Suites_V2.0.0/GD32F30x_Firmware_Library/GD32F30x_standard_peripheral/Source\gd32f30x_fmc.c **** }
 223              		.loc 1 132 0
 224 001e 7047     		bx	lr
 225              	.L20:
 226              		.align	2
 227              	.L19:
 228 0020 10200240 		.word	1073881104
 229 0024 E0F7FF1F 		.word	536868832
 230              		.cfi_endproc
 231              	.LFE120:
 233              		.section	.text.fmc_bank0_lock,"ax",%progbits
 234              		.align	1
 235              		.global	fmc_bank0_lock
 236              		.syntax unified
 237              		.thumb
 238              		.thumb_func
 239              		.fpu fpv4-sp-d16
 241              	fmc_bank0_lock:
 242              	.LFB121:
 133:C:/Users/49542/Desktop/GD32F30x_Demo_Suites_V2.0.0/GD32F30x_Demo_Suites_V2.0.0/GD32F30x_Firmware_Library/GD32F30x_standard_peripheral/Source\gd32f30x_fmc.c **** 
 134:C:/Users/49542/Desktop/GD32F30x_Demo_Suites_V2.0.0/GD32F30x_Demo_Suites_V2.0.0/GD32F30x_Firmware_Library/GD32F30x_standard_peripheral/Source\gd32f30x_fmc.c **** /*!
 135:C:/Users/49542/Desktop/GD32F30x_Demo_Suites_V2.0.0/GD32F30x_Demo_Suites_V2.0.0/GD32F30x_Firmware_Library/GD32F30x_standard_peripheral/Source\gd32f30x_fmc.c ****     \brief      lock the FMC bank0 operation
 136:C:/Users/49542/Desktop/GD32F30x_Demo_Suites_V2.0.0/GD32F30x_Demo_Suites_V2.0.0/GD32F30x_Firmware_Library/GD32F30x_standard_peripheral/Source\gd32f30x_fmc.c ****                 this function can be used for all GD32F30X devices.
 137:C:/Users/49542/Desktop/GD32F30x_Demo_Suites_V2.0.0/GD32F30x_Demo_Suites_V2.0.0/GD32F30x_Firmware_Library/GD32F30x_standard_peripheral/Source\gd32f30x_fmc.c ****                 for GD32F30x with flash more than 512KB, this function locks bank0.
 138:C:/Users/49542/Desktop/GD32F30x_Demo_Suites_V2.0.0/GD32F30x_Demo_Suites_V2.0.0/GD32F30x_Firmware_Library/GD32F30x_standard_peripheral/Source\gd32f30x_fmc.c ****                 for GD32F30x with flash no more than 512KB and it is equivalent to fmc_lock functio
 139:C:/Users/49542/Desktop/GD32F30x_Demo_Suites_V2.0.0/GD32F30x_Demo_Suites_V2.0.0/GD32F30x_Firmware_Library/GD32F30x_standard_peripheral/Source\gd32f30x_fmc.c ****     \param[in]  none
 140:C:/Users/49542/Desktop/GD32F30x_Demo_Suites_V2.0.0/GD32F30x_Demo_Suites_V2.0.0/GD32F30x_Firmware_Library/GD32F30x_standard_peripheral/Source\gd32f30x_fmc.c ****     \param[out] none
 141:C:/Users/49542/Desktop/GD32F30x_Demo_Suites_V2.0.0/GD32F30x_Demo_Suites_V2.0.0/GD32F30x_Firmware_Library/GD32F30x_standard_peripheral/Source\gd32f30x_fmc.c ****     \retval     none
 142:C:/Users/49542/Desktop/GD32F30x_Demo_Suites_V2.0.0/GD32F30x_Demo_Suites_V2.0.0/GD32F30x_Firmware_Library/GD32F30x_standard_peripheral/Source\gd32f30x_fmc.c **** */
 143:C:/Users/49542/Desktop/GD32F30x_Demo_Suites_V2.0.0/GD32F30x_Demo_Suites_V2.0.0/GD32F30x_Firmware_Library/GD32F30x_standard_peripheral/Source\gd32f30x_fmc.c **** void fmc_bank0_lock(void)
 144:C:/Users/49542/Desktop/GD32F30x_Demo_Suites_V2.0.0/GD32F30x_Demo_Suites_V2.0.0/GD32F30x_Firmware_Library/GD32F30x_standard_peripheral/Source\gd32f30x_fmc.c **** {
 243              		.loc 1 144 0
 244              		.cfi_startproc
 245              		@ args = 0, pretend = 0, frame = 0
 246              		@ frame_needed = 0, uses_anonymous_args = 0
 247              		@ link register save eliminated.
 145:C:/Users/49542/Desktop/GD32F30x_Demo_Suites_V2.0.0/GD32F30x_Demo_Suites_V2.0.0/GD32F30x_Firmware_Library/GD32F30x_standard_peripheral/Source\gd32f30x_fmc.c ****     /* set the LK bit*/
 146:C:/Users/49542/Desktop/GD32F30x_Demo_Suites_V2.0.0/GD32F30x_Demo_Suites_V2.0.0/GD32F30x_Firmware_Library/GD32F30x_standard_peripheral/Source\gd32f30x_fmc.c ****     FMC_CTL0 |= FMC_CTL0_LK;
 248              		.loc 1 146 0
 249 0000 024A     		ldr	r2, .L22
 250 0002 1368     		ldr	r3, [r2]
 251 0004 43F08003 		orr	r3, r3, #128
 252 0008 1360     		str	r3, [r2]
 147:C:/Users/49542/Desktop/GD32F30x_Demo_Suites_V2.0.0/GD32F30x_Demo_Suites_V2.0.0/GD32F30x_Firmware_Library/GD32F30x_standard_peripheral/Source\gd32f30x_fmc.c **** }
 253              		.loc 1 147 0
 254 000a 7047     		bx	lr
 255              	.L23:
 256              		.align	2
 257              	.L22:
 258 000c 10200240 		.word	1073881104
 259              		.cfi_endproc
 260              	.LFE121:
 262              		.section	.text.fmc_bank1_lock,"ax",%progbits
 263              		.align	1
 264              		.global	fmc_bank1_lock
ARM GAS  C:\Users\49542\AppData\Local\Temp\cceCZdNg.s 			page 8


 265              		.syntax unified
 266              		.thumb
 267              		.thumb_func
 268              		.fpu fpv4-sp-d16
 270              	fmc_bank1_lock:
 271              	.LFB122:
 148:C:/Users/49542/Desktop/GD32F30x_Demo_Suites_V2.0.0/GD32F30x_Demo_Suites_V2.0.0/GD32F30x_Firmware_Library/GD32F30x_standard_peripheral/Source\gd32f30x_fmc.c **** 
 149:C:/Users/49542/Desktop/GD32F30x_Demo_Suites_V2.0.0/GD32F30x_Demo_Suites_V2.0.0/GD32F30x_Firmware_Library/GD32F30x_standard_peripheral/Source\gd32f30x_fmc.c **** /*!
 150:C:/Users/49542/Desktop/GD32F30x_Demo_Suites_V2.0.0/GD32F30x_Demo_Suites_V2.0.0/GD32F30x_Firmware_Library/GD32F30x_standard_peripheral/Source\gd32f30x_fmc.c ****     \brief      lock the FMC bank1 operation
 151:C:/Users/49542/Desktop/GD32F30x_Demo_Suites_V2.0.0/GD32F30x_Demo_Suites_V2.0.0/GD32F30x_Firmware_Library/GD32F30x_standard_peripheral/Source\gd32f30x_fmc.c ****                 this function can be used for GD32F30x with flash more than 512KB.
 152:C:/Users/49542/Desktop/GD32F30x_Demo_Suites_V2.0.0/GD32F30x_Demo_Suites_V2.0.0/GD32F30x_Firmware_Library/GD32F30x_standard_peripheral/Source\gd32f30x_fmc.c ****     \param[in]  none
 153:C:/Users/49542/Desktop/GD32F30x_Demo_Suites_V2.0.0/GD32F30x_Demo_Suites_V2.0.0/GD32F30x_Firmware_Library/GD32F30x_standard_peripheral/Source\gd32f30x_fmc.c ****     \param[out] none
 154:C:/Users/49542/Desktop/GD32F30x_Demo_Suites_V2.0.0/GD32F30x_Demo_Suites_V2.0.0/GD32F30x_Firmware_Library/GD32F30x_standard_peripheral/Source\gd32f30x_fmc.c ****     \retval     none
 155:C:/Users/49542/Desktop/GD32F30x_Demo_Suites_V2.0.0/GD32F30x_Demo_Suites_V2.0.0/GD32F30x_Firmware_Library/GD32F30x_standard_peripheral/Source\gd32f30x_fmc.c **** */
 156:C:/Users/49542/Desktop/GD32F30x_Demo_Suites_V2.0.0/GD32F30x_Demo_Suites_V2.0.0/GD32F30x_Firmware_Library/GD32F30x_standard_peripheral/Source\gd32f30x_fmc.c **** void fmc_bank1_lock(void)
 157:C:/Users/49542/Desktop/GD32F30x_Demo_Suites_V2.0.0/GD32F30x_Demo_Suites_V2.0.0/GD32F30x_Firmware_Library/GD32F30x_standard_peripheral/Source\gd32f30x_fmc.c **** {
 272              		.loc 1 157 0
 273              		.cfi_startproc
 274              		@ args = 0, pretend = 0, frame = 0
 275              		@ frame_needed = 0, uses_anonymous_args = 0
 276              		@ link register save eliminated.
 158:C:/Users/49542/Desktop/GD32F30x_Demo_Suites_V2.0.0/GD32F30x_Demo_Suites_V2.0.0/GD32F30x_Firmware_Library/GD32F30x_standard_peripheral/Source\gd32f30x_fmc.c ****     /* set the LK bit*/
 159:C:/Users/49542/Desktop/GD32F30x_Demo_Suites_V2.0.0/GD32F30x_Demo_Suites_V2.0.0/GD32F30x_Firmware_Library/GD32F30x_standard_peripheral/Source\gd32f30x_fmc.c ****     FMC_CTL1 |= FMC_CTL1_LK;
 277              		.loc 1 159 0
 278 0000 024A     		ldr	r2, .L25
 279 0002 1368     		ldr	r3, [r2]
 280 0004 43F08003 		orr	r3, r3, #128
 281 0008 1360     		str	r3, [r2]
 160:C:/Users/49542/Desktop/GD32F30x_Demo_Suites_V2.0.0/GD32F30x_Demo_Suites_V2.0.0/GD32F30x_Firmware_Library/GD32F30x_standard_peripheral/Source\gd32f30x_fmc.c **** }
 282              		.loc 1 160 0
 283 000a 7047     		bx	lr
 284              	.L26:
 285              		.align	2
 286              	.L25:
 287 000c 50200240 		.word	1073881168
 288              		.cfi_endproc
 289              	.LFE122:
 291              		.section	.text.ob_unlock,"ax",%progbits
 292              		.align	1
 293              		.global	ob_unlock
 294              		.syntax unified
 295              		.thumb
 296              		.thumb_func
 297              		.fpu fpv4-sp-d16
 299              	ob_unlock:
 300              	.LFB130:
 161:C:/Users/49542/Desktop/GD32F30x_Demo_Suites_V2.0.0/GD32F30x_Demo_Suites_V2.0.0/GD32F30x_Firmware_Library/GD32F30x_standard_peripheral/Source\gd32f30x_fmc.c **** 
 162:C:/Users/49542/Desktop/GD32F30x_Demo_Suites_V2.0.0/GD32F30x_Demo_Suites_V2.0.0/GD32F30x_Firmware_Library/GD32F30x_standard_peripheral/Source\gd32f30x_fmc.c **** /*!
 163:C:/Users/49542/Desktop/GD32F30x_Demo_Suites_V2.0.0/GD32F30x_Demo_Suites_V2.0.0/GD32F30x_Firmware_Library/GD32F30x_standard_peripheral/Source\gd32f30x_fmc.c ****     \brief      erase page
 164:C:/Users/49542/Desktop/GD32F30x_Demo_Suites_V2.0.0/GD32F30x_Demo_Suites_V2.0.0/GD32F30x_Firmware_Library/GD32F30x_standard_peripheral/Source\gd32f30x_fmc.c ****     \param[in]  page_address: the page address to be erased.
 165:C:/Users/49542/Desktop/GD32F30x_Demo_Suites_V2.0.0/GD32F30x_Demo_Suites_V2.0.0/GD32F30x_Firmware_Library/GD32F30x_standard_peripheral/Source\gd32f30x_fmc.c ****     \param[out] none
 166:C:/Users/49542/Desktop/GD32F30x_Demo_Suites_V2.0.0/GD32F30x_Demo_Suites_V2.0.0/GD32F30x_Firmware_Library/GD32F30x_standard_peripheral/Source\gd32f30x_fmc.c ****     \retval     state of FMC, refer to fmc_state_enum
 167:C:/Users/49542/Desktop/GD32F30x_Demo_Suites_V2.0.0/GD32F30x_Demo_Suites_V2.0.0/GD32F30x_Firmware_Library/GD32F30x_standard_peripheral/Source\gd32f30x_fmc.c **** */
 168:C:/Users/49542/Desktop/GD32F30x_Demo_Suites_V2.0.0/GD32F30x_Demo_Suites_V2.0.0/GD32F30x_Firmware_Library/GD32F30x_standard_peripheral/Source\gd32f30x_fmc.c **** fmc_state_enum fmc_page_erase(uint32_t page_address)
 169:C:/Users/49542/Desktop/GD32F30x_Demo_Suites_V2.0.0/GD32F30x_Demo_Suites_V2.0.0/GD32F30x_Firmware_Library/GD32F30x_standard_peripheral/Source\gd32f30x_fmc.c **** {
 170:C:/Users/49542/Desktop/GD32F30x_Demo_Suites_V2.0.0/GD32F30x_Demo_Suites_V2.0.0/GD32F30x_Firmware_Library/GD32F30x_standard_peripheral/Source\gd32f30x_fmc.c ****     fmc_state_enum fmc_state;
 171:C:/Users/49542/Desktop/GD32F30x_Demo_Suites_V2.0.0/GD32F30x_Demo_Suites_V2.0.0/GD32F30x_Firmware_Library/GD32F30x_standard_peripheral/Source\gd32f30x_fmc.c ****     
ARM GAS  C:\Users\49542\AppData\Local\Temp\cceCZdNg.s 			page 9


 172:C:/Users/49542/Desktop/GD32F30x_Demo_Suites_V2.0.0/GD32F30x_Demo_Suites_V2.0.0/GD32F30x_Firmware_Library/GD32F30x_standard_peripheral/Source\gd32f30x_fmc.c ****     if(FMC_BANK0_SIZE < FMC_SIZE){
 173:C:/Users/49542/Desktop/GD32F30x_Demo_Suites_V2.0.0/GD32F30x_Demo_Suites_V2.0.0/GD32F30x_Firmware_Library/GD32F30x_standard_peripheral/Source\gd32f30x_fmc.c ****         if(FMC_BANK0_END_ADDRESS > page_address){
 174:C:/Users/49542/Desktop/GD32F30x_Demo_Suites_V2.0.0/GD32F30x_Demo_Suites_V2.0.0/GD32F30x_Firmware_Library/GD32F30x_standard_peripheral/Source\gd32f30x_fmc.c ****             fmc_state = fmc_bank0_ready_wait(FMC_TIMEOUT_COUNT);
 175:C:/Users/49542/Desktop/GD32F30x_Demo_Suites_V2.0.0/GD32F30x_Demo_Suites_V2.0.0/GD32F30x_Firmware_Library/GD32F30x_standard_peripheral/Source\gd32f30x_fmc.c ****             /* if the last operation is completed, start page erase */
 176:C:/Users/49542/Desktop/GD32F30x_Demo_Suites_V2.0.0/GD32F30x_Demo_Suites_V2.0.0/GD32F30x_Firmware_Library/GD32F30x_standard_peripheral/Source\gd32f30x_fmc.c ****             if(FMC_READY == fmc_state){
 177:C:/Users/49542/Desktop/GD32F30x_Demo_Suites_V2.0.0/GD32F30x_Demo_Suites_V2.0.0/GD32F30x_Firmware_Library/GD32F30x_standard_peripheral/Source\gd32f30x_fmc.c ****                 FMC_CTL0 |= FMC_CTL0_PER;
 178:C:/Users/49542/Desktop/GD32F30x_Demo_Suites_V2.0.0/GD32F30x_Demo_Suites_V2.0.0/GD32F30x_Firmware_Library/GD32F30x_standard_peripheral/Source\gd32f30x_fmc.c ****                 FMC_ADDR0 = page_address;
 179:C:/Users/49542/Desktop/GD32F30x_Demo_Suites_V2.0.0/GD32F30x_Demo_Suites_V2.0.0/GD32F30x_Firmware_Library/GD32F30x_standard_peripheral/Source\gd32f30x_fmc.c ****                 FMC_CTL0 |= FMC_CTL0_START;
 180:C:/Users/49542/Desktop/GD32F30x_Demo_Suites_V2.0.0/GD32F30x_Demo_Suites_V2.0.0/GD32F30x_Firmware_Library/GD32F30x_standard_peripheral/Source\gd32f30x_fmc.c ****                 /* wait for the FMC ready */
 181:C:/Users/49542/Desktop/GD32F30x_Demo_Suites_V2.0.0/GD32F30x_Demo_Suites_V2.0.0/GD32F30x_Firmware_Library/GD32F30x_standard_peripheral/Source\gd32f30x_fmc.c ****                 fmc_state = fmc_bank0_ready_wait(FMC_TIMEOUT_COUNT);
 182:C:/Users/49542/Desktop/GD32F30x_Demo_Suites_V2.0.0/GD32F30x_Demo_Suites_V2.0.0/GD32F30x_Firmware_Library/GD32F30x_standard_peripheral/Source\gd32f30x_fmc.c ****                 /* reset the PER bit */
 183:C:/Users/49542/Desktop/GD32F30x_Demo_Suites_V2.0.0/GD32F30x_Demo_Suites_V2.0.0/GD32F30x_Firmware_Library/GD32F30x_standard_peripheral/Source\gd32f30x_fmc.c ****                 FMC_CTL0 &= ~FMC_CTL0_PER;
 184:C:/Users/49542/Desktop/GD32F30x_Demo_Suites_V2.0.0/GD32F30x_Demo_Suites_V2.0.0/GD32F30x_Firmware_Library/GD32F30x_standard_peripheral/Source\gd32f30x_fmc.c ****             }
 185:C:/Users/49542/Desktop/GD32F30x_Demo_Suites_V2.0.0/GD32F30x_Demo_Suites_V2.0.0/GD32F30x_Firmware_Library/GD32F30x_standard_peripheral/Source\gd32f30x_fmc.c ****         }else{
 186:C:/Users/49542/Desktop/GD32F30x_Demo_Suites_V2.0.0/GD32F30x_Demo_Suites_V2.0.0/GD32F30x_Firmware_Library/GD32F30x_standard_peripheral/Source\gd32f30x_fmc.c ****             /* wait for the FMC ready */
 187:C:/Users/49542/Desktop/GD32F30x_Demo_Suites_V2.0.0/GD32F30x_Demo_Suites_V2.0.0/GD32F30x_Firmware_Library/GD32F30x_standard_peripheral/Source\gd32f30x_fmc.c ****             fmc_state = fmc_bank1_ready_wait(FMC_TIMEOUT_COUNT);
 188:C:/Users/49542/Desktop/GD32F30x_Demo_Suites_V2.0.0/GD32F30x_Demo_Suites_V2.0.0/GD32F30x_Firmware_Library/GD32F30x_standard_peripheral/Source\gd32f30x_fmc.c ****             /* if the last operation is completed, start page erase */
 189:C:/Users/49542/Desktop/GD32F30x_Demo_Suites_V2.0.0/GD32F30x_Demo_Suites_V2.0.0/GD32F30x_Firmware_Library/GD32F30x_standard_peripheral/Source\gd32f30x_fmc.c ****             if(FMC_READY == fmc_state){
 190:C:/Users/49542/Desktop/GD32F30x_Demo_Suites_V2.0.0/GD32F30x_Demo_Suites_V2.0.0/GD32F30x_Firmware_Library/GD32F30x_standard_peripheral/Source\gd32f30x_fmc.c ****                 FMC_CTL1 |= FMC_CTL1_PER;
 191:C:/Users/49542/Desktop/GD32F30x_Demo_Suites_V2.0.0/GD32F30x_Demo_Suites_V2.0.0/GD32F30x_Firmware_Library/GD32F30x_standard_peripheral/Source\gd32f30x_fmc.c ****                 FMC_ADDR1 = page_address;
 192:C:/Users/49542/Desktop/GD32F30x_Demo_Suites_V2.0.0/GD32F30x_Demo_Suites_V2.0.0/GD32F30x_Firmware_Library/GD32F30x_standard_peripheral/Source\gd32f30x_fmc.c ****                 if(FMC_OBSTAT & FMC_OBSTAT_SPC){
 193:C:/Users/49542/Desktop/GD32F30x_Demo_Suites_V2.0.0/GD32F30x_Demo_Suites_V2.0.0/GD32F30x_Firmware_Library/GD32F30x_standard_peripheral/Source\gd32f30x_fmc.c ****                     FMC_ADDR0 = page_address;
 194:C:/Users/49542/Desktop/GD32F30x_Demo_Suites_V2.0.0/GD32F30x_Demo_Suites_V2.0.0/GD32F30x_Firmware_Library/GD32F30x_standard_peripheral/Source\gd32f30x_fmc.c ****                 }
 195:C:/Users/49542/Desktop/GD32F30x_Demo_Suites_V2.0.0/GD32F30x_Demo_Suites_V2.0.0/GD32F30x_Firmware_Library/GD32F30x_standard_peripheral/Source\gd32f30x_fmc.c ****                 FMC_CTL1 |= FMC_CTL1_START;
 196:C:/Users/49542/Desktop/GD32F30x_Demo_Suites_V2.0.0/GD32F30x_Demo_Suites_V2.0.0/GD32F30x_Firmware_Library/GD32F30x_standard_peripheral/Source\gd32f30x_fmc.c ****                 /* wait for the FMC ready */
 197:C:/Users/49542/Desktop/GD32F30x_Demo_Suites_V2.0.0/GD32F30x_Demo_Suites_V2.0.0/GD32F30x_Firmware_Library/GD32F30x_standard_peripheral/Source\gd32f30x_fmc.c ****                 fmc_state = fmc_bank1_ready_wait(FMC_TIMEOUT_COUNT);
 198:C:/Users/49542/Desktop/GD32F30x_Demo_Suites_V2.0.0/GD32F30x_Demo_Suites_V2.0.0/GD32F30x_Firmware_Library/GD32F30x_standard_peripheral/Source\gd32f30x_fmc.c ****                 /* reset the PER bit */
 199:C:/Users/49542/Desktop/GD32F30x_Demo_Suites_V2.0.0/GD32F30x_Demo_Suites_V2.0.0/GD32F30x_Firmware_Library/GD32F30x_standard_peripheral/Source\gd32f30x_fmc.c ****                 FMC_CTL1 &= ~FMC_CTL1_PER;
 200:C:/Users/49542/Desktop/GD32F30x_Demo_Suites_V2.0.0/GD32F30x_Demo_Suites_V2.0.0/GD32F30x_Firmware_Library/GD32F30x_standard_peripheral/Source\gd32f30x_fmc.c ****             }
 201:C:/Users/49542/Desktop/GD32F30x_Demo_Suites_V2.0.0/GD32F30x_Demo_Suites_V2.0.0/GD32F30x_Firmware_Library/GD32F30x_standard_peripheral/Source\gd32f30x_fmc.c ****         }
 202:C:/Users/49542/Desktop/GD32F30x_Demo_Suites_V2.0.0/GD32F30x_Demo_Suites_V2.0.0/GD32F30x_Firmware_Library/GD32F30x_standard_peripheral/Source\gd32f30x_fmc.c ****     }else{
 203:C:/Users/49542/Desktop/GD32F30x_Demo_Suites_V2.0.0/GD32F30x_Demo_Suites_V2.0.0/GD32F30x_Firmware_Library/GD32F30x_standard_peripheral/Source\gd32f30x_fmc.c ****         fmc_state = fmc_bank0_ready_wait(FMC_TIMEOUT_COUNT);
 204:C:/Users/49542/Desktop/GD32F30x_Demo_Suites_V2.0.0/GD32F30x_Demo_Suites_V2.0.0/GD32F30x_Firmware_Library/GD32F30x_standard_peripheral/Source\gd32f30x_fmc.c ****         /* if the last operation is completed, start page erase */
 205:C:/Users/49542/Desktop/GD32F30x_Demo_Suites_V2.0.0/GD32F30x_Demo_Suites_V2.0.0/GD32F30x_Firmware_Library/GD32F30x_standard_peripheral/Source\gd32f30x_fmc.c ****         if(FMC_READY == fmc_state){
 206:C:/Users/49542/Desktop/GD32F30x_Demo_Suites_V2.0.0/GD32F30x_Demo_Suites_V2.0.0/GD32F30x_Firmware_Library/GD32F30x_standard_peripheral/Source\gd32f30x_fmc.c ****             FMC_CTL0 |= FMC_CTL0_PER;
 207:C:/Users/49542/Desktop/GD32F30x_Demo_Suites_V2.0.0/GD32F30x_Demo_Suites_V2.0.0/GD32F30x_Firmware_Library/GD32F30x_standard_peripheral/Source\gd32f30x_fmc.c ****             FMC_ADDR0 = page_address;
 208:C:/Users/49542/Desktop/GD32F30x_Demo_Suites_V2.0.0/GD32F30x_Demo_Suites_V2.0.0/GD32F30x_Firmware_Library/GD32F30x_standard_peripheral/Source\gd32f30x_fmc.c ****             FMC_CTL0 |= FMC_CTL0_START;
 209:C:/Users/49542/Desktop/GD32F30x_Demo_Suites_V2.0.0/GD32F30x_Demo_Suites_V2.0.0/GD32F30x_Firmware_Library/GD32F30x_standard_peripheral/Source\gd32f30x_fmc.c ****             /* wait for the FMC ready */
 210:C:/Users/49542/Desktop/GD32F30x_Demo_Suites_V2.0.0/GD32F30x_Demo_Suites_V2.0.0/GD32F30x_Firmware_Library/GD32F30x_standard_peripheral/Source\gd32f30x_fmc.c ****             fmc_state = fmc_bank0_ready_wait(FMC_TIMEOUT_COUNT);
 211:C:/Users/49542/Desktop/GD32F30x_Demo_Suites_V2.0.0/GD32F30x_Demo_Suites_V2.0.0/GD32F30x_Firmware_Library/GD32F30x_standard_peripheral/Source\gd32f30x_fmc.c ****             /* reset the PER bit */
 212:C:/Users/49542/Desktop/GD32F30x_Demo_Suites_V2.0.0/GD32F30x_Demo_Suites_V2.0.0/GD32F30x_Firmware_Library/GD32F30x_standard_peripheral/Source\gd32f30x_fmc.c ****             FMC_CTL0 &= ~FMC_CTL0_PER;
 213:C:/Users/49542/Desktop/GD32F30x_Demo_Suites_V2.0.0/GD32F30x_Demo_Suites_V2.0.0/GD32F30x_Firmware_Library/GD32F30x_standard_peripheral/Source\gd32f30x_fmc.c ****         }
 214:C:/Users/49542/Desktop/GD32F30x_Demo_Suites_V2.0.0/GD32F30x_Demo_Suites_V2.0.0/GD32F30x_Firmware_Library/GD32F30x_standard_peripheral/Source\gd32f30x_fmc.c ****     }
 215:C:/Users/49542/Desktop/GD32F30x_Demo_Suites_V2.0.0/GD32F30x_Demo_Suites_V2.0.0/GD32F30x_Firmware_Library/GD32F30x_standard_peripheral/Source\gd32f30x_fmc.c ****     /* return the FMC state */
 216:C:/Users/49542/Desktop/GD32F30x_Demo_Suites_V2.0.0/GD32F30x_Demo_Suites_V2.0.0/GD32F30x_Firmware_Library/GD32F30x_standard_peripheral/Source\gd32f30x_fmc.c ****     return fmc_state;
 217:C:/Users/49542/Desktop/GD32F30x_Demo_Suites_V2.0.0/GD32F30x_Demo_Suites_V2.0.0/GD32F30x_Firmware_Library/GD32F30x_standard_peripheral/Source\gd32f30x_fmc.c **** }
 218:C:/Users/49542/Desktop/GD32F30x_Demo_Suites_V2.0.0/GD32F30x_Demo_Suites_V2.0.0/GD32F30x_Firmware_Library/GD32F30x_standard_peripheral/Source\gd32f30x_fmc.c **** 
 219:C:/Users/49542/Desktop/GD32F30x_Demo_Suites_V2.0.0/GD32F30x_Demo_Suites_V2.0.0/GD32F30x_Firmware_Library/GD32F30x_standard_peripheral/Source\gd32f30x_fmc.c **** /*!
 220:C:/Users/49542/Desktop/GD32F30x_Demo_Suites_V2.0.0/GD32F30x_Demo_Suites_V2.0.0/GD32F30x_Firmware_Library/GD32F30x_standard_peripheral/Source\gd32f30x_fmc.c ****     \brief      erase whole chip
 221:C:/Users/49542/Desktop/GD32F30x_Demo_Suites_V2.0.0/GD32F30x_Demo_Suites_V2.0.0/GD32F30x_Firmware_Library/GD32F30x_standard_peripheral/Source\gd32f30x_fmc.c ****     \param[in]  none
 222:C:/Users/49542/Desktop/GD32F30x_Demo_Suites_V2.0.0/GD32F30x_Demo_Suites_V2.0.0/GD32F30x_Firmware_Library/GD32F30x_standard_peripheral/Source\gd32f30x_fmc.c ****     \param[out] none
 223:C:/Users/49542/Desktop/GD32F30x_Demo_Suites_V2.0.0/GD32F30x_Demo_Suites_V2.0.0/GD32F30x_Firmware_Library/GD32F30x_standard_peripheral/Source\gd32f30x_fmc.c ****     \retval     state of FMC, refer to fmc_state_enum
 224:C:/Users/49542/Desktop/GD32F30x_Demo_Suites_V2.0.0/GD32F30x_Demo_Suites_V2.0.0/GD32F30x_Firmware_Library/GD32F30x_standard_peripheral/Source\gd32f30x_fmc.c **** */
 225:C:/Users/49542/Desktop/GD32F30x_Demo_Suites_V2.0.0/GD32F30x_Demo_Suites_V2.0.0/GD32F30x_Firmware_Library/GD32F30x_standard_peripheral/Source\gd32f30x_fmc.c **** fmc_state_enum fmc_mass_erase(void)
 226:C:/Users/49542/Desktop/GD32F30x_Demo_Suites_V2.0.0/GD32F30x_Demo_Suites_V2.0.0/GD32F30x_Firmware_Library/GD32F30x_standard_peripheral/Source\gd32f30x_fmc.c **** {
 227:C:/Users/49542/Desktop/GD32F30x_Demo_Suites_V2.0.0/GD32F30x_Demo_Suites_V2.0.0/GD32F30x_Firmware_Library/GD32F30x_standard_peripheral/Source\gd32f30x_fmc.c ****     fmc_state_enum fmc_state;
 228:C:/Users/49542/Desktop/GD32F30x_Demo_Suites_V2.0.0/GD32F30x_Demo_Suites_V2.0.0/GD32F30x_Firmware_Library/GD32F30x_standard_peripheral/Source\gd32f30x_fmc.c ****     if(FMC_BANK0_SIZE < FMC_SIZE){
ARM GAS  C:\Users\49542\AppData\Local\Temp\cceCZdNg.s 			page 10


 229:C:/Users/49542/Desktop/GD32F30x_Demo_Suites_V2.0.0/GD32F30x_Demo_Suites_V2.0.0/GD32F30x_Firmware_Library/GD32F30x_standard_peripheral/Source\gd32f30x_fmc.c ****         /* wait for the FMC ready */
 230:C:/Users/49542/Desktop/GD32F30x_Demo_Suites_V2.0.0/GD32F30x_Demo_Suites_V2.0.0/GD32F30x_Firmware_Library/GD32F30x_standard_peripheral/Source\gd32f30x_fmc.c ****         fmc_state = fmc_bank0_ready_wait(FMC_TIMEOUT_COUNT);
 231:C:/Users/49542/Desktop/GD32F30x_Demo_Suites_V2.0.0/GD32F30x_Demo_Suites_V2.0.0/GD32F30x_Firmware_Library/GD32F30x_standard_peripheral/Source\gd32f30x_fmc.c ****         if(FMC_READY == fmc_state){
 232:C:/Users/49542/Desktop/GD32F30x_Demo_Suites_V2.0.0/GD32F30x_Demo_Suites_V2.0.0/GD32F30x_Firmware_Library/GD32F30x_standard_peripheral/Source\gd32f30x_fmc.c ****             /* start whole chip erase */
 233:C:/Users/49542/Desktop/GD32F30x_Demo_Suites_V2.0.0/GD32F30x_Demo_Suites_V2.0.0/GD32F30x_Firmware_Library/GD32F30x_standard_peripheral/Source\gd32f30x_fmc.c ****             FMC_CTL0 |= FMC_CTL0_MER;
 234:C:/Users/49542/Desktop/GD32F30x_Demo_Suites_V2.0.0/GD32F30x_Demo_Suites_V2.0.0/GD32F30x_Firmware_Library/GD32F30x_standard_peripheral/Source\gd32f30x_fmc.c ****             FMC_CTL0 |= FMC_CTL0_START;
 235:C:/Users/49542/Desktop/GD32F30x_Demo_Suites_V2.0.0/GD32F30x_Demo_Suites_V2.0.0/GD32F30x_Firmware_Library/GD32F30x_standard_peripheral/Source\gd32f30x_fmc.c ****             /* wait for the FMC ready */
 236:C:/Users/49542/Desktop/GD32F30x_Demo_Suites_V2.0.0/GD32F30x_Demo_Suites_V2.0.0/GD32F30x_Firmware_Library/GD32F30x_standard_peripheral/Source\gd32f30x_fmc.c ****             fmc_state = fmc_bank0_ready_wait(FMC_TIMEOUT_COUNT);
 237:C:/Users/49542/Desktop/GD32F30x_Demo_Suites_V2.0.0/GD32F30x_Demo_Suites_V2.0.0/GD32F30x_Firmware_Library/GD32F30x_standard_peripheral/Source\gd32f30x_fmc.c ****             /* reset the MER bit */
 238:C:/Users/49542/Desktop/GD32F30x_Demo_Suites_V2.0.0/GD32F30x_Demo_Suites_V2.0.0/GD32F30x_Firmware_Library/GD32F30x_standard_peripheral/Source\gd32f30x_fmc.c ****             FMC_CTL0 &= ~FMC_CTL0_MER;
 239:C:/Users/49542/Desktop/GD32F30x_Demo_Suites_V2.0.0/GD32F30x_Demo_Suites_V2.0.0/GD32F30x_Firmware_Library/GD32F30x_standard_peripheral/Source\gd32f30x_fmc.c ****         }
 240:C:/Users/49542/Desktop/GD32F30x_Demo_Suites_V2.0.0/GD32F30x_Demo_Suites_V2.0.0/GD32F30x_Firmware_Library/GD32F30x_standard_peripheral/Source\gd32f30x_fmc.c ****         fmc_state = fmc_bank1_ready_wait(FMC_TIMEOUT_COUNT);
 241:C:/Users/49542/Desktop/GD32F30x_Demo_Suites_V2.0.0/GD32F30x_Demo_Suites_V2.0.0/GD32F30x_Firmware_Library/GD32F30x_standard_peripheral/Source\gd32f30x_fmc.c ****         if(FMC_READY == fmc_state){
 242:C:/Users/49542/Desktop/GD32F30x_Demo_Suites_V2.0.0/GD32F30x_Demo_Suites_V2.0.0/GD32F30x_Firmware_Library/GD32F30x_standard_peripheral/Source\gd32f30x_fmc.c ****             /* start whole chip erase */
 243:C:/Users/49542/Desktop/GD32F30x_Demo_Suites_V2.0.0/GD32F30x_Demo_Suites_V2.0.0/GD32F30x_Firmware_Library/GD32F30x_standard_peripheral/Source\gd32f30x_fmc.c ****             FMC_CTL1 |= FMC_CTL1_MER;
 244:C:/Users/49542/Desktop/GD32F30x_Demo_Suites_V2.0.0/GD32F30x_Demo_Suites_V2.0.0/GD32F30x_Firmware_Library/GD32F30x_standard_peripheral/Source\gd32f30x_fmc.c ****             FMC_CTL1 |= FMC_CTL1_START;
 245:C:/Users/49542/Desktop/GD32F30x_Demo_Suites_V2.0.0/GD32F30x_Demo_Suites_V2.0.0/GD32F30x_Firmware_Library/GD32F30x_standard_peripheral/Source\gd32f30x_fmc.c ****             /* wait for the FMC ready */
 246:C:/Users/49542/Desktop/GD32F30x_Demo_Suites_V2.0.0/GD32F30x_Demo_Suites_V2.0.0/GD32F30x_Firmware_Library/GD32F30x_standard_peripheral/Source\gd32f30x_fmc.c ****             fmc_state = fmc_bank1_ready_wait(FMC_TIMEOUT_COUNT);
 247:C:/Users/49542/Desktop/GD32F30x_Demo_Suites_V2.0.0/GD32F30x_Demo_Suites_V2.0.0/GD32F30x_Firmware_Library/GD32F30x_standard_peripheral/Source\gd32f30x_fmc.c ****             /* reset the MER bit */
 248:C:/Users/49542/Desktop/GD32F30x_Demo_Suites_V2.0.0/GD32F30x_Demo_Suites_V2.0.0/GD32F30x_Firmware_Library/GD32F30x_standard_peripheral/Source\gd32f30x_fmc.c ****             FMC_CTL1 &= ~FMC_CTL1_MER;
 249:C:/Users/49542/Desktop/GD32F30x_Demo_Suites_V2.0.0/GD32F30x_Demo_Suites_V2.0.0/GD32F30x_Firmware_Library/GD32F30x_standard_peripheral/Source\gd32f30x_fmc.c ****         }
 250:C:/Users/49542/Desktop/GD32F30x_Demo_Suites_V2.0.0/GD32F30x_Demo_Suites_V2.0.0/GD32F30x_Firmware_Library/GD32F30x_standard_peripheral/Source\gd32f30x_fmc.c ****     }else{
 251:C:/Users/49542/Desktop/GD32F30x_Demo_Suites_V2.0.0/GD32F30x_Demo_Suites_V2.0.0/GD32F30x_Firmware_Library/GD32F30x_standard_peripheral/Source\gd32f30x_fmc.c ****         fmc_state = fmc_bank0_ready_wait(FMC_TIMEOUT_COUNT);
 252:C:/Users/49542/Desktop/GD32F30x_Demo_Suites_V2.0.0/GD32F30x_Demo_Suites_V2.0.0/GD32F30x_Firmware_Library/GD32F30x_standard_peripheral/Source\gd32f30x_fmc.c ****   
 253:C:/Users/49542/Desktop/GD32F30x_Demo_Suites_V2.0.0/GD32F30x_Demo_Suites_V2.0.0/GD32F30x_Firmware_Library/GD32F30x_standard_peripheral/Source\gd32f30x_fmc.c ****         if(FMC_READY == fmc_state){
 254:C:/Users/49542/Desktop/GD32F30x_Demo_Suites_V2.0.0/GD32F30x_Demo_Suites_V2.0.0/GD32F30x_Firmware_Library/GD32F30x_standard_peripheral/Source\gd32f30x_fmc.c ****             /* start whole chip erase */
 255:C:/Users/49542/Desktop/GD32F30x_Demo_Suites_V2.0.0/GD32F30x_Demo_Suites_V2.0.0/GD32F30x_Firmware_Library/GD32F30x_standard_peripheral/Source\gd32f30x_fmc.c ****             FMC_CTL0 |= FMC_CTL0_MER;
 256:C:/Users/49542/Desktop/GD32F30x_Demo_Suites_V2.0.0/GD32F30x_Demo_Suites_V2.0.0/GD32F30x_Firmware_Library/GD32F30x_standard_peripheral/Source\gd32f30x_fmc.c ****             FMC_CTL0 |= FMC_CTL0_START;    
 257:C:/Users/49542/Desktop/GD32F30x_Demo_Suites_V2.0.0/GD32F30x_Demo_Suites_V2.0.0/GD32F30x_Firmware_Library/GD32F30x_standard_peripheral/Source\gd32f30x_fmc.c ****             /* wait for the FMC ready */
 258:C:/Users/49542/Desktop/GD32F30x_Demo_Suites_V2.0.0/GD32F30x_Demo_Suites_V2.0.0/GD32F30x_Firmware_Library/GD32F30x_standard_peripheral/Source\gd32f30x_fmc.c ****             fmc_state = fmc_bank0_ready_wait(FMC_TIMEOUT_COUNT);
 259:C:/Users/49542/Desktop/GD32F30x_Demo_Suites_V2.0.0/GD32F30x_Demo_Suites_V2.0.0/GD32F30x_Firmware_Library/GD32F30x_standard_peripheral/Source\gd32f30x_fmc.c ****             /* reset the MER bit */
 260:C:/Users/49542/Desktop/GD32F30x_Demo_Suites_V2.0.0/GD32F30x_Demo_Suites_V2.0.0/GD32F30x_Firmware_Library/GD32F30x_standard_peripheral/Source\gd32f30x_fmc.c ****             FMC_CTL0 &= ~FMC_CTL0_MER;
 261:C:/Users/49542/Desktop/GD32F30x_Demo_Suites_V2.0.0/GD32F30x_Demo_Suites_V2.0.0/GD32F30x_Firmware_Library/GD32F30x_standard_peripheral/Source\gd32f30x_fmc.c ****         }
 262:C:/Users/49542/Desktop/GD32F30x_Demo_Suites_V2.0.0/GD32F30x_Demo_Suites_V2.0.0/GD32F30x_Firmware_Library/GD32F30x_standard_peripheral/Source\gd32f30x_fmc.c ****     }
 263:C:/Users/49542/Desktop/GD32F30x_Demo_Suites_V2.0.0/GD32F30x_Demo_Suites_V2.0.0/GD32F30x_Firmware_Library/GD32F30x_standard_peripheral/Source\gd32f30x_fmc.c ****     /* return the FMC state  */
 264:C:/Users/49542/Desktop/GD32F30x_Demo_Suites_V2.0.0/GD32F30x_Demo_Suites_V2.0.0/GD32F30x_Firmware_Library/GD32F30x_standard_peripheral/Source\gd32f30x_fmc.c ****     return fmc_state;
 265:C:/Users/49542/Desktop/GD32F30x_Demo_Suites_V2.0.0/GD32F30x_Demo_Suites_V2.0.0/GD32F30x_Firmware_Library/GD32F30x_standard_peripheral/Source\gd32f30x_fmc.c **** }
 266:C:/Users/49542/Desktop/GD32F30x_Demo_Suites_V2.0.0/GD32F30x_Demo_Suites_V2.0.0/GD32F30x_Firmware_Library/GD32F30x_standard_peripheral/Source\gd32f30x_fmc.c **** 
 267:C:/Users/49542/Desktop/GD32F30x_Demo_Suites_V2.0.0/GD32F30x_Demo_Suites_V2.0.0/GD32F30x_Firmware_Library/GD32F30x_standard_peripheral/Source\gd32f30x_fmc.c **** /*!
 268:C:/Users/49542/Desktop/GD32F30x_Demo_Suites_V2.0.0/GD32F30x_Demo_Suites_V2.0.0/GD32F30x_Firmware_Library/GD32F30x_standard_peripheral/Source\gd32f30x_fmc.c ****     \brief      erase bank0
 269:C:/Users/49542/Desktop/GD32F30x_Demo_Suites_V2.0.0/GD32F30x_Demo_Suites_V2.0.0/GD32F30x_Firmware_Library/GD32F30x_standard_peripheral/Source\gd32f30x_fmc.c ****     \param[in]  none
 270:C:/Users/49542/Desktop/GD32F30x_Demo_Suites_V2.0.0/GD32F30x_Demo_Suites_V2.0.0/GD32F30x_Firmware_Library/GD32F30x_standard_peripheral/Source\gd32f30x_fmc.c ****     \param[out] none
 271:C:/Users/49542/Desktop/GD32F30x_Demo_Suites_V2.0.0/GD32F30x_Demo_Suites_V2.0.0/GD32F30x_Firmware_Library/GD32F30x_standard_peripheral/Source\gd32f30x_fmc.c ****     \retval     state of FMC, refer to fmc_state_enum
 272:C:/Users/49542/Desktop/GD32F30x_Demo_Suites_V2.0.0/GD32F30x_Demo_Suites_V2.0.0/GD32F30x_Firmware_Library/GD32F30x_standard_peripheral/Source\gd32f30x_fmc.c **** */
 273:C:/Users/49542/Desktop/GD32F30x_Demo_Suites_V2.0.0/GD32F30x_Demo_Suites_V2.0.0/GD32F30x_Firmware_Library/GD32F30x_standard_peripheral/Source\gd32f30x_fmc.c **** fmc_state_enum fmc_bank0_erase(void)
 274:C:/Users/49542/Desktop/GD32F30x_Demo_Suites_V2.0.0/GD32F30x_Demo_Suites_V2.0.0/GD32F30x_Firmware_Library/GD32F30x_standard_peripheral/Source\gd32f30x_fmc.c **** {
 275:C:/Users/49542/Desktop/GD32F30x_Demo_Suites_V2.0.0/GD32F30x_Demo_Suites_V2.0.0/GD32F30x_Firmware_Library/GD32F30x_standard_peripheral/Source\gd32f30x_fmc.c ****     fmc_state_enum fmc_state = FMC_READY;
 276:C:/Users/49542/Desktop/GD32F30x_Demo_Suites_V2.0.0/GD32F30x_Demo_Suites_V2.0.0/GD32F30x_Firmware_Library/GD32F30x_standard_peripheral/Source\gd32f30x_fmc.c ****     /* wait for the FMC ready */
 277:C:/Users/49542/Desktop/GD32F30x_Demo_Suites_V2.0.0/GD32F30x_Demo_Suites_V2.0.0/GD32F30x_Firmware_Library/GD32F30x_standard_peripheral/Source\gd32f30x_fmc.c ****     fmc_state = fmc_bank0_ready_wait(FMC_TIMEOUT_COUNT);
 278:C:/Users/49542/Desktop/GD32F30x_Demo_Suites_V2.0.0/GD32F30x_Demo_Suites_V2.0.0/GD32F30x_Firmware_Library/GD32F30x_standard_peripheral/Source\gd32f30x_fmc.c **** 
 279:C:/Users/49542/Desktop/GD32F30x_Demo_Suites_V2.0.0/GD32F30x_Demo_Suites_V2.0.0/GD32F30x_Firmware_Library/GD32F30x_standard_peripheral/Source\gd32f30x_fmc.c ****     if(FMC_READY == fmc_state){
 280:C:/Users/49542/Desktop/GD32F30x_Demo_Suites_V2.0.0/GD32F30x_Demo_Suites_V2.0.0/GD32F30x_Firmware_Library/GD32F30x_standard_peripheral/Source\gd32f30x_fmc.c ****         /* start FMC bank0 erase */
 281:C:/Users/49542/Desktop/GD32F30x_Demo_Suites_V2.0.0/GD32F30x_Demo_Suites_V2.0.0/GD32F30x_Firmware_Library/GD32F30x_standard_peripheral/Source\gd32f30x_fmc.c ****         FMC_CTL0 |= FMC_CTL0_MER;
 282:C:/Users/49542/Desktop/GD32F30x_Demo_Suites_V2.0.0/GD32F30x_Demo_Suites_V2.0.0/GD32F30x_Firmware_Library/GD32F30x_standard_peripheral/Source\gd32f30x_fmc.c ****         FMC_CTL0 |= FMC_CTL0_START;
 283:C:/Users/49542/Desktop/GD32F30x_Demo_Suites_V2.0.0/GD32F30x_Demo_Suites_V2.0.0/GD32F30x_Firmware_Library/GD32F30x_standard_peripheral/Source\gd32f30x_fmc.c ****         /* wait for the FMC ready */
 284:C:/Users/49542/Desktop/GD32F30x_Demo_Suites_V2.0.0/GD32F30x_Demo_Suites_V2.0.0/GD32F30x_Firmware_Library/GD32F30x_standard_peripheral/Source\gd32f30x_fmc.c ****         fmc_state = fmc_bank0_ready_wait(FMC_TIMEOUT_COUNT);
 285:C:/Users/49542/Desktop/GD32F30x_Demo_Suites_V2.0.0/GD32F30x_Demo_Suites_V2.0.0/GD32F30x_Firmware_Library/GD32F30x_standard_peripheral/Source\gd32f30x_fmc.c ****         /* reset the MER bit */
ARM GAS  C:\Users\49542\AppData\Local\Temp\cceCZdNg.s 			page 11


 286:C:/Users/49542/Desktop/GD32F30x_Demo_Suites_V2.0.0/GD32F30x_Demo_Suites_V2.0.0/GD32F30x_Firmware_Library/GD32F30x_standard_peripheral/Source\gd32f30x_fmc.c ****         FMC_CTL0 &= ~FMC_CTL0_MER;
 287:C:/Users/49542/Desktop/GD32F30x_Demo_Suites_V2.0.0/GD32F30x_Demo_Suites_V2.0.0/GD32F30x_Firmware_Library/GD32F30x_standard_peripheral/Source\gd32f30x_fmc.c ****     }
 288:C:/Users/49542/Desktop/GD32F30x_Demo_Suites_V2.0.0/GD32F30x_Demo_Suites_V2.0.0/GD32F30x_Firmware_Library/GD32F30x_standard_peripheral/Source\gd32f30x_fmc.c ****     /* return the fmc state */
 289:C:/Users/49542/Desktop/GD32F30x_Demo_Suites_V2.0.0/GD32F30x_Demo_Suites_V2.0.0/GD32F30x_Firmware_Library/GD32F30x_standard_peripheral/Source\gd32f30x_fmc.c ****     return fmc_state;
 290:C:/Users/49542/Desktop/GD32F30x_Demo_Suites_V2.0.0/GD32F30x_Demo_Suites_V2.0.0/GD32F30x_Firmware_Library/GD32F30x_standard_peripheral/Source\gd32f30x_fmc.c **** }
 291:C:/Users/49542/Desktop/GD32F30x_Demo_Suites_V2.0.0/GD32F30x_Demo_Suites_V2.0.0/GD32F30x_Firmware_Library/GD32F30x_standard_peripheral/Source\gd32f30x_fmc.c **** 
 292:C:/Users/49542/Desktop/GD32F30x_Demo_Suites_V2.0.0/GD32F30x_Demo_Suites_V2.0.0/GD32F30x_Firmware_Library/GD32F30x_standard_peripheral/Source\gd32f30x_fmc.c **** /*!
 293:C:/Users/49542/Desktop/GD32F30x_Demo_Suites_V2.0.0/GD32F30x_Demo_Suites_V2.0.0/GD32F30x_Firmware_Library/GD32F30x_standard_peripheral/Source\gd32f30x_fmc.c ****     \brief      erase bank1
 294:C:/Users/49542/Desktop/GD32F30x_Demo_Suites_V2.0.0/GD32F30x_Demo_Suites_V2.0.0/GD32F30x_Firmware_Library/GD32F30x_standard_peripheral/Source\gd32f30x_fmc.c ****     \param[in]  none
 295:C:/Users/49542/Desktop/GD32F30x_Demo_Suites_V2.0.0/GD32F30x_Demo_Suites_V2.0.0/GD32F30x_Firmware_Library/GD32F30x_standard_peripheral/Source\gd32f30x_fmc.c ****     \param[out] none
 296:C:/Users/49542/Desktop/GD32F30x_Demo_Suites_V2.0.0/GD32F30x_Demo_Suites_V2.0.0/GD32F30x_Firmware_Library/GD32F30x_standard_peripheral/Source\gd32f30x_fmc.c ****     \retval     state of FMC, refer to fmc_state_enum
 297:C:/Users/49542/Desktop/GD32F30x_Demo_Suites_V2.0.0/GD32F30x_Demo_Suites_V2.0.0/GD32F30x_Firmware_Library/GD32F30x_standard_peripheral/Source\gd32f30x_fmc.c **** */
 298:C:/Users/49542/Desktop/GD32F30x_Demo_Suites_V2.0.0/GD32F30x_Demo_Suites_V2.0.0/GD32F30x_Firmware_Library/GD32F30x_standard_peripheral/Source\gd32f30x_fmc.c **** fmc_state_enum fmc_bank1_erase(void)
 299:C:/Users/49542/Desktop/GD32F30x_Demo_Suites_V2.0.0/GD32F30x_Demo_Suites_V2.0.0/GD32F30x_Firmware_Library/GD32F30x_standard_peripheral/Source\gd32f30x_fmc.c **** {
 300:C:/Users/49542/Desktop/GD32F30x_Demo_Suites_V2.0.0/GD32F30x_Demo_Suites_V2.0.0/GD32F30x_Firmware_Library/GD32F30x_standard_peripheral/Source\gd32f30x_fmc.c ****     fmc_state_enum fmc_state = FMC_READY;
 301:C:/Users/49542/Desktop/GD32F30x_Demo_Suites_V2.0.0/GD32F30x_Demo_Suites_V2.0.0/GD32F30x_Firmware_Library/GD32F30x_standard_peripheral/Source\gd32f30x_fmc.c ****     /* wait for the FMC ready */
 302:C:/Users/49542/Desktop/GD32F30x_Demo_Suites_V2.0.0/GD32F30x_Demo_Suites_V2.0.0/GD32F30x_Firmware_Library/GD32F30x_standard_peripheral/Source\gd32f30x_fmc.c ****     fmc_state = fmc_bank1_ready_wait(FMC_TIMEOUT_COUNT);
 303:C:/Users/49542/Desktop/GD32F30x_Demo_Suites_V2.0.0/GD32F30x_Demo_Suites_V2.0.0/GD32F30x_Firmware_Library/GD32F30x_standard_peripheral/Source\gd32f30x_fmc.c ****   
 304:C:/Users/49542/Desktop/GD32F30x_Demo_Suites_V2.0.0/GD32F30x_Demo_Suites_V2.0.0/GD32F30x_Firmware_Library/GD32F30x_standard_peripheral/Source\gd32f30x_fmc.c ****    if(FMC_READY == fmc_state){
 305:C:/Users/49542/Desktop/GD32F30x_Demo_Suites_V2.0.0/GD32F30x_Demo_Suites_V2.0.0/GD32F30x_Firmware_Library/GD32F30x_standard_peripheral/Source\gd32f30x_fmc.c ****         /* start FMC bank1 erase */
 306:C:/Users/49542/Desktop/GD32F30x_Demo_Suites_V2.0.0/GD32F30x_Demo_Suites_V2.0.0/GD32F30x_Firmware_Library/GD32F30x_standard_peripheral/Source\gd32f30x_fmc.c ****         FMC_CTL1 |= FMC_CTL1_MER;
 307:C:/Users/49542/Desktop/GD32F30x_Demo_Suites_V2.0.0/GD32F30x_Demo_Suites_V2.0.0/GD32F30x_Firmware_Library/GD32F30x_standard_peripheral/Source\gd32f30x_fmc.c ****         FMC_CTL1 |= FMC_CTL1_START;
 308:C:/Users/49542/Desktop/GD32F30x_Demo_Suites_V2.0.0/GD32F30x_Demo_Suites_V2.0.0/GD32F30x_Firmware_Library/GD32F30x_standard_peripheral/Source\gd32f30x_fmc.c ****         /* wait for the FMC ready */
 309:C:/Users/49542/Desktop/GD32F30x_Demo_Suites_V2.0.0/GD32F30x_Demo_Suites_V2.0.0/GD32F30x_Firmware_Library/GD32F30x_standard_peripheral/Source\gd32f30x_fmc.c ****         fmc_state = fmc_bank1_ready_wait(FMC_TIMEOUT_COUNT);
 310:C:/Users/49542/Desktop/GD32F30x_Demo_Suites_V2.0.0/GD32F30x_Demo_Suites_V2.0.0/GD32F30x_Firmware_Library/GD32F30x_standard_peripheral/Source\gd32f30x_fmc.c ****         /* reset the MER bit */
 311:C:/Users/49542/Desktop/GD32F30x_Demo_Suites_V2.0.0/GD32F30x_Demo_Suites_V2.0.0/GD32F30x_Firmware_Library/GD32F30x_standard_peripheral/Source\gd32f30x_fmc.c ****         FMC_CTL1 &= ~FMC_CTL1_MER;
 312:C:/Users/49542/Desktop/GD32F30x_Demo_Suites_V2.0.0/GD32F30x_Demo_Suites_V2.0.0/GD32F30x_Firmware_Library/GD32F30x_standard_peripheral/Source\gd32f30x_fmc.c ****     }
 313:C:/Users/49542/Desktop/GD32F30x_Demo_Suites_V2.0.0/GD32F30x_Demo_Suites_V2.0.0/GD32F30x_Firmware_Library/GD32F30x_standard_peripheral/Source\gd32f30x_fmc.c ****     /* return the fmc state */
 314:C:/Users/49542/Desktop/GD32F30x_Demo_Suites_V2.0.0/GD32F30x_Demo_Suites_V2.0.0/GD32F30x_Firmware_Library/GD32F30x_standard_peripheral/Source\gd32f30x_fmc.c ****     return fmc_state;
 315:C:/Users/49542/Desktop/GD32F30x_Demo_Suites_V2.0.0/GD32F30x_Demo_Suites_V2.0.0/GD32F30x_Firmware_Library/GD32F30x_standard_peripheral/Source\gd32f30x_fmc.c **** }
 316:C:/Users/49542/Desktop/GD32F30x_Demo_Suites_V2.0.0/GD32F30x_Demo_Suites_V2.0.0/GD32F30x_Firmware_Library/GD32F30x_standard_peripheral/Source\gd32f30x_fmc.c **** 
 317:C:/Users/49542/Desktop/GD32F30x_Demo_Suites_V2.0.0/GD32F30x_Demo_Suites_V2.0.0/GD32F30x_Firmware_Library/GD32F30x_standard_peripheral/Source\gd32f30x_fmc.c **** /*!
 318:C:/Users/49542/Desktop/GD32F30x_Demo_Suites_V2.0.0/GD32F30x_Demo_Suites_V2.0.0/GD32F30x_Firmware_Library/GD32F30x_standard_peripheral/Source\gd32f30x_fmc.c ****     \brief      program a word at the corresponding address
 319:C:/Users/49542/Desktop/GD32F30x_Demo_Suites_V2.0.0/GD32F30x_Demo_Suites_V2.0.0/GD32F30x_Firmware_Library/GD32F30x_standard_peripheral/Source\gd32f30x_fmc.c ****     \param[in]  address: address to program
 320:C:/Users/49542/Desktop/GD32F30x_Demo_Suites_V2.0.0/GD32F30x_Demo_Suites_V2.0.0/GD32F30x_Firmware_Library/GD32F30x_standard_peripheral/Source\gd32f30x_fmc.c ****     \param[in]  data: word to program
 321:C:/Users/49542/Desktop/GD32F30x_Demo_Suites_V2.0.0/GD32F30x_Demo_Suites_V2.0.0/GD32F30x_Firmware_Library/GD32F30x_standard_peripheral/Source\gd32f30x_fmc.c ****     \param[out] none
 322:C:/Users/49542/Desktop/GD32F30x_Demo_Suites_V2.0.0/GD32F30x_Demo_Suites_V2.0.0/GD32F30x_Firmware_Library/GD32F30x_standard_peripheral/Source\gd32f30x_fmc.c ****     \retval     state of FMC, refer to fmc_state_enum
 323:C:/Users/49542/Desktop/GD32F30x_Demo_Suites_V2.0.0/GD32F30x_Demo_Suites_V2.0.0/GD32F30x_Firmware_Library/GD32F30x_standard_peripheral/Source\gd32f30x_fmc.c **** */
 324:C:/Users/49542/Desktop/GD32F30x_Demo_Suites_V2.0.0/GD32F30x_Demo_Suites_V2.0.0/GD32F30x_Firmware_Library/GD32F30x_standard_peripheral/Source\gd32f30x_fmc.c **** fmc_state_enum fmc_word_program(uint32_t address, uint32_t data)
 325:C:/Users/49542/Desktop/GD32F30x_Demo_Suites_V2.0.0/GD32F30x_Demo_Suites_V2.0.0/GD32F30x_Firmware_Library/GD32F30x_standard_peripheral/Source\gd32f30x_fmc.c **** {
 326:C:/Users/49542/Desktop/GD32F30x_Demo_Suites_V2.0.0/GD32F30x_Demo_Suites_V2.0.0/GD32F30x_Firmware_Library/GD32F30x_standard_peripheral/Source\gd32f30x_fmc.c ****     fmc_state_enum fmc_state = FMC_READY;
 327:C:/Users/49542/Desktop/GD32F30x_Demo_Suites_V2.0.0/GD32F30x_Demo_Suites_V2.0.0/GD32F30x_Firmware_Library/GD32F30x_standard_peripheral/Source\gd32f30x_fmc.c ****     if(FMC_BANK0_SIZE < FMC_SIZE){
 328:C:/Users/49542/Desktop/GD32F30x_Demo_Suites_V2.0.0/GD32F30x_Demo_Suites_V2.0.0/GD32F30x_Firmware_Library/GD32F30x_standard_peripheral/Source\gd32f30x_fmc.c ****         if(FMC_BANK0_END_ADDRESS > address){
 329:C:/Users/49542/Desktop/GD32F30x_Demo_Suites_V2.0.0/GD32F30x_Demo_Suites_V2.0.0/GD32F30x_Firmware_Library/GD32F30x_standard_peripheral/Source\gd32f30x_fmc.c ****             fmc_state = fmc_bank0_ready_wait(FMC_TIMEOUT_COUNT); 
 330:C:/Users/49542/Desktop/GD32F30x_Demo_Suites_V2.0.0/GD32F30x_Demo_Suites_V2.0.0/GD32F30x_Firmware_Library/GD32F30x_standard_peripheral/Source\gd32f30x_fmc.c ****   
 331:C:/Users/49542/Desktop/GD32F30x_Demo_Suites_V2.0.0/GD32F30x_Demo_Suites_V2.0.0/GD32F30x_Firmware_Library/GD32F30x_standard_peripheral/Source\gd32f30x_fmc.c ****             if(FMC_READY == fmc_state){
 332:C:/Users/49542/Desktop/GD32F30x_Demo_Suites_V2.0.0/GD32F30x_Demo_Suites_V2.0.0/GD32F30x_Firmware_Library/GD32F30x_standard_peripheral/Source\gd32f30x_fmc.c ****                 /* set the PG bit to start program */
 333:C:/Users/49542/Desktop/GD32F30x_Demo_Suites_V2.0.0/GD32F30x_Demo_Suites_V2.0.0/GD32F30x_Firmware_Library/GD32F30x_standard_peripheral/Source\gd32f30x_fmc.c ****                 FMC_CTL0 |= FMC_CTL0_PG;
 334:C:/Users/49542/Desktop/GD32F30x_Demo_Suites_V2.0.0/GD32F30x_Demo_Suites_V2.0.0/GD32F30x_Firmware_Library/GD32F30x_standard_peripheral/Source\gd32f30x_fmc.c ****                 REG32(address) = data;
 335:C:/Users/49542/Desktop/GD32F30x_Demo_Suites_V2.0.0/GD32F30x_Demo_Suites_V2.0.0/GD32F30x_Firmware_Library/GD32F30x_standard_peripheral/Source\gd32f30x_fmc.c ****                 /* wait for the FMC ready */
 336:C:/Users/49542/Desktop/GD32F30x_Demo_Suites_V2.0.0/GD32F30x_Demo_Suites_V2.0.0/GD32F30x_Firmware_Library/GD32F30x_standard_peripheral/Source\gd32f30x_fmc.c ****                 fmc_state = fmc_bank0_ready_wait(FMC_TIMEOUT_COUNT);
 337:C:/Users/49542/Desktop/GD32F30x_Demo_Suites_V2.0.0/GD32F30x_Demo_Suites_V2.0.0/GD32F30x_Firmware_Library/GD32F30x_standard_peripheral/Source\gd32f30x_fmc.c ****                 /* reset the PG bit */
 338:C:/Users/49542/Desktop/GD32F30x_Demo_Suites_V2.0.0/GD32F30x_Demo_Suites_V2.0.0/GD32F30x_Firmware_Library/GD32F30x_standard_peripheral/Source\gd32f30x_fmc.c ****                 FMC_CTL0 &= ~FMC_CTL0_PG;
 339:C:/Users/49542/Desktop/GD32F30x_Demo_Suites_V2.0.0/GD32F30x_Demo_Suites_V2.0.0/GD32F30x_Firmware_Library/GD32F30x_standard_peripheral/Source\gd32f30x_fmc.c ****             }
 340:C:/Users/49542/Desktop/GD32F30x_Demo_Suites_V2.0.0/GD32F30x_Demo_Suites_V2.0.0/GD32F30x_Firmware_Library/GD32F30x_standard_peripheral/Source\gd32f30x_fmc.c ****         }else{
 341:C:/Users/49542/Desktop/GD32F30x_Demo_Suites_V2.0.0/GD32F30x_Demo_Suites_V2.0.0/GD32F30x_Firmware_Library/GD32F30x_standard_peripheral/Source\gd32f30x_fmc.c ****             fmc_state = fmc_bank1_ready_wait(FMC_TIMEOUT_COUNT); 
 342:C:/Users/49542/Desktop/GD32F30x_Demo_Suites_V2.0.0/GD32F30x_Demo_Suites_V2.0.0/GD32F30x_Firmware_Library/GD32F30x_standard_peripheral/Source\gd32f30x_fmc.c ****   
ARM GAS  C:\Users\49542\AppData\Local\Temp\cceCZdNg.s 			page 12


 343:C:/Users/49542/Desktop/GD32F30x_Demo_Suites_V2.0.0/GD32F30x_Demo_Suites_V2.0.0/GD32F30x_Firmware_Library/GD32F30x_standard_peripheral/Source\gd32f30x_fmc.c ****             if(FMC_READY == fmc_state){
 344:C:/Users/49542/Desktop/GD32F30x_Demo_Suites_V2.0.0/GD32F30x_Demo_Suites_V2.0.0/GD32F30x_Firmware_Library/GD32F30x_standard_peripheral/Source\gd32f30x_fmc.c ****                 /* set the PG bit to start program */
 345:C:/Users/49542/Desktop/GD32F30x_Demo_Suites_V2.0.0/GD32F30x_Demo_Suites_V2.0.0/GD32F30x_Firmware_Library/GD32F30x_standard_peripheral/Source\gd32f30x_fmc.c ****                 FMC_CTL1 |= FMC_CTL1_PG;
 346:C:/Users/49542/Desktop/GD32F30x_Demo_Suites_V2.0.0/GD32F30x_Demo_Suites_V2.0.0/GD32F30x_Firmware_Library/GD32F30x_standard_peripheral/Source\gd32f30x_fmc.c ****                 REG32(address) = data;
 347:C:/Users/49542/Desktop/GD32F30x_Demo_Suites_V2.0.0/GD32F30x_Demo_Suites_V2.0.0/GD32F30x_Firmware_Library/GD32F30x_standard_peripheral/Source\gd32f30x_fmc.c ****                 /* wait for the FMC ready */
 348:C:/Users/49542/Desktop/GD32F30x_Demo_Suites_V2.0.0/GD32F30x_Demo_Suites_V2.0.0/GD32F30x_Firmware_Library/GD32F30x_standard_peripheral/Source\gd32f30x_fmc.c ****                 fmc_state = fmc_bank1_ready_wait(FMC_TIMEOUT_COUNT);
 349:C:/Users/49542/Desktop/GD32F30x_Demo_Suites_V2.0.0/GD32F30x_Demo_Suites_V2.0.0/GD32F30x_Firmware_Library/GD32F30x_standard_peripheral/Source\gd32f30x_fmc.c ****                 /* reset the PG bit */
 350:C:/Users/49542/Desktop/GD32F30x_Demo_Suites_V2.0.0/GD32F30x_Demo_Suites_V2.0.0/GD32F30x_Firmware_Library/GD32F30x_standard_peripheral/Source\gd32f30x_fmc.c ****                 FMC_CTL1 &= ~FMC_CTL1_PG;
 351:C:/Users/49542/Desktop/GD32F30x_Demo_Suites_V2.0.0/GD32F30x_Demo_Suites_V2.0.0/GD32F30x_Firmware_Library/GD32F30x_standard_peripheral/Source\gd32f30x_fmc.c ****             }
 352:C:/Users/49542/Desktop/GD32F30x_Demo_Suites_V2.0.0/GD32F30x_Demo_Suites_V2.0.0/GD32F30x_Firmware_Library/GD32F30x_standard_peripheral/Source\gd32f30x_fmc.c ****         }
 353:C:/Users/49542/Desktop/GD32F30x_Demo_Suites_V2.0.0/GD32F30x_Demo_Suites_V2.0.0/GD32F30x_Firmware_Library/GD32F30x_standard_peripheral/Source\gd32f30x_fmc.c ****     }else{
 354:C:/Users/49542/Desktop/GD32F30x_Demo_Suites_V2.0.0/GD32F30x_Demo_Suites_V2.0.0/GD32F30x_Firmware_Library/GD32F30x_standard_peripheral/Source\gd32f30x_fmc.c ****         fmc_state = fmc_bank0_ready_wait(FMC_TIMEOUT_COUNT);
 355:C:/Users/49542/Desktop/GD32F30x_Demo_Suites_V2.0.0/GD32F30x_Demo_Suites_V2.0.0/GD32F30x_Firmware_Library/GD32F30x_standard_peripheral/Source\gd32f30x_fmc.c ****   
 356:C:/Users/49542/Desktop/GD32F30x_Demo_Suites_V2.0.0/GD32F30x_Demo_Suites_V2.0.0/GD32F30x_Firmware_Library/GD32F30x_standard_peripheral/Source\gd32f30x_fmc.c ****         if(FMC_READY == fmc_state){
 357:C:/Users/49542/Desktop/GD32F30x_Demo_Suites_V2.0.0/GD32F30x_Demo_Suites_V2.0.0/GD32F30x_Firmware_Library/GD32F30x_standard_peripheral/Source\gd32f30x_fmc.c ****             /* set the PG bit to start program */
 358:C:/Users/49542/Desktop/GD32F30x_Demo_Suites_V2.0.0/GD32F30x_Demo_Suites_V2.0.0/GD32F30x_Firmware_Library/GD32F30x_standard_peripheral/Source\gd32f30x_fmc.c ****             FMC_CTL0 |= FMC_CTL0_PG;
 359:C:/Users/49542/Desktop/GD32F30x_Demo_Suites_V2.0.0/GD32F30x_Demo_Suites_V2.0.0/GD32F30x_Firmware_Library/GD32F30x_standard_peripheral/Source\gd32f30x_fmc.c ****             REG32(address) = data;
 360:C:/Users/49542/Desktop/GD32F30x_Demo_Suites_V2.0.0/GD32F30x_Demo_Suites_V2.0.0/GD32F30x_Firmware_Library/GD32F30x_standard_peripheral/Source\gd32f30x_fmc.c ****             /* wait for the FMC ready */
 361:C:/Users/49542/Desktop/GD32F30x_Demo_Suites_V2.0.0/GD32F30x_Demo_Suites_V2.0.0/GD32F30x_Firmware_Library/GD32F30x_standard_peripheral/Source\gd32f30x_fmc.c ****             fmc_state = fmc_bank0_ready_wait(FMC_TIMEOUT_COUNT);
 362:C:/Users/49542/Desktop/GD32F30x_Demo_Suites_V2.0.0/GD32F30x_Demo_Suites_V2.0.0/GD32F30x_Firmware_Library/GD32F30x_standard_peripheral/Source\gd32f30x_fmc.c ****             /* reset the PG bit */
 363:C:/Users/49542/Desktop/GD32F30x_Demo_Suites_V2.0.0/GD32F30x_Demo_Suites_V2.0.0/GD32F30x_Firmware_Library/GD32F30x_standard_peripheral/Source\gd32f30x_fmc.c ****             FMC_CTL0 &= ~FMC_CTL0_PG;
 364:C:/Users/49542/Desktop/GD32F30x_Demo_Suites_V2.0.0/GD32F30x_Demo_Suites_V2.0.0/GD32F30x_Firmware_Library/GD32F30x_standard_peripheral/Source\gd32f30x_fmc.c ****         } 
 365:C:/Users/49542/Desktop/GD32F30x_Demo_Suites_V2.0.0/GD32F30x_Demo_Suites_V2.0.0/GD32F30x_Firmware_Library/GD32F30x_standard_peripheral/Source\gd32f30x_fmc.c ****     }
 366:C:/Users/49542/Desktop/GD32F30x_Demo_Suites_V2.0.0/GD32F30x_Demo_Suites_V2.0.0/GD32F30x_Firmware_Library/GD32F30x_standard_peripheral/Source\gd32f30x_fmc.c ****     /* return the FMC state */
 367:C:/Users/49542/Desktop/GD32F30x_Demo_Suites_V2.0.0/GD32F30x_Demo_Suites_V2.0.0/GD32F30x_Firmware_Library/GD32F30x_standard_peripheral/Source\gd32f30x_fmc.c ****     return fmc_state;
 368:C:/Users/49542/Desktop/GD32F30x_Demo_Suites_V2.0.0/GD32F30x_Demo_Suites_V2.0.0/GD32F30x_Firmware_Library/GD32F30x_standard_peripheral/Source\gd32f30x_fmc.c **** }
 369:C:/Users/49542/Desktop/GD32F30x_Demo_Suites_V2.0.0/GD32F30x_Demo_Suites_V2.0.0/GD32F30x_Firmware_Library/GD32F30x_standard_peripheral/Source\gd32f30x_fmc.c **** 
 370:C:/Users/49542/Desktop/GD32F30x_Demo_Suites_V2.0.0/GD32F30x_Demo_Suites_V2.0.0/GD32F30x_Firmware_Library/GD32F30x_standard_peripheral/Source\gd32f30x_fmc.c **** /*!
 371:C:/Users/49542/Desktop/GD32F30x_Demo_Suites_V2.0.0/GD32F30x_Demo_Suites_V2.0.0/GD32F30x_Firmware_Library/GD32F30x_standard_peripheral/Source\gd32f30x_fmc.c ****     \brief      program a half word at the corresponding address
 372:C:/Users/49542/Desktop/GD32F30x_Demo_Suites_V2.0.0/GD32F30x_Demo_Suites_V2.0.0/GD32F30x_Firmware_Library/GD32F30x_standard_peripheral/Source\gd32f30x_fmc.c ****     \param[in]  address: address to program
 373:C:/Users/49542/Desktop/GD32F30x_Demo_Suites_V2.0.0/GD32F30x_Demo_Suites_V2.0.0/GD32F30x_Firmware_Library/GD32F30x_standard_peripheral/Source\gd32f30x_fmc.c ****     \param[in]  data: halfword to program
 374:C:/Users/49542/Desktop/GD32F30x_Demo_Suites_V2.0.0/GD32F30x_Demo_Suites_V2.0.0/GD32F30x_Firmware_Library/GD32F30x_standard_peripheral/Source\gd32f30x_fmc.c ****     \param[out] none
 375:C:/Users/49542/Desktop/GD32F30x_Demo_Suites_V2.0.0/GD32F30x_Demo_Suites_V2.0.0/GD32F30x_Firmware_Library/GD32F30x_standard_peripheral/Source\gd32f30x_fmc.c ****     \retval     state of FMC, refer to fmc_state_enum
 376:C:/Users/49542/Desktop/GD32F30x_Demo_Suites_V2.0.0/GD32F30x_Demo_Suites_V2.0.0/GD32F30x_Firmware_Library/GD32F30x_standard_peripheral/Source\gd32f30x_fmc.c **** */
 377:C:/Users/49542/Desktop/GD32F30x_Demo_Suites_V2.0.0/GD32F30x_Demo_Suites_V2.0.0/GD32F30x_Firmware_Library/GD32F30x_standard_peripheral/Source\gd32f30x_fmc.c **** fmc_state_enum fmc_halfword_program(uint32_t address, uint16_t data)
 378:C:/Users/49542/Desktop/GD32F30x_Demo_Suites_V2.0.0/GD32F30x_Demo_Suites_V2.0.0/GD32F30x_Firmware_Library/GD32F30x_standard_peripheral/Source\gd32f30x_fmc.c **** {
 379:C:/Users/49542/Desktop/GD32F30x_Demo_Suites_V2.0.0/GD32F30x_Demo_Suites_V2.0.0/GD32F30x_Firmware_Library/GD32F30x_standard_peripheral/Source\gd32f30x_fmc.c ****     fmc_state_enum fmc_state = FMC_READY;
 380:C:/Users/49542/Desktop/GD32F30x_Demo_Suites_V2.0.0/GD32F30x_Demo_Suites_V2.0.0/GD32F30x_Firmware_Library/GD32F30x_standard_peripheral/Source\gd32f30x_fmc.c ****     if(FMC_BANK0_SIZE < FMC_SIZE){
 381:C:/Users/49542/Desktop/GD32F30x_Demo_Suites_V2.0.0/GD32F30x_Demo_Suites_V2.0.0/GD32F30x_Firmware_Library/GD32F30x_standard_peripheral/Source\gd32f30x_fmc.c ****         if(FMC_BANK0_END_ADDRESS > address){
 382:C:/Users/49542/Desktop/GD32F30x_Demo_Suites_V2.0.0/GD32F30x_Demo_Suites_V2.0.0/GD32F30x_Firmware_Library/GD32F30x_standard_peripheral/Source\gd32f30x_fmc.c ****             fmc_state = fmc_bank0_ready_wait(FMC_TIMEOUT_COUNT); 
 383:C:/Users/49542/Desktop/GD32F30x_Demo_Suites_V2.0.0/GD32F30x_Demo_Suites_V2.0.0/GD32F30x_Firmware_Library/GD32F30x_standard_peripheral/Source\gd32f30x_fmc.c ****   
 384:C:/Users/49542/Desktop/GD32F30x_Demo_Suites_V2.0.0/GD32F30x_Demo_Suites_V2.0.0/GD32F30x_Firmware_Library/GD32F30x_standard_peripheral/Source\gd32f30x_fmc.c ****             if(FMC_READY == fmc_state){
 385:C:/Users/49542/Desktop/GD32F30x_Demo_Suites_V2.0.0/GD32F30x_Demo_Suites_V2.0.0/GD32F30x_Firmware_Library/GD32F30x_standard_peripheral/Source\gd32f30x_fmc.c ****                 /* set the PG bit to start program */
 386:C:/Users/49542/Desktop/GD32F30x_Demo_Suites_V2.0.0/GD32F30x_Demo_Suites_V2.0.0/GD32F30x_Firmware_Library/GD32F30x_standard_peripheral/Source\gd32f30x_fmc.c ****                 FMC_CTL0 |= FMC_CTL0_PG;
 387:C:/Users/49542/Desktop/GD32F30x_Demo_Suites_V2.0.0/GD32F30x_Demo_Suites_V2.0.0/GD32F30x_Firmware_Library/GD32F30x_standard_peripheral/Source\gd32f30x_fmc.c ****                 REG16(address) = data;
 388:C:/Users/49542/Desktop/GD32F30x_Demo_Suites_V2.0.0/GD32F30x_Demo_Suites_V2.0.0/GD32F30x_Firmware_Library/GD32F30x_standard_peripheral/Source\gd32f30x_fmc.c ****                 /* wait for the FMC ready */
 389:C:/Users/49542/Desktop/GD32F30x_Demo_Suites_V2.0.0/GD32F30x_Demo_Suites_V2.0.0/GD32F30x_Firmware_Library/GD32F30x_standard_peripheral/Source\gd32f30x_fmc.c ****                 fmc_state = fmc_bank0_ready_wait(FMC_TIMEOUT_COUNT);
 390:C:/Users/49542/Desktop/GD32F30x_Demo_Suites_V2.0.0/GD32F30x_Demo_Suites_V2.0.0/GD32F30x_Firmware_Library/GD32F30x_standard_peripheral/Source\gd32f30x_fmc.c ****                 /* reset the PG bit */
 391:C:/Users/49542/Desktop/GD32F30x_Demo_Suites_V2.0.0/GD32F30x_Demo_Suites_V2.0.0/GD32F30x_Firmware_Library/GD32F30x_standard_peripheral/Source\gd32f30x_fmc.c ****                 FMC_CTL0 &= ~FMC_CTL0_PG;
 392:C:/Users/49542/Desktop/GD32F30x_Demo_Suites_V2.0.0/GD32F30x_Demo_Suites_V2.0.0/GD32F30x_Firmware_Library/GD32F30x_standard_peripheral/Source\gd32f30x_fmc.c ****             }
 393:C:/Users/49542/Desktop/GD32F30x_Demo_Suites_V2.0.0/GD32F30x_Demo_Suites_V2.0.0/GD32F30x_Firmware_Library/GD32F30x_standard_peripheral/Source\gd32f30x_fmc.c ****         }else{
 394:C:/Users/49542/Desktop/GD32F30x_Demo_Suites_V2.0.0/GD32F30x_Demo_Suites_V2.0.0/GD32F30x_Firmware_Library/GD32F30x_standard_peripheral/Source\gd32f30x_fmc.c ****             fmc_state = fmc_bank1_ready_wait(FMC_TIMEOUT_COUNT); 
 395:C:/Users/49542/Desktop/GD32F30x_Demo_Suites_V2.0.0/GD32F30x_Demo_Suites_V2.0.0/GD32F30x_Firmware_Library/GD32F30x_standard_peripheral/Source\gd32f30x_fmc.c ****   
 396:C:/Users/49542/Desktop/GD32F30x_Demo_Suites_V2.0.0/GD32F30x_Demo_Suites_V2.0.0/GD32F30x_Firmware_Library/GD32F30x_standard_peripheral/Source\gd32f30x_fmc.c ****             if(FMC_READY == fmc_state){
 397:C:/Users/49542/Desktop/GD32F30x_Demo_Suites_V2.0.0/GD32F30x_Demo_Suites_V2.0.0/GD32F30x_Firmware_Library/GD32F30x_standard_peripheral/Source\gd32f30x_fmc.c ****                 /* set the PG bit to start program */
 398:C:/Users/49542/Desktop/GD32F30x_Demo_Suites_V2.0.0/GD32F30x_Demo_Suites_V2.0.0/GD32F30x_Firmware_Library/GD32F30x_standard_peripheral/Source\gd32f30x_fmc.c ****                 FMC_CTL1 |= FMC_CTL1_PG;
 399:C:/Users/49542/Desktop/GD32F30x_Demo_Suites_V2.0.0/GD32F30x_Demo_Suites_V2.0.0/GD32F30x_Firmware_Library/GD32F30x_standard_peripheral/Source\gd32f30x_fmc.c ****                 REG16(address) = data;
ARM GAS  C:\Users\49542\AppData\Local\Temp\cceCZdNg.s 			page 13


 400:C:/Users/49542/Desktop/GD32F30x_Demo_Suites_V2.0.0/GD32F30x_Demo_Suites_V2.0.0/GD32F30x_Firmware_Library/GD32F30x_standard_peripheral/Source\gd32f30x_fmc.c ****                 /* wait for the FMC ready */
 401:C:/Users/49542/Desktop/GD32F30x_Demo_Suites_V2.0.0/GD32F30x_Demo_Suites_V2.0.0/GD32F30x_Firmware_Library/GD32F30x_standard_peripheral/Source\gd32f30x_fmc.c ****                 fmc_state = fmc_bank1_ready_wait(FMC_TIMEOUT_COUNT);
 402:C:/Users/49542/Desktop/GD32F30x_Demo_Suites_V2.0.0/GD32F30x_Demo_Suites_V2.0.0/GD32F30x_Firmware_Library/GD32F30x_standard_peripheral/Source\gd32f30x_fmc.c ****                 /* reset the PG bit */
 403:C:/Users/49542/Desktop/GD32F30x_Demo_Suites_V2.0.0/GD32F30x_Demo_Suites_V2.0.0/GD32F30x_Firmware_Library/GD32F30x_standard_peripheral/Source\gd32f30x_fmc.c ****                 FMC_CTL1 &= ~FMC_CTL1_PG;
 404:C:/Users/49542/Desktop/GD32F30x_Demo_Suites_V2.0.0/GD32F30x_Demo_Suites_V2.0.0/GD32F30x_Firmware_Library/GD32F30x_standard_peripheral/Source\gd32f30x_fmc.c ****             }
 405:C:/Users/49542/Desktop/GD32F30x_Demo_Suites_V2.0.0/GD32F30x_Demo_Suites_V2.0.0/GD32F30x_Firmware_Library/GD32F30x_standard_peripheral/Source\gd32f30x_fmc.c ****         }
 406:C:/Users/49542/Desktop/GD32F30x_Demo_Suites_V2.0.0/GD32F30x_Demo_Suites_V2.0.0/GD32F30x_Firmware_Library/GD32F30x_standard_peripheral/Source\gd32f30x_fmc.c ****     }else{
 407:C:/Users/49542/Desktop/GD32F30x_Demo_Suites_V2.0.0/GD32F30x_Demo_Suites_V2.0.0/GD32F30x_Firmware_Library/GD32F30x_standard_peripheral/Source\gd32f30x_fmc.c ****         fmc_state = fmc_bank0_ready_wait(FMC_TIMEOUT_COUNT);
 408:C:/Users/49542/Desktop/GD32F30x_Demo_Suites_V2.0.0/GD32F30x_Demo_Suites_V2.0.0/GD32F30x_Firmware_Library/GD32F30x_standard_peripheral/Source\gd32f30x_fmc.c ****   
 409:C:/Users/49542/Desktop/GD32F30x_Demo_Suites_V2.0.0/GD32F30x_Demo_Suites_V2.0.0/GD32F30x_Firmware_Library/GD32F30x_standard_peripheral/Source\gd32f30x_fmc.c ****         if(FMC_READY == fmc_state){
 410:C:/Users/49542/Desktop/GD32F30x_Demo_Suites_V2.0.0/GD32F30x_Demo_Suites_V2.0.0/GD32F30x_Firmware_Library/GD32F30x_standard_peripheral/Source\gd32f30x_fmc.c ****             /* set the PG bit to start program */
 411:C:/Users/49542/Desktop/GD32F30x_Demo_Suites_V2.0.0/GD32F30x_Demo_Suites_V2.0.0/GD32F30x_Firmware_Library/GD32F30x_standard_peripheral/Source\gd32f30x_fmc.c ****             FMC_CTL0 |= FMC_CTL0_PG;
 412:C:/Users/49542/Desktop/GD32F30x_Demo_Suites_V2.0.0/GD32F30x_Demo_Suites_V2.0.0/GD32F30x_Firmware_Library/GD32F30x_standard_peripheral/Source\gd32f30x_fmc.c ****             REG16(address) = data;
 413:C:/Users/49542/Desktop/GD32F30x_Demo_Suites_V2.0.0/GD32F30x_Demo_Suites_V2.0.0/GD32F30x_Firmware_Library/GD32F30x_standard_peripheral/Source\gd32f30x_fmc.c ****             /* wait for the FMC ready */
 414:C:/Users/49542/Desktop/GD32F30x_Demo_Suites_V2.0.0/GD32F30x_Demo_Suites_V2.0.0/GD32F30x_Firmware_Library/GD32F30x_standard_peripheral/Source\gd32f30x_fmc.c ****             fmc_state = fmc_bank0_ready_wait(FMC_TIMEOUT_COUNT);
 415:C:/Users/49542/Desktop/GD32F30x_Demo_Suites_V2.0.0/GD32F30x_Demo_Suites_V2.0.0/GD32F30x_Firmware_Library/GD32F30x_standard_peripheral/Source\gd32f30x_fmc.c ****             /* reset the PG bit */
 416:C:/Users/49542/Desktop/GD32F30x_Demo_Suites_V2.0.0/GD32F30x_Demo_Suites_V2.0.0/GD32F30x_Firmware_Library/GD32F30x_standard_peripheral/Source\gd32f30x_fmc.c ****             FMC_CTL0 &= ~FMC_CTL0_PG;
 417:C:/Users/49542/Desktop/GD32F30x_Demo_Suites_V2.0.0/GD32F30x_Demo_Suites_V2.0.0/GD32F30x_Firmware_Library/GD32F30x_standard_peripheral/Source\gd32f30x_fmc.c ****         } 
 418:C:/Users/49542/Desktop/GD32F30x_Demo_Suites_V2.0.0/GD32F30x_Demo_Suites_V2.0.0/GD32F30x_Firmware_Library/GD32F30x_standard_peripheral/Source\gd32f30x_fmc.c ****     }
 419:C:/Users/49542/Desktop/GD32F30x_Demo_Suites_V2.0.0/GD32F30x_Demo_Suites_V2.0.0/GD32F30x_Firmware_Library/GD32F30x_standard_peripheral/Source\gd32f30x_fmc.c ****     /* return the FMC state */
 420:C:/Users/49542/Desktop/GD32F30x_Demo_Suites_V2.0.0/GD32F30x_Demo_Suites_V2.0.0/GD32F30x_Firmware_Library/GD32F30x_standard_peripheral/Source\gd32f30x_fmc.c ****     return fmc_state;
 421:C:/Users/49542/Desktop/GD32F30x_Demo_Suites_V2.0.0/GD32F30x_Demo_Suites_V2.0.0/GD32F30x_Firmware_Library/GD32F30x_standard_peripheral/Source\gd32f30x_fmc.c **** }
 422:C:/Users/49542/Desktop/GD32F30x_Demo_Suites_V2.0.0/GD32F30x_Demo_Suites_V2.0.0/GD32F30x_Firmware_Library/GD32F30x_standard_peripheral/Source\gd32f30x_fmc.c **** 
 423:C:/Users/49542/Desktop/GD32F30x_Demo_Suites_V2.0.0/GD32F30x_Demo_Suites_V2.0.0/GD32F30x_Firmware_Library/GD32F30x_standard_peripheral/Source\gd32f30x_fmc.c **** /*!
 424:C:/Users/49542/Desktop/GD32F30x_Demo_Suites_V2.0.0/GD32F30x_Demo_Suites_V2.0.0/GD32F30x_Firmware_Library/GD32F30x_standard_peripheral/Source\gd32f30x_fmc.c ****     \brief      program a word at the corresponding address without erasing
 425:C:/Users/49542/Desktop/GD32F30x_Demo_Suites_V2.0.0/GD32F30x_Demo_Suites_V2.0.0/GD32F30x_Firmware_Library/GD32F30x_standard_peripheral/Source\gd32f30x_fmc.c ****     \param[in]  address: address to program
 426:C:/Users/49542/Desktop/GD32F30x_Demo_Suites_V2.0.0/GD32F30x_Demo_Suites_V2.0.0/GD32F30x_Firmware_Library/GD32F30x_standard_peripheral/Source\gd32f30x_fmc.c ****     \param[in]  data: word to program
 427:C:/Users/49542/Desktop/GD32F30x_Demo_Suites_V2.0.0/GD32F30x_Demo_Suites_V2.0.0/GD32F30x_Firmware_Library/GD32F30x_standard_peripheral/Source\gd32f30x_fmc.c ****     \param[out] none
 428:C:/Users/49542/Desktop/GD32F30x_Demo_Suites_V2.0.0/GD32F30x_Demo_Suites_V2.0.0/GD32F30x_Firmware_Library/GD32F30x_standard_peripheral/Source\gd32f30x_fmc.c ****     \retval     fmc_state
 429:C:/Users/49542/Desktop/GD32F30x_Demo_Suites_V2.0.0/GD32F30x_Demo_Suites_V2.0.0/GD32F30x_Firmware_Library/GD32F30x_standard_peripheral/Source\gd32f30x_fmc.c **** */
 430:C:/Users/49542/Desktop/GD32F30x_Demo_Suites_V2.0.0/GD32F30x_Demo_Suites_V2.0.0/GD32F30x_Firmware_Library/GD32F30x_standard_peripheral/Source\gd32f30x_fmc.c **** fmc_state_enum fmc_word_reprogram(uint32_t address, uint32_t data)
 431:C:/Users/49542/Desktop/GD32F30x_Demo_Suites_V2.0.0/GD32F30x_Demo_Suites_V2.0.0/GD32F30x_Firmware_Library/GD32F30x_standard_peripheral/Source\gd32f30x_fmc.c **** {
 432:C:/Users/49542/Desktop/GD32F30x_Demo_Suites_V2.0.0/GD32F30x_Demo_Suites_V2.0.0/GD32F30x_Firmware_Library/GD32F30x_standard_peripheral/Source\gd32f30x_fmc.c ****     fmc_state_enum fmc_state = FMC_READY;
 433:C:/Users/49542/Desktop/GD32F30x_Demo_Suites_V2.0.0/GD32F30x_Demo_Suites_V2.0.0/GD32F30x_Firmware_Library/GD32F30x_standard_peripheral/Source\gd32f30x_fmc.c ****     if(FMC_BANK0_SIZE < FMC_SIZE){
 434:C:/Users/49542/Desktop/GD32F30x_Demo_Suites_V2.0.0/GD32F30x_Demo_Suites_V2.0.0/GD32F30x_Firmware_Library/GD32F30x_standard_peripheral/Source\gd32f30x_fmc.c ****         if(FMC_BANK0_END_ADDRESS > address){
 435:C:/Users/49542/Desktop/GD32F30x_Demo_Suites_V2.0.0/GD32F30x_Demo_Suites_V2.0.0/GD32F30x_Firmware_Library/GD32F30x_standard_peripheral/Source\gd32f30x_fmc.c ****             fmc_state = fmc_bank0_ready_wait(FMC_TIMEOUT_COUNT); 
 436:C:/Users/49542/Desktop/GD32F30x_Demo_Suites_V2.0.0/GD32F30x_Demo_Suites_V2.0.0/GD32F30x_Firmware_Library/GD32F30x_standard_peripheral/Source\gd32f30x_fmc.c ****             FMC_WSEN |= FMC_WSEN_BPEN;
 437:C:/Users/49542/Desktop/GD32F30x_Demo_Suites_V2.0.0/GD32F30x_Demo_Suites_V2.0.0/GD32F30x_Firmware_Library/GD32F30x_standard_peripheral/Source\gd32f30x_fmc.c ****             if(FMC_READY == fmc_state){
 438:C:/Users/49542/Desktop/GD32F30x_Demo_Suites_V2.0.0/GD32F30x_Demo_Suites_V2.0.0/GD32F30x_Firmware_Library/GD32F30x_standard_peripheral/Source\gd32f30x_fmc.c ****                 /* set the PG bit to start program */
 439:C:/Users/49542/Desktop/GD32F30x_Demo_Suites_V2.0.0/GD32F30x_Demo_Suites_V2.0.0/GD32F30x_Firmware_Library/GD32F30x_standard_peripheral/Source\gd32f30x_fmc.c ****                 FMC_CTL0 |= FMC_CTL0_PG;
 440:C:/Users/49542/Desktop/GD32F30x_Demo_Suites_V2.0.0/GD32F30x_Demo_Suites_V2.0.0/GD32F30x_Firmware_Library/GD32F30x_standard_peripheral/Source\gd32f30x_fmc.c ****                 REG32(address) = data;
 441:C:/Users/49542/Desktop/GD32F30x_Demo_Suites_V2.0.0/GD32F30x_Demo_Suites_V2.0.0/GD32F30x_Firmware_Library/GD32F30x_standard_peripheral/Source\gd32f30x_fmc.c ****                 /* wait for the FMC ready */
 442:C:/Users/49542/Desktop/GD32F30x_Demo_Suites_V2.0.0/GD32F30x_Demo_Suites_V2.0.0/GD32F30x_Firmware_Library/GD32F30x_standard_peripheral/Source\gd32f30x_fmc.c ****                 fmc_state = fmc_bank0_ready_wait(FMC_TIMEOUT_COUNT);
 443:C:/Users/49542/Desktop/GD32F30x_Demo_Suites_V2.0.0/GD32F30x_Demo_Suites_V2.0.0/GD32F30x_Firmware_Library/GD32F30x_standard_peripheral/Source\gd32f30x_fmc.c ****                 /* reset the PG bit */
 444:C:/Users/49542/Desktop/GD32F30x_Demo_Suites_V2.0.0/GD32F30x_Demo_Suites_V2.0.0/GD32F30x_Firmware_Library/GD32F30x_standard_peripheral/Source\gd32f30x_fmc.c ****                 FMC_CTL0 &= ~FMC_CTL0_PG;
 445:C:/Users/49542/Desktop/GD32F30x_Demo_Suites_V2.0.0/GD32F30x_Demo_Suites_V2.0.0/GD32F30x_Firmware_Library/GD32F30x_standard_peripheral/Source\gd32f30x_fmc.c ****             }
 446:C:/Users/49542/Desktop/GD32F30x_Demo_Suites_V2.0.0/GD32F30x_Demo_Suites_V2.0.0/GD32F30x_Firmware_Library/GD32F30x_standard_peripheral/Source\gd32f30x_fmc.c ****         }else{
 447:C:/Users/49542/Desktop/GD32F30x_Demo_Suites_V2.0.0/GD32F30x_Demo_Suites_V2.0.0/GD32F30x_Firmware_Library/GD32F30x_standard_peripheral/Source\gd32f30x_fmc.c ****             fmc_state = fmc_bank1_ready_wait(FMC_TIMEOUT_COUNT); 
 448:C:/Users/49542/Desktop/GD32F30x_Demo_Suites_V2.0.0/GD32F30x_Demo_Suites_V2.0.0/GD32F30x_Firmware_Library/GD32F30x_standard_peripheral/Source\gd32f30x_fmc.c ****             FMC_WSEN |= FMC_WSEN_BPEN;
 449:C:/Users/49542/Desktop/GD32F30x_Demo_Suites_V2.0.0/GD32F30x_Demo_Suites_V2.0.0/GD32F30x_Firmware_Library/GD32F30x_standard_peripheral/Source\gd32f30x_fmc.c ****             if(FMC_READY == fmc_state){
 450:C:/Users/49542/Desktop/GD32F30x_Demo_Suites_V2.0.0/GD32F30x_Demo_Suites_V2.0.0/GD32F30x_Firmware_Library/GD32F30x_standard_peripheral/Source\gd32f30x_fmc.c ****                 /* set the PG bit to start program */
 451:C:/Users/49542/Desktop/GD32F30x_Demo_Suites_V2.0.0/GD32F30x_Demo_Suites_V2.0.0/GD32F30x_Firmware_Library/GD32F30x_standard_peripheral/Source\gd32f30x_fmc.c ****                 FMC_CTL1 |= FMC_CTL1_PG;
 452:C:/Users/49542/Desktop/GD32F30x_Demo_Suites_V2.0.0/GD32F30x_Demo_Suites_V2.0.0/GD32F30x_Firmware_Library/GD32F30x_standard_peripheral/Source\gd32f30x_fmc.c ****                 REG32(address) = data;
 453:C:/Users/49542/Desktop/GD32F30x_Demo_Suites_V2.0.0/GD32F30x_Demo_Suites_V2.0.0/GD32F30x_Firmware_Library/GD32F30x_standard_peripheral/Source\gd32f30x_fmc.c ****                 /* wait for the FMC ready */
 454:C:/Users/49542/Desktop/GD32F30x_Demo_Suites_V2.0.0/GD32F30x_Demo_Suites_V2.0.0/GD32F30x_Firmware_Library/GD32F30x_standard_peripheral/Source\gd32f30x_fmc.c ****                 fmc_state = fmc_bank1_ready_wait(FMC_TIMEOUT_COUNT);
 455:C:/Users/49542/Desktop/GD32F30x_Demo_Suites_V2.0.0/GD32F30x_Demo_Suites_V2.0.0/GD32F30x_Firmware_Library/GD32F30x_standard_peripheral/Source\gd32f30x_fmc.c ****                 /* reset the PG bit */
 456:C:/Users/49542/Desktop/GD32F30x_Demo_Suites_V2.0.0/GD32F30x_Demo_Suites_V2.0.0/GD32F30x_Firmware_Library/GD32F30x_standard_peripheral/Source\gd32f30x_fmc.c ****                 FMC_CTL1 &= ~FMC_CTL1_PG;
ARM GAS  C:\Users\49542\AppData\Local\Temp\cceCZdNg.s 			page 14


 457:C:/Users/49542/Desktop/GD32F30x_Demo_Suites_V2.0.0/GD32F30x_Demo_Suites_V2.0.0/GD32F30x_Firmware_Library/GD32F30x_standard_peripheral/Source\gd32f30x_fmc.c ****             }
 458:C:/Users/49542/Desktop/GD32F30x_Demo_Suites_V2.0.0/GD32F30x_Demo_Suites_V2.0.0/GD32F30x_Firmware_Library/GD32F30x_standard_peripheral/Source\gd32f30x_fmc.c ****         }
 459:C:/Users/49542/Desktop/GD32F30x_Demo_Suites_V2.0.0/GD32F30x_Demo_Suites_V2.0.0/GD32F30x_Firmware_Library/GD32F30x_standard_peripheral/Source\gd32f30x_fmc.c ****     }else{
 460:C:/Users/49542/Desktop/GD32F30x_Demo_Suites_V2.0.0/GD32F30x_Demo_Suites_V2.0.0/GD32F30x_Firmware_Library/GD32F30x_standard_peripheral/Source\gd32f30x_fmc.c ****         fmc_state = fmc_bank0_ready_wait(FMC_TIMEOUT_COUNT);
 461:C:/Users/49542/Desktop/GD32F30x_Demo_Suites_V2.0.0/GD32F30x_Demo_Suites_V2.0.0/GD32F30x_Firmware_Library/GD32F30x_standard_peripheral/Source\gd32f30x_fmc.c ****         FMC_WSEN |= FMC_WSEN_BPEN;
 462:C:/Users/49542/Desktop/GD32F30x_Demo_Suites_V2.0.0/GD32F30x_Demo_Suites_V2.0.0/GD32F30x_Firmware_Library/GD32F30x_standard_peripheral/Source\gd32f30x_fmc.c ****         if(FMC_READY == fmc_state){
 463:C:/Users/49542/Desktop/GD32F30x_Demo_Suites_V2.0.0/GD32F30x_Demo_Suites_V2.0.0/GD32F30x_Firmware_Library/GD32F30x_standard_peripheral/Source\gd32f30x_fmc.c ****             /* set the PG bit to start program */
 464:C:/Users/49542/Desktop/GD32F30x_Demo_Suites_V2.0.0/GD32F30x_Demo_Suites_V2.0.0/GD32F30x_Firmware_Library/GD32F30x_standard_peripheral/Source\gd32f30x_fmc.c ****             FMC_CTL0 |= FMC_CTL0_PG;
 465:C:/Users/49542/Desktop/GD32F30x_Demo_Suites_V2.0.0/GD32F30x_Demo_Suites_V2.0.0/GD32F30x_Firmware_Library/GD32F30x_standard_peripheral/Source\gd32f30x_fmc.c ****             REG32(address) = data;
 466:C:/Users/49542/Desktop/GD32F30x_Demo_Suites_V2.0.0/GD32F30x_Demo_Suites_V2.0.0/GD32F30x_Firmware_Library/GD32F30x_standard_peripheral/Source\gd32f30x_fmc.c ****             /* wait for the FMC ready */
 467:C:/Users/49542/Desktop/GD32F30x_Demo_Suites_V2.0.0/GD32F30x_Demo_Suites_V2.0.0/GD32F30x_Firmware_Library/GD32F30x_standard_peripheral/Source\gd32f30x_fmc.c ****             fmc_state = fmc_bank0_ready_wait(FMC_TIMEOUT_COUNT);
 468:C:/Users/49542/Desktop/GD32F30x_Demo_Suites_V2.0.0/GD32F30x_Demo_Suites_V2.0.0/GD32F30x_Firmware_Library/GD32F30x_standard_peripheral/Source\gd32f30x_fmc.c ****             /* reset the PG bit */
 469:C:/Users/49542/Desktop/GD32F30x_Demo_Suites_V2.0.0/GD32F30x_Demo_Suites_V2.0.0/GD32F30x_Firmware_Library/GD32F30x_standard_peripheral/Source\gd32f30x_fmc.c ****             FMC_CTL0 &= ~FMC_CTL0_PG;
 470:C:/Users/49542/Desktop/GD32F30x_Demo_Suites_V2.0.0/GD32F30x_Demo_Suites_V2.0.0/GD32F30x_Firmware_Library/GD32F30x_standard_peripheral/Source\gd32f30x_fmc.c ****         } 
 471:C:/Users/49542/Desktop/GD32F30x_Demo_Suites_V2.0.0/GD32F30x_Demo_Suites_V2.0.0/GD32F30x_Firmware_Library/GD32F30x_standard_peripheral/Source\gd32f30x_fmc.c ****     }
 472:C:/Users/49542/Desktop/GD32F30x_Demo_Suites_V2.0.0/GD32F30x_Demo_Suites_V2.0.0/GD32F30x_Firmware_Library/GD32F30x_standard_peripheral/Source\gd32f30x_fmc.c ****     /* return the FMC state */
 473:C:/Users/49542/Desktop/GD32F30x_Demo_Suites_V2.0.0/GD32F30x_Demo_Suites_V2.0.0/GD32F30x_Firmware_Library/GD32F30x_standard_peripheral/Source\gd32f30x_fmc.c ****     return fmc_state;
 474:C:/Users/49542/Desktop/GD32F30x_Demo_Suites_V2.0.0/GD32F30x_Demo_Suites_V2.0.0/GD32F30x_Firmware_Library/GD32F30x_standard_peripheral/Source\gd32f30x_fmc.c **** }
 475:C:/Users/49542/Desktop/GD32F30x_Demo_Suites_V2.0.0/GD32F30x_Demo_Suites_V2.0.0/GD32F30x_Firmware_Library/GD32F30x_standard_peripheral/Source\gd32f30x_fmc.c **** 
 476:C:/Users/49542/Desktop/GD32F30x_Demo_Suites_V2.0.0/GD32F30x_Demo_Suites_V2.0.0/GD32F30x_Firmware_Library/GD32F30x_standard_peripheral/Source\gd32f30x_fmc.c **** /*!
 477:C:/Users/49542/Desktop/GD32F30x_Demo_Suites_V2.0.0/GD32F30x_Demo_Suites_V2.0.0/GD32F30x_Firmware_Library/GD32F30x_standard_peripheral/Source\gd32f30x_fmc.c ****     \brief      unlock the option byte operation
 478:C:/Users/49542/Desktop/GD32F30x_Demo_Suites_V2.0.0/GD32F30x_Demo_Suites_V2.0.0/GD32F30x_Firmware_Library/GD32F30x_standard_peripheral/Source\gd32f30x_fmc.c ****     \param[in]  none
 479:C:/Users/49542/Desktop/GD32F30x_Demo_Suites_V2.0.0/GD32F30x_Demo_Suites_V2.0.0/GD32F30x_Firmware_Library/GD32F30x_standard_peripheral/Source\gd32f30x_fmc.c ****     \param[out] none
 480:C:/Users/49542/Desktop/GD32F30x_Demo_Suites_V2.0.0/GD32F30x_Demo_Suites_V2.0.0/GD32F30x_Firmware_Library/GD32F30x_standard_peripheral/Source\gd32f30x_fmc.c ****     \retval     none
 481:C:/Users/49542/Desktop/GD32F30x_Demo_Suites_V2.0.0/GD32F30x_Demo_Suites_V2.0.0/GD32F30x_Firmware_Library/GD32F30x_standard_peripheral/Source\gd32f30x_fmc.c **** */
 482:C:/Users/49542/Desktop/GD32F30x_Demo_Suites_V2.0.0/GD32F30x_Demo_Suites_V2.0.0/GD32F30x_Firmware_Library/GD32F30x_standard_peripheral/Source\gd32f30x_fmc.c **** void ob_unlock(void)
 483:C:/Users/49542/Desktop/GD32F30x_Demo_Suites_V2.0.0/GD32F30x_Demo_Suites_V2.0.0/GD32F30x_Firmware_Library/GD32F30x_standard_peripheral/Source\gd32f30x_fmc.c **** {
 301              		.loc 1 483 0
 302              		.cfi_startproc
 303              		@ args = 0, pretend = 0, frame = 0
 304              		@ frame_needed = 0, uses_anonymous_args = 0
 305              		@ link register save eliminated.
 484:C:/Users/49542/Desktop/GD32F30x_Demo_Suites_V2.0.0/GD32F30x_Demo_Suites_V2.0.0/GD32F30x_Firmware_Library/GD32F30x_standard_peripheral/Source\gd32f30x_fmc.c ****     if(RESET == (FMC_CTL0 & FMC_CTL0_OBWEN)){
 306              		.loc 1 484 0
 307 0000 054B     		ldr	r3, .L29
 308 0002 1B68     		ldr	r3, [r3]
 309 0004 13F4007F 		tst	r3, #512
 310 0008 05D1     		bne	.L27
 485:C:/Users/49542/Desktop/GD32F30x_Demo_Suites_V2.0.0/GD32F30x_Demo_Suites_V2.0.0/GD32F30x_Firmware_Library/GD32F30x_standard_peripheral/Source\gd32f30x_fmc.c ****         /* write the FMC key */
 486:C:/Users/49542/Desktop/GD32F30x_Demo_Suites_V2.0.0/GD32F30x_Demo_Suites_V2.0.0/GD32F30x_Firmware_Library/GD32F30x_standard_peripheral/Source\gd32f30x_fmc.c ****         FMC_OBKEY = UNLOCK_KEY0;
 311              		.loc 1 486 0
 312 000a 044B     		ldr	r3, .L29+4
 313 000c 044A     		ldr	r2, .L29+8
 314 000e 1A60     		str	r2, [r3]
 487:C:/Users/49542/Desktop/GD32F30x_Demo_Suites_V2.0.0/GD32F30x_Demo_Suites_V2.0.0/GD32F30x_Firmware_Library/GD32F30x_standard_peripheral/Source\gd32f30x_fmc.c ****         FMC_OBKEY = UNLOCK_KEY1;
 315              		.loc 1 487 0
 316 0010 02F18832 		add	r2, r2, #-2004318072
 317 0014 1A60     		str	r2, [r3]
 318              	.L27:
 488:C:/Users/49542/Desktop/GD32F30x_Demo_Suites_V2.0.0/GD32F30x_Demo_Suites_V2.0.0/GD32F30x_Firmware_Library/GD32F30x_standard_peripheral/Source\gd32f30x_fmc.c ****     }
 489:C:/Users/49542/Desktop/GD32F30x_Demo_Suites_V2.0.0/GD32F30x_Demo_Suites_V2.0.0/GD32F30x_Firmware_Library/GD32F30x_standard_peripheral/Source\gd32f30x_fmc.c **** }
 319              		.loc 1 489 0
 320 0016 7047     		bx	lr
 321              	.L30:
 322              		.align	2
 323              	.L29:
 324 0018 10200240 		.word	1073881104
ARM GAS  C:\Users\49542\AppData\Local\Temp\cceCZdNg.s 			page 15


 325 001c 08200240 		.word	1073881096
 326 0020 23016745 		.word	1164378403
 327              		.cfi_endproc
 328              	.LFE130:
 330              		.section	.text.ob_lock,"ax",%progbits
 331              		.align	1
 332              		.global	ob_lock
 333              		.syntax unified
 334              		.thumb
 335              		.thumb_func
 336              		.fpu fpv4-sp-d16
 338              	ob_lock:
 339              	.LFB131:
 490:C:/Users/49542/Desktop/GD32F30x_Demo_Suites_V2.0.0/GD32F30x_Demo_Suites_V2.0.0/GD32F30x_Firmware_Library/GD32F30x_standard_peripheral/Source\gd32f30x_fmc.c **** 
 491:C:/Users/49542/Desktop/GD32F30x_Demo_Suites_V2.0.0/GD32F30x_Demo_Suites_V2.0.0/GD32F30x_Firmware_Library/GD32F30x_standard_peripheral/Source\gd32f30x_fmc.c **** /*!
 492:C:/Users/49542/Desktop/GD32F30x_Demo_Suites_V2.0.0/GD32F30x_Demo_Suites_V2.0.0/GD32F30x_Firmware_Library/GD32F30x_standard_peripheral/Source\gd32f30x_fmc.c ****     \brief      lock the option byte operation
 493:C:/Users/49542/Desktop/GD32F30x_Demo_Suites_V2.0.0/GD32F30x_Demo_Suites_V2.0.0/GD32F30x_Firmware_Library/GD32F30x_standard_peripheral/Source\gd32f30x_fmc.c ****     \param[in]  none
 494:C:/Users/49542/Desktop/GD32F30x_Demo_Suites_V2.0.0/GD32F30x_Demo_Suites_V2.0.0/GD32F30x_Firmware_Library/GD32F30x_standard_peripheral/Source\gd32f30x_fmc.c ****     \param[out] none
 495:C:/Users/49542/Desktop/GD32F30x_Demo_Suites_V2.0.0/GD32F30x_Demo_Suites_V2.0.0/GD32F30x_Firmware_Library/GD32F30x_standard_peripheral/Source\gd32f30x_fmc.c ****     \retval     none
 496:C:/Users/49542/Desktop/GD32F30x_Demo_Suites_V2.0.0/GD32F30x_Demo_Suites_V2.0.0/GD32F30x_Firmware_Library/GD32F30x_standard_peripheral/Source\gd32f30x_fmc.c **** */
 497:C:/Users/49542/Desktop/GD32F30x_Demo_Suites_V2.0.0/GD32F30x_Demo_Suites_V2.0.0/GD32F30x_Firmware_Library/GD32F30x_standard_peripheral/Source\gd32f30x_fmc.c **** void ob_lock(void)
 498:C:/Users/49542/Desktop/GD32F30x_Demo_Suites_V2.0.0/GD32F30x_Demo_Suites_V2.0.0/GD32F30x_Firmware_Library/GD32F30x_standard_peripheral/Source\gd32f30x_fmc.c **** {
 340              		.loc 1 498 0
 341              		.cfi_startproc
 342              		@ args = 0, pretend = 0, frame = 0
 343              		@ frame_needed = 0, uses_anonymous_args = 0
 344              		@ link register save eliminated.
 499:C:/Users/49542/Desktop/GD32F30x_Demo_Suites_V2.0.0/GD32F30x_Demo_Suites_V2.0.0/GD32F30x_Firmware_Library/GD32F30x_standard_peripheral/Source\gd32f30x_fmc.c ****     /* reset the OBWEN bit */
 500:C:/Users/49542/Desktop/GD32F30x_Demo_Suites_V2.0.0/GD32F30x_Demo_Suites_V2.0.0/GD32F30x_Firmware_Library/GD32F30x_standard_peripheral/Source\gd32f30x_fmc.c ****     FMC_CTL0 &= ~FMC_CTL0_OBWEN;
 345              		.loc 1 500 0
 346 0000 024A     		ldr	r2, .L32
 347 0002 1368     		ldr	r3, [r2]
 348 0004 23F40073 		bic	r3, r3, #512
 349 0008 1360     		str	r3, [r2]
 501:C:/Users/49542/Desktop/GD32F30x_Demo_Suites_V2.0.0/GD32F30x_Demo_Suites_V2.0.0/GD32F30x_Firmware_Library/GD32F30x_standard_peripheral/Source\gd32f30x_fmc.c **** }
 350              		.loc 1 501 0
 351 000a 7047     		bx	lr
 352              	.L33:
 353              		.align	2
 354              	.L32:
 355 000c 10200240 		.word	1073881104
 356              		.cfi_endproc
 357              	.LFE131:
 359              		.section	.text.ob_user_get,"ax",%progbits
 360              		.align	1
 361              		.global	ob_user_get
 362              		.syntax unified
 363              		.thumb
 364              		.thumb_func
 365              		.fpu fpv4-sp-d16
 367              	ob_user_get:
 368              	.LFB137:
 502:C:/Users/49542/Desktop/GD32F30x_Demo_Suites_V2.0.0/GD32F30x_Demo_Suites_V2.0.0/GD32F30x_Firmware_Library/GD32F30x_standard_peripheral/Source\gd32f30x_fmc.c **** 
 503:C:/Users/49542/Desktop/GD32F30x_Demo_Suites_V2.0.0/GD32F30x_Demo_Suites_V2.0.0/GD32F30x_Firmware_Library/GD32F30x_standard_peripheral/Source\gd32f30x_fmc.c **** /*!
 504:C:/Users/49542/Desktop/GD32F30x_Demo_Suites_V2.0.0/GD32F30x_Demo_Suites_V2.0.0/GD32F30x_Firmware_Library/GD32F30x_standard_peripheral/Source\gd32f30x_fmc.c ****     \brief      erase the FMC option byte
 505:C:/Users/49542/Desktop/GD32F30x_Demo_Suites_V2.0.0/GD32F30x_Demo_Suites_V2.0.0/GD32F30x_Firmware_Library/GD32F30x_standard_peripheral/Source\gd32f30x_fmc.c ****                 unlock the FMC_CTL0 and option byte before calling this function
 506:C:/Users/49542/Desktop/GD32F30x_Demo_Suites_V2.0.0/GD32F30x_Demo_Suites_V2.0.0/GD32F30x_Firmware_Library/GD32F30x_standard_peripheral/Source\gd32f30x_fmc.c ****     \param[in]  none
ARM GAS  C:\Users\49542\AppData\Local\Temp\cceCZdNg.s 			page 16


 507:C:/Users/49542/Desktop/GD32F30x_Demo_Suites_V2.0.0/GD32F30x_Demo_Suites_V2.0.0/GD32F30x_Firmware_Library/GD32F30x_standard_peripheral/Source\gd32f30x_fmc.c ****     \param[out] none
 508:C:/Users/49542/Desktop/GD32F30x_Demo_Suites_V2.0.0/GD32F30x_Demo_Suites_V2.0.0/GD32F30x_Firmware_Library/GD32F30x_standard_peripheral/Source\gd32f30x_fmc.c ****     \retval     state of FMC, refer to fmc_state_enum
 509:C:/Users/49542/Desktop/GD32F30x_Demo_Suites_V2.0.0/GD32F30x_Demo_Suites_V2.0.0/GD32F30x_Firmware_Library/GD32F30x_standard_peripheral/Source\gd32f30x_fmc.c **** */
 510:C:/Users/49542/Desktop/GD32F30x_Demo_Suites_V2.0.0/GD32F30x_Demo_Suites_V2.0.0/GD32F30x_Firmware_Library/GD32F30x_standard_peripheral/Source\gd32f30x_fmc.c **** fmc_state_enum ob_erase(void)
 511:C:/Users/49542/Desktop/GD32F30x_Demo_Suites_V2.0.0/GD32F30x_Demo_Suites_V2.0.0/GD32F30x_Firmware_Library/GD32F30x_standard_peripheral/Source\gd32f30x_fmc.c **** {
 512:C:/Users/49542/Desktop/GD32F30x_Demo_Suites_V2.0.0/GD32F30x_Demo_Suites_V2.0.0/GD32F30x_Firmware_Library/GD32F30x_standard_peripheral/Source\gd32f30x_fmc.c ****     uint16_t temp_spc = FMC_NSPC;
 513:C:/Users/49542/Desktop/GD32F30x_Demo_Suites_V2.0.0/GD32F30x_Demo_Suites_V2.0.0/GD32F30x_Firmware_Library/GD32F30x_standard_peripheral/Source\gd32f30x_fmc.c **** 
 514:C:/Users/49542/Desktop/GD32F30x_Demo_Suites_V2.0.0/GD32F30x_Demo_Suites_V2.0.0/GD32F30x_Firmware_Library/GD32F30x_standard_peripheral/Source\gd32f30x_fmc.c ****     fmc_state_enum fmc_state = fmc_bank0_ready_wait(FMC_TIMEOUT_COUNT);
 515:C:/Users/49542/Desktop/GD32F30x_Demo_Suites_V2.0.0/GD32F30x_Demo_Suites_V2.0.0/GD32F30x_Firmware_Library/GD32F30x_standard_peripheral/Source\gd32f30x_fmc.c **** 
 516:C:/Users/49542/Desktop/GD32F30x_Demo_Suites_V2.0.0/GD32F30x_Demo_Suites_V2.0.0/GD32F30x_Firmware_Library/GD32F30x_standard_peripheral/Source\gd32f30x_fmc.c ****     /* check the option byte security protection value */
 517:C:/Users/49542/Desktop/GD32F30x_Demo_Suites_V2.0.0/GD32F30x_Demo_Suites_V2.0.0/GD32F30x_Firmware_Library/GD32F30x_standard_peripheral/Source\gd32f30x_fmc.c ****     if(RESET != ob_spc_get()){
 518:C:/Users/49542/Desktop/GD32F30x_Demo_Suites_V2.0.0/GD32F30x_Demo_Suites_V2.0.0/GD32F30x_Firmware_Library/GD32F30x_standard_peripheral/Source\gd32f30x_fmc.c ****         temp_spc = FMC_USPC;  
 519:C:/Users/49542/Desktop/GD32F30x_Demo_Suites_V2.0.0/GD32F30x_Demo_Suites_V2.0.0/GD32F30x_Firmware_Library/GD32F30x_standard_peripheral/Source\gd32f30x_fmc.c ****     }
 520:C:/Users/49542/Desktop/GD32F30x_Demo_Suites_V2.0.0/GD32F30x_Demo_Suites_V2.0.0/GD32F30x_Firmware_Library/GD32F30x_standard_peripheral/Source\gd32f30x_fmc.c **** 
 521:C:/Users/49542/Desktop/GD32F30x_Demo_Suites_V2.0.0/GD32F30x_Demo_Suites_V2.0.0/GD32F30x_Firmware_Library/GD32F30x_standard_peripheral/Source\gd32f30x_fmc.c ****     if(FMC_READY == fmc_state){
 522:C:/Users/49542/Desktop/GD32F30x_Demo_Suites_V2.0.0/GD32F30x_Demo_Suites_V2.0.0/GD32F30x_Firmware_Library/GD32F30x_standard_peripheral/Source\gd32f30x_fmc.c **** 
 523:C:/Users/49542/Desktop/GD32F30x_Demo_Suites_V2.0.0/GD32F30x_Demo_Suites_V2.0.0/GD32F30x_Firmware_Library/GD32F30x_standard_peripheral/Source\gd32f30x_fmc.c ****         /* start erase the option byte */
 524:C:/Users/49542/Desktop/GD32F30x_Demo_Suites_V2.0.0/GD32F30x_Demo_Suites_V2.0.0/GD32F30x_Firmware_Library/GD32F30x_standard_peripheral/Source\gd32f30x_fmc.c ****         FMC_CTL0 |= FMC_CTL0_OBER;
 525:C:/Users/49542/Desktop/GD32F30x_Demo_Suites_V2.0.0/GD32F30x_Demo_Suites_V2.0.0/GD32F30x_Firmware_Library/GD32F30x_standard_peripheral/Source\gd32f30x_fmc.c ****         FMC_CTL0 |= FMC_CTL0_START;
 526:C:/Users/49542/Desktop/GD32F30x_Demo_Suites_V2.0.0/GD32F30x_Demo_Suites_V2.0.0/GD32F30x_Firmware_Library/GD32F30x_standard_peripheral/Source\gd32f30x_fmc.c **** 
 527:C:/Users/49542/Desktop/GD32F30x_Demo_Suites_V2.0.0/GD32F30x_Demo_Suites_V2.0.0/GD32F30x_Firmware_Library/GD32F30x_standard_peripheral/Source\gd32f30x_fmc.c ****         /* wait for the FMC ready */
 528:C:/Users/49542/Desktop/GD32F30x_Demo_Suites_V2.0.0/GD32F30x_Demo_Suites_V2.0.0/GD32F30x_Firmware_Library/GD32F30x_standard_peripheral/Source\gd32f30x_fmc.c ****         fmc_state = fmc_bank0_ready_wait(FMC_TIMEOUT_COUNT);
 529:C:/Users/49542/Desktop/GD32F30x_Demo_Suites_V2.0.0/GD32F30x_Demo_Suites_V2.0.0/GD32F30x_Firmware_Library/GD32F30x_standard_peripheral/Source\gd32f30x_fmc.c ****     
 530:C:/Users/49542/Desktop/GD32F30x_Demo_Suites_V2.0.0/GD32F30x_Demo_Suites_V2.0.0/GD32F30x_Firmware_Library/GD32F30x_standard_peripheral/Source\gd32f30x_fmc.c ****         if(FMC_READY == fmc_state){
 531:C:/Users/49542/Desktop/GD32F30x_Demo_Suites_V2.0.0/GD32F30x_Demo_Suites_V2.0.0/GD32F30x_Firmware_Library/GD32F30x_standard_peripheral/Source\gd32f30x_fmc.c ****             /* reset the OBER bit */
 532:C:/Users/49542/Desktop/GD32F30x_Demo_Suites_V2.0.0/GD32F30x_Demo_Suites_V2.0.0/GD32F30x_Firmware_Library/GD32F30x_standard_peripheral/Source\gd32f30x_fmc.c ****             FMC_CTL0 &= ~FMC_CTL0_OBER;
 533:C:/Users/49542/Desktop/GD32F30x_Demo_Suites_V2.0.0/GD32F30x_Demo_Suites_V2.0.0/GD32F30x_Firmware_Library/GD32F30x_standard_peripheral/Source\gd32f30x_fmc.c ****             /* set the OBPG bit */
 534:C:/Users/49542/Desktop/GD32F30x_Demo_Suites_V2.0.0/GD32F30x_Demo_Suites_V2.0.0/GD32F30x_Firmware_Library/GD32F30x_standard_peripheral/Source\gd32f30x_fmc.c ****             FMC_CTL0 |= FMC_CTL0_OBPG;
 535:C:/Users/49542/Desktop/GD32F30x_Demo_Suites_V2.0.0/GD32F30x_Demo_Suites_V2.0.0/GD32F30x_Firmware_Library/GD32F30x_standard_peripheral/Source\gd32f30x_fmc.c ****             /* no security protection */
 536:C:/Users/49542/Desktop/GD32F30x_Demo_Suites_V2.0.0/GD32F30x_Demo_Suites_V2.0.0/GD32F30x_Firmware_Library/GD32F30x_standard_peripheral/Source\gd32f30x_fmc.c ****             OB_SPC = (uint16_t)temp_spc; 
 537:C:/Users/49542/Desktop/GD32F30x_Demo_Suites_V2.0.0/GD32F30x_Demo_Suites_V2.0.0/GD32F30x_Firmware_Library/GD32F30x_standard_peripheral/Source\gd32f30x_fmc.c ****             /* wait for the FMC ready */
 538:C:/Users/49542/Desktop/GD32F30x_Demo_Suites_V2.0.0/GD32F30x_Demo_Suites_V2.0.0/GD32F30x_Firmware_Library/GD32F30x_standard_peripheral/Source\gd32f30x_fmc.c ****             fmc_state = fmc_bank0_ready_wait(FMC_TIMEOUT_COUNT); 
 539:C:/Users/49542/Desktop/GD32F30x_Demo_Suites_V2.0.0/GD32F30x_Demo_Suites_V2.0.0/GD32F30x_Firmware_Library/GD32F30x_standard_peripheral/Source\gd32f30x_fmc.c ****             if(FMC_TOERR != fmc_state){
 540:C:/Users/49542/Desktop/GD32F30x_Demo_Suites_V2.0.0/GD32F30x_Demo_Suites_V2.0.0/GD32F30x_Firmware_Library/GD32F30x_standard_peripheral/Source\gd32f30x_fmc.c ****                 /* reset the OBPG bit */
 541:C:/Users/49542/Desktop/GD32F30x_Demo_Suites_V2.0.0/GD32F30x_Demo_Suites_V2.0.0/GD32F30x_Firmware_Library/GD32F30x_standard_peripheral/Source\gd32f30x_fmc.c ****                 FMC_CTL0 &= ~FMC_CTL0_OBPG;
 542:C:/Users/49542/Desktop/GD32F30x_Demo_Suites_V2.0.0/GD32F30x_Demo_Suites_V2.0.0/GD32F30x_Firmware_Library/GD32F30x_standard_peripheral/Source\gd32f30x_fmc.c ****             }
 543:C:/Users/49542/Desktop/GD32F30x_Demo_Suites_V2.0.0/GD32F30x_Demo_Suites_V2.0.0/GD32F30x_Firmware_Library/GD32F30x_standard_peripheral/Source\gd32f30x_fmc.c ****         }else{
 544:C:/Users/49542/Desktop/GD32F30x_Demo_Suites_V2.0.0/GD32F30x_Demo_Suites_V2.0.0/GD32F30x_Firmware_Library/GD32F30x_standard_peripheral/Source\gd32f30x_fmc.c ****             if(FMC_TOERR != fmc_state){
 545:C:/Users/49542/Desktop/GD32F30x_Demo_Suites_V2.0.0/GD32F30x_Demo_Suites_V2.0.0/GD32F30x_Firmware_Library/GD32F30x_standard_peripheral/Source\gd32f30x_fmc.c ****                 /* reset the OBPG bit */
 546:C:/Users/49542/Desktop/GD32F30x_Demo_Suites_V2.0.0/GD32F30x_Demo_Suites_V2.0.0/GD32F30x_Firmware_Library/GD32F30x_standard_peripheral/Source\gd32f30x_fmc.c ****                 FMC_CTL0 &= ~FMC_CTL0_OBPG;
 547:C:/Users/49542/Desktop/GD32F30x_Demo_Suites_V2.0.0/GD32F30x_Demo_Suites_V2.0.0/GD32F30x_Firmware_Library/GD32F30x_standard_peripheral/Source\gd32f30x_fmc.c ****             }
 548:C:/Users/49542/Desktop/GD32F30x_Demo_Suites_V2.0.0/GD32F30x_Demo_Suites_V2.0.0/GD32F30x_Firmware_Library/GD32F30x_standard_peripheral/Source\gd32f30x_fmc.c ****         }
 549:C:/Users/49542/Desktop/GD32F30x_Demo_Suites_V2.0.0/GD32F30x_Demo_Suites_V2.0.0/GD32F30x_Firmware_Library/GD32F30x_standard_peripheral/Source\gd32f30x_fmc.c ****     }
 550:C:/Users/49542/Desktop/GD32F30x_Demo_Suites_V2.0.0/GD32F30x_Demo_Suites_V2.0.0/GD32F30x_Firmware_Library/GD32F30x_standard_peripheral/Source\gd32f30x_fmc.c ****     /* return the FMC state */
 551:C:/Users/49542/Desktop/GD32F30x_Demo_Suites_V2.0.0/GD32F30x_Demo_Suites_V2.0.0/GD32F30x_Firmware_Library/GD32F30x_standard_peripheral/Source\gd32f30x_fmc.c ****     return fmc_state;
 552:C:/Users/49542/Desktop/GD32F30x_Demo_Suites_V2.0.0/GD32F30x_Demo_Suites_V2.0.0/GD32F30x_Firmware_Library/GD32F30x_standard_peripheral/Source\gd32f30x_fmc.c **** }
 553:C:/Users/49542/Desktop/GD32F30x_Demo_Suites_V2.0.0/GD32F30x_Demo_Suites_V2.0.0/GD32F30x_Firmware_Library/GD32F30x_standard_peripheral/Source\gd32f30x_fmc.c **** 
 554:C:/Users/49542/Desktop/GD32F30x_Demo_Suites_V2.0.0/GD32F30x_Demo_Suites_V2.0.0/GD32F30x_Firmware_Library/GD32F30x_standard_peripheral/Source\gd32f30x_fmc.c **** /*!
 555:C:/Users/49542/Desktop/GD32F30x_Demo_Suites_V2.0.0/GD32F30x_Demo_Suites_V2.0.0/GD32F30x_Firmware_Library/GD32F30x_standard_peripheral/Source\gd32f30x_fmc.c ****     \brief      enable write protection
 556:C:/Users/49542/Desktop/GD32F30x_Demo_Suites_V2.0.0/GD32F30x_Demo_Suites_V2.0.0/GD32F30x_Firmware_Library/GD32F30x_standard_peripheral/Source\gd32f30x_fmc.c ****     \param[in]  ob_wp: specify sector to be write protected
 557:C:/Users/49542/Desktop/GD32F30x_Demo_Suites_V2.0.0/GD32F30x_Demo_Suites_V2.0.0/GD32F30x_Firmware_Library/GD32F30x_standard_peripheral/Source\gd32f30x_fmc.c ****       \arg        OB_WPx(x=0..31): write protect specify sector
 558:C:/Users/49542/Desktop/GD32F30x_Demo_Suites_V2.0.0/GD32F30x_Demo_Suites_V2.0.0/GD32F30x_Firmware_Library/GD32F30x_standard_peripheral/Source\gd32f30x_fmc.c ****       \arg        OB_WP_ALL: write protect all sector
 559:C:/Users/49542/Desktop/GD32F30x_Demo_Suites_V2.0.0/GD32F30x_Demo_Suites_V2.0.0/GD32F30x_Firmware_Library/GD32F30x_standard_peripheral/Source\gd32f30x_fmc.c ****     \param[out] none
 560:C:/Users/49542/Desktop/GD32F30x_Demo_Suites_V2.0.0/GD32F30x_Demo_Suites_V2.0.0/GD32F30x_Firmware_Library/GD32F30x_standard_peripheral/Source\gd32f30x_fmc.c ****     \retval     state of FMC, refer to fmc_state_enum
 561:C:/Users/49542/Desktop/GD32F30x_Demo_Suites_V2.0.0/GD32F30x_Demo_Suites_V2.0.0/GD32F30x_Firmware_Library/GD32F30x_standard_peripheral/Source\gd32f30x_fmc.c **** */
 562:C:/Users/49542/Desktop/GD32F30x_Demo_Suites_V2.0.0/GD32F30x_Demo_Suites_V2.0.0/GD32F30x_Firmware_Library/GD32F30x_standard_peripheral/Source\gd32f30x_fmc.c **** fmc_state_enum ob_write_protection_enable(uint32_t ob_wp)
 563:C:/Users/49542/Desktop/GD32F30x_Demo_Suites_V2.0.0/GD32F30x_Demo_Suites_V2.0.0/GD32F30x_Firmware_Library/GD32F30x_standard_peripheral/Source\gd32f30x_fmc.c **** {
ARM GAS  C:\Users\49542\AppData\Local\Temp\cceCZdNg.s 			page 17


 564:C:/Users/49542/Desktop/GD32F30x_Demo_Suites_V2.0.0/GD32F30x_Demo_Suites_V2.0.0/GD32F30x_Firmware_Library/GD32F30x_standard_peripheral/Source\gd32f30x_fmc.c ****     uint16_t temp_wp0, temp_wp1, temp_wp2, temp_wp3;
 565:C:/Users/49542/Desktop/GD32F30x_Demo_Suites_V2.0.0/GD32F30x_Demo_Suites_V2.0.0/GD32F30x_Firmware_Library/GD32F30x_standard_peripheral/Source\gd32f30x_fmc.c **** 
 566:C:/Users/49542/Desktop/GD32F30x_Demo_Suites_V2.0.0/GD32F30x_Demo_Suites_V2.0.0/GD32F30x_Firmware_Library/GD32F30x_standard_peripheral/Source\gd32f30x_fmc.c ****     fmc_state_enum fmc_state = fmc_bank0_ready_wait(FMC_TIMEOUT_COUNT);
 567:C:/Users/49542/Desktop/GD32F30x_Demo_Suites_V2.0.0/GD32F30x_Demo_Suites_V2.0.0/GD32F30x_Firmware_Library/GD32F30x_standard_peripheral/Source\gd32f30x_fmc.c **** 
 568:C:/Users/49542/Desktop/GD32F30x_Demo_Suites_V2.0.0/GD32F30x_Demo_Suites_V2.0.0/GD32F30x_Firmware_Library/GD32F30x_standard_peripheral/Source\gd32f30x_fmc.c ****     ob_wp = (uint32_t)(~ob_wp);
 569:C:/Users/49542/Desktop/GD32F30x_Demo_Suites_V2.0.0/GD32F30x_Demo_Suites_V2.0.0/GD32F30x_Firmware_Library/GD32F30x_standard_peripheral/Source\gd32f30x_fmc.c ****     temp_wp0 = (uint16_t)(ob_wp & OB_WP0_WP0);
 570:C:/Users/49542/Desktop/GD32F30x_Demo_Suites_V2.0.0/GD32F30x_Demo_Suites_V2.0.0/GD32F30x_Firmware_Library/GD32F30x_standard_peripheral/Source\gd32f30x_fmc.c ****     temp_wp1 = (uint16_t)((ob_wp & OB_WP1_WP1) >> 8U);
 571:C:/Users/49542/Desktop/GD32F30x_Demo_Suites_V2.0.0/GD32F30x_Demo_Suites_V2.0.0/GD32F30x_Firmware_Library/GD32F30x_standard_peripheral/Source\gd32f30x_fmc.c ****     temp_wp2 = (uint16_t)((ob_wp & OB_WP2_WP2) >> 16U);
 572:C:/Users/49542/Desktop/GD32F30x_Demo_Suites_V2.0.0/GD32F30x_Demo_Suites_V2.0.0/GD32F30x_Firmware_Library/GD32F30x_standard_peripheral/Source\gd32f30x_fmc.c ****     temp_wp3 = (uint16_t)((ob_wp & OB_WP3_WP3) >> 24U);
 573:C:/Users/49542/Desktop/GD32F30x_Demo_Suites_V2.0.0/GD32F30x_Demo_Suites_V2.0.0/GD32F30x_Firmware_Library/GD32F30x_standard_peripheral/Source\gd32f30x_fmc.c **** 
 574:C:/Users/49542/Desktop/GD32F30x_Demo_Suites_V2.0.0/GD32F30x_Demo_Suites_V2.0.0/GD32F30x_Firmware_Library/GD32F30x_standard_peripheral/Source\gd32f30x_fmc.c ****     if(FMC_READY == fmc_state){
 575:C:/Users/49542/Desktop/GD32F30x_Demo_Suites_V2.0.0/GD32F30x_Demo_Suites_V2.0.0/GD32F30x_Firmware_Library/GD32F30x_standard_peripheral/Source\gd32f30x_fmc.c ****     
 576:C:/Users/49542/Desktop/GD32F30x_Demo_Suites_V2.0.0/GD32F30x_Demo_Suites_V2.0.0/GD32F30x_Firmware_Library/GD32F30x_standard_peripheral/Source\gd32f30x_fmc.c ****         /* set the OBPG bit*/
 577:C:/Users/49542/Desktop/GD32F30x_Demo_Suites_V2.0.0/GD32F30x_Demo_Suites_V2.0.0/GD32F30x_Firmware_Library/GD32F30x_standard_peripheral/Source\gd32f30x_fmc.c ****         FMC_CTL0 |= FMC_CTL0_OBPG;
 578:C:/Users/49542/Desktop/GD32F30x_Demo_Suites_V2.0.0/GD32F30x_Demo_Suites_V2.0.0/GD32F30x_Firmware_Library/GD32F30x_standard_peripheral/Source\gd32f30x_fmc.c **** 
 579:C:/Users/49542/Desktop/GD32F30x_Demo_Suites_V2.0.0/GD32F30x_Demo_Suites_V2.0.0/GD32F30x_Firmware_Library/GD32F30x_standard_peripheral/Source\gd32f30x_fmc.c ****         if(0xFFU != temp_wp0){
 580:C:/Users/49542/Desktop/GD32F30x_Demo_Suites_V2.0.0/GD32F30x_Demo_Suites_V2.0.0/GD32F30x_Firmware_Library/GD32F30x_standard_peripheral/Source\gd32f30x_fmc.c ****             OB_WP0 = temp_wp0;
 581:C:/Users/49542/Desktop/GD32F30x_Demo_Suites_V2.0.0/GD32F30x_Demo_Suites_V2.0.0/GD32F30x_Firmware_Library/GD32F30x_standard_peripheral/Source\gd32f30x_fmc.c ****       
 582:C:/Users/49542/Desktop/GD32F30x_Demo_Suites_V2.0.0/GD32F30x_Demo_Suites_V2.0.0/GD32F30x_Firmware_Library/GD32F30x_standard_peripheral/Source\gd32f30x_fmc.c ****             /* wait for the FMC ready */
 583:C:/Users/49542/Desktop/GD32F30x_Demo_Suites_V2.0.0/GD32F30x_Demo_Suites_V2.0.0/GD32F30x_Firmware_Library/GD32F30x_standard_peripheral/Source\gd32f30x_fmc.c ****             fmc_state = fmc_bank0_ready_wait(FMC_TIMEOUT_COUNT);
 584:C:/Users/49542/Desktop/GD32F30x_Demo_Suites_V2.0.0/GD32F30x_Demo_Suites_V2.0.0/GD32F30x_Firmware_Library/GD32F30x_standard_peripheral/Source\gd32f30x_fmc.c ****         }
 585:C:/Users/49542/Desktop/GD32F30x_Demo_Suites_V2.0.0/GD32F30x_Demo_Suites_V2.0.0/GD32F30x_Firmware_Library/GD32F30x_standard_peripheral/Source\gd32f30x_fmc.c ****         if((FMC_READY == fmc_state) && (0xFFU != temp_wp1)){
 586:C:/Users/49542/Desktop/GD32F30x_Demo_Suites_V2.0.0/GD32F30x_Demo_Suites_V2.0.0/GD32F30x_Firmware_Library/GD32F30x_standard_peripheral/Source\gd32f30x_fmc.c ****             OB_WP1 = temp_wp1;
 587:C:/Users/49542/Desktop/GD32F30x_Demo_Suites_V2.0.0/GD32F30x_Demo_Suites_V2.0.0/GD32F30x_Firmware_Library/GD32F30x_standard_peripheral/Source\gd32f30x_fmc.c ****       
 588:C:/Users/49542/Desktop/GD32F30x_Demo_Suites_V2.0.0/GD32F30x_Demo_Suites_V2.0.0/GD32F30x_Firmware_Library/GD32F30x_standard_peripheral/Source\gd32f30x_fmc.c ****             /* wait for the FMC ready */
 589:C:/Users/49542/Desktop/GD32F30x_Demo_Suites_V2.0.0/GD32F30x_Demo_Suites_V2.0.0/GD32F30x_Firmware_Library/GD32F30x_standard_peripheral/Source\gd32f30x_fmc.c ****             fmc_state = fmc_bank0_ready_wait(FMC_TIMEOUT_COUNT);
 590:C:/Users/49542/Desktop/GD32F30x_Demo_Suites_V2.0.0/GD32F30x_Demo_Suites_V2.0.0/GD32F30x_Firmware_Library/GD32F30x_standard_peripheral/Source\gd32f30x_fmc.c ****         }
 591:C:/Users/49542/Desktop/GD32F30x_Demo_Suites_V2.0.0/GD32F30x_Demo_Suites_V2.0.0/GD32F30x_Firmware_Library/GD32F30x_standard_peripheral/Source\gd32f30x_fmc.c ****         if((FMC_READY == fmc_state) && (0xFFU != temp_wp2)){
 592:C:/Users/49542/Desktop/GD32F30x_Demo_Suites_V2.0.0/GD32F30x_Demo_Suites_V2.0.0/GD32F30x_Firmware_Library/GD32F30x_standard_peripheral/Source\gd32f30x_fmc.c ****             OB_WP2 = temp_wp2;
 593:C:/Users/49542/Desktop/GD32F30x_Demo_Suites_V2.0.0/GD32F30x_Demo_Suites_V2.0.0/GD32F30x_Firmware_Library/GD32F30x_standard_peripheral/Source\gd32f30x_fmc.c ****       
 594:C:/Users/49542/Desktop/GD32F30x_Demo_Suites_V2.0.0/GD32F30x_Demo_Suites_V2.0.0/GD32F30x_Firmware_Library/GD32F30x_standard_peripheral/Source\gd32f30x_fmc.c ****             /* wait for the FMC ready */
 595:C:/Users/49542/Desktop/GD32F30x_Demo_Suites_V2.0.0/GD32F30x_Demo_Suites_V2.0.0/GD32F30x_Firmware_Library/GD32F30x_standard_peripheral/Source\gd32f30x_fmc.c ****             fmc_state = fmc_bank0_ready_wait(FMC_TIMEOUT_COUNT);
 596:C:/Users/49542/Desktop/GD32F30x_Demo_Suites_V2.0.0/GD32F30x_Demo_Suites_V2.0.0/GD32F30x_Firmware_Library/GD32F30x_standard_peripheral/Source\gd32f30x_fmc.c ****         }
 597:C:/Users/49542/Desktop/GD32F30x_Demo_Suites_V2.0.0/GD32F30x_Demo_Suites_V2.0.0/GD32F30x_Firmware_Library/GD32F30x_standard_peripheral/Source\gd32f30x_fmc.c ****         if((FMC_READY == fmc_state) && (0xFFU != temp_wp3)){
 598:C:/Users/49542/Desktop/GD32F30x_Demo_Suites_V2.0.0/GD32F30x_Demo_Suites_V2.0.0/GD32F30x_Firmware_Library/GD32F30x_standard_peripheral/Source\gd32f30x_fmc.c ****             OB_WP3 = temp_wp3;
 599:C:/Users/49542/Desktop/GD32F30x_Demo_Suites_V2.0.0/GD32F30x_Demo_Suites_V2.0.0/GD32F30x_Firmware_Library/GD32F30x_standard_peripheral/Source\gd32f30x_fmc.c ****       
 600:C:/Users/49542/Desktop/GD32F30x_Demo_Suites_V2.0.0/GD32F30x_Demo_Suites_V2.0.0/GD32F30x_Firmware_Library/GD32F30x_standard_peripheral/Source\gd32f30x_fmc.c ****             /* wait for the FMC ready */
 601:C:/Users/49542/Desktop/GD32F30x_Demo_Suites_V2.0.0/GD32F30x_Demo_Suites_V2.0.0/GD32F30x_Firmware_Library/GD32F30x_standard_peripheral/Source\gd32f30x_fmc.c ****             fmc_state = fmc_bank0_ready_wait(FMC_TIMEOUT_COUNT);
 602:C:/Users/49542/Desktop/GD32F30x_Demo_Suites_V2.0.0/GD32F30x_Demo_Suites_V2.0.0/GD32F30x_Firmware_Library/GD32F30x_standard_peripheral/Source\gd32f30x_fmc.c ****         }
 603:C:/Users/49542/Desktop/GD32F30x_Demo_Suites_V2.0.0/GD32F30x_Demo_Suites_V2.0.0/GD32F30x_Firmware_Library/GD32F30x_standard_peripheral/Source\gd32f30x_fmc.c ****         if(FMC_TOERR != fmc_state){
 604:C:/Users/49542/Desktop/GD32F30x_Demo_Suites_V2.0.0/GD32F30x_Demo_Suites_V2.0.0/GD32F30x_Firmware_Library/GD32F30x_standard_peripheral/Source\gd32f30x_fmc.c ****             /* reset the OBPG bit */
 605:C:/Users/49542/Desktop/GD32F30x_Demo_Suites_V2.0.0/GD32F30x_Demo_Suites_V2.0.0/GD32F30x_Firmware_Library/GD32F30x_standard_peripheral/Source\gd32f30x_fmc.c ****             FMC_CTL0 &= ~FMC_CTL0_OBPG;
 606:C:/Users/49542/Desktop/GD32F30x_Demo_Suites_V2.0.0/GD32F30x_Demo_Suites_V2.0.0/GD32F30x_Firmware_Library/GD32F30x_standard_peripheral/Source\gd32f30x_fmc.c ****         }
 607:C:/Users/49542/Desktop/GD32F30x_Demo_Suites_V2.0.0/GD32F30x_Demo_Suites_V2.0.0/GD32F30x_Firmware_Library/GD32F30x_standard_peripheral/Source\gd32f30x_fmc.c ****     } 
 608:C:/Users/49542/Desktop/GD32F30x_Demo_Suites_V2.0.0/GD32F30x_Demo_Suites_V2.0.0/GD32F30x_Firmware_Library/GD32F30x_standard_peripheral/Source\gd32f30x_fmc.c ****     /* return the FMC state */
 609:C:/Users/49542/Desktop/GD32F30x_Demo_Suites_V2.0.0/GD32F30x_Demo_Suites_V2.0.0/GD32F30x_Firmware_Library/GD32F30x_standard_peripheral/Source\gd32f30x_fmc.c ****     return fmc_state;
 610:C:/Users/49542/Desktop/GD32F30x_Demo_Suites_V2.0.0/GD32F30x_Demo_Suites_V2.0.0/GD32F30x_Firmware_Library/GD32F30x_standard_peripheral/Source\gd32f30x_fmc.c **** }
 611:C:/Users/49542/Desktop/GD32F30x_Demo_Suites_V2.0.0/GD32F30x_Demo_Suites_V2.0.0/GD32F30x_Firmware_Library/GD32F30x_standard_peripheral/Source\gd32f30x_fmc.c **** 
 612:C:/Users/49542/Desktop/GD32F30x_Demo_Suites_V2.0.0/GD32F30x_Demo_Suites_V2.0.0/GD32F30x_Firmware_Library/GD32F30x_standard_peripheral/Source\gd32f30x_fmc.c **** /*!
 613:C:/Users/49542/Desktop/GD32F30x_Demo_Suites_V2.0.0/GD32F30x_Demo_Suites_V2.0.0/GD32F30x_Firmware_Library/GD32F30x_standard_peripheral/Source\gd32f30x_fmc.c ****     \brief      configure security protection
 614:C:/Users/49542/Desktop/GD32F30x_Demo_Suites_V2.0.0/GD32F30x_Demo_Suites_V2.0.0/GD32F30x_Firmware_Library/GD32F30x_standard_peripheral/Source\gd32f30x_fmc.c ****     \param[in]  ob_spc: specify security protection
 615:C:/Users/49542/Desktop/GD32F30x_Demo_Suites_V2.0.0/GD32F30x_Demo_Suites_V2.0.0/GD32F30x_Firmware_Library/GD32F30x_standard_peripheral/Source\gd32f30x_fmc.c ****       \arg        FMC_NSPC: no security protection
 616:C:/Users/49542/Desktop/GD32F30x_Demo_Suites_V2.0.0/GD32F30x_Demo_Suites_V2.0.0/GD32F30x_Firmware_Library/GD32F30x_standard_peripheral/Source\gd32f30x_fmc.c ****       \arg        FMC_USPC: under security protection
 617:C:/Users/49542/Desktop/GD32F30x_Demo_Suites_V2.0.0/GD32F30x_Demo_Suites_V2.0.0/GD32F30x_Firmware_Library/GD32F30x_standard_peripheral/Source\gd32f30x_fmc.c ****     \param[out] none
 618:C:/Users/49542/Desktop/GD32F30x_Demo_Suites_V2.0.0/GD32F30x_Demo_Suites_V2.0.0/GD32F30x_Firmware_Library/GD32F30x_standard_peripheral/Source\gd32f30x_fmc.c ****     \retval     state of FMC, refer to fmc_state_enum
 619:C:/Users/49542/Desktop/GD32F30x_Demo_Suites_V2.0.0/GD32F30x_Demo_Suites_V2.0.0/GD32F30x_Firmware_Library/GD32F30x_standard_peripheral/Source\gd32f30x_fmc.c **** */
 620:C:/Users/49542/Desktop/GD32F30x_Demo_Suites_V2.0.0/GD32F30x_Demo_Suites_V2.0.0/GD32F30x_Firmware_Library/GD32F30x_standard_peripheral/Source\gd32f30x_fmc.c **** fmc_state_enum ob_security_protection_config(uint8_t ob_spc)
ARM GAS  C:\Users\49542\AppData\Local\Temp\cceCZdNg.s 			page 18


 621:C:/Users/49542/Desktop/GD32F30x_Demo_Suites_V2.0.0/GD32F30x_Demo_Suites_V2.0.0/GD32F30x_Firmware_Library/GD32F30x_standard_peripheral/Source\gd32f30x_fmc.c **** {
 622:C:/Users/49542/Desktop/GD32F30x_Demo_Suites_V2.0.0/GD32F30x_Demo_Suites_V2.0.0/GD32F30x_Firmware_Library/GD32F30x_standard_peripheral/Source\gd32f30x_fmc.c ****     fmc_state_enum fmc_state = fmc_bank0_ready_wait(FMC_TIMEOUT_COUNT);
 623:C:/Users/49542/Desktop/GD32F30x_Demo_Suites_V2.0.0/GD32F30x_Demo_Suites_V2.0.0/GD32F30x_Firmware_Library/GD32F30x_standard_peripheral/Source\gd32f30x_fmc.c **** 
 624:C:/Users/49542/Desktop/GD32F30x_Demo_Suites_V2.0.0/GD32F30x_Demo_Suites_V2.0.0/GD32F30x_Firmware_Library/GD32F30x_standard_peripheral/Source\gd32f30x_fmc.c ****     if(FMC_READY == fmc_state){
 625:C:/Users/49542/Desktop/GD32F30x_Demo_Suites_V2.0.0/GD32F30x_Demo_Suites_V2.0.0/GD32F30x_Firmware_Library/GD32F30x_standard_peripheral/Source\gd32f30x_fmc.c ****         FMC_CTL0 |= FMC_CTL0_OBER;
 626:C:/Users/49542/Desktop/GD32F30x_Demo_Suites_V2.0.0/GD32F30x_Demo_Suites_V2.0.0/GD32F30x_Firmware_Library/GD32F30x_standard_peripheral/Source\gd32f30x_fmc.c ****         FMC_CTL0 |= FMC_CTL0_START;
 627:C:/Users/49542/Desktop/GD32F30x_Demo_Suites_V2.0.0/GD32F30x_Demo_Suites_V2.0.0/GD32F30x_Firmware_Library/GD32F30x_standard_peripheral/Source\gd32f30x_fmc.c ****     
 628:C:/Users/49542/Desktop/GD32F30x_Demo_Suites_V2.0.0/GD32F30x_Demo_Suites_V2.0.0/GD32F30x_Firmware_Library/GD32F30x_standard_peripheral/Source\gd32f30x_fmc.c ****         /* wait for the FMC ready */
 629:C:/Users/49542/Desktop/GD32F30x_Demo_Suites_V2.0.0/GD32F30x_Demo_Suites_V2.0.0/GD32F30x_Firmware_Library/GD32F30x_standard_peripheral/Source\gd32f30x_fmc.c ****         fmc_state = fmc_bank0_ready_wait(FMC_TIMEOUT_COUNT);
 630:C:/Users/49542/Desktop/GD32F30x_Demo_Suites_V2.0.0/GD32F30x_Demo_Suites_V2.0.0/GD32F30x_Firmware_Library/GD32F30x_standard_peripheral/Source\gd32f30x_fmc.c ****     
 631:C:/Users/49542/Desktop/GD32F30x_Demo_Suites_V2.0.0/GD32F30x_Demo_Suites_V2.0.0/GD32F30x_Firmware_Library/GD32F30x_standard_peripheral/Source\gd32f30x_fmc.c ****         if(FMC_READY == fmc_state){
 632:C:/Users/49542/Desktop/GD32F30x_Demo_Suites_V2.0.0/GD32F30x_Demo_Suites_V2.0.0/GD32F30x_Firmware_Library/GD32F30x_standard_peripheral/Source\gd32f30x_fmc.c ****             /* reset the OBER bit */
 633:C:/Users/49542/Desktop/GD32F30x_Demo_Suites_V2.0.0/GD32F30x_Demo_Suites_V2.0.0/GD32F30x_Firmware_Library/GD32F30x_standard_peripheral/Source\gd32f30x_fmc.c ****             FMC_CTL0 &= ~FMC_CTL0_OBER;
 634:C:/Users/49542/Desktop/GD32F30x_Demo_Suites_V2.0.0/GD32F30x_Demo_Suites_V2.0.0/GD32F30x_Firmware_Library/GD32F30x_standard_peripheral/Source\gd32f30x_fmc.c ****       
 635:C:/Users/49542/Desktop/GD32F30x_Demo_Suites_V2.0.0/GD32F30x_Demo_Suites_V2.0.0/GD32F30x_Firmware_Library/GD32F30x_standard_peripheral/Source\gd32f30x_fmc.c ****             /* start the option byte program */
 636:C:/Users/49542/Desktop/GD32F30x_Demo_Suites_V2.0.0/GD32F30x_Demo_Suites_V2.0.0/GD32F30x_Firmware_Library/GD32F30x_standard_peripheral/Source\gd32f30x_fmc.c ****             FMC_CTL0 |= FMC_CTL0_OBPG;
 637:C:/Users/49542/Desktop/GD32F30x_Demo_Suites_V2.0.0/GD32F30x_Demo_Suites_V2.0.0/GD32F30x_Firmware_Library/GD32F30x_standard_peripheral/Source\gd32f30x_fmc.c ****        
 638:C:/Users/49542/Desktop/GD32F30x_Demo_Suites_V2.0.0/GD32F30x_Demo_Suites_V2.0.0/GD32F30x_Firmware_Library/GD32F30x_standard_peripheral/Source\gd32f30x_fmc.c ****             OB_SPC = (uint16_t)ob_spc;
 639:C:/Users/49542/Desktop/GD32F30x_Demo_Suites_V2.0.0/GD32F30x_Demo_Suites_V2.0.0/GD32F30x_Firmware_Library/GD32F30x_standard_peripheral/Source\gd32f30x_fmc.c **** 
 640:C:/Users/49542/Desktop/GD32F30x_Demo_Suites_V2.0.0/GD32F30x_Demo_Suites_V2.0.0/GD32F30x_Firmware_Library/GD32F30x_standard_peripheral/Source\gd32f30x_fmc.c ****             /* wait for the FMC ready */
 641:C:/Users/49542/Desktop/GD32F30x_Demo_Suites_V2.0.0/GD32F30x_Demo_Suites_V2.0.0/GD32F30x_Firmware_Library/GD32F30x_standard_peripheral/Source\gd32f30x_fmc.c ****             fmc_state = fmc_bank0_ready_wait(FMC_TIMEOUT_COUNT); 
 642:C:/Users/49542/Desktop/GD32F30x_Demo_Suites_V2.0.0/GD32F30x_Demo_Suites_V2.0.0/GD32F30x_Firmware_Library/GD32F30x_standard_peripheral/Source\gd32f30x_fmc.c ****     
 643:C:/Users/49542/Desktop/GD32F30x_Demo_Suites_V2.0.0/GD32F30x_Demo_Suites_V2.0.0/GD32F30x_Firmware_Library/GD32F30x_standard_peripheral/Source\gd32f30x_fmc.c ****             if(FMC_TOERR != fmc_state){
 644:C:/Users/49542/Desktop/GD32F30x_Demo_Suites_V2.0.0/GD32F30x_Demo_Suites_V2.0.0/GD32F30x_Firmware_Library/GD32F30x_standard_peripheral/Source\gd32f30x_fmc.c ****                 /* reset the OBPG bit */
 645:C:/Users/49542/Desktop/GD32F30x_Demo_Suites_V2.0.0/GD32F30x_Demo_Suites_V2.0.0/GD32F30x_Firmware_Library/GD32F30x_standard_peripheral/Source\gd32f30x_fmc.c ****                 FMC_CTL0 &= ~FMC_CTL0_OBPG;
 646:C:/Users/49542/Desktop/GD32F30x_Demo_Suites_V2.0.0/GD32F30x_Demo_Suites_V2.0.0/GD32F30x_Firmware_Library/GD32F30x_standard_peripheral/Source\gd32f30x_fmc.c ****             }
 647:C:/Users/49542/Desktop/GD32F30x_Demo_Suites_V2.0.0/GD32F30x_Demo_Suites_V2.0.0/GD32F30x_Firmware_Library/GD32F30x_standard_peripheral/Source\gd32f30x_fmc.c ****         }else{
 648:C:/Users/49542/Desktop/GD32F30x_Demo_Suites_V2.0.0/GD32F30x_Demo_Suites_V2.0.0/GD32F30x_Firmware_Library/GD32F30x_standard_peripheral/Source\gd32f30x_fmc.c ****             if(FMC_TOERR != fmc_state){
 649:C:/Users/49542/Desktop/GD32F30x_Demo_Suites_V2.0.0/GD32F30x_Demo_Suites_V2.0.0/GD32F30x_Firmware_Library/GD32F30x_standard_peripheral/Source\gd32f30x_fmc.c ****                 /* reset the OBER bit */
 650:C:/Users/49542/Desktop/GD32F30x_Demo_Suites_V2.0.0/GD32F30x_Demo_Suites_V2.0.0/GD32F30x_Firmware_Library/GD32F30x_standard_peripheral/Source\gd32f30x_fmc.c ****                 FMC_CTL0 &= ~FMC_CTL0_OBER;
 651:C:/Users/49542/Desktop/GD32F30x_Demo_Suites_V2.0.0/GD32F30x_Demo_Suites_V2.0.0/GD32F30x_Firmware_Library/GD32F30x_standard_peripheral/Source\gd32f30x_fmc.c ****             }
 652:C:/Users/49542/Desktop/GD32F30x_Demo_Suites_V2.0.0/GD32F30x_Demo_Suites_V2.0.0/GD32F30x_Firmware_Library/GD32F30x_standard_peripheral/Source\gd32f30x_fmc.c ****         }
 653:C:/Users/49542/Desktop/GD32F30x_Demo_Suites_V2.0.0/GD32F30x_Demo_Suites_V2.0.0/GD32F30x_Firmware_Library/GD32F30x_standard_peripheral/Source\gd32f30x_fmc.c ****     }
 654:C:/Users/49542/Desktop/GD32F30x_Demo_Suites_V2.0.0/GD32F30x_Demo_Suites_V2.0.0/GD32F30x_Firmware_Library/GD32F30x_standard_peripheral/Source\gd32f30x_fmc.c ****     /* return the FMC state */
 655:C:/Users/49542/Desktop/GD32F30x_Demo_Suites_V2.0.0/GD32F30x_Demo_Suites_V2.0.0/GD32F30x_Firmware_Library/GD32F30x_standard_peripheral/Source\gd32f30x_fmc.c ****     return fmc_state;
 656:C:/Users/49542/Desktop/GD32F30x_Demo_Suites_V2.0.0/GD32F30x_Demo_Suites_V2.0.0/GD32F30x_Firmware_Library/GD32F30x_standard_peripheral/Source\gd32f30x_fmc.c **** }
 657:C:/Users/49542/Desktop/GD32F30x_Demo_Suites_V2.0.0/GD32F30x_Demo_Suites_V2.0.0/GD32F30x_Firmware_Library/GD32F30x_standard_peripheral/Source\gd32f30x_fmc.c **** 
 658:C:/Users/49542/Desktop/GD32F30x_Demo_Suites_V2.0.0/GD32F30x_Demo_Suites_V2.0.0/GD32F30x_Firmware_Library/GD32F30x_standard_peripheral/Source\gd32f30x_fmc.c **** /*!
 659:C:/Users/49542/Desktop/GD32F30x_Demo_Suites_V2.0.0/GD32F30x_Demo_Suites_V2.0.0/GD32F30x_Firmware_Library/GD32F30x_standard_peripheral/Source\gd32f30x_fmc.c ****     \brief      program the FMC user option byte 
 660:C:/Users/49542/Desktop/GD32F30x_Demo_Suites_V2.0.0/GD32F30x_Demo_Suites_V2.0.0/GD32F30x_Firmware_Library/GD32F30x_standard_peripheral/Source\gd32f30x_fmc.c ****     \param[in]  ob_fwdgt: option byte watchdog value
 661:C:/Users/49542/Desktop/GD32F30x_Demo_Suites_V2.0.0/GD32F30x_Demo_Suites_V2.0.0/GD32F30x_Firmware_Library/GD32F30x_standard_peripheral/Source\gd32f30x_fmc.c ****       \arg        OB_FWDGT_SW: software free watchdog
 662:C:/Users/49542/Desktop/GD32F30x_Demo_Suites_V2.0.0/GD32F30x_Demo_Suites_V2.0.0/GD32F30x_Firmware_Library/GD32F30x_standard_peripheral/Source\gd32f30x_fmc.c ****       \arg        OB_FWDGT_HW: hardware free watchdog
 663:C:/Users/49542/Desktop/GD32F30x_Demo_Suites_V2.0.0/GD32F30x_Demo_Suites_V2.0.0/GD32F30x_Firmware_Library/GD32F30x_standard_peripheral/Source\gd32f30x_fmc.c ****     \param[in]  ob_deepsleep: option byte deepsleep reset value
 664:C:/Users/49542/Desktop/GD32F30x_Demo_Suites_V2.0.0/GD32F30x_Demo_Suites_V2.0.0/GD32F30x_Firmware_Library/GD32F30x_standard_peripheral/Source\gd32f30x_fmc.c ****       \arg        OB_DEEPSLEEP_NRST: no reset when entering deepsleep mode
 665:C:/Users/49542/Desktop/GD32F30x_Demo_Suites_V2.0.0/GD32F30x_Demo_Suites_V2.0.0/GD32F30x_Firmware_Library/GD32F30x_standard_peripheral/Source\gd32f30x_fmc.c ****       \arg        OB_DEEPSLEEP_RST: generate a reset instead of entering deepsleep mode 
 666:C:/Users/49542/Desktop/GD32F30x_Demo_Suites_V2.0.0/GD32F30x_Demo_Suites_V2.0.0/GD32F30x_Firmware_Library/GD32F30x_standard_peripheral/Source\gd32f30x_fmc.c ****     \param[in]  ob_stdby:option byte standby reset value
 667:C:/Users/49542/Desktop/GD32F30x_Demo_Suites_V2.0.0/GD32F30x_Demo_Suites_V2.0.0/GD32F30x_Firmware_Library/GD32F30x_standard_peripheral/Source\gd32f30x_fmc.c ****       \arg        OB_STDBY_NRST: no reset when entering standby mode
 668:C:/Users/49542/Desktop/GD32F30x_Demo_Suites_V2.0.0/GD32F30x_Demo_Suites_V2.0.0/GD32F30x_Firmware_Library/GD32F30x_standard_peripheral/Source\gd32f30x_fmc.c ****       \arg        OB_STDBY_RST: generate a reset instead of entering standby mode
 669:C:/Users/49542/Desktop/GD32F30x_Demo_Suites_V2.0.0/GD32F30x_Demo_Suites_V2.0.0/GD32F30x_Firmware_Library/GD32F30x_standard_peripheral/Source\gd32f30x_fmc.c ****     \param[in]  ob_boot: specifies the option byte boot bank value
 670:C:/Users/49542/Desktop/GD32F30x_Demo_Suites_V2.0.0/GD32F30x_Demo_Suites_V2.0.0/GD32F30x_Firmware_Library/GD32F30x_standard_peripheral/Source\gd32f30x_fmc.c ****       \arg        OB_BOOT_B0: boot from bank0
 671:C:/Users/49542/Desktop/GD32F30x_Demo_Suites_V2.0.0/GD32F30x_Demo_Suites_V2.0.0/GD32F30x_Firmware_Library/GD32F30x_standard_peripheral/Source\gd32f30x_fmc.c ****       \arg        OB_BOOT_B1: boot from bank1 or bank0 if bank1 is void
 672:C:/Users/49542/Desktop/GD32F30x_Demo_Suites_V2.0.0/GD32F30x_Demo_Suites_V2.0.0/GD32F30x_Firmware_Library/GD32F30x_standard_peripheral/Source\gd32f30x_fmc.c ****     \param[out] none
 673:C:/Users/49542/Desktop/GD32F30x_Demo_Suites_V2.0.0/GD32F30x_Demo_Suites_V2.0.0/GD32F30x_Firmware_Library/GD32F30x_standard_peripheral/Source\gd32f30x_fmc.c ****     \retval     state of FMC, refer to fmc_state_enum
 674:C:/Users/49542/Desktop/GD32F30x_Demo_Suites_V2.0.0/GD32F30x_Demo_Suites_V2.0.0/GD32F30x_Firmware_Library/GD32F30x_standard_peripheral/Source\gd32f30x_fmc.c **** */
 675:C:/Users/49542/Desktop/GD32F30x_Demo_Suites_V2.0.0/GD32F30x_Demo_Suites_V2.0.0/GD32F30x_Firmware_Library/GD32F30x_standard_peripheral/Source\gd32f30x_fmc.c **** fmc_state_enum ob_user_write(uint8_t ob_fwdgt, uint8_t ob_deepsleep, uint8_t ob_stdby, uint8_t ob_b
 676:C:/Users/49542/Desktop/GD32F30x_Demo_Suites_V2.0.0/GD32F30x_Demo_Suites_V2.0.0/GD32F30x_Firmware_Library/GD32F30x_standard_peripheral/Source\gd32f30x_fmc.c **** {
 677:C:/Users/49542/Desktop/GD32F30x_Demo_Suites_V2.0.0/GD32F30x_Demo_Suites_V2.0.0/GD32F30x_Firmware_Library/GD32F30x_standard_peripheral/Source\gd32f30x_fmc.c ****     fmc_state_enum fmc_state = FMC_READY;
ARM GAS  C:\Users\49542\AppData\Local\Temp\cceCZdNg.s 			page 19


 678:C:/Users/49542/Desktop/GD32F30x_Demo_Suites_V2.0.0/GD32F30x_Demo_Suites_V2.0.0/GD32F30x_Firmware_Library/GD32F30x_standard_peripheral/Source\gd32f30x_fmc.c ****     uint8_t temp;
 679:C:/Users/49542/Desktop/GD32F30x_Demo_Suites_V2.0.0/GD32F30x_Demo_Suites_V2.0.0/GD32F30x_Firmware_Library/GD32F30x_standard_peripheral/Source\gd32f30x_fmc.c **** 
 680:C:/Users/49542/Desktop/GD32F30x_Demo_Suites_V2.0.0/GD32F30x_Demo_Suites_V2.0.0/GD32F30x_Firmware_Library/GD32F30x_standard_peripheral/Source\gd32f30x_fmc.c ****     /* wait for the FMC ready */
 681:C:/Users/49542/Desktop/GD32F30x_Demo_Suites_V2.0.0/GD32F30x_Demo_Suites_V2.0.0/GD32F30x_Firmware_Library/GD32F30x_standard_peripheral/Source\gd32f30x_fmc.c ****     fmc_state = fmc_bank0_ready_wait(FMC_TIMEOUT_COUNT);
 682:C:/Users/49542/Desktop/GD32F30x_Demo_Suites_V2.0.0/GD32F30x_Demo_Suites_V2.0.0/GD32F30x_Firmware_Library/GD32F30x_standard_peripheral/Source\gd32f30x_fmc.c ****   
 683:C:/Users/49542/Desktop/GD32F30x_Demo_Suites_V2.0.0/GD32F30x_Demo_Suites_V2.0.0/GD32F30x_Firmware_Library/GD32F30x_standard_peripheral/Source\gd32f30x_fmc.c ****     if(FMC_READY == fmc_state){
 684:C:/Users/49542/Desktop/GD32F30x_Demo_Suites_V2.0.0/GD32F30x_Demo_Suites_V2.0.0/GD32F30x_Firmware_Library/GD32F30x_standard_peripheral/Source\gd32f30x_fmc.c ****         /* set the OBPG bit*/
 685:C:/Users/49542/Desktop/GD32F30x_Demo_Suites_V2.0.0/GD32F30x_Demo_Suites_V2.0.0/GD32F30x_Firmware_Library/GD32F30x_standard_peripheral/Source\gd32f30x_fmc.c ****         FMC_CTL0 |= FMC_CTL0_OBPG; 
 686:C:/Users/49542/Desktop/GD32F30x_Demo_Suites_V2.0.0/GD32F30x_Demo_Suites_V2.0.0/GD32F30x_Firmware_Library/GD32F30x_standard_peripheral/Source\gd32f30x_fmc.c **** 
 687:C:/Users/49542/Desktop/GD32F30x_Demo_Suites_V2.0.0/GD32F30x_Demo_Suites_V2.0.0/GD32F30x_Firmware_Library/GD32F30x_standard_peripheral/Source\gd32f30x_fmc.c ****         temp = ((uint8_t)((uint8_t)((uint8_t)(ob_boot | ob_fwdgt) | ob_deepsleep) | ob_stdby) | OB_
 688:C:/Users/49542/Desktop/GD32F30x_Demo_Suites_V2.0.0/GD32F30x_Demo_Suites_V2.0.0/GD32F30x_Firmware_Library/GD32F30x_standard_peripheral/Source\gd32f30x_fmc.c ****         OB_USER = (uint16_t)temp;
 689:C:/Users/49542/Desktop/GD32F30x_Demo_Suites_V2.0.0/GD32F30x_Demo_Suites_V2.0.0/GD32F30x_Firmware_Library/GD32F30x_standard_peripheral/Source\gd32f30x_fmc.c ****     
 690:C:/Users/49542/Desktop/GD32F30x_Demo_Suites_V2.0.0/GD32F30x_Demo_Suites_V2.0.0/GD32F30x_Firmware_Library/GD32F30x_standard_peripheral/Source\gd32f30x_fmc.c ****         /* wait for the FMC ready */
 691:C:/Users/49542/Desktop/GD32F30x_Demo_Suites_V2.0.0/GD32F30x_Demo_Suites_V2.0.0/GD32F30x_Firmware_Library/GD32F30x_standard_peripheral/Source\gd32f30x_fmc.c ****         fmc_state = fmc_bank0_ready_wait(FMC_TIMEOUT_COUNT);
 692:C:/Users/49542/Desktop/GD32F30x_Demo_Suites_V2.0.0/GD32F30x_Demo_Suites_V2.0.0/GD32F30x_Firmware_Library/GD32F30x_standard_peripheral/Source\gd32f30x_fmc.c **** 
 693:C:/Users/49542/Desktop/GD32F30x_Demo_Suites_V2.0.0/GD32F30x_Demo_Suites_V2.0.0/GD32F30x_Firmware_Library/GD32F30x_standard_peripheral/Source\gd32f30x_fmc.c ****         if(FMC_TOERR != fmc_state){
 694:C:/Users/49542/Desktop/GD32F30x_Demo_Suites_V2.0.0/GD32F30x_Demo_Suites_V2.0.0/GD32F30x_Firmware_Library/GD32F30x_standard_peripheral/Source\gd32f30x_fmc.c ****             /* reset the OBPG bit */
 695:C:/Users/49542/Desktop/GD32F30x_Demo_Suites_V2.0.0/GD32F30x_Demo_Suites_V2.0.0/GD32F30x_Firmware_Library/GD32F30x_standard_peripheral/Source\gd32f30x_fmc.c ****             FMC_CTL0 &= ~FMC_CTL0_OBPG;
 696:C:/Users/49542/Desktop/GD32F30x_Demo_Suites_V2.0.0/GD32F30x_Demo_Suites_V2.0.0/GD32F30x_Firmware_Library/GD32F30x_standard_peripheral/Source\gd32f30x_fmc.c ****         }
 697:C:/Users/49542/Desktop/GD32F30x_Demo_Suites_V2.0.0/GD32F30x_Demo_Suites_V2.0.0/GD32F30x_Firmware_Library/GD32F30x_standard_peripheral/Source\gd32f30x_fmc.c ****     }
 698:C:/Users/49542/Desktop/GD32F30x_Demo_Suites_V2.0.0/GD32F30x_Demo_Suites_V2.0.0/GD32F30x_Firmware_Library/GD32F30x_standard_peripheral/Source\gd32f30x_fmc.c ****     /* return the FMC state */
 699:C:/Users/49542/Desktop/GD32F30x_Demo_Suites_V2.0.0/GD32F30x_Demo_Suites_V2.0.0/GD32F30x_Firmware_Library/GD32F30x_standard_peripheral/Source\gd32f30x_fmc.c ****     return fmc_state;
 700:C:/Users/49542/Desktop/GD32F30x_Demo_Suites_V2.0.0/GD32F30x_Demo_Suites_V2.0.0/GD32F30x_Firmware_Library/GD32F30x_standard_peripheral/Source\gd32f30x_fmc.c **** }
 701:C:/Users/49542/Desktop/GD32F30x_Demo_Suites_V2.0.0/GD32F30x_Demo_Suites_V2.0.0/GD32F30x_Firmware_Library/GD32F30x_standard_peripheral/Source\gd32f30x_fmc.c **** 
 702:C:/Users/49542/Desktop/GD32F30x_Demo_Suites_V2.0.0/GD32F30x_Demo_Suites_V2.0.0/GD32F30x_Firmware_Library/GD32F30x_standard_peripheral/Source\gd32f30x_fmc.c **** /*!
 703:C:/Users/49542/Desktop/GD32F30x_Demo_Suites_V2.0.0/GD32F30x_Demo_Suites_V2.0.0/GD32F30x_Firmware_Library/GD32F30x_standard_peripheral/Source\gd32f30x_fmc.c ****     \brief      program option bytes data
 704:C:/Users/49542/Desktop/GD32F30x_Demo_Suites_V2.0.0/GD32F30x_Demo_Suites_V2.0.0/GD32F30x_Firmware_Library/GD32F30x_standard_peripheral/Source\gd32f30x_fmc.c ****     \param[in]  address: the option bytes address to be programmed
 705:C:/Users/49542/Desktop/GD32F30x_Demo_Suites_V2.0.0/GD32F30x_Demo_Suites_V2.0.0/GD32F30x_Firmware_Library/GD32F30x_standard_peripheral/Source\gd32f30x_fmc.c ****     \param[in]  data: the byte to be programmed
 706:C:/Users/49542/Desktop/GD32F30x_Demo_Suites_V2.0.0/GD32F30x_Demo_Suites_V2.0.0/GD32F30x_Firmware_Library/GD32F30x_standard_peripheral/Source\gd32f30x_fmc.c ****     \param[out] none
 707:C:/Users/49542/Desktop/GD32F30x_Demo_Suites_V2.0.0/GD32F30x_Demo_Suites_V2.0.0/GD32F30x_Firmware_Library/GD32F30x_standard_peripheral/Source\gd32f30x_fmc.c ****     \retval     state of FMC, refer to fmc_state_enum
 708:C:/Users/49542/Desktop/GD32F30x_Demo_Suites_V2.0.0/GD32F30x_Demo_Suites_V2.0.0/GD32F30x_Firmware_Library/GD32F30x_standard_peripheral/Source\gd32f30x_fmc.c **** */
 709:C:/Users/49542/Desktop/GD32F30x_Demo_Suites_V2.0.0/GD32F30x_Demo_Suites_V2.0.0/GD32F30x_Firmware_Library/GD32F30x_standard_peripheral/Source\gd32f30x_fmc.c **** fmc_state_enum ob_data_program(uint32_t address, uint8_t data)
 710:C:/Users/49542/Desktop/GD32F30x_Demo_Suites_V2.0.0/GD32F30x_Demo_Suites_V2.0.0/GD32F30x_Firmware_Library/GD32F30x_standard_peripheral/Source\gd32f30x_fmc.c **** {
 711:C:/Users/49542/Desktop/GD32F30x_Demo_Suites_V2.0.0/GD32F30x_Demo_Suites_V2.0.0/GD32F30x_Firmware_Library/GD32F30x_standard_peripheral/Source\gd32f30x_fmc.c ****     fmc_state_enum fmc_state = fmc_bank0_ready_wait(FMC_TIMEOUT_COUNT);
 712:C:/Users/49542/Desktop/GD32F30x_Demo_Suites_V2.0.0/GD32F30x_Demo_Suites_V2.0.0/GD32F30x_Firmware_Library/GD32F30x_standard_peripheral/Source\gd32f30x_fmc.c **** 
 713:C:/Users/49542/Desktop/GD32F30x_Demo_Suites_V2.0.0/GD32F30x_Demo_Suites_V2.0.0/GD32F30x_Firmware_Library/GD32F30x_standard_peripheral/Source\gd32f30x_fmc.c ****     if(FMC_READY == fmc_state){
 714:C:/Users/49542/Desktop/GD32F30x_Demo_Suites_V2.0.0/GD32F30x_Demo_Suites_V2.0.0/GD32F30x_Firmware_Library/GD32F30x_standard_peripheral/Source\gd32f30x_fmc.c ****         /* set the OBPG bit */
 715:C:/Users/49542/Desktop/GD32F30x_Demo_Suites_V2.0.0/GD32F30x_Demo_Suites_V2.0.0/GD32F30x_Firmware_Library/GD32F30x_standard_peripheral/Source\gd32f30x_fmc.c ****         FMC_CTL0 |= FMC_CTL0_OBPG; 
 716:C:/Users/49542/Desktop/GD32F30x_Demo_Suites_V2.0.0/GD32F30x_Demo_Suites_V2.0.0/GD32F30x_Firmware_Library/GD32F30x_standard_peripheral/Source\gd32f30x_fmc.c ****         REG16(address) = data;
 717:C:/Users/49542/Desktop/GD32F30x_Demo_Suites_V2.0.0/GD32F30x_Demo_Suites_V2.0.0/GD32F30x_Firmware_Library/GD32F30x_standard_peripheral/Source\gd32f30x_fmc.c ****     
 718:C:/Users/49542/Desktop/GD32F30x_Demo_Suites_V2.0.0/GD32F30x_Demo_Suites_V2.0.0/GD32F30x_Firmware_Library/GD32F30x_standard_peripheral/Source\gd32f30x_fmc.c ****         /* wait for the FMC ready */
 719:C:/Users/49542/Desktop/GD32F30x_Demo_Suites_V2.0.0/GD32F30x_Demo_Suites_V2.0.0/GD32F30x_Firmware_Library/GD32F30x_standard_peripheral/Source\gd32f30x_fmc.c ****         fmc_state = fmc_bank0_ready_wait(FMC_TIMEOUT_COUNT);
 720:C:/Users/49542/Desktop/GD32F30x_Demo_Suites_V2.0.0/GD32F30x_Demo_Suites_V2.0.0/GD32F30x_Firmware_Library/GD32F30x_standard_peripheral/Source\gd32f30x_fmc.c ****     
 721:C:/Users/49542/Desktop/GD32F30x_Demo_Suites_V2.0.0/GD32F30x_Demo_Suites_V2.0.0/GD32F30x_Firmware_Library/GD32F30x_standard_peripheral/Source\gd32f30x_fmc.c ****         if(FMC_TOERR != fmc_state){
 722:C:/Users/49542/Desktop/GD32F30x_Demo_Suites_V2.0.0/GD32F30x_Demo_Suites_V2.0.0/GD32F30x_Firmware_Library/GD32F30x_standard_peripheral/Source\gd32f30x_fmc.c ****             /* reset the OBPG bit */
 723:C:/Users/49542/Desktop/GD32F30x_Demo_Suites_V2.0.0/GD32F30x_Demo_Suites_V2.0.0/GD32F30x_Firmware_Library/GD32F30x_standard_peripheral/Source\gd32f30x_fmc.c ****             FMC_CTL0 &= ~FMC_CTL0_OBPG;
 724:C:/Users/49542/Desktop/GD32F30x_Demo_Suites_V2.0.0/GD32F30x_Demo_Suites_V2.0.0/GD32F30x_Firmware_Library/GD32F30x_standard_peripheral/Source\gd32f30x_fmc.c ****         }
 725:C:/Users/49542/Desktop/GD32F30x_Demo_Suites_V2.0.0/GD32F30x_Demo_Suites_V2.0.0/GD32F30x_Firmware_Library/GD32F30x_standard_peripheral/Source\gd32f30x_fmc.c ****     }
 726:C:/Users/49542/Desktop/GD32F30x_Demo_Suites_V2.0.0/GD32F30x_Demo_Suites_V2.0.0/GD32F30x_Firmware_Library/GD32F30x_standard_peripheral/Source\gd32f30x_fmc.c ****     /* return the FMC state */
 727:C:/Users/49542/Desktop/GD32F30x_Demo_Suites_V2.0.0/GD32F30x_Demo_Suites_V2.0.0/GD32F30x_Firmware_Library/GD32F30x_standard_peripheral/Source\gd32f30x_fmc.c ****     return fmc_state;
 728:C:/Users/49542/Desktop/GD32F30x_Demo_Suites_V2.0.0/GD32F30x_Demo_Suites_V2.0.0/GD32F30x_Firmware_Library/GD32F30x_standard_peripheral/Source\gd32f30x_fmc.c **** }
 729:C:/Users/49542/Desktop/GD32F30x_Demo_Suites_V2.0.0/GD32F30x_Demo_Suites_V2.0.0/GD32F30x_Firmware_Library/GD32F30x_standard_peripheral/Source\gd32f30x_fmc.c **** 
 730:C:/Users/49542/Desktop/GD32F30x_Demo_Suites_V2.0.0/GD32F30x_Demo_Suites_V2.0.0/GD32F30x_Firmware_Library/GD32F30x_standard_peripheral/Source\gd32f30x_fmc.c **** /*!
 731:C:/Users/49542/Desktop/GD32F30x_Demo_Suites_V2.0.0/GD32F30x_Demo_Suites_V2.0.0/GD32F30x_Firmware_Library/GD32F30x_standard_peripheral/Source\gd32f30x_fmc.c ****     \brief      get the FMC user option byte
 732:C:/Users/49542/Desktop/GD32F30x_Demo_Suites_V2.0.0/GD32F30x_Demo_Suites_V2.0.0/GD32F30x_Firmware_Library/GD32F30x_standard_peripheral/Source\gd32f30x_fmc.c ****     \param[in]  none
 733:C:/Users/49542/Desktop/GD32F30x_Demo_Suites_V2.0.0/GD32F30x_Demo_Suites_V2.0.0/GD32F30x_Firmware_Library/GD32F30x_standard_peripheral/Source\gd32f30x_fmc.c ****     \param[out] none
 734:C:/Users/49542/Desktop/GD32F30x_Demo_Suites_V2.0.0/GD32F30x_Demo_Suites_V2.0.0/GD32F30x_Firmware_Library/GD32F30x_standard_peripheral/Source\gd32f30x_fmc.c ****     \retval     the FMC user option byte values
ARM GAS  C:\Users\49542\AppData\Local\Temp\cceCZdNg.s 			page 20


 735:C:/Users/49542/Desktop/GD32F30x_Demo_Suites_V2.0.0/GD32F30x_Demo_Suites_V2.0.0/GD32F30x_Firmware_Library/GD32F30x_standard_peripheral/Source\gd32f30x_fmc.c **** */
 736:C:/Users/49542/Desktop/GD32F30x_Demo_Suites_V2.0.0/GD32F30x_Demo_Suites_V2.0.0/GD32F30x_Firmware_Library/GD32F30x_standard_peripheral/Source\gd32f30x_fmc.c **** uint8_t ob_user_get(void)
 737:C:/Users/49542/Desktop/GD32F30x_Demo_Suites_V2.0.0/GD32F30x_Demo_Suites_V2.0.0/GD32F30x_Firmware_Library/GD32F30x_standard_peripheral/Source\gd32f30x_fmc.c **** {
 369              		.loc 1 737 0
 370              		.cfi_startproc
 371              		@ args = 0, pretend = 0, frame = 0
 372              		@ frame_needed = 0, uses_anonymous_args = 0
 373              		@ link register save eliminated.
 738:C:/Users/49542/Desktop/GD32F30x_Demo_Suites_V2.0.0/GD32F30x_Demo_Suites_V2.0.0/GD32F30x_Firmware_Library/GD32F30x_standard_peripheral/Source\gd32f30x_fmc.c ****     /* return the FMC user option byte value */
 739:C:/Users/49542/Desktop/GD32F30x_Demo_Suites_V2.0.0/GD32F30x_Demo_Suites_V2.0.0/GD32F30x_Firmware_Library/GD32F30x_standard_peripheral/Source\gd32f30x_fmc.c ****     return (uint8_t)(FMC_OBSTAT >> 2U);
 374              		.loc 1 739 0
 375 0000 024B     		ldr	r3, .L35
 376 0002 1868     		ldr	r0, [r3]
 740:C:/Users/49542/Desktop/GD32F30x_Demo_Suites_V2.0.0/GD32F30x_Demo_Suites_V2.0.0/GD32F30x_Firmware_Library/GD32F30x_standard_peripheral/Source\gd32f30x_fmc.c **** }
 377              		.loc 1 740 0
 378 0004 C0F38700 		ubfx	r0, r0, #2, #8
 379 0008 7047     		bx	lr
 380              	.L36:
 381 000a 00BF     		.align	2
 382              	.L35:
 383 000c 1C200240 		.word	1073881116
 384              		.cfi_endproc
 385              	.LFE137:
 387              		.section	.text.ob_data_get,"ax",%progbits
 388              		.align	1
 389              		.global	ob_data_get
 390              		.syntax unified
 391              		.thumb
 392              		.thumb_func
 393              		.fpu fpv4-sp-d16
 395              	ob_data_get:
 396              	.LFB138:
 741:C:/Users/49542/Desktop/GD32F30x_Demo_Suites_V2.0.0/GD32F30x_Demo_Suites_V2.0.0/GD32F30x_Firmware_Library/GD32F30x_standard_peripheral/Source\gd32f30x_fmc.c **** 
 742:C:/Users/49542/Desktop/GD32F30x_Demo_Suites_V2.0.0/GD32F30x_Demo_Suites_V2.0.0/GD32F30x_Firmware_Library/GD32F30x_standard_peripheral/Source\gd32f30x_fmc.c **** /*!
 743:C:/Users/49542/Desktop/GD32F30x_Demo_Suites_V2.0.0/GD32F30x_Demo_Suites_V2.0.0/GD32F30x_Firmware_Library/GD32F30x_standard_peripheral/Source\gd32f30x_fmc.c ****     \brief      get OB_DATA in register FMC_OBSTAT
 744:C:/Users/49542/Desktop/GD32F30x_Demo_Suites_V2.0.0/GD32F30x_Demo_Suites_V2.0.0/GD32F30x_Firmware_Library/GD32F30x_standard_peripheral/Source\gd32f30x_fmc.c ****     \param[in]  none
 745:C:/Users/49542/Desktop/GD32F30x_Demo_Suites_V2.0.0/GD32F30x_Demo_Suites_V2.0.0/GD32F30x_Firmware_Library/GD32F30x_standard_peripheral/Source\gd32f30x_fmc.c ****     \param[out] none
 746:C:/Users/49542/Desktop/GD32F30x_Demo_Suites_V2.0.0/GD32F30x_Demo_Suites_V2.0.0/GD32F30x_Firmware_Library/GD32F30x_standard_peripheral/Source\gd32f30x_fmc.c ****     \retval     ob_data
 747:C:/Users/49542/Desktop/GD32F30x_Demo_Suites_V2.0.0/GD32F30x_Demo_Suites_V2.0.0/GD32F30x_Firmware_Library/GD32F30x_standard_peripheral/Source\gd32f30x_fmc.c **** */
 748:C:/Users/49542/Desktop/GD32F30x_Demo_Suites_V2.0.0/GD32F30x_Demo_Suites_V2.0.0/GD32F30x_Firmware_Library/GD32F30x_standard_peripheral/Source\gd32f30x_fmc.c **** uint16_t ob_data_get(void)
 749:C:/Users/49542/Desktop/GD32F30x_Demo_Suites_V2.0.0/GD32F30x_Demo_Suites_V2.0.0/GD32F30x_Firmware_Library/GD32F30x_standard_peripheral/Source\gd32f30x_fmc.c **** {
 397              		.loc 1 749 0
 398              		.cfi_startproc
 399              		@ args = 0, pretend = 0, frame = 0
 400              		@ frame_needed = 0, uses_anonymous_args = 0
 401              		@ link register save eliminated.
 750:C:/Users/49542/Desktop/GD32F30x_Demo_Suites_V2.0.0/GD32F30x_Demo_Suites_V2.0.0/GD32F30x_Firmware_Library/GD32F30x_standard_peripheral/Source\gd32f30x_fmc.c ****     return (uint16_t)(FMC_OBSTAT >> 10U);
 402              		.loc 1 750 0
 403 0000 024B     		ldr	r3, .L38
 404 0002 1868     		ldr	r0, [r3]
 751:C:/Users/49542/Desktop/GD32F30x_Demo_Suites_V2.0.0/GD32F30x_Demo_Suites_V2.0.0/GD32F30x_Firmware_Library/GD32F30x_standard_peripheral/Source\gd32f30x_fmc.c **** }
 405              		.loc 1 751 0
 406 0004 C0F38F20 		ubfx	r0, r0, #10, #16
 407 0008 7047     		bx	lr
 408              	.L39:
 409 000a 00BF     		.align	2
 410              	.L38:
ARM GAS  C:\Users\49542\AppData\Local\Temp\cceCZdNg.s 			page 21


 411 000c 1C200240 		.word	1073881116
 412              		.cfi_endproc
 413              	.LFE138:
 415              		.section	.text.ob_write_protection_get,"ax",%progbits
 416              		.align	1
 417              		.global	ob_write_protection_get
 418              		.syntax unified
 419              		.thumb
 420              		.thumb_func
 421              		.fpu fpv4-sp-d16
 423              	ob_write_protection_get:
 424              	.LFB139:
 752:C:/Users/49542/Desktop/GD32F30x_Demo_Suites_V2.0.0/GD32F30x_Demo_Suites_V2.0.0/GD32F30x_Firmware_Library/GD32F30x_standard_peripheral/Source\gd32f30x_fmc.c **** 
 753:C:/Users/49542/Desktop/GD32F30x_Demo_Suites_V2.0.0/GD32F30x_Demo_Suites_V2.0.0/GD32F30x_Firmware_Library/GD32F30x_standard_peripheral/Source\gd32f30x_fmc.c **** /*!
 754:C:/Users/49542/Desktop/GD32F30x_Demo_Suites_V2.0.0/GD32F30x_Demo_Suites_V2.0.0/GD32F30x_Firmware_Library/GD32F30x_standard_peripheral/Source\gd32f30x_fmc.c ****     \brief      get the FMC option byte write protection
 755:C:/Users/49542/Desktop/GD32F30x_Demo_Suites_V2.0.0/GD32F30x_Demo_Suites_V2.0.0/GD32F30x_Firmware_Library/GD32F30x_standard_peripheral/Source\gd32f30x_fmc.c ****     \param[in]  none
 756:C:/Users/49542/Desktop/GD32F30x_Demo_Suites_V2.0.0/GD32F30x_Demo_Suites_V2.0.0/GD32F30x_Firmware_Library/GD32F30x_standard_peripheral/Source\gd32f30x_fmc.c ****     \param[out] none
 757:C:/Users/49542/Desktop/GD32F30x_Demo_Suites_V2.0.0/GD32F30x_Demo_Suites_V2.0.0/GD32F30x_Firmware_Library/GD32F30x_standard_peripheral/Source\gd32f30x_fmc.c ****     \retval     the FMC write protection option byte value
 758:C:/Users/49542/Desktop/GD32F30x_Demo_Suites_V2.0.0/GD32F30x_Demo_Suites_V2.0.0/GD32F30x_Firmware_Library/GD32F30x_standard_peripheral/Source\gd32f30x_fmc.c **** */
 759:C:/Users/49542/Desktop/GD32F30x_Demo_Suites_V2.0.0/GD32F30x_Demo_Suites_V2.0.0/GD32F30x_Firmware_Library/GD32F30x_standard_peripheral/Source\gd32f30x_fmc.c **** uint32_t ob_write_protection_get(void)
 760:C:/Users/49542/Desktop/GD32F30x_Demo_Suites_V2.0.0/GD32F30x_Demo_Suites_V2.0.0/GD32F30x_Firmware_Library/GD32F30x_standard_peripheral/Source\gd32f30x_fmc.c **** {
 425              		.loc 1 760 0
 426              		.cfi_startproc
 427              		@ args = 0, pretend = 0, frame = 0
 428              		@ frame_needed = 0, uses_anonymous_args = 0
 429              		@ link register save eliminated.
 761:C:/Users/49542/Desktop/GD32F30x_Demo_Suites_V2.0.0/GD32F30x_Demo_Suites_V2.0.0/GD32F30x_Firmware_Library/GD32F30x_standard_peripheral/Source\gd32f30x_fmc.c ****     /* return the FMC write protection option byte value */
 762:C:/Users/49542/Desktop/GD32F30x_Demo_Suites_V2.0.0/GD32F30x_Demo_Suites_V2.0.0/GD32F30x_Firmware_Library/GD32F30x_standard_peripheral/Source\gd32f30x_fmc.c ****     return FMC_WP;
 430              		.loc 1 762 0
 431 0000 014B     		ldr	r3, .L41
 432 0002 1868     		ldr	r0, [r3]
 763:C:/Users/49542/Desktop/GD32F30x_Demo_Suites_V2.0.0/GD32F30x_Demo_Suites_V2.0.0/GD32F30x_Firmware_Library/GD32F30x_standard_peripheral/Source\gd32f30x_fmc.c **** }
 433              		.loc 1 763 0
 434 0004 7047     		bx	lr
 435              	.L42:
 436 0006 00BF     		.align	2
 437              	.L41:
 438 0008 20200240 		.word	1073881120
 439              		.cfi_endproc
 440              	.LFE139:
 442              		.section	.text.ob_spc_get,"ax",%progbits
 443              		.align	1
 444              		.global	ob_spc_get
 445              		.syntax unified
 446              		.thumb
 447              		.thumb_func
 448              		.fpu fpv4-sp-d16
 450              	ob_spc_get:
 451              	.LFB140:
 764:C:/Users/49542/Desktop/GD32F30x_Demo_Suites_V2.0.0/GD32F30x_Demo_Suites_V2.0.0/GD32F30x_Firmware_Library/GD32F30x_standard_peripheral/Source\gd32f30x_fmc.c **** 
 765:C:/Users/49542/Desktop/GD32F30x_Demo_Suites_V2.0.0/GD32F30x_Demo_Suites_V2.0.0/GD32F30x_Firmware_Library/GD32F30x_standard_peripheral/Source\gd32f30x_fmc.c **** /*!
 766:C:/Users/49542/Desktop/GD32F30x_Demo_Suites_V2.0.0/GD32F30x_Demo_Suites_V2.0.0/GD32F30x_Firmware_Library/GD32F30x_standard_peripheral/Source\gd32f30x_fmc.c ****     \brief      get the FMC option byte security protection
 767:C:/Users/49542/Desktop/GD32F30x_Demo_Suites_V2.0.0/GD32F30x_Demo_Suites_V2.0.0/GD32F30x_Firmware_Library/GD32F30x_standard_peripheral/Source\gd32f30x_fmc.c ****     \param[in]  none
 768:C:/Users/49542/Desktop/GD32F30x_Demo_Suites_V2.0.0/GD32F30x_Demo_Suites_V2.0.0/GD32F30x_Firmware_Library/GD32F30x_standard_peripheral/Source\gd32f30x_fmc.c ****     \param[out] none
 769:C:/Users/49542/Desktop/GD32F30x_Demo_Suites_V2.0.0/GD32F30x_Demo_Suites_V2.0.0/GD32F30x_Firmware_Library/GD32F30x_standard_peripheral/Source\gd32f30x_fmc.c ****     \retval     FlagStatus: SET or RESET
 770:C:/Users/49542/Desktop/GD32F30x_Demo_Suites_V2.0.0/GD32F30x_Demo_Suites_V2.0.0/GD32F30x_Firmware_Library/GD32F30x_standard_peripheral/Source\gd32f30x_fmc.c **** */
 771:C:/Users/49542/Desktop/GD32F30x_Demo_Suites_V2.0.0/GD32F30x_Demo_Suites_V2.0.0/GD32F30x_Firmware_Library/GD32F30x_standard_peripheral/Source\gd32f30x_fmc.c **** FlagStatus ob_spc_get(void)
ARM GAS  C:\Users\49542\AppData\Local\Temp\cceCZdNg.s 			page 22


 772:C:/Users/49542/Desktop/GD32F30x_Demo_Suites_V2.0.0/GD32F30x_Demo_Suites_V2.0.0/GD32F30x_Firmware_Library/GD32F30x_standard_peripheral/Source\gd32f30x_fmc.c **** {
 452              		.loc 1 772 0
 453              		.cfi_startproc
 454              		@ args = 0, pretend = 0, frame = 0
 455              		@ frame_needed = 0, uses_anonymous_args = 0
 456              		@ link register save eliminated.
 457              	.LVL4:
 773:C:/Users/49542/Desktop/GD32F30x_Demo_Suites_V2.0.0/GD32F30x_Demo_Suites_V2.0.0/GD32F30x_Firmware_Library/GD32F30x_standard_peripheral/Source\gd32f30x_fmc.c ****     FlagStatus spc_state = RESET;
 774:C:/Users/49542/Desktop/GD32F30x_Demo_Suites_V2.0.0/GD32F30x_Demo_Suites_V2.0.0/GD32F30x_Firmware_Library/GD32F30x_standard_peripheral/Source\gd32f30x_fmc.c **** 
 775:C:/Users/49542/Desktop/GD32F30x_Demo_Suites_V2.0.0/GD32F30x_Demo_Suites_V2.0.0/GD32F30x_Firmware_Library/GD32F30x_standard_peripheral/Source\gd32f30x_fmc.c ****     if(RESET != (FMC_OBSTAT & FMC_OBSTAT_SPC)){
 458              		.loc 1 775 0
 459 0000 044B     		ldr	r3, .L47
 460 0002 1B68     		ldr	r3, [r3]
 461 0004 13F0020F 		tst	r3, #2
 462 0008 01D1     		bne	.L46
 776:C:/Users/49542/Desktop/GD32F30x_Demo_Suites_V2.0.0/GD32F30x_Demo_Suites_V2.0.0/GD32F30x_Firmware_Library/GD32F30x_standard_peripheral/Source\gd32f30x_fmc.c ****         spc_state = SET;
 777:C:/Users/49542/Desktop/GD32F30x_Demo_Suites_V2.0.0/GD32F30x_Demo_Suites_V2.0.0/GD32F30x_Firmware_Library/GD32F30x_standard_peripheral/Source\gd32f30x_fmc.c ****     }else{
 778:C:/Users/49542/Desktop/GD32F30x_Demo_Suites_V2.0.0/GD32F30x_Demo_Suites_V2.0.0/GD32F30x_Firmware_Library/GD32F30x_standard_peripheral/Source\gd32f30x_fmc.c ****         spc_state = RESET;
 463              		.loc 1 778 0
 464 000a 0020     		movs	r0, #0
 465              	.LVL5:
 779:C:/Users/49542/Desktop/GD32F30x_Demo_Suites_V2.0.0/GD32F30x_Demo_Suites_V2.0.0/GD32F30x_Firmware_Library/GD32F30x_standard_peripheral/Source\gd32f30x_fmc.c ****     }
 780:C:/Users/49542/Desktop/GD32F30x_Demo_Suites_V2.0.0/GD32F30x_Demo_Suites_V2.0.0/GD32F30x_Firmware_Library/GD32F30x_standard_peripheral/Source\gd32f30x_fmc.c ****     return spc_state;
 781:C:/Users/49542/Desktop/GD32F30x_Demo_Suites_V2.0.0/GD32F30x_Demo_Suites_V2.0.0/GD32F30x_Firmware_Library/GD32F30x_standard_peripheral/Source\gd32f30x_fmc.c **** }
 466              		.loc 1 781 0
 467 000c 7047     		bx	lr
 468              	.LVL6:
 469              	.L46:
 776:C:/Users/49542/Desktop/GD32F30x_Demo_Suites_V2.0.0/GD32F30x_Demo_Suites_V2.0.0/GD32F30x_Firmware_Library/GD32F30x_standard_peripheral/Source\gd32f30x_fmc.c ****         spc_state = SET;
 470              		.loc 1 776 0
 471 000e 0120     		movs	r0, #1
 472 0010 7047     		bx	lr
 473              	.L48:
 474 0012 00BF     		.align	2
 475              	.L47:
 476 0014 1C200240 		.word	1073881116
 477              		.cfi_endproc
 478              	.LFE140:
 480              		.section	.text.fmc_interrupt_enable,"ax",%progbits
 481              		.align	1
 482              		.global	fmc_interrupt_enable
 483              		.syntax unified
 484              		.thumb
 485              		.thumb_func
 486              		.fpu fpv4-sp-d16
 488              	fmc_interrupt_enable:
 489              	.LFB141:
 782:C:/Users/49542/Desktop/GD32F30x_Demo_Suites_V2.0.0/GD32F30x_Demo_Suites_V2.0.0/GD32F30x_Firmware_Library/GD32F30x_standard_peripheral/Source\gd32f30x_fmc.c **** 
 783:C:/Users/49542/Desktop/GD32F30x_Demo_Suites_V2.0.0/GD32F30x_Demo_Suites_V2.0.0/GD32F30x_Firmware_Library/GD32F30x_standard_peripheral/Source\gd32f30x_fmc.c **** /*!
 784:C:/Users/49542/Desktop/GD32F30x_Demo_Suites_V2.0.0/GD32F30x_Demo_Suites_V2.0.0/GD32F30x_Firmware_Library/GD32F30x_standard_peripheral/Source\gd32f30x_fmc.c ****     \brief      enable FMC interrupt
 785:C:/Users/49542/Desktop/GD32F30x_Demo_Suites_V2.0.0/GD32F30x_Demo_Suites_V2.0.0/GD32F30x_Firmware_Library/GD32F30x_standard_peripheral/Source\gd32f30x_fmc.c ****     \param[in]  interrupt: the FMC interrupt source
 786:C:/Users/49542/Desktop/GD32F30x_Demo_Suites_V2.0.0/GD32F30x_Demo_Suites_V2.0.0/GD32F30x_Firmware_Library/GD32F30x_standard_peripheral/Source\gd32f30x_fmc.c ****       \arg        FMC_INT_BANK0_END: FMC bank0 end of program interrupt
 787:C:/Users/49542/Desktop/GD32F30x_Demo_Suites_V2.0.0/GD32F30x_Demo_Suites_V2.0.0/GD32F30x_Firmware_Library/GD32F30x_standard_peripheral/Source\gd32f30x_fmc.c ****       \arg        FMC_INT_BANK0_ERR: FMC bank0 error interrupt
 788:C:/Users/49542/Desktop/GD32F30x_Demo_Suites_V2.0.0/GD32F30x_Demo_Suites_V2.0.0/GD32F30x_Firmware_Library/GD32F30x_standard_peripheral/Source\gd32f30x_fmc.c ****       \arg        FMC_INT_BANK1_END: FMC bank1 end of program interrupt
 789:C:/Users/49542/Desktop/GD32F30x_Demo_Suites_V2.0.0/GD32F30x_Demo_Suites_V2.0.0/GD32F30x_Firmware_Library/GD32F30x_standard_peripheral/Source\gd32f30x_fmc.c ****       \arg        FMC_INT_BANK1_ERR: FMC bank1 error interrupt
 790:C:/Users/49542/Desktop/GD32F30x_Demo_Suites_V2.0.0/GD32F30x_Demo_Suites_V2.0.0/GD32F30x_Firmware_Library/GD32F30x_standard_peripheral/Source\gd32f30x_fmc.c ****     \param[out] none
 791:C:/Users/49542/Desktop/GD32F30x_Demo_Suites_V2.0.0/GD32F30x_Demo_Suites_V2.0.0/GD32F30x_Firmware_Library/GD32F30x_standard_peripheral/Source\gd32f30x_fmc.c ****     \retval     none
ARM GAS  C:\Users\49542\AppData\Local\Temp\cceCZdNg.s 			page 23


 792:C:/Users/49542/Desktop/GD32F30x_Demo_Suites_V2.0.0/GD32F30x_Demo_Suites_V2.0.0/GD32F30x_Firmware_Library/GD32F30x_standard_peripheral/Source\gd32f30x_fmc.c **** */
 793:C:/Users/49542/Desktop/GD32F30x_Demo_Suites_V2.0.0/GD32F30x_Demo_Suites_V2.0.0/GD32F30x_Firmware_Library/GD32F30x_standard_peripheral/Source\gd32f30x_fmc.c **** void fmc_interrupt_enable(uint32_t interrupt)
 794:C:/Users/49542/Desktop/GD32F30x_Demo_Suites_V2.0.0/GD32F30x_Demo_Suites_V2.0.0/GD32F30x_Firmware_Library/GD32F30x_standard_peripheral/Source\gd32f30x_fmc.c **** {
 490              		.loc 1 794 0
 491              		.cfi_startproc
 492              		@ args = 0, pretend = 0, frame = 0
 493              		@ frame_needed = 0, uses_anonymous_args = 0
 494              		@ link register save eliminated.
 495              	.LVL7:
 795:C:/Users/49542/Desktop/GD32F30x_Demo_Suites_V2.0.0/GD32F30x_Demo_Suites_V2.0.0/GD32F30x_Firmware_Library/GD32F30x_standard_peripheral/Source\gd32f30x_fmc.c ****     FMC_REG_VAL(interrupt) |= BIT(FMC_BIT_POS(interrupt));
 496              		.loc 1 795 0
 497 0000 8309     		lsrs	r3, r0, #6
 498 0002 03F18043 		add	r3, r3, #1073741824
 499 0006 03F50833 		add	r3, r3, #139264
 500 000a 1A68     		ldr	r2, [r3]
 501 000c 00F01F00 		and	r0, r0, #31
 502              	.LVL8:
 503 0010 0121     		movs	r1, #1
 504 0012 01FA00F0 		lsl	r0, r1, r0
 505 0016 1043     		orrs	r0, r0, r2
 506 0018 1860     		str	r0, [r3]
 796:C:/Users/49542/Desktop/GD32F30x_Demo_Suites_V2.0.0/GD32F30x_Demo_Suites_V2.0.0/GD32F30x_Firmware_Library/GD32F30x_standard_peripheral/Source\gd32f30x_fmc.c **** }
 507              		.loc 1 796 0
 508 001a 7047     		bx	lr
 509              		.cfi_endproc
 510              	.LFE141:
 512              		.section	.text.fmc_interrupt_disable,"ax",%progbits
 513              		.align	1
 514              		.global	fmc_interrupt_disable
 515              		.syntax unified
 516              		.thumb
 517              		.thumb_func
 518              		.fpu fpv4-sp-d16
 520              	fmc_interrupt_disable:
 521              	.LFB142:
 797:C:/Users/49542/Desktop/GD32F30x_Demo_Suites_V2.0.0/GD32F30x_Demo_Suites_V2.0.0/GD32F30x_Firmware_Library/GD32F30x_standard_peripheral/Source\gd32f30x_fmc.c **** 
 798:C:/Users/49542/Desktop/GD32F30x_Demo_Suites_V2.0.0/GD32F30x_Demo_Suites_V2.0.0/GD32F30x_Firmware_Library/GD32F30x_standard_peripheral/Source\gd32f30x_fmc.c **** /*!
 799:C:/Users/49542/Desktop/GD32F30x_Demo_Suites_V2.0.0/GD32F30x_Demo_Suites_V2.0.0/GD32F30x_Firmware_Library/GD32F30x_standard_peripheral/Source\gd32f30x_fmc.c ****     \brief      disable FMC interrupt
 800:C:/Users/49542/Desktop/GD32F30x_Demo_Suites_V2.0.0/GD32F30x_Demo_Suites_V2.0.0/GD32F30x_Firmware_Library/GD32F30x_standard_peripheral/Source\gd32f30x_fmc.c ****     \param[in]  interrupt: the FMC interrupt source
 801:C:/Users/49542/Desktop/GD32F30x_Demo_Suites_V2.0.0/GD32F30x_Demo_Suites_V2.0.0/GD32F30x_Firmware_Library/GD32F30x_standard_peripheral/Source\gd32f30x_fmc.c ****       \arg        FMC_INT_BANK0_END: FMC bank0 end of program interrupt
 802:C:/Users/49542/Desktop/GD32F30x_Demo_Suites_V2.0.0/GD32F30x_Demo_Suites_V2.0.0/GD32F30x_Firmware_Library/GD32F30x_standard_peripheral/Source\gd32f30x_fmc.c ****       \arg        FMC_INT_BANK0_ERR: FMC bank0 error interrupt
 803:C:/Users/49542/Desktop/GD32F30x_Demo_Suites_V2.0.0/GD32F30x_Demo_Suites_V2.0.0/GD32F30x_Firmware_Library/GD32F30x_standard_peripheral/Source\gd32f30x_fmc.c ****       \arg        FMC_INT_BANK1_END: FMC bank1 end of program interrupt
 804:C:/Users/49542/Desktop/GD32F30x_Demo_Suites_V2.0.0/GD32F30x_Demo_Suites_V2.0.0/GD32F30x_Firmware_Library/GD32F30x_standard_peripheral/Source\gd32f30x_fmc.c ****       \arg        FMC_INT_BANK1_ERR: FMC bank1 error interrupt
 805:C:/Users/49542/Desktop/GD32F30x_Demo_Suites_V2.0.0/GD32F30x_Demo_Suites_V2.0.0/GD32F30x_Firmware_Library/GD32F30x_standard_peripheral/Source\gd32f30x_fmc.c ****     \param[out] none
 806:C:/Users/49542/Desktop/GD32F30x_Demo_Suites_V2.0.0/GD32F30x_Demo_Suites_V2.0.0/GD32F30x_Firmware_Library/GD32F30x_standard_peripheral/Source\gd32f30x_fmc.c ****     \retval     none
 807:C:/Users/49542/Desktop/GD32F30x_Demo_Suites_V2.0.0/GD32F30x_Demo_Suites_V2.0.0/GD32F30x_Firmware_Library/GD32F30x_standard_peripheral/Source\gd32f30x_fmc.c **** */
 808:C:/Users/49542/Desktop/GD32F30x_Demo_Suites_V2.0.0/GD32F30x_Demo_Suites_V2.0.0/GD32F30x_Firmware_Library/GD32F30x_standard_peripheral/Source\gd32f30x_fmc.c **** void fmc_interrupt_disable(uint32_t interrupt)
 809:C:/Users/49542/Desktop/GD32F30x_Demo_Suites_V2.0.0/GD32F30x_Demo_Suites_V2.0.0/GD32F30x_Firmware_Library/GD32F30x_standard_peripheral/Source\gd32f30x_fmc.c **** {
 522              		.loc 1 809 0
 523              		.cfi_startproc
 524              		@ args = 0, pretend = 0, frame = 0
 525              		@ frame_needed = 0, uses_anonymous_args = 0
 526              		@ link register save eliminated.
 527              	.LVL9:
 810:C:/Users/49542/Desktop/GD32F30x_Demo_Suites_V2.0.0/GD32F30x_Demo_Suites_V2.0.0/GD32F30x_Firmware_Library/GD32F30x_standard_peripheral/Source\gd32f30x_fmc.c ****     FMC_REG_VAL(interrupt) &= ~BIT(FMC_BIT_POS(interrupt));
 528              		.loc 1 810 0
 529 0000 8309     		lsrs	r3, r0, #6
ARM GAS  C:\Users\49542\AppData\Local\Temp\cceCZdNg.s 			page 24


 530 0002 03F18043 		add	r3, r3, #1073741824
 531 0006 03F50833 		add	r3, r3, #139264
 532 000a 1A68     		ldr	r2, [r3]
 533 000c 00F01F00 		and	r0, r0, #31
 534              	.LVL10:
 535 0010 0121     		movs	r1, #1
 536 0012 01FA00F0 		lsl	r0, r1, r0
 537 0016 22EA0000 		bic	r0, r2, r0
 538 001a 1860     		str	r0, [r3]
 811:C:/Users/49542/Desktop/GD32F30x_Demo_Suites_V2.0.0/GD32F30x_Demo_Suites_V2.0.0/GD32F30x_Firmware_Library/GD32F30x_standard_peripheral/Source\gd32f30x_fmc.c **** }
 539              		.loc 1 811 0
 540 001c 7047     		bx	lr
 541              		.cfi_endproc
 542              	.LFE142:
 544              		.section	.text.fmc_flag_get,"ax",%progbits
 545              		.align	1
 546              		.global	fmc_flag_get
 547              		.syntax unified
 548              		.thumb
 549              		.thumb_func
 550              		.fpu fpv4-sp-d16
 552              	fmc_flag_get:
 553              	.LFB143:
 812:C:/Users/49542/Desktop/GD32F30x_Demo_Suites_V2.0.0/GD32F30x_Demo_Suites_V2.0.0/GD32F30x_Firmware_Library/GD32F30x_standard_peripheral/Source\gd32f30x_fmc.c **** 
 813:C:/Users/49542/Desktop/GD32F30x_Demo_Suites_V2.0.0/GD32F30x_Demo_Suites_V2.0.0/GD32F30x_Firmware_Library/GD32F30x_standard_peripheral/Source\gd32f30x_fmc.c **** /*!
 814:C:/Users/49542/Desktop/GD32F30x_Demo_Suites_V2.0.0/GD32F30x_Demo_Suites_V2.0.0/GD32F30x_Firmware_Library/GD32F30x_standard_peripheral/Source\gd32f30x_fmc.c ****     \brief      check flag is set or not
 815:C:/Users/49542/Desktop/GD32F30x_Demo_Suites_V2.0.0/GD32F30x_Demo_Suites_V2.0.0/GD32F30x_Firmware_Library/GD32F30x_standard_peripheral/Source\gd32f30x_fmc.c ****     \param[in]  flag: check FMC flag
 816:C:/Users/49542/Desktop/GD32F30x_Demo_Suites_V2.0.0/GD32F30x_Demo_Suites_V2.0.0/GD32F30x_Firmware_Library/GD32F30x_standard_peripheral/Source\gd32f30x_fmc.c ****                 only one parameter can be selected which is shown as below:
 817:C:/Users/49542/Desktop/GD32F30x_Demo_Suites_V2.0.0/GD32F30x_Demo_Suites_V2.0.0/GD32F30x_Firmware_Library/GD32F30x_standard_peripheral/Source\gd32f30x_fmc.c ****       \arg        FMC_FLAG_BANK0_BUSY: FMC bank0 busy flag bit
 818:C:/Users/49542/Desktop/GD32F30x_Demo_Suites_V2.0.0/GD32F30x_Demo_Suites_V2.0.0/GD32F30x_Firmware_Library/GD32F30x_standard_peripheral/Source\gd32f30x_fmc.c ****       \arg        FMC_FLAG_BANK0_PGERR: FMC bank0 operation error flag bit
 819:C:/Users/49542/Desktop/GD32F30x_Demo_Suites_V2.0.0/GD32F30x_Demo_Suites_V2.0.0/GD32F30x_Firmware_Library/GD32F30x_standard_peripheral/Source\gd32f30x_fmc.c ****       \arg        FMC_FLAG_BANK0_WPERR: FMC bank0 erase/program protection error flag bit
 820:C:/Users/49542/Desktop/GD32F30x_Demo_Suites_V2.0.0/GD32F30x_Demo_Suites_V2.0.0/GD32F30x_Firmware_Library/GD32F30x_standard_peripheral/Source\gd32f30x_fmc.c ****       \arg        FMC_FLAG_BANK0_END: FMC bank0 end of operation flag bit
 821:C:/Users/49542/Desktop/GD32F30x_Demo_Suites_V2.0.0/GD32F30x_Demo_Suites_V2.0.0/GD32F30x_Firmware_Library/GD32F30x_standard_peripheral/Source\gd32f30x_fmc.c ****       \arg        FMC_FLAG_OBERR: FMC option bytes read error flag bit
 822:C:/Users/49542/Desktop/GD32F30x_Demo_Suites_V2.0.0/GD32F30x_Demo_Suites_V2.0.0/GD32F30x_Firmware_Library/GD32F30x_standard_peripheral/Source\gd32f30x_fmc.c ****       \arg        FMC_FLAG_BANK1_BUSY: FMC bank1 busy flag bit
 823:C:/Users/49542/Desktop/GD32F30x_Demo_Suites_V2.0.0/GD32F30x_Demo_Suites_V2.0.0/GD32F30x_Firmware_Library/GD32F30x_standard_peripheral/Source\gd32f30x_fmc.c ****       \arg        FMC_FLAG_BANK1_PGERR: FMC bank1 operation error flag bit
 824:C:/Users/49542/Desktop/GD32F30x_Demo_Suites_V2.0.0/GD32F30x_Demo_Suites_V2.0.0/GD32F30x_Firmware_Library/GD32F30x_standard_peripheral/Source\gd32f30x_fmc.c ****       \arg        FMC_FLAG_BANK1_WPERR: FMC bank1 erase/program protection error flag bit
 825:C:/Users/49542/Desktop/GD32F30x_Demo_Suites_V2.0.0/GD32F30x_Demo_Suites_V2.0.0/GD32F30x_Firmware_Library/GD32F30x_standard_peripheral/Source\gd32f30x_fmc.c ****       \arg        FMC_FLAG_BANK1_END: FMC bank1 end of operation flag bit
 826:C:/Users/49542/Desktop/GD32F30x_Demo_Suites_V2.0.0/GD32F30x_Demo_Suites_V2.0.0/GD32F30x_Firmware_Library/GD32F30x_standard_peripheral/Source\gd32f30x_fmc.c ****     \param[out] none
 827:C:/Users/49542/Desktop/GD32F30x_Demo_Suites_V2.0.0/GD32F30x_Demo_Suites_V2.0.0/GD32F30x_Firmware_Library/GD32F30x_standard_peripheral/Source\gd32f30x_fmc.c ****     \retval     FlagStatus: SET or RESET
 828:C:/Users/49542/Desktop/GD32F30x_Demo_Suites_V2.0.0/GD32F30x_Demo_Suites_V2.0.0/GD32F30x_Firmware_Library/GD32F30x_standard_peripheral/Source\gd32f30x_fmc.c **** */
 829:C:/Users/49542/Desktop/GD32F30x_Demo_Suites_V2.0.0/GD32F30x_Demo_Suites_V2.0.0/GD32F30x_Firmware_Library/GD32F30x_standard_peripheral/Source\gd32f30x_fmc.c **** FlagStatus fmc_flag_get(uint32_t flag)
 830:C:/Users/49542/Desktop/GD32F30x_Demo_Suites_V2.0.0/GD32F30x_Demo_Suites_V2.0.0/GD32F30x_Firmware_Library/GD32F30x_standard_peripheral/Source\gd32f30x_fmc.c **** {
 554              		.loc 1 830 0
 555              		.cfi_startproc
 556              		@ args = 0, pretend = 0, frame = 0
 557              		@ frame_needed = 0, uses_anonymous_args = 0
 558              		@ link register save eliminated.
 559              	.LVL11:
 831:C:/Users/49542/Desktop/GD32F30x_Demo_Suites_V2.0.0/GD32F30x_Demo_Suites_V2.0.0/GD32F30x_Firmware_Library/GD32F30x_standard_peripheral/Source\gd32f30x_fmc.c ****     if(RESET != (FMC_REG_VAL(flag) & BIT(FMC_BIT_POS(flag)))){
 560              		.loc 1 831 0
 561 0000 8309     		lsrs	r3, r0, #6
 562 0002 03F18043 		add	r3, r3, #1073741824
 563 0006 03F50833 		add	r3, r3, #139264
 564 000a 1B68     		ldr	r3, [r3]
 565 000c 00F01F00 		and	r0, r0, #31
 566              	.LVL12:
 567 0010 23FA00F0 		lsr	r0, r3, r0
ARM GAS  C:\Users\49542\AppData\Local\Temp\cceCZdNg.s 			page 25


 568 0014 10F0010F 		tst	r0, #1
 569 0018 01D1     		bne	.L54
 832:C:/Users/49542/Desktop/GD32F30x_Demo_Suites_V2.0.0/GD32F30x_Demo_Suites_V2.0.0/GD32F30x_Firmware_Library/GD32F30x_standard_peripheral/Source\gd32f30x_fmc.c ****         return SET;
 833:C:/Users/49542/Desktop/GD32F30x_Demo_Suites_V2.0.0/GD32F30x_Demo_Suites_V2.0.0/GD32F30x_Firmware_Library/GD32F30x_standard_peripheral/Source\gd32f30x_fmc.c ****     }else{
 834:C:/Users/49542/Desktop/GD32F30x_Demo_Suites_V2.0.0/GD32F30x_Demo_Suites_V2.0.0/GD32F30x_Firmware_Library/GD32F30x_standard_peripheral/Source\gd32f30x_fmc.c ****         return RESET;
 570              		.loc 1 834 0
 571 001a 0020     		movs	r0, #0
 835:C:/Users/49542/Desktop/GD32F30x_Demo_Suites_V2.0.0/GD32F30x_Demo_Suites_V2.0.0/GD32F30x_Firmware_Library/GD32F30x_standard_peripheral/Source\gd32f30x_fmc.c ****     }
 836:C:/Users/49542/Desktop/GD32F30x_Demo_Suites_V2.0.0/GD32F30x_Demo_Suites_V2.0.0/GD32F30x_Firmware_Library/GD32F30x_standard_peripheral/Source\gd32f30x_fmc.c **** }
 572              		.loc 1 836 0
 573 001c 7047     		bx	lr
 574              	.L54:
 832:C:/Users/49542/Desktop/GD32F30x_Demo_Suites_V2.0.0/GD32F30x_Demo_Suites_V2.0.0/GD32F30x_Firmware_Library/GD32F30x_standard_peripheral/Source\gd32f30x_fmc.c ****         return SET;
 575              		.loc 1 832 0
 576 001e 0120     		movs	r0, #1
 577 0020 7047     		bx	lr
 578              		.cfi_endproc
 579              	.LFE143:
 581              		.section	.text.fmc_flag_clear,"ax",%progbits
 582              		.align	1
 583              		.global	fmc_flag_clear
 584              		.syntax unified
 585              		.thumb
 586              		.thumb_func
 587              		.fpu fpv4-sp-d16
 589              	fmc_flag_clear:
 590              	.LFB144:
 837:C:/Users/49542/Desktop/GD32F30x_Demo_Suites_V2.0.0/GD32F30x_Demo_Suites_V2.0.0/GD32F30x_Firmware_Library/GD32F30x_standard_peripheral/Source\gd32f30x_fmc.c **** 
 838:C:/Users/49542/Desktop/GD32F30x_Demo_Suites_V2.0.0/GD32F30x_Demo_Suites_V2.0.0/GD32F30x_Firmware_Library/GD32F30x_standard_peripheral/Source\gd32f30x_fmc.c **** /*!
 839:C:/Users/49542/Desktop/GD32F30x_Demo_Suites_V2.0.0/GD32F30x_Demo_Suites_V2.0.0/GD32F30x_Firmware_Library/GD32F30x_standard_peripheral/Source\gd32f30x_fmc.c ****     \brief      clear the FMC flag
 840:C:/Users/49542/Desktop/GD32F30x_Demo_Suites_V2.0.0/GD32F30x_Demo_Suites_V2.0.0/GD32F30x_Firmware_Library/GD32F30x_standard_peripheral/Source\gd32f30x_fmc.c ****     \param[in]  flag: clear FMC flag
 841:C:/Users/49542/Desktop/GD32F30x_Demo_Suites_V2.0.0/GD32F30x_Demo_Suites_V2.0.0/GD32F30x_Firmware_Library/GD32F30x_standard_peripheral/Source\gd32f30x_fmc.c ****                 only one parameter can be selected which is shown as below:
 842:C:/Users/49542/Desktop/GD32F30x_Demo_Suites_V2.0.0/GD32F30x_Demo_Suites_V2.0.0/GD32F30x_Firmware_Library/GD32F30x_standard_peripheral/Source\gd32f30x_fmc.c ****       \arg        FMC_FLAG_BANK0_PGERR: FMC bank0 operation error flag bit
 843:C:/Users/49542/Desktop/GD32F30x_Demo_Suites_V2.0.0/GD32F30x_Demo_Suites_V2.0.0/GD32F30x_Firmware_Library/GD32F30x_standard_peripheral/Source\gd32f30x_fmc.c ****       \arg        FMC_FLAG_BANK0_WPERR: FMC bank0 erase/program protection error flag bit
 844:C:/Users/49542/Desktop/GD32F30x_Demo_Suites_V2.0.0/GD32F30x_Demo_Suites_V2.0.0/GD32F30x_Firmware_Library/GD32F30x_standard_peripheral/Source\gd32f30x_fmc.c ****       \arg        FMC_FLAG_BANK0_END: FMC bank0 end of operation flag bit
 845:C:/Users/49542/Desktop/GD32F30x_Demo_Suites_V2.0.0/GD32F30x_Demo_Suites_V2.0.0/GD32F30x_Firmware_Library/GD32F30x_standard_peripheral/Source\gd32f30x_fmc.c ****       \arg        FMC_FLAG_BANK1_PGERR: FMC bank1 operation error flag bit
 846:C:/Users/49542/Desktop/GD32F30x_Demo_Suites_V2.0.0/GD32F30x_Demo_Suites_V2.0.0/GD32F30x_Firmware_Library/GD32F30x_standard_peripheral/Source\gd32f30x_fmc.c ****       \arg        FMC_FLAG_BANK1_WPERR: FMC bank1 erase/program protection error flag bit
 847:C:/Users/49542/Desktop/GD32F30x_Demo_Suites_V2.0.0/GD32F30x_Demo_Suites_V2.0.0/GD32F30x_Firmware_Library/GD32F30x_standard_peripheral/Source\gd32f30x_fmc.c ****       \arg        FMC_FLAG_BANK1_END: FMC bank1 end of operation flag bit
 848:C:/Users/49542/Desktop/GD32F30x_Demo_Suites_V2.0.0/GD32F30x_Demo_Suites_V2.0.0/GD32F30x_Firmware_Library/GD32F30x_standard_peripheral/Source\gd32f30x_fmc.c ****     \param[out] none
 849:C:/Users/49542/Desktop/GD32F30x_Demo_Suites_V2.0.0/GD32F30x_Demo_Suites_V2.0.0/GD32F30x_Firmware_Library/GD32F30x_standard_peripheral/Source\gd32f30x_fmc.c ****     \retval     none
 850:C:/Users/49542/Desktop/GD32F30x_Demo_Suites_V2.0.0/GD32F30x_Demo_Suites_V2.0.0/GD32F30x_Firmware_Library/GD32F30x_standard_peripheral/Source\gd32f30x_fmc.c **** */
 851:C:/Users/49542/Desktop/GD32F30x_Demo_Suites_V2.0.0/GD32F30x_Demo_Suites_V2.0.0/GD32F30x_Firmware_Library/GD32F30x_standard_peripheral/Source\gd32f30x_fmc.c **** void fmc_flag_clear(uint32_t flag)
 852:C:/Users/49542/Desktop/GD32F30x_Demo_Suites_V2.0.0/GD32F30x_Demo_Suites_V2.0.0/GD32F30x_Firmware_Library/GD32F30x_standard_peripheral/Source\gd32f30x_fmc.c **** {
 591              		.loc 1 852 0
 592              		.cfi_startproc
 593              		@ args = 0, pretend = 0, frame = 0
 594              		@ frame_needed = 0, uses_anonymous_args = 0
 595              		@ link register save eliminated.
 596              	.LVL13:
 853:C:/Users/49542/Desktop/GD32F30x_Demo_Suites_V2.0.0/GD32F30x_Demo_Suites_V2.0.0/GD32F30x_Firmware_Library/GD32F30x_standard_peripheral/Source\gd32f30x_fmc.c ****     FMC_REG_VAL(flag) |= BIT(FMC_BIT_POS(flag));
 597              		.loc 1 853 0
 598 0000 8309     		lsrs	r3, r0, #6
 599 0002 03F18043 		add	r3, r3, #1073741824
 600 0006 03F50833 		add	r3, r3, #139264
 601 000a 1A68     		ldr	r2, [r3]
 602 000c 00F01F00 		and	r0, r0, #31
 603              	.LVL14:
ARM GAS  C:\Users\49542\AppData\Local\Temp\cceCZdNg.s 			page 26


 604 0010 0121     		movs	r1, #1
 605 0012 01FA00F0 		lsl	r0, r1, r0
 606 0016 1043     		orrs	r0, r0, r2
 607 0018 1860     		str	r0, [r3]
 854:C:/Users/49542/Desktop/GD32F30x_Demo_Suites_V2.0.0/GD32F30x_Demo_Suites_V2.0.0/GD32F30x_Firmware_Library/GD32F30x_standard_peripheral/Source\gd32f30x_fmc.c **** }
 608              		.loc 1 854 0
 609 001a 7047     		bx	lr
 610              		.cfi_endproc
 611              	.LFE144:
 613              		.section	.text.fmc_interrupt_flag_get,"ax",%progbits
 614              		.align	1
 615              		.global	fmc_interrupt_flag_get
 616              		.syntax unified
 617              		.thumb
 618              		.thumb_func
 619              		.fpu fpv4-sp-d16
 621              	fmc_interrupt_flag_get:
 622              	.LFB145:
 855:C:/Users/49542/Desktop/GD32F30x_Demo_Suites_V2.0.0/GD32F30x_Demo_Suites_V2.0.0/GD32F30x_Firmware_Library/GD32F30x_standard_peripheral/Source\gd32f30x_fmc.c **** 
 856:C:/Users/49542/Desktop/GD32F30x_Demo_Suites_V2.0.0/GD32F30x_Demo_Suites_V2.0.0/GD32F30x_Firmware_Library/GD32F30x_standard_peripheral/Source\gd32f30x_fmc.c **** /*!
 857:C:/Users/49542/Desktop/GD32F30x_Demo_Suites_V2.0.0/GD32F30x_Demo_Suites_V2.0.0/GD32F30x_Firmware_Library/GD32F30x_standard_peripheral/Source\gd32f30x_fmc.c ****     \brief      get FMC interrupt flag state
 858:C:/Users/49542/Desktop/GD32F30x_Demo_Suites_V2.0.0/GD32F30x_Demo_Suites_V2.0.0/GD32F30x_Firmware_Library/GD32F30x_standard_peripheral/Source\gd32f30x_fmc.c ****     \param[in]  flag: FMC interrupt flags, refer to fmc_interrupt_flag_enum
 859:C:/Users/49542/Desktop/GD32F30x_Demo_Suites_V2.0.0/GD32F30x_Demo_Suites_V2.0.0/GD32F30x_Firmware_Library/GD32F30x_standard_peripheral/Source\gd32f30x_fmc.c ****                 only one parameter can be selected which is shown as below:
 860:C:/Users/49542/Desktop/GD32F30x_Demo_Suites_V2.0.0/GD32F30x_Demo_Suites_V2.0.0/GD32F30x_Firmware_Library/GD32F30x_standard_peripheral/Source\gd32f30x_fmc.c ****       \arg        FMC_INT_FLAG_BANK0_PGERR: FMC bank0 operation error interrupt flag bit
 861:C:/Users/49542/Desktop/GD32F30x_Demo_Suites_V2.0.0/GD32F30x_Demo_Suites_V2.0.0/GD32F30x_Firmware_Library/GD32F30x_standard_peripheral/Source\gd32f30x_fmc.c ****       \arg        FMC_INT_FLAG_BANK0_WPERR: FMC bank0 erase/program protection error interrupt flag
 862:C:/Users/49542/Desktop/GD32F30x_Demo_Suites_V2.0.0/GD32F30x_Demo_Suites_V2.0.0/GD32F30x_Firmware_Library/GD32F30x_standard_peripheral/Source\gd32f30x_fmc.c ****       \arg        FMC_INT_FLAG_BANK0_END: FMC bank0 end of operation interrupt flag bit
 863:C:/Users/49542/Desktop/GD32F30x_Demo_Suites_V2.0.0/GD32F30x_Demo_Suites_V2.0.0/GD32F30x_Firmware_Library/GD32F30x_standard_peripheral/Source\gd32f30x_fmc.c ****       \arg        FMC_INT_FLAG_BANK1_PGERR: FMC bank1 operation error interrupt flag bit
 864:C:/Users/49542/Desktop/GD32F30x_Demo_Suites_V2.0.0/GD32F30x_Demo_Suites_V2.0.0/GD32F30x_Firmware_Library/GD32F30x_standard_peripheral/Source\gd32f30x_fmc.c ****       \arg        FMC_INT_FLAG_BANK1_WPERR: FMC bank1 erase/program protection error interrupt flag
 865:C:/Users/49542/Desktop/GD32F30x_Demo_Suites_V2.0.0/GD32F30x_Demo_Suites_V2.0.0/GD32F30x_Firmware_Library/GD32F30x_standard_peripheral/Source\gd32f30x_fmc.c ****       \arg        FMC_INT_FLAG_BANK1_END: FMC bank1 end of operation interrupt flag bit
 866:C:/Users/49542/Desktop/GD32F30x_Demo_Suites_V2.0.0/GD32F30x_Demo_Suites_V2.0.0/GD32F30x_Firmware_Library/GD32F30x_standard_peripheral/Source\gd32f30x_fmc.c ****     \param[out] none
 867:C:/Users/49542/Desktop/GD32F30x_Demo_Suites_V2.0.0/GD32F30x_Demo_Suites_V2.0.0/GD32F30x_Firmware_Library/GD32F30x_standard_peripheral/Source\gd32f30x_fmc.c ****     \retval     FlagStatus: SET or RESET
 868:C:/Users/49542/Desktop/GD32F30x_Demo_Suites_V2.0.0/GD32F30x_Demo_Suites_V2.0.0/GD32F30x_Firmware_Library/GD32F30x_standard_peripheral/Source\gd32f30x_fmc.c **** */
 869:C:/Users/49542/Desktop/GD32F30x_Demo_Suites_V2.0.0/GD32F30x_Demo_Suites_V2.0.0/GD32F30x_Firmware_Library/GD32F30x_standard_peripheral/Source\gd32f30x_fmc.c **** FlagStatus fmc_interrupt_flag_get(fmc_interrupt_flag_enum flag)
 870:C:/Users/49542/Desktop/GD32F30x_Demo_Suites_V2.0.0/GD32F30x_Demo_Suites_V2.0.0/GD32F30x_Firmware_Library/GD32F30x_standard_peripheral/Source\gd32f30x_fmc.c **** {
 623              		.loc 1 870 0
 624              		.cfi_startproc
 625              		@ args = 0, pretend = 0, frame = 0
 626              		@ frame_needed = 0, uses_anonymous_args = 0
 627              		@ link register save eliminated.
 628              	.LVL15:
 871:C:/Users/49542/Desktop/GD32F30x_Demo_Suites_V2.0.0/GD32F30x_Demo_Suites_V2.0.0/GD32F30x_Firmware_Library/GD32F30x_standard_peripheral/Source\gd32f30x_fmc.c ****     FlagStatus ret1 = RESET;
 872:C:/Users/49542/Desktop/GD32F30x_Demo_Suites_V2.0.0/GD32F30x_Demo_Suites_V2.0.0/GD32F30x_Firmware_Library/GD32F30x_standard_peripheral/Source\gd32f30x_fmc.c ****     FlagStatus ret2 = RESET;
 873:C:/Users/49542/Desktop/GD32F30x_Demo_Suites_V2.0.0/GD32F30x_Demo_Suites_V2.0.0/GD32F30x_Firmware_Library/GD32F30x_standard_peripheral/Source\gd32f30x_fmc.c ****     
 874:C:/Users/49542/Desktop/GD32F30x_Demo_Suites_V2.0.0/GD32F30x_Demo_Suites_V2.0.0/GD32F30x_Firmware_Library/GD32F30x_standard_peripheral/Source\gd32f30x_fmc.c ****     if(FMC_STAT0_REG_OFFSET == FMC_REG_OFFSET_GET(flag)){
 629              		.loc 1 874 0
 630 0000 030B     		lsrs	r3, r0, #12
 631 0002 0C2B     		cmp	r3, #12
 632 0004 16D0     		beq	.L62
 875:C:/Users/49542/Desktop/GD32F30x_Demo_Suites_V2.0.0/GD32F30x_Demo_Suites_V2.0.0/GD32F30x_Firmware_Library/GD32F30x_standard_peripheral/Source\gd32f30x_fmc.c ****         /* get the staus of interrupt flag */
 876:C:/Users/49542/Desktop/GD32F30x_Demo_Suites_V2.0.0/GD32F30x_Demo_Suites_V2.0.0/GD32F30x_Firmware_Library/GD32F30x_standard_peripheral/Source\gd32f30x_fmc.c ****         ret1 = (FlagStatus)(FMC_REG_VALS(flag) & BIT(FMC_BIT_POS0(flag)));
 877:C:/Users/49542/Desktop/GD32F30x_Demo_Suites_V2.0.0/GD32F30x_Demo_Suites_V2.0.0/GD32F30x_Firmware_Library/GD32F30x_standard_peripheral/Source\gd32f30x_fmc.c ****         /* get the staus of interrupt enale bit */
 878:C:/Users/49542/Desktop/GD32F30x_Demo_Suites_V2.0.0/GD32F30x_Demo_Suites_V2.0.0/GD32F30x_Firmware_Library/GD32F30x_standard_peripheral/Source\gd32f30x_fmc.c ****         ret2 = (FlagStatus)(FMC_CTL0 & BIT(FMC_BIT_POS1(flag)));
 879:C:/Users/49542/Desktop/GD32F30x_Demo_Suites_V2.0.0/GD32F30x_Demo_Suites_V2.0.0/GD32F30x_Firmware_Library/GD32F30x_standard_peripheral/Source\gd32f30x_fmc.c ****     }else{
 880:C:/Users/49542/Desktop/GD32F30x_Demo_Suites_V2.0.0/GD32F30x_Demo_Suites_V2.0.0/GD32F30x_Firmware_Library/GD32F30x_standard_peripheral/Source\gd32f30x_fmc.c ****         /* get the staus of interrupt flag */
 881:C:/Users/49542/Desktop/GD32F30x_Demo_Suites_V2.0.0/GD32F30x_Demo_Suites_V2.0.0/GD32F30x_Firmware_Library/GD32F30x_standard_peripheral/Source\gd32f30x_fmc.c ****         ret1 = (FlagStatus)(FMC_REG_VALS(flag) & BIT(FMC_BIT_POS0(flag)));
 633              		.loc 1 881 0
 634 0006 03F18043 		add	r3, r3, #1073741824
ARM GAS  C:\Users\49542\AppData\Local\Temp\cceCZdNg.s 			page 27


 635 000a 03F50833 		add	r3, r3, #139264
 636 000e 1968     		ldr	r1, [r3]
 637 0010 C0F38412 		ubfx	r2, r0, #6, #5
 638 0014 0123     		movs	r3, #1
 639 0016 03FA02F2 		lsl	r2, r3, r2
 640 001a D2B2     		uxtb	r2, r2
 641 001c 0A40     		ands	r2, r2, r1
 642              	.LVL16:
 882:C:/Users/49542/Desktop/GD32F30x_Demo_Suites_V2.0.0/GD32F30x_Demo_Suites_V2.0.0/GD32F30x_Firmware_Library/GD32F30x_standard_peripheral/Source\gd32f30x_fmc.c ****         /* get the staus of interrupt enale bit */
 883:C:/Users/49542/Desktop/GD32F30x_Demo_Suites_V2.0.0/GD32F30x_Demo_Suites_V2.0.0/GD32F30x_Firmware_Library/GD32F30x_standard_peripheral/Source\gd32f30x_fmc.c ****         ret2 = (FlagStatus)(FMC_CTL1 & BIT(FMC_BIT_POS1(flag)));
 643              		.loc 1 883 0
 644 001e 1249     		ldr	r1, .L63
 645 0020 0968     		ldr	r1, [r1]
 646 0022 00F01F00 		and	r0, r0, #31
 647              	.LVL17:
 648 0026 03FA00F0 		lsl	r0, r3, r0
 649 002a C0B2     		uxtb	r0, r0
 650 002c 0840     		ands	r0, r0, r1
 651              	.LVL18:
 652              	.L58:
 884:C:/Users/49542/Desktop/GD32F30x_Demo_Suites_V2.0.0/GD32F30x_Demo_Suites_V2.0.0/GD32F30x_Firmware_Library/GD32F30x_standard_peripheral/Source\gd32f30x_fmc.c ****     }
 885:C:/Users/49542/Desktop/GD32F30x_Demo_Suites_V2.0.0/GD32F30x_Demo_Suites_V2.0.0/GD32F30x_Firmware_Library/GD32F30x_standard_peripheral/Source\gd32f30x_fmc.c **** 
 886:C:/Users/49542/Desktop/GD32F30x_Demo_Suites_V2.0.0/GD32F30x_Demo_Suites_V2.0.0/GD32F30x_Firmware_Library/GD32F30x_standard_peripheral/Source\gd32f30x_fmc.c ****     if(ret1 && ret2){
 653              		.loc 1 886 0
 654 002e B2B1     		cbz	r2, .L60
 655              		.loc 1 886 0 is_stmt 0 discriminator 1
 656 0030 B8B9     		cbnz	r0, .L61
 657 0032 7047     		bx	lr
 658              	.LVL19:
 659              	.L62:
 876:C:/Users/49542/Desktop/GD32F30x_Demo_Suites_V2.0.0/GD32F30x_Demo_Suites_V2.0.0/GD32F30x_Firmware_Library/GD32F30x_standard_peripheral/Source\gd32f30x_fmc.c ****         /* get the staus of interrupt enale bit */
 660              		.loc 1 876 0 is_stmt 1
 661 0034 03F18043 		add	r3, r3, #1073741824
 662 0038 03F50833 		add	r3, r3, #139264
 663 003c 1A68     		ldr	r2, [r3]
 664 003e C0F38413 		ubfx	r3, r0, #6, #5
 665 0042 0121     		movs	r1, #1
 666 0044 01FA03F3 		lsl	r3, r1, r3
 667 0048 DBB2     		uxtb	r3, r3
 668 004a 1A40     		ands	r2, r2, r3
 669              	.LVL20:
 878:C:/Users/49542/Desktop/GD32F30x_Demo_Suites_V2.0.0/GD32F30x_Demo_Suites_V2.0.0/GD32F30x_Firmware_Library/GD32F30x_standard_peripheral/Source\gd32f30x_fmc.c ****     }else{
 670              		.loc 1 878 0
 671 004c 074B     		ldr	r3, .L63+4
 672 004e 1B68     		ldr	r3, [r3]
 673 0050 00F01F00 		and	r0, r0, #31
 674              	.LVL21:
 675 0054 01FA00F0 		lsl	r0, r1, r0
 676 0058 C0B2     		uxtb	r0, r0
 677 005a 1840     		ands	r0, r0, r3
 678              	.LVL22:
 679 005c E7E7     		b	.L58
 680              	.L60:
 887:C:/Users/49542/Desktop/GD32F30x_Demo_Suites_V2.0.0/GD32F30x_Demo_Suites_V2.0.0/GD32F30x_Firmware_Library/GD32F30x_standard_peripheral/Source\gd32f30x_fmc.c ****         return SET;
 888:C:/Users/49542/Desktop/GD32F30x_Demo_Suites_V2.0.0/GD32F30x_Demo_Suites_V2.0.0/GD32F30x_Firmware_Library/GD32F30x_standard_peripheral/Source\gd32f30x_fmc.c ****     }else{
 889:C:/Users/49542/Desktop/GD32F30x_Demo_Suites_V2.0.0/GD32F30x_Demo_Suites_V2.0.0/GD32F30x_Firmware_Library/GD32F30x_standard_peripheral/Source\gd32f30x_fmc.c ****         return RESET;
 681              		.loc 1 889 0
ARM GAS  C:\Users\49542\AppData\Local\Temp\cceCZdNg.s 			page 28


 682 005e 0020     		movs	r0, #0
 683              	.LVL23:
 684 0060 7047     		bx	lr
 685              	.LVL24:
 686              	.L61:
 887:C:/Users/49542/Desktop/GD32F30x_Demo_Suites_V2.0.0/GD32F30x_Demo_Suites_V2.0.0/GD32F30x_Firmware_Library/GD32F30x_standard_peripheral/Source\gd32f30x_fmc.c ****         return SET;
 687              		.loc 1 887 0
 688 0062 0120     		movs	r0, #1
 689              	.LVL25:
 890:C:/Users/49542/Desktop/GD32F30x_Demo_Suites_V2.0.0/GD32F30x_Demo_Suites_V2.0.0/GD32F30x_Firmware_Library/GD32F30x_standard_peripheral/Source\gd32f30x_fmc.c ****     }
 891:C:/Users/49542/Desktop/GD32F30x_Demo_Suites_V2.0.0/GD32F30x_Demo_Suites_V2.0.0/GD32F30x_Firmware_Library/GD32F30x_standard_peripheral/Source\gd32f30x_fmc.c **** }
 690              		.loc 1 891 0
 691 0064 7047     		bx	lr
 692              	.L64:
 693 0066 00BF     		.align	2
 694              	.L63:
 695 0068 50200240 		.word	1073881168
 696 006c 10200240 		.word	1073881104
 697              		.cfi_endproc
 698              	.LFE145:
 700              		.section	.text.fmc_interrupt_flag_clear,"ax",%progbits
 701              		.align	1
 702              		.global	fmc_interrupt_flag_clear
 703              		.syntax unified
 704              		.thumb
 705              		.thumb_func
 706              		.fpu fpv4-sp-d16
 708              	fmc_interrupt_flag_clear:
 709              	.LFB146:
 892:C:/Users/49542/Desktop/GD32F30x_Demo_Suites_V2.0.0/GD32F30x_Demo_Suites_V2.0.0/GD32F30x_Firmware_Library/GD32F30x_standard_peripheral/Source\gd32f30x_fmc.c **** 
 893:C:/Users/49542/Desktop/GD32F30x_Demo_Suites_V2.0.0/GD32F30x_Demo_Suites_V2.0.0/GD32F30x_Firmware_Library/GD32F30x_standard_peripheral/Source\gd32f30x_fmc.c **** /*!
 894:C:/Users/49542/Desktop/GD32F30x_Demo_Suites_V2.0.0/GD32F30x_Demo_Suites_V2.0.0/GD32F30x_Firmware_Library/GD32F30x_standard_peripheral/Source\gd32f30x_fmc.c ****     \brief      clear FMC interrupt flag state
 895:C:/Users/49542/Desktop/GD32F30x_Demo_Suites_V2.0.0/GD32F30x_Demo_Suites_V2.0.0/GD32F30x_Firmware_Library/GD32F30x_standard_peripheral/Source\gd32f30x_fmc.c ****     \param[in]  flag: FMC interrupt flags, refer to can_interrupt_flag_enum
 896:C:/Users/49542/Desktop/GD32F30x_Demo_Suites_V2.0.0/GD32F30x_Demo_Suites_V2.0.0/GD32F30x_Firmware_Library/GD32F30x_standard_peripheral/Source\gd32f30x_fmc.c ****                 only one parameter can be selected which is shown as below:
 897:C:/Users/49542/Desktop/GD32F30x_Demo_Suites_V2.0.0/GD32F30x_Demo_Suites_V2.0.0/GD32F30x_Firmware_Library/GD32F30x_standard_peripheral/Source\gd32f30x_fmc.c ****       \arg        FMC_INT_FLAG_BANK0_PGERR: FMC bank0 operation error interrupt flag bit
 898:C:/Users/49542/Desktop/GD32F30x_Demo_Suites_V2.0.0/GD32F30x_Demo_Suites_V2.0.0/GD32F30x_Firmware_Library/GD32F30x_standard_peripheral/Source\gd32f30x_fmc.c ****       \arg        FMC_INT_FLAG_BANK0_WPERR: FMC bank0 erase/program protection error interrupt flag
 899:C:/Users/49542/Desktop/GD32F30x_Demo_Suites_V2.0.0/GD32F30x_Demo_Suites_V2.0.0/GD32F30x_Firmware_Library/GD32F30x_standard_peripheral/Source\gd32f30x_fmc.c ****       \arg        FMC_INT_FLAG_BANK0_END: FMC bank0 end of operation interrupt flag bit
 900:C:/Users/49542/Desktop/GD32F30x_Demo_Suites_V2.0.0/GD32F30x_Demo_Suites_V2.0.0/GD32F30x_Firmware_Library/GD32F30x_standard_peripheral/Source\gd32f30x_fmc.c ****       \arg        FMC_INT_FLAG_BANK1_PGERR: FMC bank1 operation error interrupt flag bit
 901:C:/Users/49542/Desktop/GD32F30x_Demo_Suites_V2.0.0/GD32F30x_Demo_Suites_V2.0.0/GD32F30x_Firmware_Library/GD32F30x_standard_peripheral/Source\gd32f30x_fmc.c ****       \arg        FMC_INT_FLAG_BANK1_WPERR: FMC bank1 erase/program protection error interrupt flag
 902:C:/Users/49542/Desktop/GD32F30x_Demo_Suites_V2.0.0/GD32F30x_Demo_Suites_V2.0.0/GD32F30x_Firmware_Library/GD32F30x_standard_peripheral/Source\gd32f30x_fmc.c ****       \arg        FMC_INT_FLAG_BANK1_END: FMC bank1 end of operation interrupt flag bit
 903:C:/Users/49542/Desktop/GD32F30x_Demo_Suites_V2.0.0/GD32F30x_Demo_Suites_V2.0.0/GD32F30x_Firmware_Library/GD32F30x_standard_peripheral/Source\gd32f30x_fmc.c ****     \param[out] none
 904:C:/Users/49542/Desktop/GD32F30x_Demo_Suites_V2.0.0/GD32F30x_Demo_Suites_V2.0.0/GD32F30x_Firmware_Library/GD32F30x_standard_peripheral/Source\gd32f30x_fmc.c ****     \retval     none
 905:C:/Users/49542/Desktop/GD32F30x_Demo_Suites_V2.0.0/GD32F30x_Demo_Suites_V2.0.0/GD32F30x_Firmware_Library/GD32F30x_standard_peripheral/Source\gd32f30x_fmc.c **** */
 906:C:/Users/49542/Desktop/GD32F30x_Demo_Suites_V2.0.0/GD32F30x_Demo_Suites_V2.0.0/GD32F30x_Firmware_Library/GD32F30x_standard_peripheral/Source\gd32f30x_fmc.c **** void fmc_interrupt_flag_clear(fmc_interrupt_flag_enum flag)
 907:C:/Users/49542/Desktop/GD32F30x_Demo_Suites_V2.0.0/GD32F30x_Demo_Suites_V2.0.0/GD32F30x_Firmware_Library/GD32F30x_standard_peripheral/Source\gd32f30x_fmc.c **** {
 710              		.loc 1 907 0
 711              		.cfi_startproc
 712              		@ args = 0, pretend = 0, frame = 0
 713              		@ frame_needed = 0, uses_anonymous_args = 0
 714              		@ link register save eliminated.
 715              	.LVL26:
 908:C:/Users/49542/Desktop/GD32F30x_Demo_Suites_V2.0.0/GD32F30x_Demo_Suites_V2.0.0/GD32F30x_Firmware_Library/GD32F30x_standard_peripheral/Source\gd32f30x_fmc.c ****     FMC_REG_VALS(flag) |= BIT(FMC_BIT_POS0(flag));
 716              		.loc 1 908 0
 717 0000 030B     		lsrs	r3, r0, #12
 718 0002 03F18043 		add	r3, r3, #1073741824
 719 0006 03F50833 		add	r3, r3, #139264
 720 000a 1A68     		ldr	r2, [r3]
ARM GAS  C:\Users\49542\AppData\Local\Temp\cceCZdNg.s 			page 29


 721 000c C0F38410 		ubfx	r0, r0, #6, #5
 722              	.LVL27:
 723 0010 0121     		movs	r1, #1
 724 0012 01FA00F0 		lsl	r0, r1, r0
 725 0016 1043     		orrs	r0, r0, r2
 726 0018 1860     		str	r0, [r3]
 909:C:/Users/49542/Desktop/GD32F30x_Demo_Suites_V2.0.0/GD32F30x_Demo_Suites_V2.0.0/GD32F30x_Firmware_Library/GD32F30x_standard_peripheral/Source\gd32f30x_fmc.c **** }
 727              		.loc 1 909 0
 728 001a 7047     		bx	lr
 729              		.cfi_endproc
 730              	.LFE146:
 732              		.section	.text.fmc_bank0_state_get,"ax",%progbits
 733              		.align	1
 734              		.global	fmc_bank0_state_get
 735              		.syntax unified
 736              		.thumb
 737              		.thumb_func
 738              		.fpu fpv4-sp-d16
 740              	fmc_bank0_state_get:
 741              	.LFB147:
 910:C:/Users/49542/Desktop/GD32F30x_Demo_Suites_V2.0.0/GD32F30x_Demo_Suites_V2.0.0/GD32F30x_Firmware_Library/GD32F30x_standard_peripheral/Source\gd32f30x_fmc.c **** 
 911:C:/Users/49542/Desktop/GD32F30x_Demo_Suites_V2.0.0/GD32F30x_Demo_Suites_V2.0.0/GD32F30x_Firmware_Library/GD32F30x_standard_peripheral/Source\gd32f30x_fmc.c **** /*!
 912:C:/Users/49542/Desktop/GD32F30x_Demo_Suites_V2.0.0/GD32F30x_Demo_Suites_V2.0.0/GD32F30x_Firmware_Library/GD32F30x_standard_peripheral/Source\gd32f30x_fmc.c ****     \brief      get the FMC bank0 state
 913:C:/Users/49542/Desktop/GD32F30x_Demo_Suites_V2.0.0/GD32F30x_Demo_Suites_V2.0.0/GD32F30x_Firmware_Library/GD32F30x_standard_peripheral/Source\gd32f30x_fmc.c ****     \param[in]  none
 914:C:/Users/49542/Desktop/GD32F30x_Demo_Suites_V2.0.0/GD32F30x_Demo_Suites_V2.0.0/GD32F30x_Firmware_Library/GD32F30x_standard_peripheral/Source\gd32f30x_fmc.c ****     \param[out] none
 915:C:/Users/49542/Desktop/GD32F30x_Demo_Suites_V2.0.0/GD32F30x_Demo_Suites_V2.0.0/GD32F30x_Firmware_Library/GD32F30x_standard_peripheral/Source\gd32f30x_fmc.c ****     \retval     state of FMC, refer to fmc_state_enum
 916:C:/Users/49542/Desktop/GD32F30x_Demo_Suites_V2.0.0/GD32F30x_Demo_Suites_V2.0.0/GD32F30x_Firmware_Library/GD32F30x_standard_peripheral/Source\gd32f30x_fmc.c **** */
 917:C:/Users/49542/Desktop/GD32F30x_Demo_Suites_V2.0.0/GD32F30x_Demo_Suites_V2.0.0/GD32F30x_Firmware_Library/GD32F30x_standard_peripheral/Source\gd32f30x_fmc.c **** fmc_state_enum fmc_bank0_state_get(void)
 918:C:/Users/49542/Desktop/GD32F30x_Demo_Suites_V2.0.0/GD32F30x_Demo_Suites_V2.0.0/GD32F30x_Firmware_Library/GD32F30x_standard_peripheral/Source\gd32f30x_fmc.c **** {
 742              		.loc 1 918 0
 743              		.cfi_startproc
 744              		@ args = 0, pretend = 0, frame = 0
 745              		@ frame_needed = 0, uses_anonymous_args = 0
 746              		@ link register save eliminated.
 747              	.LVL28:
 919:C:/Users/49542/Desktop/GD32F30x_Demo_Suites_V2.0.0/GD32F30x_Demo_Suites_V2.0.0/GD32F30x_Firmware_Library/GD32F30x_standard_peripheral/Source\gd32f30x_fmc.c ****     fmc_state_enum fmc_state = FMC_READY;
 920:C:/Users/49542/Desktop/GD32F30x_Demo_Suites_V2.0.0/GD32F30x_Demo_Suites_V2.0.0/GD32F30x_Firmware_Library/GD32F30x_standard_peripheral/Source\gd32f30x_fmc.c ****   
 921:C:/Users/49542/Desktop/GD32F30x_Demo_Suites_V2.0.0/GD32F30x_Demo_Suites_V2.0.0/GD32F30x_Firmware_Library/GD32F30x_standard_peripheral/Source\gd32f30x_fmc.c ****     if((uint32_t)0x00U != (FMC_STAT0 & FMC_STAT0_BUSY)){
 748              		.loc 1 921 0
 749 0000 0B4B     		ldr	r3, .L71
 750 0002 1B68     		ldr	r3, [r3]
 751 0004 13F0010F 		tst	r3, #1
 752 0008 0BD1     		bne	.L68
 922:C:/Users/49542/Desktop/GD32F30x_Demo_Suites_V2.0.0/GD32F30x_Demo_Suites_V2.0.0/GD32F30x_Firmware_Library/GD32F30x_standard_peripheral/Source\gd32f30x_fmc.c ****         fmc_state = FMC_BUSY;
 923:C:/Users/49542/Desktop/GD32F30x_Demo_Suites_V2.0.0/GD32F30x_Demo_Suites_V2.0.0/GD32F30x_Firmware_Library/GD32F30x_standard_peripheral/Source\gd32f30x_fmc.c ****     }else{
 924:C:/Users/49542/Desktop/GD32F30x_Demo_Suites_V2.0.0/GD32F30x_Demo_Suites_V2.0.0/GD32F30x_Firmware_Library/GD32F30x_standard_peripheral/Source\gd32f30x_fmc.c ****         if((uint32_t)0x00U != (FMC_STAT0 & FMC_STAT0_WPERR)){
 753              		.loc 1 924 0
 754 000a 094B     		ldr	r3, .L71
 755 000c 1B68     		ldr	r3, [r3]
 756 000e 13F0100F 		tst	r3, #16
 757 0012 08D1     		bne	.L69
 925:C:/Users/49542/Desktop/GD32F30x_Demo_Suites_V2.0.0/GD32F30x_Demo_Suites_V2.0.0/GD32F30x_Firmware_Library/GD32F30x_standard_peripheral/Source\gd32f30x_fmc.c ****             fmc_state = FMC_WPERR;
 926:C:/Users/49542/Desktop/GD32F30x_Demo_Suites_V2.0.0/GD32F30x_Demo_Suites_V2.0.0/GD32F30x_Firmware_Library/GD32F30x_standard_peripheral/Source\gd32f30x_fmc.c ****         }else{
 927:C:/Users/49542/Desktop/GD32F30x_Demo_Suites_V2.0.0/GD32F30x_Demo_Suites_V2.0.0/GD32F30x_Firmware_Library/GD32F30x_standard_peripheral/Source\gd32f30x_fmc.c ****             if((uint32_t)0x00U != (FMC_STAT0 & (FMC_STAT0_PGERR))){
 758              		.loc 1 927 0
 759 0014 064B     		ldr	r3, .L71
 760 0016 1B68     		ldr	r3, [r3]
ARM GAS  C:\Users\49542\AppData\Local\Temp\cceCZdNg.s 			page 30


 761 0018 13F0040F 		tst	r3, #4
 762 001c 05D1     		bne	.L70
 919:C:/Users/49542/Desktop/GD32F30x_Demo_Suites_V2.0.0/GD32F30x_Demo_Suites_V2.0.0/GD32F30x_Firmware_Library/GD32F30x_standard_peripheral/Source\gd32f30x_fmc.c ****   
 763              		.loc 1 919 0
 764 001e 0020     		movs	r0, #0
 765 0020 7047     		bx	lr
 766              	.L68:
 922:C:/Users/49542/Desktop/GD32F30x_Demo_Suites_V2.0.0/GD32F30x_Demo_Suites_V2.0.0/GD32F30x_Firmware_Library/GD32F30x_standard_peripheral/Source\gd32f30x_fmc.c ****         fmc_state = FMC_BUSY;
 767              		.loc 1 922 0
 768 0022 0120     		movs	r0, #1
 769 0024 7047     		bx	lr
 770              	.L69:
 925:C:/Users/49542/Desktop/GD32F30x_Demo_Suites_V2.0.0/GD32F30x_Demo_Suites_V2.0.0/GD32F30x_Firmware_Library/GD32F30x_standard_peripheral/Source\gd32f30x_fmc.c ****             fmc_state = FMC_WPERR;
 771              		.loc 1 925 0
 772 0026 0320     		movs	r0, #3
 773 0028 7047     		bx	lr
 774              	.L70:
 928:C:/Users/49542/Desktop/GD32F30x_Demo_Suites_V2.0.0/GD32F30x_Demo_Suites_V2.0.0/GD32F30x_Firmware_Library/GD32F30x_standard_peripheral/Source\gd32f30x_fmc.c ****                 fmc_state = FMC_PGERR; 
 775              		.loc 1 928 0
 776 002a 0220     		movs	r0, #2
 777              	.LVL29:
 929:C:/Users/49542/Desktop/GD32F30x_Demo_Suites_V2.0.0/GD32F30x_Demo_Suites_V2.0.0/GD32F30x_Firmware_Library/GD32F30x_standard_peripheral/Source\gd32f30x_fmc.c ****             }
 930:C:/Users/49542/Desktop/GD32F30x_Demo_Suites_V2.0.0/GD32F30x_Demo_Suites_V2.0.0/GD32F30x_Firmware_Library/GD32F30x_standard_peripheral/Source\gd32f30x_fmc.c ****         }
 931:C:/Users/49542/Desktop/GD32F30x_Demo_Suites_V2.0.0/GD32F30x_Demo_Suites_V2.0.0/GD32F30x_Firmware_Library/GD32F30x_standard_peripheral/Source\gd32f30x_fmc.c ****     }
 932:C:/Users/49542/Desktop/GD32F30x_Demo_Suites_V2.0.0/GD32F30x_Demo_Suites_V2.0.0/GD32F30x_Firmware_Library/GD32F30x_standard_peripheral/Source\gd32f30x_fmc.c ****     /* return the FMC state */
 933:C:/Users/49542/Desktop/GD32F30x_Demo_Suites_V2.0.0/GD32F30x_Demo_Suites_V2.0.0/GD32F30x_Firmware_Library/GD32F30x_standard_peripheral/Source\gd32f30x_fmc.c ****     return fmc_state;
 934:C:/Users/49542/Desktop/GD32F30x_Demo_Suites_V2.0.0/GD32F30x_Demo_Suites_V2.0.0/GD32F30x_Firmware_Library/GD32F30x_standard_peripheral/Source\gd32f30x_fmc.c **** }
 778              		.loc 1 934 0
 779 002c 7047     		bx	lr
 780              	.L72:
 781 002e 00BF     		.align	2
 782              	.L71:
 783 0030 0C200240 		.word	1073881100
 784              		.cfi_endproc
 785              	.LFE147:
 787              		.section	.text.fmc_bank1_state_get,"ax",%progbits
 788              		.align	1
 789              		.global	fmc_bank1_state_get
 790              		.syntax unified
 791              		.thumb
 792              		.thumb_func
 793              		.fpu fpv4-sp-d16
 795              	fmc_bank1_state_get:
 796              	.LFB148:
 935:C:/Users/49542/Desktop/GD32F30x_Demo_Suites_V2.0.0/GD32F30x_Demo_Suites_V2.0.0/GD32F30x_Firmware_Library/GD32F30x_standard_peripheral/Source\gd32f30x_fmc.c **** 
 936:C:/Users/49542/Desktop/GD32F30x_Demo_Suites_V2.0.0/GD32F30x_Demo_Suites_V2.0.0/GD32F30x_Firmware_Library/GD32F30x_standard_peripheral/Source\gd32f30x_fmc.c **** /*!
 937:C:/Users/49542/Desktop/GD32F30x_Demo_Suites_V2.0.0/GD32F30x_Demo_Suites_V2.0.0/GD32F30x_Firmware_Library/GD32F30x_standard_peripheral/Source\gd32f30x_fmc.c ****     \brief      get the FMC bank1 state
 938:C:/Users/49542/Desktop/GD32F30x_Demo_Suites_V2.0.0/GD32F30x_Demo_Suites_V2.0.0/GD32F30x_Firmware_Library/GD32F30x_standard_peripheral/Source\gd32f30x_fmc.c ****     \param[in]  none
 939:C:/Users/49542/Desktop/GD32F30x_Demo_Suites_V2.0.0/GD32F30x_Demo_Suites_V2.0.0/GD32F30x_Firmware_Library/GD32F30x_standard_peripheral/Source\gd32f30x_fmc.c ****     \param[out] none
 940:C:/Users/49542/Desktop/GD32F30x_Demo_Suites_V2.0.0/GD32F30x_Demo_Suites_V2.0.0/GD32F30x_Firmware_Library/GD32F30x_standard_peripheral/Source\gd32f30x_fmc.c ****     \retval     state of FMC, refer to fmc_state_enum
 941:C:/Users/49542/Desktop/GD32F30x_Demo_Suites_V2.0.0/GD32F30x_Demo_Suites_V2.0.0/GD32F30x_Firmware_Library/GD32F30x_standard_peripheral/Source\gd32f30x_fmc.c **** */
 942:C:/Users/49542/Desktop/GD32F30x_Demo_Suites_V2.0.0/GD32F30x_Demo_Suites_V2.0.0/GD32F30x_Firmware_Library/GD32F30x_standard_peripheral/Source\gd32f30x_fmc.c **** fmc_state_enum fmc_bank1_state_get(void)
 943:C:/Users/49542/Desktop/GD32F30x_Demo_Suites_V2.0.0/GD32F30x_Demo_Suites_V2.0.0/GD32F30x_Firmware_Library/GD32F30x_standard_peripheral/Source\gd32f30x_fmc.c **** {
 797              		.loc 1 943 0
 798              		.cfi_startproc
 799              		@ args = 0, pretend = 0, frame = 0
 800              		@ frame_needed = 0, uses_anonymous_args = 0
ARM GAS  C:\Users\49542\AppData\Local\Temp\cceCZdNg.s 			page 31


 801              		@ link register save eliminated.
 802              	.LVL30:
 944:C:/Users/49542/Desktop/GD32F30x_Demo_Suites_V2.0.0/GD32F30x_Demo_Suites_V2.0.0/GD32F30x_Firmware_Library/GD32F30x_standard_peripheral/Source\gd32f30x_fmc.c ****     fmc_state_enum fmc_state = FMC_READY;
 945:C:/Users/49542/Desktop/GD32F30x_Demo_Suites_V2.0.0/GD32F30x_Demo_Suites_V2.0.0/GD32F30x_Firmware_Library/GD32F30x_standard_peripheral/Source\gd32f30x_fmc.c **** 
 946:C:/Users/49542/Desktop/GD32F30x_Demo_Suites_V2.0.0/GD32F30x_Demo_Suites_V2.0.0/GD32F30x_Firmware_Library/GD32F30x_standard_peripheral/Source\gd32f30x_fmc.c ****     if((uint32_t)0x00U != (FMC_STAT1 & FMC_STAT1_BUSY)){
 803              		.loc 1 946 0
 804 0000 0B4B     		ldr	r3, .L78
 805 0002 1B68     		ldr	r3, [r3]
 806 0004 13F0010F 		tst	r3, #1
 807 0008 0BD1     		bne	.L75
 947:C:/Users/49542/Desktop/GD32F30x_Demo_Suites_V2.0.0/GD32F30x_Demo_Suites_V2.0.0/GD32F30x_Firmware_Library/GD32F30x_standard_peripheral/Source\gd32f30x_fmc.c ****         fmc_state = FMC_BUSY;
 948:C:/Users/49542/Desktop/GD32F30x_Demo_Suites_V2.0.0/GD32F30x_Demo_Suites_V2.0.0/GD32F30x_Firmware_Library/GD32F30x_standard_peripheral/Source\gd32f30x_fmc.c ****     }else{
 949:C:/Users/49542/Desktop/GD32F30x_Demo_Suites_V2.0.0/GD32F30x_Demo_Suites_V2.0.0/GD32F30x_Firmware_Library/GD32F30x_standard_peripheral/Source\gd32f30x_fmc.c ****         if((uint32_t)0x00U != (FMC_STAT1 & FMC_STAT1_WPERR)){
 808              		.loc 1 949 0
 809 000a 094B     		ldr	r3, .L78
 810 000c 1B68     		ldr	r3, [r3]
 811 000e 13F0100F 		tst	r3, #16
 812 0012 08D1     		bne	.L76
 950:C:/Users/49542/Desktop/GD32F30x_Demo_Suites_V2.0.0/GD32F30x_Demo_Suites_V2.0.0/GD32F30x_Firmware_Library/GD32F30x_standard_peripheral/Source\gd32f30x_fmc.c ****             fmc_state = FMC_WPERR;
 951:C:/Users/49542/Desktop/GD32F30x_Demo_Suites_V2.0.0/GD32F30x_Demo_Suites_V2.0.0/GD32F30x_Firmware_Library/GD32F30x_standard_peripheral/Source\gd32f30x_fmc.c ****         }else{
 952:C:/Users/49542/Desktop/GD32F30x_Demo_Suites_V2.0.0/GD32F30x_Demo_Suites_V2.0.0/GD32F30x_Firmware_Library/GD32F30x_standard_peripheral/Source\gd32f30x_fmc.c ****             if((uint32_t)0x00U != (FMC_STAT1 & FMC_STAT1_PGERR)){
 813              		.loc 1 952 0
 814 0014 064B     		ldr	r3, .L78
 815 0016 1B68     		ldr	r3, [r3]
 816 0018 13F0040F 		tst	r3, #4
 817 001c 05D1     		bne	.L77
 944:C:/Users/49542/Desktop/GD32F30x_Demo_Suites_V2.0.0/GD32F30x_Demo_Suites_V2.0.0/GD32F30x_Firmware_Library/GD32F30x_standard_peripheral/Source\gd32f30x_fmc.c **** 
 818              		.loc 1 944 0
 819 001e 0020     		movs	r0, #0
 820 0020 7047     		bx	lr
 821              	.L75:
 947:C:/Users/49542/Desktop/GD32F30x_Demo_Suites_V2.0.0/GD32F30x_Demo_Suites_V2.0.0/GD32F30x_Firmware_Library/GD32F30x_standard_peripheral/Source\gd32f30x_fmc.c ****         fmc_state = FMC_BUSY;
 822              		.loc 1 947 0
 823 0022 0120     		movs	r0, #1
 824 0024 7047     		bx	lr
 825              	.L76:
 950:C:/Users/49542/Desktop/GD32F30x_Demo_Suites_V2.0.0/GD32F30x_Demo_Suites_V2.0.0/GD32F30x_Firmware_Library/GD32F30x_standard_peripheral/Source\gd32f30x_fmc.c ****             fmc_state = FMC_WPERR;
 826              		.loc 1 950 0
 827 0026 0320     		movs	r0, #3
 828 0028 7047     		bx	lr
 829              	.L77:
 953:C:/Users/49542/Desktop/GD32F30x_Demo_Suites_V2.0.0/GD32F30x_Demo_Suites_V2.0.0/GD32F30x_Firmware_Library/GD32F30x_standard_peripheral/Source\gd32f30x_fmc.c ****                 fmc_state = FMC_PGERR; 
 830              		.loc 1 953 0
 831 002a 0220     		movs	r0, #2
 832              	.LVL31:
 954:C:/Users/49542/Desktop/GD32F30x_Demo_Suites_V2.0.0/GD32F30x_Demo_Suites_V2.0.0/GD32F30x_Firmware_Library/GD32F30x_standard_peripheral/Source\gd32f30x_fmc.c ****             }
 955:C:/Users/49542/Desktop/GD32F30x_Demo_Suites_V2.0.0/GD32F30x_Demo_Suites_V2.0.0/GD32F30x_Firmware_Library/GD32F30x_standard_peripheral/Source\gd32f30x_fmc.c ****         }
 956:C:/Users/49542/Desktop/GD32F30x_Demo_Suites_V2.0.0/GD32F30x_Demo_Suites_V2.0.0/GD32F30x_Firmware_Library/GD32F30x_standard_peripheral/Source\gd32f30x_fmc.c ****     }
 957:C:/Users/49542/Desktop/GD32F30x_Demo_Suites_V2.0.0/GD32F30x_Demo_Suites_V2.0.0/GD32F30x_Firmware_Library/GD32F30x_standard_peripheral/Source\gd32f30x_fmc.c **** 
 958:C:/Users/49542/Desktop/GD32F30x_Demo_Suites_V2.0.0/GD32F30x_Demo_Suites_V2.0.0/GD32F30x_Firmware_Library/GD32F30x_standard_peripheral/Source\gd32f30x_fmc.c ****     /* return the FMC state */
 959:C:/Users/49542/Desktop/GD32F30x_Demo_Suites_V2.0.0/GD32F30x_Demo_Suites_V2.0.0/GD32F30x_Firmware_Library/GD32F30x_standard_peripheral/Source\gd32f30x_fmc.c ****     return fmc_state;
 960:C:/Users/49542/Desktop/GD32F30x_Demo_Suites_V2.0.0/GD32F30x_Demo_Suites_V2.0.0/GD32F30x_Firmware_Library/GD32F30x_standard_peripheral/Source\gd32f30x_fmc.c **** }
 833              		.loc 1 960 0
 834 002c 7047     		bx	lr
 835              	.L79:
 836 002e 00BF     		.align	2
 837              	.L78:
ARM GAS  C:\Users\49542\AppData\Local\Temp\cceCZdNg.s 			page 32


 838 0030 4C200240 		.word	1073881164
 839              		.cfi_endproc
 840              	.LFE148:
 842              		.section	.text.fmc_bank0_ready_wait,"ax",%progbits
 843              		.align	1
 844              		.global	fmc_bank0_ready_wait
 845              		.syntax unified
 846              		.thumb
 847              		.thumb_func
 848              		.fpu fpv4-sp-d16
 850              	fmc_bank0_ready_wait:
 851              	.LFB149:
 961:C:/Users/49542/Desktop/GD32F30x_Demo_Suites_V2.0.0/GD32F30x_Demo_Suites_V2.0.0/GD32F30x_Firmware_Library/GD32F30x_standard_peripheral/Source\gd32f30x_fmc.c **** 
 962:C:/Users/49542/Desktop/GD32F30x_Demo_Suites_V2.0.0/GD32F30x_Demo_Suites_V2.0.0/GD32F30x_Firmware_Library/GD32F30x_standard_peripheral/Source\gd32f30x_fmc.c **** /*!
 963:C:/Users/49542/Desktop/GD32F30x_Demo_Suites_V2.0.0/GD32F30x_Demo_Suites_V2.0.0/GD32F30x_Firmware_Library/GD32F30x_standard_peripheral/Source\gd32f30x_fmc.c ****     \brief      check whether FMC bank0 is ready or not
 964:C:/Users/49542/Desktop/GD32F30x_Demo_Suites_V2.0.0/GD32F30x_Demo_Suites_V2.0.0/GD32F30x_Firmware_Library/GD32F30x_standard_peripheral/Source\gd32f30x_fmc.c ****     \param[in]  timeout: count of loop
 965:C:/Users/49542/Desktop/GD32F30x_Demo_Suites_V2.0.0/GD32F30x_Demo_Suites_V2.0.0/GD32F30x_Firmware_Library/GD32F30x_standard_peripheral/Source\gd32f30x_fmc.c ****     \param[out] none
 966:C:/Users/49542/Desktop/GD32F30x_Demo_Suites_V2.0.0/GD32F30x_Demo_Suites_V2.0.0/GD32F30x_Firmware_Library/GD32F30x_standard_peripheral/Source\gd32f30x_fmc.c ****     \retval     state of FMC, refer to fmc_state_enum
 967:C:/Users/49542/Desktop/GD32F30x_Demo_Suites_V2.0.0/GD32F30x_Demo_Suites_V2.0.0/GD32F30x_Firmware_Library/GD32F30x_standard_peripheral/Source\gd32f30x_fmc.c **** */
 968:C:/Users/49542/Desktop/GD32F30x_Demo_Suites_V2.0.0/GD32F30x_Demo_Suites_V2.0.0/GD32F30x_Firmware_Library/GD32F30x_standard_peripheral/Source\gd32f30x_fmc.c **** fmc_state_enum fmc_bank0_ready_wait(uint32_t timeout)
 969:C:/Users/49542/Desktop/GD32F30x_Demo_Suites_V2.0.0/GD32F30x_Demo_Suites_V2.0.0/GD32F30x_Firmware_Library/GD32F30x_standard_peripheral/Source\gd32f30x_fmc.c **** {
 852              		.loc 1 969 0
 853              		.cfi_startproc
 854              		@ args = 0, pretend = 0, frame = 0
 855              		@ frame_needed = 0, uses_anonymous_args = 0
 856              	.LVL32:
 857 0000 10B5     		push	{r4, lr}
 858              	.LCFI0:
 859              		.cfi_def_cfa_offset 8
 860              		.cfi_offset 4, -8
 861              		.cfi_offset 14, -4
 862 0002 0446     		mov	r4, r0
 863              	.LVL33:
 864              	.L82:
 970:C:/Users/49542/Desktop/GD32F30x_Demo_Suites_V2.0.0/GD32F30x_Demo_Suites_V2.0.0/GD32F30x_Firmware_Library/GD32F30x_standard_peripheral/Source\gd32f30x_fmc.c ****     fmc_state_enum fmc_state = FMC_BUSY;
 971:C:/Users/49542/Desktop/GD32F30x_Demo_Suites_V2.0.0/GD32F30x_Demo_Suites_V2.0.0/GD32F30x_Firmware_Library/GD32F30x_standard_peripheral/Source\gd32f30x_fmc.c ****   
 972:C:/Users/49542/Desktop/GD32F30x_Demo_Suites_V2.0.0/GD32F30x_Demo_Suites_V2.0.0/GD32F30x_Firmware_Library/GD32F30x_standard_peripheral/Source\gd32f30x_fmc.c ****     /* wait for FMC ready */
 973:C:/Users/49542/Desktop/GD32F30x_Demo_Suites_V2.0.0/GD32F30x_Demo_Suites_V2.0.0/GD32F30x_Firmware_Library/GD32F30x_standard_peripheral/Source\gd32f30x_fmc.c ****     do{
 974:C:/Users/49542/Desktop/GD32F30x_Demo_Suites_V2.0.0/GD32F30x_Demo_Suites_V2.0.0/GD32F30x_Firmware_Library/GD32F30x_standard_peripheral/Source\gd32f30x_fmc.c ****         /* get FMC state */
 975:C:/Users/49542/Desktop/GD32F30x_Demo_Suites_V2.0.0/GD32F30x_Demo_Suites_V2.0.0/GD32F30x_Firmware_Library/GD32F30x_standard_peripheral/Source\gd32f30x_fmc.c ****         fmc_state = fmc_bank0_state_get();
 865              		.loc 1 975 0 discriminator 2
 866 0004 FFF7FEFF 		bl	fmc_bank0_state_get
 867              	.LVL34:
 976:C:/Users/49542/Desktop/GD32F30x_Demo_Suites_V2.0.0/GD32F30x_Demo_Suites_V2.0.0/GD32F30x_Firmware_Library/GD32F30x_standard_peripheral/Source\gd32f30x_fmc.c ****         timeout--;
 868              		.loc 1 976 0 discriminator 2
 869 0008 013C     		subs	r4, r4, #1
 870              	.LVL35:
 977:C:/Users/49542/Desktop/GD32F30x_Demo_Suites_V2.0.0/GD32F30x_Demo_Suites_V2.0.0/GD32F30x_Firmware_Library/GD32F30x_standard_peripheral/Source\gd32f30x_fmc.c ****     }while((FMC_BUSY == fmc_state) && (0x00U != timeout));
 871              		.loc 1 977 0 discriminator 2
 872 000a 0128     		cmp	r0, #1
 873 000c 01D1     		bne	.L81
 874              		.loc 1 977 0 is_stmt 0 discriminator 1
 875 000e 002C     		cmp	r4, #0
 876 0010 F8D1     		bne	.L82
 877              	.L81:
 978:C:/Users/49542/Desktop/GD32F30x_Demo_Suites_V2.0.0/GD32F30x_Demo_Suites_V2.0.0/GD32F30x_Firmware_Library/GD32F30x_standard_peripheral/Source\gd32f30x_fmc.c ****     
 979:C:/Users/49542/Desktop/GD32F30x_Demo_Suites_V2.0.0/GD32F30x_Demo_Suites_V2.0.0/GD32F30x_Firmware_Library/GD32F30x_standard_peripheral/Source\gd32f30x_fmc.c ****     if(FMC_BUSY == fmc_state){
ARM GAS  C:\Users\49542\AppData\Local\Temp\cceCZdNg.s 			page 33


 878              		.loc 1 979 0 is_stmt 1
 879 0012 0128     		cmp	r0, #1
 880 0014 00D0     		beq	.L86
 881              	.LVL36:
 882              	.L83:
 980:C:/Users/49542/Desktop/GD32F30x_Demo_Suites_V2.0.0/GD32F30x_Demo_Suites_V2.0.0/GD32F30x_Firmware_Library/GD32F30x_standard_peripheral/Source\gd32f30x_fmc.c ****         fmc_state = FMC_TOERR;
 981:C:/Users/49542/Desktop/GD32F30x_Demo_Suites_V2.0.0/GD32F30x_Demo_Suites_V2.0.0/GD32F30x_Firmware_Library/GD32F30x_standard_peripheral/Source\gd32f30x_fmc.c ****     }
 982:C:/Users/49542/Desktop/GD32F30x_Demo_Suites_V2.0.0/GD32F30x_Demo_Suites_V2.0.0/GD32F30x_Firmware_Library/GD32F30x_standard_peripheral/Source\gd32f30x_fmc.c ****     /* return the FMC state */
 983:C:/Users/49542/Desktop/GD32F30x_Demo_Suites_V2.0.0/GD32F30x_Demo_Suites_V2.0.0/GD32F30x_Firmware_Library/GD32F30x_standard_peripheral/Source\gd32f30x_fmc.c ****     return fmc_state;
 984:C:/Users/49542/Desktop/GD32F30x_Demo_Suites_V2.0.0/GD32F30x_Demo_Suites_V2.0.0/GD32F30x_Firmware_Library/GD32F30x_standard_peripheral/Source\gd32f30x_fmc.c **** }
 883              		.loc 1 984 0
 884 0016 10BD     		pop	{r4, pc}
 885              	.LVL37:
 886              	.L86:
 980:C:/Users/49542/Desktop/GD32F30x_Demo_Suites_V2.0.0/GD32F30x_Demo_Suites_V2.0.0/GD32F30x_Firmware_Library/GD32F30x_standard_peripheral/Source\gd32f30x_fmc.c ****         fmc_state = FMC_TOERR;
 887              		.loc 1 980 0
 888 0018 0420     		movs	r0, #4
 889              	.LVL38:
 890 001a FCE7     		b	.L83
 891              		.cfi_endproc
 892              	.LFE149:
 894              		.section	.text.fmc_bank0_erase,"ax",%progbits
 895              		.align	1
 896              		.global	fmc_bank0_erase
 897              		.syntax unified
 898              		.thumb
 899              		.thumb_func
 900              		.fpu fpv4-sp-d16
 902              	fmc_bank0_erase:
 903              	.LFB125:
 274:C:/Users/49542/Desktop/GD32F30x_Demo_Suites_V2.0.0/GD32F30x_Demo_Suites_V2.0.0/GD32F30x_Firmware_Library/GD32F30x_standard_peripheral/Source\gd32f30x_fmc.c ****     fmc_state_enum fmc_state = FMC_READY;
 904              		.loc 1 274 0
 905              		.cfi_startproc
 906              		@ args = 0, pretend = 0, frame = 0
 907              		@ frame_needed = 0, uses_anonymous_args = 0
 908 0000 10B5     		push	{r4, lr}
 909              	.LCFI1:
 910              		.cfi_def_cfa_offset 8
 911              		.cfi_offset 4, -8
 912              		.cfi_offset 14, -4
 913              	.LVL39:
 277:C:/Users/49542/Desktop/GD32F30x_Demo_Suites_V2.0.0/GD32F30x_Demo_Suites_V2.0.0/GD32F30x_Firmware_Library/GD32F30x_standard_peripheral/Source\gd32f30x_fmc.c **** 
 914              		.loc 1 277 0
 915 0002 4FF47020 		mov	r0, #983040
 916 0006 FFF7FEFF 		bl	fmc_bank0_ready_wait
 917              	.LVL40:
 279:C:/Users/49542/Desktop/GD32F30x_Demo_Suites_V2.0.0/GD32F30x_Demo_Suites_V2.0.0/GD32F30x_Firmware_Library/GD32F30x_standard_peripheral/Source\gd32f30x_fmc.c ****         /* start FMC bank0 erase */
 918              		.loc 1 279 0
 919 000a 0346     		mov	r3, r0
 920 000c 08B1     		cbz	r0, .L90
 921              	.LVL41:
 922              	.L88:
 290:C:/Users/49542/Desktop/GD32F30x_Demo_Suites_V2.0.0/GD32F30x_Demo_Suites_V2.0.0/GD32F30x_Firmware_Library/GD32F30x_standard_peripheral/Source\gd32f30x_fmc.c **** 
 923              		.loc 1 290 0
 924 000e 1846     		mov	r0, r3
 925 0010 10BD     		pop	{r4, pc}
 926              	.LVL42:
ARM GAS  C:\Users\49542\AppData\Local\Temp\cceCZdNg.s 			page 34


 927              	.L90:
 281:C:/Users/49542/Desktop/GD32F30x_Demo_Suites_V2.0.0/GD32F30x_Demo_Suites_V2.0.0/GD32F30x_Firmware_Library/GD32F30x_standard_peripheral/Source\gd32f30x_fmc.c ****         FMC_CTL0 |= FMC_CTL0_START;
 928              		.loc 1 281 0
 929 0012 094C     		ldr	r4, .L91
 930 0014 2368     		ldr	r3, [r4]
 931 0016 43F00403 		orr	r3, r3, #4
 932 001a 2360     		str	r3, [r4]
 282:C:/Users/49542/Desktop/GD32F30x_Demo_Suites_V2.0.0/GD32F30x_Demo_Suites_V2.0.0/GD32F30x_Firmware_Library/GD32F30x_standard_peripheral/Source\gd32f30x_fmc.c ****         /* wait for the FMC ready */
 933              		.loc 1 282 0
 934 001c 2368     		ldr	r3, [r4]
 935 001e 43F04003 		orr	r3, r3, #64
 936 0022 2360     		str	r3, [r4]
 284:C:/Users/49542/Desktop/GD32F30x_Demo_Suites_V2.0.0/GD32F30x_Demo_Suites_V2.0.0/GD32F30x_Firmware_Library/GD32F30x_standard_peripheral/Source\gd32f30x_fmc.c ****         /* reset the MER bit */
 937              		.loc 1 284 0
 938 0024 4FF47020 		mov	r0, #983040
 939              	.LVL43:
 940 0028 FFF7FEFF 		bl	fmc_bank0_ready_wait
 941              	.LVL44:
 942 002c 0346     		mov	r3, r0
 943              	.LVL45:
 286:C:/Users/49542/Desktop/GD32F30x_Demo_Suites_V2.0.0/GD32F30x_Demo_Suites_V2.0.0/GD32F30x_Firmware_Library/GD32F30x_standard_peripheral/Source\gd32f30x_fmc.c ****     }
 944              		.loc 1 286 0
 945 002e 2268     		ldr	r2, [r4]
 946 0030 22F00402 		bic	r2, r2, #4
 947 0034 2260     		str	r2, [r4]
 948 0036 EAE7     		b	.L88
 949              	.L92:
 950              		.align	2
 951              	.L91:
 952 0038 10200240 		.word	1073881104
 953              		.cfi_endproc
 954              	.LFE125:
 956              		.section	.text.ob_erase,"ax",%progbits
 957              		.align	1
 958              		.global	ob_erase
 959              		.syntax unified
 960              		.thumb
 961              		.thumb_func
 962              		.fpu fpv4-sp-d16
 964              	ob_erase:
 965              	.LFB132:
 511:C:/Users/49542/Desktop/GD32F30x_Demo_Suites_V2.0.0/GD32F30x_Demo_Suites_V2.0.0/GD32F30x_Firmware_Library/GD32F30x_standard_peripheral/Source\gd32f30x_fmc.c ****     uint16_t temp_spc = FMC_NSPC;
 966              		.loc 1 511 0
 967              		.cfi_startproc
 968              		@ args = 0, pretend = 0, frame = 0
 969              		@ frame_needed = 0, uses_anonymous_args = 0
 970 0000 38B5     		push	{r3, r4, r5, lr}
 971              	.LCFI2:
 972              		.cfi_def_cfa_offset 16
 973              		.cfi_offset 3, -16
 974              		.cfi_offset 4, -12
 975              		.cfi_offset 5, -8
 976              		.cfi_offset 14, -4
 977              	.LVL46:
 514:C:/Users/49542/Desktop/GD32F30x_Demo_Suites_V2.0.0/GD32F30x_Demo_Suites_V2.0.0/GD32F30x_Firmware_Library/GD32F30x_standard_peripheral/Source\gd32f30x_fmc.c **** 
 978              		.loc 1 514 0
 979 0002 4FF47020 		mov	r0, #983040
ARM GAS  C:\Users\49542\AppData\Local\Temp\cceCZdNg.s 			page 35


 980 0006 FFF7FEFF 		bl	fmc_bank0_ready_wait
 981              	.LVL47:
 982 000a 0446     		mov	r4, r0
 983              	.LVL48:
 517:C:/Users/49542/Desktop/GD32F30x_Demo_Suites_V2.0.0/GD32F30x_Demo_Suites_V2.0.0/GD32F30x_Firmware_Library/GD32F30x_standard_peripheral/Source\gd32f30x_fmc.c ****         temp_spc = FMC_USPC;  
 984              		.loc 1 517 0
 985 000c FFF7FEFF 		bl	ob_spc_get
 986              	.LVL49:
 987 0010 18B9     		cbnz	r0, .L97
 512:C:/Users/49542/Desktop/GD32F30x_Demo_Suites_V2.0.0/GD32F30x_Demo_Suites_V2.0.0/GD32F30x_Firmware_Library/GD32F30x_standard_peripheral/Source\gd32f30x_fmc.c **** 
 988              		.loc 1 512 0
 989 0012 A525     		movs	r5, #165
 990              	.L94:
 991              	.LVL50:
 521:C:/Users/49542/Desktop/GD32F30x_Demo_Suites_V2.0.0/GD32F30x_Demo_Suites_V2.0.0/GD32F30x_Firmware_Library/GD32F30x_standard_peripheral/Source\gd32f30x_fmc.c **** 
 992              		.loc 1 521 0
 993 0014 1CB1     		cbz	r4, .L99
 994              	.LVL51:
 995              	.L95:
 552:C:/Users/49542/Desktop/GD32F30x_Demo_Suites_V2.0.0/GD32F30x_Demo_Suites_V2.0.0/GD32F30x_Firmware_Library/GD32F30x_standard_peripheral/Source\gd32f30x_fmc.c **** 
 996              		.loc 1 552 0
 997 0016 2046     		mov	r0, r4
 998 0018 38BD     		pop	{r3, r4, r5, pc}
 999              	.LVL52:
 1000              	.L97:
 518:C:/Users/49542/Desktop/GD32F30x_Demo_Suites_V2.0.0/GD32F30x_Demo_Suites_V2.0.0/GD32F30x_Firmware_Library/GD32F30x_standard_peripheral/Source\gd32f30x_fmc.c ****     }
 1001              		.loc 1 518 0
 1002 001a BB25     		movs	r5, #187
 1003 001c FAE7     		b	.L94
 1004              	.LVL53:
 1005              	.L99:
 524:C:/Users/49542/Desktop/GD32F30x_Demo_Suites_V2.0.0/GD32F30x_Demo_Suites_V2.0.0/GD32F30x_Firmware_Library/GD32F30x_standard_peripheral/Source\gd32f30x_fmc.c ****         FMC_CTL0 |= FMC_CTL0_START;
 1006              		.loc 1 524 0
 1007 001e 174B     		ldr	r3, .L101
 1008 0020 1A68     		ldr	r2, [r3]
 1009 0022 42F02002 		orr	r2, r2, #32
 1010 0026 1A60     		str	r2, [r3]
 525:C:/Users/49542/Desktop/GD32F30x_Demo_Suites_V2.0.0/GD32F30x_Demo_Suites_V2.0.0/GD32F30x_Firmware_Library/GD32F30x_standard_peripheral/Source\gd32f30x_fmc.c **** 
 1011              		.loc 1 525 0
 1012 0028 1A68     		ldr	r2, [r3]
 1013 002a 42F04002 		orr	r2, r2, #64
 1014 002e 1A60     		str	r2, [r3]
 528:C:/Users/49542/Desktop/GD32F30x_Demo_Suites_V2.0.0/GD32F30x_Demo_Suites_V2.0.0/GD32F30x_Firmware_Library/GD32F30x_standard_peripheral/Source\gd32f30x_fmc.c ****     
 1015              		.loc 1 528 0
 1016 0030 4FF47020 		mov	r0, #983040
 1017 0034 FFF7FEFF 		bl	fmc_bank0_ready_wait
 1018              	.LVL54:
 530:C:/Users/49542/Desktop/GD32F30x_Demo_Suites_V2.0.0/GD32F30x_Demo_Suites_V2.0.0/GD32F30x_Firmware_Library/GD32F30x_standard_peripheral/Source\gd32f30x_fmc.c ****             /* reset the OBER bit */
 1019              		.loc 1 530 0
 1020 0038 0446     		mov	r4, r0
 1021 003a 38B1     		cbz	r0, .L100
 544:C:/Users/49542/Desktop/GD32F30x_Demo_Suites_V2.0.0/GD32F30x_Demo_Suites_V2.0.0/GD32F30x_Firmware_Library/GD32F30x_standard_peripheral/Source\gd32f30x_fmc.c ****                 /* reset the OBPG bit */
 1022              		.loc 1 544 0
 1023 003c 0428     		cmp	r0, #4
 1024 003e EAD0     		beq	.L95
 546:C:/Users/49542/Desktop/GD32F30x_Demo_Suites_V2.0.0/GD32F30x_Demo_Suites_V2.0.0/GD32F30x_Firmware_Library/GD32F30x_standard_peripheral/Source\gd32f30x_fmc.c ****             }
 1025              		.loc 1 546 0
ARM GAS  C:\Users\49542\AppData\Local\Temp\cceCZdNg.s 			page 36


 1026 0040 0E4A     		ldr	r2, .L101
 1027 0042 1368     		ldr	r3, [r2]
 1028 0044 23F01003 		bic	r3, r3, #16
 1029 0048 1360     		str	r3, [r2]
 1030 004a E4E7     		b	.L95
 1031              	.L100:
 532:C:/Users/49542/Desktop/GD32F30x_Demo_Suites_V2.0.0/GD32F30x_Demo_Suites_V2.0.0/GD32F30x_Firmware_Library/GD32F30x_standard_peripheral/Source\gd32f30x_fmc.c ****             /* set the OBPG bit */
 1032              		.loc 1 532 0
 1033 004c 0B4B     		ldr	r3, .L101
 1034 004e 1A68     		ldr	r2, [r3]
 1035 0050 22F02002 		bic	r2, r2, #32
 1036 0054 1A60     		str	r2, [r3]
 534:C:/Users/49542/Desktop/GD32F30x_Demo_Suites_V2.0.0/GD32F30x_Demo_Suites_V2.0.0/GD32F30x_Firmware_Library/GD32F30x_standard_peripheral/Source\gd32f30x_fmc.c ****             /* no security protection */
 1037              		.loc 1 534 0
 1038 0056 1A68     		ldr	r2, [r3]
 1039 0058 42F01002 		orr	r2, r2, #16
 1040 005c 1A60     		str	r2, [r3]
 536:C:/Users/49542/Desktop/GD32F30x_Demo_Suites_V2.0.0/GD32F30x_Demo_Suites_V2.0.0/GD32F30x_Firmware_Library/GD32F30x_standard_peripheral/Source\gd32f30x_fmc.c ****             /* wait for the FMC ready */
 1041              		.loc 1 536 0
 1042 005e 084B     		ldr	r3, .L101+4
 1043 0060 1D80     		strh	r5, [r3]	@ movhi
 538:C:/Users/49542/Desktop/GD32F30x_Demo_Suites_V2.0.0/GD32F30x_Demo_Suites_V2.0.0/GD32F30x_Firmware_Library/GD32F30x_standard_peripheral/Source\gd32f30x_fmc.c ****             if(FMC_TOERR != fmc_state){
 1044              		.loc 1 538 0
 1045 0062 4FF47020 		mov	r0, #983040
 1046              	.LVL55:
 1047 0066 FFF7FEFF 		bl	fmc_bank0_ready_wait
 1048              	.LVL56:
 1049 006a 0446     		mov	r4, r0
 1050              	.LVL57:
 539:C:/Users/49542/Desktop/GD32F30x_Demo_Suites_V2.0.0/GD32F30x_Demo_Suites_V2.0.0/GD32F30x_Firmware_Library/GD32F30x_standard_peripheral/Source\gd32f30x_fmc.c ****                 /* reset the OBPG bit */
 1051              		.loc 1 539 0
 1052 006c 0428     		cmp	r0, #4
 1053 006e D2D0     		beq	.L95
 541:C:/Users/49542/Desktop/GD32F30x_Demo_Suites_V2.0.0/GD32F30x_Demo_Suites_V2.0.0/GD32F30x_Firmware_Library/GD32F30x_standard_peripheral/Source\gd32f30x_fmc.c ****             }
 1054              		.loc 1 541 0
 1055 0070 024A     		ldr	r2, .L101
 1056 0072 1368     		ldr	r3, [r2]
 1057 0074 23F01003 		bic	r3, r3, #16
 1058 0078 1360     		str	r3, [r2]
 1059 007a CCE7     		b	.L95
 1060              	.L102:
 1061              		.align	2
 1062              	.L101:
 1063 007c 10200240 		.word	1073881104
 1064 0080 00F8FF1F 		.word	536868864
 1065              		.cfi_endproc
 1066              	.LFE132:
 1068              		.section	.text.ob_write_protection_enable,"ax",%progbits
 1069              		.align	1
 1070              		.global	ob_write_protection_enable
 1071              		.syntax unified
 1072              		.thumb
 1073              		.thumb_func
 1074              		.fpu fpv4-sp-d16
 1076              	ob_write_protection_enable:
 1077              	.LFB133:
 563:C:/Users/49542/Desktop/GD32F30x_Demo_Suites_V2.0.0/GD32F30x_Demo_Suites_V2.0.0/GD32F30x_Firmware_Library/GD32F30x_standard_peripheral/Source\gd32f30x_fmc.c ****     uint16_t temp_wp0, temp_wp1, temp_wp2, temp_wp3;
ARM GAS  C:\Users\49542\AppData\Local\Temp\cceCZdNg.s 			page 37


 1078              		.loc 1 563 0
 1079              		.cfi_startproc
 1080              		@ args = 0, pretend = 0, frame = 0
 1081              		@ frame_needed = 0, uses_anonymous_args = 0
 1082              	.LVL58:
 1083 0000 70B5     		push	{r4, r5, r6, lr}
 1084              	.LCFI3:
 1085              		.cfi_def_cfa_offset 16
 1086              		.cfi_offset 4, -16
 1087              		.cfi_offset 5, -12
 1088              		.cfi_offset 6, -8
 1089              		.cfi_offset 14, -4
 1090 0002 0446     		mov	r4, r0
 566:C:/Users/49542/Desktop/GD32F30x_Demo_Suites_V2.0.0/GD32F30x_Demo_Suites_V2.0.0/GD32F30x_Firmware_Library/GD32F30x_standard_peripheral/Source\gd32f30x_fmc.c **** 
 1091              		.loc 1 566 0
 1092 0004 4FF47020 		mov	r0, #983040
 1093              	.LVL59:
 1094 0008 FFF7FEFF 		bl	fmc_bank0_ready_wait
 1095              	.LVL60:
 568:C:/Users/49542/Desktop/GD32F30x_Demo_Suites_V2.0.0/GD32F30x_Demo_Suites_V2.0.0/GD32F30x_Firmware_Library/GD32F30x_standard_peripheral/Source\gd32f30x_fmc.c ****     temp_wp0 = (uint16_t)(ob_wp & OB_WP0_WP0);
 1096              		.loc 1 568 0
 1097 000c E343     		mvns	r3, r4
 1098              	.LVL61:
 569:C:/Users/49542/Desktop/GD32F30x_Demo_Suites_V2.0.0/GD32F30x_Demo_Suites_V2.0.0/GD32F30x_Firmware_Library/GD32F30x_standard_peripheral/Source\gd32f30x_fmc.c ****     temp_wp1 = (uint16_t)((ob_wp & OB_WP1_WP1) >> 8U);
 1099              		.loc 1 569 0
 1100 000e D9B2     		uxtb	r1, r3
 1101              	.LVL62:
 570:C:/Users/49542/Desktop/GD32F30x_Demo_Suites_V2.0.0/GD32F30x_Demo_Suites_V2.0.0/GD32F30x_Firmware_Library/GD32F30x_standard_peripheral/Source\gd32f30x_fmc.c ****     temp_wp2 = (uint16_t)((ob_wp & OB_WP2_WP2) >> 16U);
 1102              		.loc 1 570 0
 1103 0010 C3F30726 		ubfx	r6, r3, #8, #8
 1104              	.LVL63:
 571:C:/Users/49542/Desktop/GD32F30x_Demo_Suites_V2.0.0/GD32F30x_Demo_Suites_V2.0.0/GD32F30x_Firmware_Library/GD32F30x_standard_peripheral/Source\gd32f30x_fmc.c ****     temp_wp3 = (uint16_t)((ob_wp & OB_WP3_WP3) >> 24U);
 1105              		.loc 1 571 0
 1106 0014 C3F30745 		ubfx	r5, r3, #16, #8
 1107              	.LVL64:
 572:C:/Users/49542/Desktop/GD32F30x_Demo_Suites_V2.0.0/GD32F30x_Demo_Suites_V2.0.0/GD32F30x_Firmware_Library/GD32F30x_standard_peripheral/Source\gd32f30x_fmc.c **** 
 1108              		.loc 1 572 0
 1109 0018 1C0E     		lsrs	r4, r3, #24
 1110              	.LVL65:
 574:C:/Users/49542/Desktop/GD32F30x_Demo_Suites_V2.0.0/GD32F30x_Demo_Suites_V2.0.0/GD32F30x_Firmware_Library/GD32F30x_standard_peripheral/Source\gd32f30x_fmc.c ****     
 1111              		.loc 1 574 0
 1112 001a 0346     		mov	r3, r0
 1113              	.LVL66:
 1114 001c B0B9     		cbnz	r0, .L104
 577:C:/Users/49542/Desktop/GD32F30x_Demo_Suites_V2.0.0/GD32F30x_Demo_Suites_V2.0.0/GD32F30x_Firmware_Library/GD32F30x_standard_peripheral/Source\gd32f30x_fmc.c **** 
 1115              		.loc 1 577 0
 1116 001e 1C48     		ldr	r0, .L114
 1117              	.LVL67:
 1118 0020 0268     		ldr	r2, [r0]
 1119 0022 42F01002 		orr	r2, r2, #16
 1120 0026 0260     		str	r2, [r0]
 579:C:/Users/49542/Desktop/GD32F30x_Demo_Suites_V2.0.0/GD32F30x_Demo_Suites_V2.0.0/GD32F30x_Firmware_Library/GD32F30x_standard_peripheral/Source\gd32f30x_fmc.c ****             OB_WP0 = temp_wp0;
 1121              		.loc 1 579 0
 1122 0028 FF29     		cmp	r1, #255
 1123 002a 11D1     		bne	.L110
 1124              	.LVL68:
 1125              	.L105:
ARM GAS  C:\Users\49542\AppData\Local\Temp\cceCZdNg.s 			page 38


 585:C:/Users/49542/Desktop/GD32F30x_Demo_Suites_V2.0.0/GD32F30x_Demo_Suites_V2.0.0/GD32F30x_Firmware_Library/GD32F30x_standard_peripheral/Source\gd32f30x_fmc.c ****             OB_WP1 = temp_wp1;
 1126              		.loc 1 585 0
 1127 002c 0BB9     		cbnz	r3, .L106
 585:C:/Users/49542/Desktop/GD32F30x_Demo_Suites_V2.0.0/GD32F30x_Demo_Suites_V2.0.0/GD32F30x_Firmware_Library/GD32F30x_standard_peripheral/Source\gd32f30x_fmc.c ****             OB_WP1 = temp_wp1;
 1128              		.loc 1 585 0 is_stmt 0 discriminator 1
 1129 002e FF2E     		cmp	r6, #255
 1130 0030 16D1     		bne	.L111
 1131              	.L106:
 591:C:/Users/49542/Desktop/GD32F30x_Demo_Suites_V2.0.0/GD32F30x_Demo_Suites_V2.0.0/GD32F30x_Firmware_Library/GD32F30x_standard_peripheral/Source\gd32f30x_fmc.c ****             OB_WP2 = temp_wp2;
 1132              		.loc 1 591 0 is_stmt 1
 1133 0032 0BB9     		cbnz	r3, .L107
 591:C:/Users/49542/Desktop/GD32F30x_Demo_Suites_V2.0.0/GD32F30x_Demo_Suites_V2.0.0/GD32F30x_Firmware_Library/GD32F30x_standard_peripheral/Source\gd32f30x_fmc.c ****             OB_WP2 = temp_wp2;
 1134              		.loc 1 591 0 is_stmt 0 discriminator 1
 1135 0034 FF2D     		cmp	r5, #255
 1136 0036 1BD1     		bne	.L112
 1137              	.L107:
 597:C:/Users/49542/Desktop/GD32F30x_Demo_Suites_V2.0.0/GD32F30x_Demo_Suites_V2.0.0/GD32F30x_Firmware_Library/GD32F30x_standard_peripheral/Source\gd32f30x_fmc.c ****             OB_WP3 = temp_wp3;
 1138              		.loc 1 597 0 is_stmt 1
 1139 0038 0BB9     		cbnz	r3, .L108
 597:C:/Users/49542/Desktop/GD32F30x_Demo_Suites_V2.0.0/GD32F30x_Demo_Suites_V2.0.0/GD32F30x_Firmware_Library/GD32F30x_standard_peripheral/Source\gd32f30x_fmc.c ****             OB_WP3 = temp_wp3;
 1140              		.loc 1 597 0 is_stmt 0 discriminator 1
 1141 003a FF2C     		cmp	r4, #255
 1142 003c 20D1     		bne	.L113
 1143              	.L108:
 603:C:/Users/49542/Desktop/GD32F30x_Demo_Suites_V2.0.0/GD32F30x_Demo_Suites_V2.0.0/GD32F30x_Firmware_Library/GD32F30x_standard_peripheral/Source\gd32f30x_fmc.c ****             /* reset the OBPG bit */
 1144              		.loc 1 603 0 is_stmt 1
 1145 003e 042B     		cmp	r3, #4
 1146 0040 04D0     		beq	.L104
 605:C:/Users/49542/Desktop/GD32F30x_Demo_Suites_V2.0.0/GD32F30x_Demo_Suites_V2.0.0/GD32F30x_Firmware_Library/GD32F30x_standard_peripheral/Source\gd32f30x_fmc.c ****         }
 1147              		.loc 1 605 0
 1148 0042 1349     		ldr	r1, .L114
 1149 0044 0A68     		ldr	r2, [r1]
 1150 0046 22F01002 		bic	r2, r2, #16
 1151 004a 0A60     		str	r2, [r1]
 1152              	.LVL69:
 1153              	.L104:
 610:C:/Users/49542/Desktop/GD32F30x_Demo_Suites_V2.0.0/GD32F30x_Demo_Suites_V2.0.0/GD32F30x_Firmware_Library/GD32F30x_standard_peripheral/Source\gd32f30x_fmc.c **** 
 1154              		.loc 1 610 0
 1155 004c 1846     		mov	r0, r3
 1156 004e 70BD     		pop	{r4, r5, r6, pc}
 1157              	.LVL70:
 1158              	.L110:
 580:C:/Users/49542/Desktop/GD32F30x_Demo_Suites_V2.0.0/GD32F30x_Demo_Suites_V2.0.0/GD32F30x_Firmware_Library/GD32F30x_standard_peripheral/Source\gd32f30x_fmc.c ****       
 1159              		.loc 1 580 0
 1160 0050 104B     		ldr	r3, .L114+4
 1161 0052 1980     		strh	r1, [r3]	@ movhi
 583:C:/Users/49542/Desktop/GD32F30x_Demo_Suites_V2.0.0/GD32F30x_Demo_Suites_V2.0.0/GD32F30x_Firmware_Library/GD32F30x_standard_peripheral/Source\gd32f30x_fmc.c ****         }
 1162              		.loc 1 583 0
 1163 0054 4FF47020 		mov	r0, #983040
 1164 0058 FFF7FEFF 		bl	fmc_bank0_ready_wait
 1165              	.LVL71:
 1166 005c 0346     		mov	r3, r0
 1167              	.LVL72:
 1168 005e E5E7     		b	.L105
 1169              	.L111:
 586:C:/Users/49542/Desktop/GD32F30x_Demo_Suites_V2.0.0/GD32F30x_Demo_Suites_V2.0.0/GD32F30x_Firmware_Library/GD32F30x_standard_peripheral/Source\gd32f30x_fmc.c ****       
 1170              		.loc 1 586 0
ARM GAS  C:\Users\49542\AppData\Local\Temp\cceCZdNg.s 			page 39


 1171 0060 0D4B     		ldr	r3, .L114+8
 1172              	.LVL73:
 1173 0062 1E80     		strh	r6, [r3]	@ movhi
 589:C:/Users/49542/Desktop/GD32F30x_Demo_Suites_V2.0.0/GD32F30x_Demo_Suites_V2.0.0/GD32F30x_Firmware_Library/GD32F30x_standard_peripheral/Source\gd32f30x_fmc.c ****         }
 1174              		.loc 1 589 0
 1175 0064 4FF47020 		mov	r0, #983040
 1176 0068 FFF7FEFF 		bl	fmc_bank0_ready_wait
 1177              	.LVL74:
 1178 006c 0346     		mov	r3, r0
 1179              	.LVL75:
 1180 006e E0E7     		b	.L106
 1181              	.L112:
 592:C:/Users/49542/Desktop/GD32F30x_Demo_Suites_V2.0.0/GD32F30x_Demo_Suites_V2.0.0/GD32F30x_Firmware_Library/GD32F30x_standard_peripheral/Source\gd32f30x_fmc.c ****       
 1182              		.loc 1 592 0
 1183 0070 0A4B     		ldr	r3, .L114+12
 1184              	.LVL76:
 1185 0072 1D80     		strh	r5, [r3]	@ movhi
 595:C:/Users/49542/Desktop/GD32F30x_Demo_Suites_V2.0.0/GD32F30x_Demo_Suites_V2.0.0/GD32F30x_Firmware_Library/GD32F30x_standard_peripheral/Source\gd32f30x_fmc.c ****         }
 1186              		.loc 1 595 0
 1187 0074 4FF47020 		mov	r0, #983040
 1188 0078 FFF7FEFF 		bl	fmc_bank0_ready_wait
 1189              	.LVL77:
 1190 007c 0346     		mov	r3, r0
 1191              	.LVL78:
 1192 007e DBE7     		b	.L107
 1193              	.L113:
 598:C:/Users/49542/Desktop/GD32F30x_Demo_Suites_V2.0.0/GD32F30x_Demo_Suites_V2.0.0/GD32F30x_Firmware_Library/GD32F30x_standard_peripheral/Source\gd32f30x_fmc.c ****       
 1194              		.loc 1 598 0
 1195 0080 074B     		ldr	r3, .L114+16
 1196              	.LVL79:
 1197 0082 1C80     		strh	r4, [r3]	@ movhi
 601:C:/Users/49542/Desktop/GD32F30x_Demo_Suites_V2.0.0/GD32F30x_Demo_Suites_V2.0.0/GD32F30x_Firmware_Library/GD32F30x_standard_peripheral/Source\gd32f30x_fmc.c ****         }
 1198              		.loc 1 601 0
 1199 0084 4FF47020 		mov	r0, #983040
 1200 0088 FFF7FEFF 		bl	fmc_bank0_ready_wait
 1201              	.LVL80:
 1202 008c 0346     		mov	r3, r0
 1203              	.LVL81:
 1204 008e D6E7     		b	.L108
 1205              	.L115:
 1206              		.align	2
 1207              	.L114:
 1208 0090 10200240 		.word	1073881104
 1209 0094 08F8FF1F 		.word	536868872
 1210 0098 0AF8FF1F 		.word	536868874
 1211 009c 0CF8FF1F 		.word	536868876
 1212 00a0 0EF8FF1F 		.word	536868878
 1213              		.cfi_endproc
 1214              	.LFE133:
 1216              		.section	.text.ob_security_protection_config,"ax",%progbits
 1217              		.align	1
 1218              		.global	ob_security_protection_config
 1219              		.syntax unified
 1220              		.thumb
 1221              		.thumb_func
 1222              		.fpu fpv4-sp-d16
 1224              	ob_security_protection_config:
ARM GAS  C:\Users\49542\AppData\Local\Temp\cceCZdNg.s 			page 40


 1225              	.LFB134:
 621:C:/Users/49542/Desktop/GD32F30x_Demo_Suites_V2.0.0/GD32F30x_Demo_Suites_V2.0.0/GD32F30x_Firmware_Library/GD32F30x_standard_peripheral/Source\gd32f30x_fmc.c ****     fmc_state_enum fmc_state = fmc_bank0_ready_wait(FMC_TIMEOUT_COUNT);
 1226              		.loc 1 621 0
 1227              		.cfi_startproc
 1228              		@ args = 0, pretend = 0, frame = 0
 1229              		@ frame_needed = 0, uses_anonymous_args = 0
 1230              	.LVL82:
 1231 0000 10B5     		push	{r4, lr}
 1232              	.LCFI4:
 1233              		.cfi_def_cfa_offset 8
 1234              		.cfi_offset 4, -8
 1235              		.cfi_offset 14, -4
 1236 0002 0446     		mov	r4, r0
 622:C:/Users/49542/Desktop/GD32F30x_Demo_Suites_V2.0.0/GD32F30x_Demo_Suites_V2.0.0/GD32F30x_Firmware_Library/GD32F30x_standard_peripheral/Source\gd32f30x_fmc.c **** 
 1237              		.loc 1 622 0
 1238 0004 4FF47020 		mov	r0, #983040
 1239              	.LVL83:
 1240 0008 FFF7FEFF 		bl	fmc_bank0_ready_wait
 1241              	.LVL84:
 624:C:/Users/49542/Desktop/GD32F30x_Demo_Suites_V2.0.0/GD32F30x_Demo_Suites_V2.0.0/GD32F30x_Firmware_Library/GD32F30x_standard_peripheral/Source\gd32f30x_fmc.c ****         FMC_CTL0 |= FMC_CTL0_OBER;
 1242              		.loc 1 624 0
 1243 000c 0346     		mov	r3, r0
 1244 000e 08B1     		cbz	r0, .L120
 1245              	.L117:
 1246              	.LVL85:
 656:C:/Users/49542/Desktop/GD32F30x_Demo_Suites_V2.0.0/GD32F30x_Demo_Suites_V2.0.0/GD32F30x_Firmware_Library/GD32F30x_standard_peripheral/Source\gd32f30x_fmc.c **** 
 1247              		.loc 1 656 0
 1248 0010 1846     		mov	r0, r3
 1249 0012 10BD     		pop	{r4, pc}
 1250              	.LVL86:
 1251              	.L120:
 625:C:/Users/49542/Desktop/GD32F30x_Demo_Suites_V2.0.0/GD32F30x_Demo_Suites_V2.0.0/GD32F30x_Firmware_Library/GD32F30x_standard_peripheral/Source\gd32f30x_fmc.c ****         FMC_CTL0 |= FMC_CTL0_START;
 1252              		.loc 1 625 0
 1253 0014 174B     		ldr	r3, .L122
 1254 0016 1A68     		ldr	r2, [r3]
 1255 0018 42F02002 		orr	r2, r2, #32
 1256 001c 1A60     		str	r2, [r3]
 626:C:/Users/49542/Desktop/GD32F30x_Demo_Suites_V2.0.0/GD32F30x_Demo_Suites_V2.0.0/GD32F30x_Firmware_Library/GD32F30x_standard_peripheral/Source\gd32f30x_fmc.c ****     
 1257              		.loc 1 626 0
 1258 001e 1A68     		ldr	r2, [r3]
 1259 0020 42F04002 		orr	r2, r2, #64
 1260 0024 1A60     		str	r2, [r3]
 629:C:/Users/49542/Desktop/GD32F30x_Demo_Suites_V2.0.0/GD32F30x_Demo_Suites_V2.0.0/GD32F30x_Firmware_Library/GD32F30x_standard_peripheral/Source\gd32f30x_fmc.c ****     
 1261              		.loc 1 629 0
 1262 0026 4FF47020 		mov	r0, #983040
 1263              	.LVL87:
 1264 002a FFF7FEFF 		bl	fmc_bank0_ready_wait
 1265              	.LVL88:
 631:C:/Users/49542/Desktop/GD32F30x_Demo_Suites_V2.0.0/GD32F30x_Demo_Suites_V2.0.0/GD32F30x_Firmware_Library/GD32F30x_standard_peripheral/Source\gd32f30x_fmc.c ****             /* reset the OBER bit */
 1266              		.loc 1 631 0
 1267 002e 0346     		mov	r3, r0
 1268 0030 38B1     		cbz	r0, .L121
 648:C:/Users/49542/Desktop/GD32F30x_Demo_Suites_V2.0.0/GD32F30x_Demo_Suites_V2.0.0/GD32F30x_Firmware_Library/GD32F30x_standard_peripheral/Source\gd32f30x_fmc.c ****                 /* reset the OBER bit */
 1269              		.loc 1 648 0
 1270 0032 0428     		cmp	r0, #4
 1271 0034 ECD0     		beq	.L117
 650:C:/Users/49542/Desktop/GD32F30x_Demo_Suites_V2.0.0/GD32F30x_Demo_Suites_V2.0.0/GD32F30x_Firmware_Library/GD32F30x_standard_peripheral/Source\gd32f30x_fmc.c ****             }
ARM GAS  C:\Users\49542\AppData\Local\Temp\cceCZdNg.s 			page 41


 1272              		.loc 1 650 0
 1273 0036 0F49     		ldr	r1, .L122
 1274 0038 0A68     		ldr	r2, [r1]
 1275 003a 22F02002 		bic	r2, r2, #32
 1276 003e 0A60     		str	r2, [r1]
 1277 0040 E6E7     		b	.L117
 1278              	.L121:
 633:C:/Users/49542/Desktop/GD32F30x_Demo_Suites_V2.0.0/GD32F30x_Demo_Suites_V2.0.0/GD32F30x_Firmware_Library/GD32F30x_standard_peripheral/Source\gd32f30x_fmc.c ****       
 1279              		.loc 1 633 0
 1280 0042 0C4B     		ldr	r3, .L122
 1281 0044 1A68     		ldr	r2, [r3]
 1282 0046 22F02002 		bic	r2, r2, #32
 1283 004a 1A60     		str	r2, [r3]
 636:C:/Users/49542/Desktop/GD32F30x_Demo_Suites_V2.0.0/GD32F30x_Demo_Suites_V2.0.0/GD32F30x_Firmware_Library/GD32F30x_standard_peripheral/Source\gd32f30x_fmc.c ****        
 1284              		.loc 1 636 0
 1285 004c 1A68     		ldr	r2, [r3]
 1286 004e 42F01002 		orr	r2, r2, #16
 1287 0052 1A60     		str	r2, [r3]
 638:C:/Users/49542/Desktop/GD32F30x_Demo_Suites_V2.0.0/GD32F30x_Demo_Suites_V2.0.0/GD32F30x_Firmware_Library/GD32F30x_standard_peripheral/Source\gd32f30x_fmc.c **** 
 1288              		.loc 1 638 0
 1289 0054 A4B2     		uxth	r4, r4
 1290 0056 084B     		ldr	r3, .L122+4
 1291 0058 1C80     		strh	r4, [r3]	@ movhi
 641:C:/Users/49542/Desktop/GD32F30x_Demo_Suites_V2.0.0/GD32F30x_Demo_Suites_V2.0.0/GD32F30x_Firmware_Library/GD32F30x_standard_peripheral/Source\gd32f30x_fmc.c ****     
 1292              		.loc 1 641 0
 1293 005a 4FF47020 		mov	r0, #983040
 1294              	.LVL89:
 1295 005e FFF7FEFF 		bl	fmc_bank0_ready_wait
 1296              	.LVL90:
 1297 0062 0346     		mov	r3, r0
 1298              	.LVL91:
 643:C:/Users/49542/Desktop/GD32F30x_Demo_Suites_V2.0.0/GD32F30x_Demo_Suites_V2.0.0/GD32F30x_Firmware_Library/GD32F30x_standard_peripheral/Source\gd32f30x_fmc.c ****                 /* reset the OBPG bit */
 1299              		.loc 1 643 0
 1300 0064 0428     		cmp	r0, #4
 1301 0066 D3D0     		beq	.L117
 645:C:/Users/49542/Desktop/GD32F30x_Demo_Suites_V2.0.0/GD32F30x_Demo_Suites_V2.0.0/GD32F30x_Firmware_Library/GD32F30x_standard_peripheral/Source\gd32f30x_fmc.c ****             }
 1302              		.loc 1 645 0
 1303 0068 0249     		ldr	r1, .L122
 1304 006a 0A68     		ldr	r2, [r1]
 1305 006c 22F01002 		bic	r2, r2, #16
 1306 0070 0A60     		str	r2, [r1]
 1307 0072 CDE7     		b	.L117
 1308              	.L123:
 1309              		.align	2
 1310              	.L122:
 1311 0074 10200240 		.word	1073881104
 1312 0078 00F8FF1F 		.word	536868864
 1313              		.cfi_endproc
 1314              	.LFE134:
 1316              		.section	.text.ob_user_write,"ax",%progbits
 1317              		.align	1
 1318              		.global	ob_user_write
 1319              		.syntax unified
 1320              		.thumb
 1321              		.thumb_func
 1322              		.fpu fpv4-sp-d16
 1324              	ob_user_write:
ARM GAS  C:\Users\49542\AppData\Local\Temp\cceCZdNg.s 			page 42


 1325              	.LFB135:
 676:C:/Users/49542/Desktop/GD32F30x_Demo_Suites_V2.0.0/GD32F30x_Demo_Suites_V2.0.0/GD32F30x_Firmware_Library/GD32F30x_standard_peripheral/Source\gd32f30x_fmc.c ****     fmc_state_enum fmc_state = FMC_READY;
 1326              		.loc 1 676 0
 1327              		.cfi_startproc
 1328              		@ args = 0, pretend = 0, frame = 0
 1329              		@ frame_needed = 0, uses_anonymous_args = 0
 1330              	.LVL92:
 1331 0000 F8B5     		push	{r3, r4, r5, r6, r7, lr}
 1332              	.LCFI5:
 1333              		.cfi_def_cfa_offset 24
 1334              		.cfi_offset 3, -24
 1335              		.cfi_offset 4, -20
 1336              		.cfi_offset 5, -16
 1337              		.cfi_offset 6, -12
 1338              		.cfi_offset 7, -8
 1339              		.cfi_offset 14, -4
 1340 0002 0746     		mov	r7, r0
 1341 0004 0E46     		mov	r6, r1
 1342 0006 1546     		mov	r5, r2
 1343 0008 1C46     		mov	r4, r3
 1344              	.LVL93:
 681:C:/Users/49542/Desktop/GD32F30x_Demo_Suites_V2.0.0/GD32F30x_Demo_Suites_V2.0.0/GD32F30x_Firmware_Library/GD32F30x_standard_peripheral/Source\gd32f30x_fmc.c ****   
 1345              		.loc 1 681 0
 1346 000a 4FF47020 		mov	r0, #983040
 1347              	.LVL94:
 1348 000e FFF7FEFF 		bl	fmc_bank0_ready_wait
 1349              	.LVL95:
 683:C:/Users/49542/Desktop/GD32F30x_Demo_Suites_V2.0.0/GD32F30x_Demo_Suites_V2.0.0/GD32F30x_Firmware_Library/GD32F30x_standard_peripheral/Source\gd32f30x_fmc.c ****         /* set the OBPG bit*/
 1350              		.loc 1 683 0
 1351 0012 0346     		mov	r3, r0
 1352 0014 08B1     		cbz	r0, .L127
 1353              	.L125:
 1354              	.LVL96:
 700:C:/Users/49542/Desktop/GD32F30x_Demo_Suites_V2.0.0/GD32F30x_Demo_Suites_V2.0.0/GD32F30x_Firmware_Library/GD32F30x_standard_peripheral/Source\gd32f30x_fmc.c **** 
 1355              		.loc 1 700 0
 1356 0016 1846     		mov	r0, r3
 1357 0018 F8BD     		pop	{r3, r4, r5, r6, r7, pc}
 1358              	.LVL97:
 1359              	.L127:
 685:C:/Users/49542/Desktop/GD32F30x_Demo_Suites_V2.0.0/GD32F30x_Demo_Suites_V2.0.0/GD32F30x_Firmware_Library/GD32F30x_standard_peripheral/Source\gd32f30x_fmc.c **** 
 1360              		.loc 1 685 0
 1361 001a 0C4A     		ldr	r2, .L128
 1362 001c 1368     		ldr	r3, [r2]
 1363 001e 43F01003 		orr	r3, r3, #16
 1364 0022 1360     		str	r3, [r2]
 687:C:/Users/49542/Desktop/GD32F30x_Demo_Suites_V2.0.0/GD32F30x_Demo_Suites_V2.0.0/GD32F30x_Firmware_Library/GD32F30x_standard_peripheral/Source\gd32f30x_fmc.c ****         OB_USER = (uint16_t)temp;
 1365              		.loc 1 687 0
 1366 0024 3C43     		orrs	r4, r4, r7
 1367 0026 3443     		orrs	r4, r4, r6
 1368 0028 2C43     		orrs	r4, r4, r5
 1369              	.LVL98:
 688:C:/Users/49542/Desktop/GD32F30x_Demo_Suites_V2.0.0/GD32F30x_Demo_Suites_V2.0.0/GD32F30x_Firmware_Library/GD32F30x_standard_peripheral/Source\gd32f30x_fmc.c ****     
 1370              		.loc 1 688 0
 1371 002a 44F0F004 		orr	r4, r4, #240
 1372              	.LVL99:
 1373 002e 084B     		ldr	r3, .L128+4
 1374 0030 1C80     		strh	r4, [r3]	@ movhi
ARM GAS  C:\Users\49542\AppData\Local\Temp\cceCZdNg.s 			page 43


 691:C:/Users/49542/Desktop/GD32F30x_Demo_Suites_V2.0.0/GD32F30x_Demo_Suites_V2.0.0/GD32F30x_Firmware_Library/GD32F30x_standard_peripheral/Source\gd32f30x_fmc.c **** 
 1375              		.loc 1 691 0
 1376 0032 4FF47020 		mov	r0, #983040
 1377              	.LVL100:
 1378 0036 FFF7FEFF 		bl	fmc_bank0_ready_wait
 1379              	.LVL101:
 1380 003a 0346     		mov	r3, r0
 1381              	.LVL102:
 693:C:/Users/49542/Desktop/GD32F30x_Demo_Suites_V2.0.0/GD32F30x_Demo_Suites_V2.0.0/GD32F30x_Firmware_Library/GD32F30x_standard_peripheral/Source\gd32f30x_fmc.c ****             /* reset the OBPG bit */
 1382              		.loc 1 693 0
 1383 003c 0428     		cmp	r0, #4
 1384 003e EAD0     		beq	.L125
 695:C:/Users/49542/Desktop/GD32F30x_Demo_Suites_V2.0.0/GD32F30x_Demo_Suites_V2.0.0/GD32F30x_Firmware_Library/GD32F30x_standard_peripheral/Source\gd32f30x_fmc.c ****         }
 1385              		.loc 1 695 0
 1386 0040 0249     		ldr	r1, .L128
 1387 0042 0A68     		ldr	r2, [r1]
 1388 0044 22F01002 		bic	r2, r2, #16
 1389 0048 0A60     		str	r2, [r1]
 1390 004a E4E7     		b	.L125
 1391              	.L129:
 1392              		.align	2
 1393              	.L128:
 1394 004c 10200240 		.word	1073881104
 1395 0050 02F8FF1F 		.word	536868866
 1396              		.cfi_endproc
 1397              	.LFE135:
 1399              		.section	.text.ob_data_program,"ax",%progbits
 1400              		.align	1
 1401              		.global	ob_data_program
 1402              		.syntax unified
 1403              		.thumb
 1404              		.thumb_func
 1405              		.fpu fpv4-sp-d16
 1407              	ob_data_program:
 1408              	.LFB136:
 710:C:/Users/49542/Desktop/GD32F30x_Demo_Suites_V2.0.0/GD32F30x_Demo_Suites_V2.0.0/GD32F30x_Firmware_Library/GD32F30x_standard_peripheral/Source\gd32f30x_fmc.c ****     fmc_state_enum fmc_state = fmc_bank0_ready_wait(FMC_TIMEOUT_COUNT);
 1409              		.loc 1 710 0
 1410              		.cfi_startproc
 1411              		@ args = 0, pretend = 0, frame = 0
 1412              		@ frame_needed = 0, uses_anonymous_args = 0
 1413              	.LVL103:
 1414 0000 38B5     		push	{r3, r4, r5, lr}
 1415              	.LCFI6:
 1416              		.cfi_def_cfa_offset 16
 1417              		.cfi_offset 3, -16
 1418              		.cfi_offset 4, -12
 1419              		.cfi_offset 5, -8
 1420              		.cfi_offset 14, -4
 1421 0002 0546     		mov	r5, r0
 1422 0004 0C46     		mov	r4, r1
 711:C:/Users/49542/Desktop/GD32F30x_Demo_Suites_V2.0.0/GD32F30x_Demo_Suites_V2.0.0/GD32F30x_Firmware_Library/GD32F30x_standard_peripheral/Source\gd32f30x_fmc.c **** 
 1423              		.loc 1 711 0
 1424 0006 4FF47020 		mov	r0, #983040
 1425              	.LVL104:
 1426 000a FFF7FEFF 		bl	fmc_bank0_ready_wait
 1427              	.LVL105:
 713:C:/Users/49542/Desktop/GD32F30x_Demo_Suites_V2.0.0/GD32F30x_Demo_Suites_V2.0.0/GD32F30x_Firmware_Library/GD32F30x_standard_peripheral/Source\gd32f30x_fmc.c ****         /* set the OBPG bit */
ARM GAS  C:\Users\49542\AppData\Local\Temp\cceCZdNg.s 			page 44


 1428              		.loc 1 713 0
 1429 000e 0346     		mov	r3, r0
 1430 0010 08B1     		cbz	r0, .L133
 1431              	.L131:
 1432              	.LVL106:
 728:C:/Users/49542/Desktop/GD32F30x_Demo_Suites_V2.0.0/GD32F30x_Demo_Suites_V2.0.0/GD32F30x_Firmware_Library/GD32F30x_standard_peripheral/Source\gd32f30x_fmc.c **** 
 1433              		.loc 1 728 0
 1434 0012 1846     		mov	r0, r3
 1435 0014 38BD     		pop	{r3, r4, r5, pc}
 1436              	.LVL107:
 1437              	.L133:
 715:C:/Users/49542/Desktop/GD32F30x_Demo_Suites_V2.0.0/GD32F30x_Demo_Suites_V2.0.0/GD32F30x_Firmware_Library/GD32F30x_standard_peripheral/Source\gd32f30x_fmc.c ****         REG16(address) = data;
 1438              		.loc 1 715 0
 1439 0016 0A4A     		ldr	r2, .L134
 1440 0018 1368     		ldr	r3, [r2]
 1441 001a 43F01003 		orr	r3, r3, #16
 1442 001e 1360     		str	r3, [r2]
 716:C:/Users/49542/Desktop/GD32F30x_Demo_Suites_V2.0.0/GD32F30x_Demo_Suites_V2.0.0/GD32F30x_Firmware_Library/GD32F30x_standard_peripheral/Source\gd32f30x_fmc.c ****     
 1443              		.loc 1 716 0
 1444 0020 A4B2     		uxth	r4, r4
 1445 0022 2C80     		strh	r4, [r5]	@ movhi
 719:C:/Users/49542/Desktop/GD32F30x_Demo_Suites_V2.0.0/GD32F30x_Demo_Suites_V2.0.0/GD32F30x_Firmware_Library/GD32F30x_standard_peripheral/Source\gd32f30x_fmc.c ****     
 1446              		.loc 1 719 0
 1447 0024 4FF47020 		mov	r0, #983040
 1448              	.LVL108:
 1449 0028 FFF7FEFF 		bl	fmc_bank0_ready_wait
 1450              	.LVL109:
 1451 002c 0346     		mov	r3, r0
 1452              	.LVL110:
 721:C:/Users/49542/Desktop/GD32F30x_Demo_Suites_V2.0.0/GD32F30x_Demo_Suites_V2.0.0/GD32F30x_Firmware_Library/GD32F30x_standard_peripheral/Source\gd32f30x_fmc.c ****             /* reset the OBPG bit */
 1453              		.loc 1 721 0
 1454 002e 0428     		cmp	r0, #4
 1455 0030 EFD0     		beq	.L131
 723:C:/Users/49542/Desktop/GD32F30x_Demo_Suites_V2.0.0/GD32F30x_Demo_Suites_V2.0.0/GD32F30x_Firmware_Library/GD32F30x_standard_peripheral/Source\gd32f30x_fmc.c ****         }
 1456              		.loc 1 723 0
 1457 0032 0349     		ldr	r1, .L134
 1458 0034 0A68     		ldr	r2, [r1]
 1459 0036 22F01002 		bic	r2, r2, #16
 1460 003a 0A60     		str	r2, [r1]
 1461 003c E9E7     		b	.L131
 1462              	.L135:
 1463 003e 00BF     		.align	2
 1464              	.L134:
 1465 0040 10200240 		.word	1073881104
 1466              		.cfi_endproc
 1467              	.LFE136:
 1469              		.section	.text.fmc_bank1_ready_wait,"ax",%progbits
 1470              		.align	1
 1471              		.global	fmc_bank1_ready_wait
 1472              		.syntax unified
 1473              		.thumb
 1474              		.thumb_func
 1475              		.fpu fpv4-sp-d16
 1477              	fmc_bank1_ready_wait:
 1478              	.LFB150:
 985:C:/Users/49542/Desktop/GD32F30x_Demo_Suites_V2.0.0/GD32F30x_Demo_Suites_V2.0.0/GD32F30x_Firmware_Library/GD32F30x_standard_peripheral/Source\gd32f30x_fmc.c **** 
 986:C:/Users/49542/Desktop/GD32F30x_Demo_Suites_V2.0.0/GD32F30x_Demo_Suites_V2.0.0/GD32F30x_Firmware_Library/GD32F30x_standard_peripheral/Source\gd32f30x_fmc.c **** /*!
ARM GAS  C:\Users\49542\AppData\Local\Temp\cceCZdNg.s 			page 45


 987:C:/Users/49542/Desktop/GD32F30x_Demo_Suites_V2.0.0/GD32F30x_Demo_Suites_V2.0.0/GD32F30x_Firmware_Library/GD32F30x_standard_peripheral/Source\gd32f30x_fmc.c ****     \brief      check whether FMC bank1 is ready or not
 988:C:/Users/49542/Desktop/GD32F30x_Demo_Suites_V2.0.0/GD32F30x_Demo_Suites_V2.0.0/GD32F30x_Firmware_Library/GD32F30x_standard_peripheral/Source\gd32f30x_fmc.c ****     \param[in]  timeout: count of loop
 989:C:/Users/49542/Desktop/GD32F30x_Demo_Suites_V2.0.0/GD32F30x_Demo_Suites_V2.0.0/GD32F30x_Firmware_Library/GD32F30x_standard_peripheral/Source\gd32f30x_fmc.c ****     \param[out] none
 990:C:/Users/49542/Desktop/GD32F30x_Demo_Suites_V2.0.0/GD32F30x_Demo_Suites_V2.0.0/GD32F30x_Firmware_Library/GD32F30x_standard_peripheral/Source\gd32f30x_fmc.c ****     \retval     state of FMC, refer to fmc_state_enum
 991:C:/Users/49542/Desktop/GD32F30x_Demo_Suites_V2.0.0/GD32F30x_Demo_Suites_V2.0.0/GD32F30x_Firmware_Library/GD32F30x_standard_peripheral/Source\gd32f30x_fmc.c **** */
 992:C:/Users/49542/Desktop/GD32F30x_Demo_Suites_V2.0.0/GD32F30x_Demo_Suites_V2.0.0/GD32F30x_Firmware_Library/GD32F30x_standard_peripheral/Source\gd32f30x_fmc.c **** fmc_state_enum fmc_bank1_ready_wait(uint32_t timeout)
 993:C:/Users/49542/Desktop/GD32F30x_Demo_Suites_V2.0.0/GD32F30x_Demo_Suites_V2.0.0/GD32F30x_Firmware_Library/GD32F30x_standard_peripheral/Source\gd32f30x_fmc.c **** {
 1479              		.loc 1 993 0
 1480              		.cfi_startproc
 1481              		@ args = 0, pretend = 0, frame = 0
 1482              		@ frame_needed = 0, uses_anonymous_args = 0
 1483              	.LVL111:
 1484 0000 10B5     		push	{r4, lr}
 1485              	.LCFI7:
 1486              		.cfi_def_cfa_offset 8
 1487              		.cfi_offset 4, -8
 1488              		.cfi_offset 14, -4
 1489 0002 0446     		mov	r4, r0
 1490              	.LVL112:
 1491              	.L138:
 994:C:/Users/49542/Desktop/GD32F30x_Demo_Suites_V2.0.0/GD32F30x_Demo_Suites_V2.0.0/GD32F30x_Firmware_Library/GD32F30x_standard_peripheral/Source\gd32f30x_fmc.c ****     fmc_state_enum fmc_state = FMC_BUSY;
 995:C:/Users/49542/Desktop/GD32F30x_Demo_Suites_V2.0.0/GD32F30x_Demo_Suites_V2.0.0/GD32F30x_Firmware_Library/GD32F30x_standard_peripheral/Source\gd32f30x_fmc.c ****   
 996:C:/Users/49542/Desktop/GD32F30x_Demo_Suites_V2.0.0/GD32F30x_Demo_Suites_V2.0.0/GD32F30x_Firmware_Library/GD32F30x_standard_peripheral/Source\gd32f30x_fmc.c ****     /* wait for FMC ready */
 997:C:/Users/49542/Desktop/GD32F30x_Demo_Suites_V2.0.0/GD32F30x_Demo_Suites_V2.0.0/GD32F30x_Firmware_Library/GD32F30x_standard_peripheral/Source\gd32f30x_fmc.c ****     do{
 998:C:/Users/49542/Desktop/GD32F30x_Demo_Suites_V2.0.0/GD32F30x_Demo_Suites_V2.0.0/GD32F30x_Firmware_Library/GD32F30x_standard_peripheral/Source\gd32f30x_fmc.c ****         /* get FMC state */
 999:C:/Users/49542/Desktop/GD32F30x_Demo_Suites_V2.0.0/GD32F30x_Demo_Suites_V2.0.0/GD32F30x_Firmware_Library/GD32F30x_standard_peripheral/Source\gd32f30x_fmc.c ****         fmc_state = fmc_bank1_state_get();
 1492              		.loc 1 999 0 discriminator 2
 1493 0004 FFF7FEFF 		bl	fmc_bank1_state_get
 1494              	.LVL113:
1000:C:/Users/49542/Desktop/GD32F30x_Demo_Suites_V2.0.0/GD32F30x_Demo_Suites_V2.0.0/GD32F30x_Firmware_Library/GD32F30x_standard_peripheral/Source\gd32f30x_fmc.c ****         timeout--;
 1495              		.loc 1 1000 0 discriminator 2
 1496 0008 013C     		subs	r4, r4, #1
 1497              	.LVL114:
1001:C:/Users/49542/Desktop/GD32F30x_Demo_Suites_V2.0.0/GD32F30x_Demo_Suites_V2.0.0/GD32F30x_Firmware_Library/GD32F30x_standard_peripheral/Source\gd32f30x_fmc.c ****     }while((FMC_BUSY == fmc_state) && (0x00U != timeout));
 1498              		.loc 1 1001 0 discriminator 2
 1499 000a 0128     		cmp	r0, #1
 1500 000c 01D1     		bne	.L137
 1501              		.loc 1 1001 0 is_stmt 0 discriminator 1
 1502 000e 002C     		cmp	r4, #0
 1503 0010 F8D1     		bne	.L138
 1504              	.L137:
1002:C:/Users/49542/Desktop/GD32F30x_Demo_Suites_V2.0.0/GD32F30x_Demo_Suites_V2.0.0/GD32F30x_Firmware_Library/GD32F30x_standard_peripheral/Source\gd32f30x_fmc.c ****     
1003:C:/Users/49542/Desktop/GD32F30x_Demo_Suites_V2.0.0/GD32F30x_Demo_Suites_V2.0.0/GD32F30x_Firmware_Library/GD32F30x_standard_peripheral/Source\gd32f30x_fmc.c ****     if(FMC_BUSY == fmc_state){
 1505              		.loc 1 1003 0 is_stmt 1
 1506 0012 0128     		cmp	r0, #1
 1507 0014 00D0     		beq	.L142
 1508              	.LVL115:
 1509              	.L139:
1004:C:/Users/49542/Desktop/GD32F30x_Demo_Suites_V2.0.0/GD32F30x_Demo_Suites_V2.0.0/GD32F30x_Firmware_Library/GD32F30x_standard_peripheral/Source\gd32f30x_fmc.c ****         fmc_state = FMC_TOERR;
1005:C:/Users/49542/Desktop/GD32F30x_Demo_Suites_V2.0.0/GD32F30x_Demo_Suites_V2.0.0/GD32F30x_Firmware_Library/GD32F30x_standard_peripheral/Source\gd32f30x_fmc.c ****     }
1006:C:/Users/49542/Desktop/GD32F30x_Demo_Suites_V2.0.0/GD32F30x_Demo_Suites_V2.0.0/GD32F30x_Firmware_Library/GD32F30x_standard_peripheral/Source\gd32f30x_fmc.c ****     /* return the FMC state */
1007:C:/Users/49542/Desktop/GD32F30x_Demo_Suites_V2.0.0/GD32F30x_Demo_Suites_V2.0.0/GD32F30x_Firmware_Library/GD32F30x_standard_peripheral/Source\gd32f30x_fmc.c ****     return fmc_state;
1008:C:/Users/49542/Desktop/GD32F30x_Demo_Suites_V2.0.0/GD32F30x_Demo_Suites_V2.0.0/GD32F30x_Firmware_Library/GD32F30x_standard_peripheral/Source\gd32f30x_fmc.c **** }
 1510              		.loc 1 1008 0
 1511 0016 10BD     		pop	{r4, pc}
 1512              	.LVL116:
 1513              	.L142:
ARM GAS  C:\Users\49542\AppData\Local\Temp\cceCZdNg.s 			page 46


1004:C:/Users/49542/Desktop/GD32F30x_Demo_Suites_V2.0.0/GD32F30x_Demo_Suites_V2.0.0/GD32F30x_Firmware_Library/GD32F30x_standard_peripheral/Source\gd32f30x_fmc.c ****         fmc_state = FMC_TOERR;
 1514              		.loc 1 1004 0
 1515 0018 0420     		movs	r0, #4
 1516              	.LVL117:
 1517 001a FCE7     		b	.L139
 1518              		.cfi_endproc
 1519              	.LFE150:
 1521              		.section	.text.fmc_page_erase,"ax",%progbits
 1522              		.align	1
 1523              		.global	fmc_page_erase
 1524              		.syntax unified
 1525              		.thumb
 1526              		.thumb_func
 1527              		.fpu fpv4-sp-d16
 1529              	fmc_page_erase:
 1530              	.LFB123:
 169:C:/Users/49542/Desktop/GD32F30x_Demo_Suites_V2.0.0/GD32F30x_Demo_Suites_V2.0.0/GD32F30x_Firmware_Library/GD32F30x_standard_peripheral/Source\gd32f30x_fmc.c ****     fmc_state_enum fmc_state;
 1531              		.loc 1 169 0
 1532              		.cfi_startproc
 1533              		@ args = 0, pretend = 0, frame = 0
 1534              		@ frame_needed = 0, uses_anonymous_args = 0
 1535              	.LVL118:
 1536 0000 38B5     		push	{r3, r4, r5, lr}
 1537              	.LCFI8:
 1538              		.cfi_def_cfa_offset 16
 1539              		.cfi_offset 3, -16
 1540              		.cfi_offset 4, -12
 1541              		.cfi_offset 5, -8
 1542              		.cfi_offset 14, -4
 1543 0002 0446     		mov	r4, r0
 172:C:/Users/49542/Desktop/GD32F30x_Demo_Suites_V2.0.0/GD32F30x_Demo_Suites_V2.0.0/GD32F30x_Firmware_Library/GD32F30x_standard_peripheral/Source\gd32f30x_fmc.c ****         if(FMC_BANK0_END_ADDRESS > page_address){
 1544              		.loc 1 172 0
 1545 0004 324B     		ldr	r3, .L150
 1546 0006 1B88     		ldrh	r3, [r3]
 1547 0008 B3F5007F 		cmp	r3, #512
 1548 000c 43D9     		bls	.L144
 173:C:/Users/49542/Desktop/GD32F30x_Demo_Suites_V2.0.0/GD32F30x_Demo_Suites_V2.0.0/GD32F30x_Firmware_Library/GD32F30x_standard_peripheral/Source\gd32f30x_fmc.c ****             fmc_state = fmc_bank0_ready_wait(FMC_TIMEOUT_COUNT);
 1549              		.loc 1 173 0
 1550 000e 314B     		ldr	r3, .L150+4
 1551 0010 9842     		cmp	r0, r3
 1552 0012 1CD8     		bhi	.L145
 174:C:/Users/49542/Desktop/GD32F30x_Demo_Suites_V2.0.0/GD32F30x_Demo_Suites_V2.0.0/GD32F30x_Firmware_Library/GD32F30x_standard_peripheral/Source\gd32f30x_fmc.c ****             /* if the last operation is completed, start page erase */
 1553              		.loc 1 174 0
 1554 0014 4FF47020 		mov	r0, #983040
 1555              	.LVL119:
 1556 0018 FFF7FEFF 		bl	fmc_bank0_ready_wait
 1557              	.LVL120:
 176:C:/Users/49542/Desktop/GD32F30x_Demo_Suites_V2.0.0/GD32F30x_Demo_Suites_V2.0.0/GD32F30x_Firmware_Library/GD32F30x_standard_peripheral/Source\gd32f30x_fmc.c ****                 FMC_CTL0 |= FMC_CTL0_PER;
 1558              		.loc 1 176 0
 1559 001c 0346     		mov	r3, r0
 1560 001e 08B1     		cbz	r0, .L149
 1561              	.LVL121:
 1562              	.L146:
 217:C:/Users/49542/Desktop/GD32F30x_Demo_Suites_V2.0.0/GD32F30x_Demo_Suites_V2.0.0/GD32F30x_Firmware_Library/GD32F30x_standard_peripheral/Source\gd32f30x_fmc.c **** 
 1563              		.loc 1 217 0
 1564 0020 1846     		mov	r0, r3
 1565 0022 38BD     		pop	{r3, r4, r5, pc}
ARM GAS  C:\Users\49542\AppData\Local\Temp\cceCZdNg.s 			page 47


 1566              	.LVL122:
 1567              	.L149:
 177:C:/Users/49542/Desktop/GD32F30x_Demo_Suites_V2.0.0/GD32F30x_Demo_Suites_V2.0.0/GD32F30x_Firmware_Library/GD32F30x_standard_peripheral/Source\gd32f30x_fmc.c ****                 FMC_ADDR0 = page_address;
 1568              		.loc 1 177 0
 1569 0024 2C4D     		ldr	r5, .L150+8
 1570 0026 2B68     		ldr	r3, [r5]
 1571 0028 43F00203 		orr	r3, r3, #2
 1572 002c 2B60     		str	r3, [r5]
 178:C:/Users/49542/Desktop/GD32F30x_Demo_Suites_V2.0.0/GD32F30x_Demo_Suites_V2.0.0/GD32F30x_Firmware_Library/GD32F30x_standard_peripheral/Source\gd32f30x_fmc.c ****                 FMC_CTL0 |= FMC_CTL0_START;
 1573              		.loc 1 178 0
 1574 002e 2B4B     		ldr	r3, .L150+12
 1575 0030 1C60     		str	r4, [r3]
 179:C:/Users/49542/Desktop/GD32F30x_Demo_Suites_V2.0.0/GD32F30x_Demo_Suites_V2.0.0/GD32F30x_Firmware_Library/GD32F30x_standard_peripheral/Source\gd32f30x_fmc.c ****                 /* wait for the FMC ready */
 1576              		.loc 1 179 0
 1577 0032 2B68     		ldr	r3, [r5]
 1578 0034 43F04003 		orr	r3, r3, #64
 1579 0038 2B60     		str	r3, [r5]
 181:C:/Users/49542/Desktop/GD32F30x_Demo_Suites_V2.0.0/GD32F30x_Demo_Suites_V2.0.0/GD32F30x_Firmware_Library/GD32F30x_standard_peripheral/Source\gd32f30x_fmc.c ****                 /* reset the PER bit */
 1580              		.loc 1 181 0
 1581 003a 4FF47020 		mov	r0, #983040
 1582              	.LVL123:
 1583 003e FFF7FEFF 		bl	fmc_bank0_ready_wait
 1584              	.LVL124:
 1585 0042 0346     		mov	r3, r0
 1586              	.LVL125:
 183:C:/Users/49542/Desktop/GD32F30x_Demo_Suites_V2.0.0/GD32F30x_Demo_Suites_V2.0.0/GD32F30x_Firmware_Library/GD32F30x_standard_peripheral/Source\gd32f30x_fmc.c ****             }
 1587              		.loc 1 183 0
 1588 0044 2A68     		ldr	r2, [r5]
 1589 0046 22F00202 		bic	r2, r2, #2
 1590 004a 2A60     		str	r2, [r5]
 1591 004c E8E7     		b	.L146
 1592              	.LVL126:
 1593              	.L145:
 187:C:/Users/49542/Desktop/GD32F30x_Demo_Suites_V2.0.0/GD32F30x_Demo_Suites_V2.0.0/GD32F30x_Firmware_Library/GD32F30x_standard_peripheral/Source\gd32f30x_fmc.c ****             /* if the last operation is completed, start page erase */
 1594              		.loc 1 187 0
 1595 004e 4FF47020 		mov	r0, #983040
 1596              	.LVL127:
 1597 0052 FFF7FEFF 		bl	fmc_bank1_ready_wait
 1598              	.LVL128:
 189:C:/Users/49542/Desktop/GD32F30x_Demo_Suites_V2.0.0/GD32F30x_Demo_Suites_V2.0.0/GD32F30x_Firmware_Library/GD32F30x_standard_peripheral/Source\gd32f30x_fmc.c ****                 FMC_CTL1 |= FMC_CTL1_PER;
 1599              		.loc 1 189 0
 1600 0056 0346     		mov	r3, r0
 1601 0058 0028     		cmp	r0, #0
 1602 005a E1D1     		bne	.L146
 190:C:/Users/49542/Desktop/GD32F30x_Demo_Suites_V2.0.0/GD32F30x_Demo_Suites_V2.0.0/GD32F30x_Firmware_Library/GD32F30x_standard_peripheral/Source\gd32f30x_fmc.c ****                 FMC_ADDR1 = page_address;
 1603              		.loc 1 190 0
 1604 005c 204A     		ldr	r2, .L150+16
 1605 005e 1368     		ldr	r3, [r2]
 1606 0060 43F00203 		orr	r3, r3, #2
 1607 0064 1360     		str	r3, [r2]
 191:C:/Users/49542/Desktop/GD32F30x_Demo_Suites_V2.0.0/GD32F30x_Demo_Suites_V2.0.0/GD32F30x_Firmware_Library/GD32F30x_standard_peripheral/Source\gd32f30x_fmc.c ****                 if(FMC_OBSTAT & FMC_OBSTAT_SPC){
 1608              		.loc 1 191 0
 1609 0066 1F4B     		ldr	r3, .L150+20
 1610 0068 1C60     		str	r4, [r3]
 192:C:/Users/49542/Desktop/GD32F30x_Demo_Suites_V2.0.0/GD32F30x_Demo_Suites_V2.0.0/GD32F30x_Firmware_Library/GD32F30x_standard_peripheral/Source\gd32f30x_fmc.c ****                     FMC_ADDR0 = page_address;
 1611              		.loc 1 192 0
 1612 006a 383B     		subs	r3, r3, #56
ARM GAS  C:\Users\49542\AppData\Local\Temp\cceCZdNg.s 			page 48


 1613 006c 1B68     		ldr	r3, [r3]
 1614 006e 13F0020F 		tst	r3, #2
 1615 0072 01D0     		beq	.L147
 193:C:/Users/49542/Desktop/GD32F30x_Demo_Suites_V2.0.0/GD32F30x_Demo_Suites_V2.0.0/GD32F30x_Firmware_Library/GD32F30x_standard_peripheral/Source\gd32f30x_fmc.c ****                 }
 1616              		.loc 1 193 0
 1617 0074 194B     		ldr	r3, .L150+12
 1618 0076 1C60     		str	r4, [r3]
 1619              	.L147:
 195:C:/Users/49542/Desktop/GD32F30x_Demo_Suites_V2.0.0/GD32F30x_Demo_Suites_V2.0.0/GD32F30x_Firmware_Library/GD32F30x_standard_peripheral/Source\gd32f30x_fmc.c ****                 /* wait for the FMC ready */
 1620              		.loc 1 195 0
 1621 0078 194C     		ldr	r4, .L150+16
 1622              	.LVL129:
 1623 007a 2368     		ldr	r3, [r4]
 1624 007c 43F04003 		orr	r3, r3, #64
 1625 0080 2360     		str	r3, [r4]
 197:C:/Users/49542/Desktop/GD32F30x_Demo_Suites_V2.0.0/GD32F30x_Demo_Suites_V2.0.0/GD32F30x_Firmware_Library/GD32F30x_standard_peripheral/Source\gd32f30x_fmc.c ****                 /* reset the PER bit */
 1626              		.loc 1 197 0
 1627 0082 4FF47020 		mov	r0, #983040
 1628              	.LVL130:
 1629 0086 FFF7FEFF 		bl	fmc_bank1_ready_wait
 1630              	.LVL131:
 1631 008a 0346     		mov	r3, r0
 1632              	.LVL132:
 199:C:/Users/49542/Desktop/GD32F30x_Demo_Suites_V2.0.0/GD32F30x_Demo_Suites_V2.0.0/GD32F30x_Firmware_Library/GD32F30x_standard_peripheral/Source\gd32f30x_fmc.c ****             }
 1633              		.loc 1 199 0
 1634 008c 2268     		ldr	r2, [r4]
 1635 008e 22F00202 		bic	r2, r2, #2
 1636 0092 2260     		str	r2, [r4]
 1637 0094 C4E7     		b	.L146
 1638              	.LVL133:
 1639              	.L144:
 203:C:/Users/49542/Desktop/GD32F30x_Demo_Suites_V2.0.0/GD32F30x_Demo_Suites_V2.0.0/GD32F30x_Firmware_Library/GD32F30x_standard_peripheral/Source\gd32f30x_fmc.c ****         /* if the last operation is completed, start page erase */
 1640              		.loc 1 203 0
 1641 0096 4FF47020 		mov	r0, #983040
 1642              	.LVL134:
 1643 009a FFF7FEFF 		bl	fmc_bank0_ready_wait
 1644              	.LVL135:
 205:C:/Users/49542/Desktop/GD32F30x_Demo_Suites_V2.0.0/GD32F30x_Demo_Suites_V2.0.0/GD32F30x_Firmware_Library/GD32F30x_standard_peripheral/Source\gd32f30x_fmc.c ****             FMC_CTL0 |= FMC_CTL0_PER;
 1645              		.loc 1 205 0
 1646 009e 0346     		mov	r3, r0
 1647 00a0 0028     		cmp	r0, #0
 1648 00a2 BDD1     		bne	.L146
 206:C:/Users/49542/Desktop/GD32F30x_Demo_Suites_V2.0.0/GD32F30x_Demo_Suites_V2.0.0/GD32F30x_Firmware_Library/GD32F30x_standard_peripheral/Source\gd32f30x_fmc.c ****             FMC_ADDR0 = page_address;
 1649              		.loc 1 206 0
 1650 00a4 0C4D     		ldr	r5, .L150+8
 1651 00a6 2B68     		ldr	r3, [r5]
 1652 00a8 43F00203 		orr	r3, r3, #2
 1653 00ac 2B60     		str	r3, [r5]
 207:C:/Users/49542/Desktop/GD32F30x_Demo_Suites_V2.0.0/GD32F30x_Demo_Suites_V2.0.0/GD32F30x_Firmware_Library/GD32F30x_standard_peripheral/Source\gd32f30x_fmc.c ****             FMC_CTL0 |= FMC_CTL0_START;
 1654              		.loc 1 207 0
 1655 00ae 0B4B     		ldr	r3, .L150+12
 1656 00b0 1C60     		str	r4, [r3]
 208:C:/Users/49542/Desktop/GD32F30x_Demo_Suites_V2.0.0/GD32F30x_Demo_Suites_V2.0.0/GD32F30x_Firmware_Library/GD32F30x_standard_peripheral/Source\gd32f30x_fmc.c ****             /* wait for the FMC ready */
 1657              		.loc 1 208 0
 1658 00b2 2B68     		ldr	r3, [r5]
 1659 00b4 43F04003 		orr	r3, r3, #64
 1660 00b8 2B60     		str	r3, [r5]
ARM GAS  C:\Users\49542\AppData\Local\Temp\cceCZdNg.s 			page 49


 210:C:/Users/49542/Desktop/GD32F30x_Demo_Suites_V2.0.0/GD32F30x_Demo_Suites_V2.0.0/GD32F30x_Firmware_Library/GD32F30x_standard_peripheral/Source\gd32f30x_fmc.c ****             /* reset the PER bit */
 1661              		.loc 1 210 0
 1662 00ba 4FF47020 		mov	r0, #983040
 1663              	.LVL136:
 1664 00be FFF7FEFF 		bl	fmc_bank0_ready_wait
 1665              	.LVL137:
 1666 00c2 0346     		mov	r3, r0
 1667              	.LVL138:
 212:C:/Users/49542/Desktop/GD32F30x_Demo_Suites_V2.0.0/GD32F30x_Demo_Suites_V2.0.0/GD32F30x_Firmware_Library/GD32F30x_standard_peripheral/Source\gd32f30x_fmc.c ****         }
 1668              		.loc 1 212 0
 1669 00c4 2A68     		ldr	r2, [r5]
 1670 00c6 22F00202 		bic	r2, r2, #2
 1671 00ca 2A60     		str	r2, [r5]
 1672 00cc A8E7     		b	.L146
 1673              	.L151:
 1674 00ce 00BF     		.align	2
 1675              	.L150:
 1676 00d0 E0F7FF1F 		.word	536868832
 1677 00d4 FEFF0708 		.word	134742014
 1678 00d8 10200240 		.word	1073881104
 1679 00dc 14200240 		.word	1073881108
 1680 00e0 50200240 		.word	1073881168
 1681 00e4 54200240 		.word	1073881172
 1682              		.cfi_endproc
 1683              	.LFE123:
 1685              		.section	.text.fmc_mass_erase,"ax",%progbits
 1686              		.align	1
 1687              		.global	fmc_mass_erase
 1688              		.syntax unified
 1689              		.thumb
 1690              		.thumb_func
 1691              		.fpu fpv4-sp-d16
 1693              	fmc_mass_erase:
 1694              	.LFB124:
 226:C:/Users/49542/Desktop/GD32F30x_Demo_Suites_V2.0.0/GD32F30x_Demo_Suites_V2.0.0/GD32F30x_Firmware_Library/GD32F30x_standard_peripheral/Source\gd32f30x_fmc.c ****     fmc_state_enum fmc_state;
 1695              		.loc 1 226 0
 1696              		.cfi_startproc
 1697              		@ args = 0, pretend = 0, frame = 0
 1698              		@ frame_needed = 0, uses_anonymous_args = 0
 1699 0000 10B5     		push	{r4, lr}
 1700              	.LCFI9:
 1701              		.cfi_def_cfa_offset 8
 1702              		.cfi_offset 4, -8
 1703              		.cfi_offset 14, -4
 228:C:/Users/49542/Desktop/GD32F30x_Demo_Suites_V2.0.0/GD32F30x_Demo_Suites_V2.0.0/GD32F30x_Firmware_Library/GD32F30x_standard_peripheral/Source\gd32f30x_fmc.c ****         /* wait for the FMC ready */
 1704              		.loc 1 228 0
 1705 0002 284B     		ldr	r3, .L159
 1706 0004 1B88     		ldrh	r3, [r3]
 1707 0006 B3F5007F 		cmp	r3, #512
 1708 000a 31D9     		bls	.L153
 230:C:/Users/49542/Desktop/GD32F30x_Demo_Suites_V2.0.0/GD32F30x_Demo_Suites_V2.0.0/GD32F30x_Firmware_Library/GD32F30x_standard_peripheral/Source\gd32f30x_fmc.c ****         if(FMC_READY == fmc_state){
 1709              		.loc 1 230 0
 1710 000c 4FF47020 		mov	r0, #983040
 1711 0010 FFF7FEFF 		bl	fmc_bank0_ready_wait
 1712              	.LVL139:
 231:C:/Users/49542/Desktop/GD32F30x_Demo_Suites_V2.0.0/GD32F30x_Demo_Suites_V2.0.0/GD32F30x_Firmware_Library/GD32F30x_standard_peripheral/Source\gd32f30x_fmc.c ****             /* start whole chip erase */
 1713              		.loc 1 231 0
ARM GAS  C:\Users\49542\AppData\Local\Temp\cceCZdNg.s 			page 50


 1714 0014 38B1     		cbz	r0, .L157
 1715              	.LVL140:
 1716              	.L154:
 240:C:/Users/49542/Desktop/GD32F30x_Demo_Suites_V2.0.0/GD32F30x_Demo_Suites_V2.0.0/GD32F30x_Firmware_Library/GD32F30x_standard_peripheral/Source\gd32f30x_fmc.c ****         if(FMC_READY == fmc_state){
 1717              		.loc 1 240 0
 1718 0016 4FF47020 		mov	r0, #983040
 1719 001a FFF7FEFF 		bl	fmc_bank1_ready_wait
 1720              	.LVL141:
 241:C:/Users/49542/Desktop/GD32F30x_Demo_Suites_V2.0.0/GD32F30x_Demo_Suites_V2.0.0/GD32F30x_Firmware_Library/GD32F30x_standard_peripheral/Source\gd32f30x_fmc.c ****             /* start whole chip erase */
 1721              		.loc 1 241 0
 1722 001e 0346     		mov	r3, r0
 1723 0020 98B1     		cbz	r0, .L158
 1724              	.LVL142:
 1725              	.L155:
 265:C:/Users/49542/Desktop/GD32F30x_Demo_Suites_V2.0.0/GD32F30x_Demo_Suites_V2.0.0/GD32F30x_Firmware_Library/GD32F30x_standard_peripheral/Source\gd32f30x_fmc.c **** 
 1726              		.loc 1 265 0
 1727 0022 1846     		mov	r0, r3
 1728 0024 10BD     		pop	{r4, pc}
 1729              	.LVL143:
 1730              	.L157:
 233:C:/Users/49542/Desktop/GD32F30x_Demo_Suites_V2.0.0/GD32F30x_Demo_Suites_V2.0.0/GD32F30x_Firmware_Library/GD32F30x_standard_peripheral/Source\gd32f30x_fmc.c ****             FMC_CTL0 |= FMC_CTL0_START;
 1731              		.loc 1 233 0
 1732 0026 204C     		ldr	r4, .L159+4
 1733 0028 2368     		ldr	r3, [r4]
 1734 002a 43F00403 		orr	r3, r3, #4
 1735 002e 2360     		str	r3, [r4]
 234:C:/Users/49542/Desktop/GD32F30x_Demo_Suites_V2.0.0/GD32F30x_Demo_Suites_V2.0.0/GD32F30x_Firmware_Library/GD32F30x_standard_peripheral/Source\gd32f30x_fmc.c ****             /* wait for the FMC ready */
 1736              		.loc 1 234 0
 1737 0030 2368     		ldr	r3, [r4]
 1738 0032 43F04003 		orr	r3, r3, #64
 1739 0036 2360     		str	r3, [r4]
 236:C:/Users/49542/Desktop/GD32F30x_Demo_Suites_V2.0.0/GD32F30x_Demo_Suites_V2.0.0/GD32F30x_Firmware_Library/GD32F30x_standard_peripheral/Source\gd32f30x_fmc.c ****             /* reset the MER bit */
 1740              		.loc 1 236 0
 1741 0038 4FF47020 		mov	r0, #983040
 1742              	.LVL144:
 1743 003c FFF7FEFF 		bl	fmc_bank0_ready_wait
 1744              	.LVL145:
 238:C:/Users/49542/Desktop/GD32F30x_Demo_Suites_V2.0.0/GD32F30x_Demo_Suites_V2.0.0/GD32F30x_Firmware_Library/GD32F30x_standard_peripheral/Source\gd32f30x_fmc.c ****         }
 1745              		.loc 1 238 0
 1746 0040 2368     		ldr	r3, [r4]
 1747 0042 23F00403 		bic	r3, r3, #4
 1748 0046 2360     		str	r3, [r4]
 1749 0048 E5E7     		b	.L154
 1750              	.LVL146:
 1751              	.L158:
 243:C:/Users/49542/Desktop/GD32F30x_Demo_Suites_V2.0.0/GD32F30x_Demo_Suites_V2.0.0/GD32F30x_Firmware_Library/GD32F30x_standard_peripheral/Source\gd32f30x_fmc.c ****             FMC_CTL1 |= FMC_CTL1_START;
 1752              		.loc 1 243 0
 1753 004a 184C     		ldr	r4, .L159+8
 1754 004c 2368     		ldr	r3, [r4]
 1755 004e 43F00403 		orr	r3, r3, #4
 1756 0052 2360     		str	r3, [r4]
 244:C:/Users/49542/Desktop/GD32F30x_Demo_Suites_V2.0.0/GD32F30x_Demo_Suites_V2.0.0/GD32F30x_Firmware_Library/GD32F30x_standard_peripheral/Source\gd32f30x_fmc.c ****             /* wait for the FMC ready */
 1757              		.loc 1 244 0
 1758 0054 2368     		ldr	r3, [r4]
 1759 0056 43F04003 		orr	r3, r3, #64
 1760 005a 2360     		str	r3, [r4]
 246:C:/Users/49542/Desktop/GD32F30x_Demo_Suites_V2.0.0/GD32F30x_Demo_Suites_V2.0.0/GD32F30x_Firmware_Library/GD32F30x_standard_peripheral/Source\gd32f30x_fmc.c ****             /* reset the MER bit */
ARM GAS  C:\Users\49542\AppData\Local\Temp\cceCZdNg.s 			page 51


 1761              		.loc 1 246 0
 1762 005c 4FF47020 		mov	r0, #983040
 1763              	.LVL147:
 1764 0060 FFF7FEFF 		bl	fmc_bank1_ready_wait
 1765              	.LVL148:
 1766 0064 0346     		mov	r3, r0
 1767              	.LVL149:
 248:C:/Users/49542/Desktop/GD32F30x_Demo_Suites_V2.0.0/GD32F30x_Demo_Suites_V2.0.0/GD32F30x_Firmware_Library/GD32F30x_standard_peripheral/Source\gd32f30x_fmc.c ****         }
 1768              		.loc 1 248 0
 1769 0066 2268     		ldr	r2, [r4]
 1770 0068 22F00402 		bic	r2, r2, #4
 1771 006c 2260     		str	r2, [r4]
 1772 006e D8E7     		b	.L155
 1773              	.LVL150:
 1774              	.L153:
 251:C:/Users/49542/Desktop/GD32F30x_Demo_Suites_V2.0.0/GD32F30x_Demo_Suites_V2.0.0/GD32F30x_Firmware_Library/GD32F30x_standard_peripheral/Source\gd32f30x_fmc.c ****   
 1775              		.loc 1 251 0
 1776 0070 4FF47020 		mov	r0, #983040
 1777 0074 FFF7FEFF 		bl	fmc_bank0_ready_wait
 1778              	.LVL151:
 253:C:/Users/49542/Desktop/GD32F30x_Demo_Suites_V2.0.0/GD32F30x_Demo_Suites_V2.0.0/GD32F30x_Firmware_Library/GD32F30x_standard_peripheral/Source\gd32f30x_fmc.c ****             /* start whole chip erase */
 1779              		.loc 1 253 0
 1780 0078 0346     		mov	r3, r0
 1781 007a 0028     		cmp	r0, #0
 1782 007c D1D1     		bne	.L155
 255:C:/Users/49542/Desktop/GD32F30x_Demo_Suites_V2.0.0/GD32F30x_Demo_Suites_V2.0.0/GD32F30x_Firmware_Library/GD32F30x_standard_peripheral/Source\gd32f30x_fmc.c ****             FMC_CTL0 |= FMC_CTL0_START;    
 1783              		.loc 1 255 0
 1784 007e 0A4C     		ldr	r4, .L159+4
 1785 0080 2368     		ldr	r3, [r4]
 1786 0082 43F00403 		orr	r3, r3, #4
 1787 0086 2360     		str	r3, [r4]
 256:C:/Users/49542/Desktop/GD32F30x_Demo_Suites_V2.0.0/GD32F30x_Demo_Suites_V2.0.0/GD32F30x_Firmware_Library/GD32F30x_standard_peripheral/Source\gd32f30x_fmc.c ****             /* wait for the FMC ready */
 1788              		.loc 1 256 0
 1789 0088 2368     		ldr	r3, [r4]
 1790 008a 43F04003 		orr	r3, r3, #64
 1791 008e 2360     		str	r3, [r4]
 258:C:/Users/49542/Desktop/GD32F30x_Demo_Suites_V2.0.0/GD32F30x_Demo_Suites_V2.0.0/GD32F30x_Firmware_Library/GD32F30x_standard_peripheral/Source\gd32f30x_fmc.c ****             /* reset the MER bit */
 1792              		.loc 1 258 0
 1793 0090 4FF47020 		mov	r0, #983040
 1794              	.LVL152:
 1795 0094 FFF7FEFF 		bl	fmc_bank0_ready_wait
 1796              	.LVL153:
 1797 0098 0346     		mov	r3, r0
 1798              	.LVL154:
 260:C:/Users/49542/Desktop/GD32F30x_Demo_Suites_V2.0.0/GD32F30x_Demo_Suites_V2.0.0/GD32F30x_Firmware_Library/GD32F30x_standard_peripheral/Source\gd32f30x_fmc.c ****         }
 1799              		.loc 1 260 0
 1800 009a 2268     		ldr	r2, [r4]
 1801 009c 22F00402 		bic	r2, r2, #4
 1802 00a0 2260     		str	r2, [r4]
 1803 00a2 BEE7     		b	.L155
 1804              	.L160:
 1805              		.align	2
 1806              	.L159:
 1807 00a4 E0F7FF1F 		.word	536868832
 1808 00a8 10200240 		.word	1073881104
 1809 00ac 50200240 		.word	1073881168
 1810              		.cfi_endproc
ARM GAS  C:\Users\49542\AppData\Local\Temp\cceCZdNg.s 			page 52


 1811              	.LFE124:
 1813              		.section	.text.fmc_bank1_erase,"ax",%progbits
 1814              		.align	1
 1815              		.global	fmc_bank1_erase
 1816              		.syntax unified
 1817              		.thumb
 1818              		.thumb_func
 1819              		.fpu fpv4-sp-d16
 1821              	fmc_bank1_erase:
 1822              	.LFB126:
 299:C:/Users/49542/Desktop/GD32F30x_Demo_Suites_V2.0.0/GD32F30x_Demo_Suites_V2.0.0/GD32F30x_Firmware_Library/GD32F30x_standard_peripheral/Source\gd32f30x_fmc.c ****     fmc_state_enum fmc_state = FMC_READY;
 1823              		.loc 1 299 0
 1824              		.cfi_startproc
 1825              		@ args = 0, pretend = 0, frame = 0
 1826              		@ frame_needed = 0, uses_anonymous_args = 0
 1827 0000 10B5     		push	{r4, lr}
 1828              	.LCFI10:
 1829              		.cfi_def_cfa_offset 8
 1830              		.cfi_offset 4, -8
 1831              		.cfi_offset 14, -4
 1832              	.LVL155:
 302:C:/Users/49542/Desktop/GD32F30x_Demo_Suites_V2.0.0/GD32F30x_Demo_Suites_V2.0.0/GD32F30x_Firmware_Library/GD32F30x_standard_peripheral/Source\gd32f30x_fmc.c ****   
 1833              		.loc 1 302 0
 1834 0002 4FF47020 		mov	r0, #983040
 1835 0006 FFF7FEFF 		bl	fmc_bank1_ready_wait
 1836              	.LVL156:
 304:C:/Users/49542/Desktop/GD32F30x_Demo_Suites_V2.0.0/GD32F30x_Demo_Suites_V2.0.0/GD32F30x_Firmware_Library/GD32F30x_standard_peripheral/Source\gd32f30x_fmc.c ****         /* start FMC bank1 erase */
 1837              		.loc 1 304 0
 1838 000a 0346     		mov	r3, r0
 1839 000c 08B1     		cbz	r0, .L164
 1840              	.LVL157:
 1841              	.L162:
 315:C:/Users/49542/Desktop/GD32F30x_Demo_Suites_V2.0.0/GD32F30x_Demo_Suites_V2.0.0/GD32F30x_Firmware_Library/GD32F30x_standard_peripheral/Source\gd32f30x_fmc.c **** 
 1842              		.loc 1 315 0
 1843 000e 1846     		mov	r0, r3
 1844 0010 10BD     		pop	{r4, pc}
 1845              	.LVL158:
 1846              	.L164:
 306:C:/Users/49542/Desktop/GD32F30x_Demo_Suites_V2.0.0/GD32F30x_Demo_Suites_V2.0.0/GD32F30x_Firmware_Library/GD32F30x_standard_peripheral/Source\gd32f30x_fmc.c ****         FMC_CTL1 |= FMC_CTL1_START;
 1847              		.loc 1 306 0
 1848 0012 094C     		ldr	r4, .L165
 1849 0014 2368     		ldr	r3, [r4]
 1850 0016 43F00403 		orr	r3, r3, #4
 1851 001a 2360     		str	r3, [r4]
 307:C:/Users/49542/Desktop/GD32F30x_Demo_Suites_V2.0.0/GD32F30x_Demo_Suites_V2.0.0/GD32F30x_Firmware_Library/GD32F30x_standard_peripheral/Source\gd32f30x_fmc.c ****         /* wait for the FMC ready */
 1852              		.loc 1 307 0
 1853 001c 2368     		ldr	r3, [r4]
 1854 001e 43F04003 		orr	r3, r3, #64
 1855 0022 2360     		str	r3, [r4]
 309:C:/Users/49542/Desktop/GD32F30x_Demo_Suites_V2.0.0/GD32F30x_Demo_Suites_V2.0.0/GD32F30x_Firmware_Library/GD32F30x_standard_peripheral/Source\gd32f30x_fmc.c ****         /* reset the MER bit */
 1856              		.loc 1 309 0
 1857 0024 4FF47020 		mov	r0, #983040
 1858              	.LVL159:
 1859 0028 FFF7FEFF 		bl	fmc_bank1_ready_wait
 1860              	.LVL160:
 1861 002c 0346     		mov	r3, r0
 1862              	.LVL161:
ARM GAS  C:\Users\49542\AppData\Local\Temp\cceCZdNg.s 			page 53


 311:C:/Users/49542/Desktop/GD32F30x_Demo_Suites_V2.0.0/GD32F30x_Demo_Suites_V2.0.0/GD32F30x_Firmware_Library/GD32F30x_standard_peripheral/Source\gd32f30x_fmc.c ****     }
 1863              		.loc 1 311 0
 1864 002e 2268     		ldr	r2, [r4]
 1865 0030 22F00402 		bic	r2, r2, #4
 1866 0034 2260     		str	r2, [r4]
 1867 0036 EAE7     		b	.L162
 1868              	.L166:
 1869              		.align	2
 1870              	.L165:
 1871 0038 50200240 		.word	1073881168
 1872              		.cfi_endproc
 1873              	.LFE126:
 1875              		.section	.text.fmc_word_program,"ax",%progbits
 1876              		.align	1
 1877              		.global	fmc_word_program
 1878              		.syntax unified
 1879              		.thumb
 1880              		.thumb_func
 1881              		.fpu fpv4-sp-d16
 1883              	fmc_word_program:
 1884              	.LFB127:
 325:C:/Users/49542/Desktop/GD32F30x_Demo_Suites_V2.0.0/GD32F30x_Demo_Suites_V2.0.0/GD32F30x_Firmware_Library/GD32F30x_standard_peripheral/Source\gd32f30x_fmc.c ****     fmc_state_enum fmc_state = FMC_READY;
 1885              		.loc 1 325 0
 1886              		.cfi_startproc
 1887              		@ args = 0, pretend = 0, frame = 0
 1888              		@ frame_needed = 0, uses_anonymous_args = 0
 1889              	.LVL162:
 1890 0000 70B5     		push	{r4, r5, r6, lr}
 1891              	.LCFI11:
 1892              		.cfi_def_cfa_offset 16
 1893              		.cfi_offset 4, -16
 1894              		.cfi_offset 5, -12
 1895              		.cfi_offset 6, -8
 1896              		.cfi_offset 14, -4
 1897 0002 0446     		mov	r4, r0
 1898 0004 0D46     		mov	r5, r1
 1899              	.LVL163:
 327:C:/Users/49542/Desktop/GD32F30x_Demo_Suites_V2.0.0/GD32F30x_Demo_Suites_V2.0.0/GD32F30x_Firmware_Library/GD32F30x_standard_peripheral/Source\gd32f30x_fmc.c ****         if(FMC_BANK0_END_ADDRESS > address){
 1900              		.loc 1 327 0
 1901 0006 274B     		ldr	r3, .L173
 1902 0008 1B88     		ldrh	r3, [r3]
 1903 000a B3F5007F 		cmp	r3, #512
 1904 000e 31D9     		bls	.L168
 328:C:/Users/49542/Desktop/GD32F30x_Demo_Suites_V2.0.0/GD32F30x_Demo_Suites_V2.0.0/GD32F30x_Firmware_Library/GD32F30x_standard_peripheral/Source\gd32f30x_fmc.c ****             fmc_state = fmc_bank0_ready_wait(FMC_TIMEOUT_COUNT); 
 1905              		.loc 1 328 0
 1906 0010 254B     		ldr	r3, .L173+4
 1907 0012 9842     		cmp	r0, r3
 1908 0014 17D8     		bhi	.L169
 329:C:/Users/49542/Desktop/GD32F30x_Demo_Suites_V2.0.0/GD32F30x_Demo_Suites_V2.0.0/GD32F30x_Firmware_Library/GD32F30x_standard_peripheral/Source\gd32f30x_fmc.c ****   
 1909              		.loc 1 329 0
 1910 0016 4FF47020 		mov	r0, #983040
 1911              	.LVL164:
 1912 001a FFF7FEFF 		bl	fmc_bank0_ready_wait
 1913              	.LVL165:
 331:C:/Users/49542/Desktop/GD32F30x_Demo_Suites_V2.0.0/GD32F30x_Demo_Suites_V2.0.0/GD32F30x_Firmware_Library/GD32F30x_standard_peripheral/Source\gd32f30x_fmc.c ****                 /* set the PG bit to start program */
 1914              		.loc 1 331 0
 1915 001e 0346     		mov	r3, r0
ARM GAS  C:\Users\49542\AppData\Local\Temp\cceCZdNg.s 			page 54


 1916 0020 08B1     		cbz	r0, .L172
 1917              	.LVL166:
 1918              	.L170:
 368:C:/Users/49542/Desktop/GD32F30x_Demo_Suites_V2.0.0/GD32F30x_Demo_Suites_V2.0.0/GD32F30x_Firmware_Library/GD32F30x_standard_peripheral/Source\gd32f30x_fmc.c **** 
 1919              		.loc 1 368 0
 1920 0022 1846     		mov	r0, r3
 1921 0024 70BD     		pop	{r4, r5, r6, pc}
 1922              	.LVL167:
 1923              	.L172:
 333:C:/Users/49542/Desktop/GD32F30x_Demo_Suites_V2.0.0/GD32F30x_Demo_Suites_V2.0.0/GD32F30x_Firmware_Library/GD32F30x_standard_peripheral/Source\gd32f30x_fmc.c ****                 REG32(address) = data;
 1924              		.loc 1 333 0
 1925 0026 214E     		ldr	r6, .L173+8
 1926 0028 3368     		ldr	r3, [r6]
 1927 002a 43F00103 		orr	r3, r3, #1
 1928 002e 3360     		str	r3, [r6]
 334:C:/Users/49542/Desktop/GD32F30x_Demo_Suites_V2.0.0/GD32F30x_Demo_Suites_V2.0.0/GD32F30x_Firmware_Library/GD32F30x_standard_peripheral/Source\gd32f30x_fmc.c ****                 /* wait for the FMC ready */
 1929              		.loc 1 334 0
 1930 0030 2560     		str	r5, [r4]
 336:C:/Users/49542/Desktop/GD32F30x_Demo_Suites_V2.0.0/GD32F30x_Demo_Suites_V2.0.0/GD32F30x_Firmware_Library/GD32F30x_standard_peripheral/Source\gd32f30x_fmc.c ****                 /* reset the PG bit */
 1931              		.loc 1 336 0
 1932 0032 4FF47020 		mov	r0, #983040
 1933              	.LVL168:
 1934 0036 FFF7FEFF 		bl	fmc_bank0_ready_wait
 1935              	.LVL169:
 1936 003a 0346     		mov	r3, r0
 1937              	.LVL170:
 338:C:/Users/49542/Desktop/GD32F30x_Demo_Suites_V2.0.0/GD32F30x_Demo_Suites_V2.0.0/GD32F30x_Firmware_Library/GD32F30x_standard_peripheral/Source\gd32f30x_fmc.c ****             }
 1938              		.loc 1 338 0
 1939 003c 3268     		ldr	r2, [r6]
 1940 003e 22F00102 		bic	r2, r2, #1
 1941 0042 3260     		str	r2, [r6]
 1942 0044 EDE7     		b	.L170
 1943              	.LVL171:
 1944              	.L169:
 341:C:/Users/49542/Desktop/GD32F30x_Demo_Suites_V2.0.0/GD32F30x_Demo_Suites_V2.0.0/GD32F30x_Firmware_Library/GD32F30x_standard_peripheral/Source\gd32f30x_fmc.c ****   
 1945              		.loc 1 341 0
 1946 0046 4FF47020 		mov	r0, #983040
 1947              	.LVL172:
 1948 004a FFF7FEFF 		bl	fmc_bank1_ready_wait
 1949              	.LVL173:
 343:C:/Users/49542/Desktop/GD32F30x_Demo_Suites_V2.0.0/GD32F30x_Demo_Suites_V2.0.0/GD32F30x_Firmware_Library/GD32F30x_standard_peripheral/Source\gd32f30x_fmc.c ****                 /* set the PG bit to start program */
 1950              		.loc 1 343 0
 1951 004e 0346     		mov	r3, r0
 1952 0050 0028     		cmp	r0, #0
 1953 0052 E6D1     		bne	.L170
 345:C:/Users/49542/Desktop/GD32F30x_Demo_Suites_V2.0.0/GD32F30x_Demo_Suites_V2.0.0/GD32F30x_Firmware_Library/GD32F30x_standard_peripheral/Source\gd32f30x_fmc.c ****                 REG32(address) = data;
 1954              		.loc 1 345 0
 1955 0054 164E     		ldr	r6, .L173+12
 1956 0056 3368     		ldr	r3, [r6]
 1957 0058 43F00103 		orr	r3, r3, #1
 1958 005c 3360     		str	r3, [r6]
 346:C:/Users/49542/Desktop/GD32F30x_Demo_Suites_V2.0.0/GD32F30x_Demo_Suites_V2.0.0/GD32F30x_Firmware_Library/GD32F30x_standard_peripheral/Source\gd32f30x_fmc.c ****                 /* wait for the FMC ready */
 1959              		.loc 1 346 0
 1960 005e 2560     		str	r5, [r4]
 348:C:/Users/49542/Desktop/GD32F30x_Demo_Suites_V2.0.0/GD32F30x_Demo_Suites_V2.0.0/GD32F30x_Firmware_Library/GD32F30x_standard_peripheral/Source\gd32f30x_fmc.c ****                 /* reset the PG bit */
 1961              		.loc 1 348 0
 1962 0060 4FF47020 		mov	r0, #983040
ARM GAS  C:\Users\49542\AppData\Local\Temp\cceCZdNg.s 			page 55


 1963              	.LVL174:
 1964 0064 FFF7FEFF 		bl	fmc_bank1_ready_wait
 1965              	.LVL175:
 1966 0068 0346     		mov	r3, r0
 1967              	.LVL176:
 350:C:/Users/49542/Desktop/GD32F30x_Demo_Suites_V2.0.0/GD32F30x_Demo_Suites_V2.0.0/GD32F30x_Firmware_Library/GD32F30x_standard_peripheral/Source\gd32f30x_fmc.c ****             }
 1968              		.loc 1 350 0
 1969 006a 3268     		ldr	r2, [r6]
 1970 006c 22F00102 		bic	r2, r2, #1
 1971 0070 3260     		str	r2, [r6]
 1972 0072 D6E7     		b	.L170
 1973              	.LVL177:
 1974              	.L168:
 354:C:/Users/49542/Desktop/GD32F30x_Demo_Suites_V2.0.0/GD32F30x_Demo_Suites_V2.0.0/GD32F30x_Firmware_Library/GD32F30x_standard_peripheral/Source\gd32f30x_fmc.c ****   
 1975              		.loc 1 354 0
 1976 0074 4FF47020 		mov	r0, #983040
 1977              	.LVL178:
 1978 0078 FFF7FEFF 		bl	fmc_bank0_ready_wait
 1979              	.LVL179:
 356:C:/Users/49542/Desktop/GD32F30x_Demo_Suites_V2.0.0/GD32F30x_Demo_Suites_V2.0.0/GD32F30x_Firmware_Library/GD32F30x_standard_peripheral/Source\gd32f30x_fmc.c ****             /* set the PG bit to start program */
 1980              		.loc 1 356 0
 1981 007c 0346     		mov	r3, r0
 1982 007e 0028     		cmp	r0, #0
 1983 0080 CFD1     		bne	.L170
 358:C:/Users/49542/Desktop/GD32F30x_Demo_Suites_V2.0.0/GD32F30x_Demo_Suites_V2.0.0/GD32F30x_Firmware_Library/GD32F30x_standard_peripheral/Source\gd32f30x_fmc.c ****             REG32(address) = data;
 1984              		.loc 1 358 0
 1985 0082 0A4E     		ldr	r6, .L173+8
 1986 0084 3368     		ldr	r3, [r6]
 1987 0086 43F00103 		orr	r3, r3, #1
 1988 008a 3360     		str	r3, [r6]
 359:C:/Users/49542/Desktop/GD32F30x_Demo_Suites_V2.0.0/GD32F30x_Demo_Suites_V2.0.0/GD32F30x_Firmware_Library/GD32F30x_standard_peripheral/Source\gd32f30x_fmc.c ****             /* wait for the FMC ready */
 1989              		.loc 1 359 0
 1990 008c 2560     		str	r5, [r4]
 361:C:/Users/49542/Desktop/GD32F30x_Demo_Suites_V2.0.0/GD32F30x_Demo_Suites_V2.0.0/GD32F30x_Firmware_Library/GD32F30x_standard_peripheral/Source\gd32f30x_fmc.c ****             /* reset the PG bit */
 1991              		.loc 1 361 0
 1992 008e 4FF47020 		mov	r0, #983040
 1993              	.LVL180:
 1994 0092 FFF7FEFF 		bl	fmc_bank0_ready_wait
 1995              	.LVL181:
 1996 0096 0346     		mov	r3, r0
 1997              	.LVL182:
 363:C:/Users/49542/Desktop/GD32F30x_Demo_Suites_V2.0.0/GD32F30x_Demo_Suites_V2.0.0/GD32F30x_Firmware_Library/GD32F30x_standard_peripheral/Source\gd32f30x_fmc.c ****         } 
 1998              		.loc 1 363 0
 1999 0098 3268     		ldr	r2, [r6]
 2000 009a 22F00102 		bic	r2, r2, #1
 2001 009e 3260     		str	r2, [r6]
 2002 00a0 BFE7     		b	.L170
 2003              	.L174:
 2004 00a2 00BF     		.align	2
 2005              	.L173:
 2006 00a4 E0F7FF1F 		.word	536868832
 2007 00a8 FEFF0708 		.word	134742014
 2008 00ac 10200240 		.word	1073881104
 2009 00b0 50200240 		.word	1073881168
 2010              		.cfi_endproc
 2011              	.LFE127:
 2013              		.section	.text.fmc_halfword_program,"ax",%progbits
ARM GAS  C:\Users\49542\AppData\Local\Temp\cceCZdNg.s 			page 56


 2014              		.align	1
 2015              		.global	fmc_halfword_program
 2016              		.syntax unified
 2017              		.thumb
 2018              		.thumb_func
 2019              		.fpu fpv4-sp-d16
 2021              	fmc_halfword_program:
 2022              	.LFB128:
 378:C:/Users/49542/Desktop/GD32F30x_Demo_Suites_V2.0.0/GD32F30x_Demo_Suites_V2.0.0/GD32F30x_Firmware_Library/GD32F30x_standard_peripheral/Source\gd32f30x_fmc.c ****     fmc_state_enum fmc_state = FMC_READY;
 2023              		.loc 1 378 0
 2024              		.cfi_startproc
 2025              		@ args = 0, pretend = 0, frame = 0
 2026              		@ frame_needed = 0, uses_anonymous_args = 0
 2027              	.LVL183:
 2028 0000 70B5     		push	{r4, r5, r6, lr}
 2029              	.LCFI12:
 2030              		.cfi_def_cfa_offset 16
 2031              		.cfi_offset 4, -16
 2032              		.cfi_offset 5, -12
 2033              		.cfi_offset 6, -8
 2034              		.cfi_offset 14, -4
 2035 0002 0446     		mov	r4, r0
 2036 0004 0D46     		mov	r5, r1
 2037              	.LVL184:
 380:C:/Users/49542/Desktop/GD32F30x_Demo_Suites_V2.0.0/GD32F30x_Demo_Suites_V2.0.0/GD32F30x_Firmware_Library/GD32F30x_standard_peripheral/Source\gd32f30x_fmc.c ****         if(FMC_BANK0_END_ADDRESS > address){
 2038              		.loc 1 380 0
 2039 0006 274B     		ldr	r3, .L181
 2040 0008 1B88     		ldrh	r3, [r3]
 2041 000a B3F5007F 		cmp	r3, #512
 2042 000e 31D9     		bls	.L176
 381:C:/Users/49542/Desktop/GD32F30x_Demo_Suites_V2.0.0/GD32F30x_Demo_Suites_V2.0.0/GD32F30x_Firmware_Library/GD32F30x_standard_peripheral/Source\gd32f30x_fmc.c ****             fmc_state = fmc_bank0_ready_wait(FMC_TIMEOUT_COUNT); 
 2043              		.loc 1 381 0
 2044 0010 254B     		ldr	r3, .L181+4
 2045 0012 9842     		cmp	r0, r3
 2046 0014 17D8     		bhi	.L177
 382:C:/Users/49542/Desktop/GD32F30x_Demo_Suites_V2.0.0/GD32F30x_Demo_Suites_V2.0.0/GD32F30x_Firmware_Library/GD32F30x_standard_peripheral/Source\gd32f30x_fmc.c ****   
 2047              		.loc 1 382 0
 2048 0016 4FF47020 		mov	r0, #983040
 2049              	.LVL185:
 2050 001a FFF7FEFF 		bl	fmc_bank0_ready_wait
 2051              	.LVL186:
 384:C:/Users/49542/Desktop/GD32F30x_Demo_Suites_V2.0.0/GD32F30x_Demo_Suites_V2.0.0/GD32F30x_Firmware_Library/GD32F30x_standard_peripheral/Source\gd32f30x_fmc.c ****                 /* set the PG bit to start program */
 2052              		.loc 1 384 0
 2053 001e 0346     		mov	r3, r0
 2054 0020 08B1     		cbz	r0, .L180
 2055              	.LVL187:
 2056              	.L178:
 421:C:/Users/49542/Desktop/GD32F30x_Demo_Suites_V2.0.0/GD32F30x_Demo_Suites_V2.0.0/GD32F30x_Firmware_Library/GD32F30x_standard_peripheral/Source\gd32f30x_fmc.c **** 
 2057              		.loc 1 421 0
 2058 0022 1846     		mov	r0, r3
 2059 0024 70BD     		pop	{r4, r5, r6, pc}
 2060              	.LVL188:
 2061              	.L180:
 386:C:/Users/49542/Desktop/GD32F30x_Demo_Suites_V2.0.0/GD32F30x_Demo_Suites_V2.0.0/GD32F30x_Firmware_Library/GD32F30x_standard_peripheral/Source\gd32f30x_fmc.c ****                 REG16(address) = data;
 2062              		.loc 1 386 0
 2063 0026 214E     		ldr	r6, .L181+8
 2064 0028 3368     		ldr	r3, [r6]
ARM GAS  C:\Users\49542\AppData\Local\Temp\cceCZdNg.s 			page 57


 2065 002a 43F00103 		orr	r3, r3, #1
 2066 002e 3360     		str	r3, [r6]
 387:C:/Users/49542/Desktop/GD32F30x_Demo_Suites_V2.0.0/GD32F30x_Demo_Suites_V2.0.0/GD32F30x_Firmware_Library/GD32F30x_standard_peripheral/Source\gd32f30x_fmc.c ****                 /* wait for the FMC ready */
 2067              		.loc 1 387 0
 2068 0030 2580     		strh	r5, [r4]	@ movhi
 389:C:/Users/49542/Desktop/GD32F30x_Demo_Suites_V2.0.0/GD32F30x_Demo_Suites_V2.0.0/GD32F30x_Firmware_Library/GD32F30x_standard_peripheral/Source\gd32f30x_fmc.c ****                 /* reset the PG bit */
 2069              		.loc 1 389 0
 2070 0032 4FF47020 		mov	r0, #983040
 2071              	.LVL189:
 2072 0036 FFF7FEFF 		bl	fmc_bank0_ready_wait
 2073              	.LVL190:
 2074 003a 0346     		mov	r3, r0
 2075              	.LVL191:
 391:C:/Users/49542/Desktop/GD32F30x_Demo_Suites_V2.0.0/GD32F30x_Demo_Suites_V2.0.0/GD32F30x_Firmware_Library/GD32F30x_standard_peripheral/Source\gd32f30x_fmc.c ****             }
 2076              		.loc 1 391 0
 2077 003c 3268     		ldr	r2, [r6]
 2078 003e 22F00102 		bic	r2, r2, #1
 2079 0042 3260     		str	r2, [r6]
 2080 0044 EDE7     		b	.L178
 2081              	.LVL192:
 2082              	.L177:
 394:C:/Users/49542/Desktop/GD32F30x_Demo_Suites_V2.0.0/GD32F30x_Demo_Suites_V2.0.0/GD32F30x_Firmware_Library/GD32F30x_standard_peripheral/Source\gd32f30x_fmc.c ****   
 2083              		.loc 1 394 0
 2084 0046 4FF47020 		mov	r0, #983040
 2085              	.LVL193:
 2086 004a FFF7FEFF 		bl	fmc_bank1_ready_wait
 2087              	.LVL194:
 396:C:/Users/49542/Desktop/GD32F30x_Demo_Suites_V2.0.0/GD32F30x_Demo_Suites_V2.0.0/GD32F30x_Firmware_Library/GD32F30x_standard_peripheral/Source\gd32f30x_fmc.c ****                 /* set the PG bit to start program */
 2088              		.loc 1 396 0
 2089 004e 0346     		mov	r3, r0
 2090 0050 0028     		cmp	r0, #0
 2091 0052 E6D1     		bne	.L178
 398:C:/Users/49542/Desktop/GD32F30x_Demo_Suites_V2.0.0/GD32F30x_Demo_Suites_V2.0.0/GD32F30x_Firmware_Library/GD32F30x_standard_peripheral/Source\gd32f30x_fmc.c ****                 REG16(address) = data;
 2092              		.loc 1 398 0
 2093 0054 164E     		ldr	r6, .L181+12
 2094 0056 3368     		ldr	r3, [r6]
 2095 0058 43F00103 		orr	r3, r3, #1
 2096 005c 3360     		str	r3, [r6]
 399:C:/Users/49542/Desktop/GD32F30x_Demo_Suites_V2.0.0/GD32F30x_Demo_Suites_V2.0.0/GD32F30x_Firmware_Library/GD32F30x_standard_peripheral/Source\gd32f30x_fmc.c ****                 /* wait for the FMC ready */
 2097              		.loc 1 399 0
 2098 005e 2580     		strh	r5, [r4]	@ movhi
 401:C:/Users/49542/Desktop/GD32F30x_Demo_Suites_V2.0.0/GD32F30x_Demo_Suites_V2.0.0/GD32F30x_Firmware_Library/GD32F30x_standard_peripheral/Source\gd32f30x_fmc.c ****                 /* reset the PG bit */
 2099              		.loc 1 401 0
 2100 0060 4FF47020 		mov	r0, #983040
 2101              	.LVL195:
 2102 0064 FFF7FEFF 		bl	fmc_bank1_ready_wait
 2103              	.LVL196:
 2104 0068 0346     		mov	r3, r0
 2105              	.LVL197:
 403:C:/Users/49542/Desktop/GD32F30x_Demo_Suites_V2.0.0/GD32F30x_Demo_Suites_V2.0.0/GD32F30x_Firmware_Library/GD32F30x_standard_peripheral/Source\gd32f30x_fmc.c ****             }
 2106              		.loc 1 403 0
 2107 006a 3268     		ldr	r2, [r6]
 2108 006c 22F00102 		bic	r2, r2, #1
 2109 0070 3260     		str	r2, [r6]
 2110 0072 D6E7     		b	.L178
 2111              	.LVL198:
 2112              	.L176:
ARM GAS  C:\Users\49542\AppData\Local\Temp\cceCZdNg.s 			page 58


 407:C:/Users/49542/Desktop/GD32F30x_Demo_Suites_V2.0.0/GD32F30x_Demo_Suites_V2.0.0/GD32F30x_Firmware_Library/GD32F30x_standard_peripheral/Source\gd32f30x_fmc.c ****   
 2113              		.loc 1 407 0
 2114 0074 4FF47020 		mov	r0, #983040
 2115              	.LVL199:
 2116 0078 FFF7FEFF 		bl	fmc_bank0_ready_wait
 2117              	.LVL200:
 409:C:/Users/49542/Desktop/GD32F30x_Demo_Suites_V2.0.0/GD32F30x_Demo_Suites_V2.0.0/GD32F30x_Firmware_Library/GD32F30x_standard_peripheral/Source\gd32f30x_fmc.c ****             /* set the PG bit to start program */
 2118              		.loc 1 409 0
 2119 007c 0346     		mov	r3, r0
 2120 007e 0028     		cmp	r0, #0
 2121 0080 CFD1     		bne	.L178
 411:C:/Users/49542/Desktop/GD32F30x_Demo_Suites_V2.0.0/GD32F30x_Demo_Suites_V2.0.0/GD32F30x_Firmware_Library/GD32F30x_standard_peripheral/Source\gd32f30x_fmc.c ****             REG16(address) = data;
 2122              		.loc 1 411 0
 2123 0082 0A4E     		ldr	r6, .L181+8
 2124 0084 3368     		ldr	r3, [r6]
 2125 0086 43F00103 		orr	r3, r3, #1
 2126 008a 3360     		str	r3, [r6]
 412:C:/Users/49542/Desktop/GD32F30x_Demo_Suites_V2.0.0/GD32F30x_Demo_Suites_V2.0.0/GD32F30x_Firmware_Library/GD32F30x_standard_peripheral/Source\gd32f30x_fmc.c ****             /* wait for the FMC ready */
 2127              		.loc 1 412 0
 2128 008c 2580     		strh	r5, [r4]	@ movhi
 414:C:/Users/49542/Desktop/GD32F30x_Demo_Suites_V2.0.0/GD32F30x_Demo_Suites_V2.0.0/GD32F30x_Firmware_Library/GD32F30x_standard_peripheral/Source\gd32f30x_fmc.c ****             /* reset the PG bit */
 2129              		.loc 1 414 0
 2130 008e 4FF47020 		mov	r0, #983040
 2131              	.LVL201:
 2132 0092 FFF7FEFF 		bl	fmc_bank0_ready_wait
 2133              	.LVL202:
 2134 0096 0346     		mov	r3, r0
 2135              	.LVL203:
 416:C:/Users/49542/Desktop/GD32F30x_Demo_Suites_V2.0.0/GD32F30x_Demo_Suites_V2.0.0/GD32F30x_Firmware_Library/GD32F30x_standard_peripheral/Source\gd32f30x_fmc.c ****         } 
 2136              		.loc 1 416 0
 2137 0098 3268     		ldr	r2, [r6]
 2138 009a 22F00102 		bic	r2, r2, #1
 2139 009e 3260     		str	r2, [r6]
 2140 00a0 BFE7     		b	.L178
 2141              	.L182:
 2142 00a2 00BF     		.align	2
 2143              	.L181:
 2144 00a4 E0F7FF1F 		.word	536868832
 2145 00a8 FEFF0708 		.word	134742014
 2146 00ac 10200240 		.word	1073881104
 2147 00b0 50200240 		.word	1073881168
 2148              		.cfi_endproc
 2149              	.LFE128:
 2151              		.section	.text.fmc_word_reprogram,"ax",%progbits
 2152              		.align	1
 2153              		.global	fmc_word_reprogram
 2154              		.syntax unified
 2155              		.thumb
 2156              		.thumb_func
 2157              		.fpu fpv4-sp-d16
 2159              	fmc_word_reprogram:
 2160              	.LFB129:
 431:C:/Users/49542/Desktop/GD32F30x_Demo_Suites_V2.0.0/GD32F30x_Demo_Suites_V2.0.0/GD32F30x_Firmware_Library/GD32F30x_standard_peripheral/Source\gd32f30x_fmc.c ****     fmc_state_enum fmc_state = FMC_READY;
 2161              		.loc 1 431 0
 2162              		.cfi_startproc
 2163              		@ args = 0, pretend = 0, frame = 0
 2164              		@ frame_needed = 0, uses_anonymous_args = 0
ARM GAS  C:\Users\49542\AppData\Local\Temp\cceCZdNg.s 			page 59


 2165              	.LVL204:
 2166 0000 70B5     		push	{r4, r5, r6, lr}
 2167              	.LCFI13:
 2168              		.cfi_def_cfa_offset 16
 2169              		.cfi_offset 4, -16
 2170              		.cfi_offset 5, -12
 2171              		.cfi_offset 6, -8
 2172              		.cfi_offset 14, -4
 2173 0002 0446     		mov	r4, r0
 2174 0004 0D46     		mov	r5, r1
 2175              	.LVL205:
 433:C:/Users/49542/Desktop/GD32F30x_Demo_Suites_V2.0.0/GD32F30x_Demo_Suites_V2.0.0/GD32F30x_Firmware_Library/GD32F30x_standard_peripheral/Source\gd32f30x_fmc.c ****         if(FMC_BANK0_END_ADDRESS > address){
 2176              		.loc 1 433 0
 2177 0006 2E4B     		ldr	r3, .L189
 2178 0008 1B88     		ldrh	r3, [r3]
 2179 000a B3F5007F 		cmp	r3, #512
 2180 000e 3BD9     		bls	.L184
 434:C:/Users/49542/Desktop/GD32F30x_Demo_Suites_V2.0.0/GD32F30x_Demo_Suites_V2.0.0/GD32F30x_Firmware_Library/GD32F30x_standard_peripheral/Source\gd32f30x_fmc.c ****             fmc_state = fmc_bank0_ready_wait(FMC_TIMEOUT_COUNT); 
 2181              		.loc 1 434 0
 2182 0010 2C4B     		ldr	r3, .L189+4
 2183 0012 9842     		cmp	r0, r3
 2184 0014 1CD8     		bhi	.L185
 435:C:/Users/49542/Desktop/GD32F30x_Demo_Suites_V2.0.0/GD32F30x_Demo_Suites_V2.0.0/GD32F30x_Firmware_Library/GD32F30x_standard_peripheral/Source\gd32f30x_fmc.c ****             FMC_WSEN |= FMC_WSEN_BPEN;
 2185              		.loc 1 435 0
 2186 0016 4FF47020 		mov	r0, #983040
 2187              	.LVL206:
 2188 001a FFF7FEFF 		bl	fmc_bank0_ready_wait
 2189              	.LVL207:
 436:C:/Users/49542/Desktop/GD32F30x_Demo_Suites_V2.0.0/GD32F30x_Demo_Suites_V2.0.0/GD32F30x_Firmware_Library/GD32F30x_standard_peripheral/Source\gd32f30x_fmc.c ****             if(FMC_READY == fmc_state){
 2190              		.loc 1 436 0
 2191 001e 2A4A     		ldr	r2, .L189+8
 2192 0020 1368     		ldr	r3, [r2]
 2193 0022 43F00203 		orr	r3, r3, #2
 2194 0026 1360     		str	r3, [r2]
 437:C:/Users/49542/Desktop/GD32F30x_Demo_Suites_V2.0.0/GD32F30x_Demo_Suites_V2.0.0/GD32F30x_Firmware_Library/GD32F30x_standard_peripheral/Source\gd32f30x_fmc.c ****                 /* set the PG bit to start program */
 2195              		.loc 1 437 0
 2196 0028 0346     		mov	r3, r0
 2197 002a 08B1     		cbz	r0, .L188
 2198              	.LVL208:
 2199              	.L186:
 474:C:/Users/49542/Desktop/GD32F30x_Demo_Suites_V2.0.0/GD32F30x_Demo_Suites_V2.0.0/GD32F30x_Firmware_Library/GD32F30x_standard_peripheral/Source\gd32f30x_fmc.c **** 
 2200              		.loc 1 474 0
 2201 002c 1846     		mov	r0, r3
 2202 002e 70BD     		pop	{r4, r5, r6, pc}
 2203              	.LVL209:
 2204              	.L188:
 439:C:/Users/49542/Desktop/GD32F30x_Demo_Suites_V2.0.0/GD32F30x_Demo_Suites_V2.0.0/GD32F30x_Firmware_Library/GD32F30x_standard_peripheral/Source\gd32f30x_fmc.c ****                 REG32(address) = data;
 2205              		.loc 1 439 0
 2206 0030 264E     		ldr	r6, .L189+12
 2207 0032 3368     		ldr	r3, [r6]
 2208 0034 43F00103 		orr	r3, r3, #1
 2209 0038 3360     		str	r3, [r6]
 440:C:/Users/49542/Desktop/GD32F30x_Demo_Suites_V2.0.0/GD32F30x_Demo_Suites_V2.0.0/GD32F30x_Firmware_Library/GD32F30x_standard_peripheral/Source\gd32f30x_fmc.c ****                 /* wait for the FMC ready */
 2210              		.loc 1 440 0
 2211 003a 2560     		str	r5, [r4]
 442:C:/Users/49542/Desktop/GD32F30x_Demo_Suites_V2.0.0/GD32F30x_Demo_Suites_V2.0.0/GD32F30x_Firmware_Library/GD32F30x_standard_peripheral/Source\gd32f30x_fmc.c ****                 /* reset the PG bit */
 2212              		.loc 1 442 0
ARM GAS  C:\Users\49542\AppData\Local\Temp\cceCZdNg.s 			page 60


 2213 003c 4FF47020 		mov	r0, #983040
 2214              	.LVL210:
 2215 0040 FFF7FEFF 		bl	fmc_bank0_ready_wait
 2216              	.LVL211:
 2217 0044 0346     		mov	r3, r0
 2218              	.LVL212:
 444:C:/Users/49542/Desktop/GD32F30x_Demo_Suites_V2.0.0/GD32F30x_Demo_Suites_V2.0.0/GD32F30x_Firmware_Library/GD32F30x_standard_peripheral/Source\gd32f30x_fmc.c ****             }
 2219              		.loc 1 444 0
 2220 0046 3268     		ldr	r2, [r6]
 2221 0048 22F00102 		bic	r2, r2, #1
 2222 004c 3260     		str	r2, [r6]
 2223 004e EDE7     		b	.L186
 2224              	.LVL213:
 2225              	.L185:
 447:C:/Users/49542/Desktop/GD32F30x_Demo_Suites_V2.0.0/GD32F30x_Demo_Suites_V2.0.0/GD32F30x_Firmware_Library/GD32F30x_standard_peripheral/Source\gd32f30x_fmc.c ****             FMC_WSEN |= FMC_WSEN_BPEN;
 2226              		.loc 1 447 0
 2227 0050 4FF47020 		mov	r0, #983040
 2228              	.LVL214:
 2229 0054 FFF7FEFF 		bl	fmc_bank1_ready_wait
 2230              	.LVL215:
 448:C:/Users/49542/Desktop/GD32F30x_Demo_Suites_V2.0.0/GD32F30x_Demo_Suites_V2.0.0/GD32F30x_Firmware_Library/GD32F30x_standard_peripheral/Source\gd32f30x_fmc.c ****             if(FMC_READY == fmc_state){
 2231              		.loc 1 448 0
 2232 0058 1B4A     		ldr	r2, .L189+8
 2233 005a 1368     		ldr	r3, [r2]
 2234 005c 43F00203 		orr	r3, r3, #2
 2235 0060 1360     		str	r3, [r2]
 449:C:/Users/49542/Desktop/GD32F30x_Demo_Suites_V2.0.0/GD32F30x_Demo_Suites_V2.0.0/GD32F30x_Firmware_Library/GD32F30x_standard_peripheral/Source\gd32f30x_fmc.c ****                 /* set the PG bit to start program */
 2236              		.loc 1 449 0
 2237 0062 0346     		mov	r3, r0
 2238 0064 0028     		cmp	r0, #0
 2239 0066 E1D1     		bne	.L186
 451:C:/Users/49542/Desktop/GD32F30x_Demo_Suites_V2.0.0/GD32F30x_Demo_Suites_V2.0.0/GD32F30x_Firmware_Library/GD32F30x_standard_peripheral/Source\gd32f30x_fmc.c ****                 REG32(address) = data;
 2240              		.loc 1 451 0
 2241 0068 194E     		ldr	r6, .L189+16
 2242 006a 3368     		ldr	r3, [r6]
 2243 006c 43F00103 		orr	r3, r3, #1
 2244 0070 3360     		str	r3, [r6]
 452:C:/Users/49542/Desktop/GD32F30x_Demo_Suites_V2.0.0/GD32F30x_Demo_Suites_V2.0.0/GD32F30x_Firmware_Library/GD32F30x_standard_peripheral/Source\gd32f30x_fmc.c ****                 /* wait for the FMC ready */
 2245              		.loc 1 452 0
 2246 0072 2560     		str	r5, [r4]
 454:C:/Users/49542/Desktop/GD32F30x_Demo_Suites_V2.0.0/GD32F30x_Demo_Suites_V2.0.0/GD32F30x_Firmware_Library/GD32F30x_standard_peripheral/Source\gd32f30x_fmc.c ****                 /* reset the PG bit */
 2247              		.loc 1 454 0
 2248 0074 4FF47020 		mov	r0, #983040
 2249              	.LVL216:
 2250 0078 FFF7FEFF 		bl	fmc_bank1_ready_wait
 2251              	.LVL217:
 2252 007c 0346     		mov	r3, r0
 2253              	.LVL218:
 456:C:/Users/49542/Desktop/GD32F30x_Demo_Suites_V2.0.0/GD32F30x_Demo_Suites_V2.0.0/GD32F30x_Firmware_Library/GD32F30x_standard_peripheral/Source\gd32f30x_fmc.c ****             }
 2254              		.loc 1 456 0
 2255 007e 3268     		ldr	r2, [r6]
 2256 0080 22F00102 		bic	r2, r2, #1
 2257 0084 3260     		str	r2, [r6]
 2258 0086 D1E7     		b	.L186
 2259              	.LVL219:
 2260              	.L184:
 460:C:/Users/49542/Desktop/GD32F30x_Demo_Suites_V2.0.0/GD32F30x_Demo_Suites_V2.0.0/GD32F30x_Firmware_Library/GD32F30x_standard_peripheral/Source\gd32f30x_fmc.c ****         FMC_WSEN |= FMC_WSEN_BPEN;
ARM GAS  C:\Users\49542\AppData\Local\Temp\cceCZdNg.s 			page 61


 2261              		.loc 1 460 0
 2262 0088 4FF47020 		mov	r0, #983040
 2263              	.LVL220:
 2264 008c FFF7FEFF 		bl	fmc_bank0_ready_wait
 2265              	.LVL221:
 461:C:/Users/49542/Desktop/GD32F30x_Demo_Suites_V2.0.0/GD32F30x_Demo_Suites_V2.0.0/GD32F30x_Firmware_Library/GD32F30x_standard_peripheral/Source\gd32f30x_fmc.c ****         if(FMC_READY == fmc_state){
 2266              		.loc 1 461 0
 2267 0090 0D4A     		ldr	r2, .L189+8
 2268 0092 1368     		ldr	r3, [r2]
 2269 0094 43F00203 		orr	r3, r3, #2
 2270 0098 1360     		str	r3, [r2]
 462:C:/Users/49542/Desktop/GD32F30x_Demo_Suites_V2.0.0/GD32F30x_Demo_Suites_V2.0.0/GD32F30x_Firmware_Library/GD32F30x_standard_peripheral/Source\gd32f30x_fmc.c ****             /* set the PG bit to start program */
 2271              		.loc 1 462 0
 2272 009a 0346     		mov	r3, r0
 2273 009c 0028     		cmp	r0, #0
 2274 009e C5D1     		bne	.L186
 464:C:/Users/49542/Desktop/GD32F30x_Demo_Suites_V2.0.0/GD32F30x_Demo_Suites_V2.0.0/GD32F30x_Firmware_Library/GD32F30x_standard_peripheral/Source\gd32f30x_fmc.c ****             REG32(address) = data;
 2275              		.loc 1 464 0
 2276 00a0 0A4E     		ldr	r6, .L189+12
 2277 00a2 3368     		ldr	r3, [r6]
 2278 00a4 43F00103 		orr	r3, r3, #1
 2279 00a8 3360     		str	r3, [r6]
 465:C:/Users/49542/Desktop/GD32F30x_Demo_Suites_V2.0.0/GD32F30x_Demo_Suites_V2.0.0/GD32F30x_Firmware_Library/GD32F30x_standard_peripheral/Source\gd32f30x_fmc.c ****             /* wait for the FMC ready */
 2280              		.loc 1 465 0
 2281 00aa 2560     		str	r5, [r4]
 467:C:/Users/49542/Desktop/GD32F30x_Demo_Suites_V2.0.0/GD32F30x_Demo_Suites_V2.0.0/GD32F30x_Firmware_Library/GD32F30x_standard_peripheral/Source\gd32f30x_fmc.c ****             /* reset the PG bit */
 2282              		.loc 1 467 0
 2283 00ac 4FF47020 		mov	r0, #983040
 2284              	.LVL222:
 2285 00b0 FFF7FEFF 		bl	fmc_bank0_ready_wait
 2286              	.LVL223:
 2287 00b4 0346     		mov	r3, r0
 2288              	.LVL224:
 469:C:/Users/49542/Desktop/GD32F30x_Demo_Suites_V2.0.0/GD32F30x_Demo_Suites_V2.0.0/GD32F30x_Firmware_Library/GD32F30x_standard_peripheral/Source\gd32f30x_fmc.c ****         } 
 2289              		.loc 1 469 0
 2290 00b6 3268     		ldr	r2, [r6]
 2291 00b8 22F00102 		bic	r2, r2, #1
 2292 00bc 3260     		str	r2, [r6]
 2293 00be B5E7     		b	.L186
 2294              	.L190:
 2295              		.align	2
 2296              	.L189:
 2297 00c0 E0F7FF1F 		.word	536868832
 2298 00c4 FEFF0708 		.word	134742014
 2299 00c8 FC200240 		.word	1073881340
 2300 00cc 10200240 		.word	1073881104
 2301 00d0 50200240 		.word	1073881168
 2302              		.cfi_endproc
 2303              	.LFE129:
 2305              		.text
 2306              	.Letext0:
 2307              		.file 2 "c:\\users\\49542\\opensourcetools\\gnu tools arm embedded\\7 2018-q2-update\\arm-none-eab
 2308              		.file 3 "c:\\users\\49542\\opensourcetools\\gnu tools arm embedded\\7 2018-q2-update\\arm-none-eab
 2309              		.file 4 "C:/Users/49542/Desktop/GD32F30x_Demo_Suites_V2.0.0/GD32F30x_Demo_Suites_V2.0.0/GD32F30x_F
 2310              		.file 5 "C:/Users/49542/Desktop/GD32F30x_Demo_Suites_V2.0.0/GD32F30x_Demo_Suites_V2.0.0/GD32F30x_F
 2311              		.file 6 "C:/Users/49542/Desktop/GD32F30x_Demo_Suites_V2.0.0/GD32F30x_Demo_Suites_V2.0.0/GD32F30x_F
 2312              		.file 7 "C:/Users/49542/Desktop/GD32F30x_Demo_Suites_V2.0.0/GD32F30x_Demo_Suites_V2.0.0/GD32F30x_F
ARM GAS  C:\Users\49542\AppData\Local\Temp\cceCZdNg.s 			page 62


ARM GAS  C:\Users\49542\AppData\Local\Temp\cceCZdNg.s 			page 63


DEFINED SYMBOLS
                            *ABS*:00000000 gd32f30x_fmc.c
C:\Users\49542\AppData\Local\Temp\cceCZdNg.s:18     .text.fmc_wscnt_set:00000000 $t
C:\Users\49542\AppData\Local\Temp\cceCZdNg.s:25     .text.fmc_wscnt_set:00000000 fmc_wscnt_set
C:\Users\49542\AppData\Local\Temp\cceCZdNg.s:50     .text.fmc_wscnt_set:00000010 $d
C:\Users\49542\AppData\Local\Temp\cceCZdNg.s:55     .text.fmc_unlock:00000000 $t
C:\Users\49542\AppData\Local\Temp\cceCZdNg.s:62     .text.fmc_unlock:00000000 fmc_unlock
C:\Users\49542\AppData\Local\Temp\cceCZdNg.s:105    .text.fmc_unlock:00000038 $d
C:\Users\49542\AppData\Local\Temp\cceCZdNg.s:115    .text.fmc_bank0_unlock:00000000 $t
C:\Users\49542\AppData\Local\Temp\cceCZdNg.s:122    .text.fmc_bank0_unlock:00000000 fmc_bank0_unlock
C:\Users\49542\AppData\Local\Temp\cceCZdNg.s:147    .text.fmc_bank0_unlock:00000018 $d
C:\Users\49542\AppData\Local\Temp\cceCZdNg.s:154    .text.fmc_bank1_unlock:00000000 $t
C:\Users\49542\AppData\Local\Temp\cceCZdNg.s:161    .text.fmc_bank1_unlock:00000000 fmc_bank1_unlock
C:\Users\49542\AppData\Local\Temp\cceCZdNg.s:186    .text.fmc_bank1_unlock:00000018 $d
C:\Users\49542\AppData\Local\Temp\cceCZdNg.s:193    .text.fmc_lock:00000000 $t
C:\Users\49542\AppData\Local\Temp\cceCZdNg.s:200    .text.fmc_lock:00000000 fmc_lock
C:\Users\49542\AppData\Local\Temp\cceCZdNg.s:228    .text.fmc_lock:00000020 $d
C:\Users\49542\AppData\Local\Temp\cceCZdNg.s:234    .text.fmc_bank0_lock:00000000 $t
C:\Users\49542\AppData\Local\Temp\cceCZdNg.s:241    .text.fmc_bank0_lock:00000000 fmc_bank0_lock
C:\Users\49542\AppData\Local\Temp\cceCZdNg.s:258    .text.fmc_bank0_lock:0000000c $d
C:\Users\49542\AppData\Local\Temp\cceCZdNg.s:263    .text.fmc_bank1_lock:00000000 $t
C:\Users\49542\AppData\Local\Temp\cceCZdNg.s:270    .text.fmc_bank1_lock:00000000 fmc_bank1_lock
C:\Users\49542\AppData\Local\Temp\cceCZdNg.s:287    .text.fmc_bank1_lock:0000000c $d
C:\Users\49542\AppData\Local\Temp\cceCZdNg.s:292    .text.ob_unlock:00000000 $t
C:\Users\49542\AppData\Local\Temp\cceCZdNg.s:299    .text.ob_unlock:00000000 ob_unlock
C:\Users\49542\AppData\Local\Temp\cceCZdNg.s:324    .text.ob_unlock:00000018 $d
C:\Users\49542\AppData\Local\Temp\cceCZdNg.s:331    .text.ob_lock:00000000 $t
C:\Users\49542\AppData\Local\Temp\cceCZdNg.s:338    .text.ob_lock:00000000 ob_lock
C:\Users\49542\AppData\Local\Temp\cceCZdNg.s:355    .text.ob_lock:0000000c $d
C:\Users\49542\AppData\Local\Temp\cceCZdNg.s:360    .text.ob_user_get:00000000 $t
C:\Users\49542\AppData\Local\Temp\cceCZdNg.s:367    .text.ob_user_get:00000000 ob_user_get
C:\Users\49542\AppData\Local\Temp\cceCZdNg.s:383    .text.ob_user_get:0000000c $d
C:\Users\49542\AppData\Local\Temp\cceCZdNg.s:388    .text.ob_data_get:00000000 $t
C:\Users\49542\AppData\Local\Temp\cceCZdNg.s:395    .text.ob_data_get:00000000 ob_data_get
C:\Users\49542\AppData\Local\Temp\cceCZdNg.s:411    .text.ob_data_get:0000000c $d
C:\Users\49542\AppData\Local\Temp\cceCZdNg.s:416    .text.ob_write_protection_get:00000000 $t
C:\Users\49542\AppData\Local\Temp\cceCZdNg.s:423    .text.ob_write_protection_get:00000000 ob_write_protection_get
C:\Users\49542\AppData\Local\Temp\cceCZdNg.s:438    .text.ob_write_protection_get:00000008 $d
C:\Users\49542\AppData\Local\Temp\cceCZdNg.s:443    .text.ob_spc_get:00000000 $t
C:\Users\49542\AppData\Local\Temp\cceCZdNg.s:450    .text.ob_spc_get:00000000 ob_spc_get
C:\Users\49542\AppData\Local\Temp\cceCZdNg.s:476    .text.ob_spc_get:00000014 $d
C:\Users\49542\AppData\Local\Temp\cceCZdNg.s:481    .text.fmc_interrupt_enable:00000000 $t
C:\Users\49542\AppData\Local\Temp\cceCZdNg.s:488    .text.fmc_interrupt_enable:00000000 fmc_interrupt_enable
C:\Users\49542\AppData\Local\Temp\cceCZdNg.s:513    .text.fmc_interrupt_disable:00000000 $t
C:\Users\49542\AppData\Local\Temp\cceCZdNg.s:520    .text.fmc_interrupt_disable:00000000 fmc_interrupt_disable
C:\Users\49542\AppData\Local\Temp\cceCZdNg.s:545    .text.fmc_flag_get:00000000 $t
C:\Users\49542\AppData\Local\Temp\cceCZdNg.s:552    .text.fmc_flag_get:00000000 fmc_flag_get
C:\Users\49542\AppData\Local\Temp\cceCZdNg.s:582    .text.fmc_flag_clear:00000000 $t
C:\Users\49542\AppData\Local\Temp\cceCZdNg.s:589    .text.fmc_flag_clear:00000000 fmc_flag_clear
C:\Users\49542\AppData\Local\Temp\cceCZdNg.s:614    .text.fmc_interrupt_flag_get:00000000 $t
C:\Users\49542\AppData\Local\Temp\cceCZdNg.s:621    .text.fmc_interrupt_flag_get:00000000 fmc_interrupt_flag_get
C:\Users\49542\AppData\Local\Temp\cceCZdNg.s:695    .text.fmc_interrupt_flag_get:00000068 $d
C:\Users\49542\AppData\Local\Temp\cceCZdNg.s:701    .text.fmc_interrupt_flag_clear:00000000 $t
C:\Users\49542\AppData\Local\Temp\cceCZdNg.s:708    .text.fmc_interrupt_flag_clear:00000000 fmc_interrupt_flag_clear
C:\Users\49542\AppData\Local\Temp\cceCZdNg.s:733    .text.fmc_bank0_state_get:00000000 $t
C:\Users\49542\AppData\Local\Temp\cceCZdNg.s:740    .text.fmc_bank0_state_get:00000000 fmc_bank0_state_get
C:\Users\49542\AppData\Local\Temp\cceCZdNg.s:783    .text.fmc_bank0_state_get:00000030 $d
ARM GAS  C:\Users\49542\AppData\Local\Temp\cceCZdNg.s 			page 64


C:\Users\49542\AppData\Local\Temp\cceCZdNg.s:788    .text.fmc_bank1_state_get:00000000 $t
C:\Users\49542\AppData\Local\Temp\cceCZdNg.s:795    .text.fmc_bank1_state_get:00000000 fmc_bank1_state_get
C:\Users\49542\AppData\Local\Temp\cceCZdNg.s:838    .text.fmc_bank1_state_get:00000030 $d
C:\Users\49542\AppData\Local\Temp\cceCZdNg.s:843    .text.fmc_bank0_ready_wait:00000000 $t
C:\Users\49542\AppData\Local\Temp\cceCZdNg.s:850    .text.fmc_bank0_ready_wait:00000000 fmc_bank0_ready_wait
C:\Users\49542\AppData\Local\Temp\cceCZdNg.s:895    .text.fmc_bank0_erase:00000000 $t
C:\Users\49542\AppData\Local\Temp\cceCZdNg.s:902    .text.fmc_bank0_erase:00000000 fmc_bank0_erase
C:\Users\49542\AppData\Local\Temp\cceCZdNg.s:952    .text.fmc_bank0_erase:00000038 $d
C:\Users\49542\AppData\Local\Temp\cceCZdNg.s:957    .text.ob_erase:00000000 $t
C:\Users\49542\AppData\Local\Temp\cceCZdNg.s:964    .text.ob_erase:00000000 ob_erase
C:\Users\49542\AppData\Local\Temp\cceCZdNg.s:1063   .text.ob_erase:0000007c $d
C:\Users\49542\AppData\Local\Temp\cceCZdNg.s:1069   .text.ob_write_protection_enable:00000000 $t
C:\Users\49542\AppData\Local\Temp\cceCZdNg.s:1076   .text.ob_write_protection_enable:00000000 ob_write_protection_enable
C:\Users\49542\AppData\Local\Temp\cceCZdNg.s:1208   .text.ob_write_protection_enable:00000090 $d
C:\Users\49542\AppData\Local\Temp\cceCZdNg.s:1217   .text.ob_security_protection_config:00000000 $t
C:\Users\49542\AppData\Local\Temp\cceCZdNg.s:1224   .text.ob_security_protection_config:00000000 ob_security_protection_config
C:\Users\49542\AppData\Local\Temp\cceCZdNg.s:1311   .text.ob_security_protection_config:00000074 $d
C:\Users\49542\AppData\Local\Temp\cceCZdNg.s:1317   .text.ob_user_write:00000000 $t
C:\Users\49542\AppData\Local\Temp\cceCZdNg.s:1324   .text.ob_user_write:00000000 ob_user_write
C:\Users\49542\AppData\Local\Temp\cceCZdNg.s:1394   .text.ob_user_write:0000004c $d
C:\Users\49542\AppData\Local\Temp\cceCZdNg.s:1400   .text.ob_data_program:00000000 $t
C:\Users\49542\AppData\Local\Temp\cceCZdNg.s:1407   .text.ob_data_program:00000000 ob_data_program
C:\Users\49542\AppData\Local\Temp\cceCZdNg.s:1465   .text.ob_data_program:00000040 $d
C:\Users\49542\AppData\Local\Temp\cceCZdNg.s:1470   .text.fmc_bank1_ready_wait:00000000 $t
C:\Users\49542\AppData\Local\Temp\cceCZdNg.s:1477   .text.fmc_bank1_ready_wait:00000000 fmc_bank1_ready_wait
C:\Users\49542\AppData\Local\Temp\cceCZdNg.s:1522   .text.fmc_page_erase:00000000 $t
C:\Users\49542\AppData\Local\Temp\cceCZdNg.s:1529   .text.fmc_page_erase:00000000 fmc_page_erase
C:\Users\49542\AppData\Local\Temp\cceCZdNg.s:1676   .text.fmc_page_erase:000000d0 $d
C:\Users\49542\AppData\Local\Temp\cceCZdNg.s:1686   .text.fmc_mass_erase:00000000 $t
C:\Users\49542\AppData\Local\Temp\cceCZdNg.s:1693   .text.fmc_mass_erase:00000000 fmc_mass_erase
C:\Users\49542\AppData\Local\Temp\cceCZdNg.s:1807   .text.fmc_mass_erase:000000a4 $d
C:\Users\49542\AppData\Local\Temp\cceCZdNg.s:1814   .text.fmc_bank1_erase:00000000 $t
C:\Users\49542\AppData\Local\Temp\cceCZdNg.s:1821   .text.fmc_bank1_erase:00000000 fmc_bank1_erase
C:\Users\49542\AppData\Local\Temp\cceCZdNg.s:1871   .text.fmc_bank1_erase:00000038 $d
C:\Users\49542\AppData\Local\Temp\cceCZdNg.s:1876   .text.fmc_word_program:00000000 $t
C:\Users\49542\AppData\Local\Temp\cceCZdNg.s:1883   .text.fmc_word_program:00000000 fmc_word_program
C:\Users\49542\AppData\Local\Temp\cceCZdNg.s:2006   .text.fmc_word_program:000000a4 $d
C:\Users\49542\AppData\Local\Temp\cceCZdNg.s:2014   .text.fmc_halfword_program:00000000 $t
C:\Users\49542\AppData\Local\Temp\cceCZdNg.s:2021   .text.fmc_halfword_program:00000000 fmc_halfword_program
C:\Users\49542\AppData\Local\Temp\cceCZdNg.s:2144   .text.fmc_halfword_program:000000a4 $d
C:\Users\49542\AppData\Local\Temp\cceCZdNg.s:2152   .text.fmc_word_reprogram:00000000 $t
C:\Users\49542\AppData\Local\Temp\cceCZdNg.s:2159   .text.fmc_word_reprogram:00000000 fmc_word_reprogram
C:\Users\49542\AppData\Local\Temp\cceCZdNg.s:2297   .text.fmc_word_reprogram:000000c0 $d

NO UNDEFINED SYMBOLS
