ARM GAS  C:\Users\49542\AppData\Local\Temp\cc4GOCN2.s 			page 1


   1              		.cpu cortex-m4
   2              		.eabi_attribute 27, 1
   3              		.eabi_attribute 28, 1
   4              		.eabi_attribute 20, 1
   5              		.eabi_attribute 21, 1
   6              		.eabi_attribute 23, 3
   7              		.eabi_attribute 24, 1
   8              		.eabi_attribute 25, 1
   9              		.eabi_attribute 26, 1
  10              		.eabi_attribute 30, 1
  11              		.eabi_attribute 34, 1
  12              		.eabi_attribute 18, 4
  13              		.file	"main.c"
  14              		.text
  15              	.Ltext0:
  16              		.cfi_sections	.debug_frame
  17              		.section	.text.led_off,"ax",%progbits
  18              		.align	1
  19              		.global	led_off
  20              		.syntax unified
  21              		.thumb
  22              		.thumb_func
  23              		.fpu fpv4-sp-d16
  25              	led_off:
  26              	.LFB120:
  27              		.file 1 "C:/Users/49542/Desktop/GD32F30x_Demo_Suites_V2.0.0/GD32F30x_Demo_Suites_V2.0.0/BearPi-IoT
   1:C:/Users/49542/Desktop/GD32F30x_Demo_Suites_V2.0.0/GD32F30x_Demo_Suites_V2.0.0/BearPi-IoT_GD32F303_Demo_Suites/Projects/17_RCU_Clock_Out\main.c **** /*!
   2:C:/Users/49542/Desktop/GD32F30x_Demo_Suites_V2.0.0/GD32F30x_Demo_Suites_V2.0.0/BearPi-IoT_GD32F303_Demo_Suites/Projects/17_RCU_Clock_Out\main.c ****     \file  main.c
   3:C:/Users/49542/Desktop/GD32F30x_Demo_Suites_V2.0.0/GD32F30x_Demo_Suites_V2.0.0/BearPi-IoT_GD32F303_Demo_Suites/Projects/17_RCU_Clock_Out\main.c ****     \brief RCU clock out demo
   4:C:/Users/49542/Desktop/GD32F30x_Demo_Suites_V2.0.0/GD32F30x_Demo_Suites_V2.0.0/BearPi-IoT_GD32F303_Demo_Suites/Projects/17_RCU_Clock_Out\main.c ****     
   5:C:/Users/49542/Desktop/GD32F30x_Demo_Suites_V2.0.0/GD32F30x_Demo_Suites_V2.0.0/BearPi-IoT_GD32F303_Demo_Suites/Projects/17_RCU_Clock_Out\main.c ****     \version 2019-10-30, V1.0.0, demo for BearPi-IoT_GD32F30x
   6:C:/Users/49542/Desktop/GD32F30x_Demo_Suites_V2.0.0/GD32F30x_Demo_Suites_V2.0.0/BearPi-IoT_GD32F303_Demo_Suites/Projects/17_RCU_Clock_Out\main.c **** 
   7:C:/Users/49542/Desktop/GD32F30x_Demo_Suites_V2.0.0/GD32F30x_Demo_Suites_V2.0.0/BearPi-IoT_GD32F303_Demo_Suites/Projects/17_RCU_Clock_Out\main.c **** */
   8:C:/Users/49542/Desktop/GD32F30x_Demo_Suites_V2.0.0/GD32F30x_Demo_Suites_V2.0.0/BearPi-IoT_GD32F303_Demo_Suites/Projects/17_RCU_Clock_Out\main.c **** 
   9:C:/Users/49542/Desktop/GD32F30x_Demo_Suites_V2.0.0/GD32F30x_Demo_Suites_V2.0.0/BearPi-IoT_GD32F303_Demo_Suites/Projects/17_RCU_Clock_Out\main.c **** /*
  10:C:/Users/49542/Desktop/GD32F30x_Demo_Suites_V2.0.0/GD32F30x_Demo_Suites_V2.0.0/BearPi-IoT_GD32F303_Demo_Suites/Projects/17_RCU_Clock_Out\main.c ****     Copyright (c) 2019, BearPi LIMITED.
  11:C:/Users/49542/Desktop/GD32F30x_Demo_Suites_V2.0.0/GD32F30x_Demo_Suites_V2.0.0/BearPi-IoT_GD32F303_Demo_Suites/Projects/17_RCU_Clock_Out\main.c **** 
  12:C:/Users/49542/Desktop/GD32F30x_Demo_Suites_V2.0.0/GD32F30x_Demo_Suites_V2.0.0/BearPi-IoT_GD32F303_Demo_Suites/Projects/17_RCU_Clock_Out\main.c ****     All rights reserved.
  13:C:/Users/49542/Desktop/GD32F30x_Demo_Suites_V2.0.0/GD32F30x_Demo_Suites_V2.0.0/BearPi-IoT_GD32F303_Demo_Suites/Projects/17_RCU_Clock_Out\main.c **** 
  14:C:/Users/49542/Desktop/GD32F30x_Demo_Suites_V2.0.0/GD32F30x_Demo_Suites_V2.0.0/BearPi-IoT_GD32F303_Demo_Suites/Projects/17_RCU_Clock_Out\main.c ****     Redistribution and use in source and binary forms, with or without modification, 
  15:C:/Users/49542/Desktop/GD32F30x_Demo_Suites_V2.0.0/GD32F30x_Demo_Suites_V2.0.0/BearPi-IoT_GD32F303_Demo_Suites/Projects/17_RCU_Clock_Out\main.c **** are permitted provided that the following conditions are met:
  16:C:/Users/49542/Desktop/GD32F30x_Demo_Suites_V2.0.0/GD32F30x_Demo_Suites_V2.0.0/BearPi-IoT_GD32F303_Demo_Suites/Projects/17_RCU_Clock_Out\main.c **** 
  17:C:/Users/49542/Desktop/GD32F30x_Demo_Suites_V2.0.0/GD32F30x_Demo_Suites_V2.0.0/BearPi-IoT_GD32F303_Demo_Suites/Projects/17_RCU_Clock_Out\main.c ****     1. Redistributions of source code must retain the above copyright notice, this 
  18:C:/Users/49542/Desktop/GD32F30x_Demo_Suites_V2.0.0/GD32F30x_Demo_Suites_V2.0.0/BearPi-IoT_GD32F303_Demo_Suites/Projects/17_RCU_Clock_Out\main.c ****        list of conditions and the following disclaimer.
  19:C:/Users/49542/Desktop/GD32F30x_Demo_Suites_V2.0.0/GD32F30x_Demo_Suites_V2.0.0/BearPi-IoT_GD32F303_Demo_Suites/Projects/17_RCU_Clock_Out\main.c ****     2. Redistributions in binary form must reproduce the above copyright notice, 
  20:C:/Users/49542/Desktop/GD32F30x_Demo_Suites_V2.0.0/GD32F30x_Demo_Suites_V2.0.0/BearPi-IoT_GD32F303_Demo_Suites/Projects/17_RCU_Clock_Out\main.c ****        this list of conditions and the following disclaimer in the documentation 
  21:C:/Users/49542/Desktop/GD32F30x_Demo_Suites_V2.0.0/GD32F30x_Demo_Suites_V2.0.0/BearPi-IoT_GD32F303_Demo_Suites/Projects/17_RCU_Clock_Out\main.c ****        and/or other materials provided with the distribution.
  22:C:/Users/49542/Desktop/GD32F30x_Demo_Suites_V2.0.0/GD32F30x_Demo_Suites_V2.0.0/BearPi-IoT_GD32F303_Demo_Suites/Projects/17_RCU_Clock_Out\main.c ****     3. Neither the name of the copyright holder nor the names of its contributors 
  23:C:/Users/49542/Desktop/GD32F30x_Demo_Suites_V2.0.0/GD32F30x_Demo_Suites_V2.0.0/BearPi-IoT_GD32F303_Demo_Suites/Projects/17_RCU_Clock_Out\main.c ****        may be used to endorse or promote products derived from this software without 
  24:C:/Users/49542/Desktop/GD32F30x_Demo_Suites_V2.0.0/GD32F30x_Demo_Suites_V2.0.0/BearPi-IoT_GD32F303_Demo_Suites/Projects/17_RCU_Clock_Out\main.c ****        specific prior written permission.
  25:C:/Users/49542/Desktop/GD32F30x_Demo_Suites_V2.0.0/GD32F30x_Demo_Suites_V2.0.0/BearPi-IoT_GD32F303_Demo_Suites/Projects/17_RCU_Clock_Out\main.c **** 
  26:C:/Users/49542/Desktop/GD32F30x_Demo_Suites_V2.0.0/GD32F30x_Demo_Suites_V2.0.0/BearPi-IoT_GD32F303_Demo_Suites/Projects/17_RCU_Clock_Out\main.c ****     THIS SOFTWARE IS PROVIDED BY THE COPYRIGHT HOLDERS AND CONTRIBUTORS "AS IS" 
  27:C:/Users/49542/Desktop/GD32F30x_Demo_Suites_V2.0.0/GD32F30x_Demo_Suites_V2.0.0/BearPi-IoT_GD32F303_Demo_Suites/Projects/17_RCU_Clock_Out\main.c **** AND ANY EXPRESS OR IMPLIED WARRANTIES, INCLUDING, BUT NOT LIMITED TO, THE IMPLIED 
  28:C:/Users/49542/Desktop/GD32F30x_Demo_Suites_V2.0.0/GD32F30x_Demo_Suites_V2.0.0/BearPi-IoT_GD32F303_Demo_Suites/Projects/17_RCU_Clock_Out\main.c **** WARRANTIES OF MERCHANTABILITY AND FITNESS FOR A PARTICULAR PURPOSE ARE DISCLAIMED. 
  29:C:/Users/49542/Desktop/GD32F30x_Demo_Suites_V2.0.0/GD32F30x_Demo_Suites_V2.0.0/BearPi-IoT_GD32F303_Demo_Suites/Projects/17_RCU_Clock_Out\main.c **** IN NO EVENT SHALL THE COPYRIGHT HOLDER OR CONTRIBUTORS BE LIABLE FOR ANY DIRECT, 
  30:C:/Users/49542/Desktop/GD32F30x_Demo_Suites_V2.0.0/GD32F30x_Demo_Suites_V2.0.0/BearPi-IoT_GD32F303_Demo_Suites/Projects/17_RCU_Clock_Out\main.c **** INDIRECT, INCIDENTAL, SPECIAL, EXEMPLARY, OR CONSEQUENTIAL DAMAGES (INCLUDING, BUT 
  31:C:/Users/49542/Desktop/GD32F30x_Demo_Suites_V2.0.0/GD32F30x_Demo_Suites_V2.0.0/BearPi-IoT_GD32F303_Demo_Suites/Projects/17_RCU_Clock_Out\main.c **** NOT LIMITED TO, PROCUREMENT OF SUBSTITUTE GOODS OR SERVICES; LOSS OF USE, DATA, OR 
ARM GAS  C:\Users\49542\AppData\Local\Temp\cc4GOCN2.s 			page 2


  32:C:/Users/49542/Desktop/GD32F30x_Demo_Suites_V2.0.0/GD32F30x_Demo_Suites_V2.0.0/BearPi-IoT_GD32F303_Demo_Suites/Projects/17_RCU_Clock_Out\main.c **** PROFITS; OR BUSINESS INTERRUPTION) HOWEVER CAUSED AND ON ANY THEORY OF LIABILITY, 
  33:C:/Users/49542/Desktop/GD32F30x_Demo_Suites_V2.0.0/GD32F30x_Demo_Suites_V2.0.0/BearPi-IoT_GD32F303_Demo_Suites/Projects/17_RCU_Clock_Out\main.c **** WHETHER IN CONTRACT, STRICT LIABILITY, OR TORT (INCLUDING NEGLIGENCE OR OTHERWISE) 
  34:C:/Users/49542/Desktop/GD32F30x_Demo_Suites_V2.0.0/GD32F30x_Demo_Suites_V2.0.0/BearPi-IoT_GD32F303_Demo_Suites/Projects/17_RCU_Clock_Out\main.c **** ARISING IN ANY WAY OUT OF THE USE OF THIS SOFTWARE, EVEN IF ADVISED OF THE POSSIBILITY 
  35:C:/Users/49542/Desktop/GD32F30x_Demo_Suites_V2.0.0/GD32F30x_Demo_Suites_V2.0.0/BearPi-IoT_GD32F303_Demo_Suites/Projects/17_RCU_Clock_Out\main.c **** OF SUCH DAMAGE.
  36:C:/Users/49542/Desktop/GD32F30x_Demo_Suites_V2.0.0/GD32F30x_Demo_Suites_V2.0.0/BearPi-IoT_GD32F303_Demo_Suites/Projects/17_RCU_Clock_Out\main.c **** */
  37:C:/Users/49542/Desktop/GD32F30x_Demo_Suites_V2.0.0/GD32F30x_Demo_Suites_V2.0.0/BearPi-IoT_GD32F303_Demo_Suites/Projects/17_RCU_Clock_Out\main.c **** 
  38:C:/Users/49542/Desktop/GD32F30x_Demo_Suites_V2.0.0/GD32F30x_Demo_Suites_V2.0.0/BearPi-IoT_GD32F303_Demo_Suites/Projects/17_RCU_Clock_Out\main.c **** #include "gd32f30x.h"
  39:C:/Users/49542/Desktop/GD32F30x_Demo_Suites_V2.0.0/GD32F30x_Demo_Suites_V2.0.0/BearPi-IoT_GD32F303_Demo_Suites/Projects/17_RCU_Clock_Out\main.c **** #include "BearPi-IoT_gd32f303.h"
  40:C:/Users/49542/Desktop/GD32F30x_Demo_Suites_V2.0.0/GD32F30x_Demo_Suites_V2.0.0/BearPi-IoT_GD32F303_Demo_Suites/Projects/17_RCU_Clock_Out\main.c **** #include <stdio.h>
  41:C:/Users/49542/Desktop/GD32F30x_Demo_Suites_V2.0.0/GD32F30x_Demo_Suites_V2.0.0/BearPi-IoT_GD32F303_Demo_Suites/Projects/17_RCU_Clock_Out\main.c **** 
  42:C:/Users/49542/Desktop/GD32F30x_Demo_Suites_V2.0.0/GD32F30x_Demo_Suites_V2.0.0/BearPi-IoT_GD32F303_Demo_Suites/Projects/17_RCU_Clock_Out\main.c **** typedef enum
  43:C:/Users/49542/Desktop/GD32F30x_Demo_Suites_V2.0.0/GD32F30x_Demo_Suites_V2.0.0/BearPi-IoT_GD32F303_Demo_Suites/Projects/17_RCU_Clock_Out\main.c **** {
  44:C:/Users/49542/Desktop/GD32F30x_Demo_Suites_V2.0.0/GD32F30x_Demo_Suites_V2.0.0/BearPi-IoT_GD32F303_Demo_Suites/Projects/17_RCU_Clock_Out\main.c ****     CKOUT0_SYSTEMCLOCK_CKOUT = 0,
  45:C:/Users/49542/Desktop/GD32F30x_Demo_Suites_V2.0.0/GD32F30x_Demo_Suites_V2.0.0/BearPi-IoT_GD32F303_Demo_Suites/Projects/17_RCU_Clock_Out\main.c ****     CKOUT0_IRC8M_CKOUT = 1,
  46:C:/Users/49542/Desktop/GD32F30x_Demo_Suites_V2.0.0/GD32F30x_Demo_Suites_V2.0.0/BearPi-IoT_GD32F303_Demo_Suites/Projects/17_RCU_Clock_Out\main.c ****     CKOUT0_HXTAL_CKOUT = 2,
  47:C:/Users/49542/Desktop/GD32F30x_Demo_Suites_V2.0.0/GD32F30x_Demo_Suites_V2.0.0/BearPi-IoT_GD32F303_Demo_Suites/Projects/17_RCU_Clock_Out\main.c **** }clock_output_enum;
  48:C:/Users/49542/Desktop/GD32F30x_Demo_Suites_V2.0.0/GD32F30x_Demo_Suites_V2.0.0/BearPi-IoT_GD32F303_Demo_Suites/Projects/17_RCU_Clock_Out\main.c **** 
  49:C:/Users/49542/Desktop/GD32F30x_Demo_Suites_V2.0.0/GD32F30x_Demo_Suites_V2.0.0/BearPi-IoT_GD32F303_Demo_Suites/Projects/17_RCU_Clock_Out\main.c **** void rcu_config(void);
  50:C:/Users/49542/Desktop/GD32F30x_Demo_Suites_V2.0.0/GD32F30x_Demo_Suites_V2.0.0/BearPi-IoT_GD32F303_Demo_Suites/Projects/17_RCU_Clock_Out\main.c **** void gpio_config(void);
  51:C:/Users/49542/Desktop/GD32F30x_Demo_Suites_V2.0.0/GD32F30x_Demo_Suites_V2.0.0/BearPi-IoT_GD32F303_Demo_Suites/Projects/17_RCU_Clock_Out\main.c **** void led_init(void);
  52:C:/Users/49542/Desktop/GD32F30x_Demo_Suites_V2.0.0/GD32F30x_Demo_Suites_V2.0.0/BearPi-IoT_GD32F303_Demo_Suites/Projects/17_RCU_Clock_Out\main.c **** void led_off(void);
  53:C:/Users/49542/Desktop/GD32F30x_Demo_Suites_V2.0.0/GD32F30x_Demo_Suites_V2.0.0/BearPi-IoT_GD32F303_Demo_Suites/Projects/17_RCU_Clock_Out\main.c **** void led_flash(int times);
  54:C:/Users/49542/Desktop/GD32F30x_Demo_Suites_V2.0.0/GD32F30x_Demo_Suites_V2.0.0/BearPi-IoT_GD32F303_Demo_Suites/Projects/17_RCU_Clock_Out\main.c **** void dac_config(void);
  55:C:/Users/49542/Desktop/GD32F30x_Demo_Suites_V2.0.0/GD32F30x_Demo_Suites_V2.0.0/BearPi-IoT_GD32F303_Demo_Suites/Projects/17_RCU_Clock_Out\main.c **** void clock_output_select(uint8_t seq);
  56:C:/Users/49542/Desktop/GD32F30x_Demo_Suites_V2.0.0/GD32F30x_Demo_Suites_V2.0.0/BearPi-IoT_GD32F303_Demo_Suites/Projects/17_RCU_Clock_Out\main.c **** void clock_output_config(void);
  57:C:/Users/49542/Desktop/GD32F30x_Demo_Suites_V2.0.0/GD32F30x_Demo_Suites_V2.0.0/BearPi-IoT_GD32F303_Demo_Suites/Projects/17_RCU_Clock_Out\main.c **** 
  58:C:/Users/49542/Desktop/GD32F30x_Demo_Suites_V2.0.0/GD32F30x_Demo_Suites_V2.0.0/BearPi-IoT_GD32F303_Demo_Suites/Projects/17_RCU_Clock_Out\main.c **** extern uint8_t g_button_press_flag;
  59:C:/Users/49542/Desktop/GD32F30x_Demo_Suites_V2.0.0/GD32F30x_Demo_Suites_V2.0.0/BearPi-IoT_GD32F303_Demo_Suites/Projects/17_RCU_Clock_Out\main.c **** 
  60:C:/Users/49542/Desktop/GD32F30x_Demo_Suites_V2.0.0/GD32F30x_Demo_Suites_V2.0.0/BearPi-IoT_GD32F303_Demo_Suites/Projects/17_RCU_Clock_Out\main.c **** /*!
  61:C:/Users/49542/Desktop/GD32F30x_Demo_Suites_V2.0.0/GD32F30x_Demo_Suites_V2.0.0/BearPi-IoT_GD32F303_Demo_Suites/Projects/17_RCU_Clock_Out\main.c ****     \brief      main function
  62:C:/Users/49542/Desktop/GD32F30x_Demo_Suites_V2.0.0/GD32F30x_Demo_Suites_V2.0.0/BearPi-IoT_GD32F303_Demo_Suites/Projects/17_RCU_Clock_Out\main.c ****     \param[in]  none
  63:C:/Users/49542/Desktop/GD32F30x_Demo_Suites_V2.0.0/GD32F30x_Demo_Suites_V2.0.0/BearPi-IoT_GD32F303_Demo_Suites/Projects/17_RCU_Clock_Out\main.c ****     \param[out] none
  64:C:/Users/49542/Desktop/GD32F30x_Demo_Suites_V2.0.0/GD32F30x_Demo_Suites_V2.0.0/BearPi-IoT_GD32F303_Demo_Suites/Projects/17_RCU_Clock_Out\main.c ****     \retval     none
  65:C:/Users/49542/Desktop/GD32F30x_Demo_Suites_V2.0.0/GD32F30x_Demo_Suites_V2.0.0/BearPi-IoT_GD32F303_Demo_Suites/Projects/17_RCU_Clock_Out\main.c **** */
  66:C:/Users/49542/Desktop/GD32F30x_Demo_Suites_V2.0.0/GD32F30x_Demo_Suites_V2.0.0/BearPi-IoT_GD32F303_Demo_Suites/Projects/17_RCU_Clock_Out\main.c **** int main(void)
  67:C:/Users/49542/Desktop/GD32F30x_Demo_Suites_V2.0.0/GD32F30x_Demo_Suites_V2.0.0/BearPi-IoT_GD32F303_Demo_Suites/Projects/17_RCU_Clock_Out\main.c **** {
  68:C:/Users/49542/Desktop/GD32F30x_Demo_Suites_V2.0.0/GD32F30x_Demo_Suites_V2.0.0/BearPi-IoT_GD32F303_Demo_Suites/Projects/17_RCU_Clock_Out\main.c ****     uint8_t func_seq = 0;
  69:C:/Users/49542/Desktop/GD32F30x_Demo_Suites_V2.0.0/GD32F30x_Demo_Suites_V2.0.0/BearPi-IoT_GD32F303_Demo_Suites/Projects/17_RCU_Clock_Out\main.c ****     
  70:C:/Users/49542/Desktop/GD32F30x_Demo_Suites_V2.0.0/GD32F30x_Demo_Suites_V2.0.0/BearPi-IoT_GD32F303_Demo_Suites/Projects/17_RCU_Clock_Out\main.c ****     /* initialize the USART */
  71:C:/Users/49542/Desktop/GD32F30x_Demo_Suites_V2.0.0/GD32F30x_Demo_Suites_V2.0.0/BearPi-IoT_GD32F303_Demo_Suites/Projects/17_RCU_Clock_Out\main.c ****     gd_eval_com_init(EVAL_COM0);
  72:C:/Users/49542/Desktop/GD32F30x_Demo_Suites_V2.0.0/GD32F30x_Demo_Suites_V2.0.0/BearPi-IoT_GD32F303_Demo_Suites/Projects/17_RCU_Clock_Out\main.c ****     
  73:C:/Users/49542/Desktop/GD32F30x_Demo_Suites_V2.0.0/GD32F30x_Demo_Suites_V2.0.0/BearPi-IoT_GD32F303_Demo_Suites/Projects/17_RCU_Clock_Out\main.c ****     printf("\r\n /=========== Gigadevice Clock output Demo ===========/ \r\n");
  74:C:/Users/49542/Desktop/GD32F30x_Demo_Suites_V2.0.0/GD32F30x_Demo_Suites_V2.0.0/BearPi-IoT_GD32F303_Demo_Suites/Projects/17_RCU_Clock_Out\main.c ****     printf("press F1 key to select clock output source \r\n");
  75:C:/Users/49542/Desktop/GD32F30x_Demo_Suites_V2.0.0/GD32F30x_Demo_Suites_V2.0.0/BearPi-IoT_GD32F303_Demo_Suites/Projects/17_RCU_Clock_Out\main.c ****     
  76:C:/Users/49542/Desktop/GD32F30x_Demo_Suites_V2.0.0/GD32F30x_Demo_Suites_V2.0.0/BearPi-IoT_GD32F303_Demo_Suites/Projects/17_RCU_Clock_Out\main.c ****     /* initialize the LED */
  77:C:/Users/49542/Desktop/GD32F30x_Demo_Suites_V2.0.0/GD32F30x_Demo_Suites_V2.0.0/BearPi-IoT_GD32F303_Demo_Suites/Projects/17_RCU_Clock_Out\main.c ****     led_init();
  78:C:/Users/49542/Desktop/GD32F30x_Demo_Suites_V2.0.0/GD32F30x_Demo_Suites_V2.0.0/BearPi-IoT_GD32F303_Demo_Suites/Projects/17_RCU_Clock_Out\main.c ****     /* initialize the clock output */
  79:C:/Users/49542/Desktop/GD32F30x_Demo_Suites_V2.0.0/GD32F30x_Demo_Suites_V2.0.0/BearPi-IoT_GD32F303_Demo_Suites/Projects/17_RCU_Clock_Out\main.c ****     clock_output_config();
  80:C:/Users/49542/Desktop/GD32F30x_Demo_Suites_V2.0.0/GD32F30x_Demo_Suites_V2.0.0/BearPi-IoT_GD32F303_Demo_Suites/Projects/17_RCU_Clock_Out\main.c ****     /* initialize the tamper key */
  81:C:/Users/49542/Desktop/GD32F30x_Demo_Suites_V2.0.0/GD32F30x_Demo_Suites_V2.0.0/BearPi-IoT_GD32F303_Demo_Suites/Projects/17_RCU_Clock_Out\main.c ****     gd_eval_key_init(F1_KEY, KEY_MODE_EXTI);
  82:C:/Users/49542/Desktop/GD32F30x_Demo_Suites_V2.0.0/GD32F30x_Demo_Suites_V2.0.0/BearPi-IoT_GD32F303_Demo_Suites/Projects/17_RCU_Clock_Out\main.c ****    
  83:C:/Users/49542/Desktop/GD32F30x_Demo_Suites_V2.0.0/GD32F30x_Demo_Suites_V2.0.0/BearPi-IoT_GD32F303_Demo_Suites/Projects/17_RCU_Clock_Out\main.c ****     while (1){
  84:C:/Users/49542/Desktop/GD32F30x_Demo_Suites_V2.0.0/GD32F30x_Demo_Suites_V2.0.0/BearPi-IoT_GD32F303_Demo_Suites/Projects/17_RCU_Clock_Out\main.c ****         if(1 == g_button_press_flag){
  85:C:/Users/49542/Desktop/GD32F30x_Demo_Suites_V2.0.0/GD32F30x_Demo_Suites_V2.0.0/BearPi-IoT_GD32F303_Demo_Suites/Projects/17_RCU_Clock_Out\main.c ****             /* if the button is pressed */
  86:C:/Users/49542/Desktop/GD32F30x_Demo_Suites_V2.0.0/GD32F30x_Demo_Suites_V2.0.0/BearPi-IoT_GD32F303_Demo_Suites/Projects/17_RCU_Clock_Out\main.c ****             g_button_press_flag = 0;
  87:C:/Users/49542/Desktop/GD32F30x_Demo_Suites_V2.0.0/GD32F30x_Demo_Suites_V2.0.0/BearPi-IoT_GD32F303_Demo_Suites/Projects/17_RCU_Clock_Out\main.c ****             /* control the led */
  88:C:/Users/49542/Desktop/GD32F30x_Demo_Suites_V2.0.0/GD32F30x_Demo_Suites_V2.0.0/BearPi-IoT_GD32F303_Demo_Suites/Projects/17_RCU_Clock_Out\main.c ****             led_off();
ARM GAS  C:\Users\49542\AppData\Local\Temp\cc4GOCN2.s 			page 3


  89:C:/Users/49542/Desktop/GD32F30x_Demo_Suites_V2.0.0/GD32F30x_Demo_Suites_V2.0.0/BearPi-IoT_GD32F303_Demo_Suites/Projects/17_RCU_Clock_Out\main.c ****             gd_eval_led_on((led_typedef_enum)func_seq);
  90:C:/Users/49542/Desktop/GD32F30x_Demo_Suites_V2.0.0/GD32F30x_Demo_Suites_V2.0.0/BearPi-IoT_GD32F303_Demo_Suites/Projects/17_RCU_Clock_Out\main.c ****             /* select the clock output mode */
  91:C:/Users/49542/Desktop/GD32F30x_Demo_Suites_V2.0.0/GD32F30x_Demo_Suites_V2.0.0/BearPi-IoT_GD32F303_Demo_Suites/Projects/17_RCU_Clock_Out\main.c ****             clock_output_select(func_seq);
  92:C:/Users/49542/Desktop/GD32F30x_Demo_Suites_V2.0.0/GD32F30x_Demo_Suites_V2.0.0/BearPi-IoT_GD32F303_Demo_Suites/Projects/17_RCU_Clock_Out\main.c ****             
  93:C:/Users/49542/Desktop/GD32F30x_Demo_Suites_V2.0.0/GD32F30x_Demo_Suites_V2.0.0/BearPi-IoT_GD32F303_Demo_Suites/Projects/17_RCU_Clock_Out\main.c ****             func_seq++;
  94:C:/Users/49542/Desktop/GD32F30x_Demo_Suites_V2.0.0/GD32F30x_Demo_Suites_V2.0.0/BearPi-IoT_GD32F303_Demo_Suites/Projects/17_RCU_Clock_Out\main.c ****             func_seq %= 3;
  95:C:/Users/49542/Desktop/GD32F30x_Demo_Suites_V2.0.0/GD32F30x_Demo_Suites_V2.0.0/BearPi-IoT_GD32F303_Demo_Suites/Projects/17_RCU_Clock_Out\main.c ****         }
  96:C:/Users/49542/Desktop/GD32F30x_Demo_Suites_V2.0.0/GD32F30x_Demo_Suites_V2.0.0/BearPi-IoT_GD32F303_Demo_Suites/Projects/17_RCU_Clock_Out\main.c ****     }
  97:C:/Users/49542/Desktop/GD32F30x_Demo_Suites_V2.0.0/GD32F30x_Demo_Suites_V2.0.0/BearPi-IoT_GD32F303_Demo_Suites/Projects/17_RCU_Clock_Out\main.c **** }
  98:C:/Users/49542/Desktop/GD32F30x_Demo_Suites_V2.0.0/GD32F30x_Demo_Suites_V2.0.0/BearPi-IoT_GD32F303_Demo_Suites/Projects/17_RCU_Clock_Out\main.c **** 
  99:C:/Users/49542/Desktop/GD32F30x_Demo_Suites_V2.0.0/GD32F30x_Demo_Suites_V2.0.0/BearPi-IoT_GD32F303_Demo_Suites/Projects/17_RCU_Clock_Out\main.c **** /*!
 100:C:/Users/49542/Desktop/GD32F30x_Demo_Suites_V2.0.0/GD32F30x_Demo_Suites_V2.0.0/BearPi-IoT_GD32F303_Demo_Suites/Projects/17_RCU_Clock_Out\main.c ****     \brief       LED turn off
 101:C:/Users/49542/Desktop/GD32F30x_Demo_Suites_V2.0.0/GD32F30x_Demo_Suites_V2.0.0/BearPi-IoT_GD32F303_Demo_Suites/Projects/17_RCU_Clock_Out\main.c ****     \param[in]  none
 102:C:/Users/49542/Desktop/GD32F30x_Demo_Suites_V2.0.0/GD32F30x_Demo_Suites_V2.0.0/BearPi-IoT_GD32F303_Demo_Suites/Projects/17_RCU_Clock_Out\main.c ****     \param[out] none
 103:C:/Users/49542/Desktop/GD32F30x_Demo_Suites_V2.0.0/GD32F30x_Demo_Suites_V2.0.0/BearPi-IoT_GD32F303_Demo_Suites/Projects/17_RCU_Clock_Out\main.c ****     \retval     none
 104:C:/Users/49542/Desktop/GD32F30x_Demo_Suites_V2.0.0/GD32F30x_Demo_Suites_V2.0.0/BearPi-IoT_GD32F303_Demo_Suites/Projects/17_RCU_Clock_Out\main.c **** */
 105:C:/Users/49542/Desktop/GD32F30x_Demo_Suites_V2.0.0/GD32F30x_Demo_Suites_V2.0.0/BearPi-IoT_GD32F303_Demo_Suites/Projects/17_RCU_Clock_Out\main.c **** void led_off(void)
 106:C:/Users/49542/Desktop/GD32F30x_Demo_Suites_V2.0.0/GD32F30x_Demo_Suites_V2.0.0/BearPi-IoT_GD32F303_Demo_Suites/Projects/17_RCU_Clock_Out\main.c **** {
  28              		.loc 1 106 0
  29              		.cfi_startproc
  30              		@ args = 0, pretend = 0, frame = 0
  31              		@ frame_needed = 0, uses_anonymous_args = 0
  32 0000 08B5     		push	{r3, lr}
  33              	.LCFI0:
  34              		.cfi_def_cfa_offset 8
  35              		.cfi_offset 3, -8
  36              		.cfi_offset 14, -4
 107:C:/Users/49542/Desktop/GD32F30x_Demo_Suites_V2.0.0/GD32F30x_Demo_Suites_V2.0.0/BearPi-IoT_GD32F303_Demo_Suites/Projects/17_RCU_Clock_Out\main.c ****     gd_eval_led_off(LED);
  37              		.loc 1 107 0
  38 0002 0020     		movs	r0, #0
  39 0004 FFF7FEFF 		bl	gd_eval_led_off
  40              	.LVL0:
 108:C:/Users/49542/Desktop/GD32F30x_Demo_Suites_V2.0.0/GD32F30x_Demo_Suites_V2.0.0/BearPi-IoT_GD32F303_Demo_Suites/Projects/17_RCU_Clock_Out\main.c **** }
  41              		.loc 1 108 0
  42 0008 08BD     		pop	{r3, pc}
  43              		.cfi_endproc
  44              	.LFE120:
  46              		.section	.text.clock_output_config,"ax",%progbits
  47              		.align	1
  48              		.global	clock_output_config
  49              		.syntax unified
  50              		.thumb
  51              		.thumb_func
  52              		.fpu fpv4-sp-d16
  54              	clock_output_config:
  55              	.LFB121:
 109:C:/Users/49542/Desktop/GD32F30x_Demo_Suites_V2.0.0/GD32F30x_Demo_Suites_V2.0.0/BearPi-IoT_GD32F303_Demo_Suites/Projects/17_RCU_Clock_Out\main.c **** 
 110:C:/Users/49542/Desktop/GD32F30x_Demo_Suites_V2.0.0/GD32F30x_Demo_Suites_V2.0.0/BearPi-IoT_GD32F303_Demo_Suites/Projects/17_RCU_Clock_Out\main.c **** /*!
 111:C:/Users/49542/Desktop/GD32F30x_Demo_Suites_V2.0.0/GD32F30x_Demo_Suites_V2.0.0/BearPi-IoT_GD32F303_Demo_Suites/Projects/17_RCU_Clock_Out\main.c ****     \brief      configure clock output function
 112:C:/Users/49542/Desktop/GD32F30x_Demo_Suites_V2.0.0/GD32F30x_Demo_Suites_V2.0.0/BearPi-IoT_GD32F303_Demo_Suites/Projects/17_RCU_Clock_Out\main.c ****     \param[in]  none
 113:C:/Users/49542/Desktop/GD32F30x_Demo_Suites_V2.0.0/GD32F30x_Demo_Suites_V2.0.0/BearPi-IoT_GD32F303_Demo_Suites/Projects/17_RCU_Clock_Out\main.c ****     \param[out] none
 114:C:/Users/49542/Desktop/GD32F30x_Demo_Suites_V2.0.0/GD32F30x_Demo_Suites_V2.0.0/BearPi-IoT_GD32F303_Demo_Suites/Projects/17_RCU_Clock_Out\main.c ****     \retval     none
 115:C:/Users/49542/Desktop/GD32F30x_Demo_Suites_V2.0.0/GD32F30x_Demo_Suites_V2.0.0/BearPi-IoT_GD32F303_Demo_Suites/Projects/17_RCU_Clock_Out\main.c **** */
 116:C:/Users/49542/Desktop/GD32F30x_Demo_Suites_V2.0.0/GD32F30x_Demo_Suites_V2.0.0/BearPi-IoT_GD32F303_Demo_Suites/Projects/17_RCU_Clock_Out\main.c **** void clock_output_config(void)
 117:C:/Users/49542/Desktop/GD32F30x_Demo_Suites_V2.0.0/GD32F30x_Demo_Suites_V2.0.0/BearPi-IoT_GD32F303_Demo_Suites/Projects/17_RCU_Clock_Out\main.c **** {
  56              		.loc 1 117 0
  57              		.cfi_startproc
ARM GAS  C:\Users\49542\AppData\Local\Temp\cc4GOCN2.s 			page 4


  58              		@ args = 0, pretend = 0, frame = 0
  59              		@ frame_needed = 0, uses_anonymous_args = 0
  60 0000 08B5     		push	{r3, lr}
  61              	.LCFI1:
  62              		.cfi_def_cfa_offset 8
  63              		.cfi_offset 3, -8
  64              		.cfi_offset 14, -4
 118:C:/Users/49542/Desktop/GD32F30x_Demo_Suites_V2.0.0/GD32F30x_Demo_Suites_V2.0.0/BearPi-IoT_GD32F303_Demo_Suites/Projects/17_RCU_Clock_Out\main.c ****     /* peripheral clock enable */
 119:C:/Users/49542/Desktop/GD32F30x_Demo_Suites_V2.0.0/GD32F30x_Demo_Suites_V2.0.0/BearPi-IoT_GD32F303_Demo_Suites/Projects/17_RCU_Clock_Out\main.c ****     rcu_periph_clock_enable(RCU_GPIOA);
  65              		.loc 1 119 0
  66 0002 40F20260 		movw	r0, #1538
  67 0006 FFF7FEFF 		bl	rcu_periph_clock_enable
  68              	.LVL1:
 120:C:/Users/49542/Desktop/GD32F30x_Demo_Suites_V2.0.0/GD32F30x_Demo_Suites_V2.0.0/BearPi-IoT_GD32F303_Demo_Suites/Projects/17_RCU_Clock_Out\main.c ****     rcu_periph_clock_enable(RCU_GPIOC);
  69              		.loc 1 120 0
  70 000a 40F20460 		movw	r0, #1540
  71 000e FFF7FEFF 		bl	rcu_periph_clock_enable
  72              	.LVL2:
 121:C:/Users/49542/Desktop/GD32F30x_Demo_Suites_V2.0.0/GD32F30x_Demo_Suites_V2.0.0/BearPi-IoT_GD32F303_Demo_Suites/Projects/17_RCU_Clock_Out\main.c **** 
 122:C:/Users/49542/Desktop/GD32F30x_Demo_Suites_V2.0.0/GD32F30x_Demo_Suites_V2.0.0/BearPi-IoT_GD32F303_Demo_Suites/Projects/17_RCU_Clock_Out\main.c ****     rcu_osci_on(RCU_IRC8M);
  73              		.loc 1 122 0
  74 0012 0020     		movs	r0, #0
  75 0014 FFF7FEFF 		bl	rcu_osci_on
  76              	.LVL3:
 123:C:/Users/49542/Desktop/GD32F30x_Demo_Suites_V2.0.0/GD32F30x_Demo_Suites_V2.0.0/BearPi-IoT_GD32F303_Demo_Suites/Projects/17_RCU_Clock_Out\main.c ****     if(ERROR == rcu_osci_stab_wait(RCU_IRC8M)){
  77              		.loc 1 123 0
  78 0018 0020     		movs	r0, #0
  79 001a FFF7FEFF 		bl	rcu_osci_stab_wait
  80              	.LVL4:
  81 001e 18B9     		cbnz	r0, .L4
 124:C:/Users/49542/Desktop/GD32F30x_Demo_Suites_V2.0.0/GD32F30x_Demo_Suites_V2.0.0/BearPi-IoT_GD32F303_Demo_Suites/Projects/17_RCU_Clock_Out\main.c ****         printf("RCU_IRC8M rcu_osci_stab_wait timeout! \r\n");
  82              		.loc 1 124 0
  83 0020 0548     		ldr	r0, .L7
  84 0022 FFF7FEFF 		bl	puts
  85              	.LVL5:
  86              	.L5:
  87 0026 FEE7     		b	.L5
  88              	.L4:
 125:C:/Users/49542/Desktop/GD32F30x_Demo_Suites_V2.0.0/GD32F30x_Demo_Suites_V2.0.0/BearPi-IoT_GD32F303_Demo_Suites/Projects/17_RCU_Clock_Out\main.c ****         while(1);
 126:C:/Users/49542/Desktop/GD32F30x_Demo_Suites_V2.0.0/GD32F30x_Demo_Suites_V2.0.0/BearPi-IoT_GD32F303_Demo_Suites/Projects/17_RCU_Clock_Out\main.c ****     }
 127:C:/Users/49542/Desktop/GD32F30x_Demo_Suites_V2.0.0/GD32F30x_Demo_Suites_V2.0.0/BearPi-IoT_GD32F303_Demo_Suites/Projects/17_RCU_Clock_Out\main.c **** 
 128:C:/Users/49542/Desktop/GD32F30x_Demo_Suites_V2.0.0/GD32F30x_Demo_Suites_V2.0.0/BearPi-IoT_GD32F303_Demo_Suites/Projects/17_RCU_Clock_Out\main.c ****     /* configure clock output pin */
 129:C:/Users/49542/Desktop/GD32F30x_Demo_Suites_V2.0.0/GD32F30x_Demo_Suites_V2.0.0/BearPi-IoT_GD32F303_Demo_Suites/Projects/17_RCU_Clock_Out\main.c ****     gpio_init(GPIOA, GPIO_MODE_AF_PP, GPIO_OSPEED_50MHZ, GPIO_PIN_8);
  89              		.loc 1 129 0
  90 0028 4FF48073 		mov	r3, #256
  91 002c 0322     		movs	r2, #3
  92 002e 1821     		movs	r1, #24
  93 0030 0248     		ldr	r0, .L7+4
  94 0032 FFF7FEFF 		bl	gpio_init
  95              	.LVL6:
 130:C:/Users/49542/Desktop/GD32F30x_Demo_Suites_V2.0.0/GD32F30x_Demo_Suites_V2.0.0/BearPi-IoT_GD32F303_Demo_Suites/Projects/17_RCU_Clock_Out\main.c **** }
  96              		.loc 1 130 0
  97 0036 08BD     		pop	{r3, pc}
  98              	.L8:
  99              		.align	2
 100              	.L7:
 101 0038 00000000 		.word	.LC0
ARM GAS  C:\Users\49542\AppData\Local\Temp\cc4GOCN2.s 			page 5


 102 003c 00080140 		.word	1073809408
 103              		.cfi_endproc
 104              	.LFE121:
 106              		.section	.text.clock_output_select,"ax",%progbits
 107              		.align	1
 108              		.global	clock_output_select
 109              		.syntax unified
 110              		.thumb
 111              		.thumb_func
 112              		.fpu fpv4-sp-d16
 114              	clock_output_select:
 115              	.LFB122:
 131:C:/Users/49542/Desktop/GD32F30x_Demo_Suites_V2.0.0/GD32F30x_Demo_Suites_V2.0.0/BearPi-IoT_GD32F303_Demo_Suites/Projects/17_RCU_Clock_Out\main.c **** 
 132:C:/Users/49542/Desktop/GD32F30x_Demo_Suites_V2.0.0/GD32F30x_Demo_Suites_V2.0.0/BearPi-IoT_GD32F303_Demo_Suites/Projects/17_RCU_Clock_Out\main.c **** /*!
 133:C:/Users/49542/Desktop/GD32F30x_Demo_Suites_V2.0.0/GD32F30x_Demo_Suites_V2.0.0/BearPi-IoT_GD32F303_Demo_Suites/Projects/17_RCU_Clock_Out\main.c ****     \brief      select type of clock output
 134:C:/Users/49542/Desktop/GD32F30x_Demo_Suites_V2.0.0/GD32F30x_Demo_Suites_V2.0.0/BearPi-IoT_GD32F303_Demo_Suites/Projects/17_RCU_Clock_Out\main.c ****     \param[in]  none
 135:C:/Users/49542/Desktop/GD32F30x_Demo_Suites_V2.0.0/GD32F30x_Demo_Suites_V2.0.0/BearPi-IoT_GD32F303_Demo_Suites/Projects/17_RCU_Clock_Out\main.c ****     \param[out] none
 136:C:/Users/49542/Desktop/GD32F30x_Demo_Suites_V2.0.0/GD32F30x_Demo_Suites_V2.0.0/BearPi-IoT_GD32F303_Demo_Suites/Projects/17_RCU_Clock_Out\main.c ****     \retval     none
 137:C:/Users/49542/Desktop/GD32F30x_Demo_Suites_V2.0.0/GD32F30x_Demo_Suites_V2.0.0/BearPi-IoT_GD32F303_Demo_Suites/Projects/17_RCU_Clock_Out\main.c **** */
 138:C:/Users/49542/Desktop/GD32F30x_Demo_Suites_V2.0.0/GD32F30x_Demo_Suites_V2.0.0/BearPi-IoT_GD32F303_Demo_Suites/Projects/17_RCU_Clock_Out\main.c **** void clock_output_select(uint8_t seq)
 139:C:/Users/49542/Desktop/GD32F30x_Demo_Suites_V2.0.0/GD32F30x_Demo_Suites_V2.0.0/BearPi-IoT_GD32F303_Demo_Suites/Projects/17_RCU_Clock_Out\main.c **** {
 116              		.loc 1 139 0
 117              		.cfi_startproc
 118              		@ args = 0, pretend = 0, frame = 0
 119              		@ frame_needed = 0, uses_anonymous_args = 0
 120              	.LVL7:
 121 0000 08B5     		push	{r3, lr}
 122              	.LCFI2:
 123              		.cfi_def_cfa_offset 8
 124              		.cfi_offset 3, -8
 125              		.cfi_offset 14, -4
 140:C:/Users/49542/Desktop/GD32F30x_Demo_Suites_V2.0.0/GD32F30x_Demo_Suites_V2.0.0/BearPi-IoT_GD32F303_Demo_Suites/Projects/17_RCU_Clock_Out\main.c ****     switch(seq){
 126              		.loc 1 140 0
 127 0002 0128     		cmp	r0, #1
 128 0004 0ED0     		beq	.L11
 129 0006 28B1     		cbz	r0, .L12
 130 0008 0228     		cmp	r0, #2
 131 000a 13D0     		beq	.L13
 141:C:/Users/49542/Desktop/GD32F30x_Demo_Suites_V2.0.0/GD32F30x_Demo_Suites_V2.0.0/BearPi-IoT_GD32F303_Demo_Suites/Projects/17_RCU_Clock_Out\main.c ****         case CKOUT0_SYSTEMCLOCK_CKOUT:
 142:C:/Users/49542/Desktop/GD32F30x_Demo_Suites_V2.0.0/GD32F30x_Demo_Suites_V2.0.0/BearPi-IoT_GD32F303_Demo_Suites/Projects/17_RCU_Clock_Out\main.c ****             rcu_ckout0_config(RCU_CKOUT0SRC_CKSYS);
 143:C:/Users/49542/Desktop/GD32F30x_Demo_Suites_V2.0.0/GD32F30x_Demo_Suites_V2.0.0/BearPi-IoT_GD32F303_Demo_Suites/Projects/17_RCU_Clock_Out\main.c ****             printf("CK_OUT0: system clock \r\n");
 144:C:/Users/49542/Desktop/GD32F30x_Demo_Suites_V2.0.0/GD32F30x_Demo_Suites_V2.0.0/BearPi-IoT_GD32F303_Demo_Suites/Projects/17_RCU_Clock_Out\main.c ****             break;
 145:C:/Users/49542/Desktop/GD32F30x_Demo_Suites_V2.0.0/GD32F30x_Demo_Suites_V2.0.0/BearPi-IoT_GD32F303_Demo_Suites/Projects/17_RCU_Clock_Out\main.c ****         case CKOUT0_IRC8M_CKOUT:
 146:C:/Users/49542/Desktop/GD32F30x_Demo_Suites_V2.0.0/GD32F30x_Demo_Suites_V2.0.0/BearPi-IoT_GD32F303_Demo_Suites/Projects/17_RCU_Clock_Out\main.c ****             rcu_ckout0_config(RCU_CKOUT0SRC_IRC8M);
 147:C:/Users/49542/Desktop/GD32F30x_Demo_Suites_V2.0.0/GD32F30x_Demo_Suites_V2.0.0/BearPi-IoT_GD32F303_Demo_Suites/Projects/17_RCU_Clock_Out\main.c ****             printf("CK_OUT0: IRC8M \r\n");
 148:C:/Users/49542/Desktop/GD32F30x_Demo_Suites_V2.0.0/GD32F30x_Demo_Suites_V2.0.0/BearPi-IoT_GD32F303_Demo_Suites/Projects/17_RCU_Clock_Out\main.c ****             break;
 149:C:/Users/49542/Desktop/GD32F30x_Demo_Suites_V2.0.0/GD32F30x_Demo_Suites_V2.0.0/BearPi-IoT_GD32F303_Demo_Suites/Projects/17_RCU_Clock_Out\main.c ****         case CKOUT0_HXTAL_CKOUT:
 150:C:/Users/49542/Desktop/GD32F30x_Demo_Suites_V2.0.0/GD32F30x_Demo_Suites_V2.0.0/BearPi-IoT_GD32F303_Demo_Suites/Projects/17_RCU_Clock_Out\main.c ****             rcu_ckout0_config(RCU_CKOUT0SRC_HXTAL);
 151:C:/Users/49542/Desktop/GD32F30x_Demo_Suites_V2.0.0/GD32F30x_Demo_Suites_V2.0.0/BearPi-IoT_GD32F303_Demo_Suites/Projects/17_RCU_Clock_Out\main.c ****             printf("CK_OUT0: HXTAL \r\n");
 152:C:/Users/49542/Desktop/GD32F30x_Demo_Suites_V2.0.0/GD32F30x_Demo_Suites_V2.0.0/BearPi-IoT_GD32F303_Demo_Suites/Projects/17_RCU_Clock_Out\main.c ****             break;
 153:C:/Users/49542/Desktop/GD32F30x_Demo_Suites_V2.0.0/GD32F30x_Demo_Suites_V2.0.0/BearPi-IoT_GD32F303_Demo_Suites/Projects/17_RCU_Clock_Out\main.c **** 
 154:C:/Users/49542/Desktop/GD32F30x_Demo_Suites_V2.0.0/GD32F30x_Demo_Suites_V2.0.0/BearPi-IoT_GD32F303_Demo_Suites/Projects/17_RCU_Clock_Out\main.c ****         default:
 155:C:/Users/49542/Desktop/GD32F30x_Demo_Suites_V2.0.0/GD32F30x_Demo_Suites_V2.0.0/BearPi-IoT_GD32F303_Demo_Suites/Projects/17_RCU_Clock_Out\main.c ****             printf("clock output select parameter error! \r\n");
 132              		.loc 1 155 0
 133 000c 0D48     		ldr	r0, .L18
 134              	.LVL8:
 135 000e FFF7FEFF 		bl	puts
ARM GAS  C:\Users\49542\AppData\Local\Temp\cc4GOCN2.s 			page 6


 136              	.LVL9:
 137              	.L15:
 138 0012 FEE7     		b	.L15
 139              	.LVL10:
 140              	.L12:
 142:C:/Users/49542/Desktop/GD32F30x_Demo_Suites_V2.0.0/GD32F30x_Demo_Suites_V2.0.0/BearPi-IoT_GD32F303_Demo_Suites/Projects/17_RCU_Clock_Out\main.c ****             printf("CK_OUT0: system clock \r\n");
 141              		.loc 1 142 0
 142 0014 4FF08060 		mov	r0, #67108864
 143              	.LVL11:
 144 0018 FFF7FEFF 		bl	rcu_ckout0_config
 145              	.LVL12:
 143:C:/Users/49542/Desktop/GD32F30x_Demo_Suites_V2.0.0/GD32F30x_Demo_Suites_V2.0.0/BearPi-IoT_GD32F303_Demo_Suites/Projects/17_RCU_Clock_Out\main.c ****             break;
 146              		.loc 1 143 0
 147 001c 0A48     		ldr	r0, .L18+4
 148 001e FFF7FEFF 		bl	puts
 149              	.LVL13:
 150              	.L9:
 156:C:/Users/49542/Desktop/GD32F30x_Demo_Suites_V2.0.0/GD32F30x_Demo_Suites_V2.0.0/BearPi-IoT_GD32F303_Demo_Suites/Projects/17_RCU_Clock_Out\main.c ****             while(1);
 157:C:/Users/49542/Desktop/GD32F30x_Demo_Suites_V2.0.0/GD32F30x_Demo_Suites_V2.0.0/BearPi-IoT_GD32F303_Demo_Suites/Projects/17_RCU_Clock_Out\main.c ****     }
 158:C:/Users/49542/Desktop/GD32F30x_Demo_Suites_V2.0.0/GD32F30x_Demo_Suites_V2.0.0/BearPi-IoT_GD32F303_Demo_Suites/Projects/17_RCU_Clock_Out\main.c **** }
 151              		.loc 1 158 0
 152 0022 08BD     		pop	{r3, pc}
 153              	.LVL14:
 154              	.L11:
 146:C:/Users/49542/Desktop/GD32F30x_Demo_Suites_V2.0.0/GD32F30x_Demo_Suites_V2.0.0/BearPi-IoT_GD32F303_Demo_Suites/Projects/17_RCU_Clock_Out\main.c ****             printf("CK_OUT0: IRC8M \r\n");
 155              		.loc 1 146 0
 156 0024 4FF0A060 		mov	r0, #83886080
 157              	.LVL15:
 158 0028 FFF7FEFF 		bl	rcu_ckout0_config
 159              	.LVL16:
 147:C:/Users/49542/Desktop/GD32F30x_Demo_Suites_V2.0.0/GD32F30x_Demo_Suites_V2.0.0/BearPi-IoT_GD32F303_Demo_Suites/Projects/17_RCU_Clock_Out\main.c ****             break;
 160              		.loc 1 147 0
 161 002c 0748     		ldr	r0, .L18+8
 162 002e FFF7FEFF 		bl	puts
 163              	.LVL17:
 148:C:/Users/49542/Desktop/GD32F30x_Demo_Suites_V2.0.0/GD32F30x_Demo_Suites_V2.0.0/BearPi-IoT_GD32F303_Demo_Suites/Projects/17_RCU_Clock_Out\main.c ****         case CKOUT0_HXTAL_CKOUT:
 164              		.loc 1 148 0
 165 0032 F6E7     		b	.L9
 166              	.LVL18:
 167              	.L13:
 150:C:/Users/49542/Desktop/GD32F30x_Demo_Suites_V2.0.0/GD32F30x_Demo_Suites_V2.0.0/BearPi-IoT_GD32F303_Demo_Suites/Projects/17_RCU_Clock_Out\main.c ****             printf("CK_OUT0: HXTAL \r\n");
 168              		.loc 1 150 0
 169 0034 4FF0C060 		mov	r0, #100663296
 170              	.LVL19:
 171 0038 FFF7FEFF 		bl	rcu_ckout0_config
 172              	.LVL20:
 151:C:/Users/49542/Desktop/GD32F30x_Demo_Suites_V2.0.0/GD32F30x_Demo_Suites_V2.0.0/BearPi-IoT_GD32F303_Demo_Suites/Projects/17_RCU_Clock_Out\main.c ****             break;
 173              		.loc 1 151 0
 174 003c 0448     		ldr	r0, .L18+12
 175 003e FFF7FEFF 		bl	puts
 176              	.LVL21:
 152:C:/Users/49542/Desktop/GD32F30x_Demo_Suites_V2.0.0/GD32F30x_Demo_Suites_V2.0.0/BearPi-IoT_GD32F303_Demo_Suites/Projects/17_RCU_Clock_Out\main.c **** 
 177              		.loc 1 152 0
 178 0042 EEE7     		b	.L9
 179              	.L19:
 180              		.align	2
 181              	.L18:
ARM GAS  C:\Users\49542\AppData\Local\Temp\cc4GOCN2.s 			page 7


 182 0044 40000000 		.word	.LC4
 183 0048 00000000 		.word	.LC1
 184 004c 18000000 		.word	.LC2
 185 0050 2C000000 		.word	.LC3
 186              		.cfi_endproc
 187              	.LFE122:
 189              		.section	.text.led_init,"ax",%progbits
 190              		.align	1
 191              		.global	led_init
 192              		.syntax unified
 193              		.thumb
 194              		.thumb_func
 195              		.fpu fpv4-sp-d16
 197              	led_init:
 198              	.LFB123:
 159:C:/Users/49542/Desktop/GD32F30x_Demo_Suites_V2.0.0/GD32F30x_Demo_Suites_V2.0.0/BearPi-IoT_GD32F303_Demo_Suites/Projects/17_RCU_Clock_Out\main.c **** 
 160:C:/Users/49542/Desktop/GD32F30x_Demo_Suites_V2.0.0/GD32F30x_Demo_Suites_V2.0.0/BearPi-IoT_GD32F303_Demo_Suites/Projects/17_RCU_Clock_Out\main.c **** /*!
 161:C:/Users/49542/Desktop/GD32F30x_Demo_Suites_V2.0.0/GD32F30x_Demo_Suites_V2.0.0/BearPi-IoT_GD32F303_Demo_Suites/Projects/17_RCU_Clock_Out\main.c ****     \brief      initialize the LED
 162:C:/Users/49542/Desktop/GD32F30x_Demo_Suites_V2.0.0/GD32F30x_Demo_Suites_V2.0.0/BearPi-IoT_GD32F303_Demo_Suites/Projects/17_RCU_Clock_Out\main.c ****     \param[in]  none
 163:C:/Users/49542/Desktop/GD32F30x_Demo_Suites_V2.0.0/GD32F30x_Demo_Suites_V2.0.0/BearPi-IoT_GD32F303_Demo_Suites/Projects/17_RCU_Clock_Out\main.c ****     \param[out] none
 164:C:/Users/49542/Desktop/GD32F30x_Demo_Suites_V2.0.0/GD32F30x_Demo_Suites_V2.0.0/BearPi-IoT_GD32F303_Demo_Suites/Projects/17_RCU_Clock_Out\main.c ****     \retval     none
 165:C:/Users/49542/Desktop/GD32F30x_Demo_Suites_V2.0.0/GD32F30x_Demo_Suites_V2.0.0/BearPi-IoT_GD32F303_Demo_Suites/Projects/17_RCU_Clock_Out\main.c **** */
 166:C:/Users/49542/Desktop/GD32F30x_Demo_Suites_V2.0.0/GD32F30x_Demo_Suites_V2.0.0/BearPi-IoT_GD32F303_Demo_Suites/Projects/17_RCU_Clock_Out\main.c **** void led_init(void)
 167:C:/Users/49542/Desktop/GD32F30x_Demo_Suites_V2.0.0/GD32F30x_Demo_Suites_V2.0.0/BearPi-IoT_GD32F303_Demo_Suites/Projects/17_RCU_Clock_Out\main.c **** {
 199              		.loc 1 167 0
 200              		.cfi_startproc
 201              		@ args = 0, pretend = 0, frame = 0
 202              		@ frame_needed = 0, uses_anonymous_args = 0
 203 0000 08B5     		push	{r3, lr}
 204              	.LCFI3:
 205              		.cfi_def_cfa_offset 8
 206              		.cfi_offset 3, -8
 207              		.cfi_offset 14, -4
 168:C:/Users/49542/Desktop/GD32F30x_Demo_Suites_V2.0.0/GD32F30x_Demo_Suites_V2.0.0/BearPi-IoT_GD32F303_Demo_Suites/Projects/17_RCU_Clock_Out\main.c ****     gd_eval_led_init(LED);
 208              		.loc 1 168 0
 209 0002 0020     		movs	r0, #0
 210 0004 FFF7FEFF 		bl	gd_eval_led_init
 211              	.LVL22:
 169:C:/Users/49542/Desktop/GD32F30x_Demo_Suites_V2.0.0/GD32F30x_Demo_Suites_V2.0.0/BearPi-IoT_GD32F303_Demo_Suites/Projects/17_RCU_Clock_Out\main.c **** }
 212              		.loc 1 169 0
 213 0008 08BD     		pop	{r3, pc}
 214              		.cfi_endproc
 215              	.LFE123:
 217              		.section	.text.main,"ax",%progbits
 218              		.align	1
 219              		.global	main
 220              		.syntax unified
 221              		.thumb
 222              		.thumb_func
 223              		.fpu fpv4-sp-d16
 225              	main:
 226              	.LFB119:
  67:C:/Users/49542/Desktop/GD32F30x_Demo_Suites_V2.0.0/GD32F30x_Demo_Suites_V2.0.0/BearPi-IoT_GD32F303_Demo_Suites/Projects/17_RCU_Clock_Out\main.c ****     uint8_t func_seq = 0;
 227              		.loc 1 67 0
 228              		.cfi_startproc
 229              		@ args = 0, pretend = 0, frame = 0
 230              		@ frame_needed = 0, uses_anonymous_args = 0
ARM GAS  C:\Users\49542\AppData\Local\Temp\cc4GOCN2.s 			page 8


 231 0000 10B5     		push	{r4, lr}
 232              	.LCFI4:
 233              		.cfi_def_cfa_offset 8
 234              		.cfi_offset 4, -8
 235              		.cfi_offset 14, -4
 236              	.LVL23:
  71:C:/Users/49542/Desktop/GD32F30x_Demo_Suites_V2.0.0/GD32F30x_Demo_Suites_V2.0.0/BearPi-IoT_GD32F303_Demo_Suites/Projects/17_RCU_Clock_Out\main.c ****     
 237              		.loc 1 71 0
 238 0002 1648     		ldr	r0, .L26
 239 0004 FFF7FEFF 		bl	gd_eval_com_init
 240              	.LVL24:
  73:C:/Users/49542/Desktop/GD32F30x_Demo_Suites_V2.0.0/GD32F30x_Demo_Suites_V2.0.0/BearPi-IoT_GD32F303_Demo_Suites/Projects/17_RCU_Clock_Out\main.c ****     printf("press F1 key to select clock output source \r\n");
 241              		.loc 1 73 0
 242 0008 1548     		ldr	r0, .L26+4
 243 000a FFF7FEFF 		bl	puts
 244              	.LVL25:
  74:C:/Users/49542/Desktop/GD32F30x_Demo_Suites_V2.0.0/GD32F30x_Demo_Suites_V2.0.0/BearPi-IoT_GD32F303_Demo_Suites/Projects/17_RCU_Clock_Out\main.c ****     
 245              		.loc 1 74 0
 246 000e 1548     		ldr	r0, .L26+8
 247 0010 FFF7FEFF 		bl	puts
 248              	.LVL26:
  77:C:/Users/49542/Desktop/GD32F30x_Demo_Suites_V2.0.0/GD32F30x_Demo_Suites_V2.0.0/BearPi-IoT_GD32F303_Demo_Suites/Projects/17_RCU_Clock_Out\main.c ****     /* initialize the clock output */
 249              		.loc 1 77 0
 250 0014 FFF7FEFF 		bl	led_init
 251              	.LVL27:
  79:C:/Users/49542/Desktop/GD32F30x_Demo_Suites_V2.0.0/GD32F30x_Demo_Suites_V2.0.0/BearPi-IoT_GD32F303_Demo_Suites/Projects/17_RCU_Clock_Out\main.c ****     /* initialize the tamper key */
 252              		.loc 1 79 0
 253 0018 FFF7FEFF 		bl	clock_output_config
 254              	.LVL28:
  81:C:/Users/49542/Desktop/GD32F30x_Demo_Suites_V2.0.0/GD32F30x_Demo_Suites_V2.0.0/BearPi-IoT_GD32F303_Demo_Suites/Projects/17_RCU_Clock_Out\main.c ****    
 255              		.loc 1 81 0
 256 001c 0121     		movs	r1, #1
 257 001e 0020     		movs	r0, #0
 258 0020 FFF7FEFF 		bl	gd_eval_key_init
 259              	.LVL29:
  68:C:/Users/49542/Desktop/GD32F30x_Demo_Suites_V2.0.0/GD32F30x_Demo_Suites_V2.0.0/BearPi-IoT_GD32F303_Demo_Suites/Projects/17_RCU_Clock_Out\main.c ****     
 260              		.loc 1 68 0
 261 0024 0024     		movs	r4, #0
 262              	.LVL30:
 263              	.L23:
  84:C:/Users/49542/Desktop/GD32F30x_Demo_Suites_V2.0.0/GD32F30x_Demo_Suites_V2.0.0/BearPi-IoT_GD32F303_Demo_Suites/Projects/17_RCU_Clock_Out\main.c ****             /* if the button is pressed */
 264              		.loc 1 84 0
 265 0026 104B     		ldr	r3, .L26+12
 266 0028 1B78     		ldrb	r3, [r3]	@ zero_extendqisi2
 267 002a 012B     		cmp	r3, #1
 268 002c FBD1     		bne	.L23
  86:C:/Users/49542/Desktop/GD32F30x_Demo_Suites_V2.0.0/GD32F30x_Demo_Suites_V2.0.0/BearPi-IoT_GD32F303_Demo_Suites/Projects/17_RCU_Clock_Out\main.c ****             /* control the led */
 269              		.loc 1 86 0
 270 002e 0E4B     		ldr	r3, .L26+12
 271 0030 0022     		movs	r2, #0
 272 0032 1A70     		strb	r2, [r3]
  88:C:/Users/49542/Desktop/GD32F30x_Demo_Suites_V2.0.0/GD32F30x_Demo_Suites_V2.0.0/BearPi-IoT_GD32F303_Demo_Suites/Projects/17_RCU_Clock_Out\main.c ****             gd_eval_led_on((led_typedef_enum)func_seq);
 273              		.loc 1 88 0
 274 0034 FFF7FEFF 		bl	led_off
 275              	.LVL31:
  89:C:/Users/49542/Desktop/GD32F30x_Demo_Suites_V2.0.0/GD32F30x_Demo_Suites_V2.0.0/BearPi-IoT_GD32F303_Demo_Suites/Projects/17_RCU_Clock_Out\main.c ****             /* select the clock output mode */
 276              		.loc 1 89 0
ARM GAS  C:\Users\49542\AppData\Local\Temp\cc4GOCN2.s 			page 9


 277 0038 2046     		mov	r0, r4
 278 003a FFF7FEFF 		bl	gd_eval_led_on
 279              	.LVL32:
  91:C:/Users/49542/Desktop/GD32F30x_Demo_Suites_V2.0.0/GD32F30x_Demo_Suites_V2.0.0/BearPi-IoT_GD32F303_Demo_Suites/Projects/17_RCU_Clock_Out\main.c ****             
 280              		.loc 1 91 0
 281 003e 2046     		mov	r0, r4
 282 0040 FFF7FEFF 		bl	clock_output_select
 283              	.LVL33:
  93:C:/Users/49542/Desktop/GD32F30x_Demo_Suites_V2.0.0/GD32F30x_Demo_Suites_V2.0.0/BearPi-IoT_GD32F303_Demo_Suites/Projects/17_RCU_Clock_Out\main.c ****             func_seq %= 3;
 284              		.loc 1 93 0
 285 0044 0134     		adds	r4, r4, #1
 286              	.LVL34:
 287 0046 E4B2     		uxtb	r4, r4
 288              	.LVL35:
  94:C:/Users/49542/Desktop/GD32F30x_Demo_Suites_V2.0.0/GD32F30x_Demo_Suites_V2.0.0/BearPi-IoT_GD32F303_Demo_Suites/Projects/17_RCU_Clock_Out\main.c ****         }
 289              		.loc 1 94 0
 290 0048 084B     		ldr	r3, .L26+16
 291 004a A3FB0423 		umull	r2, r3, r3, r4
 292 004e 5B08     		lsrs	r3, r3, #1
 293 0050 03EB4303 		add	r3, r3, r3, lsl #1
 294 0054 E41A     		subs	r4, r4, r3
 295              	.LVL36:
 296 0056 E4B2     		uxtb	r4, r4
 297              	.LVL37:
 298 0058 E5E7     		b	.L23
 299              	.L27:
 300 005a 00BF     		.align	2
 301              	.L26:
 302 005c 00380140 		.word	1073821696
 303 0060 00000000 		.word	.LC5
 304 0064 3C000000 		.word	.LC6
 305 0068 00000000 		.word	g_button_press_flag
 306 006c ABAAAAAA 		.word	-1431655765
 307              		.cfi_endproc
 308              	.LFE119:
 310              		.section	.text.fputc,"ax",%progbits
 311              		.align	1
 312              		.global	fputc
 313              		.syntax unified
 314              		.thumb
 315              		.thumb_func
 316              		.fpu fpv4-sp-d16
 318              	fputc:
 319              	.LFB124:
 170:C:/Users/49542/Desktop/GD32F30x_Demo_Suites_V2.0.0/GD32F30x_Demo_Suites_V2.0.0/BearPi-IoT_GD32F303_Demo_Suites/Projects/17_RCU_Clock_Out\main.c **** 
 171:C:/Users/49542/Desktop/GD32F30x_Demo_Suites_V2.0.0/GD32F30x_Demo_Suites_V2.0.0/BearPi-IoT_GD32F303_Demo_Suites/Projects/17_RCU_Clock_Out\main.c **** /* retarget the C library printf function to the USART */
 172:C:/Users/49542/Desktop/GD32F30x_Demo_Suites_V2.0.0/GD32F30x_Demo_Suites_V2.0.0/BearPi-IoT_GD32F303_Demo_Suites/Projects/17_RCU_Clock_Out\main.c **** int fputc(int ch, FILE *f)
 173:C:/Users/49542/Desktop/GD32F30x_Demo_Suites_V2.0.0/GD32F30x_Demo_Suites_V2.0.0/BearPi-IoT_GD32F303_Demo_Suites/Projects/17_RCU_Clock_Out\main.c **** {
 320              		.loc 1 173 0
 321              		.cfi_startproc
 322              		@ args = 0, pretend = 0, frame = 0
 323              		@ frame_needed = 0, uses_anonymous_args = 0
 324              	.LVL38:
 325 0000 10B5     		push	{r4, lr}
 326              	.LCFI5:
 327              		.cfi_def_cfa_offset 8
 328              		.cfi_offset 4, -8
ARM GAS  C:\Users\49542\AppData\Local\Temp\cc4GOCN2.s 			page 10


 329              		.cfi_offset 14, -4
 330 0002 0446     		mov	r4, r0
 174:C:/Users/49542/Desktop/GD32F30x_Demo_Suites_V2.0.0/GD32F30x_Demo_Suites_V2.0.0/BearPi-IoT_GD32F303_Demo_Suites/Projects/17_RCU_Clock_Out\main.c ****     usart_data_transmit(EVAL_COM0, (uint8_t)ch);
 331              		.loc 1 174 0
 332 0004 C1B2     		uxtb	r1, r0
 333              	.LVL39:
 334 0006 0548     		ldr	r0, .L31
 335              	.LVL40:
 336 0008 FFF7FEFF 		bl	usart_data_transmit
 337              	.LVL41:
 338              	.L29:
 175:C:/Users/49542/Desktop/GD32F30x_Demo_Suites_V2.0.0/GD32F30x_Demo_Suites_V2.0.0/BearPi-IoT_GD32F303_Demo_Suites/Projects/17_RCU_Clock_Out\main.c ****     while(RESET == usart_flag_get(EVAL_COM0, USART_FLAG_TC));
 339              		.loc 1 175 0 discriminator 1
 340 000c 0621     		movs	r1, #6
 341 000e 0348     		ldr	r0, .L31
 342 0010 FFF7FEFF 		bl	usart_flag_get
 343              	.LVL42:
 344 0014 0028     		cmp	r0, #0
 345 0016 F9D0     		beq	.L29
 176:C:/Users/49542/Desktop/GD32F30x_Demo_Suites_V2.0.0/GD32F30x_Demo_Suites_V2.0.0/BearPi-IoT_GD32F303_Demo_Suites/Projects/17_RCU_Clock_Out\main.c ****     
 177:C:/Users/49542/Desktop/GD32F30x_Demo_Suites_V2.0.0/GD32F30x_Demo_Suites_V2.0.0/BearPi-IoT_GD32F303_Demo_Suites/Projects/17_RCU_Clock_Out\main.c ****     return ch;
 178:C:/Users/49542/Desktop/GD32F30x_Demo_Suites_V2.0.0/GD32F30x_Demo_Suites_V2.0.0/BearPi-IoT_GD32F303_Demo_Suites/Projects/17_RCU_Clock_Out\main.c **** }
 346              		.loc 1 178 0
 347 0018 2046     		mov	r0, r4
 348 001a 10BD     		pop	{r4, pc}
 349              	.LVL43:
 350              	.L32:
 351              		.align	2
 352              	.L31:
 353 001c 00380140 		.word	1073821696
 354              		.cfi_endproc
 355              	.LFE124:
 357              		.section	.rodata.clock_output_config.str1.4,"aMS",%progbits,1
 358              		.align	2
 359              	.LC0:
 360 0000 5243555F 		.ascii	"RCU_IRC8M rcu_osci_stab_wait timeout! \015\000"
 360      49524338 
 360      4D207263 
 360      755F6F73 
 360      63695F73 
 361              		.section	.rodata.clock_output_select.str1.4,"aMS",%progbits,1
 362              		.align	2
 363              	.LC1:
 364 0000 434B5F4F 		.ascii	"CK_OUT0: system clock \015\000"
 364      5554303A 
 364      20737973 
 364      74656D20 
 364      636C6F63 
 365              	.LC2:
 366 0018 434B5F4F 		.ascii	"CK_OUT0: IRC8M \015\000"
 366      5554303A 
 366      20495243 
 366      384D200D 
 366      00
 367 0029 000000   		.space	3
 368              	.LC3:
 369 002c 434B5F4F 		.ascii	"CK_OUT0: HXTAL \015\000"
ARM GAS  C:\Users\49542\AppData\Local\Temp\cc4GOCN2.s 			page 11


 369      5554303A 
 369      20485854 
 369      414C200D 
 369      00
 370 003d 000000   		.space	3
 371              	.LC4:
 372 0040 636C6F63 		.ascii	"clock output select parameter error! \015\000"
 372      6B206F75 
 372      74707574 
 372      2073656C 
 372      65637420 
 373              		.section	.rodata.main.str1.4,"aMS",%progbits,1
 374              		.align	2
 375              	.LC5:
 376 0000 0D0A202F 		.ascii	"\015\012 /=========== Gigadevice Clock output Demo "
 376      3D3D3D3D 
 376      3D3D3D3D 
 376      3D3D3D20 
 376      47696761 
 377 002d 3D3D3D3D 		.ascii	"===========/ \015\000"
 377      3D3D3D3D 
 377      3D3D3D2F 
 377      200D00
 378              	.LC6:
 379 003c 70726573 		.ascii	"press F1 key to select clock output source \015\000"
 379      73204631 
 379      206B6579 
 379      20746F20 
 379      73656C65 
 380              		.text
 381              	.Letext0:
 382              		.file 2 "c:\\users\\49542\\opensourcetools\\gnu tools arm embedded\\7 2018-q2-update\\arm-none-eab
 383              		.file 3 "c:\\users\\49542\\opensourcetools\\gnu tools arm embedded\\7 2018-q2-update\\arm-none-eab
 384              		.file 4 "C:/Users/49542/Desktop/GD32F30x_Demo_Suites_V2.0.0/GD32F30x_Demo_Suites_V2.0.0/GD32F30x_F
 385              		.file 5 "C:/Users/49542/Desktop/GD32F30x_Demo_Suites_V2.0.0/GD32F30x_Demo_Suites_V2.0.0/GD32F30x_F
 386              		.file 6 "C:/Users/49542/Desktop/GD32F30x_Demo_Suites_V2.0.0/GD32F30x_Demo_Suites_V2.0.0/GD32F30x_F
 387              		.file 7 "C:/Users/49542/Desktop/GD32F30x_Demo_Suites_V2.0.0/GD32F30x_Demo_Suites_V2.0.0/GD32F30x_F
 388              		.file 8 "C:/Users/49542/Desktop/GD32F30x_Demo_Suites_V2.0.0/GD32F30x_Demo_Suites_V2.0.0/GD32F30x_F
 389              		.file 9 "c:\\users\\49542\\opensourcetools\\gnu tools arm embedded\\7 2018-q2-update\\arm-none-eab
 390              		.file 10 "c:\\users\\49542\\opensourcetools\\gnu tools arm embedded\\7 2018-q2-update\\arm-none-ea
 391              		.file 11 "c:\\users\\49542\\opensourcetools\\gnu tools arm embedded\\7 2018-q2-update\\lib\\gcc\\a
 392              		.file 12 "c:\\users\\49542\\opensourcetools\\gnu tools arm embedded\\7 2018-q2-update\\arm-none-ea
 393              		.file 13 "c:\\users\\49542\\opensourcetools\\gnu tools arm embedded\\7 2018-q2-update\\arm-none-ea
 394              		.file 14 "C:/Users/49542/Desktop/GD32F30x_Demo_Suites_V2.0.0/GD32F30x_Demo_Suites_V2.0.0/BearPi-Io
 395              		.file 15 "c:\\users\\49542\\opensourcetools\\gnu tools arm embedded\\7 2018-q2-update\\arm-none-ea
 396              		.file 16 "C:/Users/49542/Desktop/GD32F30x_Demo_Suites_V2.0.0/GD32F30x_Demo_Suites_V2.0.0/GD32F30x_
 397              		.file 17 "<built-in>"
ARM GAS  C:\Users\49542\AppData\Local\Temp\cc4GOCN2.s 			page 12

