ARM GAS  C:\Users\49542\AppData\Local\Temp\ccCGQ85p.s 			page 1


   1              		.cpu cortex-m4
   2              		.eabi_attribute 27, 1
   3              		.eabi_attribute 28, 1
   4              		.eabi_attribute 20, 1
   5              		.eabi_attribute 21, 1
   6              		.eabi_attribute 23, 3
   7              		.eabi_attribute 24, 1
   8              		.eabi_attribute 25, 1
   9              		.eabi_attribute 26, 1
  10              		.eabi_attribute 30, 1
  11              		.eabi_attribute 34, 1
  12              		.eabi_attribute 18, 4
  13              		.file	"system_gd32f30x.c"
  14              		.text
  15              	.Ltext0:
  16              		.cfi_sections	.debug_frame
  17              		.section	.text.system_clock_120m_hxtal,"ax",%progbits
  18              		.align	1
  19              		.syntax unified
  20              		.thumb
  21              		.thumb_func
  22              		.fpu fpv4-sp-d16
  24              	system_clock_120m_hxtal:
  25              	.LFB118:
  26              		.file 1 "C:/Users/49542/Desktop/GD32F30x_Demo_Suites_V2.0.0/GD32F30x_Demo_Suites_V2.0.0/GD32F30x_F
   1:C:/Users/49542/Desktop/GD32F30x_Demo_Suites_V2.0.0/GD32F30x_Demo_Suites_V2.0.0/GD32F30x_Firmware_Library/CMSIS/GD/GD32F30x/Source\system_gd32f30x.c **** /*!
   2:C:/Users/49542/Desktop/GD32F30x_Demo_Suites_V2.0.0/GD32F30x_Demo_Suites_V2.0.0/GD32F30x_Firmware_Library/CMSIS/GD/GD32F30x/Source\system_gd32f30x.c ****     \file  system_gd32f30x.c
   3:C:/Users/49542/Desktop/GD32F30x_Demo_Suites_V2.0.0/GD32F30x_Demo_Suites_V2.0.0/GD32F30x_Firmware_Library/CMSIS/GD/GD32F30x/Source\system_gd32f30x.c ****     \brief CMSIS Cortex-M4 Device Peripheral Access Layer Source File for
   4:C:/Users/49542/Desktop/GD32F30x_Demo_Suites_V2.0.0/GD32F30x_Demo_Suites_V2.0.0/GD32F30x_Firmware_Library/CMSIS/GD/GD32F30x/Source\system_gd32f30x.c ****            GD32F30x Device Series
   5:C:/Users/49542/Desktop/GD32F30x_Demo_Suites_V2.0.0/GD32F30x_Demo_Suites_V2.0.0/GD32F30x_Firmware_Library/CMSIS/GD/GD32F30x/Source\system_gd32f30x.c **** */
   6:C:/Users/49542/Desktop/GD32F30x_Demo_Suites_V2.0.0/GD32F30x_Demo_Suites_V2.0.0/GD32F30x_Firmware_Library/CMSIS/GD/GD32F30x/Source\system_gd32f30x.c **** 
   7:C:/Users/49542/Desktop/GD32F30x_Demo_Suites_V2.0.0/GD32F30x_Demo_Suites_V2.0.0/GD32F30x_Firmware_Library/CMSIS/GD/GD32F30x/Source\system_gd32f30x.c **** /* Copyright (c) 2012 ARM LIMITED
   8:C:/Users/49542/Desktop/GD32F30x_Demo_Suites_V2.0.0/GD32F30x_Demo_Suites_V2.0.0/GD32F30x_Firmware_Library/CMSIS/GD/GD32F30x/Source\system_gd32f30x.c **** 
   9:C:/Users/49542/Desktop/GD32F30x_Demo_Suites_V2.0.0/GD32F30x_Demo_Suites_V2.0.0/GD32F30x_Firmware_Library/CMSIS/GD/GD32F30x/Source\system_gd32f30x.c ****    All rights reserved.
  10:C:/Users/49542/Desktop/GD32F30x_Demo_Suites_V2.0.0/GD32F30x_Demo_Suites_V2.0.0/GD32F30x_Firmware_Library/CMSIS/GD/GD32F30x/Source\system_gd32f30x.c ****    Redistribution and use in source and binary forms, with or without
  11:C:/Users/49542/Desktop/GD32F30x_Demo_Suites_V2.0.0/GD32F30x_Demo_Suites_V2.0.0/GD32F30x_Firmware_Library/CMSIS/GD/GD32F30x/Source\system_gd32f30x.c ****    modification, are permitted provided that the following conditions are met:
  12:C:/Users/49542/Desktop/GD32F30x_Demo_Suites_V2.0.0/GD32F30x_Demo_Suites_V2.0.0/GD32F30x_Firmware_Library/CMSIS/GD/GD32F30x/Source\system_gd32f30x.c ****    - Redistributions of source code must retain the above copyright
  13:C:/Users/49542/Desktop/GD32F30x_Demo_Suites_V2.0.0/GD32F30x_Demo_Suites_V2.0.0/GD32F30x_Firmware_Library/CMSIS/GD/GD32F30x/Source\system_gd32f30x.c ****      notice, this list of conditions and the following disclaimer.
  14:C:/Users/49542/Desktop/GD32F30x_Demo_Suites_V2.0.0/GD32F30x_Demo_Suites_V2.0.0/GD32F30x_Firmware_Library/CMSIS/GD/GD32F30x/Source\system_gd32f30x.c ****    - Redistributions in binary form must reproduce the above copyright
  15:C:/Users/49542/Desktop/GD32F30x_Demo_Suites_V2.0.0/GD32F30x_Demo_Suites_V2.0.0/GD32F30x_Firmware_Library/CMSIS/GD/GD32F30x/Source\system_gd32f30x.c ****      notice, this list of conditions and the following disclaimer in the
  16:C:/Users/49542/Desktop/GD32F30x_Demo_Suites_V2.0.0/GD32F30x_Demo_Suites_V2.0.0/GD32F30x_Firmware_Library/CMSIS/GD/GD32F30x/Source\system_gd32f30x.c ****      documentation and/or other materials provided with the distribution.
  17:C:/Users/49542/Desktop/GD32F30x_Demo_Suites_V2.0.0/GD32F30x_Demo_Suites_V2.0.0/GD32F30x_Firmware_Library/CMSIS/GD/GD32F30x/Source\system_gd32f30x.c ****    - Neither the name of ARM nor the names of its contributors may be used
  18:C:/Users/49542/Desktop/GD32F30x_Demo_Suites_V2.0.0/GD32F30x_Demo_Suites_V2.0.0/GD32F30x_Firmware_Library/CMSIS/GD/GD32F30x/Source\system_gd32f30x.c ****      to endorse or promote products derived from this software without
  19:C:/Users/49542/Desktop/GD32F30x_Demo_Suites_V2.0.0/GD32F30x_Demo_Suites_V2.0.0/GD32F30x_Firmware_Library/CMSIS/GD/GD32F30x/Source\system_gd32f30x.c ****      specific prior written permission.
  20:C:/Users/49542/Desktop/GD32F30x_Demo_Suites_V2.0.0/GD32F30x_Demo_Suites_V2.0.0/GD32F30x_Firmware_Library/CMSIS/GD/GD32F30x/Source\system_gd32f30x.c ****    *
  21:C:/Users/49542/Desktop/GD32F30x_Demo_Suites_V2.0.0/GD32F30x_Demo_Suites_V2.0.0/GD32F30x_Firmware_Library/CMSIS/GD/GD32F30x/Source\system_gd32f30x.c ****    THIS SOFTWARE IS PROVIDED BY THE COPYRIGHT HOLDERS AND CONTRIBUTORS "AS IS"
  22:C:/Users/49542/Desktop/GD32F30x_Demo_Suites_V2.0.0/GD32F30x_Demo_Suites_V2.0.0/GD32F30x_Firmware_Library/CMSIS/GD/GD32F30x/Source\system_gd32f30x.c ****    AND ANY EXPRESS OR IMPLIED WARRANTIES, INCLUDING, BUT NOT LIMITED TO, THE
  23:C:/Users/49542/Desktop/GD32F30x_Demo_Suites_V2.0.0/GD32F30x_Demo_Suites_V2.0.0/GD32F30x_Firmware_Library/CMSIS/GD/GD32F30x/Source\system_gd32f30x.c ****    IMPLIED WARRANTIES OF MERCHANTABILITY AND FITNESS FOR A PARTICULAR PURPOSE
  24:C:/Users/49542/Desktop/GD32F30x_Demo_Suites_V2.0.0/GD32F30x_Demo_Suites_V2.0.0/GD32F30x_Firmware_Library/CMSIS/GD/GD32F30x/Source\system_gd32f30x.c ****    ARE DISCLAIMED. IN NO EVENT SHALL COPYRIGHT HOLDERS AND CONTRIBUTORS BE
  25:C:/Users/49542/Desktop/GD32F30x_Demo_Suites_V2.0.0/GD32F30x_Demo_Suites_V2.0.0/GD32F30x_Firmware_Library/CMSIS/GD/GD32F30x/Source\system_gd32f30x.c ****    LIABLE FOR ANY DIRECT, INDIRECT, INCIDENTAL, SPECIAL, EXEMPLARY, OR
  26:C:/Users/49542/Desktop/GD32F30x_Demo_Suites_V2.0.0/GD32F30x_Demo_Suites_V2.0.0/GD32F30x_Firmware_Library/CMSIS/GD/GD32F30x/Source\system_gd32f30x.c ****    CONSEQUENTIAL DAMAGES (INCLUDING, BUT NOT LIMITED TO, PROCUREMENT OF
  27:C:/Users/49542/Desktop/GD32F30x_Demo_Suites_V2.0.0/GD32F30x_Demo_Suites_V2.0.0/GD32F30x_Firmware_Library/CMSIS/GD/GD32F30x/Source\system_gd32f30x.c ****    SUBSTITUTE GOODS OR SERVICES; LOSS OF USE, DATA, OR PROFITS; OR BUSINESS
  28:C:/Users/49542/Desktop/GD32F30x_Demo_Suites_V2.0.0/GD32F30x_Demo_Suites_V2.0.0/GD32F30x_Firmware_Library/CMSIS/GD/GD32F30x/Source\system_gd32f30x.c ****    INTERRUPTION) HOWEVER CAUSED AND ON ANY THEORY OF LIABILITY, WHETHER IN
  29:C:/Users/49542/Desktop/GD32F30x_Demo_Suites_V2.0.0/GD32F30x_Demo_Suites_V2.0.0/GD32F30x_Firmware_Library/CMSIS/GD/GD32F30x/Source\system_gd32f30x.c ****    CONTRACT, STRICT LIABILITY, OR TORT (INCLUDING NEGLIGENCE OR OTHERWISE)
  30:C:/Users/49542/Desktop/GD32F30x_Demo_Suites_V2.0.0/GD32F30x_Demo_Suites_V2.0.0/GD32F30x_Firmware_Library/CMSIS/GD/GD32F30x/Source\system_gd32f30x.c ****    ARISING IN ANY WAY OUT OF THE USE OF THIS SOFTWARE, EVEN IF ADVISED OF THE
  31:C:/Users/49542/Desktop/GD32F30x_Demo_Suites_V2.0.0/GD32F30x_Demo_Suites_V2.0.0/GD32F30x_Firmware_Library/CMSIS/GD/GD32F30x/Source\system_gd32f30x.c ****    POSSIBILITY OF SUCH DAMAGE.
  32:C:/Users/49542/Desktop/GD32F30x_Demo_Suites_V2.0.0/GD32F30x_Demo_Suites_V2.0.0/GD32F30x_Firmware_Library/CMSIS/GD/GD32F30x/Source\system_gd32f30x.c ****    ---------------------------------------------------------------------------*/
ARM GAS  C:\Users\49542\AppData\Local\Temp\ccCGQ85p.s 			page 2


  33:C:/Users/49542/Desktop/GD32F30x_Demo_Suites_V2.0.0/GD32F30x_Demo_Suites_V2.0.0/GD32F30x_Firmware_Library/CMSIS/GD/GD32F30x/Source\system_gd32f30x.c **** /* This file refers the CMSIS standard, some adjustments are made according to GigaDevice chips */
  34:C:/Users/49542/Desktop/GD32F30x_Demo_Suites_V2.0.0/GD32F30x_Demo_Suites_V2.0.0/GD32F30x_Firmware_Library/CMSIS/GD/GD32F30x/Source\system_gd32f30x.c **** 
  35:C:/Users/49542/Desktop/GD32F30x_Demo_Suites_V2.0.0/GD32F30x_Demo_Suites_V2.0.0/GD32F30x_Firmware_Library/CMSIS/GD/GD32F30x/Source\system_gd32f30x.c **** #include "gd32f30x.h"
  36:C:/Users/49542/Desktop/GD32F30x_Demo_Suites_V2.0.0/GD32F30x_Demo_Suites_V2.0.0/GD32F30x_Firmware_Library/CMSIS/GD/GD32F30x/Source\system_gd32f30x.c **** 
  37:C:/Users/49542/Desktop/GD32F30x_Demo_Suites_V2.0.0/GD32F30x_Demo_Suites_V2.0.0/GD32F30x_Firmware_Library/CMSIS/GD/GD32F30x/Source\system_gd32f30x.c **** /* system frequency define */
  38:C:/Users/49542/Desktop/GD32F30x_Demo_Suites_V2.0.0/GD32F30x_Demo_Suites_V2.0.0/GD32F30x_Firmware_Library/CMSIS/GD/GD32F30x/Source\system_gd32f30x.c **** #define __IRC8M           (IRC8M_VALUE)            /* internal 8 MHz RC oscillator frequency */
  39:C:/Users/49542/Desktop/GD32F30x_Demo_Suites_V2.0.0/GD32F30x_Demo_Suites_V2.0.0/GD32F30x_Firmware_Library/CMSIS/GD/GD32F30x/Source\system_gd32f30x.c **** #define __HXTAL           (HXTAL_VALUE)            /* high speed crystal oscillator frequency */
  40:C:/Users/49542/Desktop/GD32F30x_Demo_Suites_V2.0.0/GD32F30x_Demo_Suites_V2.0.0/GD32F30x_Firmware_Library/CMSIS/GD/GD32F30x/Source\system_gd32f30x.c **** #define __SYS_OSC_CLK     (__IRC8M)                /* main oscillator frequency */
  41:C:/Users/49542/Desktop/GD32F30x_Demo_Suites_V2.0.0/GD32F30x_Demo_Suites_V2.0.0/GD32F30x_Firmware_Library/CMSIS/GD/GD32F30x/Source\system_gd32f30x.c **** 
  42:C:/Users/49542/Desktop/GD32F30x_Demo_Suites_V2.0.0/GD32F30x_Demo_Suites_V2.0.0/GD32F30x_Firmware_Library/CMSIS/GD/GD32F30x/Source\system_gd32f30x.c **** /* select a system clock by uncommenting the following line */
  43:C:/Users/49542/Desktop/GD32F30x_Demo_Suites_V2.0.0/GD32F30x_Demo_Suites_V2.0.0/GD32F30x_Firmware_Library/CMSIS/GD/GD32F30x/Source\system_gd32f30x.c **** /* use IRC8M */
  44:C:/Users/49542/Desktop/GD32F30x_Demo_Suites_V2.0.0/GD32F30x_Demo_Suites_V2.0.0/GD32F30x_Firmware_Library/CMSIS/GD/GD32F30x/Source\system_gd32f30x.c **** //#define __SYSTEM_CLOCK_IRC8M                    (uint32_t)(__IRC8M) 
  45:C:/Users/49542/Desktop/GD32F30x_Demo_Suites_V2.0.0/GD32F30x_Demo_Suites_V2.0.0/GD32F30x_Firmware_Library/CMSIS/GD/GD32F30x/Source\system_gd32f30x.c **** //#define __SYSTEM_CLOCK_48M_PLL_IRC8M            (uint32_t)(48000000)
  46:C:/Users/49542/Desktop/GD32F30x_Demo_Suites_V2.0.0/GD32F30x_Demo_Suites_V2.0.0/GD32F30x_Firmware_Library/CMSIS/GD/GD32F30x/Source\system_gd32f30x.c **** //#define __SYSTEM_CLOCK_72M_PLL_IRC8M            (uint32_t)(72000000)
  47:C:/Users/49542/Desktop/GD32F30x_Demo_Suites_V2.0.0/GD32F30x_Demo_Suites_V2.0.0/GD32F30x_Firmware_Library/CMSIS/GD/GD32F30x/Source\system_gd32f30x.c **** //#define __SYSTEM_CLOCK_108M_PLL_IRC8M           (uint32_t)(108000000)
  48:C:/Users/49542/Desktop/GD32F30x_Demo_Suites_V2.0.0/GD32F30x_Demo_Suites_V2.0.0/GD32F30x_Firmware_Library/CMSIS/GD/GD32F30x/Source\system_gd32f30x.c **** //#define __SYSTEM_CLOCK_120M_PLL_IRC8M           (uint32_t)(120000000)
  49:C:/Users/49542/Desktop/GD32F30x_Demo_Suites_V2.0.0/GD32F30x_Demo_Suites_V2.0.0/GD32F30x_Firmware_Library/CMSIS/GD/GD32F30x/Source\system_gd32f30x.c **** 
  50:C:/Users/49542/Desktop/GD32F30x_Demo_Suites_V2.0.0/GD32F30x_Demo_Suites_V2.0.0/GD32F30x_Firmware_Library/CMSIS/GD/GD32F30x/Source\system_gd32f30x.c **** /* use HXTAL(XD series CK_HXTAL = 8M, CL series CK_HXTAL = 25M) */
  51:C:/Users/49542/Desktop/GD32F30x_Demo_Suites_V2.0.0/GD32F30x_Demo_Suites_V2.0.0/GD32F30x_Firmware_Library/CMSIS/GD/GD32F30x/Source\system_gd32f30x.c **** //#define __SYSTEM_CLOCK_HXTAL                    (uint32_t)(__HXTAL)
  52:C:/Users/49542/Desktop/GD32F30x_Demo_Suites_V2.0.0/GD32F30x_Demo_Suites_V2.0.0/GD32F30x_Firmware_Library/CMSIS/GD/GD32F30x/Source\system_gd32f30x.c **** //#define __SYSTEM_CLOCK_48M_PLL_HXTAL            (uint32_t)(48000000)
  53:C:/Users/49542/Desktop/GD32F30x_Demo_Suites_V2.0.0/GD32F30x_Demo_Suites_V2.0.0/GD32F30x_Firmware_Library/CMSIS/GD/GD32F30x/Source\system_gd32f30x.c **** //#define __SYSTEM_CLOCK_72M_PLL_HXTAL            (uint32_t)(72000000)
  54:C:/Users/49542/Desktop/GD32F30x_Demo_Suites_V2.0.0/GD32F30x_Demo_Suites_V2.0.0/GD32F30x_Firmware_Library/CMSIS/GD/GD32F30x/Source\system_gd32f30x.c **** //#define __SYSTEM_CLOCK_108M_PLL_HXTAL           (uint32_t)(108000000)
  55:C:/Users/49542/Desktop/GD32F30x_Demo_Suites_V2.0.0/GD32F30x_Demo_Suites_V2.0.0/GD32F30x_Firmware_Library/CMSIS/GD/GD32F30x/Source\system_gd32f30x.c **** #define __SYSTEM_CLOCK_120M_PLL_HXTAL           (uint32_t)(120000000)
  56:C:/Users/49542/Desktop/GD32F30x_Demo_Suites_V2.0.0/GD32F30x_Demo_Suites_V2.0.0/GD32F30x_Firmware_Library/CMSIS/GD/GD32F30x/Source\system_gd32f30x.c **** 
  57:C:/Users/49542/Desktop/GD32F30x_Demo_Suites_V2.0.0/GD32F30x_Demo_Suites_V2.0.0/GD32F30x_Firmware_Library/CMSIS/GD/GD32F30x/Source\system_gd32f30x.c **** #define SEL_IRC8M       0x00U
  58:C:/Users/49542/Desktop/GD32F30x_Demo_Suites_V2.0.0/GD32F30x_Demo_Suites_V2.0.0/GD32F30x_Firmware_Library/CMSIS/GD/GD32F30x/Source\system_gd32f30x.c **** #define SEL_HXTAL       0x01U
  59:C:/Users/49542/Desktop/GD32F30x_Demo_Suites_V2.0.0/GD32F30x_Demo_Suites_V2.0.0/GD32F30x_Firmware_Library/CMSIS/GD/GD32F30x/Source\system_gd32f30x.c **** #define SEL_PLL         0x02U
  60:C:/Users/49542/Desktop/GD32F30x_Demo_Suites_V2.0.0/GD32F30x_Demo_Suites_V2.0.0/GD32F30x_Firmware_Library/CMSIS/GD/GD32F30x/Source\system_gd32f30x.c **** 
  61:C:/Users/49542/Desktop/GD32F30x_Demo_Suites_V2.0.0/GD32F30x_Demo_Suites_V2.0.0/GD32F30x_Firmware_Library/CMSIS/GD/GD32F30x/Source\system_gd32f30x.c **** /* set the system clock frequency and declare the system clock configuration function */
  62:C:/Users/49542/Desktop/GD32F30x_Demo_Suites_V2.0.0/GD32F30x_Demo_Suites_V2.0.0/GD32F30x_Firmware_Library/CMSIS/GD/GD32F30x/Source\system_gd32f30x.c **** #ifdef __SYSTEM_CLOCK_IRC8M
  63:C:/Users/49542/Desktop/GD32F30x_Demo_Suites_V2.0.0/GD32F30x_Demo_Suites_V2.0.0/GD32F30x_Firmware_Library/CMSIS/GD/GD32F30x/Source\system_gd32f30x.c **** uint32_t SystemCoreClock = __SYSTEM_CLOCK_IRC8M;
  64:C:/Users/49542/Desktop/GD32F30x_Demo_Suites_V2.0.0/GD32F30x_Demo_Suites_V2.0.0/GD32F30x_Firmware_Library/CMSIS/GD/GD32F30x/Source\system_gd32f30x.c **** static void system_clock_8m_irc8m(void);
  65:C:/Users/49542/Desktop/GD32F30x_Demo_Suites_V2.0.0/GD32F30x_Demo_Suites_V2.0.0/GD32F30x_Firmware_Library/CMSIS/GD/GD32F30x/Source\system_gd32f30x.c **** #elif defined (__SYSTEM_CLOCK_48M_PLL_IRC8M)
  66:C:/Users/49542/Desktop/GD32F30x_Demo_Suites_V2.0.0/GD32F30x_Demo_Suites_V2.0.0/GD32F30x_Firmware_Library/CMSIS/GD/GD32F30x/Source\system_gd32f30x.c **** uint32_t SystemCoreClock = __SYSTEM_CLOCK_48M_PLL_IRC8M;
  67:C:/Users/49542/Desktop/GD32F30x_Demo_Suites_V2.0.0/GD32F30x_Demo_Suites_V2.0.0/GD32F30x_Firmware_Library/CMSIS/GD/GD32F30x/Source\system_gd32f30x.c **** static void system_clock_48m_irc8m(void);
  68:C:/Users/49542/Desktop/GD32F30x_Demo_Suites_V2.0.0/GD32F30x_Demo_Suites_V2.0.0/GD32F30x_Firmware_Library/CMSIS/GD/GD32F30x/Source\system_gd32f30x.c **** #elif defined (__SYSTEM_CLOCK_72M_PLL_IRC8M)
  69:C:/Users/49542/Desktop/GD32F30x_Demo_Suites_V2.0.0/GD32F30x_Demo_Suites_V2.0.0/GD32F30x_Firmware_Library/CMSIS/GD/GD32F30x/Source\system_gd32f30x.c **** uint32_t SystemCoreClock = __SYSTEM_CLOCK_72M_PLL_IRC8M;
  70:C:/Users/49542/Desktop/GD32F30x_Demo_Suites_V2.0.0/GD32F30x_Demo_Suites_V2.0.0/GD32F30x_Firmware_Library/CMSIS/GD/GD32F30x/Source\system_gd32f30x.c **** static void system_clock_72m_irc8m(void);
  71:C:/Users/49542/Desktop/GD32F30x_Demo_Suites_V2.0.0/GD32F30x_Demo_Suites_V2.0.0/GD32F30x_Firmware_Library/CMSIS/GD/GD32F30x/Source\system_gd32f30x.c **** #elif defined (__SYSTEM_CLOCK_108M_PLL_IRC8M)
  72:C:/Users/49542/Desktop/GD32F30x_Demo_Suites_V2.0.0/GD32F30x_Demo_Suites_V2.0.0/GD32F30x_Firmware_Library/CMSIS/GD/GD32F30x/Source\system_gd32f30x.c **** uint32_t SystemCoreClock = __SYSTEM_CLOCK_108M_PLL_IRC8M;
  73:C:/Users/49542/Desktop/GD32F30x_Demo_Suites_V2.0.0/GD32F30x_Demo_Suites_V2.0.0/GD32F30x_Firmware_Library/CMSIS/GD/GD32F30x/Source\system_gd32f30x.c **** static void system_clock_108m_irc8m(void);
  74:C:/Users/49542/Desktop/GD32F30x_Demo_Suites_V2.0.0/GD32F30x_Demo_Suites_V2.0.0/GD32F30x_Firmware_Library/CMSIS/GD/GD32F30x/Source\system_gd32f30x.c **** #elif defined (__SYSTEM_CLOCK_120M_PLL_IRC8M)
  75:C:/Users/49542/Desktop/GD32F30x_Demo_Suites_V2.0.0/GD32F30x_Demo_Suites_V2.0.0/GD32F30x_Firmware_Library/CMSIS/GD/GD32F30x/Source\system_gd32f30x.c **** uint32_t SystemCoreClock = __SYSTEM_CLOCK_120M_PLL_IRC8M;
  76:C:/Users/49542/Desktop/GD32F30x_Demo_Suites_V2.0.0/GD32F30x_Demo_Suites_V2.0.0/GD32F30x_Firmware_Library/CMSIS/GD/GD32F30x/Source\system_gd32f30x.c **** static void system_clock_120m_irc8m(void);
  77:C:/Users/49542/Desktop/GD32F30x_Demo_Suites_V2.0.0/GD32F30x_Demo_Suites_V2.0.0/GD32F30x_Firmware_Library/CMSIS/GD/GD32F30x/Source\system_gd32f30x.c **** 
  78:C:/Users/49542/Desktop/GD32F30x_Demo_Suites_V2.0.0/GD32F30x_Demo_Suites_V2.0.0/GD32F30x_Firmware_Library/CMSIS/GD/GD32F30x/Source\system_gd32f30x.c **** #elif defined (__SYSTEM_CLOCK_HXTAL)
  79:C:/Users/49542/Desktop/GD32F30x_Demo_Suites_V2.0.0/GD32F30x_Demo_Suites_V2.0.0/GD32F30x_Firmware_Library/CMSIS/GD/GD32F30x/Source\system_gd32f30x.c **** uint32_t SystemCoreClock = __SYSTEM_CLOCK_HXTAL;
  80:C:/Users/49542/Desktop/GD32F30x_Demo_Suites_V2.0.0/GD32F30x_Demo_Suites_V2.0.0/GD32F30x_Firmware_Library/CMSIS/GD/GD32F30x/Source\system_gd32f30x.c **** static void system_clock_hxtal(void);
  81:C:/Users/49542/Desktop/GD32F30x_Demo_Suites_V2.0.0/GD32F30x_Demo_Suites_V2.0.0/GD32F30x_Firmware_Library/CMSIS/GD/GD32F30x/Source\system_gd32f30x.c **** #elif defined (__SYSTEM_CLOCK_48M_PLL_HXTAL)
  82:C:/Users/49542/Desktop/GD32F30x_Demo_Suites_V2.0.0/GD32F30x_Demo_Suites_V2.0.0/GD32F30x_Firmware_Library/CMSIS/GD/GD32F30x/Source\system_gd32f30x.c **** uint32_t SystemCoreClock = __SYSTEM_CLOCK_48M_PLL_HXTAL;
  83:C:/Users/49542/Desktop/GD32F30x_Demo_Suites_V2.0.0/GD32F30x_Demo_Suites_V2.0.0/GD32F30x_Firmware_Library/CMSIS/GD/GD32F30x/Source\system_gd32f30x.c **** static void system_clock_48m_hxtal(void);
  84:C:/Users/49542/Desktop/GD32F30x_Demo_Suites_V2.0.0/GD32F30x_Demo_Suites_V2.0.0/GD32F30x_Firmware_Library/CMSIS/GD/GD32F30x/Source\system_gd32f30x.c **** #elif defined (__SYSTEM_CLOCK_72M_PLL_HXTAL)
  85:C:/Users/49542/Desktop/GD32F30x_Demo_Suites_V2.0.0/GD32F30x_Demo_Suites_V2.0.0/GD32F30x_Firmware_Library/CMSIS/GD/GD32F30x/Source\system_gd32f30x.c **** uint32_t SystemCoreClock = __SYSTEM_CLOCK_72M_PLL_HXTAL;
  86:C:/Users/49542/Desktop/GD32F30x_Demo_Suites_V2.0.0/GD32F30x_Demo_Suites_V2.0.0/GD32F30x_Firmware_Library/CMSIS/GD/GD32F30x/Source\system_gd32f30x.c **** static void system_clock_72m_hxtal(void);
  87:C:/Users/49542/Desktop/GD32F30x_Demo_Suites_V2.0.0/GD32F30x_Demo_Suites_V2.0.0/GD32F30x_Firmware_Library/CMSIS/GD/GD32F30x/Source\system_gd32f30x.c **** #elif defined (__SYSTEM_CLOCK_108M_PLL_HXTAL)
  88:C:/Users/49542/Desktop/GD32F30x_Demo_Suites_V2.0.0/GD32F30x_Demo_Suites_V2.0.0/GD32F30x_Firmware_Library/CMSIS/GD/GD32F30x/Source\system_gd32f30x.c **** uint32_t SystemCoreClock = __SYSTEM_CLOCK_108M_PLL_HXTAL;
  89:C:/Users/49542/Desktop/GD32F30x_Demo_Suites_V2.0.0/GD32F30x_Demo_Suites_V2.0.0/GD32F30x_Firmware_Library/CMSIS/GD/GD32F30x/Source\system_gd32f30x.c **** static void system_clock_108m_hxtal(void);
ARM GAS  C:\Users\49542\AppData\Local\Temp\ccCGQ85p.s 			page 3


  90:C:/Users/49542/Desktop/GD32F30x_Demo_Suites_V2.0.0/GD32F30x_Demo_Suites_V2.0.0/GD32F30x_Firmware_Library/CMSIS/GD/GD32F30x/Source\system_gd32f30x.c **** #elif defined (__SYSTEM_CLOCK_120M_PLL_HXTAL)
  91:C:/Users/49542/Desktop/GD32F30x_Demo_Suites_V2.0.0/GD32F30x_Demo_Suites_V2.0.0/GD32F30x_Firmware_Library/CMSIS/GD/GD32F30x/Source\system_gd32f30x.c **** uint32_t SystemCoreClock = __SYSTEM_CLOCK_120M_PLL_HXTAL;
  92:C:/Users/49542/Desktop/GD32F30x_Demo_Suites_V2.0.0/GD32F30x_Demo_Suites_V2.0.0/GD32F30x_Firmware_Library/CMSIS/GD/GD32F30x/Source\system_gd32f30x.c **** static void system_clock_120m_hxtal(void);
  93:C:/Users/49542/Desktop/GD32F30x_Demo_Suites_V2.0.0/GD32F30x_Demo_Suites_V2.0.0/GD32F30x_Firmware_Library/CMSIS/GD/GD32F30x/Source\system_gd32f30x.c **** #endif /* __SYSTEM_CLOCK_IRC8M */
  94:C:/Users/49542/Desktop/GD32F30x_Demo_Suites_V2.0.0/GD32F30x_Demo_Suites_V2.0.0/GD32F30x_Firmware_Library/CMSIS/GD/GD32F30x/Source\system_gd32f30x.c **** 
  95:C:/Users/49542/Desktop/GD32F30x_Demo_Suites_V2.0.0/GD32F30x_Demo_Suites_V2.0.0/GD32F30x_Firmware_Library/CMSIS/GD/GD32F30x/Source\system_gd32f30x.c **** /* configure the system clock */
  96:C:/Users/49542/Desktop/GD32F30x_Demo_Suites_V2.0.0/GD32F30x_Demo_Suites_V2.0.0/GD32F30x_Firmware_Library/CMSIS/GD/GD32F30x/Source\system_gd32f30x.c **** static void system_clock_config(void);
  97:C:/Users/49542/Desktop/GD32F30x_Demo_Suites_V2.0.0/GD32F30x_Demo_Suites_V2.0.0/GD32F30x_Firmware_Library/CMSIS/GD/GD32F30x/Source\system_gd32f30x.c **** 
  98:C:/Users/49542/Desktop/GD32F30x_Demo_Suites_V2.0.0/GD32F30x_Demo_Suites_V2.0.0/GD32F30x_Firmware_Library/CMSIS/GD/GD32F30x/Source\system_gd32f30x.c **** /*!
  99:C:/Users/49542/Desktop/GD32F30x_Demo_Suites_V2.0.0/GD32F30x_Demo_Suites_V2.0.0/GD32F30x_Firmware_Library/CMSIS/GD/GD32F30x/Source\system_gd32f30x.c ****     \brief      setup the microcontroller system, initialize the system
 100:C:/Users/49542/Desktop/GD32F30x_Demo_Suites_V2.0.0/GD32F30x_Demo_Suites_V2.0.0/GD32F30x_Firmware_Library/CMSIS/GD/GD32F30x/Source\system_gd32f30x.c ****     \param[in]  none
 101:C:/Users/49542/Desktop/GD32F30x_Demo_Suites_V2.0.0/GD32F30x_Demo_Suites_V2.0.0/GD32F30x_Firmware_Library/CMSIS/GD/GD32F30x/Source\system_gd32f30x.c ****     \param[out] none
 102:C:/Users/49542/Desktop/GD32F30x_Demo_Suites_V2.0.0/GD32F30x_Demo_Suites_V2.0.0/GD32F30x_Firmware_Library/CMSIS/GD/GD32F30x/Source\system_gd32f30x.c ****     \retval     none
 103:C:/Users/49542/Desktop/GD32F30x_Demo_Suites_V2.0.0/GD32F30x_Demo_Suites_V2.0.0/GD32F30x_Firmware_Library/CMSIS/GD/GD32F30x/Source\system_gd32f30x.c **** */
 104:C:/Users/49542/Desktop/GD32F30x_Demo_Suites_V2.0.0/GD32F30x_Demo_Suites_V2.0.0/GD32F30x_Firmware_Library/CMSIS/GD/GD32F30x/Source\system_gd32f30x.c **** void SystemInit (void)
 105:C:/Users/49542/Desktop/GD32F30x_Demo_Suites_V2.0.0/GD32F30x_Demo_Suites_V2.0.0/GD32F30x_Firmware_Library/CMSIS/GD/GD32F30x/Source\system_gd32f30x.c **** {
 106:C:/Users/49542/Desktop/GD32F30x_Demo_Suites_V2.0.0/GD32F30x_Demo_Suites_V2.0.0/GD32F30x_Firmware_Library/CMSIS/GD/GD32F30x/Source\system_gd32f30x.c ****   /* FPU settings */
 107:C:/Users/49542/Desktop/GD32F30x_Demo_Suites_V2.0.0/GD32F30x_Demo_Suites_V2.0.0/GD32F30x_Firmware_Library/CMSIS/GD/GD32F30x/Source\system_gd32f30x.c **** #if (__FPU_PRESENT == 1) && (__FPU_USED == 1)
 108:C:/Users/49542/Desktop/GD32F30x_Demo_Suites_V2.0.0/GD32F30x_Demo_Suites_V2.0.0/GD32F30x_Firmware_Library/CMSIS/GD/GD32F30x/Source\system_gd32f30x.c ****     SCB->CPACR |= ((3UL << 10*2)|(3UL << 11*2));  /* set CP10 and CP11 Full Access */
 109:C:/Users/49542/Desktop/GD32F30x_Demo_Suites_V2.0.0/GD32F30x_Demo_Suites_V2.0.0/GD32F30x_Firmware_Library/CMSIS/GD/GD32F30x/Source\system_gd32f30x.c **** #endif
 110:C:/Users/49542/Desktop/GD32F30x_Demo_Suites_V2.0.0/GD32F30x_Demo_Suites_V2.0.0/GD32F30x_Firmware_Library/CMSIS/GD/GD32F30x/Source\system_gd32f30x.c ****     /* reset the RCU clock configuration to the default reset state */
 111:C:/Users/49542/Desktop/GD32F30x_Demo_Suites_V2.0.0/GD32F30x_Demo_Suites_V2.0.0/GD32F30x_Firmware_Library/CMSIS/GD/GD32F30x/Source\system_gd32f30x.c ****     /* Set IRC8MEN bit */
 112:C:/Users/49542/Desktop/GD32F30x_Demo_Suites_V2.0.0/GD32F30x_Demo_Suites_V2.0.0/GD32F30x_Firmware_Library/CMSIS/GD/GD32F30x/Source\system_gd32f30x.c ****     RCU_CTL |= RCU_CTL_IRC8MEN;
 113:C:/Users/49542/Desktop/GD32F30x_Demo_Suites_V2.0.0/GD32F30x_Demo_Suites_V2.0.0/GD32F30x_Firmware_Library/CMSIS/GD/GD32F30x/Source\system_gd32f30x.c **** 
 114:C:/Users/49542/Desktop/GD32F30x_Demo_Suites_V2.0.0/GD32F30x_Demo_Suites_V2.0.0/GD32F30x_Firmware_Library/CMSIS/GD/GD32F30x/Source\system_gd32f30x.c ****     /* Reset CFG0 and CFG1 registers */
 115:C:/Users/49542/Desktop/GD32F30x_Demo_Suites_V2.0.0/GD32F30x_Demo_Suites_V2.0.0/GD32F30x_Firmware_Library/CMSIS/GD/GD32F30x/Source\system_gd32f30x.c ****     RCU_CFG0 = 0x00000000U;
 116:C:/Users/49542/Desktop/GD32F30x_Demo_Suites_V2.0.0/GD32F30x_Demo_Suites_V2.0.0/GD32F30x_Firmware_Library/CMSIS/GD/GD32F30x/Source\system_gd32f30x.c ****     RCU_CFG1 = 0x00000000U;
 117:C:/Users/49542/Desktop/GD32F30x_Demo_Suites_V2.0.0/GD32F30x_Demo_Suites_V2.0.0/GD32F30x_Firmware_Library/CMSIS/GD/GD32F30x/Source\system_gd32f30x.c **** 
 118:C:/Users/49542/Desktop/GD32F30x_Demo_Suites_V2.0.0/GD32F30x_Demo_Suites_V2.0.0/GD32F30x_Firmware_Library/CMSIS/GD/GD32F30x/Source\system_gd32f30x.c **** #if (defined(GD32F30X_HD) || defined(GD32F30X_XD))
 119:C:/Users/49542/Desktop/GD32F30x_Demo_Suites_V2.0.0/GD32F30x_Demo_Suites_V2.0.0/GD32F30x_Firmware_Library/CMSIS/GD/GD32F30x/Source\system_gd32f30x.c ****     /* reset HXTALEN, CKMEN and PLLEN bits */
 120:C:/Users/49542/Desktop/GD32F30x_Demo_Suites_V2.0.0/GD32F30x_Demo_Suites_V2.0.0/GD32F30x_Firmware_Library/CMSIS/GD/GD32F30x/Source\system_gd32f30x.c ****     RCU_CTL &= ~(RCU_CTL_PLLEN | RCU_CTL_CKMEN | RCU_CTL_HXTALEN);
 121:C:/Users/49542/Desktop/GD32F30x_Demo_Suites_V2.0.0/GD32F30x_Demo_Suites_V2.0.0/GD32F30x_Firmware_Library/CMSIS/GD/GD32F30x/Source\system_gd32f30x.c ****     /* disable all interrupts */
 122:C:/Users/49542/Desktop/GD32F30x_Demo_Suites_V2.0.0/GD32F30x_Demo_Suites_V2.0.0/GD32F30x_Firmware_Library/CMSIS/GD/GD32F30x/Source\system_gd32f30x.c ****     RCU_INT = 0x009f0000U;
 123:C:/Users/49542/Desktop/GD32F30x_Demo_Suites_V2.0.0/GD32F30x_Demo_Suites_V2.0.0/GD32F30x_Firmware_Library/CMSIS/GD/GD32F30x/Source\system_gd32f30x.c **** #elif defined(GD32F30X_CL)
 124:C:/Users/49542/Desktop/GD32F30x_Demo_Suites_V2.0.0/GD32F30x_Demo_Suites_V2.0.0/GD32F30x_Firmware_Library/CMSIS/GD/GD32F30x/Source\system_gd32f30x.c ****     /* Reset HXTALEN, CKMEN, PLLEN, PLL1EN and PLL2EN bits */
 125:C:/Users/49542/Desktop/GD32F30x_Demo_Suites_V2.0.0/GD32F30x_Demo_Suites_V2.0.0/GD32F30x_Firmware_Library/CMSIS/GD/GD32F30x/Source\system_gd32f30x.c ****     RCU_CTL &= ~(RCU_CTL_PLLEN |RCU_CTL_PLL1EN | RCU_CTL_PLL2EN | RCU_CTL_CKMEN | RCU_CTL_HXTALEN);
 126:C:/Users/49542/Desktop/GD32F30x_Demo_Suites_V2.0.0/GD32F30x_Demo_Suites_V2.0.0/GD32F30x_Firmware_Library/CMSIS/GD/GD32F30x/Source\system_gd32f30x.c ****     /* disable all interrupts */
 127:C:/Users/49542/Desktop/GD32F30x_Demo_Suites_V2.0.0/GD32F30x_Demo_Suites_V2.0.0/GD32F30x_Firmware_Library/CMSIS/GD/GD32F30x/Source\system_gd32f30x.c ****     RCU_INT = 0x00ff0000U;
 128:C:/Users/49542/Desktop/GD32F30x_Demo_Suites_V2.0.0/GD32F30x_Demo_Suites_V2.0.0/GD32F30x_Firmware_Library/CMSIS/GD/GD32F30x/Source\system_gd32f30x.c **** #endif
 129:C:/Users/49542/Desktop/GD32F30x_Demo_Suites_V2.0.0/GD32F30x_Demo_Suites_V2.0.0/GD32F30x_Firmware_Library/CMSIS/GD/GD32F30x/Source\system_gd32f30x.c **** 
 130:C:/Users/49542/Desktop/GD32F30x_Demo_Suites_V2.0.0/GD32F30x_Demo_Suites_V2.0.0/GD32F30x_Firmware_Library/CMSIS/GD/GD32F30x/Source\system_gd32f30x.c ****     /* reset HXTALBPS bit */
 131:C:/Users/49542/Desktop/GD32F30x_Demo_Suites_V2.0.0/GD32F30x_Demo_Suites_V2.0.0/GD32F30x_Firmware_Library/CMSIS/GD/GD32F30x/Source\system_gd32f30x.c ****     RCU_CTL &= ~(RCU_CTL_HXTALBPS);
 132:C:/Users/49542/Desktop/GD32F30x_Demo_Suites_V2.0.0/GD32F30x_Demo_Suites_V2.0.0/GD32F30x_Firmware_Library/CMSIS/GD/GD32F30x/Source\system_gd32f30x.c **** 
 133:C:/Users/49542/Desktop/GD32F30x_Demo_Suites_V2.0.0/GD32F30x_Demo_Suites_V2.0.0/GD32F30x_Firmware_Library/CMSIS/GD/GD32F30x/Source\system_gd32f30x.c ****     /* configure the system clock source, PLL Multiplier, AHB/APBx prescalers and Flash settings */
 134:C:/Users/49542/Desktop/GD32F30x_Demo_Suites_V2.0.0/GD32F30x_Demo_Suites_V2.0.0/GD32F30x_Firmware_Library/CMSIS/GD/GD32F30x/Source\system_gd32f30x.c ****     system_clock_config();
 135:C:/Users/49542/Desktop/GD32F30x_Demo_Suites_V2.0.0/GD32F30x_Demo_Suites_V2.0.0/GD32F30x_Firmware_Library/CMSIS/GD/GD32F30x/Source\system_gd32f30x.c **** }
 136:C:/Users/49542/Desktop/GD32F30x_Demo_Suites_V2.0.0/GD32F30x_Demo_Suites_V2.0.0/GD32F30x_Firmware_Library/CMSIS/GD/GD32F30x/Source\system_gd32f30x.c **** /*!
 137:C:/Users/49542/Desktop/GD32F30x_Demo_Suites_V2.0.0/GD32F30x_Demo_Suites_V2.0.0/GD32F30x_Firmware_Library/CMSIS/GD/GD32F30x/Source\system_gd32f30x.c ****     \brief      configure the system clock
 138:C:/Users/49542/Desktop/GD32F30x_Demo_Suites_V2.0.0/GD32F30x_Demo_Suites_V2.0.0/GD32F30x_Firmware_Library/CMSIS/GD/GD32F30x/Source\system_gd32f30x.c ****     \param[in]  none
 139:C:/Users/49542/Desktop/GD32F30x_Demo_Suites_V2.0.0/GD32F30x_Demo_Suites_V2.0.0/GD32F30x_Firmware_Library/CMSIS/GD/GD32F30x/Source\system_gd32f30x.c ****     \param[out] none
 140:C:/Users/49542/Desktop/GD32F30x_Demo_Suites_V2.0.0/GD32F30x_Demo_Suites_V2.0.0/GD32F30x_Firmware_Library/CMSIS/GD/GD32F30x/Source\system_gd32f30x.c ****     \retval     none
 141:C:/Users/49542/Desktop/GD32F30x_Demo_Suites_V2.0.0/GD32F30x_Demo_Suites_V2.0.0/GD32F30x_Firmware_Library/CMSIS/GD/GD32F30x/Source\system_gd32f30x.c **** */
 142:C:/Users/49542/Desktop/GD32F30x_Demo_Suites_V2.0.0/GD32F30x_Demo_Suites_V2.0.0/GD32F30x_Firmware_Library/CMSIS/GD/GD32F30x/Source\system_gd32f30x.c **** static void system_clock_config(void)
 143:C:/Users/49542/Desktop/GD32F30x_Demo_Suites_V2.0.0/GD32F30x_Demo_Suites_V2.0.0/GD32F30x_Firmware_Library/CMSIS/GD/GD32F30x/Source\system_gd32f30x.c **** {
 144:C:/Users/49542/Desktop/GD32F30x_Demo_Suites_V2.0.0/GD32F30x_Demo_Suites_V2.0.0/GD32F30x_Firmware_Library/CMSIS/GD/GD32F30x/Source\system_gd32f30x.c **** #ifdef __SYSTEM_CLOCK_IRC8M
 145:C:/Users/49542/Desktop/GD32F30x_Demo_Suites_V2.0.0/GD32F30x_Demo_Suites_V2.0.0/GD32F30x_Firmware_Library/CMSIS/GD/GD32F30x/Source\system_gd32f30x.c ****     system_clock_8m_irc8m();
 146:C:/Users/49542/Desktop/GD32F30x_Demo_Suites_V2.0.0/GD32F30x_Demo_Suites_V2.0.0/GD32F30x_Firmware_Library/CMSIS/GD/GD32F30x/Source\system_gd32f30x.c **** #elif defined (__SYSTEM_CLOCK_48M_PLL_IRC8M)
ARM GAS  C:\Users\49542\AppData\Local\Temp\ccCGQ85p.s 			page 4


 147:C:/Users/49542/Desktop/GD32F30x_Demo_Suites_V2.0.0/GD32F30x_Demo_Suites_V2.0.0/GD32F30x_Firmware_Library/CMSIS/GD/GD32F30x/Source\system_gd32f30x.c ****     system_clock_48m_irc8m();
 148:C:/Users/49542/Desktop/GD32F30x_Demo_Suites_V2.0.0/GD32F30x_Demo_Suites_V2.0.0/GD32F30x_Firmware_Library/CMSIS/GD/GD32F30x/Source\system_gd32f30x.c **** #elif defined (__SYSTEM_CLOCK_72M_PLL_IRC8M)
 149:C:/Users/49542/Desktop/GD32F30x_Demo_Suites_V2.0.0/GD32F30x_Demo_Suites_V2.0.0/GD32F30x_Firmware_Library/CMSIS/GD/GD32F30x/Source\system_gd32f30x.c ****     system_clock_72m_irc8m();
 150:C:/Users/49542/Desktop/GD32F30x_Demo_Suites_V2.0.0/GD32F30x_Demo_Suites_V2.0.0/GD32F30x_Firmware_Library/CMSIS/GD/GD32F30x/Source\system_gd32f30x.c **** #elif defined (__SYSTEM_CLOCK_108M_PLL_IRC8M)
 151:C:/Users/49542/Desktop/GD32F30x_Demo_Suites_V2.0.0/GD32F30x_Demo_Suites_V2.0.0/GD32F30x_Firmware_Library/CMSIS/GD/GD32F30x/Source\system_gd32f30x.c ****     system_clock_108m_irc8m();
 152:C:/Users/49542/Desktop/GD32F30x_Demo_Suites_V2.0.0/GD32F30x_Demo_Suites_V2.0.0/GD32F30x_Firmware_Library/CMSIS/GD/GD32F30x/Source\system_gd32f30x.c **** #elif defined (__SYSTEM_CLOCK_120M_PLL_IRC8M)
 153:C:/Users/49542/Desktop/GD32F30x_Demo_Suites_V2.0.0/GD32F30x_Demo_Suites_V2.0.0/GD32F30x_Firmware_Library/CMSIS/GD/GD32F30x/Source\system_gd32f30x.c ****     system_clock_120m_irc8m();
 154:C:/Users/49542/Desktop/GD32F30x_Demo_Suites_V2.0.0/GD32F30x_Demo_Suites_V2.0.0/GD32F30x_Firmware_Library/CMSIS/GD/GD32F30x/Source\system_gd32f30x.c **** 
 155:C:/Users/49542/Desktop/GD32F30x_Demo_Suites_V2.0.0/GD32F30x_Demo_Suites_V2.0.0/GD32F30x_Firmware_Library/CMSIS/GD/GD32F30x/Source\system_gd32f30x.c **** #elif defined (__SYSTEM_CLOCK_HXTAL)
 156:C:/Users/49542/Desktop/GD32F30x_Demo_Suites_V2.0.0/GD32F30x_Demo_Suites_V2.0.0/GD32F30x_Firmware_Library/CMSIS/GD/GD32F30x/Source\system_gd32f30x.c ****     system_clock_hxtal();
 157:C:/Users/49542/Desktop/GD32F30x_Demo_Suites_V2.0.0/GD32F30x_Demo_Suites_V2.0.0/GD32F30x_Firmware_Library/CMSIS/GD/GD32F30x/Source\system_gd32f30x.c **** #elif defined (__SYSTEM_CLOCK_48M_PLL_HXTAL)
 158:C:/Users/49542/Desktop/GD32F30x_Demo_Suites_V2.0.0/GD32F30x_Demo_Suites_V2.0.0/GD32F30x_Firmware_Library/CMSIS/GD/GD32F30x/Source\system_gd32f30x.c ****     system_clock_48m_hxtal();
 159:C:/Users/49542/Desktop/GD32F30x_Demo_Suites_V2.0.0/GD32F30x_Demo_Suites_V2.0.0/GD32F30x_Firmware_Library/CMSIS/GD/GD32F30x/Source\system_gd32f30x.c **** #elif defined (__SYSTEM_CLOCK_72M_PLL_HXTAL)
 160:C:/Users/49542/Desktop/GD32F30x_Demo_Suites_V2.0.0/GD32F30x_Demo_Suites_V2.0.0/GD32F30x_Firmware_Library/CMSIS/GD/GD32F30x/Source\system_gd32f30x.c ****     system_clock_72m_hxtal();
 161:C:/Users/49542/Desktop/GD32F30x_Demo_Suites_V2.0.0/GD32F30x_Demo_Suites_V2.0.0/GD32F30x_Firmware_Library/CMSIS/GD/GD32F30x/Source\system_gd32f30x.c **** #elif defined (__SYSTEM_CLOCK_108M_PLL_HXTAL)
 162:C:/Users/49542/Desktop/GD32F30x_Demo_Suites_V2.0.0/GD32F30x_Demo_Suites_V2.0.0/GD32F30x_Firmware_Library/CMSIS/GD/GD32F30x/Source\system_gd32f30x.c ****     system_clock_108m_hxtal();
 163:C:/Users/49542/Desktop/GD32F30x_Demo_Suites_V2.0.0/GD32F30x_Demo_Suites_V2.0.0/GD32F30x_Firmware_Library/CMSIS/GD/GD32F30x/Source\system_gd32f30x.c **** #elif defined (__SYSTEM_CLOCK_120M_PLL_HXTAL)
 164:C:/Users/49542/Desktop/GD32F30x_Demo_Suites_V2.0.0/GD32F30x_Demo_Suites_V2.0.0/GD32F30x_Firmware_Library/CMSIS/GD/GD32F30x/Source\system_gd32f30x.c ****     system_clock_120m_hxtal();
 165:C:/Users/49542/Desktop/GD32F30x_Demo_Suites_V2.0.0/GD32F30x_Demo_Suites_V2.0.0/GD32F30x_Firmware_Library/CMSIS/GD/GD32F30x/Source\system_gd32f30x.c **** #endif /* __SYSTEM_CLOCK_IRC8M */
 166:C:/Users/49542/Desktop/GD32F30x_Demo_Suites_V2.0.0/GD32F30x_Demo_Suites_V2.0.0/GD32F30x_Firmware_Library/CMSIS/GD/GD32F30x/Source\system_gd32f30x.c **** }
 167:C:/Users/49542/Desktop/GD32F30x_Demo_Suites_V2.0.0/GD32F30x_Demo_Suites_V2.0.0/GD32F30x_Firmware_Library/CMSIS/GD/GD32F30x/Source\system_gd32f30x.c **** 
 168:C:/Users/49542/Desktop/GD32F30x_Demo_Suites_V2.0.0/GD32F30x_Demo_Suites_V2.0.0/GD32F30x_Firmware_Library/CMSIS/GD/GD32F30x/Source\system_gd32f30x.c **** #ifdef __SYSTEM_CLOCK_IRC8M
 169:C:/Users/49542/Desktop/GD32F30x_Demo_Suites_V2.0.0/GD32F30x_Demo_Suites_V2.0.0/GD32F30x_Firmware_Library/CMSIS/GD/GD32F30x/Source\system_gd32f30x.c **** /*!
 170:C:/Users/49542/Desktop/GD32F30x_Demo_Suites_V2.0.0/GD32F30x_Demo_Suites_V2.0.0/GD32F30x_Firmware_Library/CMSIS/GD/GD32F30x/Source\system_gd32f30x.c ****     \brief      configure the system clock to 8M by IRC8M
 171:C:/Users/49542/Desktop/GD32F30x_Demo_Suites_V2.0.0/GD32F30x_Demo_Suites_V2.0.0/GD32F30x_Firmware_Library/CMSIS/GD/GD32F30x/Source\system_gd32f30x.c ****     \param[in]  none
 172:C:/Users/49542/Desktop/GD32F30x_Demo_Suites_V2.0.0/GD32F30x_Demo_Suites_V2.0.0/GD32F30x_Firmware_Library/CMSIS/GD/GD32F30x/Source\system_gd32f30x.c ****     \param[out] none
 173:C:/Users/49542/Desktop/GD32F30x_Demo_Suites_V2.0.0/GD32F30x_Demo_Suites_V2.0.0/GD32F30x_Firmware_Library/CMSIS/GD/GD32F30x/Source\system_gd32f30x.c ****     \retval     none
 174:C:/Users/49542/Desktop/GD32F30x_Demo_Suites_V2.0.0/GD32F30x_Demo_Suites_V2.0.0/GD32F30x_Firmware_Library/CMSIS/GD/GD32F30x/Source\system_gd32f30x.c **** */
 175:C:/Users/49542/Desktop/GD32F30x_Demo_Suites_V2.0.0/GD32F30x_Demo_Suites_V2.0.0/GD32F30x_Firmware_Library/CMSIS/GD/GD32F30x/Source\system_gd32f30x.c **** static void system_clock_8m_irc8m(void)
 176:C:/Users/49542/Desktop/GD32F30x_Demo_Suites_V2.0.0/GD32F30x_Demo_Suites_V2.0.0/GD32F30x_Firmware_Library/CMSIS/GD/GD32F30x/Source\system_gd32f30x.c **** {
 177:C:/Users/49542/Desktop/GD32F30x_Demo_Suites_V2.0.0/GD32F30x_Demo_Suites_V2.0.0/GD32F30x_Firmware_Library/CMSIS/GD/GD32F30x/Source\system_gd32f30x.c ****     uint32_t timeout = 0U;
 178:C:/Users/49542/Desktop/GD32F30x_Demo_Suites_V2.0.0/GD32F30x_Demo_Suites_V2.0.0/GD32F30x_Firmware_Library/CMSIS/GD/GD32F30x/Source\system_gd32f30x.c ****     uint32_t stab_flag = 0U;
 179:C:/Users/49542/Desktop/GD32F30x_Demo_Suites_V2.0.0/GD32F30x_Demo_Suites_V2.0.0/GD32F30x_Firmware_Library/CMSIS/GD/GD32F30x/Source\system_gd32f30x.c ****     
 180:C:/Users/49542/Desktop/GD32F30x_Demo_Suites_V2.0.0/GD32F30x_Demo_Suites_V2.0.0/GD32F30x_Firmware_Library/CMSIS/GD/GD32F30x/Source\system_gd32f30x.c ****     /* enable IRC8M */
 181:C:/Users/49542/Desktop/GD32F30x_Demo_Suites_V2.0.0/GD32F30x_Demo_Suites_V2.0.0/GD32F30x_Firmware_Library/CMSIS/GD/GD32F30x/Source\system_gd32f30x.c ****     RCU_CTL |= RCU_CTL_IRC8MEN;
 182:C:/Users/49542/Desktop/GD32F30x_Demo_Suites_V2.0.0/GD32F30x_Demo_Suites_V2.0.0/GD32F30x_Firmware_Library/CMSIS/GD/GD32F30x/Source\system_gd32f30x.c ****     
 183:C:/Users/49542/Desktop/GD32F30x_Demo_Suites_V2.0.0/GD32F30x_Demo_Suites_V2.0.0/GD32F30x_Firmware_Library/CMSIS/GD/GD32F30x/Source\system_gd32f30x.c ****     /* wait until IRC8M is stable or the startup time is longer than IRC8M_STARTUP_TIMEOUT */
 184:C:/Users/49542/Desktop/GD32F30x_Demo_Suites_V2.0.0/GD32F30x_Demo_Suites_V2.0.0/GD32F30x_Firmware_Library/CMSIS/GD/GD32F30x/Source\system_gd32f30x.c ****     do{
 185:C:/Users/49542/Desktop/GD32F30x_Demo_Suites_V2.0.0/GD32F30x_Demo_Suites_V2.0.0/GD32F30x_Firmware_Library/CMSIS/GD/GD32F30x/Source\system_gd32f30x.c ****         timeout++;
 186:C:/Users/49542/Desktop/GD32F30x_Demo_Suites_V2.0.0/GD32F30x_Demo_Suites_V2.0.0/GD32F30x_Firmware_Library/CMSIS/GD/GD32F30x/Source\system_gd32f30x.c ****         stab_flag = (RCU_CTL & RCU_CTL_IRC8MSTB);
 187:C:/Users/49542/Desktop/GD32F30x_Demo_Suites_V2.0.0/GD32F30x_Demo_Suites_V2.0.0/GD32F30x_Firmware_Library/CMSIS/GD/GD32F30x/Source\system_gd32f30x.c ****     }
 188:C:/Users/49542/Desktop/GD32F30x_Demo_Suites_V2.0.0/GD32F30x_Demo_Suites_V2.0.0/GD32F30x_Firmware_Library/CMSIS/GD/GD32F30x/Source\system_gd32f30x.c ****     while((0U == stab_flag) && (IRC8M_STARTUP_TIMEOUT != timeout));
 189:C:/Users/49542/Desktop/GD32F30x_Demo_Suites_V2.0.0/GD32F30x_Demo_Suites_V2.0.0/GD32F30x_Firmware_Library/CMSIS/GD/GD32F30x/Source\system_gd32f30x.c ****     
 190:C:/Users/49542/Desktop/GD32F30x_Demo_Suites_V2.0.0/GD32F30x_Demo_Suites_V2.0.0/GD32F30x_Firmware_Library/CMSIS/GD/GD32F30x/Source\system_gd32f30x.c ****     /* if fail */
 191:C:/Users/49542/Desktop/GD32F30x_Demo_Suites_V2.0.0/GD32F30x_Demo_Suites_V2.0.0/GD32F30x_Firmware_Library/CMSIS/GD/GD32F30x/Source\system_gd32f30x.c ****     if(0U == (RCU_CTL & RCU_CTL_IRC8MSTB)){
 192:C:/Users/49542/Desktop/GD32F30x_Demo_Suites_V2.0.0/GD32F30x_Demo_Suites_V2.0.0/GD32F30x_Firmware_Library/CMSIS/GD/GD32F30x/Source\system_gd32f30x.c ****         while(1){
 193:C:/Users/49542/Desktop/GD32F30x_Demo_Suites_V2.0.0/GD32F30x_Demo_Suites_V2.0.0/GD32F30x_Firmware_Library/CMSIS/GD/GD32F30x/Source\system_gd32f30x.c ****         }
 194:C:/Users/49542/Desktop/GD32F30x_Demo_Suites_V2.0.0/GD32F30x_Demo_Suites_V2.0.0/GD32F30x_Firmware_Library/CMSIS/GD/GD32F30x/Source\system_gd32f30x.c ****     }
 195:C:/Users/49542/Desktop/GD32F30x_Demo_Suites_V2.0.0/GD32F30x_Demo_Suites_V2.0.0/GD32F30x_Firmware_Library/CMSIS/GD/GD32F30x/Source\system_gd32f30x.c ****     
 196:C:/Users/49542/Desktop/GD32F30x_Demo_Suites_V2.0.0/GD32F30x_Demo_Suites_V2.0.0/GD32F30x_Firmware_Library/CMSIS/GD/GD32F30x/Source\system_gd32f30x.c ****     /* AHB = SYSCLK */
 197:C:/Users/49542/Desktop/GD32F30x_Demo_Suites_V2.0.0/GD32F30x_Demo_Suites_V2.0.0/GD32F30x_Firmware_Library/CMSIS/GD/GD32F30x/Source\system_gd32f30x.c ****     RCU_CFG0 |= RCU_AHB_CKSYS_DIV1;
 198:C:/Users/49542/Desktop/GD32F30x_Demo_Suites_V2.0.0/GD32F30x_Demo_Suites_V2.0.0/GD32F30x_Firmware_Library/CMSIS/GD/GD32F30x/Source\system_gd32f30x.c ****     /* APB2 = AHB/1 */
 199:C:/Users/49542/Desktop/GD32F30x_Demo_Suites_V2.0.0/GD32F30x_Demo_Suites_V2.0.0/GD32F30x_Firmware_Library/CMSIS/GD/GD32F30x/Source\system_gd32f30x.c ****     RCU_CFG0 |= RCU_APB2_CKAHB_DIV1;
 200:C:/Users/49542/Desktop/GD32F30x_Demo_Suites_V2.0.0/GD32F30x_Demo_Suites_V2.0.0/GD32F30x_Firmware_Library/CMSIS/GD/GD32F30x/Source\system_gd32f30x.c ****     /* APB1 = AHB/2 */
 201:C:/Users/49542/Desktop/GD32F30x_Demo_Suites_V2.0.0/GD32F30x_Demo_Suites_V2.0.0/GD32F30x_Firmware_Library/CMSIS/GD/GD32F30x/Source\system_gd32f30x.c ****     RCU_CFG0 |= RCU_APB1_CKAHB_DIV2;
 202:C:/Users/49542/Desktop/GD32F30x_Demo_Suites_V2.0.0/GD32F30x_Demo_Suites_V2.0.0/GD32F30x_Firmware_Library/CMSIS/GD/GD32F30x/Source\system_gd32f30x.c ****     
 203:C:/Users/49542/Desktop/GD32F30x_Demo_Suites_V2.0.0/GD32F30x_Demo_Suites_V2.0.0/GD32F30x_Firmware_Library/CMSIS/GD/GD32F30x/Source\system_gd32f30x.c ****     /* select IRC8M as system clock */
ARM GAS  C:\Users\49542\AppData\Local\Temp\ccCGQ85p.s 			page 5


 204:C:/Users/49542/Desktop/GD32F30x_Demo_Suites_V2.0.0/GD32F30x_Demo_Suites_V2.0.0/GD32F30x_Firmware_Library/CMSIS/GD/GD32F30x/Source\system_gd32f30x.c ****     RCU_CFG0 &= ~RCU_CFG0_SCS;
 205:C:/Users/49542/Desktop/GD32F30x_Demo_Suites_V2.0.0/GD32F30x_Demo_Suites_V2.0.0/GD32F30x_Firmware_Library/CMSIS/GD/GD32F30x/Source\system_gd32f30x.c ****     RCU_CFG0 |= RCU_CKSYSSRC_IRC8M;
 206:C:/Users/49542/Desktop/GD32F30x_Demo_Suites_V2.0.0/GD32F30x_Demo_Suites_V2.0.0/GD32F30x_Firmware_Library/CMSIS/GD/GD32F30x/Source\system_gd32f30x.c ****     
 207:C:/Users/49542/Desktop/GD32F30x_Demo_Suites_V2.0.0/GD32F30x_Demo_Suites_V2.0.0/GD32F30x_Firmware_Library/CMSIS/GD/GD32F30x/Source\system_gd32f30x.c ****     /* wait until IRC8M is selected as system clock */
 208:C:/Users/49542/Desktop/GD32F30x_Demo_Suites_V2.0.0/GD32F30x_Demo_Suites_V2.0.0/GD32F30x_Firmware_Library/CMSIS/GD/GD32F30x/Source\system_gd32f30x.c ****     while(0U != (RCU_CFG0 & RCU_SCSS_IRC8M)){
 209:C:/Users/49542/Desktop/GD32F30x_Demo_Suites_V2.0.0/GD32F30x_Demo_Suites_V2.0.0/GD32F30x_Firmware_Library/CMSIS/GD/GD32F30x/Source\system_gd32f30x.c ****     }
 210:C:/Users/49542/Desktop/GD32F30x_Demo_Suites_V2.0.0/GD32F30x_Demo_Suites_V2.0.0/GD32F30x_Firmware_Library/CMSIS/GD/GD32F30x/Source\system_gd32f30x.c **** }
 211:C:/Users/49542/Desktop/GD32F30x_Demo_Suites_V2.0.0/GD32F30x_Demo_Suites_V2.0.0/GD32F30x_Firmware_Library/CMSIS/GD/GD32F30x/Source\system_gd32f30x.c **** 
 212:C:/Users/49542/Desktop/GD32F30x_Demo_Suites_V2.0.0/GD32F30x_Demo_Suites_V2.0.0/GD32F30x_Firmware_Library/CMSIS/GD/GD32F30x/Source\system_gd32f30x.c **** #elif defined (__SYSTEM_CLOCK_48M_PLL_IRC8M)
 213:C:/Users/49542/Desktop/GD32F30x_Demo_Suites_V2.0.0/GD32F30x_Demo_Suites_V2.0.0/GD32F30x_Firmware_Library/CMSIS/GD/GD32F30x/Source\system_gd32f30x.c **** /*!
 214:C:/Users/49542/Desktop/GD32F30x_Demo_Suites_V2.0.0/GD32F30x_Demo_Suites_V2.0.0/GD32F30x_Firmware_Library/CMSIS/GD/GD32F30x/Source\system_gd32f30x.c ****     \brief      configure the system clock to 48M by PLL which selects IRC8M as its clock source
 215:C:/Users/49542/Desktop/GD32F30x_Demo_Suites_V2.0.0/GD32F30x_Demo_Suites_V2.0.0/GD32F30x_Firmware_Library/CMSIS/GD/GD32F30x/Source\system_gd32f30x.c ****     \param[in]  none
 216:C:/Users/49542/Desktop/GD32F30x_Demo_Suites_V2.0.0/GD32F30x_Demo_Suites_V2.0.0/GD32F30x_Firmware_Library/CMSIS/GD/GD32F30x/Source\system_gd32f30x.c ****     \param[out] none
 217:C:/Users/49542/Desktop/GD32F30x_Demo_Suites_V2.0.0/GD32F30x_Demo_Suites_V2.0.0/GD32F30x_Firmware_Library/CMSIS/GD/GD32F30x/Source\system_gd32f30x.c ****     \retval     none
 218:C:/Users/49542/Desktop/GD32F30x_Demo_Suites_V2.0.0/GD32F30x_Demo_Suites_V2.0.0/GD32F30x_Firmware_Library/CMSIS/GD/GD32F30x/Source\system_gd32f30x.c **** */
 219:C:/Users/49542/Desktop/GD32F30x_Demo_Suites_V2.0.0/GD32F30x_Demo_Suites_V2.0.0/GD32F30x_Firmware_Library/CMSIS/GD/GD32F30x/Source\system_gd32f30x.c **** static void system_clock_48m_irc8m(void)
 220:C:/Users/49542/Desktop/GD32F30x_Demo_Suites_V2.0.0/GD32F30x_Demo_Suites_V2.0.0/GD32F30x_Firmware_Library/CMSIS/GD/GD32F30x/Source\system_gd32f30x.c **** {
 221:C:/Users/49542/Desktop/GD32F30x_Demo_Suites_V2.0.0/GD32F30x_Demo_Suites_V2.0.0/GD32F30x_Firmware_Library/CMSIS/GD/GD32F30x/Source\system_gd32f30x.c ****     uint32_t timeout = 0U;
 222:C:/Users/49542/Desktop/GD32F30x_Demo_Suites_V2.0.0/GD32F30x_Demo_Suites_V2.0.0/GD32F30x_Firmware_Library/CMSIS/GD/GD32F30x/Source\system_gd32f30x.c ****     uint32_t stab_flag = 0U;
 223:C:/Users/49542/Desktop/GD32F30x_Demo_Suites_V2.0.0/GD32F30x_Demo_Suites_V2.0.0/GD32F30x_Firmware_Library/CMSIS/GD/GD32F30x/Source\system_gd32f30x.c ****     
 224:C:/Users/49542/Desktop/GD32F30x_Demo_Suites_V2.0.0/GD32F30x_Demo_Suites_V2.0.0/GD32F30x_Firmware_Library/CMSIS/GD/GD32F30x/Source\system_gd32f30x.c ****     /* enable IRC8M */
 225:C:/Users/49542/Desktop/GD32F30x_Demo_Suites_V2.0.0/GD32F30x_Demo_Suites_V2.0.0/GD32F30x_Firmware_Library/CMSIS/GD/GD32F30x/Source\system_gd32f30x.c ****     RCU_CTL |= RCU_CTL_IRC8MEN;
 226:C:/Users/49542/Desktop/GD32F30x_Demo_Suites_V2.0.0/GD32F30x_Demo_Suites_V2.0.0/GD32F30x_Firmware_Library/CMSIS/GD/GD32F30x/Source\system_gd32f30x.c **** 
 227:C:/Users/49542/Desktop/GD32F30x_Demo_Suites_V2.0.0/GD32F30x_Demo_Suites_V2.0.0/GD32F30x_Firmware_Library/CMSIS/GD/GD32F30x/Source\system_gd32f30x.c ****     /* wait until IRC8M is stable or the startup time is longer than IRC8M_STARTUP_TIMEOUT */
 228:C:/Users/49542/Desktop/GD32F30x_Demo_Suites_V2.0.0/GD32F30x_Demo_Suites_V2.0.0/GD32F30x_Firmware_Library/CMSIS/GD/GD32F30x/Source\system_gd32f30x.c ****     do{
 229:C:/Users/49542/Desktop/GD32F30x_Demo_Suites_V2.0.0/GD32F30x_Demo_Suites_V2.0.0/GD32F30x_Firmware_Library/CMSIS/GD/GD32F30x/Source\system_gd32f30x.c ****         timeout++;
 230:C:/Users/49542/Desktop/GD32F30x_Demo_Suites_V2.0.0/GD32F30x_Demo_Suites_V2.0.0/GD32F30x_Firmware_Library/CMSIS/GD/GD32F30x/Source\system_gd32f30x.c ****         stab_flag = (RCU_CTL & RCU_CTL_IRC8MSTB);
 231:C:/Users/49542/Desktop/GD32F30x_Demo_Suites_V2.0.0/GD32F30x_Demo_Suites_V2.0.0/GD32F30x_Firmware_Library/CMSIS/GD/GD32F30x/Source\system_gd32f30x.c ****     }
 232:C:/Users/49542/Desktop/GD32F30x_Demo_Suites_V2.0.0/GD32F30x_Demo_Suites_V2.0.0/GD32F30x_Firmware_Library/CMSIS/GD/GD32F30x/Source\system_gd32f30x.c ****     while((0U == stab_flag) && (IRC8M_STARTUP_TIMEOUT != timeout));
 233:C:/Users/49542/Desktop/GD32F30x_Demo_Suites_V2.0.0/GD32F30x_Demo_Suites_V2.0.0/GD32F30x_Firmware_Library/CMSIS/GD/GD32F30x/Source\system_gd32f30x.c **** 
 234:C:/Users/49542/Desktop/GD32F30x_Demo_Suites_V2.0.0/GD32F30x_Demo_Suites_V2.0.0/GD32F30x_Firmware_Library/CMSIS/GD/GD32F30x/Source\system_gd32f30x.c ****     /* if fail */
 235:C:/Users/49542/Desktop/GD32F30x_Demo_Suites_V2.0.0/GD32F30x_Demo_Suites_V2.0.0/GD32F30x_Firmware_Library/CMSIS/GD/GD32F30x/Source\system_gd32f30x.c ****     if(0U == (RCU_CTL & RCU_CTL_IRC8MSTB)){
 236:C:/Users/49542/Desktop/GD32F30x_Demo_Suites_V2.0.0/GD32F30x_Demo_Suites_V2.0.0/GD32F30x_Firmware_Library/CMSIS/GD/GD32F30x/Source\system_gd32f30x.c ****       while(1){
 237:C:/Users/49542/Desktop/GD32F30x_Demo_Suites_V2.0.0/GD32F30x_Demo_Suites_V2.0.0/GD32F30x_Firmware_Library/CMSIS/GD/GD32F30x/Source\system_gd32f30x.c ****       }
 238:C:/Users/49542/Desktop/GD32F30x_Demo_Suites_V2.0.0/GD32F30x_Demo_Suites_V2.0.0/GD32F30x_Firmware_Library/CMSIS/GD/GD32F30x/Source\system_gd32f30x.c ****     }
 239:C:/Users/49542/Desktop/GD32F30x_Demo_Suites_V2.0.0/GD32F30x_Demo_Suites_V2.0.0/GD32F30x_Firmware_Library/CMSIS/GD/GD32F30x/Source\system_gd32f30x.c **** 
 240:C:/Users/49542/Desktop/GD32F30x_Demo_Suites_V2.0.0/GD32F30x_Demo_Suites_V2.0.0/GD32F30x_Firmware_Library/CMSIS/GD/GD32F30x/Source\system_gd32f30x.c ****     /* LDO output voltage high mode */
 241:C:/Users/49542/Desktop/GD32F30x_Demo_Suites_V2.0.0/GD32F30x_Demo_Suites_V2.0.0/GD32F30x_Firmware_Library/CMSIS/GD/GD32F30x/Source\system_gd32f30x.c ****     RCU_APB1EN |= RCU_APB1EN_PMUEN;
 242:C:/Users/49542/Desktop/GD32F30x_Demo_Suites_V2.0.0/GD32F30x_Demo_Suites_V2.0.0/GD32F30x_Firmware_Library/CMSIS/GD/GD32F30x/Source\system_gd32f30x.c ****     PMU_CTL |= PMU_CTL_LDOVS;
 243:C:/Users/49542/Desktop/GD32F30x_Demo_Suites_V2.0.0/GD32F30x_Demo_Suites_V2.0.0/GD32F30x_Firmware_Library/CMSIS/GD/GD32F30x/Source\system_gd32f30x.c **** 
 244:C:/Users/49542/Desktop/GD32F30x_Demo_Suites_V2.0.0/GD32F30x_Demo_Suites_V2.0.0/GD32F30x_Firmware_Library/CMSIS/GD/GD32F30x/Source\system_gd32f30x.c ****     /* IRC8M is stable */
 245:C:/Users/49542/Desktop/GD32F30x_Demo_Suites_V2.0.0/GD32F30x_Demo_Suites_V2.0.0/GD32F30x_Firmware_Library/CMSIS/GD/GD32F30x/Source\system_gd32f30x.c ****     /* AHB = SYSCLK */
 246:C:/Users/49542/Desktop/GD32F30x_Demo_Suites_V2.0.0/GD32F30x_Demo_Suites_V2.0.0/GD32F30x_Firmware_Library/CMSIS/GD/GD32F30x/Source\system_gd32f30x.c ****     RCU_CFG0 |= RCU_AHB_CKSYS_DIV1;
 247:C:/Users/49542/Desktop/GD32F30x_Demo_Suites_V2.0.0/GD32F30x_Demo_Suites_V2.0.0/GD32F30x_Firmware_Library/CMSIS/GD/GD32F30x/Source\system_gd32f30x.c ****     /* APB2 = AHB/1 */
 248:C:/Users/49542/Desktop/GD32F30x_Demo_Suites_V2.0.0/GD32F30x_Demo_Suites_V2.0.0/GD32F30x_Firmware_Library/CMSIS/GD/GD32F30x/Source\system_gd32f30x.c ****     RCU_CFG0 |= RCU_APB2_CKAHB_DIV1;
 249:C:/Users/49542/Desktop/GD32F30x_Demo_Suites_V2.0.0/GD32F30x_Demo_Suites_V2.0.0/GD32F30x_Firmware_Library/CMSIS/GD/GD32F30x/Source\system_gd32f30x.c ****     /* APB1 = AHB/2 */
 250:C:/Users/49542/Desktop/GD32F30x_Demo_Suites_V2.0.0/GD32F30x_Demo_Suites_V2.0.0/GD32F30x_Firmware_Library/CMSIS/GD/GD32F30x/Source\system_gd32f30x.c ****     RCU_CFG0 |= RCU_APB1_CKAHB_DIV2;
 251:C:/Users/49542/Desktop/GD32F30x_Demo_Suites_V2.0.0/GD32F30x_Demo_Suites_V2.0.0/GD32F30x_Firmware_Library/CMSIS/GD/GD32F30x/Source\system_gd32f30x.c **** 
 252:C:/Users/49542/Desktop/GD32F30x_Demo_Suites_V2.0.0/GD32F30x_Demo_Suites_V2.0.0/GD32F30x_Firmware_Library/CMSIS/GD/GD32F30x/Source\system_gd32f30x.c ****     /* CK_PLL = (CK_IRC8M/2) * 12 = 48 MHz */
 253:C:/Users/49542/Desktop/GD32F30x_Demo_Suites_V2.0.0/GD32F30x_Demo_Suites_V2.0.0/GD32F30x_Firmware_Library/CMSIS/GD/GD32F30x/Source\system_gd32f30x.c ****     RCU_CFG0 &= ~(RCU_CFG0_PLLMF | RCU_CFG0_PLLMF_4 | RCU_CFG0_PLLMF_5);
 254:C:/Users/49542/Desktop/GD32F30x_Demo_Suites_V2.0.0/GD32F30x_Demo_Suites_V2.0.0/GD32F30x_Firmware_Library/CMSIS/GD/GD32F30x/Source\system_gd32f30x.c ****     RCU_CFG0 |= RCU_PLL_MUL12;
 255:C:/Users/49542/Desktop/GD32F30x_Demo_Suites_V2.0.0/GD32F30x_Demo_Suites_V2.0.0/GD32F30x_Firmware_Library/CMSIS/GD/GD32F30x/Source\system_gd32f30x.c **** 
 256:C:/Users/49542/Desktop/GD32F30x_Demo_Suites_V2.0.0/GD32F30x_Demo_Suites_V2.0.0/GD32F30x_Firmware_Library/CMSIS/GD/GD32F30x/Source\system_gd32f30x.c ****     /* enable PLL */
 257:C:/Users/49542/Desktop/GD32F30x_Demo_Suites_V2.0.0/GD32F30x_Demo_Suites_V2.0.0/GD32F30x_Firmware_Library/CMSIS/GD/GD32F30x/Source\system_gd32f30x.c ****     RCU_CTL |= RCU_CTL_PLLEN;
 258:C:/Users/49542/Desktop/GD32F30x_Demo_Suites_V2.0.0/GD32F30x_Demo_Suites_V2.0.0/GD32F30x_Firmware_Library/CMSIS/GD/GD32F30x/Source\system_gd32f30x.c **** 
 259:C:/Users/49542/Desktop/GD32F30x_Demo_Suites_V2.0.0/GD32F30x_Demo_Suites_V2.0.0/GD32F30x_Firmware_Library/CMSIS/GD/GD32F30x/Source\system_gd32f30x.c ****     /* wait until PLL is stable */
 260:C:/Users/49542/Desktop/GD32F30x_Demo_Suites_V2.0.0/GD32F30x_Demo_Suites_V2.0.0/GD32F30x_Firmware_Library/CMSIS/GD/GD32F30x/Source\system_gd32f30x.c ****     while(0U == (RCU_CTL & RCU_CTL_PLLSTB)){
ARM GAS  C:\Users\49542\AppData\Local\Temp\ccCGQ85p.s 			page 6


 261:C:/Users/49542/Desktop/GD32F30x_Demo_Suites_V2.0.0/GD32F30x_Demo_Suites_V2.0.0/GD32F30x_Firmware_Library/CMSIS/GD/GD32F30x/Source\system_gd32f30x.c ****     }
 262:C:/Users/49542/Desktop/GD32F30x_Demo_Suites_V2.0.0/GD32F30x_Demo_Suites_V2.0.0/GD32F30x_Firmware_Library/CMSIS/GD/GD32F30x/Source\system_gd32f30x.c ****     
 263:C:/Users/49542/Desktop/GD32F30x_Demo_Suites_V2.0.0/GD32F30x_Demo_Suites_V2.0.0/GD32F30x_Firmware_Library/CMSIS/GD/GD32F30x/Source\system_gd32f30x.c ****     /* enable the high-drive to extend the clock frequency to 120 MHz */
 264:C:/Users/49542/Desktop/GD32F30x_Demo_Suites_V2.0.0/GD32F30x_Demo_Suites_V2.0.0/GD32F30x_Firmware_Library/CMSIS/GD/GD32F30x/Source\system_gd32f30x.c ****     PMU_CTL |= PMU_CTL_HDEN;
 265:C:/Users/49542/Desktop/GD32F30x_Demo_Suites_V2.0.0/GD32F30x_Demo_Suites_V2.0.0/GD32F30x_Firmware_Library/CMSIS/GD/GD32F30x/Source\system_gd32f30x.c ****     while(0U == (PMU_CS & PMU_CS_HDRF)){
 266:C:/Users/49542/Desktop/GD32F30x_Demo_Suites_V2.0.0/GD32F30x_Demo_Suites_V2.0.0/GD32F30x_Firmware_Library/CMSIS/GD/GD32F30x/Source\system_gd32f30x.c ****     }
 267:C:/Users/49542/Desktop/GD32F30x_Demo_Suites_V2.0.0/GD32F30x_Demo_Suites_V2.0.0/GD32F30x_Firmware_Library/CMSIS/GD/GD32F30x/Source\system_gd32f30x.c ****     
 268:C:/Users/49542/Desktop/GD32F30x_Demo_Suites_V2.0.0/GD32F30x_Demo_Suites_V2.0.0/GD32F30x_Firmware_Library/CMSIS/GD/GD32F30x/Source\system_gd32f30x.c ****     /* select the high-drive mode */
 269:C:/Users/49542/Desktop/GD32F30x_Demo_Suites_V2.0.0/GD32F30x_Demo_Suites_V2.0.0/GD32F30x_Firmware_Library/CMSIS/GD/GD32F30x/Source\system_gd32f30x.c ****     PMU_CTL |= PMU_CTL_HDS;
 270:C:/Users/49542/Desktop/GD32F30x_Demo_Suites_V2.0.0/GD32F30x_Demo_Suites_V2.0.0/GD32F30x_Firmware_Library/CMSIS/GD/GD32F30x/Source\system_gd32f30x.c ****     while(0U == (PMU_CS & PMU_CS_HDSRF)){
 271:C:/Users/49542/Desktop/GD32F30x_Demo_Suites_V2.0.0/GD32F30x_Demo_Suites_V2.0.0/GD32F30x_Firmware_Library/CMSIS/GD/GD32F30x/Source\system_gd32f30x.c ****     } 
 272:C:/Users/49542/Desktop/GD32F30x_Demo_Suites_V2.0.0/GD32F30x_Demo_Suites_V2.0.0/GD32F30x_Firmware_Library/CMSIS/GD/GD32F30x/Source\system_gd32f30x.c ****     
 273:C:/Users/49542/Desktop/GD32F30x_Demo_Suites_V2.0.0/GD32F30x_Demo_Suites_V2.0.0/GD32F30x_Firmware_Library/CMSIS/GD/GD32F30x/Source\system_gd32f30x.c ****     /* select PLL as system clock */
 274:C:/Users/49542/Desktop/GD32F30x_Demo_Suites_V2.0.0/GD32F30x_Demo_Suites_V2.0.0/GD32F30x_Firmware_Library/CMSIS/GD/GD32F30x/Source\system_gd32f30x.c ****     RCU_CFG0 &= ~RCU_CFG0_SCS;
 275:C:/Users/49542/Desktop/GD32F30x_Demo_Suites_V2.0.0/GD32F30x_Demo_Suites_V2.0.0/GD32F30x_Firmware_Library/CMSIS/GD/GD32F30x/Source\system_gd32f30x.c ****     RCU_CFG0 |= RCU_CKSYSSRC_PLL;
 276:C:/Users/49542/Desktop/GD32F30x_Demo_Suites_V2.0.0/GD32F30x_Demo_Suites_V2.0.0/GD32F30x_Firmware_Library/CMSIS/GD/GD32F30x/Source\system_gd32f30x.c **** 
 277:C:/Users/49542/Desktop/GD32F30x_Demo_Suites_V2.0.0/GD32F30x_Demo_Suites_V2.0.0/GD32F30x_Firmware_Library/CMSIS/GD/GD32F30x/Source\system_gd32f30x.c ****     /* wait until PLL is selected as system clock */
 278:C:/Users/49542/Desktop/GD32F30x_Demo_Suites_V2.0.0/GD32F30x_Demo_Suites_V2.0.0/GD32F30x_Firmware_Library/CMSIS/GD/GD32F30x/Source\system_gd32f30x.c ****     while(0U == (RCU_CFG0 & RCU_SCSS_PLL)){
 279:C:/Users/49542/Desktop/GD32F30x_Demo_Suites_V2.0.0/GD32F30x_Demo_Suites_V2.0.0/GD32F30x_Firmware_Library/CMSIS/GD/GD32F30x/Source\system_gd32f30x.c ****     }
 280:C:/Users/49542/Desktop/GD32F30x_Demo_Suites_V2.0.0/GD32F30x_Demo_Suites_V2.0.0/GD32F30x_Firmware_Library/CMSIS/GD/GD32F30x/Source\system_gd32f30x.c **** }
 281:C:/Users/49542/Desktop/GD32F30x_Demo_Suites_V2.0.0/GD32F30x_Demo_Suites_V2.0.0/GD32F30x_Firmware_Library/CMSIS/GD/GD32F30x/Source\system_gd32f30x.c **** 
 282:C:/Users/49542/Desktop/GD32F30x_Demo_Suites_V2.0.0/GD32F30x_Demo_Suites_V2.0.0/GD32F30x_Firmware_Library/CMSIS/GD/GD32F30x/Source\system_gd32f30x.c **** #elif defined (__SYSTEM_CLOCK_72M_PLL_IRC8M)
 283:C:/Users/49542/Desktop/GD32F30x_Demo_Suites_V2.0.0/GD32F30x_Demo_Suites_V2.0.0/GD32F30x_Firmware_Library/CMSIS/GD/GD32F30x/Source\system_gd32f30x.c **** /*!
 284:C:/Users/49542/Desktop/GD32F30x_Demo_Suites_V2.0.0/GD32F30x_Demo_Suites_V2.0.0/GD32F30x_Firmware_Library/CMSIS/GD/GD32F30x/Source\system_gd32f30x.c ****     \brief      configure the system clock to 72M by PLL which selects IRC8M as its clock source
 285:C:/Users/49542/Desktop/GD32F30x_Demo_Suites_V2.0.0/GD32F30x_Demo_Suites_V2.0.0/GD32F30x_Firmware_Library/CMSIS/GD/GD32F30x/Source\system_gd32f30x.c ****     \param[in]  none
 286:C:/Users/49542/Desktop/GD32F30x_Demo_Suites_V2.0.0/GD32F30x_Demo_Suites_V2.0.0/GD32F30x_Firmware_Library/CMSIS/GD/GD32F30x/Source\system_gd32f30x.c ****     \param[out] none
 287:C:/Users/49542/Desktop/GD32F30x_Demo_Suites_V2.0.0/GD32F30x_Demo_Suites_V2.0.0/GD32F30x_Firmware_Library/CMSIS/GD/GD32F30x/Source\system_gd32f30x.c ****     \retval     none
 288:C:/Users/49542/Desktop/GD32F30x_Demo_Suites_V2.0.0/GD32F30x_Demo_Suites_V2.0.0/GD32F30x_Firmware_Library/CMSIS/GD/GD32F30x/Source\system_gd32f30x.c **** */
 289:C:/Users/49542/Desktop/GD32F30x_Demo_Suites_V2.0.0/GD32F30x_Demo_Suites_V2.0.0/GD32F30x_Firmware_Library/CMSIS/GD/GD32F30x/Source\system_gd32f30x.c **** static void system_clock_72m_irc8m(void)
 290:C:/Users/49542/Desktop/GD32F30x_Demo_Suites_V2.0.0/GD32F30x_Demo_Suites_V2.0.0/GD32F30x_Firmware_Library/CMSIS/GD/GD32F30x/Source\system_gd32f30x.c **** {
 291:C:/Users/49542/Desktop/GD32F30x_Demo_Suites_V2.0.0/GD32F30x_Demo_Suites_V2.0.0/GD32F30x_Firmware_Library/CMSIS/GD/GD32F30x/Source\system_gd32f30x.c ****     uint32_t timeout = 0U;
 292:C:/Users/49542/Desktop/GD32F30x_Demo_Suites_V2.0.0/GD32F30x_Demo_Suites_V2.0.0/GD32F30x_Firmware_Library/CMSIS/GD/GD32F30x/Source\system_gd32f30x.c ****     uint32_t stab_flag = 0U;
 293:C:/Users/49542/Desktop/GD32F30x_Demo_Suites_V2.0.0/GD32F30x_Demo_Suites_V2.0.0/GD32F30x_Firmware_Library/CMSIS/GD/GD32F30x/Source\system_gd32f30x.c ****     
 294:C:/Users/49542/Desktop/GD32F30x_Demo_Suites_V2.0.0/GD32F30x_Demo_Suites_V2.0.0/GD32F30x_Firmware_Library/CMSIS/GD/GD32F30x/Source\system_gd32f30x.c ****     /* enable IRC8M */
 295:C:/Users/49542/Desktop/GD32F30x_Demo_Suites_V2.0.0/GD32F30x_Demo_Suites_V2.0.0/GD32F30x_Firmware_Library/CMSIS/GD/GD32F30x/Source\system_gd32f30x.c ****     RCU_CTL |= RCU_CTL_IRC8MEN;
 296:C:/Users/49542/Desktop/GD32F30x_Demo_Suites_V2.0.0/GD32F30x_Demo_Suites_V2.0.0/GD32F30x_Firmware_Library/CMSIS/GD/GD32F30x/Source\system_gd32f30x.c **** 
 297:C:/Users/49542/Desktop/GD32F30x_Demo_Suites_V2.0.0/GD32F30x_Demo_Suites_V2.0.0/GD32F30x_Firmware_Library/CMSIS/GD/GD32F30x/Source\system_gd32f30x.c ****     /* wait until IRC8M is stable or the startup time is longer than IRC8M_STARTUP_TIMEOUT */
 298:C:/Users/49542/Desktop/GD32F30x_Demo_Suites_V2.0.0/GD32F30x_Demo_Suites_V2.0.0/GD32F30x_Firmware_Library/CMSIS/GD/GD32F30x/Source\system_gd32f30x.c ****     do{
 299:C:/Users/49542/Desktop/GD32F30x_Demo_Suites_V2.0.0/GD32F30x_Demo_Suites_V2.0.0/GD32F30x_Firmware_Library/CMSIS/GD/GD32F30x/Source\system_gd32f30x.c ****         timeout++;
 300:C:/Users/49542/Desktop/GD32F30x_Demo_Suites_V2.0.0/GD32F30x_Demo_Suites_V2.0.0/GD32F30x_Firmware_Library/CMSIS/GD/GD32F30x/Source\system_gd32f30x.c ****         stab_flag = (RCU_CTL & RCU_CTL_IRC8MSTB);
 301:C:/Users/49542/Desktop/GD32F30x_Demo_Suites_V2.0.0/GD32F30x_Demo_Suites_V2.0.0/GD32F30x_Firmware_Library/CMSIS/GD/GD32F30x/Source\system_gd32f30x.c ****     }while((0U == stab_flag) && (IRC8M_STARTUP_TIMEOUT != timeout));
 302:C:/Users/49542/Desktop/GD32F30x_Demo_Suites_V2.0.0/GD32F30x_Demo_Suites_V2.0.0/GD32F30x_Firmware_Library/CMSIS/GD/GD32F30x/Source\system_gd32f30x.c **** 
 303:C:/Users/49542/Desktop/GD32F30x_Demo_Suites_V2.0.0/GD32F30x_Demo_Suites_V2.0.0/GD32F30x_Firmware_Library/CMSIS/GD/GD32F30x/Source\system_gd32f30x.c ****     /* if fail */
 304:C:/Users/49542/Desktop/GD32F30x_Demo_Suites_V2.0.0/GD32F30x_Demo_Suites_V2.0.0/GD32F30x_Firmware_Library/CMSIS/GD/GD32F30x/Source\system_gd32f30x.c ****     if(0U == (RCU_CTL & RCU_CTL_IRC8MSTB)){
 305:C:/Users/49542/Desktop/GD32F30x_Demo_Suites_V2.0.0/GD32F30x_Demo_Suites_V2.0.0/GD32F30x_Firmware_Library/CMSIS/GD/GD32F30x/Source\system_gd32f30x.c ****         while(1){
 306:C:/Users/49542/Desktop/GD32F30x_Demo_Suites_V2.0.0/GD32F30x_Demo_Suites_V2.0.0/GD32F30x_Firmware_Library/CMSIS/GD/GD32F30x/Source\system_gd32f30x.c ****         }
 307:C:/Users/49542/Desktop/GD32F30x_Demo_Suites_V2.0.0/GD32F30x_Demo_Suites_V2.0.0/GD32F30x_Firmware_Library/CMSIS/GD/GD32F30x/Source\system_gd32f30x.c ****     }
 308:C:/Users/49542/Desktop/GD32F30x_Demo_Suites_V2.0.0/GD32F30x_Demo_Suites_V2.0.0/GD32F30x_Firmware_Library/CMSIS/GD/GD32F30x/Source\system_gd32f30x.c **** 
 309:C:/Users/49542/Desktop/GD32F30x_Demo_Suites_V2.0.0/GD32F30x_Demo_Suites_V2.0.0/GD32F30x_Firmware_Library/CMSIS/GD/GD32F30x/Source\system_gd32f30x.c ****     /* LDO output voltage high mode */
 310:C:/Users/49542/Desktop/GD32F30x_Demo_Suites_V2.0.0/GD32F30x_Demo_Suites_V2.0.0/GD32F30x_Firmware_Library/CMSIS/GD/GD32F30x/Source\system_gd32f30x.c ****     RCU_APB1EN |= RCU_APB1EN_PMUEN;
 311:C:/Users/49542/Desktop/GD32F30x_Demo_Suites_V2.0.0/GD32F30x_Demo_Suites_V2.0.0/GD32F30x_Firmware_Library/CMSIS/GD/GD32F30x/Source\system_gd32f30x.c ****     PMU_CTL |= PMU_CTL_LDOVS;
 312:C:/Users/49542/Desktop/GD32F30x_Demo_Suites_V2.0.0/GD32F30x_Demo_Suites_V2.0.0/GD32F30x_Firmware_Library/CMSIS/GD/GD32F30x/Source\system_gd32f30x.c **** 
 313:C:/Users/49542/Desktop/GD32F30x_Demo_Suites_V2.0.0/GD32F30x_Demo_Suites_V2.0.0/GD32F30x_Firmware_Library/CMSIS/GD/GD32F30x/Source\system_gd32f30x.c ****     /* IRC8M is stable */
 314:C:/Users/49542/Desktop/GD32F30x_Demo_Suites_V2.0.0/GD32F30x_Demo_Suites_V2.0.0/GD32F30x_Firmware_Library/CMSIS/GD/GD32F30x/Source\system_gd32f30x.c ****     /* AHB = SYSCLK */
 315:C:/Users/49542/Desktop/GD32F30x_Demo_Suites_V2.0.0/GD32F30x_Demo_Suites_V2.0.0/GD32F30x_Firmware_Library/CMSIS/GD/GD32F30x/Source\system_gd32f30x.c ****     RCU_CFG0 |= RCU_AHB_CKSYS_DIV1;
 316:C:/Users/49542/Desktop/GD32F30x_Demo_Suites_V2.0.0/GD32F30x_Demo_Suites_V2.0.0/GD32F30x_Firmware_Library/CMSIS/GD/GD32F30x/Source\system_gd32f30x.c ****     /* APB2 = AHB/1 */
 317:C:/Users/49542/Desktop/GD32F30x_Demo_Suites_V2.0.0/GD32F30x_Demo_Suites_V2.0.0/GD32F30x_Firmware_Library/CMSIS/GD/GD32F30x/Source\system_gd32f30x.c ****     RCU_CFG0 |= RCU_APB2_CKAHB_DIV1;
ARM GAS  C:\Users\49542\AppData\Local\Temp\ccCGQ85p.s 			page 7


 318:C:/Users/49542/Desktop/GD32F30x_Demo_Suites_V2.0.0/GD32F30x_Demo_Suites_V2.0.0/GD32F30x_Firmware_Library/CMSIS/GD/GD32F30x/Source\system_gd32f30x.c ****     /* APB1 = AHB/2 */
 319:C:/Users/49542/Desktop/GD32F30x_Demo_Suites_V2.0.0/GD32F30x_Demo_Suites_V2.0.0/GD32F30x_Firmware_Library/CMSIS/GD/GD32F30x/Source\system_gd32f30x.c ****     RCU_CFG0 |= RCU_APB1_CKAHB_DIV2;
 320:C:/Users/49542/Desktop/GD32F30x_Demo_Suites_V2.0.0/GD32F30x_Demo_Suites_V2.0.0/GD32F30x_Firmware_Library/CMSIS/GD/GD32F30x/Source\system_gd32f30x.c **** 
 321:C:/Users/49542/Desktop/GD32F30x_Demo_Suites_V2.0.0/GD32F30x_Demo_Suites_V2.0.0/GD32F30x_Firmware_Library/CMSIS/GD/GD32F30x/Source\system_gd32f30x.c ****     /* CK_PLL = (CK_IRC8M/2) * 18 = 72 MHz */
 322:C:/Users/49542/Desktop/GD32F30x_Demo_Suites_V2.0.0/GD32F30x_Demo_Suites_V2.0.0/GD32F30x_Firmware_Library/CMSIS/GD/GD32F30x/Source\system_gd32f30x.c ****     RCU_CFG0 &= ~(RCU_CFG0_PLLMF | RCU_CFG0_PLLMF_4 | RCU_CFG0_PLLMF_5);
 323:C:/Users/49542/Desktop/GD32F30x_Demo_Suites_V2.0.0/GD32F30x_Demo_Suites_V2.0.0/GD32F30x_Firmware_Library/CMSIS/GD/GD32F30x/Source\system_gd32f30x.c ****     RCU_CFG0 |= RCU_PLL_MUL18;
 324:C:/Users/49542/Desktop/GD32F30x_Demo_Suites_V2.0.0/GD32F30x_Demo_Suites_V2.0.0/GD32F30x_Firmware_Library/CMSIS/GD/GD32F30x/Source\system_gd32f30x.c **** 
 325:C:/Users/49542/Desktop/GD32F30x_Demo_Suites_V2.0.0/GD32F30x_Demo_Suites_V2.0.0/GD32F30x_Firmware_Library/CMSIS/GD/GD32F30x/Source\system_gd32f30x.c ****     /* enable PLL */
 326:C:/Users/49542/Desktop/GD32F30x_Demo_Suites_V2.0.0/GD32F30x_Demo_Suites_V2.0.0/GD32F30x_Firmware_Library/CMSIS/GD/GD32F30x/Source\system_gd32f30x.c ****     RCU_CTL |= RCU_CTL_PLLEN;
 327:C:/Users/49542/Desktop/GD32F30x_Demo_Suites_V2.0.0/GD32F30x_Demo_Suites_V2.0.0/GD32F30x_Firmware_Library/CMSIS/GD/GD32F30x/Source\system_gd32f30x.c **** 
 328:C:/Users/49542/Desktop/GD32F30x_Demo_Suites_V2.0.0/GD32F30x_Demo_Suites_V2.0.0/GD32F30x_Firmware_Library/CMSIS/GD/GD32F30x/Source\system_gd32f30x.c ****     /* wait until PLL is stable */
 329:C:/Users/49542/Desktop/GD32F30x_Demo_Suites_V2.0.0/GD32F30x_Demo_Suites_V2.0.0/GD32F30x_Firmware_Library/CMSIS/GD/GD32F30x/Source\system_gd32f30x.c ****     while(0U == (RCU_CTL & RCU_CTL_PLLSTB)){
 330:C:/Users/49542/Desktop/GD32F30x_Demo_Suites_V2.0.0/GD32F30x_Demo_Suites_V2.0.0/GD32F30x_Firmware_Library/CMSIS/GD/GD32F30x/Source\system_gd32f30x.c ****     }
 331:C:/Users/49542/Desktop/GD32F30x_Demo_Suites_V2.0.0/GD32F30x_Demo_Suites_V2.0.0/GD32F30x_Firmware_Library/CMSIS/GD/GD32F30x/Source\system_gd32f30x.c ****     
 332:C:/Users/49542/Desktop/GD32F30x_Demo_Suites_V2.0.0/GD32F30x_Demo_Suites_V2.0.0/GD32F30x_Firmware_Library/CMSIS/GD/GD32F30x/Source\system_gd32f30x.c ****     /* enable the high-drive to extend the clock frequency to 120 MHz */
 333:C:/Users/49542/Desktop/GD32F30x_Demo_Suites_V2.0.0/GD32F30x_Demo_Suites_V2.0.0/GD32F30x_Firmware_Library/CMSIS/GD/GD32F30x/Source\system_gd32f30x.c ****     PMU_CTL |= PMU_CTL_HDEN;
 334:C:/Users/49542/Desktop/GD32F30x_Demo_Suites_V2.0.0/GD32F30x_Demo_Suites_V2.0.0/GD32F30x_Firmware_Library/CMSIS/GD/GD32F30x/Source\system_gd32f30x.c ****     while(0U == (PMU_CS & PMU_CS_HDRF)){
 335:C:/Users/49542/Desktop/GD32F30x_Demo_Suites_V2.0.0/GD32F30x_Demo_Suites_V2.0.0/GD32F30x_Firmware_Library/CMSIS/GD/GD32F30x/Source\system_gd32f30x.c ****     }
 336:C:/Users/49542/Desktop/GD32F30x_Demo_Suites_V2.0.0/GD32F30x_Demo_Suites_V2.0.0/GD32F30x_Firmware_Library/CMSIS/GD/GD32F30x/Source\system_gd32f30x.c ****     
 337:C:/Users/49542/Desktop/GD32F30x_Demo_Suites_V2.0.0/GD32F30x_Demo_Suites_V2.0.0/GD32F30x_Firmware_Library/CMSIS/GD/GD32F30x/Source\system_gd32f30x.c ****     /* select the high-drive mode */
 338:C:/Users/49542/Desktop/GD32F30x_Demo_Suites_V2.0.0/GD32F30x_Demo_Suites_V2.0.0/GD32F30x_Firmware_Library/CMSIS/GD/GD32F30x/Source\system_gd32f30x.c ****     PMU_CTL |= PMU_CTL_HDS;
 339:C:/Users/49542/Desktop/GD32F30x_Demo_Suites_V2.0.0/GD32F30x_Demo_Suites_V2.0.0/GD32F30x_Firmware_Library/CMSIS/GD/GD32F30x/Source\system_gd32f30x.c ****     while(0U == (PMU_CS & PMU_CS_HDSRF)){
 340:C:/Users/49542/Desktop/GD32F30x_Demo_Suites_V2.0.0/GD32F30x_Demo_Suites_V2.0.0/GD32F30x_Firmware_Library/CMSIS/GD/GD32F30x/Source\system_gd32f30x.c ****     }
 341:C:/Users/49542/Desktop/GD32F30x_Demo_Suites_V2.0.0/GD32F30x_Demo_Suites_V2.0.0/GD32F30x_Firmware_Library/CMSIS/GD/GD32F30x/Source\system_gd32f30x.c ****     
 342:C:/Users/49542/Desktop/GD32F30x_Demo_Suites_V2.0.0/GD32F30x_Demo_Suites_V2.0.0/GD32F30x_Firmware_Library/CMSIS/GD/GD32F30x/Source\system_gd32f30x.c ****     /* select PLL as system clock */
 343:C:/Users/49542/Desktop/GD32F30x_Demo_Suites_V2.0.0/GD32F30x_Demo_Suites_V2.0.0/GD32F30x_Firmware_Library/CMSIS/GD/GD32F30x/Source\system_gd32f30x.c ****     RCU_CFG0 &= ~RCU_CFG0_SCS;
 344:C:/Users/49542/Desktop/GD32F30x_Demo_Suites_V2.0.0/GD32F30x_Demo_Suites_V2.0.0/GD32F30x_Firmware_Library/CMSIS/GD/GD32F30x/Source\system_gd32f30x.c ****     RCU_CFG0 |= RCU_CKSYSSRC_PLL;
 345:C:/Users/49542/Desktop/GD32F30x_Demo_Suites_V2.0.0/GD32F30x_Demo_Suites_V2.0.0/GD32F30x_Firmware_Library/CMSIS/GD/GD32F30x/Source\system_gd32f30x.c **** 
 346:C:/Users/49542/Desktop/GD32F30x_Demo_Suites_V2.0.0/GD32F30x_Demo_Suites_V2.0.0/GD32F30x_Firmware_Library/CMSIS/GD/GD32F30x/Source\system_gd32f30x.c ****     /* wait until PLL is selected as system clock */
 347:C:/Users/49542/Desktop/GD32F30x_Demo_Suites_V2.0.0/GD32F30x_Demo_Suites_V2.0.0/GD32F30x_Firmware_Library/CMSIS/GD/GD32F30x/Source\system_gd32f30x.c ****     while(0U == (RCU_CFG0 & RCU_SCSS_PLL)){
 348:C:/Users/49542/Desktop/GD32F30x_Demo_Suites_V2.0.0/GD32F30x_Demo_Suites_V2.0.0/GD32F30x_Firmware_Library/CMSIS/GD/GD32F30x/Source\system_gd32f30x.c ****     }
 349:C:/Users/49542/Desktop/GD32F30x_Demo_Suites_V2.0.0/GD32F30x_Demo_Suites_V2.0.0/GD32F30x_Firmware_Library/CMSIS/GD/GD32F30x/Source\system_gd32f30x.c **** }
 350:C:/Users/49542/Desktop/GD32F30x_Demo_Suites_V2.0.0/GD32F30x_Demo_Suites_V2.0.0/GD32F30x_Firmware_Library/CMSIS/GD/GD32F30x/Source\system_gd32f30x.c **** 
 351:C:/Users/49542/Desktop/GD32F30x_Demo_Suites_V2.0.0/GD32F30x_Demo_Suites_V2.0.0/GD32F30x_Firmware_Library/CMSIS/GD/GD32F30x/Source\system_gd32f30x.c **** #elif defined (__SYSTEM_CLOCK_108M_PLL_IRC8M)
 352:C:/Users/49542/Desktop/GD32F30x_Demo_Suites_V2.0.0/GD32F30x_Demo_Suites_V2.0.0/GD32F30x_Firmware_Library/CMSIS/GD/GD32F30x/Source\system_gd32f30x.c **** /*!
 353:C:/Users/49542/Desktop/GD32F30x_Demo_Suites_V2.0.0/GD32F30x_Demo_Suites_V2.0.0/GD32F30x_Firmware_Library/CMSIS/GD/GD32F30x/Source\system_gd32f30x.c ****     \brief      configure the system clock to 108M by PLL which selects IRC8M as its clock source
 354:C:/Users/49542/Desktop/GD32F30x_Demo_Suites_V2.0.0/GD32F30x_Demo_Suites_V2.0.0/GD32F30x_Firmware_Library/CMSIS/GD/GD32F30x/Source\system_gd32f30x.c ****     \param[in]  none
 355:C:/Users/49542/Desktop/GD32F30x_Demo_Suites_V2.0.0/GD32F30x_Demo_Suites_V2.0.0/GD32F30x_Firmware_Library/CMSIS/GD/GD32F30x/Source\system_gd32f30x.c ****     \param[out] none
 356:C:/Users/49542/Desktop/GD32F30x_Demo_Suites_V2.0.0/GD32F30x_Demo_Suites_V2.0.0/GD32F30x_Firmware_Library/CMSIS/GD/GD32F30x/Source\system_gd32f30x.c ****     \retval     none
 357:C:/Users/49542/Desktop/GD32F30x_Demo_Suites_V2.0.0/GD32F30x_Demo_Suites_V2.0.0/GD32F30x_Firmware_Library/CMSIS/GD/GD32F30x/Source\system_gd32f30x.c **** */
 358:C:/Users/49542/Desktop/GD32F30x_Demo_Suites_V2.0.0/GD32F30x_Demo_Suites_V2.0.0/GD32F30x_Firmware_Library/CMSIS/GD/GD32F30x/Source\system_gd32f30x.c **** static void system_clock_108m_irc8m(void)
 359:C:/Users/49542/Desktop/GD32F30x_Demo_Suites_V2.0.0/GD32F30x_Demo_Suites_V2.0.0/GD32F30x_Firmware_Library/CMSIS/GD/GD32F30x/Source\system_gd32f30x.c **** {
 360:C:/Users/49542/Desktop/GD32F30x_Demo_Suites_V2.0.0/GD32F30x_Demo_Suites_V2.0.0/GD32F30x_Firmware_Library/CMSIS/GD/GD32F30x/Source\system_gd32f30x.c ****     uint32_t timeout = 0U;
 361:C:/Users/49542/Desktop/GD32F30x_Demo_Suites_V2.0.0/GD32F30x_Demo_Suites_V2.0.0/GD32F30x_Firmware_Library/CMSIS/GD/GD32F30x/Source\system_gd32f30x.c ****     uint32_t stab_flag = 0U;
 362:C:/Users/49542/Desktop/GD32F30x_Demo_Suites_V2.0.0/GD32F30x_Demo_Suites_V2.0.0/GD32F30x_Firmware_Library/CMSIS/GD/GD32F30x/Source\system_gd32f30x.c ****     
 363:C:/Users/49542/Desktop/GD32F30x_Demo_Suites_V2.0.0/GD32F30x_Demo_Suites_V2.0.0/GD32F30x_Firmware_Library/CMSIS/GD/GD32F30x/Source\system_gd32f30x.c ****     /* enable IRC8M */
 364:C:/Users/49542/Desktop/GD32F30x_Demo_Suites_V2.0.0/GD32F30x_Demo_Suites_V2.0.0/GD32F30x_Firmware_Library/CMSIS/GD/GD32F30x/Source\system_gd32f30x.c ****     RCU_CTL |= RCU_CTL_IRC8MEN;
 365:C:/Users/49542/Desktop/GD32F30x_Demo_Suites_V2.0.0/GD32F30x_Demo_Suites_V2.0.0/GD32F30x_Firmware_Library/CMSIS/GD/GD32F30x/Source\system_gd32f30x.c **** 
 366:C:/Users/49542/Desktop/GD32F30x_Demo_Suites_V2.0.0/GD32F30x_Demo_Suites_V2.0.0/GD32F30x_Firmware_Library/CMSIS/GD/GD32F30x/Source\system_gd32f30x.c ****     /* wait until IRC8M is stable or the startup time is longer than IRC8M_STARTUP_TIMEOUT */
 367:C:/Users/49542/Desktop/GD32F30x_Demo_Suites_V2.0.0/GD32F30x_Demo_Suites_V2.0.0/GD32F30x_Firmware_Library/CMSIS/GD/GD32F30x/Source\system_gd32f30x.c ****     do{
 368:C:/Users/49542/Desktop/GD32F30x_Demo_Suites_V2.0.0/GD32F30x_Demo_Suites_V2.0.0/GD32F30x_Firmware_Library/CMSIS/GD/GD32F30x/Source\system_gd32f30x.c ****         timeout++;
 369:C:/Users/49542/Desktop/GD32F30x_Demo_Suites_V2.0.0/GD32F30x_Demo_Suites_V2.0.0/GD32F30x_Firmware_Library/CMSIS/GD/GD32F30x/Source\system_gd32f30x.c ****         stab_flag = (RCU_CTL & RCU_CTL_IRC8MSTB);
 370:C:/Users/49542/Desktop/GD32F30x_Demo_Suites_V2.0.0/GD32F30x_Demo_Suites_V2.0.0/GD32F30x_Firmware_Library/CMSIS/GD/GD32F30x/Source\system_gd32f30x.c ****     }while((0U == stab_flag) && (IRC8M_STARTUP_TIMEOUT != timeout));
 371:C:/Users/49542/Desktop/GD32F30x_Demo_Suites_V2.0.0/GD32F30x_Demo_Suites_V2.0.0/GD32F30x_Firmware_Library/CMSIS/GD/GD32F30x/Source\system_gd32f30x.c **** 
 372:C:/Users/49542/Desktop/GD32F30x_Demo_Suites_V2.0.0/GD32F30x_Demo_Suites_V2.0.0/GD32F30x_Firmware_Library/CMSIS/GD/GD32F30x/Source\system_gd32f30x.c ****     /* if fail */
 373:C:/Users/49542/Desktop/GD32F30x_Demo_Suites_V2.0.0/GD32F30x_Demo_Suites_V2.0.0/GD32F30x_Firmware_Library/CMSIS/GD/GD32F30x/Source\system_gd32f30x.c ****     if(0U == (RCU_CTL & RCU_CTL_IRC8MSTB)){
 374:C:/Users/49542/Desktop/GD32F30x_Demo_Suites_V2.0.0/GD32F30x_Demo_Suites_V2.0.0/GD32F30x_Firmware_Library/CMSIS/GD/GD32F30x/Source\system_gd32f30x.c ****         while(1){
ARM GAS  C:\Users\49542\AppData\Local\Temp\ccCGQ85p.s 			page 8


 375:C:/Users/49542/Desktop/GD32F30x_Demo_Suites_V2.0.0/GD32F30x_Demo_Suites_V2.0.0/GD32F30x_Firmware_Library/CMSIS/GD/GD32F30x/Source\system_gd32f30x.c ****         }
 376:C:/Users/49542/Desktop/GD32F30x_Demo_Suites_V2.0.0/GD32F30x_Demo_Suites_V2.0.0/GD32F30x_Firmware_Library/CMSIS/GD/GD32F30x/Source\system_gd32f30x.c ****     }
 377:C:/Users/49542/Desktop/GD32F30x_Demo_Suites_V2.0.0/GD32F30x_Demo_Suites_V2.0.0/GD32F30x_Firmware_Library/CMSIS/GD/GD32F30x/Source\system_gd32f30x.c **** 
 378:C:/Users/49542/Desktop/GD32F30x_Demo_Suites_V2.0.0/GD32F30x_Demo_Suites_V2.0.0/GD32F30x_Firmware_Library/CMSIS/GD/GD32F30x/Source\system_gd32f30x.c ****     /* LDO output voltage high mode */
 379:C:/Users/49542/Desktop/GD32F30x_Demo_Suites_V2.0.0/GD32F30x_Demo_Suites_V2.0.0/GD32F30x_Firmware_Library/CMSIS/GD/GD32F30x/Source\system_gd32f30x.c ****     RCU_APB1EN |= RCU_APB1EN_PMUEN;
 380:C:/Users/49542/Desktop/GD32F30x_Demo_Suites_V2.0.0/GD32F30x_Demo_Suites_V2.0.0/GD32F30x_Firmware_Library/CMSIS/GD/GD32F30x/Source\system_gd32f30x.c ****     PMU_CTL |= PMU_CTL_LDOVS;
 381:C:/Users/49542/Desktop/GD32F30x_Demo_Suites_V2.0.0/GD32F30x_Demo_Suites_V2.0.0/GD32F30x_Firmware_Library/CMSIS/GD/GD32F30x/Source\system_gd32f30x.c **** 
 382:C:/Users/49542/Desktop/GD32F30x_Demo_Suites_V2.0.0/GD32F30x_Demo_Suites_V2.0.0/GD32F30x_Firmware_Library/CMSIS/GD/GD32F30x/Source\system_gd32f30x.c ****     /* IRC8M is stable */
 383:C:/Users/49542/Desktop/GD32F30x_Demo_Suites_V2.0.0/GD32F30x_Demo_Suites_V2.0.0/GD32F30x_Firmware_Library/CMSIS/GD/GD32F30x/Source\system_gd32f30x.c ****     /* AHB = SYSCLK */
 384:C:/Users/49542/Desktop/GD32F30x_Demo_Suites_V2.0.0/GD32F30x_Demo_Suites_V2.0.0/GD32F30x_Firmware_Library/CMSIS/GD/GD32F30x/Source\system_gd32f30x.c ****     RCU_CFG0 |= RCU_AHB_CKSYS_DIV1;
 385:C:/Users/49542/Desktop/GD32F30x_Demo_Suites_V2.0.0/GD32F30x_Demo_Suites_V2.0.0/GD32F30x_Firmware_Library/CMSIS/GD/GD32F30x/Source\system_gd32f30x.c ****     /* APB2 = AHB/1 */
 386:C:/Users/49542/Desktop/GD32F30x_Demo_Suites_V2.0.0/GD32F30x_Demo_Suites_V2.0.0/GD32F30x_Firmware_Library/CMSIS/GD/GD32F30x/Source\system_gd32f30x.c ****     RCU_CFG0 |= RCU_APB2_CKAHB_DIV1;
 387:C:/Users/49542/Desktop/GD32F30x_Demo_Suites_V2.0.0/GD32F30x_Demo_Suites_V2.0.0/GD32F30x_Firmware_Library/CMSIS/GD/GD32F30x/Source\system_gd32f30x.c ****     /* APB1 = AHB/2 */
 388:C:/Users/49542/Desktop/GD32F30x_Demo_Suites_V2.0.0/GD32F30x_Demo_Suites_V2.0.0/GD32F30x_Firmware_Library/CMSIS/GD/GD32F30x/Source\system_gd32f30x.c ****     RCU_CFG0 |= RCU_APB1_CKAHB_DIV2;
 389:C:/Users/49542/Desktop/GD32F30x_Demo_Suites_V2.0.0/GD32F30x_Demo_Suites_V2.0.0/GD32F30x_Firmware_Library/CMSIS/GD/GD32F30x/Source\system_gd32f30x.c **** 
 390:C:/Users/49542/Desktop/GD32F30x_Demo_Suites_V2.0.0/GD32F30x_Demo_Suites_V2.0.0/GD32F30x_Firmware_Library/CMSIS/GD/GD32F30x/Source\system_gd32f30x.c ****     /* CK_PLL = (CK_IRC8M/2) * 27 = 108 MHz */
 391:C:/Users/49542/Desktop/GD32F30x_Demo_Suites_V2.0.0/GD32F30x_Demo_Suites_V2.0.0/GD32F30x_Firmware_Library/CMSIS/GD/GD32F30x/Source\system_gd32f30x.c ****     RCU_CFG0 &= ~(RCU_CFG0_PLLMF | RCU_CFG0_PLLMF_4 | RCU_CFG0_PLLMF_5);
 392:C:/Users/49542/Desktop/GD32F30x_Demo_Suites_V2.0.0/GD32F30x_Demo_Suites_V2.0.0/GD32F30x_Firmware_Library/CMSIS/GD/GD32F30x/Source\system_gd32f30x.c ****     RCU_CFG0 |= RCU_PLL_MUL27;
 393:C:/Users/49542/Desktop/GD32F30x_Demo_Suites_V2.0.0/GD32F30x_Demo_Suites_V2.0.0/GD32F30x_Firmware_Library/CMSIS/GD/GD32F30x/Source\system_gd32f30x.c **** 
 394:C:/Users/49542/Desktop/GD32F30x_Demo_Suites_V2.0.0/GD32F30x_Demo_Suites_V2.0.0/GD32F30x_Firmware_Library/CMSIS/GD/GD32F30x/Source\system_gd32f30x.c ****     /* enable PLL */
 395:C:/Users/49542/Desktop/GD32F30x_Demo_Suites_V2.0.0/GD32F30x_Demo_Suites_V2.0.0/GD32F30x_Firmware_Library/CMSIS/GD/GD32F30x/Source\system_gd32f30x.c ****     RCU_CTL |= RCU_CTL_PLLEN;
 396:C:/Users/49542/Desktop/GD32F30x_Demo_Suites_V2.0.0/GD32F30x_Demo_Suites_V2.0.0/GD32F30x_Firmware_Library/CMSIS/GD/GD32F30x/Source\system_gd32f30x.c **** 
 397:C:/Users/49542/Desktop/GD32F30x_Demo_Suites_V2.0.0/GD32F30x_Demo_Suites_V2.0.0/GD32F30x_Firmware_Library/CMSIS/GD/GD32F30x/Source\system_gd32f30x.c ****     /* wait until PLL is stable */
 398:C:/Users/49542/Desktop/GD32F30x_Demo_Suites_V2.0.0/GD32F30x_Demo_Suites_V2.0.0/GD32F30x_Firmware_Library/CMSIS/GD/GD32F30x/Source\system_gd32f30x.c ****     while(0U == (RCU_CTL & RCU_CTL_PLLSTB)){
 399:C:/Users/49542/Desktop/GD32F30x_Demo_Suites_V2.0.0/GD32F30x_Demo_Suites_V2.0.0/GD32F30x_Firmware_Library/CMSIS/GD/GD32F30x/Source\system_gd32f30x.c ****     }
 400:C:/Users/49542/Desktop/GD32F30x_Demo_Suites_V2.0.0/GD32F30x_Demo_Suites_V2.0.0/GD32F30x_Firmware_Library/CMSIS/GD/GD32F30x/Source\system_gd32f30x.c ****     
 401:C:/Users/49542/Desktop/GD32F30x_Demo_Suites_V2.0.0/GD32F30x_Demo_Suites_V2.0.0/GD32F30x_Firmware_Library/CMSIS/GD/GD32F30x/Source\system_gd32f30x.c ****     /* enable the high-drive to extend the clock frequency to 120 MHz */
 402:C:/Users/49542/Desktop/GD32F30x_Demo_Suites_V2.0.0/GD32F30x_Demo_Suites_V2.0.0/GD32F30x_Firmware_Library/CMSIS/GD/GD32F30x/Source\system_gd32f30x.c ****     PMU_CTL |= PMU_CTL_HDEN;
 403:C:/Users/49542/Desktop/GD32F30x_Demo_Suites_V2.0.0/GD32F30x_Demo_Suites_V2.0.0/GD32F30x_Firmware_Library/CMSIS/GD/GD32F30x/Source\system_gd32f30x.c ****     while(0U == (PMU_CS & PMU_CS_HDRF)){
 404:C:/Users/49542/Desktop/GD32F30x_Demo_Suites_V2.0.0/GD32F30x_Demo_Suites_V2.0.0/GD32F30x_Firmware_Library/CMSIS/GD/GD32F30x/Source\system_gd32f30x.c ****     }
 405:C:/Users/49542/Desktop/GD32F30x_Demo_Suites_V2.0.0/GD32F30x_Demo_Suites_V2.0.0/GD32F30x_Firmware_Library/CMSIS/GD/GD32F30x/Source\system_gd32f30x.c ****     
 406:C:/Users/49542/Desktop/GD32F30x_Demo_Suites_V2.0.0/GD32F30x_Demo_Suites_V2.0.0/GD32F30x_Firmware_Library/CMSIS/GD/GD32F30x/Source\system_gd32f30x.c ****     /* select the high-drive mode */
 407:C:/Users/49542/Desktop/GD32F30x_Demo_Suites_V2.0.0/GD32F30x_Demo_Suites_V2.0.0/GD32F30x_Firmware_Library/CMSIS/GD/GD32F30x/Source\system_gd32f30x.c ****     PMU_CTL |= PMU_CTL_HDS;
 408:C:/Users/49542/Desktop/GD32F30x_Demo_Suites_V2.0.0/GD32F30x_Demo_Suites_V2.0.0/GD32F30x_Firmware_Library/CMSIS/GD/GD32F30x/Source\system_gd32f30x.c ****     while(0U == (PMU_CS & PMU_CS_HDSRF)){
 409:C:/Users/49542/Desktop/GD32F30x_Demo_Suites_V2.0.0/GD32F30x_Demo_Suites_V2.0.0/GD32F30x_Firmware_Library/CMSIS/GD/GD32F30x/Source\system_gd32f30x.c ****     }
 410:C:/Users/49542/Desktop/GD32F30x_Demo_Suites_V2.0.0/GD32F30x_Demo_Suites_V2.0.0/GD32F30x_Firmware_Library/CMSIS/GD/GD32F30x/Source\system_gd32f30x.c ****     
 411:C:/Users/49542/Desktop/GD32F30x_Demo_Suites_V2.0.0/GD32F30x_Demo_Suites_V2.0.0/GD32F30x_Firmware_Library/CMSIS/GD/GD32F30x/Source\system_gd32f30x.c ****     /* select PLL as system clock */
 412:C:/Users/49542/Desktop/GD32F30x_Demo_Suites_V2.0.0/GD32F30x_Demo_Suites_V2.0.0/GD32F30x_Firmware_Library/CMSIS/GD/GD32F30x/Source\system_gd32f30x.c ****     RCU_CFG0 &= ~RCU_CFG0_SCS;
 413:C:/Users/49542/Desktop/GD32F30x_Demo_Suites_V2.0.0/GD32F30x_Demo_Suites_V2.0.0/GD32F30x_Firmware_Library/CMSIS/GD/GD32F30x/Source\system_gd32f30x.c ****     RCU_CFG0 |= RCU_CKSYSSRC_PLL;
 414:C:/Users/49542/Desktop/GD32F30x_Demo_Suites_V2.0.0/GD32F30x_Demo_Suites_V2.0.0/GD32F30x_Firmware_Library/CMSIS/GD/GD32F30x/Source\system_gd32f30x.c **** 
 415:C:/Users/49542/Desktop/GD32F30x_Demo_Suites_V2.0.0/GD32F30x_Demo_Suites_V2.0.0/GD32F30x_Firmware_Library/CMSIS/GD/GD32F30x/Source\system_gd32f30x.c ****     /* wait until PLL is selected as system clock */
 416:C:/Users/49542/Desktop/GD32F30x_Demo_Suites_V2.0.0/GD32F30x_Demo_Suites_V2.0.0/GD32F30x_Firmware_Library/CMSIS/GD/GD32F30x/Source\system_gd32f30x.c ****     while(0U == (RCU_CFG0 & RCU_SCSS_PLL)){
 417:C:/Users/49542/Desktop/GD32F30x_Demo_Suites_V2.0.0/GD32F30x_Demo_Suites_V2.0.0/GD32F30x_Firmware_Library/CMSIS/GD/GD32F30x/Source\system_gd32f30x.c ****     }
 418:C:/Users/49542/Desktop/GD32F30x_Demo_Suites_V2.0.0/GD32F30x_Demo_Suites_V2.0.0/GD32F30x_Firmware_Library/CMSIS/GD/GD32F30x/Source\system_gd32f30x.c **** }
 419:C:/Users/49542/Desktop/GD32F30x_Demo_Suites_V2.0.0/GD32F30x_Demo_Suites_V2.0.0/GD32F30x_Firmware_Library/CMSIS/GD/GD32F30x/Source\system_gd32f30x.c **** 
 420:C:/Users/49542/Desktop/GD32F30x_Demo_Suites_V2.0.0/GD32F30x_Demo_Suites_V2.0.0/GD32F30x_Firmware_Library/CMSIS/GD/GD32F30x/Source\system_gd32f30x.c **** #elif defined (__SYSTEM_CLOCK_120M_PLL_IRC8M)
 421:C:/Users/49542/Desktop/GD32F30x_Demo_Suites_V2.0.0/GD32F30x_Demo_Suites_V2.0.0/GD32F30x_Firmware_Library/CMSIS/GD/GD32F30x/Source\system_gd32f30x.c **** /*!
 422:C:/Users/49542/Desktop/GD32F30x_Demo_Suites_V2.0.0/GD32F30x_Demo_Suites_V2.0.0/GD32F30x_Firmware_Library/CMSIS/GD/GD32F30x/Source\system_gd32f30x.c ****     \brief      configure the system clock to 120M by PLL which selects IRC8M as its clock source
 423:C:/Users/49542/Desktop/GD32F30x_Demo_Suites_V2.0.0/GD32F30x_Demo_Suites_V2.0.0/GD32F30x_Firmware_Library/CMSIS/GD/GD32F30x/Source\system_gd32f30x.c ****     \param[in]  none
 424:C:/Users/49542/Desktop/GD32F30x_Demo_Suites_V2.0.0/GD32F30x_Demo_Suites_V2.0.0/GD32F30x_Firmware_Library/CMSIS/GD/GD32F30x/Source\system_gd32f30x.c ****     \param[out] none
 425:C:/Users/49542/Desktop/GD32F30x_Demo_Suites_V2.0.0/GD32F30x_Demo_Suites_V2.0.0/GD32F30x_Firmware_Library/CMSIS/GD/GD32F30x/Source\system_gd32f30x.c ****     \retval     none
 426:C:/Users/49542/Desktop/GD32F30x_Demo_Suites_V2.0.0/GD32F30x_Demo_Suites_V2.0.0/GD32F30x_Firmware_Library/CMSIS/GD/GD32F30x/Source\system_gd32f30x.c **** */
 427:C:/Users/49542/Desktop/GD32F30x_Demo_Suites_V2.0.0/GD32F30x_Demo_Suites_V2.0.0/GD32F30x_Firmware_Library/CMSIS/GD/GD32F30x/Source\system_gd32f30x.c **** static void system_clock_120m_irc8m(void)
 428:C:/Users/49542/Desktop/GD32F30x_Demo_Suites_V2.0.0/GD32F30x_Demo_Suites_V2.0.0/GD32F30x_Firmware_Library/CMSIS/GD/GD32F30x/Source\system_gd32f30x.c **** {
 429:C:/Users/49542/Desktop/GD32F30x_Demo_Suites_V2.0.0/GD32F30x_Demo_Suites_V2.0.0/GD32F30x_Firmware_Library/CMSIS/GD/GD32F30x/Source\system_gd32f30x.c ****     uint32_t timeout = 0U;
 430:C:/Users/49542/Desktop/GD32F30x_Demo_Suites_V2.0.0/GD32F30x_Demo_Suites_V2.0.0/GD32F30x_Firmware_Library/CMSIS/GD/GD32F30x/Source\system_gd32f30x.c ****     uint32_t stab_flag = 0U;
 431:C:/Users/49542/Desktop/GD32F30x_Demo_Suites_V2.0.0/GD32F30x_Demo_Suites_V2.0.0/GD32F30x_Firmware_Library/CMSIS/GD/GD32F30x/Source\system_gd32f30x.c ****     
ARM GAS  C:\Users\49542\AppData\Local\Temp\ccCGQ85p.s 			page 9


 432:C:/Users/49542/Desktop/GD32F30x_Demo_Suites_V2.0.0/GD32F30x_Demo_Suites_V2.0.0/GD32F30x_Firmware_Library/CMSIS/GD/GD32F30x/Source\system_gd32f30x.c ****     /* enable IRC8M */
 433:C:/Users/49542/Desktop/GD32F30x_Demo_Suites_V2.0.0/GD32F30x_Demo_Suites_V2.0.0/GD32F30x_Firmware_Library/CMSIS/GD/GD32F30x/Source\system_gd32f30x.c ****     RCU_CTL |= RCU_CTL_IRC8MEN;
 434:C:/Users/49542/Desktop/GD32F30x_Demo_Suites_V2.0.0/GD32F30x_Demo_Suites_V2.0.0/GD32F30x_Firmware_Library/CMSIS/GD/GD32F30x/Source\system_gd32f30x.c **** 
 435:C:/Users/49542/Desktop/GD32F30x_Demo_Suites_V2.0.0/GD32F30x_Demo_Suites_V2.0.0/GD32F30x_Firmware_Library/CMSIS/GD/GD32F30x/Source\system_gd32f30x.c ****     /* wait until IRC8M is stable or the startup time is longer than IRC8M_STARTUP_TIMEOUT */
 436:C:/Users/49542/Desktop/GD32F30x_Demo_Suites_V2.0.0/GD32F30x_Demo_Suites_V2.0.0/GD32F30x_Firmware_Library/CMSIS/GD/GD32F30x/Source\system_gd32f30x.c ****     do{
 437:C:/Users/49542/Desktop/GD32F30x_Demo_Suites_V2.0.0/GD32F30x_Demo_Suites_V2.0.0/GD32F30x_Firmware_Library/CMSIS/GD/GD32F30x/Source\system_gd32f30x.c ****         timeout++;
 438:C:/Users/49542/Desktop/GD32F30x_Demo_Suites_V2.0.0/GD32F30x_Demo_Suites_V2.0.0/GD32F30x_Firmware_Library/CMSIS/GD/GD32F30x/Source\system_gd32f30x.c ****         stab_flag = (RCU_CTL & RCU_CTL_IRC8MSTB);
 439:C:/Users/49542/Desktop/GD32F30x_Demo_Suites_V2.0.0/GD32F30x_Demo_Suites_V2.0.0/GD32F30x_Firmware_Library/CMSIS/GD/GD32F30x/Source\system_gd32f30x.c ****     }while((0U == stab_flag) && (IRC8M_STARTUP_TIMEOUT != timeout));
 440:C:/Users/49542/Desktop/GD32F30x_Demo_Suites_V2.0.0/GD32F30x_Demo_Suites_V2.0.0/GD32F30x_Firmware_Library/CMSIS/GD/GD32F30x/Source\system_gd32f30x.c **** 
 441:C:/Users/49542/Desktop/GD32F30x_Demo_Suites_V2.0.0/GD32F30x_Demo_Suites_V2.0.0/GD32F30x_Firmware_Library/CMSIS/GD/GD32F30x/Source\system_gd32f30x.c ****     /* if fail */
 442:C:/Users/49542/Desktop/GD32F30x_Demo_Suites_V2.0.0/GD32F30x_Demo_Suites_V2.0.0/GD32F30x_Firmware_Library/CMSIS/GD/GD32F30x/Source\system_gd32f30x.c ****     if(0U == (RCU_CTL & RCU_CTL_IRC8MSTB)){
 443:C:/Users/49542/Desktop/GD32F30x_Demo_Suites_V2.0.0/GD32F30x_Demo_Suites_V2.0.0/GD32F30x_Firmware_Library/CMSIS/GD/GD32F30x/Source\system_gd32f30x.c ****         while(1){
 444:C:/Users/49542/Desktop/GD32F30x_Demo_Suites_V2.0.0/GD32F30x_Demo_Suites_V2.0.0/GD32F30x_Firmware_Library/CMSIS/GD/GD32F30x/Source\system_gd32f30x.c ****         }
 445:C:/Users/49542/Desktop/GD32F30x_Demo_Suites_V2.0.0/GD32F30x_Demo_Suites_V2.0.0/GD32F30x_Firmware_Library/CMSIS/GD/GD32F30x/Source\system_gd32f30x.c ****     }
 446:C:/Users/49542/Desktop/GD32F30x_Demo_Suites_V2.0.0/GD32F30x_Demo_Suites_V2.0.0/GD32F30x_Firmware_Library/CMSIS/GD/GD32F30x/Source\system_gd32f30x.c **** 
 447:C:/Users/49542/Desktop/GD32F30x_Demo_Suites_V2.0.0/GD32F30x_Demo_Suites_V2.0.0/GD32F30x_Firmware_Library/CMSIS/GD/GD32F30x/Source\system_gd32f30x.c ****     /* LDO output voltage high mode */
 448:C:/Users/49542/Desktop/GD32F30x_Demo_Suites_V2.0.0/GD32F30x_Demo_Suites_V2.0.0/GD32F30x_Firmware_Library/CMSIS/GD/GD32F30x/Source\system_gd32f30x.c ****     RCU_APB1EN |= RCU_APB1EN_PMUEN;
 449:C:/Users/49542/Desktop/GD32F30x_Demo_Suites_V2.0.0/GD32F30x_Demo_Suites_V2.0.0/GD32F30x_Firmware_Library/CMSIS/GD/GD32F30x/Source\system_gd32f30x.c ****     PMU_CTL |= PMU_CTL_LDOVS;
 450:C:/Users/49542/Desktop/GD32F30x_Demo_Suites_V2.0.0/GD32F30x_Demo_Suites_V2.0.0/GD32F30x_Firmware_Library/CMSIS/GD/GD32F30x/Source\system_gd32f30x.c **** 
 451:C:/Users/49542/Desktop/GD32F30x_Demo_Suites_V2.0.0/GD32F30x_Demo_Suites_V2.0.0/GD32F30x_Firmware_Library/CMSIS/GD/GD32F30x/Source\system_gd32f30x.c ****     /* IRC8M is stable */
 452:C:/Users/49542/Desktop/GD32F30x_Demo_Suites_V2.0.0/GD32F30x_Demo_Suites_V2.0.0/GD32F30x_Firmware_Library/CMSIS/GD/GD32F30x/Source\system_gd32f30x.c ****     /* AHB = SYSCLK */
 453:C:/Users/49542/Desktop/GD32F30x_Demo_Suites_V2.0.0/GD32F30x_Demo_Suites_V2.0.0/GD32F30x_Firmware_Library/CMSIS/GD/GD32F30x/Source\system_gd32f30x.c ****     RCU_CFG0 |= RCU_AHB_CKSYS_DIV1;
 454:C:/Users/49542/Desktop/GD32F30x_Demo_Suites_V2.0.0/GD32F30x_Demo_Suites_V2.0.0/GD32F30x_Firmware_Library/CMSIS/GD/GD32F30x/Source\system_gd32f30x.c ****     /* APB2 = AHB/1 */
 455:C:/Users/49542/Desktop/GD32F30x_Demo_Suites_V2.0.0/GD32F30x_Demo_Suites_V2.0.0/GD32F30x_Firmware_Library/CMSIS/GD/GD32F30x/Source\system_gd32f30x.c ****     RCU_CFG0 |= RCU_APB2_CKAHB_DIV1;
 456:C:/Users/49542/Desktop/GD32F30x_Demo_Suites_V2.0.0/GD32F30x_Demo_Suites_V2.0.0/GD32F30x_Firmware_Library/CMSIS/GD/GD32F30x/Source\system_gd32f30x.c ****     /* APB1 = AHB/2 */
 457:C:/Users/49542/Desktop/GD32F30x_Demo_Suites_V2.0.0/GD32F30x_Demo_Suites_V2.0.0/GD32F30x_Firmware_Library/CMSIS/GD/GD32F30x/Source\system_gd32f30x.c ****     RCU_CFG0 |= RCU_APB1_CKAHB_DIV2;
 458:C:/Users/49542/Desktop/GD32F30x_Demo_Suites_V2.0.0/GD32F30x_Demo_Suites_V2.0.0/GD32F30x_Firmware_Library/CMSIS/GD/GD32F30x/Source\system_gd32f30x.c **** 
 459:C:/Users/49542/Desktop/GD32F30x_Demo_Suites_V2.0.0/GD32F30x_Demo_Suites_V2.0.0/GD32F30x_Firmware_Library/CMSIS/GD/GD32F30x/Source\system_gd32f30x.c ****     /* CK_PLL = (CK_IRC8M/2) * 30 = 120 MHz */
 460:C:/Users/49542/Desktop/GD32F30x_Demo_Suites_V2.0.0/GD32F30x_Demo_Suites_V2.0.0/GD32F30x_Firmware_Library/CMSIS/GD/GD32F30x/Source\system_gd32f30x.c ****     RCU_CFG0 &= ~(RCU_CFG0_PLLMF | RCU_CFG0_PLLMF_4 | RCU_CFG0_PLLMF_5);
 461:C:/Users/49542/Desktop/GD32F30x_Demo_Suites_V2.0.0/GD32F30x_Demo_Suites_V2.0.0/GD32F30x_Firmware_Library/CMSIS/GD/GD32F30x/Source\system_gd32f30x.c ****     RCU_CFG0 |= RCU_PLL_MUL30;
 462:C:/Users/49542/Desktop/GD32F30x_Demo_Suites_V2.0.0/GD32F30x_Demo_Suites_V2.0.0/GD32F30x_Firmware_Library/CMSIS/GD/GD32F30x/Source\system_gd32f30x.c **** 
 463:C:/Users/49542/Desktop/GD32F30x_Demo_Suites_V2.0.0/GD32F30x_Demo_Suites_V2.0.0/GD32F30x_Firmware_Library/CMSIS/GD/GD32F30x/Source\system_gd32f30x.c ****     /* enable PLL */
 464:C:/Users/49542/Desktop/GD32F30x_Demo_Suites_V2.0.0/GD32F30x_Demo_Suites_V2.0.0/GD32F30x_Firmware_Library/CMSIS/GD/GD32F30x/Source\system_gd32f30x.c ****     RCU_CTL |= RCU_CTL_PLLEN;
 465:C:/Users/49542/Desktop/GD32F30x_Demo_Suites_V2.0.0/GD32F30x_Demo_Suites_V2.0.0/GD32F30x_Firmware_Library/CMSIS/GD/GD32F30x/Source\system_gd32f30x.c **** 
 466:C:/Users/49542/Desktop/GD32F30x_Demo_Suites_V2.0.0/GD32F30x_Demo_Suites_V2.0.0/GD32F30x_Firmware_Library/CMSIS/GD/GD32F30x/Source\system_gd32f30x.c ****     /* wait until PLL is stable */
 467:C:/Users/49542/Desktop/GD32F30x_Demo_Suites_V2.0.0/GD32F30x_Demo_Suites_V2.0.0/GD32F30x_Firmware_Library/CMSIS/GD/GD32F30x/Source\system_gd32f30x.c ****     while(0U == (RCU_CTL & RCU_CTL_PLLSTB)){
 468:C:/Users/49542/Desktop/GD32F30x_Demo_Suites_V2.0.0/GD32F30x_Demo_Suites_V2.0.0/GD32F30x_Firmware_Library/CMSIS/GD/GD32F30x/Source\system_gd32f30x.c ****     }
 469:C:/Users/49542/Desktop/GD32F30x_Demo_Suites_V2.0.0/GD32F30x_Demo_Suites_V2.0.0/GD32F30x_Firmware_Library/CMSIS/GD/GD32F30x/Source\system_gd32f30x.c ****     
 470:C:/Users/49542/Desktop/GD32F30x_Demo_Suites_V2.0.0/GD32F30x_Demo_Suites_V2.0.0/GD32F30x_Firmware_Library/CMSIS/GD/GD32F30x/Source\system_gd32f30x.c ****     /* enable the high-drive to extend the clock frequency to 120 MHz */
 471:C:/Users/49542/Desktop/GD32F30x_Demo_Suites_V2.0.0/GD32F30x_Demo_Suites_V2.0.0/GD32F30x_Firmware_Library/CMSIS/GD/GD32F30x/Source\system_gd32f30x.c ****     PMU_CTL |= PMU_CTL_HDEN;
 472:C:/Users/49542/Desktop/GD32F30x_Demo_Suites_V2.0.0/GD32F30x_Demo_Suites_V2.0.0/GD32F30x_Firmware_Library/CMSIS/GD/GD32F30x/Source\system_gd32f30x.c ****     while(0U == (PMU_CS & PMU_CS_HDRF)){
 473:C:/Users/49542/Desktop/GD32F30x_Demo_Suites_V2.0.0/GD32F30x_Demo_Suites_V2.0.0/GD32F30x_Firmware_Library/CMSIS/GD/GD32F30x/Source\system_gd32f30x.c ****     }
 474:C:/Users/49542/Desktop/GD32F30x_Demo_Suites_V2.0.0/GD32F30x_Demo_Suites_V2.0.0/GD32F30x_Firmware_Library/CMSIS/GD/GD32F30x/Source\system_gd32f30x.c ****     
 475:C:/Users/49542/Desktop/GD32F30x_Demo_Suites_V2.0.0/GD32F30x_Demo_Suites_V2.0.0/GD32F30x_Firmware_Library/CMSIS/GD/GD32F30x/Source\system_gd32f30x.c ****     /* select the high-drive mode */
 476:C:/Users/49542/Desktop/GD32F30x_Demo_Suites_V2.0.0/GD32F30x_Demo_Suites_V2.0.0/GD32F30x_Firmware_Library/CMSIS/GD/GD32F30x/Source\system_gd32f30x.c ****     PMU_CTL |= PMU_CTL_HDS;
 477:C:/Users/49542/Desktop/GD32F30x_Demo_Suites_V2.0.0/GD32F30x_Demo_Suites_V2.0.0/GD32F30x_Firmware_Library/CMSIS/GD/GD32F30x/Source\system_gd32f30x.c ****     while(0U == (PMU_CS & PMU_CS_HDSRF)){
 478:C:/Users/49542/Desktop/GD32F30x_Demo_Suites_V2.0.0/GD32F30x_Demo_Suites_V2.0.0/GD32F30x_Firmware_Library/CMSIS/GD/GD32F30x/Source\system_gd32f30x.c ****     }
 479:C:/Users/49542/Desktop/GD32F30x_Demo_Suites_V2.0.0/GD32F30x_Demo_Suites_V2.0.0/GD32F30x_Firmware_Library/CMSIS/GD/GD32F30x/Source\system_gd32f30x.c ****     
 480:C:/Users/49542/Desktop/GD32F30x_Demo_Suites_V2.0.0/GD32F30x_Demo_Suites_V2.0.0/GD32F30x_Firmware_Library/CMSIS/GD/GD32F30x/Source\system_gd32f30x.c ****     /* select PLL as system clock */
 481:C:/Users/49542/Desktop/GD32F30x_Demo_Suites_V2.0.0/GD32F30x_Demo_Suites_V2.0.0/GD32F30x_Firmware_Library/CMSIS/GD/GD32F30x/Source\system_gd32f30x.c ****     RCU_CFG0 &= ~RCU_CFG0_SCS;
 482:C:/Users/49542/Desktop/GD32F30x_Demo_Suites_V2.0.0/GD32F30x_Demo_Suites_V2.0.0/GD32F30x_Firmware_Library/CMSIS/GD/GD32F30x/Source\system_gd32f30x.c ****     RCU_CFG0 |= RCU_CKSYSSRC_PLL;
 483:C:/Users/49542/Desktop/GD32F30x_Demo_Suites_V2.0.0/GD32F30x_Demo_Suites_V2.0.0/GD32F30x_Firmware_Library/CMSIS/GD/GD32F30x/Source\system_gd32f30x.c **** 
 484:C:/Users/49542/Desktop/GD32F30x_Demo_Suites_V2.0.0/GD32F30x_Demo_Suites_V2.0.0/GD32F30x_Firmware_Library/CMSIS/GD/GD32F30x/Source\system_gd32f30x.c ****     /* wait until PLL is selected as system clock */
 485:C:/Users/49542/Desktop/GD32F30x_Demo_Suites_V2.0.0/GD32F30x_Demo_Suites_V2.0.0/GD32F30x_Firmware_Library/CMSIS/GD/GD32F30x/Source\system_gd32f30x.c ****     while(0U == (RCU_CFG0 & RCU_SCSS_PLL)){
 486:C:/Users/49542/Desktop/GD32F30x_Demo_Suites_V2.0.0/GD32F30x_Demo_Suites_V2.0.0/GD32F30x_Firmware_Library/CMSIS/GD/GD32F30x/Source\system_gd32f30x.c ****     }
 487:C:/Users/49542/Desktop/GD32F30x_Demo_Suites_V2.0.0/GD32F30x_Demo_Suites_V2.0.0/GD32F30x_Firmware_Library/CMSIS/GD/GD32F30x/Source\system_gd32f30x.c **** }
 488:C:/Users/49542/Desktop/GD32F30x_Demo_Suites_V2.0.0/GD32F30x_Demo_Suites_V2.0.0/GD32F30x_Firmware_Library/CMSIS/GD/GD32F30x/Source\system_gd32f30x.c **** 
ARM GAS  C:\Users\49542\AppData\Local\Temp\ccCGQ85p.s 			page 10


 489:C:/Users/49542/Desktop/GD32F30x_Demo_Suites_V2.0.0/GD32F30x_Demo_Suites_V2.0.0/GD32F30x_Firmware_Library/CMSIS/GD/GD32F30x/Source\system_gd32f30x.c **** #elif defined (__SYSTEM_CLOCK_HXTAL)
 490:C:/Users/49542/Desktop/GD32F30x_Demo_Suites_V2.0.0/GD32F30x_Demo_Suites_V2.0.0/GD32F30x_Firmware_Library/CMSIS/GD/GD32F30x/Source\system_gd32f30x.c **** /*!
 491:C:/Users/49542/Desktop/GD32F30x_Demo_Suites_V2.0.0/GD32F30x_Demo_Suites_V2.0.0/GD32F30x_Firmware_Library/CMSIS/GD/GD32F30x/Source\system_gd32f30x.c ****     \brief      configure the system clock to HXTAL
 492:C:/Users/49542/Desktop/GD32F30x_Demo_Suites_V2.0.0/GD32F30x_Demo_Suites_V2.0.0/GD32F30x_Firmware_Library/CMSIS/GD/GD32F30x/Source\system_gd32f30x.c ****     \param[in]  none
 493:C:/Users/49542/Desktop/GD32F30x_Demo_Suites_V2.0.0/GD32F30x_Demo_Suites_V2.0.0/GD32F30x_Firmware_Library/CMSIS/GD/GD32F30x/Source\system_gd32f30x.c ****     \param[out] none
 494:C:/Users/49542/Desktop/GD32F30x_Demo_Suites_V2.0.0/GD32F30x_Demo_Suites_V2.0.0/GD32F30x_Firmware_Library/CMSIS/GD/GD32F30x/Source\system_gd32f30x.c ****     \retval     none
 495:C:/Users/49542/Desktop/GD32F30x_Demo_Suites_V2.0.0/GD32F30x_Demo_Suites_V2.0.0/GD32F30x_Firmware_Library/CMSIS/GD/GD32F30x/Source\system_gd32f30x.c **** */
 496:C:/Users/49542/Desktop/GD32F30x_Demo_Suites_V2.0.0/GD32F30x_Demo_Suites_V2.0.0/GD32F30x_Firmware_Library/CMSIS/GD/GD32F30x/Source\system_gd32f30x.c **** static void system_clock_hxtal(void)
 497:C:/Users/49542/Desktop/GD32F30x_Demo_Suites_V2.0.0/GD32F30x_Demo_Suites_V2.0.0/GD32F30x_Firmware_Library/CMSIS/GD/GD32F30x/Source\system_gd32f30x.c **** {
 498:C:/Users/49542/Desktop/GD32F30x_Demo_Suites_V2.0.0/GD32F30x_Demo_Suites_V2.0.0/GD32F30x_Firmware_Library/CMSIS/GD/GD32F30x/Source\system_gd32f30x.c ****     uint32_t timeout = 0U;
 499:C:/Users/49542/Desktop/GD32F30x_Demo_Suites_V2.0.0/GD32F30x_Demo_Suites_V2.0.0/GD32F30x_Firmware_Library/CMSIS/GD/GD32F30x/Source\system_gd32f30x.c ****     uint32_t stab_flag = 0U;
 500:C:/Users/49542/Desktop/GD32F30x_Demo_Suites_V2.0.0/GD32F30x_Demo_Suites_V2.0.0/GD32F30x_Firmware_Library/CMSIS/GD/GD32F30x/Source\system_gd32f30x.c ****     
 501:C:/Users/49542/Desktop/GD32F30x_Demo_Suites_V2.0.0/GD32F30x_Demo_Suites_V2.0.0/GD32F30x_Firmware_Library/CMSIS/GD/GD32F30x/Source\system_gd32f30x.c ****     /* enable HXTAL */
 502:C:/Users/49542/Desktop/GD32F30x_Demo_Suites_V2.0.0/GD32F30x_Demo_Suites_V2.0.0/GD32F30x_Firmware_Library/CMSIS/GD/GD32F30x/Source\system_gd32f30x.c ****     RCU_CTL |= RCU_CTL_HXTALEN;
 503:C:/Users/49542/Desktop/GD32F30x_Demo_Suites_V2.0.0/GD32F30x_Demo_Suites_V2.0.0/GD32F30x_Firmware_Library/CMSIS/GD/GD32F30x/Source\system_gd32f30x.c ****     
 504:C:/Users/49542/Desktop/GD32F30x_Demo_Suites_V2.0.0/GD32F30x_Demo_Suites_V2.0.0/GD32F30x_Firmware_Library/CMSIS/GD/GD32F30x/Source\system_gd32f30x.c ****     /* wait until HXTAL is stable or the startup time is longer than HXTAL_STARTUP_TIMEOUT */
 505:C:/Users/49542/Desktop/GD32F30x_Demo_Suites_V2.0.0/GD32F30x_Demo_Suites_V2.0.0/GD32F30x_Firmware_Library/CMSIS/GD/GD32F30x/Source\system_gd32f30x.c ****     do{
 506:C:/Users/49542/Desktop/GD32F30x_Demo_Suites_V2.0.0/GD32F30x_Demo_Suites_V2.0.0/GD32F30x_Firmware_Library/CMSIS/GD/GD32F30x/Source\system_gd32f30x.c ****         timeout++;
 507:C:/Users/49542/Desktop/GD32F30x_Demo_Suites_V2.0.0/GD32F30x_Demo_Suites_V2.0.0/GD32F30x_Firmware_Library/CMSIS/GD/GD32F30x/Source\system_gd32f30x.c ****         stab_flag = (RCU_CTL & RCU_CTL_HXTALSTB);
 508:C:/Users/49542/Desktop/GD32F30x_Demo_Suites_V2.0.0/GD32F30x_Demo_Suites_V2.0.0/GD32F30x_Firmware_Library/CMSIS/GD/GD32F30x/Source\system_gd32f30x.c ****     }while((0U == stab_flag) && (HXTAL_STARTUP_TIMEOUT != timeout));
 509:C:/Users/49542/Desktop/GD32F30x_Demo_Suites_V2.0.0/GD32F30x_Demo_Suites_V2.0.0/GD32F30x_Firmware_Library/CMSIS/GD/GD32F30x/Source\system_gd32f30x.c ****     
 510:C:/Users/49542/Desktop/GD32F30x_Demo_Suites_V2.0.0/GD32F30x_Demo_Suites_V2.0.0/GD32F30x_Firmware_Library/CMSIS/GD/GD32F30x/Source\system_gd32f30x.c ****     /* if fail */
 511:C:/Users/49542/Desktop/GD32F30x_Demo_Suites_V2.0.0/GD32F30x_Demo_Suites_V2.0.0/GD32F30x_Firmware_Library/CMSIS/GD/GD32F30x/Source\system_gd32f30x.c ****     if(0U == (RCU_CTL & RCU_CTL_HXTALSTB)){
 512:C:/Users/49542/Desktop/GD32F30x_Demo_Suites_V2.0.0/GD32F30x_Demo_Suites_V2.0.0/GD32F30x_Firmware_Library/CMSIS/GD/GD32F30x/Source\system_gd32f30x.c ****         while(1){
 513:C:/Users/49542/Desktop/GD32F30x_Demo_Suites_V2.0.0/GD32F30x_Demo_Suites_V2.0.0/GD32F30x_Firmware_Library/CMSIS/GD/GD32F30x/Source\system_gd32f30x.c ****         }
 514:C:/Users/49542/Desktop/GD32F30x_Demo_Suites_V2.0.0/GD32F30x_Demo_Suites_V2.0.0/GD32F30x_Firmware_Library/CMSIS/GD/GD32F30x/Source\system_gd32f30x.c ****     }
 515:C:/Users/49542/Desktop/GD32F30x_Demo_Suites_V2.0.0/GD32F30x_Demo_Suites_V2.0.0/GD32F30x_Firmware_Library/CMSIS/GD/GD32F30x/Source\system_gd32f30x.c ****     
 516:C:/Users/49542/Desktop/GD32F30x_Demo_Suites_V2.0.0/GD32F30x_Demo_Suites_V2.0.0/GD32F30x_Firmware_Library/CMSIS/GD/GD32F30x/Source\system_gd32f30x.c ****     /* AHB = SYSCLK */
 517:C:/Users/49542/Desktop/GD32F30x_Demo_Suites_V2.0.0/GD32F30x_Demo_Suites_V2.0.0/GD32F30x_Firmware_Library/CMSIS/GD/GD32F30x/Source\system_gd32f30x.c ****     RCU_CFG0 |= RCU_AHB_CKSYS_DIV1;
 518:C:/Users/49542/Desktop/GD32F30x_Demo_Suites_V2.0.0/GD32F30x_Demo_Suites_V2.0.0/GD32F30x_Firmware_Library/CMSIS/GD/GD32F30x/Source\system_gd32f30x.c ****     /* APB2 = AHB/1 */
 519:C:/Users/49542/Desktop/GD32F30x_Demo_Suites_V2.0.0/GD32F30x_Demo_Suites_V2.0.0/GD32F30x_Firmware_Library/CMSIS/GD/GD32F30x/Source\system_gd32f30x.c ****     RCU_CFG0 |= RCU_APB2_CKAHB_DIV1;
 520:C:/Users/49542/Desktop/GD32F30x_Demo_Suites_V2.0.0/GD32F30x_Demo_Suites_V2.0.0/GD32F30x_Firmware_Library/CMSIS/GD/GD32F30x/Source\system_gd32f30x.c ****     /* APB1 = AHB/2 */
 521:C:/Users/49542/Desktop/GD32F30x_Demo_Suites_V2.0.0/GD32F30x_Demo_Suites_V2.0.0/GD32F30x_Firmware_Library/CMSIS/GD/GD32F30x/Source\system_gd32f30x.c ****     RCU_CFG0 |= RCU_APB1_CKAHB_DIV2;
 522:C:/Users/49542/Desktop/GD32F30x_Demo_Suites_V2.0.0/GD32F30x_Demo_Suites_V2.0.0/GD32F30x_Firmware_Library/CMSIS/GD/GD32F30x/Source\system_gd32f30x.c ****     
 523:C:/Users/49542/Desktop/GD32F30x_Demo_Suites_V2.0.0/GD32F30x_Demo_Suites_V2.0.0/GD32F30x_Firmware_Library/CMSIS/GD/GD32F30x/Source\system_gd32f30x.c ****     /* select HXTAL as system clock */
 524:C:/Users/49542/Desktop/GD32F30x_Demo_Suites_V2.0.0/GD32F30x_Demo_Suites_V2.0.0/GD32F30x_Firmware_Library/CMSIS/GD/GD32F30x/Source\system_gd32f30x.c ****     RCU_CFG0 &= ~RCU_CFG0_SCS;
 525:C:/Users/49542/Desktop/GD32F30x_Demo_Suites_V2.0.0/GD32F30x_Demo_Suites_V2.0.0/GD32F30x_Firmware_Library/CMSIS/GD/GD32F30x/Source\system_gd32f30x.c ****     RCU_CFG0 |= RCU_CKSYSSRC_HXTAL;
 526:C:/Users/49542/Desktop/GD32F30x_Demo_Suites_V2.0.0/GD32F30x_Demo_Suites_V2.0.0/GD32F30x_Firmware_Library/CMSIS/GD/GD32F30x/Source\system_gd32f30x.c ****     
 527:C:/Users/49542/Desktop/GD32F30x_Demo_Suites_V2.0.0/GD32F30x_Demo_Suites_V2.0.0/GD32F30x_Firmware_Library/CMSIS/GD/GD32F30x/Source\system_gd32f30x.c ****     /* wait until HXTAL is selected as system clock */
 528:C:/Users/49542/Desktop/GD32F30x_Demo_Suites_V2.0.0/GD32F30x_Demo_Suites_V2.0.0/GD32F30x_Firmware_Library/CMSIS/GD/GD32F30x/Source\system_gd32f30x.c ****     while(0 == (RCU_CFG0 & RCU_SCSS_HXTAL)){
 529:C:/Users/49542/Desktop/GD32F30x_Demo_Suites_V2.0.0/GD32F30x_Demo_Suites_V2.0.0/GD32F30x_Firmware_Library/CMSIS/GD/GD32F30x/Source\system_gd32f30x.c ****     }
 530:C:/Users/49542/Desktop/GD32F30x_Demo_Suites_V2.0.0/GD32F30x_Demo_Suites_V2.0.0/GD32F30x_Firmware_Library/CMSIS/GD/GD32F30x/Source\system_gd32f30x.c **** }
 531:C:/Users/49542/Desktop/GD32F30x_Demo_Suites_V2.0.0/GD32F30x_Demo_Suites_V2.0.0/GD32F30x_Firmware_Library/CMSIS/GD/GD32F30x/Source\system_gd32f30x.c **** 
 532:C:/Users/49542/Desktop/GD32F30x_Demo_Suites_V2.0.0/GD32F30x_Demo_Suites_V2.0.0/GD32F30x_Firmware_Library/CMSIS/GD/GD32F30x/Source\system_gd32f30x.c **** #elif defined (__SYSTEM_CLOCK_48M_PLL_HXTAL)
 533:C:/Users/49542/Desktop/GD32F30x_Demo_Suites_V2.0.0/GD32F30x_Demo_Suites_V2.0.0/GD32F30x_Firmware_Library/CMSIS/GD/GD32F30x/Source\system_gd32f30x.c **** /*!
 534:C:/Users/49542/Desktop/GD32F30x_Demo_Suites_V2.0.0/GD32F30x_Demo_Suites_V2.0.0/GD32F30x_Firmware_Library/CMSIS/GD/GD32F30x/Source\system_gd32f30x.c ****     \brief      configure the system clock to 48M by PLL which selects HXTAL(8M) as its clock sourc
 535:C:/Users/49542/Desktop/GD32F30x_Demo_Suites_V2.0.0/GD32F30x_Demo_Suites_V2.0.0/GD32F30x_Firmware_Library/CMSIS/GD/GD32F30x/Source\system_gd32f30x.c ****     \param[in]  none
 536:C:/Users/49542/Desktop/GD32F30x_Demo_Suites_V2.0.0/GD32F30x_Demo_Suites_V2.0.0/GD32F30x_Firmware_Library/CMSIS/GD/GD32F30x/Source\system_gd32f30x.c ****     \param[out] none
 537:C:/Users/49542/Desktop/GD32F30x_Demo_Suites_V2.0.0/GD32F30x_Demo_Suites_V2.0.0/GD32F30x_Firmware_Library/CMSIS/GD/GD32F30x/Source\system_gd32f30x.c ****     \retval     none
 538:C:/Users/49542/Desktop/GD32F30x_Demo_Suites_V2.0.0/GD32F30x_Demo_Suites_V2.0.0/GD32F30x_Firmware_Library/CMSIS/GD/GD32F30x/Source\system_gd32f30x.c **** */
 539:C:/Users/49542/Desktop/GD32F30x_Demo_Suites_V2.0.0/GD32F30x_Demo_Suites_V2.0.0/GD32F30x_Firmware_Library/CMSIS/GD/GD32F30x/Source\system_gd32f30x.c **** static void system_clock_48m_hxtal(void)
 540:C:/Users/49542/Desktop/GD32F30x_Demo_Suites_V2.0.0/GD32F30x_Demo_Suites_V2.0.0/GD32F30x_Firmware_Library/CMSIS/GD/GD32F30x/Source\system_gd32f30x.c **** {
 541:C:/Users/49542/Desktop/GD32F30x_Demo_Suites_V2.0.0/GD32F30x_Demo_Suites_V2.0.0/GD32F30x_Firmware_Library/CMSIS/GD/GD32F30x/Source\system_gd32f30x.c ****     uint32_t timeout = 0U;
 542:C:/Users/49542/Desktop/GD32F30x_Demo_Suites_V2.0.0/GD32F30x_Demo_Suites_V2.0.0/GD32F30x_Firmware_Library/CMSIS/GD/GD32F30x/Source\system_gd32f30x.c ****     uint32_t stab_flag = 0U;
 543:C:/Users/49542/Desktop/GD32F30x_Demo_Suites_V2.0.0/GD32F30x_Demo_Suites_V2.0.0/GD32F30x_Firmware_Library/CMSIS/GD/GD32F30x/Source\system_gd32f30x.c **** 
 544:C:/Users/49542/Desktop/GD32F30x_Demo_Suites_V2.0.0/GD32F30x_Demo_Suites_V2.0.0/GD32F30x_Firmware_Library/CMSIS/GD/GD32F30x/Source\system_gd32f30x.c ****     /* enable HXTAL */
 545:C:/Users/49542/Desktop/GD32F30x_Demo_Suites_V2.0.0/GD32F30x_Demo_Suites_V2.0.0/GD32F30x_Firmware_Library/CMSIS/GD/GD32F30x/Source\system_gd32f30x.c ****     RCU_CTL |= RCU_CTL_HXTALEN;
ARM GAS  C:\Users\49542\AppData\Local\Temp\ccCGQ85p.s 			page 11


 546:C:/Users/49542/Desktop/GD32F30x_Demo_Suites_V2.0.0/GD32F30x_Demo_Suites_V2.0.0/GD32F30x_Firmware_Library/CMSIS/GD/GD32F30x/Source\system_gd32f30x.c **** 
 547:C:/Users/49542/Desktop/GD32F30x_Demo_Suites_V2.0.0/GD32F30x_Demo_Suites_V2.0.0/GD32F30x_Firmware_Library/CMSIS/GD/GD32F30x/Source\system_gd32f30x.c ****     /* wait until HXTAL is stable or the startup time is longer than HXTAL_STARTUP_TIMEOUT */
 548:C:/Users/49542/Desktop/GD32F30x_Demo_Suites_V2.0.0/GD32F30x_Demo_Suites_V2.0.0/GD32F30x_Firmware_Library/CMSIS/GD/GD32F30x/Source\system_gd32f30x.c ****     do{
 549:C:/Users/49542/Desktop/GD32F30x_Demo_Suites_V2.0.0/GD32F30x_Demo_Suites_V2.0.0/GD32F30x_Firmware_Library/CMSIS/GD/GD32F30x/Source\system_gd32f30x.c ****         timeout++;
 550:C:/Users/49542/Desktop/GD32F30x_Demo_Suites_V2.0.0/GD32F30x_Demo_Suites_V2.0.0/GD32F30x_Firmware_Library/CMSIS/GD/GD32F30x/Source\system_gd32f30x.c ****         stab_flag = (RCU_CTL & RCU_CTL_HXTALSTB);
 551:C:/Users/49542/Desktop/GD32F30x_Demo_Suites_V2.0.0/GD32F30x_Demo_Suites_V2.0.0/GD32F30x_Firmware_Library/CMSIS/GD/GD32F30x/Source\system_gd32f30x.c ****     }while((0U == stab_flag) && (HXTAL_STARTUP_TIMEOUT != timeout));
 552:C:/Users/49542/Desktop/GD32F30x_Demo_Suites_V2.0.0/GD32F30x_Demo_Suites_V2.0.0/GD32F30x_Firmware_Library/CMSIS/GD/GD32F30x/Source\system_gd32f30x.c **** 
 553:C:/Users/49542/Desktop/GD32F30x_Demo_Suites_V2.0.0/GD32F30x_Demo_Suites_V2.0.0/GD32F30x_Firmware_Library/CMSIS/GD/GD32F30x/Source\system_gd32f30x.c ****     /* if fail */
 554:C:/Users/49542/Desktop/GD32F30x_Demo_Suites_V2.0.0/GD32F30x_Demo_Suites_V2.0.0/GD32F30x_Firmware_Library/CMSIS/GD/GD32F30x/Source\system_gd32f30x.c ****     if(0U == (RCU_CTL & RCU_CTL_HXTALSTB)){
 555:C:/Users/49542/Desktop/GD32F30x_Demo_Suites_V2.0.0/GD32F30x_Demo_Suites_V2.0.0/GD32F30x_Firmware_Library/CMSIS/GD/GD32F30x/Source\system_gd32f30x.c ****         while(1){
 556:C:/Users/49542/Desktop/GD32F30x_Demo_Suites_V2.0.0/GD32F30x_Demo_Suites_V2.0.0/GD32F30x_Firmware_Library/CMSIS/GD/GD32F30x/Source\system_gd32f30x.c ****         }
 557:C:/Users/49542/Desktop/GD32F30x_Demo_Suites_V2.0.0/GD32F30x_Demo_Suites_V2.0.0/GD32F30x_Firmware_Library/CMSIS/GD/GD32F30x/Source\system_gd32f30x.c ****     }
 558:C:/Users/49542/Desktop/GD32F30x_Demo_Suites_V2.0.0/GD32F30x_Demo_Suites_V2.0.0/GD32F30x_Firmware_Library/CMSIS/GD/GD32F30x/Source\system_gd32f30x.c **** 
 559:C:/Users/49542/Desktop/GD32F30x_Demo_Suites_V2.0.0/GD32F30x_Demo_Suites_V2.0.0/GD32F30x_Firmware_Library/CMSIS/GD/GD32F30x/Source\system_gd32f30x.c ****     RCU_APB1EN |= RCU_APB1EN_PMUEN;
 560:C:/Users/49542/Desktop/GD32F30x_Demo_Suites_V2.0.0/GD32F30x_Demo_Suites_V2.0.0/GD32F30x_Firmware_Library/CMSIS/GD/GD32F30x/Source\system_gd32f30x.c ****     PMU_CTL |= PMU_CTL_LDOVS;
 561:C:/Users/49542/Desktop/GD32F30x_Demo_Suites_V2.0.0/GD32F30x_Demo_Suites_V2.0.0/GD32F30x_Firmware_Library/CMSIS/GD/GD32F30x/Source\system_gd32f30x.c **** 
 562:C:/Users/49542/Desktop/GD32F30x_Demo_Suites_V2.0.0/GD32F30x_Demo_Suites_V2.0.0/GD32F30x_Firmware_Library/CMSIS/GD/GD32F30x/Source\system_gd32f30x.c ****     /* HXTAL is stable */
 563:C:/Users/49542/Desktop/GD32F30x_Demo_Suites_V2.0.0/GD32F30x_Demo_Suites_V2.0.0/GD32F30x_Firmware_Library/CMSIS/GD/GD32F30x/Source\system_gd32f30x.c ****     /* AHB = SYSCLK */
 564:C:/Users/49542/Desktop/GD32F30x_Demo_Suites_V2.0.0/GD32F30x_Demo_Suites_V2.0.0/GD32F30x_Firmware_Library/CMSIS/GD/GD32F30x/Source\system_gd32f30x.c ****     RCU_CFG0 |= RCU_AHB_CKSYS_DIV1;
 565:C:/Users/49542/Desktop/GD32F30x_Demo_Suites_V2.0.0/GD32F30x_Demo_Suites_V2.0.0/GD32F30x_Firmware_Library/CMSIS/GD/GD32F30x/Source\system_gd32f30x.c ****     /* APB2 = AHB/1 */
 566:C:/Users/49542/Desktop/GD32F30x_Demo_Suites_V2.0.0/GD32F30x_Demo_Suites_V2.0.0/GD32F30x_Firmware_Library/CMSIS/GD/GD32F30x/Source\system_gd32f30x.c ****     RCU_CFG0 |= RCU_APB2_CKAHB_DIV1;
 567:C:/Users/49542/Desktop/GD32F30x_Demo_Suites_V2.0.0/GD32F30x_Demo_Suites_V2.0.0/GD32F30x_Firmware_Library/CMSIS/GD/GD32F30x/Source\system_gd32f30x.c ****     /* APB1 = AHB/2 */
 568:C:/Users/49542/Desktop/GD32F30x_Demo_Suites_V2.0.0/GD32F30x_Demo_Suites_V2.0.0/GD32F30x_Firmware_Library/CMSIS/GD/GD32F30x/Source\system_gd32f30x.c ****     RCU_CFG0 |= RCU_APB1_CKAHB_DIV2;
 569:C:/Users/49542/Desktop/GD32F30x_Demo_Suites_V2.0.0/GD32F30x_Demo_Suites_V2.0.0/GD32F30x_Firmware_Library/CMSIS/GD/GD32F30x/Source\system_gd32f30x.c **** 
 570:C:/Users/49542/Desktop/GD32F30x_Demo_Suites_V2.0.0/GD32F30x_Demo_Suites_V2.0.0/GD32F30x_Firmware_Library/CMSIS/GD/GD32F30x/Source\system_gd32f30x.c **** #if (defined(GD32F30X_HD) || defined(GD32F30X_XD))
 571:C:/Users/49542/Desktop/GD32F30x_Demo_Suites_V2.0.0/GD32F30x_Demo_Suites_V2.0.0/GD32F30x_Firmware_Library/CMSIS/GD/GD32F30x/Source\system_gd32f30x.c ****     /* select HXTAL/2 as clock source */
 572:C:/Users/49542/Desktop/GD32F30x_Demo_Suites_V2.0.0/GD32F30x_Demo_Suites_V2.0.0/GD32F30x_Firmware_Library/CMSIS/GD/GD32F30x/Source\system_gd32f30x.c ****     RCU_CFG0 &= ~(RCU_CFG0_PLLSEL | RCU_CFG0_PREDV0);
 573:C:/Users/49542/Desktop/GD32F30x_Demo_Suites_V2.0.0/GD32F30x_Demo_Suites_V2.0.0/GD32F30x_Firmware_Library/CMSIS/GD/GD32F30x/Source\system_gd32f30x.c ****     RCU_CFG0 |= (RCU_PLLSRC_HXTAL_IRC48M | RCU_CFG0_PREDV0);
 574:C:/Users/49542/Desktop/GD32F30x_Demo_Suites_V2.0.0/GD32F30x_Demo_Suites_V2.0.0/GD32F30x_Firmware_Library/CMSIS/GD/GD32F30x/Source\system_gd32f30x.c **** 
 575:C:/Users/49542/Desktop/GD32F30x_Demo_Suites_V2.0.0/GD32F30x_Demo_Suites_V2.0.0/GD32F30x_Firmware_Library/CMSIS/GD/GD32F30x/Source\system_gd32f30x.c ****     /* CK_PLL = (CK_HXTAL/2) * 12 = 48 MHz */
 576:C:/Users/49542/Desktop/GD32F30x_Demo_Suites_V2.0.0/GD32F30x_Demo_Suites_V2.0.0/GD32F30x_Firmware_Library/CMSIS/GD/GD32F30x/Source\system_gd32f30x.c ****     RCU_CFG0 &= ~(RCU_CFG0_PLLMF | RCU_CFG0_PLLMF_4 | RCU_CFG0_PLLMF_5);
 577:C:/Users/49542/Desktop/GD32F30x_Demo_Suites_V2.0.0/GD32F30x_Demo_Suites_V2.0.0/GD32F30x_Firmware_Library/CMSIS/GD/GD32F30x/Source\system_gd32f30x.c ****     RCU_CFG0 |= RCU_PLL_MUL12;
 578:C:/Users/49542/Desktop/GD32F30x_Demo_Suites_V2.0.0/GD32F30x_Demo_Suites_V2.0.0/GD32F30x_Firmware_Library/CMSIS/GD/GD32F30x/Source\system_gd32f30x.c **** 
 579:C:/Users/49542/Desktop/GD32F30x_Demo_Suites_V2.0.0/GD32F30x_Demo_Suites_V2.0.0/GD32F30x_Firmware_Library/CMSIS/GD/GD32F30x/Source\system_gd32f30x.c **** #elif defined(GD32F30X_CL)
 580:C:/Users/49542/Desktop/GD32F30x_Demo_Suites_V2.0.0/GD32F30x_Demo_Suites_V2.0.0/GD32F30x_Firmware_Library/CMSIS/GD/GD32F30x/Source\system_gd32f30x.c ****     /* CK_PLL = (CK_PREDIV0) * 12 = 48 MHz */ 
 581:C:/Users/49542/Desktop/GD32F30x_Demo_Suites_V2.0.0/GD32F30x_Demo_Suites_V2.0.0/GD32F30x_Firmware_Library/CMSIS/GD/GD32F30x/Source\system_gd32f30x.c ****     RCU_CFG0 &= ~(RCU_CFG0_PLLMF | RCU_CFG0_PLLMF_4 | RCU_CFG0_PLLMF_5);
 582:C:/Users/49542/Desktop/GD32F30x_Demo_Suites_V2.0.0/GD32F30x_Demo_Suites_V2.0.0/GD32F30x_Firmware_Library/CMSIS/GD/GD32F30x/Source\system_gd32f30x.c ****     RCU_CFG0 |= (RCU_PLLSRC_HXTAL_IRC48M | RCU_PLL_MUL12);
 583:C:/Users/49542/Desktop/GD32F30x_Demo_Suites_V2.0.0/GD32F30x_Demo_Suites_V2.0.0/GD32F30x_Firmware_Library/CMSIS/GD/GD32F30x/Source\system_gd32f30x.c **** 
 584:C:/Users/49542/Desktop/GD32F30x_Demo_Suites_V2.0.0/GD32F30x_Demo_Suites_V2.0.0/GD32F30x_Firmware_Library/CMSIS/GD/GD32F30x/Source\system_gd32f30x.c ****     /* CK_PREDIV0 = (CK_HXTAL)/5 *8 /10 = 4 MHz */ 
 585:C:/Users/49542/Desktop/GD32F30x_Demo_Suites_V2.0.0/GD32F30x_Demo_Suites_V2.0.0/GD32F30x_Firmware_Library/CMSIS/GD/GD32F30x/Source\system_gd32f30x.c ****     RCU_CFG1 &= ~(RCU_CFG1_PLLPRESEL | RCU_CFG1_PREDV0SEL | RCU_CFG1_PLL1MF | RCU_CFG1_PREDV1 | RCU
 586:C:/Users/49542/Desktop/GD32F30x_Demo_Suites_V2.0.0/GD32F30x_Demo_Suites_V2.0.0/GD32F30x_Firmware_Library/CMSIS/GD/GD32F30x/Source\system_gd32f30x.c ****     RCU_CFG1 |= (RCU_PLLPRESRC_HXTAL | RCU_PREDV0SRC_CKPLL1 | RCU_PLL1_MUL8 | RCU_PREDV1_DIV5 | RCU
 587:C:/Users/49542/Desktop/GD32F30x_Demo_Suites_V2.0.0/GD32F30x_Demo_Suites_V2.0.0/GD32F30x_Firmware_Library/CMSIS/GD/GD32F30x/Source\system_gd32f30x.c **** 
 588:C:/Users/49542/Desktop/GD32F30x_Demo_Suites_V2.0.0/GD32F30x_Demo_Suites_V2.0.0/GD32F30x_Firmware_Library/CMSIS/GD/GD32F30x/Source\system_gd32f30x.c ****     /* enable PLL1 */
 589:C:/Users/49542/Desktop/GD32F30x_Demo_Suites_V2.0.0/GD32F30x_Demo_Suites_V2.0.0/GD32F30x_Firmware_Library/CMSIS/GD/GD32F30x/Source\system_gd32f30x.c ****     RCU_CTL |= RCU_CTL_PLL1EN;
 590:C:/Users/49542/Desktop/GD32F30x_Demo_Suites_V2.0.0/GD32F30x_Demo_Suites_V2.0.0/GD32F30x_Firmware_Library/CMSIS/GD/GD32F30x/Source\system_gd32f30x.c ****     /* wait till PLL1 is ready */
 591:C:/Users/49542/Desktop/GD32F30x_Demo_Suites_V2.0.0/GD32F30x_Demo_Suites_V2.0.0/GD32F30x_Firmware_Library/CMSIS/GD/GD32F30x/Source\system_gd32f30x.c ****     while((RCU_CTL & RCU_CTL_PLL1STB) == 0){
 592:C:/Users/49542/Desktop/GD32F30x_Demo_Suites_V2.0.0/GD32F30x_Demo_Suites_V2.0.0/GD32F30x_Firmware_Library/CMSIS/GD/GD32F30x/Source\system_gd32f30x.c ****     }
 593:C:/Users/49542/Desktop/GD32F30x_Demo_Suites_V2.0.0/GD32F30x_Demo_Suites_V2.0.0/GD32F30x_Firmware_Library/CMSIS/GD/GD32F30x/Source\system_gd32f30x.c **** #endif /* GD32F30X_HD and GD32F30X_XD */
 594:C:/Users/49542/Desktop/GD32F30x_Demo_Suites_V2.0.0/GD32F30x_Demo_Suites_V2.0.0/GD32F30x_Firmware_Library/CMSIS/GD/GD32F30x/Source\system_gd32f30x.c **** 
 595:C:/Users/49542/Desktop/GD32F30x_Demo_Suites_V2.0.0/GD32F30x_Demo_Suites_V2.0.0/GD32F30x_Firmware_Library/CMSIS/GD/GD32F30x/Source\system_gd32f30x.c ****     /* enable PLL */
 596:C:/Users/49542/Desktop/GD32F30x_Demo_Suites_V2.0.0/GD32F30x_Demo_Suites_V2.0.0/GD32F30x_Firmware_Library/CMSIS/GD/GD32F30x/Source\system_gd32f30x.c ****     RCU_CTL |= RCU_CTL_PLLEN;
 597:C:/Users/49542/Desktop/GD32F30x_Demo_Suites_V2.0.0/GD32F30x_Demo_Suites_V2.0.0/GD32F30x_Firmware_Library/CMSIS/GD/GD32F30x/Source\system_gd32f30x.c **** 
 598:C:/Users/49542/Desktop/GD32F30x_Demo_Suites_V2.0.0/GD32F30x_Demo_Suites_V2.0.0/GD32F30x_Firmware_Library/CMSIS/GD/GD32F30x/Source\system_gd32f30x.c ****     /* wait until PLL is stable */
 599:C:/Users/49542/Desktop/GD32F30x_Demo_Suites_V2.0.0/GD32F30x_Demo_Suites_V2.0.0/GD32F30x_Firmware_Library/CMSIS/GD/GD32F30x/Source\system_gd32f30x.c ****     while(0U == (RCU_CTL & RCU_CTL_PLLSTB)){
 600:C:/Users/49542/Desktop/GD32F30x_Demo_Suites_V2.0.0/GD32F30x_Demo_Suites_V2.0.0/GD32F30x_Firmware_Library/CMSIS/GD/GD32F30x/Source\system_gd32f30x.c ****     }
 601:C:/Users/49542/Desktop/GD32F30x_Demo_Suites_V2.0.0/GD32F30x_Demo_Suites_V2.0.0/GD32F30x_Firmware_Library/CMSIS/GD/GD32F30x/Source\system_gd32f30x.c **** 
 602:C:/Users/49542/Desktop/GD32F30x_Demo_Suites_V2.0.0/GD32F30x_Demo_Suites_V2.0.0/GD32F30x_Firmware_Library/CMSIS/GD/GD32F30x/Source\system_gd32f30x.c ****     /* enable the high-drive to extend the clock frequency to 120 MHz */
ARM GAS  C:\Users\49542\AppData\Local\Temp\ccCGQ85p.s 			page 12


 603:C:/Users/49542/Desktop/GD32F30x_Demo_Suites_V2.0.0/GD32F30x_Demo_Suites_V2.0.0/GD32F30x_Firmware_Library/CMSIS/GD/GD32F30x/Source\system_gd32f30x.c ****     PMU_CTL |= PMU_CTL_HDEN;
 604:C:/Users/49542/Desktop/GD32F30x_Demo_Suites_V2.0.0/GD32F30x_Demo_Suites_V2.0.0/GD32F30x_Firmware_Library/CMSIS/GD/GD32F30x/Source\system_gd32f30x.c ****     while(0U == (PMU_CS & PMU_CS_HDRF)){
 605:C:/Users/49542/Desktop/GD32F30x_Demo_Suites_V2.0.0/GD32F30x_Demo_Suites_V2.0.0/GD32F30x_Firmware_Library/CMSIS/GD/GD32F30x/Source\system_gd32f30x.c ****     }
 606:C:/Users/49542/Desktop/GD32F30x_Demo_Suites_V2.0.0/GD32F30x_Demo_Suites_V2.0.0/GD32F30x_Firmware_Library/CMSIS/GD/GD32F30x/Source\system_gd32f30x.c **** 
 607:C:/Users/49542/Desktop/GD32F30x_Demo_Suites_V2.0.0/GD32F30x_Demo_Suites_V2.0.0/GD32F30x_Firmware_Library/CMSIS/GD/GD32F30x/Source\system_gd32f30x.c ****     /* select the high-drive mode */
 608:C:/Users/49542/Desktop/GD32F30x_Demo_Suites_V2.0.0/GD32F30x_Demo_Suites_V2.0.0/GD32F30x_Firmware_Library/CMSIS/GD/GD32F30x/Source\system_gd32f30x.c ****     PMU_CTL |= PMU_CTL_HDS;
 609:C:/Users/49542/Desktop/GD32F30x_Demo_Suites_V2.0.0/GD32F30x_Demo_Suites_V2.0.0/GD32F30x_Firmware_Library/CMSIS/GD/GD32F30x/Source\system_gd32f30x.c ****     while(0U == (PMU_CS & PMU_CS_HDSRF)){
 610:C:/Users/49542/Desktop/GD32F30x_Demo_Suites_V2.0.0/GD32F30x_Demo_Suites_V2.0.0/GD32F30x_Firmware_Library/CMSIS/GD/GD32F30x/Source\system_gd32f30x.c ****     }
 611:C:/Users/49542/Desktop/GD32F30x_Demo_Suites_V2.0.0/GD32F30x_Demo_Suites_V2.0.0/GD32F30x_Firmware_Library/CMSIS/GD/GD32F30x/Source\system_gd32f30x.c **** 
 612:C:/Users/49542/Desktop/GD32F30x_Demo_Suites_V2.0.0/GD32F30x_Demo_Suites_V2.0.0/GD32F30x_Firmware_Library/CMSIS/GD/GD32F30x/Source\system_gd32f30x.c ****     /* select PLL as system clock */
 613:C:/Users/49542/Desktop/GD32F30x_Demo_Suites_V2.0.0/GD32F30x_Demo_Suites_V2.0.0/GD32F30x_Firmware_Library/CMSIS/GD/GD32F30x/Source\system_gd32f30x.c ****     RCU_CFG0 &= ~RCU_CFG0_SCS;
 614:C:/Users/49542/Desktop/GD32F30x_Demo_Suites_V2.0.0/GD32F30x_Demo_Suites_V2.0.0/GD32F30x_Firmware_Library/CMSIS/GD/GD32F30x/Source\system_gd32f30x.c ****     RCU_CFG0 |= RCU_CKSYSSRC_PLL;
 615:C:/Users/49542/Desktop/GD32F30x_Demo_Suites_V2.0.0/GD32F30x_Demo_Suites_V2.0.0/GD32F30x_Firmware_Library/CMSIS/GD/GD32F30x/Source\system_gd32f30x.c **** 
 616:C:/Users/49542/Desktop/GD32F30x_Demo_Suites_V2.0.0/GD32F30x_Demo_Suites_V2.0.0/GD32F30x_Firmware_Library/CMSIS/GD/GD32F30x/Source\system_gd32f30x.c ****     /* wait until PLL is selected as system clock */
 617:C:/Users/49542/Desktop/GD32F30x_Demo_Suites_V2.0.0/GD32F30x_Demo_Suites_V2.0.0/GD32F30x_Firmware_Library/CMSIS/GD/GD32F30x/Source\system_gd32f30x.c ****     while(0U == (RCU_CFG0 & RCU_SCSS_PLL)){
 618:C:/Users/49542/Desktop/GD32F30x_Demo_Suites_V2.0.0/GD32F30x_Demo_Suites_V2.0.0/GD32F30x_Firmware_Library/CMSIS/GD/GD32F30x/Source\system_gd32f30x.c ****     }
 619:C:/Users/49542/Desktop/GD32F30x_Demo_Suites_V2.0.0/GD32F30x_Demo_Suites_V2.0.0/GD32F30x_Firmware_Library/CMSIS/GD/GD32F30x/Source\system_gd32f30x.c **** }
 620:C:/Users/49542/Desktop/GD32F30x_Demo_Suites_V2.0.0/GD32F30x_Demo_Suites_V2.0.0/GD32F30x_Firmware_Library/CMSIS/GD/GD32F30x/Source\system_gd32f30x.c **** #elif defined (__SYSTEM_CLOCK_72M_PLL_HXTAL)
 621:C:/Users/49542/Desktop/GD32F30x_Demo_Suites_V2.0.0/GD32F30x_Demo_Suites_V2.0.0/GD32F30x_Firmware_Library/CMSIS/GD/GD32F30x/Source\system_gd32f30x.c **** /*!
 622:C:/Users/49542/Desktop/GD32F30x_Demo_Suites_V2.0.0/GD32F30x_Demo_Suites_V2.0.0/GD32F30x_Firmware_Library/CMSIS/GD/GD32F30x/Source\system_gd32f30x.c ****     \brief      configure the system clock to 72M by PLL which selects HXTAL(8M) as its clock sourc
 623:C:/Users/49542/Desktop/GD32F30x_Demo_Suites_V2.0.0/GD32F30x_Demo_Suites_V2.0.0/GD32F30x_Firmware_Library/CMSIS/GD/GD32F30x/Source\system_gd32f30x.c ****     \param[in]  none
 624:C:/Users/49542/Desktop/GD32F30x_Demo_Suites_V2.0.0/GD32F30x_Demo_Suites_V2.0.0/GD32F30x_Firmware_Library/CMSIS/GD/GD32F30x/Source\system_gd32f30x.c ****     \param[out] none
 625:C:/Users/49542/Desktop/GD32F30x_Demo_Suites_V2.0.0/GD32F30x_Demo_Suites_V2.0.0/GD32F30x_Firmware_Library/CMSIS/GD/GD32F30x/Source\system_gd32f30x.c ****     \retval     none
 626:C:/Users/49542/Desktop/GD32F30x_Demo_Suites_V2.0.0/GD32F30x_Demo_Suites_V2.0.0/GD32F30x_Firmware_Library/CMSIS/GD/GD32F30x/Source\system_gd32f30x.c **** */
 627:C:/Users/49542/Desktop/GD32F30x_Demo_Suites_V2.0.0/GD32F30x_Demo_Suites_V2.0.0/GD32F30x_Firmware_Library/CMSIS/GD/GD32F30x/Source\system_gd32f30x.c **** static void system_clock_72m_hxtal(void)
 628:C:/Users/49542/Desktop/GD32F30x_Demo_Suites_V2.0.0/GD32F30x_Demo_Suites_V2.0.0/GD32F30x_Firmware_Library/CMSIS/GD/GD32F30x/Source\system_gd32f30x.c **** {
 629:C:/Users/49542/Desktop/GD32F30x_Demo_Suites_V2.0.0/GD32F30x_Demo_Suites_V2.0.0/GD32F30x_Firmware_Library/CMSIS/GD/GD32F30x/Source\system_gd32f30x.c ****     uint32_t timeout = 0U;
 630:C:/Users/49542/Desktop/GD32F30x_Demo_Suites_V2.0.0/GD32F30x_Demo_Suites_V2.0.0/GD32F30x_Firmware_Library/CMSIS/GD/GD32F30x/Source\system_gd32f30x.c ****     uint32_t stab_flag = 0U;
 631:C:/Users/49542/Desktop/GD32F30x_Demo_Suites_V2.0.0/GD32F30x_Demo_Suites_V2.0.0/GD32F30x_Firmware_Library/CMSIS/GD/GD32F30x/Source\system_gd32f30x.c **** 
 632:C:/Users/49542/Desktop/GD32F30x_Demo_Suites_V2.0.0/GD32F30x_Demo_Suites_V2.0.0/GD32F30x_Firmware_Library/CMSIS/GD/GD32F30x/Source\system_gd32f30x.c ****     /* enable HXTAL */
 633:C:/Users/49542/Desktop/GD32F30x_Demo_Suites_V2.0.0/GD32F30x_Demo_Suites_V2.0.0/GD32F30x_Firmware_Library/CMSIS/GD/GD32F30x/Source\system_gd32f30x.c ****     RCU_CTL |= RCU_CTL_HXTALEN;
 634:C:/Users/49542/Desktop/GD32F30x_Demo_Suites_V2.0.0/GD32F30x_Demo_Suites_V2.0.0/GD32F30x_Firmware_Library/CMSIS/GD/GD32F30x/Source\system_gd32f30x.c **** 
 635:C:/Users/49542/Desktop/GD32F30x_Demo_Suites_V2.0.0/GD32F30x_Demo_Suites_V2.0.0/GD32F30x_Firmware_Library/CMSIS/GD/GD32F30x/Source\system_gd32f30x.c ****     /* wait until HXTAL is stable or the startup time is longer than HXTAL_STARTUP_TIMEOUT */
 636:C:/Users/49542/Desktop/GD32F30x_Demo_Suites_V2.0.0/GD32F30x_Demo_Suites_V2.0.0/GD32F30x_Firmware_Library/CMSIS/GD/GD32F30x/Source\system_gd32f30x.c ****     do{
 637:C:/Users/49542/Desktop/GD32F30x_Demo_Suites_V2.0.0/GD32F30x_Demo_Suites_V2.0.0/GD32F30x_Firmware_Library/CMSIS/GD/GD32F30x/Source\system_gd32f30x.c ****         timeout++;
 638:C:/Users/49542/Desktop/GD32F30x_Demo_Suites_V2.0.0/GD32F30x_Demo_Suites_V2.0.0/GD32F30x_Firmware_Library/CMSIS/GD/GD32F30x/Source\system_gd32f30x.c ****         stab_flag = (RCU_CTL & RCU_CTL_HXTALSTB);
 639:C:/Users/49542/Desktop/GD32F30x_Demo_Suites_V2.0.0/GD32F30x_Demo_Suites_V2.0.0/GD32F30x_Firmware_Library/CMSIS/GD/GD32F30x/Source\system_gd32f30x.c ****     }while((0U == stab_flag) && (HXTAL_STARTUP_TIMEOUT != timeout));
 640:C:/Users/49542/Desktop/GD32F30x_Demo_Suites_V2.0.0/GD32F30x_Demo_Suites_V2.0.0/GD32F30x_Firmware_Library/CMSIS/GD/GD32F30x/Source\system_gd32f30x.c **** 
 641:C:/Users/49542/Desktop/GD32F30x_Demo_Suites_V2.0.0/GD32F30x_Demo_Suites_V2.0.0/GD32F30x_Firmware_Library/CMSIS/GD/GD32F30x/Source\system_gd32f30x.c ****     /* if fail */
 642:C:/Users/49542/Desktop/GD32F30x_Demo_Suites_V2.0.0/GD32F30x_Demo_Suites_V2.0.0/GD32F30x_Firmware_Library/CMSIS/GD/GD32F30x/Source\system_gd32f30x.c ****     if(0U == (RCU_CTL & RCU_CTL_HXTALSTB)){
 643:C:/Users/49542/Desktop/GD32F30x_Demo_Suites_V2.0.0/GD32F30x_Demo_Suites_V2.0.0/GD32F30x_Firmware_Library/CMSIS/GD/GD32F30x/Source\system_gd32f30x.c ****         while(1){
 644:C:/Users/49542/Desktop/GD32F30x_Demo_Suites_V2.0.0/GD32F30x_Demo_Suites_V2.0.0/GD32F30x_Firmware_Library/CMSIS/GD/GD32F30x/Source\system_gd32f30x.c ****         }
 645:C:/Users/49542/Desktop/GD32F30x_Demo_Suites_V2.0.0/GD32F30x_Demo_Suites_V2.0.0/GD32F30x_Firmware_Library/CMSIS/GD/GD32F30x/Source\system_gd32f30x.c ****     }
 646:C:/Users/49542/Desktop/GD32F30x_Demo_Suites_V2.0.0/GD32F30x_Demo_Suites_V2.0.0/GD32F30x_Firmware_Library/CMSIS/GD/GD32F30x/Source\system_gd32f30x.c **** 
 647:C:/Users/49542/Desktop/GD32F30x_Demo_Suites_V2.0.0/GD32F30x_Demo_Suites_V2.0.0/GD32F30x_Firmware_Library/CMSIS/GD/GD32F30x/Source\system_gd32f30x.c ****     RCU_APB1EN |= RCU_APB1EN_PMUEN;
 648:C:/Users/49542/Desktop/GD32F30x_Demo_Suites_V2.0.0/GD32F30x_Demo_Suites_V2.0.0/GD32F30x_Firmware_Library/CMSIS/GD/GD32F30x/Source\system_gd32f30x.c ****     PMU_CTL |= PMU_CTL_LDOVS;
 649:C:/Users/49542/Desktop/GD32F30x_Demo_Suites_V2.0.0/GD32F30x_Demo_Suites_V2.0.0/GD32F30x_Firmware_Library/CMSIS/GD/GD32F30x/Source\system_gd32f30x.c **** 
 650:C:/Users/49542/Desktop/GD32F30x_Demo_Suites_V2.0.0/GD32F30x_Demo_Suites_V2.0.0/GD32F30x_Firmware_Library/CMSIS/GD/GD32F30x/Source\system_gd32f30x.c ****     /* HXTAL is stable */
 651:C:/Users/49542/Desktop/GD32F30x_Demo_Suites_V2.0.0/GD32F30x_Demo_Suites_V2.0.0/GD32F30x_Firmware_Library/CMSIS/GD/GD32F30x/Source\system_gd32f30x.c ****     /* AHB = SYSCLK */
 652:C:/Users/49542/Desktop/GD32F30x_Demo_Suites_V2.0.0/GD32F30x_Demo_Suites_V2.0.0/GD32F30x_Firmware_Library/CMSIS/GD/GD32F30x/Source\system_gd32f30x.c ****     RCU_CFG0 |= RCU_AHB_CKSYS_DIV1;
 653:C:/Users/49542/Desktop/GD32F30x_Demo_Suites_V2.0.0/GD32F30x_Demo_Suites_V2.0.0/GD32F30x_Firmware_Library/CMSIS/GD/GD32F30x/Source\system_gd32f30x.c ****     /* APB2 = AHB/1 */
 654:C:/Users/49542/Desktop/GD32F30x_Demo_Suites_V2.0.0/GD32F30x_Demo_Suites_V2.0.0/GD32F30x_Firmware_Library/CMSIS/GD/GD32F30x/Source\system_gd32f30x.c ****     RCU_CFG0 |= RCU_APB2_CKAHB_DIV1;
 655:C:/Users/49542/Desktop/GD32F30x_Demo_Suites_V2.0.0/GD32F30x_Demo_Suites_V2.0.0/GD32F30x_Firmware_Library/CMSIS/GD/GD32F30x/Source\system_gd32f30x.c ****     /* APB1 = AHB/2 */
 656:C:/Users/49542/Desktop/GD32F30x_Demo_Suites_V2.0.0/GD32F30x_Demo_Suites_V2.0.0/GD32F30x_Firmware_Library/CMSIS/GD/GD32F30x/Source\system_gd32f30x.c ****     RCU_CFG0 |= RCU_APB1_CKAHB_DIV2;
 657:C:/Users/49542/Desktop/GD32F30x_Demo_Suites_V2.0.0/GD32F30x_Demo_Suites_V2.0.0/GD32F30x_Firmware_Library/CMSIS/GD/GD32F30x/Source\system_gd32f30x.c **** 
 658:C:/Users/49542/Desktop/GD32F30x_Demo_Suites_V2.0.0/GD32F30x_Demo_Suites_V2.0.0/GD32F30x_Firmware_Library/CMSIS/GD/GD32F30x/Source\system_gd32f30x.c **** #if (defined(GD32F30X_HD) || defined(GD32F30X_XD))
 659:C:/Users/49542/Desktop/GD32F30x_Demo_Suites_V2.0.0/GD32F30x_Demo_Suites_V2.0.0/GD32F30x_Firmware_Library/CMSIS/GD/GD32F30x/Source\system_gd32f30x.c ****     /* select HXTAL/2 as clock source */
ARM GAS  C:\Users\49542\AppData\Local\Temp\ccCGQ85p.s 			page 13


 660:C:/Users/49542/Desktop/GD32F30x_Demo_Suites_V2.0.0/GD32F30x_Demo_Suites_V2.0.0/GD32F30x_Firmware_Library/CMSIS/GD/GD32F30x/Source\system_gd32f30x.c ****     RCU_CFG0 &= ~(RCU_CFG0_PLLSEL | RCU_CFG0_PREDV0);
 661:C:/Users/49542/Desktop/GD32F30x_Demo_Suites_V2.0.0/GD32F30x_Demo_Suites_V2.0.0/GD32F30x_Firmware_Library/CMSIS/GD/GD32F30x/Source\system_gd32f30x.c ****     RCU_CFG0 |= (RCU_PLLSRC_HXTAL_IRC48M | RCU_CFG0_PREDV0);
 662:C:/Users/49542/Desktop/GD32F30x_Demo_Suites_V2.0.0/GD32F30x_Demo_Suites_V2.0.0/GD32F30x_Firmware_Library/CMSIS/GD/GD32F30x/Source\system_gd32f30x.c **** 
 663:C:/Users/49542/Desktop/GD32F30x_Demo_Suites_V2.0.0/GD32F30x_Demo_Suites_V2.0.0/GD32F30x_Firmware_Library/CMSIS/GD/GD32F30x/Source\system_gd32f30x.c ****     /* CK_PLL = (CK_HXTAL/2) * 18 = 72 MHz */
 664:C:/Users/49542/Desktop/GD32F30x_Demo_Suites_V2.0.0/GD32F30x_Demo_Suites_V2.0.0/GD32F30x_Firmware_Library/CMSIS/GD/GD32F30x/Source\system_gd32f30x.c ****     RCU_CFG0 &= ~(RCU_CFG0_PLLMF | RCU_CFG0_PLLMF_4 | RCU_CFG0_PLLMF_5);
 665:C:/Users/49542/Desktop/GD32F30x_Demo_Suites_V2.0.0/GD32F30x_Demo_Suites_V2.0.0/GD32F30x_Firmware_Library/CMSIS/GD/GD32F30x/Source\system_gd32f30x.c ****     RCU_CFG0 |= RCU_PLL_MUL18;
 666:C:/Users/49542/Desktop/GD32F30x_Demo_Suites_V2.0.0/GD32F30x_Demo_Suites_V2.0.0/GD32F30x_Firmware_Library/CMSIS/GD/GD32F30x/Source\system_gd32f30x.c **** 
 667:C:/Users/49542/Desktop/GD32F30x_Demo_Suites_V2.0.0/GD32F30x_Demo_Suites_V2.0.0/GD32F30x_Firmware_Library/CMSIS/GD/GD32F30x/Source\system_gd32f30x.c **** #elif defined(GD32F30X_CL)
 668:C:/Users/49542/Desktop/GD32F30x_Demo_Suites_V2.0.0/GD32F30x_Demo_Suites_V2.0.0/GD32F30x_Firmware_Library/CMSIS/GD/GD32F30x/Source\system_gd32f30x.c ****     /* CK_PLL = (CK_PREDIV0) * 18 = 72 MHz */ 
 669:C:/Users/49542/Desktop/GD32F30x_Demo_Suites_V2.0.0/GD32F30x_Demo_Suites_V2.0.0/GD32F30x_Firmware_Library/CMSIS/GD/GD32F30x/Source\system_gd32f30x.c ****     RCU_CFG0 &= ~(RCU_CFG0_PLLMF | RCU_CFG0_PLLMF_4 | RCU_CFG0_PLLMF_5);
 670:C:/Users/49542/Desktop/GD32F30x_Demo_Suites_V2.0.0/GD32F30x_Demo_Suites_V2.0.0/GD32F30x_Firmware_Library/CMSIS/GD/GD32F30x/Source\system_gd32f30x.c ****     RCU_CFG0 |= (RCU_PLLSRC_HXTAL_IRC48M | RCU_PLL_MUL18);
 671:C:/Users/49542/Desktop/GD32F30x_Demo_Suites_V2.0.0/GD32F30x_Demo_Suites_V2.0.0/GD32F30x_Firmware_Library/CMSIS/GD/GD32F30x/Source\system_gd32f30x.c **** 
 672:C:/Users/49542/Desktop/GD32F30x_Demo_Suites_V2.0.0/GD32F30x_Demo_Suites_V2.0.0/GD32F30x_Firmware_Library/CMSIS/GD/GD32F30x/Source\system_gd32f30x.c ****     /* CK_PREDIV0 = (CK_HXTAL)/5 *8 /10 = 4 MHz */ 
 673:C:/Users/49542/Desktop/GD32F30x_Demo_Suites_V2.0.0/GD32F30x_Demo_Suites_V2.0.0/GD32F30x_Firmware_Library/CMSIS/GD/GD32F30x/Source\system_gd32f30x.c ****     RCU_CFG1 &= ~(RCU_CFG1_PLLPRESEL | RCU_CFG1_PREDV0SEL | RCU_CFG1_PLL1MF | RCU_CFG1_PREDV1 | RCU
 674:C:/Users/49542/Desktop/GD32F30x_Demo_Suites_V2.0.0/GD32F30x_Demo_Suites_V2.0.0/GD32F30x_Firmware_Library/CMSIS/GD/GD32F30x/Source\system_gd32f30x.c ****     RCU_CFG1 |= (RCU_PLLPRESRC_HXTAL | RCU_PREDV0SRC_CKPLL1 | RCU_PLL1_MUL8 | RCU_PREDV1_DIV5 | RCU
 675:C:/Users/49542/Desktop/GD32F30x_Demo_Suites_V2.0.0/GD32F30x_Demo_Suites_V2.0.0/GD32F30x_Firmware_Library/CMSIS/GD/GD32F30x/Source\system_gd32f30x.c **** 
 676:C:/Users/49542/Desktop/GD32F30x_Demo_Suites_V2.0.0/GD32F30x_Demo_Suites_V2.0.0/GD32F30x_Firmware_Library/CMSIS/GD/GD32F30x/Source\system_gd32f30x.c ****     /* enable PLL1 */
 677:C:/Users/49542/Desktop/GD32F30x_Demo_Suites_V2.0.0/GD32F30x_Demo_Suites_V2.0.0/GD32F30x_Firmware_Library/CMSIS/GD/GD32F30x/Source\system_gd32f30x.c ****     RCU_CTL |= RCU_CTL_PLL1EN;
 678:C:/Users/49542/Desktop/GD32F30x_Demo_Suites_V2.0.0/GD32F30x_Demo_Suites_V2.0.0/GD32F30x_Firmware_Library/CMSIS/GD/GD32F30x/Source\system_gd32f30x.c ****     /* wait till PLL1 is ready */
 679:C:/Users/49542/Desktop/GD32F30x_Demo_Suites_V2.0.0/GD32F30x_Demo_Suites_V2.0.0/GD32F30x_Firmware_Library/CMSIS/GD/GD32F30x/Source\system_gd32f30x.c ****     while((RCU_CTL & RCU_CTL_PLL1STB) == 0){
 680:C:/Users/49542/Desktop/GD32F30x_Demo_Suites_V2.0.0/GD32F30x_Demo_Suites_V2.0.0/GD32F30x_Firmware_Library/CMSIS/GD/GD32F30x/Source\system_gd32f30x.c ****     }
 681:C:/Users/49542/Desktop/GD32F30x_Demo_Suites_V2.0.0/GD32F30x_Demo_Suites_V2.0.0/GD32F30x_Firmware_Library/CMSIS/GD/GD32F30x/Source\system_gd32f30x.c **** #endif /* GD32F30X_HD and GD32F30X_XD */
 682:C:/Users/49542/Desktop/GD32F30x_Demo_Suites_V2.0.0/GD32F30x_Demo_Suites_V2.0.0/GD32F30x_Firmware_Library/CMSIS/GD/GD32F30x/Source\system_gd32f30x.c **** 
 683:C:/Users/49542/Desktop/GD32F30x_Demo_Suites_V2.0.0/GD32F30x_Demo_Suites_V2.0.0/GD32F30x_Firmware_Library/CMSIS/GD/GD32F30x/Source\system_gd32f30x.c ****     /* enable PLL */
 684:C:/Users/49542/Desktop/GD32F30x_Demo_Suites_V2.0.0/GD32F30x_Demo_Suites_V2.0.0/GD32F30x_Firmware_Library/CMSIS/GD/GD32F30x/Source\system_gd32f30x.c ****     RCU_CTL |= RCU_CTL_PLLEN;
 685:C:/Users/49542/Desktop/GD32F30x_Demo_Suites_V2.0.0/GD32F30x_Demo_Suites_V2.0.0/GD32F30x_Firmware_Library/CMSIS/GD/GD32F30x/Source\system_gd32f30x.c **** 
 686:C:/Users/49542/Desktop/GD32F30x_Demo_Suites_V2.0.0/GD32F30x_Demo_Suites_V2.0.0/GD32F30x_Firmware_Library/CMSIS/GD/GD32F30x/Source\system_gd32f30x.c ****     /* wait until PLL is stable */
 687:C:/Users/49542/Desktop/GD32F30x_Demo_Suites_V2.0.0/GD32F30x_Demo_Suites_V2.0.0/GD32F30x_Firmware_Library/CMSIS/GD/GD32F30x/Source\system_gd32f30x.c ****     while(0U == (RCU_CTL & RCU_CTL_PLLSTB)){
 688:C:/Users/49542/Desktop/GD32F30x_Demo_Suites_V2.0.0/GD32F30x_Demo_Suites_V2.0.0/GD32F30x_Firmware_Library/CMSIS/GD/GD32F30x/Source\system_gd32f30x.c ****     }
 689:C:/Users/49542/Desktop/GD32F30x_Demo_Suites_V2.0.0/GD32F30x_Demo_Suites_V2.0.0/GD32F30x_Firmware_Library/CMSIS/GD/GD32F30x/Source\system_gd32f30x.c **** 
 690:C:/Users/49542/Desktop/GD32F30x_Demo_Suites_V2.0.0/GD32F30x_Demo_Suites_V2.0.0/GD32F30x_Firmware_Library/CMSIS/GD/GD32F30x/Source\system_gd32f30x.c ****     /* enable the high-drive to extend the clock frequency to 120 MHz */
 691:C:/Users/49542/Desktop/GD32F30x_Demo_Suites_V2.0.0/GD32F30x_Demo_Suites_V2.0.0/GD32F30x_Firmware_Library/CMSIS/GD/GD32F30x/Source\system_gd32f30x.c ****     PMU_CTL |= PMU_CTL_HDEN;
 692:C:/Users/49542/Desktop/GD32F30x_Demo_Suites_V2.0.0/GD32F30x_Demo_Suites_V2.0.0/GD32F30x_Firmware_Library/CMSIS/GD/GD32F30x/Source\system_gd32f30x.c ****     while(0U == (PMU_CS & PMU_CS_HDRF)){
 693:C:/Users/49542/Desktop/GD32F30x_Demo_Suites_V2.0.0/GD32F30x_Demo_Suites_V2.0.0/GD32F30x_Firmware_Library/CMSIS/GD/GD32F30x/Source\system_gd32f30x.c ****     }
 694:C:/Users/49542/Desktop/GD32F30x_Demo_Suites_V2.0.0/GD32F30x_Demo_Suites_V2.0.0/GD32F30x_Firmware_Library/CMSIS/GD/GD32F30x/Source\system_gd32f30x.c **** 
 695:C:/Users/49542/Desktop/GD32F30x_Demo_Suites_V2.0.0/GD32F30x_Demo_Suites_V2.0.0/GD32F30x_Firmware_Library/CMSIS/GD/GD32F30x/Source\system_gd32f30x.c ****     /* select the high-drive mode */
 696:C:/Users/49542/Desktop/GD32F30x_Demo_Suites_V2.0.0/GD32F30x_Demo_Suites_V2.0.0/GD32F30x_Firmware_Library/CMSIS/GD/GD32F30x/Source\system_gd32f30x.c ****     PMU_CTL |= PMU_CTL_HDS;
 697:C:/Users/49542/Desktop/GD32F30x_Demo_Suites_V2.0.0/GD32F30x_Demo_Suites_V2.0.0/GD32F30x_Firmware_Library/CMSIS/GD/GD32F30x/Source\system_gd32f30x.c ****     while(0U == (PMU_CS & PMU_CS_HDSRF)){
 698:C:/Users/49542/Desktop/GD32F30x_Demo_Suites_V2.0.0/GD32F30x_Demo_Suites_V2.0.0/GD32F30x_Firmware_Library/CMSIS/GD/GD32F30x/Source\system_gd32f30x.c ****     }
 699:C:/Users/49542/Desktop/GD32F30x_Demo_Suites_V2.0.0/GD32F30x_Demo_Suites_V2.0.0/GD32F30x_Firmware_Library/CMSIS/GD/GD32F30x/Source\system_gd32f30x.c **** 
 700:C:/Users/49542/Desktop/GD32F30x_Demo_Suites_V2.0.0/GD32F30x_Demo_Suites_V2.0.0/GD32F30x_Firmware_Library/CMSIS/GD/GD32F30x/Source\system_gd32f30x.c ****     /* select PLL as system clock */
 701:C:/Users/49542/Desktop/GD32F30x_Demo_Suites_V2.0.0/GD32F30x_Demo_Suites_V2.0.0/GD32F30x_Firmware_Library/CMSIS/GD/GD32F30x/Source\system_gd32f30x.c ****     RCU_CFG0 &= ~RCU_CFG0_SCS;
 702:C:/Users/49542/Desktop/GD32F30x_Demo_Suites_V2.0.0/GD32F30x_Demo_Suites_V2.0.0/GD32F30x_Firmware_Library/CMSIS/GD/GD32F30x/Source\system_gd32f30x.c ****     RCU_CFG0 |= RCU_CKSYSSRC_PLL;
 703:C:/Users/49542/Desktop/GD32F30x_Demo_Suites_V2.0.0/GD32F30x_Demo_Suites_V2.0.0/GD32F30x_Firmware_Library/CMSIS/GD/GD32F30x/Source\system_gd32f30x.c **** 
 704:C:/Users/49542/Desktop/GD32F30x_Demo_Suites_V2.0.0/GD32F30x_Demo_Suites_V2.0.0/GD32F30x_Firmware_Library/CMSIS/GD/GD32F30x/Source\system_gd32f30x.c ****     /* wait until PLL is selected as system clock */
 705:C:/Users/49542/Desktop/GD32F30x_Demo_Suites_V2.0.0/GD32F30x_Demo_Suites_V2.0.0/GD32F30x_Firmware_Library/CMSIS/GD/GD32F30x/Source\system_gd32f30x.c ****     while(0U == (RCU_CFG0 & RCU_SCSS_PLL)){
 706:C:/Users/49542/Desktop/GD32F30x_Demo_Suites_V2.0.0/GD32F30x_Demo_Suites_V2.0.0/GD32F30x_Firmware_Library/CMSIS/GD/GD32F30x/Source\system_gd32f30x.c ****     }
 707:C:/Users/49542/Desktop/GD32F30x_Demo_Suites_V2.0.0/GD32F30x_Demo_Suites_V2.0.0/GD32F30x_Firmware_Library/CMSIS/GD/GD32F30x/Source\system_gd32f30x.c **** }
 708:C:/Users/49542/Desktop/GD32F30x_Demo_Suites_V2.0.0/GD32F30x_Demo_Suites_V2.0.0/GD32F30x_Firmware_Library/CMSIS/GD/GD32F30x/Source\system_gd32f30x.c **** 
 709:C:/Users/49542/Desktop/GD32F30x_Demo_Suites_V2.0.0/GD32F30x_Demo_Suites_V2.0.0/GD32F30x_Firmware_Library/CMSIS/GD/GD32F30x/Source\system_gd32f30x.c **** #elif defined (__SYSTEM_CLOCK_108M_PLL_HXTAL)
 710:C:/Users/49542/Desktop/GD32F30x_Demo_Suites_V2.0.0/GD32F30x_Demo_Suites_V2.0.0/GD32F30x_Firmware_Library/CMSIS/GD/GD32F30x/Source\system_gd32f30x.c **** /*!
 711:C:/Users/49542/Desktop/GD32F30x_Demo_Suites_V2.0.0/GD32F30x_Demo_Suites_V2.0.0/GD32F30x_Firmware_Library/CMSIS/GD/GD32F30x/Source\system_gd32f30x.c ****     \brief      configure the system clock to 108M by PLL which selects HXTAL(8M) as its clock sour
 712:C:/Users/49542/Desktop/GD32F30x_Demo_Suites_V2.0.0/GD32F30x_Demo_Suites_V2.0.0/GD32F30x_Firmware_Library/CMSIS/GD/GD32F30x/Source\system_gd32f30x.c ****     \param[in]  none
 713:C:/Users/49542/Desktop/GD32F30x_Demo_Suites_V2.0.0/GD32F30x_Demo_Suites_V2.0.0/GD32F30x_Firmware_Library/CMSIS/GD/GD32F30x/Source\system_gd32f30x.c ****     \param[out] none
 714:C:/Users/49542/Desktop/GD32F30x_Demo_Suites_V2.0.0/GD32F30x_Demo_Suites_V2.0.0/GD32F30x_Firmware_Library/CMSIS/GD/GD32F30x/Source\system_gd32f30x.c ****     \retval     none
 715:C:/Users/49542/Desktop/GD32F30x_Demo_Suites_V2.0.0/GD32F30x_Demo_Suites_V2.0.0/GD32F30x_Firmware_Library/CMSIS/GD/GD32F30x/Source\system_gd32f30x.c **** */
 716:C:/Users/49542/Desktop/GD32F30x_Demo_Suites_V2.0.0/GD32F30x_Demo_Suites_V2.0.0/GD32F30x_Firmware_Library/CMSIS/GD/GD32F30x/Source\system_gd32f30x.c **** static void system_clock_108m_hxtal(void)
ARM GAS  C:\Users\49542\AppData\Local\Temp\ccCGQ85p.s 			page 14


 717:C:/Users/49542/Desktop/GD32F30x_Demo_Suites_V2.0.0/GD32F30x_Demo_Suites_V2.0.0/GD32F30x_Firmware_Library/CMSIS/GD/GD32F30x/Source\system_gd32f30x.c **** {
 718:C:/Users/49542/Desktop/GD32F30x_Demo_Suites_V2.0.0/GD32F30x_Demo_Suites_V2.0.0/GD32F30x_Firmware_Library/CMSIS/GD/GD32F30x/Source\system_gd32f30x.c ****     uint32_t timeout = 0U;
 719:C:/Users/49542/Desktop/GD32F30x_Demo_Suites_V2.0.0/GD32F30x_Demo_Suites_V2.0.0/GD32F30x_Firmware_Library/CMSIS/GD/GD32F30x/Source\system_gd32f30x.c ****     uint32_t stab_flag = 0U;
 720:C:/Users/49542/Desktop/GD32F30x_Demo_Suites_V2.0.0/GD32F30x_Demo_Suites_V2.0.0/GD32F30x_Firmware_Library/CMSIS/GD/GD32F30x/Source\system_gd32f30x.c **** 
 721:C:/Users/49542/Desktop/GD32F30x_Demo_Suites_V2.0.0/GD32F30x_Demo_Suites_V2.0.0/GD32F30x_Firmware_Library/CMSIS/GD/GD32F30x/Source\system_gd32f30x.c ****     /* enable HXTAL */
 722:C:/Users/49542/Desktop/GD32F30x_Demo_Suites_V2.0.0/GD32F30x_Demo_Suites_V2.0.0/GD32F30x_Firmware_Library/CMSIS/GD/GD32F30x/Source\system_gd32f30x.c ****     RCU_CTL |= RCU_CTL_HXTALEN;
 723:C:/Users/49542/Desktop/GD32F30x_Demo_Suites_V2.0.0/GD32F30x_Demo_Suites_V2.0.0/GD32F30x_Firmware_Library/CMSIS/GD/GD32F30x/Source\system_gd32f30x.c **** 
 724:C:/Users/49542/Desktop/GD32F30x_Demo_Suites_V2.0.0/GD32F30x_Demo_Suites_V2.0.0/GD32F30x_Firmware_Library/CMSIS/GD/GD32F30x/Source\system_gd32f30x.c ****     /* wait until HXTAL is stable or the startup time is longer than HXTAL_STARTUP_TIMEOUT */
 725:C:/Users/49542/Desktop/GD32F30x_Demo_Suites_V2.0.0/GD32F30x_Demo_Suites_V2.0.0/GD32F30x_Firmware_Library/CMSIS/GD/GD32F30x/Source\system_gd32f30x.c ****     do{
 726:C:/Users/49542/Desktop/GD32F30x_Demo_Suites_V2.0.0/GD32F30x_Demo_Suites_V2.0.0/GD32F30x_Firmware_Library/CMSIS/GD/GD32F30x/Source\system_gd32f30x.c ****         timeout++;
 727:C:/Users/49542/Desktop/GD32F30x_Demo_Suites_V2.0.0/GD32F30x_Demo_Suites_V2.0.0/GD32F30x_Firmware_Library/CMSIS/GD/GD32F30x/Source\system_gd32f30x.c ****         stab_flag = (RCU_CTL & RCU_CTL_HXTALSTB);
 728:C:/Users/49542/Desktop/GD32F30x_Demo_Suites_V2.0.0/GD32F30x_Demo_Suites_V2.0.0/GD32F30x_Firmware_Library/CMSIS/GD/GD32F30x/Source\system_gd32f30x.c ****     }while((0U == stab_flag) && (HXTAL_STARTUP_TIMEOUT != timeout));
 729:C:/Users/49542/Desktop/GD32F30x_Demo_Suites_V2.0.0/GD32F30x_Demo_Suites_V2.0.0/GD32F30x_Firmware_Library/CMSIS/GD/GD32F30x/Source\system_gd32f30x.c **** 
 730:C:/Users/49542/Desktop/GD32F30x_Demo_Suites_V2.0.0/GD32F30x_Demo_Suites_V2.0.0/GD32F30x_Firmware_Library/CMSIS/GD/GD32F30x/Source\system_gd32f30x.c ****     /* if fail */
 731:C:/Users/49542/Desktop/GD32F30x_Demo_Suites_V2.0.0/GD32F30x_Demo_Suites_V2.0.0/GD32F30x_Firmware_Library/CMSIS/GD/GD32F30x/Source\system_gd32f30x.c ****     if(0U == (RCU_CTL & RCU_CTL_HXTALSTB)){
 732:C:/Users/49542/Desktop/GD32F30x_Demo_Suites_V2.0.0/GD32F30x_Demo_Suites_V2.0.0/GD32F30x_Firmware_Library/CMSIS/GD/GD32F30x/Source\system_gd32f30x.c ****         while(1){
 733:C:/Users/49542/Desktop/GD32F30x_Demo_Suites_V2.0.0/GD32F30x_Demo_Suites_V2.0.0/GD32F30x_Firmware_Library/CMSIS/GD/GD32F30x/Source\system_gd32f30x.c ****         }
 734:C:/Users/49542/Desktop/GD32F30x_Demo_Suites_V2.0.0/GD32F30x_Demo_Suites_V2.0.0/GD32F30x_Firmware_Library/CMSIS/GD/GD32F30x/Source\system_gd32f30x.c ****     }
 735:C:/Users/49542/Desktop/GD32F30x_Demo_Suites_V2.0.0/GD32F30x_Demo_Suites_V2.0.0/GD32F30x_Firmware_Library/CMSIS/GD/GD32F30x/Source\system_gd32f30x.c **** 
 736:C:/Users/49542/Desktop/GD32F30x_Demo_Suites_V2.0.0/GD32F30x_Demo_Suites_V2.0.0/GD32F30x_Firmware_Library/CMSIS/GD/GD32F30x/Source\system_gd32f30x.c ****     RCU_APB1EN |= RCU_APB1EN_PMUEN;
 737:C:/Users/49542/Desktop/GD32F30x_Demo_Suites_V2.0.0/GD32F30x_Demo_Suites_V2.0.0/GD32F30x_Firmware_Library/CMSIS/GD/GD32F30x/Source\system_gd32f30x.c ****     PMU_CTL |= PMU_CTL_LDOVS;
 738:C:/Users/49542/Desktop/GD32F30x_Demo_Suites_V2.0.0/GD32F30x_Demo_Suites_V2.0.0/GD32F30x_Firmware_Library/CMSIS/GD/GD32F30x/Source\system_gd32f30x.c **** 
 739:C:/Users/49542/Desktop/GD32F30x_Demo_Suites_V2.0.0/GD32F30x_Demo_Suites_V2.0.0/GD32F30x_Firmware_Library/CMSIS/GD/GD32F30x/Source\system_gd32f30x.c ****     /* HXTAL is stable */
 740:C:/Users/49542/Desktop/GD32F30x_Demo_Suites_V2.0.0/GD32F30x_Demo_Suites_V2.0.0/GD32F30x_Firmware_Library/CMSIS/GD/GD32F30x/Source\system_gd32f30x.c ****     /* AHB = SYSCLK */
 741:C:/Users/49542/Desktop/GD32F30x_Demo_Suites_V2.0.0/GD32F30x_Demo_Suites_V2.0.0/GD32F30x_Firmware_Library/CMSIS/GD/GD32F30x/Source\system_gd32f30x.c ****     RCU_CFG0 |= RCU_AHB_CKSYS_DIV1;
 742:C:/Users/49542/Desktop/GD32F30x_Demo_Suites_V2.0.0/GD32F30x_Demo_Suites_V2.0.0/GD32F30x_Firmware_Library/CMSIS/GD/GD32F30x/Source\system_gd32f30x.c ****     /* APB2 = AHB/1 */
 743:C:/Users/49542/Desktop/GD32F30x_Demo_Suites_V2.0.0/GD32F30x_Demo_Suites_V2.0.0/GD32F30x_Firmware_Library/CMSIS/GD/GD32F30x/Source\system_gd32f30x.c ****     RCU_CFG0 |= RCU_APB2_CKAHB_DIV1;
 744:C:/Users/49542/Desktop/GD32F30x_Demo_Suites_V2.0.0/GD32F30x_Demo_Suites_V2.0.0/GD32F30x_Firmware_Library/CMSIS/GD/GD32F30x/Source\system_gd32f30x.c ****     /* APB1 = AHB/2 */
 745:C:/Users/49542/Desktop/GD32F30x_Demo_Suites_V2.0.0/GD32F30x_Demo_Suites_V2.0.0/GD32F30x_Firmware_Library/CMSIS/GD/GD32F30x/Source\system_gd32f30x.c ****     RCU_CFG0 |= RCU_APB1_CKAHB_DIV2;
 746:C:/Users/49542/Desktop/GD32F30x_Demo_Suites_V2.0.0/GD32F30x_Demo_Suites_V2.0.0/GD32F30x_Firmware_Library/CMSIS/GD/GD32F30x/Source\system_gd32f30x.c **** 
 747:C:/Users/49542/Desktop/GD32F30x_Demo_Suites_V2.0.0/GD32F30x_Demo_Suites_V2.0.0/GD32F30x_Firmware_Library/CMSIS/GD/GD32F30x/Source\system_gd32f30x.c **** #if (defined(GD32F30X_HD) || defined(GD32F30X_XD))
 748:C:/Users/49542/Desktop/GD32F30x_Demo_Suites_V2.0.0/GD32F30x_Demo_Suites_V2.0.0/GD32F30x_Firmware_Library/CMSIS/GD/GD32F30x/Source\system_gd32f30x.c ****     /* select HXTAL/2 as clock source */
 749:C:/Users/49542/Desktop/GD32F30x_Demo_Suites_V2.0.0/GD32F30x_Demo_Suites_V2.0.0/GD32F30x_Firmware_Library/CMSIS/GD/GD32F30x/Source\system_gd32f30x.c ****     RCU_CFG0 &= ~(RCU_CFG0_PLLSEL | RCU_CFG0_PREDV0);
 750:C:/Users/49542/Desktop/GD32F30x_Demo_Suites_V2.0.0/GD32F30x_Demo_Suites_V2.0.0/GD32F30x_Firmware_Library/CMSIS/GD/GD32F30x/Source\system_gd32f30x.c ****     RCU_CFG0 |= (RCU_PLLSRC_HXTAL_IRC48M | RCU_CFG0_PREDV0);
 751:C:/Users/49542/Desktop/GD32F30x_Demo_Suites_V2.0.0/GD32F30x_Demo_Suites_V2.0.0/GD32F30x_Firmware_Library/CMSIS/GD/GD32F30x/Source\system_gd32f30x.c **** 
 752:C:/Users/49542/Desktop/GD32F30x_Demo_Suites_V2.0.0/GD32F30x_Demo_Suites_V2.0.0/GD32F30x_Firmware_Library/CMSIS/GD/GD32F30x/Source\system_gd32f30x.c ****     /* CK_PLL = (CK_HXTAL/2) * 27 = 108 MHz */
 753:C:/Users/49542/Desktop/GD32F30x_Demo_Suites_V2.0.0/GD32F30x_Demo_Suites_V2.0.0/GD32F30x_Firmware_Library/CMSIS/GD/GD32F30x/Source\system_gd32f30x.c ****     RCU_CFG0 &= ~(RCU_CFG0_PLLMF | RCU_CFG0_PLLMF_4 | RCU_CFG0_PLLMF_5);
 754:C:/Users/49542/Desktop/GD32F30x_Demo_Suites_V2.0.0/GD32F30x_Demo_Suites_V2.0.0/GD32F30x_Firmware_Library/CMSIS/GD/GD32F30x/Source\system_gd32f30x.c ****     RCU_CFG0 |= RCU_PLL_MUL27;
 755:C:/Users/49542/Desktop/GD32F30x_Demo_Suites_V2.0.0/GD32F30x_Demo_Suites_V2.0.0/GD32F30x_Firmware_Library/CMSIS/GD/GD32F30x/Source\system_gd32f30x.c **** 
 756:C:/Users/49542/Desktop/GD32F30x_Demo_Suites_V2.0.0/GD32F30x_Demo_Suites_V2.0.0/GD32F30x_Firmware_Library/CMSIS/GD/GD32F30x/Source\system_gd32f30x.c **** #elif defined(GD32F30X_CL)
 757:C:/Users/49542/Desktop/GD32F30x_Demo_Suites_V2.0.0/GD32F30x_Demo_Suites_V2.0.0/GD32F30x_Firmware_Library/CMSIS/GD/GD32F30x/Source\system_gd32f30x.c ****     /* CK_PLL = (CK_PREDIV0) * 27 = 108 MHz */ 
 758:C:/Users/49542/Desktop/GD32F30x_Demo_Suites_V2.0.0/GD32F30x_Demo_Suites_V2.0.0/GD32F30x_Firmware_Library/CMSIS/GD/GD32F30x/Source\system_gd32f30x.c ****     RCU_CFG0 &= ~(RCU_CFG0_PLLMF | RCU_CFG0_PLLMF_4 | RCU_CFG0_PLLMF_5);
 759:C:/Users/49542/Desktop/GD32F30x_Demo_Suites_V2.0.0/GD32F30x_Demo_Suites_V2.0.0/GD32F30x_Firmware_Library/CMSIS/GD/GD32F30x/Source\system_gd32f30x.c ****     RCU_CFG0 |= (RCU_PLLSRC_HXTAL_IRC48M | RCU_PLL_MUL27);
 760:C:/Users/49542/Desktop/GD32F30x_Demo_Suites_V2.0.0/GD32F30x_Demo_Suites_V2.0.0/GD32F30x_Firmware_Library/CMSIS/GD/GD32F30x/Source\system_gd32f30x.c **** 
 761:C:/Users/49542/Desktop/GD32F30x_Demo_Suites_V2.0.0/GD32F30x_Demo_Suites_V2.0.0/GD32F30x_Firmware_Library/CMSIS/GD/GD32F30x/Source\system_gd32f30x.c ****     /* CK_PREDIV0 = (CK_HXTAL)/5 *8 /10 = 4 MHz */ 
 762:C:/Users/49542/Desktop/GD32F30x_Demo_Suites_V2.0.0/GD32F30x_Demo_Suites_V2.0.0/GD32F30x_Firmware_Library/CMSIS/GD/GD32F30x/Source\system_gd32f30x.c ****     RCU_CFG1 &= ~(RCU_CFG1_PLLPRESEL | RCU_CFG1_PREDV0SEL | RCU_CFG1_PLL1MF | RCU_CFG1_PREDV1 | RCU
 763:C:/Users/49542/Desktop/GD32F30x_Demo_Suites_V2.0.0/GD32F30x_Demo_Suites_V2.0.0/GD32F30x_Firmware_Library/CMSIS/GD/GD32F30x/Source\system_gd32f30x.c ****     RCU_CFG1 |= (RCU_PLLPRESRC_HXTAL | RCU_PREDV0SRC_CKPLL1 | RCU_PLL1_MUL8 | RCU_PREDV1_DIV5 | RCU
 764:C:/Users/49542/Desktop/GD32F30x_Demo_Suites_V2.0.0/GD32F30x_Demo_Suites_V2.0.0/GD32F30x_Firmware_Library/CMSIS/GD/GD32F30x/Source\system_gd32f30x.c **** 
 765:C:/Users/49542/Desktop/GD32F30x_Demo_Suites_V2.0.0/GD32F30x_Demo_Suites_V2.0.0/GD32F30x_Firmware_Library/CMSIS/GD/GD32F30x/Source\system_gd32f30x.c ****     /* enable PLL1 */
 766:C:/Users/49542/Desktop/GD32F30x_Demo_Suites_V2.0.0/GD32F30x_Demo_Suites_V2.0.0/GD32F30x_Firmware_Library/CMSIS/GD/GD32F30x/Source\system_gd32f30x.c ****     RCU_CTL |= RCU_CTL_PLL1EN;
 767:C:/Users/49542/Desktop/GD32F30x_Demo_Suites_V2.0.0/GD32F30x_Demo_Suites_V2.0.0/GD32F30x_Firmware_Library/CMSIS/GD/GD32F30x/Source\system_gd32f30x.c ****     /* wait till PLL1 is ready */
 768:C:/Users/49542/Desktop/GD32F30x_Demo_Suites_V2.0.0/GD32F30x_Demo_Suites_V2.0.0/GD32F30x_Firmware_Library/CMSIS/GD/GD32F30x/Source\system_gd32f30x.c ****     while((RCU_CTL & RCU_CTL_PLL1STB) == 0){
 769:C:/Users/49542/Desktop/GD32F30x_Demo_Suites_V2.0.0/GD32F30x_Demo_Suites_V2.0.0/GD32F30x_Firmware_Library/CMSIS/GD/GD32F30x/Source\system_gd32f30x.c ****     }
 770:C:/Users/49542/Desktop/GD32F30x_Demo_Suites_V2.0.0/GD32F30x_Demo_Suites_V2.0.0/GD32F30x_Firmware_Library/CMSIS/GD/GD32F30x/Source\system_gd32f30x.c **** #endif /* GD32F30X_HD and GD32F30X_XD */
 771:C:/Users/49542/Desktop/GD32F30x_Demo_Suites_V2.0.0/GD32F30x_Demo_Suites_V2.0.0/GD32F30x_Firmware_Library/CMSIS/GD/GD32F30x/Source\system_gd32f30x.c **** 
 772:C:/Users/49542/Desktop/GD32F30x_Demo_Suites_V2.0.0/GD32F30x_Demo_Suites_V2.0.0/GD32F30x_Firmware_Library/CMSIS/GD/GD32F30x/Source\system_gd32f30x.c ****     /* enable PLL */
 773:C:/Users/49542/Desktop/GD32F30x_Demo_Suites_V2.0.0/GD32F30x_Demo_Suites_V2.0.0/GD32F30x_Firmware_Library/CMSIS/GD/GD32F30x/Source\system_gd32f30x.c ****     RCU_CTL |= RCU_CTL_PLLEN;
ARM GAS  C:\Users\49542\AppData\Local\Temp\ccCGQ85p.s 			page 15


 774:C:/Users/49542/Desktop/GD32F30x_Demo_Suites_V2.0.0/GD32F30x_Demo_Suites_V2.0.0/GD32F30x_Firmware_Library/CMSIS/GD/GD32F30x/Source\system_gd32f30x.c **** 
 775:C:/Users/49542/Desktop/GD32F30x_Demo_Suites_V2.0.0/GD32F30x_Demo_Suites_V2.0.0/GD32F30x_Firmware_Library/CMSIS/GD/GD32F30x/Source\system_gd32f30x.c ****     /* wait until PLL is stable */
 776:C:/Users/49542/Desktop/GD32F30x_Demo_Suites_V2.0.0/GD32F30x_Demo_Suites_V2.0.0/GD32F30x_Firmware_Library/CMSIS/GD/GD32F30x/Source\system_gd32f30x.c ****     while(0U == (RCU_CTL & RCU_CTL_PLLSTB)){
 777:C:/Users/49542/Desktop/GD32F30x_Demo_Suites_V2.0.0/GD32F30x_Demo_Suites_V2.0.0/GD32F30x_Firmware_Library/CMSIS/GD/GD32F30x/Source\system_gd32f30x.c ****     }
 778:C:/Users/49542/Desktop/GD32F30x_Demo_Suites_V2.0.0/GD32F30x_Demo_Suites_V2.0.0/GD32F30x_Firmware_Library/CMSIS/GD/GD32F30x/Source\system_gd32f30x.c **** 
 779:C:/Users/49542/Desktop/GD32F30x_Demo_Suites_V2.0.0/GD32F30x_Demo_Suites_V2.0.0/GD32F30x_Firmware_Library/CMSIS/GD/GD32F30x/Source\system_gd32f30x.c ****     /* enable the high-drive to extend the clock frequency to 120 MHz */
 780:C:/Users/49542/Desktop/GD32F30x_Demo_Suites_V2.0.0/GD32F30x_Demo_Suites_V2.0.0/GD32F30x_Firmware_Library/CMSIS/GD/GD32F30x/Source\system_gd32f30x.c ****     PMU_CTL |= PMU_CTL_HDEN;
 781:C:/Users/49542/Desktop/GD32F30x_Demo_Suites_V2.0.0/GD32F30x_Demo_Suites_V2.0.0/GD32F30x_Firmware_Library/CMSIS/GD/GD32F30x/Source\system_gd32f30x.c ****     while(0U == (PMU_CS & PMU_CS_HDRF)){
 782:C:/Users/49542/Desktop/GD32F30x_Demo_Suites_V2.0.0/GD32F30x_Demo_Suites_V2.0.0/GD32F30x_Firmware_Library/CMSIS/GD/GD32F30x/Source\system_gd32f30x.c ****     }
 783:C:/Users/49542/Desktop/GD32F30x_Demo_Suites_V2.0.0/GD32F30x_Demo_Suites_V2.0.0/GD32F30x_Firmware_Library/CMSIS/GD/GD32F30x/Source\system_gd32f30x.c **** 
 784:C:/Users/49542/Desktop/GD32F30x_Demo_Suites_V2.0.0/GD32F30x_Demo_Suites_V2.0.0/GD32F30x_Firmware_Library/CMSIS/GD/GD32F30x/Source\system_gd32f30x.c ****     /* select the high-drive mode */
 785:C:/Users/49542/Desktop/GD32F30x_Demo_Suites_V2.0.0/GD32F30x_Demo_Suites_V2.0.0/GD32F30x_Firmware_Library/CMSIS/GD/GD32F30x/Source\system_gd32f30x.c ****     PMU_CTL |= PMU_CTL_HDS;
 786:C:/Users/49542/Desktop/GD32F30x_Demo_Suites_V2.0.0/GD32F30x_Demo_Suites_V2.0.0/GD32F30x_Firmware_Library/CMSIS/GD/GD32F30x/Source\system_gd32f30x.c ****     while(0U == (PMU_CS & PMU_CS_HDSRF)){
 787:C:/Users/49542/Desktop/GD32F30x_Demo_Suites_V2.0.0/GD32F30x_Demo_Suites_V2.0.0/GD32F30x_Firmware_Library/CMSIS/GD/GD32F30x/Source\system_gd32f30x.c ****     }
 788:C:/Users/49542/Desktop/GD32F30x_Demo_Suites_V2.0.0/GD32F30x_Demo_Suites_V2.0.0/GD32F30x_Firmware_Library/CMSIS/GD/GD32F30x/Source\system_gd32f30x.c **** 
 789:C:/Users/49542/Desktop/GD32F30x_Demo_Suites_V2.0.0/GD32F30x_Demo_Suites_V2.0.0/GD32F30x_Firmware_Library/CMSIS/GD/GD32F30x/Source\system_gd32f30x.c ****     /* select PLL as system clock */
 790:C:/Users/49542/Desktop/GD32F30x_Demo_Suites_V2.0.0/GD32F30x_Demo_Suites_V2.0.0/GD32F30x_Firmware_Library/CMSIS/GD/GD32F30x/Source\system_gd32f30x.c ****     RCU_CFG0 &= ~RCU_CFG0_SCS;
 791:C:/Users/49542/Desktop/GD32F30x_Demo_Suites_V2.0.0/GD32F30x_Demo_Suites_V2.0.0/GD32F30x_Firmware_Library/CMSIS/GD/GD32F30x/Source\system_gd32f30x.c ****     RCU_CFG0 |= RCU_CKSYSSRC_PLL;
 792:C:/Users/49542/Desktop/GD32F30x_Demo_Suites_V2.0.0/GD32F30x_Demo_Suites_V2.0.0/GD32F30x_Firmware_Library/CMSIS/GD/GD32F30x/Source\system_gd32f30x.c **** 
 793:C:/Users/49542/Desktop/GD32F30x_Demo_Suites_V2.0.0/GD32F30x_Demo_Suites_V2.0.0/GD32F30x_Firmware_Library/CMSIS/GD/GD32F30x/Source\system_gd32f30x.c ****     /* wait until PLL is selected as system clock */
 794:C:/Users/49542/Desktop/GD32F30x_Demo_Suites_V2.0.0/GD32F30x_Demo_Suites_V2.0.0/GD32F30x_Firmware_Library/CMSIS/GD/GD32F30x/Source\system_gd32f30x.c ****     while(0U == (RCU_CFG0 & RCU_SCSS_PLL)){
 795:C:/Users/49542/Desktop/GD32F30x_Demo_Suites_V2.0.0/GD32F30x_Demo_Suites_V2.0.0/GD32F30x_Firmware_Library/CMSIS/GD/GD32F30x/Source\system_gd32f30x.c ****     }
 796:C:/Users/49542/Desktop/GD32F30x_Demo_Suites_V2.0.0/GD32F30x_Demo_Suites_V2.0.0/GD32F30x_Firmware_Library/CMSIS/GD/GD32F30x/Source\system_gd32f30x.c **** }
 797:C:/Users/49542/Desktop/GD32F30x_Demo_Suites_V2.0.0/GD32F30x_Demo_Suites_V2.0.0/GD32F30x_Firmware_Library/CMSIS/GD/GD32F30x/Source\system_gd32f30x.c **** 
 798:C:/Users/49542/Desktop/GD32F30x_Demo_Suites_V2.0.0/GD32F30x_Demo_Suites_V2.0.0/GD32F30x_Firmware_Library/CMSIS/GD/GD32F30x/Source\system_gd32f30x.c **** #elif defined (__SYSTEM_CLOCK_120M_PLL_HXTAL)
 799:C:/Users/49542/Desktop/GD32F30x_Demo_Suites_V2.0.0/GD32F30x_Demo_Suites_V2.0.0/GD32F30x_Firmware_Library/CMSIS/GD/GD32F30x/Source\system_gd32f30x.c **** /*!
 800:C:/Users/49542/Desktop/GD32F30x_Demo_Suites_V2.0.0/GD32F30x_Demo_Suites_V2.0.0/GD32F30x_Firmware_Library/CMSIS/GD/GD32F30x/Source\system_gd32f30x.c ****     \brief      configure the system clock to 120M by PLL which selects HXTAL(8M) as its clock sour
 801:C:/Users/49542/Desktop/GD32F30x_Demo_Suites_V2.0.0/GD32F30x_Demo_Suites_V2.0.0/GD32F30x_Firmware_Library/CMSIS/GD/GD32F30x/Source\system_gd32f30x.c ****     \param[in]  none
 802:C:/Users/49542/Desktop/GD32F30x_Demo_Suites_V2.0.0/GD32F30x_Demo_Suites_V2.0.0/GD32F30x_Firmware_Library/CMSIS/GD/GD32F30x/Source\system_gd32f30x.c ****     \param[out] none
 803:C:/Users/49542/Desktop/GD32F30x_Demo_Suites_V2.0.0/GD32F30x_Demo_Suites_V2.0.0/GD32F30x_Firmware_Library/CMSIS/GD/GD32F30x/Source\system_gd32f30x.c ****     \retval     none
 804:C:/Users/49542/Desktop/GD32F30x_Demo_Suites_V2.0.0/GD32F30x_Demo_Suites_V2.0.0/GD32F30x_Firmware_Library/CMSIS/GD/GD32F30x/Source\system_gd32f30x.c **** */
 805:C:/Users/49542/Desktop/GD32F30x_Demo_Suites_V2.0.0/GD32F30x_Demo_Suites_V2.0.0/GD32F30x_Firmware_Library/CMSIS/GD/GD32F30x/Source\system_gd32f30x.c **** static void system_clock_120m_hxtal(void)
 806:C:/Users/49542/Desktop/GD32F30x_Demo_Suites_V2.0.0/GD32F30x_Demo_Suites_V2.0.0/GD32F30x_Firmware_Library/CMSIS/GD/GD32F30x/Source\system_gd32f30x.c **** {
  27              		.loc 1 806 0
  28              		.cfi_startproc
  29              		@ args = 0, pretend = 0, frame = 0
  30              		@ frame_needed = 0, uses_anonymous_args = 0
  31              		@ link register save eliminated.
  32              	.LVL0:
 807:C:/Users/49542/Desktop/GD32F30x_Demo_Suites_V2.0.0/GD32F30x_Demo_Suites_V2.0.0/GD32F30x_Firmware_Library/CMSIS/GD/GD32F30x/Source\system_gd32f30x.c ****     uint32_t timeout = 0U;
 808:C:/Users/49542/Desktop/GD32F30x_Demo_Suites_V2.0.0/GD32F30x_Demo_Suites_V2.0.0/GD32F30x_Firmware_Library/CMSIS/GD/GD32F30x/Source\system_gd32f30x.c ****     uint32_t stab_flag = 0U;
 809:C:/Users/49542/Desktop/GD32F30x_Demo_Suites_V2.0.0/GD32F30x_Demo_Suites_V2.0.0/GD32F30x_Firmware_Library/CMSIS/GD/GD32F30x/Source\system_gd32f30x.c **** 
 810:C:/Users/49542/Desktop/GD32F30x_Demo_Suites_V2.0.0/GD32F30x_Demo_Suites_V2.0.0/GD32F30x_Firmware_Library/CMSIS/GD/GD32F30x/Source\system_gd32f30x.c ****     /* enable HXTAL */
 811:C:/Users/49542/Desktop/GD32F30x_Demo_Suites_V2.0.0/GD32F30x_Demo_Suites_V2.0.0/GD32F30x_Firmware_Library/CMSIS/GD/GD32F30x/Source\system_gd32f30x.c ****     RCU_CTL |= RCU_CTL_HXTALEN;
  33              		.loc 1 811 0
  34 0000 344A     		ldr	r2, .L10
  35 0002 1368     		ldr	r3, [r2]
  36 0004 43F48033 		orr	r3, r3, #65536
  37 0008 1360     		str	r3, [r2]
 807:C:/Users/49542/Desktop/GD32F30x_Demo_Suites_V2.0.0/GD32F30x_Demo_Suites_V2.0.0/GD32F30x_Firmware_Library/CMSIS/GD/GD32F30x/Source\system_gd32f30x.c ****     uint32_t timeout = 0U;
  38              		.loc 1 807 0
  39 000a 0023     		movs	r3, #0
  40              	.LVL1:
  41              	.L3:
 812:C:/Users/49542/Desktop/GD32F30x_Demo_Suites_V2.0.0/GD32F30x_Demo_Suites_V2.0.0/GD32F30x_Firmware_Library/CMSIS/GD/GD32F30x/Source\system_gd32f30x.c **** 
 813:C:/Users/49542/Desktop/GD32F30x_Demo_Suites_V2.0.0/GD32F30x_Demo_Suites_V2.0.0/GD32F30x_Firmware_Library/CMSIS/GD/GD32F30x/Source\system_gd32f30x.c ****     /* wait until HXTAL is stable or the startup time is longer than HXTAL_STARTUP_TIMEOUT */
 814:C:/Users/49542/Desktop/GD32F30x_Demo_Suites_V2.0.0/GD32F30x_Demo_Suites_V2.0.0/GD32F30x_Firmware_Library/CMSIS/GD/GD32F30x/Source\system_gd32f30x.c ****     do{
ARM GAS  C:\Users\49542\AppData\Local\Temp\ccCGQ85p.s 			page 16


 815:C:/Users/49542/Desktop/GD32F30x_Demo_Suites_V2.0.0/GD32F30x_Demo_Suites_V2.0.0/GD32F30x_Firmware_Library/CMSIS/GD/GD32F30x/Source\system_gd32f30x.c ****         timeout++;
  42              		.loc 1 815 0 discriminator 2
  43 000c 0133     		adds	r3, r3, #1
  44              	.LVL2:
 816:C:/Users/49542/Desktop/GD32F30x_Demo_Suites_V2.0.0/GD32F30x_Demo_Suites_V2.0.0/GD32F30x_Firmware_Library/CMSIS/GD/GD32F30x/Source\system_gd32f30x.c ****         stab_flag = (RCU_CTL & RCU_CTL_HXTALSTB);
  45              		.loc 1 816 0 discriminator 2
  46 000e 314A     		ldr	r2, .L10
  47 0010 1268     		ldr	r2, [r2]
  48              	.LVL3:
 817:C:/Users/49542/Desktop/GD32F30x_Demo_Suites_V2.0.0/GD32F30x_Demo_Suites_V2.0.0/GD32F30x_Firmware_Library/CMSIS/GD/GD32F30x/Source\system_gd32f30x.c ****     }while((0U == stab_flag) && (HXTAL_STARTUP_TIMEOUT != timeout));
  49              		.loc 1 817 0 discriminator 2
  50 0012 12F4003F 		tst	r2, #131072
  51 0016 03D1     		bne	.L2
  52              		.loc 1 817 0 is_stmt 0 discriminator 1
  53 0018 4FF6FF72 		movw	r2, #65535
  54              	.LVL4:
  55 001c 9342     		cmp	r3, r2
  56 001e F5D1     		bne	.L3
  57              	.L2:
 818:C:/Users/49542/Desktop/GD32F30x_Demo_Suites_V2.0.0/GD32F30x_Demo_Suites_V2.0.0/GD32F30x_Firmware_Library/CMSIS/GD/GD32F30x/Source\system_gd32f30x.c **** 
 819:C:/Users/49542/Desktop/GD32F30x_Demo_Suites_V2.0.0/GD32F30x_Demo_Suites_V2.0.0/GD32F30x_Firmware_Library/CMSIS/GD/GD32F30x/Source\system_gd32f30x.c ****     /* if fail */
 820:C:/Users/49542/Desktop/GD32F30x_Demo_Suites_V2.0.0/GD32F30x_Demo_Suites_V2.0.0/GD32F30x_Firmware_Library/CMSIS/GD/GD32F30x/Source\system_gd32f30x.c ****     if(0U == (RCU_CTL & RCU_CTL_HXTALSTB)){
  58              		.loc 1 820 0 is_stmt 1
  59 0020 2C4B     		ldr	r3, .L10
  60              	.LVL5:
  61 0022 1B68     		ldr	r3, [r3]
  62 0024 13F4003F 		tst	r3, #131072
  63 0028 00D1     		bne	.L4
  64              	.L5:
  65 002a FEE7     		b	.L5
  66              	.L4:
 821:C:/Users/49542/Desktop/GD32F30x_Demo_Suites_V2.0.0/GD32F30x_Demo_Suites_V2.0.0/GD32F30x_Firmware_Library/CMSIS/GD/GD32F30x/Source\system_gd32f30x.c ****         while(1){
 822:C:/Users/49542/Desktop/GD32F30x_Demo_Suites_V2.0.0/GD32F30x_Demo_Suites_V2.0.0/GD32F30x_Firmware_Library/CMSIS/GD/GD32F30x/Source\system_gd32f30x.c ****         }
 823:C:/Users/49542/Desktop/GD32F30x_Demo_Suites_V2.0.0/GD32F30x_Demo_Suites_V2.0.0/GD32F30x_Firmware_Library/CMSIS/GD/GD32F30x/Source\system_gd32f30x.c ****     }
 824:C:/Users/49542/Desktop/GD32F30x_Demo_Suites_V2.0.0/GD32F30x_Demo_Suites_V2.0.0/GD32F30x_Firmware_Library/CMSIS/GD/GD32F30x/Source\system_gd32f30x.c **** 
 825:C:/Users/49542/Desktop/GD32F30x_Demo_Suites_V2.0.0/GD32F30x_Demo_Suites_V2.0.0/GD32F30x_Firmware_Library/CMSIS/GD/GD32F30x/Source\system_gd32f30x.c ****     RCU_APB1EN |= RCU_APB1EN_PMUEN;
  67              		.loc 1 825 0
  68 002c 2A4A     		ldr	r2, .L10+4
  69 002e 1368     		ldr	r3, [r2]
  70 0030 43F08053 		orr	r3, r3, #268435456
  71 0034 1360     		str	r3, [r2]
 826:C:/Users/49542/Desktop/GD32F30x_Demo_Suites_V2.0.0/GD32F30x_Demo_Suites_V2.0.0/GD32F30x_Firmware_Library/CMSIS/GD/GD32F30x/Source\system_gd32f30x.c ****     PMU_CTL |= PMU_CTL_LDOVS;
  72              		.loc 1 826 0
  73 0036 294A     		ldr	r2, .L10+8
  74 0038 1368     		ldr	r3, [r2]
  75 003a 43F44043 		orr	r3, r3, #49152
  76 003e 1360     		str	r3, [r2]
 827:C:/Users/49542/Desktop/GD32F30x_Demo_Suites_V2.0.0/GD32F30x_Demo_Suites_V2.0.0/GD32F30x_Firmware_Library/CMSIS/GD/GD32F30x/Source\system_gd32f30x.c **** 
 828:C:/Users/49542/Desktop/GD32F30x_Demo_Suites_V2.0.0/GD32F30x_Demo_Suites_V2.0.0/GD32F30x_Firmware_Library/CMSIS/GD/GD32F30x/Source\system_gd32f30x.c ****     /* HXTAL is stable */
 829:C:/Users/49542/Desktop/GD32F30x_Demo_Suites_V2.0.0/GD32F30x_Demo_Suites_V2.0.0/GD32F30x_Firmware_Library/CMSIS/GD/GD32F30x/Source\system_gd32f30x.c ****     /* AHB = SYSCLK */
 830:C:/Users/49542/Desktop/GD32F30x_Demo_Suites_V2.0.0/GD32F30x_Demo_Suites_V2.0.0/GD32F30x_Firmware_Library/CMSIS/GD/GD32F30x/Source\system_gd32f30x.c ****     RCU_CFG0 |= RCU_AHB_CKSYS_DIV1;
  77              		.loc 1 830 0
  78 0040 274B     		ldr	r3, .L10+12
  79 0042 1A68     		ldr	r2, [r3]
  80 0044 1A60     		str	r2, [r3]
 831:C:/Users/49542/Desktop/GD32F30x_Demo_Suites_V2.0.0/GD32F30x_Demo_Suites_V2.0.0/GD32F30x_Firmware_Library/CMSIS/GD/GD32F30x/Source\system_gd32f30x.c ****     /* APB2 = AHB/1 */
 832:C:/Users/49542/Desktop/GD32F30x_Demo_Suites_V2.0.0/GD32F30x_Demo_Suites_V2.0.0/GD32F30x_Firmware_Library/CMSIS/GD/GD32F30x/Source\system_gd32f30x.c ****     RCU_CFG0 |= RCU_APB2_CKAHB_DIV1;
ARM GAS  C:\Users\49542\AppData\Local\Temp\ccCGQ85p.s 			page 17


  81              		.loc 1 832 0
  82 0046 1A68     		ldr	r2, [r3]
  83 0048 1A60     		str	r2, [r3]
 833:C:/Users/49542/Desktop/GD32F30x_Demo_Suites_V2.0.0/GD32F30x_Demo_Suites_V2.0.0/GD32F30x_Firmware_Library/CMSIS/GD/GD32F30x/Source\system_gd32f30x.c ****     /* APB1 = AHB/2 */
 834:C:/Users/49542/Desktop/GD32F30x_Demo_Suites_V2.0.0/GD32F30x_Demo_Suites_V2.0.0/GD32F30x_Firmware_Library/CMSIS/GD/GD32F30x/Source\system_gd32f30x.c ****     RCU_CFG0 |= RCU_APB1_CKAHB_DIV2;
  84              		.loc 1 834 0
  85 004a 1A68     		ldr	r2, [r3]
  86 004c 42F48062 		orr	r2, r2, #1024
  87 0050 1A60     		str	r2, [r3]
 835:C:/Users/49542/Desktop/GD32F30x_Demo_Suites_V2.0.0/GD32F30x_Demo_Suites_V2.0.0/GD32F30x_Firmware_Library/CMSIS/GD/GD32F30x/Source\system_gd32f30x.c **** 
 836:C:/Users/49542/Desktop/GD32F30x_Demo_Suites_V2.0.0/GD32F30x_Demo_Suites_V2.0.0/GD32F30x_Firmware_Library/CMSIS/GD/GD32F30x/Source\system_gd32f30x.c **** #if (defined(GD32F30X_HD) || defined(GD32F30X_XD))
 837:C:/Users/49542/Desktop/GD32F30x_Demo_Suites_V2.0.0/GD32F30x_Demo_Suites_V2.0.0/GD32F30x_Firmware_Library/CMSIS/GD/GD32F30x/Source\system_gd32f30x.c ****     /* select HXTAL/2 as clock source */
 838:C:/Users/49542/Desktop/GD32F30x_Demo_Suites_V2.0.0/GD32F30x_Demo_Suites_V2.0.0/GD32F30x_Firmware_Library/CMSIS/GD/GD32F30x/Source\system_gd32f30x.c ****     RCU_CFG0 &= ~(RCU_CFG0_PLLSEL | RCU_CFG0_PREDV0);
  88              		.loc 1 838 0
  89 0052 1A68     		ldr	r2, [r3]
  90 0054 22F44032 		bic	r2, r2, #196608
  91 0058 1A60     		str	r2, [r3]
 839:C:/Users/49542/Desktop/GD32F30x_Demo_Suites_V2.0.0/GD32F30x_Demo_Suites_V2.0.0/GD32F30x_Firmware_Library/CMSIS/GD/GD32F30x/Source\system_gd32f30x.c ****     RCU_CFG0 |= (RCU_PLLSRC_HXTAL_IRC48M | RCU_CFG0_PREDV0);
  92              		.loc 1 839 0
  93 005a 1A68     		ldr	r2, [r3]
  94 005c 42F44032 		orr	r2, r2, #196608
  95 0060 1A60     		str	r2, [r3]
 840:C:/Users/49542/Desktop/GD32F30x_Demo_Suites_V2.0.0/GD32F30x_Demo_Suites_V2.0.0/GD32F30x_Firmware_Library/CMSIS/GD/GD32F30x/Source\system_gd32f30x.c **** 
 841:C:/Users/49542/Desktop/GD32F30x_Demo_Suites_V2.0.0/GD32F30x_Demo_Suites_V2.0.0/GD32F30x_Firmware_Library/CMSIS/GD/GD32F30x/Source\system_gd32f30x.c ****     /* CK_PLL = (CK_HXTAL/2) * 30 = 120 MHz */
 842:C:/Users/49542/Desktop/GD32F30x_Demo_Suites_V2.0.0/GD32F30x_Demo_Suites_V2.0.0/GD32F30x_Firmware_Library/CMSIS/GD/GD32F30x/Source\system_gd32f30x.c ****     RCU_CFG0 &= ~(RCU_CFG0_PLLMF | RCU_CFG0_PLLMF_4 | RCU_CFG0_PLLMF_5);
  96              		.loc 1 842 0
  97 0062 1A68     		ldr	r2, [r3]
  98 0064 22F09042 		bic	r2, r2, #1207959552
  99 0068 22F47012 		bic	r2, r2, #3932160
 100 006c 1A60     		str	r2, [r3]
 843:C:/Users/49542/Desktop/GD32F30x_Demo_Suites_V2.0.0/GD32F30x_Demo_Suites_V2.0.0/GD32F30x_Firmware_Library/CMSIS/GD/GD32F30x/Source\system_gd32f30x.c ****     RCU_CFG0 |= RCU_PLL_MUL30;
 101              		.loc 1 843 0
 102 006e 1A68     		ldr	r2, [r3]
 103 0070 42F00362 		orr	r2, r2, #137363456
 104 0074 42F48022 		orr	r2, r2, #262144
 105 0078 1A60     		str	r2, [r3]
 844:C:/Users/49542/Desktop/GD32F30x_Demo_Suites_V2.0.0/GD32F30x_Demo_Suites_V2.0.0/GD32F30x_Firmware_Library/CMSIS/GD/GD32F30x/Source\system_gd32f30x.c **** 
 845:C:/Users/49542/Desktop/GD32F30x_Demo_Suites_V2.0.0/GD32F30x_Demo_Suites_V2.0.0/GD32F30x_Firmware_Library/CMSIS/GD/GD32F30x/Source\system_gd32f30x.c **** #elif defined(GD32F30X_CL)
 846:C:/Users/49542/Desktop/GD32F30x_Demo_Suites_V2.0.0/GD32F30x_Demo_Suites_V2.0.0/GD32F30x_Firmware_Library/CMSIS/GD/GD32F30x/Source\system_gd32f30x.c ****     /* CK_PLL = (CK_PREDIV0) * 30 = 120 MHz */ 
 847:C:/Users/49542/Desktop/GD32F30x_Demo_Suites_V2.0.0/GD32F30x_Demo_Suites_V2.0.0/GD32F30x_Firmware_Library/CMSIS/GD/GD32F30x/Source\system_gd32f30x.c ****     RCU_CFG0 &= ~(RCU_CFG0_PLLMF | RCU_CFG0_PLLMF_4 | RCU_CFG0_PLLMF_5);
 848:C:/Users/49542/Desktop/GD32F30x_Demo_Suites_V2.0.0/GD32F30x_Demo_Suites_V2.0.0/GD32F30x_Firmware_Library/CMSIS/GD/GD32F30x/Source\system_gd32f30x.c ****     RCU_CFG0 |= (RCU_PLLSRC_HXTAL_IRC48M | RCU_PLL_MUL30);
 849:C:/Users/49542/Desktop/GD32F30x_Demo_Suites_V2.0.0/GD32F30x_Demo_Suites_V2.0.0/GD32F30x_Firmware_Library/CMSIS/GD/GD32F30x/Source\system_gd32f30x.c **** 
 850:C:/Users/49542/Desktop/GD32F30x_Demo_Suites_V2.0.0/GD32F30x_Demo_Suites_V2.0.0/GD32F30x_Firmware_Library/CMSIS/GD/GD32F30x/Source\system_gd32f30x.c ****     /* CK_PREDIV0 = (CK_HXTAL)/5 *8 /10 = 4 MHz */ 
 851:C:/Users/49542/Desktop/GD32F30x_Demo_Suites_V2.0.0/GD32F30x_Demo_Suites_V2.0.0/GD32F30x_Firmware_Library/CMSIS/GD/GD32F30x/Source\system_gd32f30x.c ****     RCU_CFG1 &= ~(RCU_CFG1_PLLPRESEL | RCU_CFG1_PREDV0SEL | RCU_CFG1_PLL1MF | RCU_CFG1_PREDV1 | RCU
 852:C:/Users/49542/Desktop/GD32F30x_Demo_Suites_V2.0.0/GD32F30x_Demo_Suites_V2.0.0/GD32F30x_Firmware_Library/CMSIS/GD/GD32F30x/Source\system_gd32f30x.c ****     RCU_CFG1 |= (RCU_PLLPRESRC_HXTAL | RCU_PREDV0SRC_CKPLL1 | RCU_PLL1_MUL8 | RCU_PREDV1_DIV5 | RCU
 853:C:/Users/49542/Desktop/GD32F30x_Demo_Suites_V2.0.0/GD32F30x_Demo_Suites_V2.0.0/GD32F30x_Firmware_Library/CMSIS/GD/GD32F30x/Source\system_gd32f30x.c **** 
 854:C:/Users/49542/Desktop/GD32F30x_Demo_Suites_V2.0.0/GD32F30x_Demo_Suites_V2.0.0/GD32F30x_Firmware_Library/CMSIS/GD/GD32F30x/Source\system_gd32f30x.c ****     /* enable PLL1 */
 855:C:/Users/49542/Desktop/GD32F30x_Demo_Suites_V2.0.0/GD32F30x_Demo_Suites_V2.0.0/GD32F30x_Firmware_Library/CMSIS/GD/GD32F30x/Source\system_gd32f30x.c ****     RCU_CTL |= RCU_CTL_PLL1EN;
 856:C:/Users/49542/Desktop/GD32F30x_Demo_Suites_V2.0.0/GD32F30x_Demo_Suites_V2.0.0/GD32F30x_Firmware_Library/CMSIS/GD/GD32F30x/Source\system_gd32f30x.c ****     /* wait till PLL1 is ready */
 857:C:/Users/49542/Desktop/GD32F30x_Demo_Suites_V2.0.0/GD32F30x_Demo_Suites_V2.0.0/GD32F30x_Firmware_Library/CMSIS/GD/GD32F30x/Source\system_gd32f30x.c ****     while((RCU_CTL & RCU_CTL_PLL1STB) == 0U){
 858:C:/Users/49542/Desktop/GD32F30x_Demo_Suites_V2.0.0/GD32F30x_Demo_Suites_V2.0.0/GD32F30x_Firmware_Library/CMSIS/GD/GD32F30x/Source\system_gd32f30x.c ****     }
 859:C:/Users/49542/Desktop/GD32F30x_Demo_Suites_V2.0.0/GD32F30x_Demo_Suites_V2.0.0/GD32F30x_Firmware_Library/CMSIS/GD/GD32F30x/Source\system_gd32f30x.c **** #endif /* GD32F30X_HD and GD32F30X_XD */
 860:C:/Users/49542/Desktop/GD32F30x_Demo_Suites_V2.0.0/GD32F30x_Demo_Suites_V2.0.0/GD32F30x_Firmware_Library/CMSIS/GD/GD32F30x/Source\system_gd32f30x.c **** 
 861:C:/Users/49542/Desktop/GD32F30x_Demo_Suites_V2.0.0/GD32F30x_Demo_Suites_V2.0.0/GD32F30x_Firmware_Library/CMSIS/GD/GD32F30x/Source\system_gd32f30x.c ****     /* enable PLL */
 862:C:/Users/49542/Desktop/GD32F30x_Demo_Suites_V2.0.0/GD32F30x_Demo_Suites_V2.0.0/GD32F30x_Firmware_Library/CMSIS/GD/GD32F30x/Source\system_gd32f30x.c ****     RCU_CTL |= RCU_CTL_PLLEN;
 106              		.loc 1 862 0
 107 007a 164A     		ldr	r2, .L10
ARM GAS  C:\Users\49542\AppData\Local\Temp\ccCGQ85p.s 			page 18


 108 007c 1368     		ldr	r3, [r2]
 109 007e 43F08073 		orr	r3, r3, #16777216
 110 0082 1360     		str	r3, [r2]
 111              	.L6:
 863:C:/Users/49542/Desktop/GD32F30x_Demo_Suites_V2.0.0/GD32F30x_Demo_Suites_V2.0.0/GD32F30x_Firmware_Library/CMSIS/GD/GD32F30x/Source\system_gd32f30x.c **** 
 864:C:/Users/49542/Desktop/GD32F30x_Demo_Suites_V2.0.0/GD32F30x_Demo_Suites_V2.0.0/GD32F30x_Firmware_Library/CMSIS/GD/GD32F30x/Source\system_gd32f30x.c ****     /* wait until PLL is stable */
 865:C:/Users/49542/Desktop/GD32F30x_Demo_Suites_V2.0.0/GD32F30x_Demo_Suites_V2.0.0/GD32F30x_Firmware_Library/CMSIS/GD/GD32F30x/Source\system_gd32f30x.c ****     while(0U == (RCU_CTL & RCU_CTL_PLLSTB)){
 112              		.loc 1 865 0 discriminator 1
 113 0084 134B     		ldr	r3, .L10
 114 0086 1B68     		ldr	r3, [r3]
 115 0088 13F0007F 		tst	r3, #33554432
 116 008c FAD0     		beq	.L6
 866:C:/Users/49542/Desktop/GD32F30x_Demo_Suites_V2.0.0/GD32F30x_Demo_Suites_V2.0.0/GD32F30x_Firmware_Library/CMSIS/GD/GD32F30x/Source\system_gd32f30x.c ****     }
 867:C:/Users/49542/Desktop/GD32F30x_Demo_Suites_V2.0.0/GD32F30x_Demo_Suites_V2.0.0/GD32F30x_Firmware_Library/CMSIS/GD/GD32F30x/Source\system_gd32f30x.c **** 
 868:C:/Users/49542/Desktop/GD32F30x_Demo_Suites_V2.0.0/GD32F30x_Demo_Suites_V2.0.0/GD32F30x_Firmware_Library/CMSIS/GD/GD32F30x/Source\system_gd32f30x.c ****     /* enable the high-drive to extend the clock frequency to 120 MHz */
 869:C:/Users/49542/Desktop/GD32F30x_Demo_Suites_V2.0.0/GD32F30x_Demo_Suites_V2.0.0/GD32F30x_Firmware_Library/CMSIS/GD/GD32F30x/Source\system_gd32f30x.c ****     PMU_CTL |= PMU_CTL_HDEN;
 117              		.loc 1 869 0
 118 008e 134A     		ldr	r2, .L10+8
 119 0090 1368     		ldr	r3, [r2]
 120 0092 43F48033 		orr	r3, r3, #65536
 121 0096 1360     		str	r3, [r2]
 122              	.L7:
 870:C:/Users/49542/Desktop/GD32F30x_Demo_Suites_V2.0.0/GD32F30x_Demo_Suites_V2.0.0/GD32F30x_Firmware_Library/CMSIS/GD/GD32F30x/Source\system_gd32f30x.c ****     while(0U == (PMU_CS & PMU_CS_HDRF)){
 123              		.loc 1 870 0 discriminator 1
 124 0098 124B     		ldr	r3, .L10+16
 125 009a 1B68     		ldr	r3, [r3]
 126 009c 13F4803F 		tst	r3, #65536
 127 00a0 FAD0     		beq	.L7
 871:C:/Users/49542/Desktop/GD32F30x_Demo_Suites_V2.0.0/GD32F30x_Demo_Suites_V2.0.0/GD32F30x_Firmware_Library/CMSIS/GD/GD32F30x/Source\system_gd32f30x.c ****     }
 872:C:/Users/49542/Desktop/GD32F30x_Demo_Suites_V2.0.0/GD32F30x_Demo_Suites_V2.0.0/GD32F30x_Firmware_Library/CMSIS/GD/GD32F30x/Source\system_gd32f30x.c **** 
 873:C:/Users/49542/Desktop/GD32F30x_Demo_Suites_V2.0.0/GD32F30x_Demo_Suites_V2.0.0/GD32F30x_Firmware_Library/CMSIS/GD/GD32F30x/Source\system_gd32f30x.c ****     /* select the high-drive mode */
 874:C:/Users/49542/Desktop/GD32F30x_Demo_Suites_V2.0.0/GD32F30x_Demo_Suites_V2.0.0/GD32F30x_Firmware_Library/CMSIS/GD/GD32F30x/Source\system_gd32f30x.c ****     PMU_CTL |= PMU_CTL_HDS;
 128              		.loc 1 874 0
 129 00a2 0E4A     		ldr	r2, .L10+8
 130 00a4 1368     		ldr	r3, [r2]
 131 00a6 43F40033 		orr	r3, r3, #131072
 132 00aa 1360     		str	r3, [r2]
 133              	.L8:
 875:C:/Users/49542/Desktop/GD32F30x_Demo_Suites_V2.0.0/GD32F30x_Demo_Suites_V2.0.0/GD32F30x_Firmware_Library/CMSIS/GD/GD32F30x/Source\system_gd32f30x.c ****     while(0U == (PMU_CS & PMU_CS_HDSRF)){
 134              		.loc 1 875 0 discriminator 1
 135 00ac 0D4B     		ldr	r3, .L10+16
 136 00ae 1B68     		ldr	r3, [r3]
 137 00b0 13F4003F 		tst	r3, #131072
 138 00b4 FAD0     		beq	.L8
 876:C:/Users/49542/Desktop/GD32F30x_Demo_Suites_V2.0.0/GD32F30x_Demo_Suites_V2.0.0/GD32F30x_Firmware_Library/CMSIS/GD/GD32F30x/Source\system_gd32f30x.c ****     }
 877:C:/Users/49542/Desktop/GD32F30x_Demo_Suites_V2.0.0/GD32F30x_Demo_Suites_V2.0.0/GD32F30x_Firmware_Library/CMSIS/GD/GD32F30x/Source\system_gd32f30x.c **** 
 878:C:/Users/49542/Desktop/GD32F30x_Demo_Suites_V2.0.0/GD32F30x_Demo_Suites_V2.0.0/GD32F30x_Firmware_Library/CMSIS/GD/GD32F30x/Source\system_gd32f30x.c ****     /* select PLL as system clock */
 879:C:/Users/49542/Desktop/GD32F30x_Demo_Suites_V2.0.0/GD32F30x_Demo_Suites_V2.0.0/GD32F30x_Firmware_Library/CMSIS/GD/GD32F30x/Source\system_gd32f30x.c ****     RCU_CFG0 &= ~RCU_CFG0_SCS;
 139              		.loc 1 879 0
 140 00b6 0A4B     		ldr	r3, .L10+12
 141 00b8 1A68     		ldr	r2, [r3]
 142 00ba 22F00302 		bic	r2, r2, #3
 143 00be 1A60     		str	r2, [r3]
 880:C:/Users/49542/Desktop/GD32F30x_Demo_Suites_V2.0.0/GD32F30x_Demo_Suites_V2.0.0/GD32F30x_Firmware_Library/CMSIS/GD/GD32F30x/Source\system_gd32f30x.c ****     RCU_CFG0 |= RCU_CKSYSSRC_PLL;
 144              		.loc 1 880 0
 145 00c0 1A68     		ldr	r2, [r3]
 146 00c2 42F00202 		orr	r2, r2, #2
ARM GAS  C:\Users\49542\AppData\Local\Temp\ccCGQ85p.s 			page 19


 147 00c6 1A60     		str	r2, [r3]
 148              	.L9:
 881:C:/Users/49542/Desktop/GD32F30x_Demo_Suites_V2.0.0/GD32F30x_Demo_Suites_V2.0.0/GD32F30x_Firmware_Library/CMSIS/GD/GD32F30x/Source\system_gd32f30x.c **** 
 882:C:/Users/49542/Desktop/GD32F30x_Demo_Suites_V2.0.0/GD32F30x_Demo_Suites_V2.0.0/GD32F30x_Firmware_Library/CMSIS/GD/GD32F30x/Source\system_gd32f30x.c ****     /* wait until PLL is selected as system clock */
 883:C:/Users/49542/Desktop/GD32F30x_Demo_Suites_V2.0.0/GD32F30x_Demo_Suites_V2.0.0/GD32F30x_Firmware_Library/CMSIS/GD/GD32F30x/Source\system_gd32f30x.c ****     while(0U == (RCU_CFG0 & RCU_SCSS_PLL)){
 149              		.loc 1 883 0 discriminator 1
 150 00c8 054B     		ldr	r3, .L10+12
 151 00ca 1B68     		ldr	r3, [r3]
 152 00cc 13F0080F 		tst	r3, #8
 153 00d0 FAD0     		beq	.L9
 884:C:/Users/49542/Desktop/GD32F30x_Demo_Suites_V2.0.0/GD32F30x_Demo_Suites_V2.0.0/GD32F30x_Firmware_Library/CMSIS/GD/GD32F30x/Source\system_gd32f30x.c ****     }
 885:C:/Users/49542/Desktop/GD32F30x_Demo_Suites_V2.0.0/GD32F30x_Demo_Suites_V2.0.0/GD32F30x_Firmware_Library/CMSIS/GD/GD32F30x/Source\system_gd32f30x.c **** }
 154              		.loc 1 885 0
 155 00d2 7047     		bx	lr
 156              	.L11:
 157              		.align	2
 158              	.L10:
 159 00d4 00100240 		.word	1073876992
 160 00d8 1C100240 		.word	1073877020
 161 00dc 00700040 		.word	1073770496
 162 00e0 04100240 		.word	1073876996
 163 00e4 04700040 		.word	1073770500
 164              		.cfi_endproc
 165              	.LFE118:
 167              		.section	.text.system_clock_config,"ax",%progbits
 168              		.align	1
 169              		.syntax unified
 170              		.thumb
 171              		.thumb_func
 172              		.fpu fpv4-sp-d16
 174              	system_clock_config:
 175              	.LFB117:
 143:C:/Users/49542/Desktop/GD32F30x_Demo_Suites_V2.0.0/GD32F30x_Demo_Suites_V2.0.0/GD32F30x_Firmware_Library/CMSIS/GD/GD32F30x/Source\system_gd32f30x.c **** #ifdef __SYSTEM_CLOCK_IRC8M
 176              		.loc 1 143 0
 177              		.cfi_startproc
 178              		@ args = 0, pretend = 0, frame = 0
 179              		@ frame_needed = 0, uses_anonymous_args = 0
 180 0000 08B5     		push	{r3, lr}
 181              	.LCFI0:
 182              		.cfi_def_cfa_offset 8
 183              		.cfi_offset 3, -8
 184              		.cfi_offset 14, -4
 164:C:/Users/49542/Desktop/GD32F30x_Demo_Suites_V2.0.0/GD32F30x_Demo_Suites_V2.0.0/GD32F30x_Firmware_Library/CMSIS/GD/GD32F30x/Source\system_gd32f30x.c **** #endif /* __SYSTEM_CLOCK_IRC8M */
 185              		.loc 1 164 0
 186 0002 FFF7FEFF 		bl	system_clock_120m_hxtal
 187              	.LVL6:
 166:C:/Users/49542/Desktop/GD32F30x_Demo_Suites_V2.0.0/GD32F30x_Demo_Suites_V2.0.0/GD32F30x_Firmware_Library/CMSIS/GD/GD32F30x/Source\system_gd32f30x.c **** 
 188              		.loc 1 166 0
 189 0006 08BD     		pop	{r3, pc}
 190              		.cfi_endproc
 191              	.LFE117:
 193              		.section	.text.SystemInit,"ax",%progbits
 194              		.align	1
 195              		.global	SystemInit
 196              		.syntax unified
 197              		.thumb
 198              		.thumb_func
ARM GAS  C:\Users\49542\AppData\Local\Temp\ccCGQ85p.s 			page 20


 199              		.fpu fpv4-sp-d16
 201              	SystemInit:
 202              	.LFB116:
 105:C:/Users/49542/Desktop/GD32F30x_Demo_Suites_V2.0.0/GD32F30x_Demo_Suites_V2.0.0/GD32F30x_Firmware_Library/CMSIS/GD/GD32F30x/Source\system_gd32f30x.c ****   /* FPU settings */
 203              		.loc 1 105 0
 204              		.cfi_startproc
 205              		@ args = 0, pretend = 0, frame = 0
 206              		@ frame_needed = 0, uses_anonymous_args = 0
 207 0000 08B5     		push	{r3, lr}
 208              	.LCFI1:
 209              		.cfi_def_cfa_offset 8
 210              		.cfi_offset 3, -8
 211              		.cfi_offset 14, -4
 108:C:/Users/49542/Desktop/GD32F30x_Demo_Suites_V2.0.0/GD32F30x_Demo_Suites_V2.0.0/GD32F30x_Firmware_Library/CMSIS/GD/GD32F30x/Source\system_gd32f30x.c **** #endif
 212              		.loc 1 108 0
 213 0002 114A     		ldr	r2, .L16
 214 0004 D2F88830 		ldr	r3, [r2, #136]
 215 0008 43F47003 		orr	r3, r3, #15728640
 216 000c C2F88830 		str	r3, [r2, #136]
 112:C:/Users/49542/Desktop/GD32F30x_Demo_Suites_V2.0.0/GD32F30x_Demo_Suites_V2.0.0/GD32F30x_Firmware_Library/CMSIS/GD/GD32F30x/Source\system_gd32f30x.c **** 
 217              		.loc 1 112 0
 218 0010 0E4B     		ldr	r3, .L16+4
 219 0012 1A68     		ldr	r2, [r3]
 220 0014 42F00102 		orr	r2, r2, #1
 221 0018 1A60     		str	r2, [r3]
 115:C:/Users/49542/Desktop/GD32F30x_Demo_Suites_V2.0.0/GD32F30x_Demo_Suites_V2.0.0/GD32F30x_Firmware_Library/CMSIS/GD/GD32F30x/Source\system_gd32f30x.c ****     RCU_CFG1 = 0x00000000U;
 222              		.loc 1 115 0
 223 001a 0022     		movs	r2, #0
 224 001c 0C49     		ldr	r1, .L16+8
 225 001e 0A60     		str	r2, [r1]
 116:C:/Users/49542/Desktop/GD32F30x_Demo_Suites_V2.0.0/GD32F30x_Demo_Suites_V2.0.0/GD32F30x_Firmware_Library/CMSIS/GD/GD32F30x/Source\system_gd32f30x.c **** 
 226              		.loc 1 116 0
 227 0020 2831     		adds	r1, r1, #40
 228 0022 0A60     		str	r2, [r1]
 120:C:/Users/49542/Desktop/GD32F30x_Demo_Suites_V2.0.0/GD32F30x_Demo_Suites_V2.0.0/GD32F30x_Firmware_Library/CMSIS/GD/GD32F30x/Source\system_gd32f30x.c ****     /* disable all interrupts */
 229              		.loc 1 120 0
 230 0024 1A68     		ldr	r2, [r3]
 231 0026 22F08472 		bic	r2, r2, #17301504
 232 002a 22F48032 		bic	r2, r2, #65536
 233 002e 1A60     		str	r2, [r3]
 122:C:/Users/49542/Desktop/GD32F30x_Demo_Suites_V2.0.0/GD32F30x_Demo_Suites_V2.0.0/GD32F30x_Firmware_Library/CMSIS/GD/GD32F30x/Source\system_gd32f30x.c **** #elif defined(GD32F30X_CL)
 234              		.loc 1 122 0
 235 0030 084A     		ldr	r2, .L16+12
 236 0032 4FF41F01 		mov	r1, #10420224
 237 0036 1160     		str	r1, [r2]
 131:C:/Users/49542/Desktop/GD32F30x_Demo_Suites_V2.0.0/GD32F30x_Demo_Suites_V2.0.0/GD32F30x_Firmware_Library/CMSIS/GD/GD32F30x/Source\system_gd32f30x.c **** 
 238              		.loc 1 131 0
 239 0038 1A68     		ldr	r2, [r3]
 240 003a 22F48022 		bic	r2, r2, #262144
 241 003e 1A60     		str	r2, [r3]
 134:C:/Users/49542/Desktop/GD32F30x_Demo_Suites_V2.0.0/GD32F30x_Demo_Suites_V2.0.0/GD32F30x_Firmware_Library/CMSIS/GD/GD32F30x/Source\system_gd32f30x.c **** }
 242              		.loc 1 134 0
 243 0040 FFF7FEFF 		bl	system_clock_config
 244              	.LVL7:
 135:C:/Users/49542/Desktop/GD32F30x_Demo_Suites_V2.0.0/GD32F30x_Demo_Suites_V2.0.0/GD32F30x_Firmware_Library/CMSIS/GD/GD32F30x/Source\system_gd32f30x.c **** /*!
 245              		.loc 1 135 0
 246 0044 08BD     		pop	{r3, pc}
ARM GAS  C:\Users\49542\AppData\Local\Temp\ccCGQ85p.s 			page 21


 247              	.L17:
 248 0046 00BF     		.align	2
 249              	.L16:
 250 0048 00ED00E0 		.word	-536810240
 251 004c 00100240 		.word	1073876992
 252 0050 04100240 		.word	1073876996
 253 0054 08100240 		.word	1073877000
 254              		.cfi_endproc
 255              	.LFE116:
 257              		.section	.text.SystemCoreClockUpdate,"ax",%progbits
 258              		.align	1
 259              		.global	SystemCoreClockUpdate
 260              		.syntax unified
 261              		.thumb
 262              		.thumb_func
 263              		.fpu fpv4-sp-d16
 265              	SystemCoreClockUpdate:
 266              	.LFB119:
 886:C:/Users/49542/Desktop/GD32F30x_Demo_Suites_V2.0.0/GD32F30x_Demo_Suites_V2.0.0/GD32F30x_Firmware_Library/CMSIS/GD/GD32F30x/Source\system_gd32f30x.c **** #endif /* __SYSTEM_CLOCK_IRC8M */
 887:C:/Users/49542/Desktop/GD32F30x_Demo_Suites_V2.0.0/GD32F30x_Demo_Suites_V2.0.0/GD32F30x_Firmware_Library/CMSIS/GD/GD32F30x/Source\system_gd32f30x.c **** 
 888:C:/Users/49542/Desktop/GD32F30x_Demo_Suites_V2.0.0/GD32F30x_Demo_Suites_V2.0.0/GD32F30x_Firmware_Library/CMSIS/GD/GD32F30x/Source\system_gd32f30x.c **** /*!
 889:C:/Users/49542/Desktop/GD32F30x_Demo_Suites_V2.0.0/GD32F30x_Demo_Suites_V2.0.0/GD32F30x_Firmware_Library/CMSIS/GD/GD32F30x/Source\system_gd32f30x.c ****     \brief      update the SystemCoreClock with current core clock retrieved from cpu registers
 890:C:/Users/49542/Desktop/GD32F30x_Demo_Suites_V2.0.0/GD32F30x_Demo_Suites_V2.0.0/GD32F30x_Firmware_Library/CMSIS/GD/GD32F30x/Source\system_gd32f30x.c ****     \param[in]  none
 891:C:/Users/49542/Desktop/GD32F30x_Demo_Suites_V2.0.0/GD32F30x_Demo_Suites_V2.0.0/GD32F30x_Firmware_Library/CMSIS/GD/GD32F30x/Source\system_gd32f30x.c ****     \param[out] none
 892:C:/Users/49542/Desktop/GD32F30x_Demo_Suites_V2.0.0/GD32F30x_Demo_Suites_V2.0.0/GD32F30x_Firmware_Library/CMSIS/GD/GD32F30x/Source\system_gd32f30x.c ****     \retval     none
 893:C:/Users/49542/Desktop/GD32F30x_Demo_Suites_V2.0.0/GD32F30x_Demo_Suites_V2.0.0/GD32F30x_Firmware_Library/CMSIS/GD/GD32F30x/Source\system_gd32f30x.c **** */
 894:C:/Users/49542/Desktop/GD32F30x_Demo_Suites_V2.0.0/GD32F30x_Demo_Suites_V2.0.0/GD32F30x_Firmware_Library/CMSIS/GD/GD32F30x/Source\system_gd32f30x.c **** void SystemCoreClockUpdate (void)
 895:C:/Users/49542/Desktop/GD32F30x_Demo_Suites_V2.0.0/GD32F30x_Demo_Suites_V2.0.0/GD32F30x_Firmware_Library/CMSIS/GD/GD32F30x/Source\system_gd32f30x.c **** {
 267              		.loc 1 895 0
 268              		.cfi_startproc
 269              		@ args = 0, pretend = 0, frame = 0
 270              		@ frame_needed = 0, uses_anonymous_args = 0
 271              		@ link register save eliminated.
 896:C:/Users/49542/Desktop/GD32F30x_Demo_Suites_V2.0.0/GD32F30x_Demo_Suites_V2.0.0/GD32F30x_Firmware_Library/CMSIS/GD/GD32F30x/Source\system_gd32f30x.c ****     uint32_t sws;
 897:C:/Users/49542/Desktop/GD32F30x_Demo_Suites_V2.0.0/GD32F30x_Demo_Suites_V2.0.0/GD32F30x_Firmware_Library/CMSIS/GD/GD32F30x/Source\system_gd32f30x.c ****     uint32_t pllsel, pllpresel, predv0sel, pllmf,ck_src;
 898:C:/Users/49542/Desktop/GD32F30x_Demo_Suites_V2.0.0/GD32F30x_Demo_Suites_V2.0.0/GD32F30x_Firmware_Library/CMSIS/GD/GD32F30x/Source\system_gd32f30x.c **** #ifdef GD32F30X_CL
 899:C:/Users/49542/Desktop/GD32F30x_Demo_Suites_V2.0.0/GD32F30x_Demo_Suites_V2.0.0/GD32F30x_Firmware_Library/CMSIS/GD/GD32F30x/Source\system_gd32f30x.c ****     uint32_t predv0, predv1, pll1mf;
 900:C:/Users/49542/Desktop/GD32F30x_Demo_Suites_V2.0.0/GD32F30x_Demo_Suites_V2.0.0/GD32F30x_Firmware_Library/CMSIS/GD/GD32F30x/Source\system_gd32f30x.c **** #endif /* GD32F30X_CL */
 901:C:/Users/49542/Desktop/GD32F30x_Demo_Suites_V2.0.0/GD32F30x_Demo_Suites_V2.0.0/GD32F30x_Firmware_Library/CMSIS/GD/GD32F30x/Source\system_gd32f30x.c **** 
 902:C:/Users/49542/Desktop/GD32F30x_Demo_Suites_V2.0.0/GD32F30x_Demo_Suites_V2.0.0/GD32F30x_Firmware_Library/CMSIS/GD/GD32F30x/Source\system_gd32f30x.c ****     sws = GET_BITS(RCU_CFG0, 2, 3);
 272              		.loc 1 902 0
 273 0000 234B     		ldr	r3, .L36
 274 0002 1B68     		ldr	r3, [r3]
 275 0004 C3F38103 		ubfx	r3, r3, #2, #2
 276              	.LVL8:
 903:C:/Users/49542/Desktop/GD32F30x_Demo_Suites_V2.0.0/GD32F30x_Demo_Suites_V2.0.0/GD32F30x_Firmware_Library/CMSIS/GD/GD32F30x/Source\system_gd32f30x.c ****     switch(sws){
 277              		.loc 1 903 0
 278 0008 012B     		cmp	r3, #1
 279 000a 0AD0     		beq	.L20
 280 000c 2BB1     		cbz	r3, .L21
 281 000e 022B     		cmp	r3, #2
 282 0010 0BD0     		beq	.L22
 904:C:/Users/49542/Desktop/GD32F30x_Demo_Suites_V2.0.0/GD32F30x_Demo_Suites_V2.0.0/GD32F30x_Firmware_Library/CMSIS/GD/GD32F30x/Source\system_gd32f30x.c ****     /* IRC8M is selected as CK_SYS */
 905:C:/Users/49542/Desktop/GD32F30x_Demo_Suites_V2.0.0/GD32F30x_Demo_Suites_V2.0.0/GD32F30x_Firmware_Library/CMSIS/GD/GD32F30x/Source\system_gd32f30x.c ****     case SEL_IRC8M:
 906:C:/Users/49542/Desktop/GD32F30x_Demo_Suites_V2.0.0/GD32F30x_Demo_Suites_V2.0.0/GD32F30x_Firmware_Library/CMSIS/GD/GD32F30x/Source\system_gd32f30x.c ****         SystemCoreClock = IRC8M_VALUE;
 907:C:/Users/49542/Desktop/GD32F30x_Demo_Suites_V2.0.0/GD32F30x_Demo_Suites_V2.0.0/GD32F30x_Firmware_Library/CMSIS/GD/GD32F30x/Source\system_gd32f30x.c ****         break;
 908:C:/Users/49542/Desktop/GD32F30x_Demo_Suites_V2.0.0/GD32F30x_Demo_Suites_V2.0.0/GD32F30x_Firmware_Library/CMSIS/GD/GD32F30x/Source\system_gd32f30x.c ****     /* HXTAL is selected as CK_SYS */
ARM GAS  C:\Users\49542\AppData\Local\Temp\ccCGQ85p.s 			page 22


 909:C:/Users/49542/Desktop/GD32F30x_Demo_Suites_V2.0.0/GD32F30x_Demo_Suites_V2.0.0/GD32F30x_Firmware_Library/CMSIS/GD/GD32F30x/Source\system_gd32f30x.c ****     case SEL_HXTAL:
 910:C:/Users/49542/Desktop/GD32F30x_Demo_Suites_V2.0.0/GD32F30x_Demo_Suites_V2.0.0/GD32F30x_Firmware_Library/CMSIS/GD/GD32F30x/Source\system_gd32f30x.c ****         SystemCoreClock = HXTAL_VALUE;
 911:C:/Users/49542/Desktop/GD32F30x_Demo_Suites_V2.0.0/GD32F30x_Demo_Suites_V2.0.0/GD32F30x_Firmware_Library/CMSIS/GD/GD32F30x/Source\system_gd32f30x.c ****         break;
 912:C:/Users/49542/Desktop/GD32F30x_Demo_Suites_V2.0.0/GD32F30x_Demo_Suites_V2.0.0/GD32F30x_Firmware_Library/CMSIS/GD/GD32F30x/Source\system_gd32f30x.c ****     /* PLL is selected as CK_SYS */
 913:C:/Users/49542/Desktop/GD32F30x_Demo_Suites_V2.0.0/GD32F30x_Demo_Suites_V2.0.0/GD32F30x_Firmware_Library/CMSIS/GD/GD32F30x/Source\system_gd32f30x.c ****     case SEL_PLL:
 914:C:/Users/49542/Desktop/GD32F30x_Demo_Suites_V2.0.0/GD32F30x_Demo_Suites_V2.0.0/GD32F30x_Firmware_Library/CMSIS/GD/GD32F30x/Source\system_gd32f30x.c ****         /* PLL clock source selection, HXTAL, IRC48M or IRC8M/2 */
 915:C:/Users/49542/Desktop/GD32F30x_Demo_Suites_V2.0.0/GD32F30x_Demo_Suites_V2.0.0/GD32F30x_Firmware_Library/CMSIS/GD/GD32F30x/Source\system_gd32f30x.c ****         pllsel = (RCU_CFG0 & RCU_CFG0_PLLSEL);
 916:C:/Users/49542/Desktop/GD32F30x_Demo_Suites_V2.0.0/GD32F30x_Demo_Suites_V2.0.0/GD32F30x_Firmware_Library/CMSIS/GD/GD32F30x/Source\system_gd32f30x.c **** 
 917:C:/Users/49542/Desktop/GD32F30x_Demo_Suites_V2.0.0/GD32F30x_Demo_Suites_V2.0.0/GD32F30x_Firmware_Library/CMSIS/GD/GD32F30x/Source\system_gd32f30x.c ****         if (RCU_PLLSRC_HXTAL_IRC48M == pllsel) {
 918:C:/Users/49542/Desktop/GD32F30x_Demo_Suites_V2.0.0/GD32F30x_Demo_Suites_V2.0.0/GD32F30x_Firmware_Library/CMSIS/GD/GD32F30x/Source\system_gd32f30x.c ****             /* PLL clock source is HXTAL or IRC48M */
 919:C:/Users/49542/Desktop/GD32F30x_Demo_Suites_V2.0.0/GD32F30x_Demo_Suites_V2.0.0/GD32F30x_Firmware_Library/CMSIS/GD/GD32F30x/Source\system_gd32f30x.c ****             pllpresel = (RCU_CFG1 & RCU_CFG1_PLLPRESEL);
 920:C:/Users/49542/Desktop/GD32F30x_Demo_Suites_V2.0.0/GD32F30x_Demo_Suites_V2.0.0/GD32F30x_Firmware_Library/CMSIS/GD/GD32F30x/Source\system_gd32f30x.c ****             
 921:C:/Users/49542/Desktop/GD32F30x_Demo_Suites_V2.0.0/GD32F30x_Demo_Suites_V2.0.0/GD32F30x_Firmware_Library/CMSIS/GD/GD32F30x/Source\system_gd32f30x.c ****             if(RCU_PLLPRESRC_HXTAL == pllpresel){
 922:C:/Users/49542/Desktop/GD32F30x_Demo_Suites_V2.0.0/GD32F30x_Demo_Suites_V2.0.0/GD32F30x_Firmware_Library/CMSIS/GD/GD32F30x/Source\system_gd32f30x.c ****                 /* PLL clock source is HXTAL */
 923:C:/Users/49542/Desktop/GD32F30x_Demo_Suites_V2.0.0/GD32F30x_Demo_Suites_V2.0.0/GD32F30x_Firmware_Library/CMSIS/GD/GD32F30x/Source\system_gd32f30x.c ****                 ck_src = HXTAL_VALUE;
 924:C:/Users/49542/Desktop/GD32F30x_Demo_Suites_V2.0.0/GD32F30x_Demo_Suites_V2.0.0/GD32F30x_Firmware_Library/CMSIS/GD/GD32F30x/Source\system_gd32f30x.c ****             }else{
 925:C:/Users/49542/Desktop/GD32F30x_Demo_Suites_V2.0.0/GD32F30x_Demo_Suites_V2.0.0/GD32F30x_Firmware_Library/CMSIS/GD/GD32F30x/Source\system_gd32f30x.c ****                 /* PLL clock source is IRC48 */
 926:C:/Users/49542/Desktop/GD32F30x_Demo_Suites_V2.0.0/GD32F30x_Demo_Suites_V2.0.0/GD32F30x_Firmware_Library/CMSIS/GD/GD32F30x/Source\system_gd32f30x.c ****                 ck_src = IRC48M_VALUE;
 927:C:/Users/49542/Desktop/GD32F30x_Demo_Suites_V2.0.0/GD32F30x_Demo_Suites_V2.0.0/GD32F30x_Firmware_Library/CMSIS/GD/GD32F30x/Source\system_gd32f30x.c ****             }
 928:C:/Users/49542/Desktop/GD32F30x_Demo_Suites_V2.0.0/GD32F30x_Demo_Suites_V2.0.0/GD32F30x_Firmware_Library/CMSIS/GD/GD32F30x/Source\system_gd32f30x.c **** 
 929:C:/Users/49542/Desktop/GD32F30x_Demo_Suites_V2.0.0/GD32F30x_Demo_Suites_V2.0.0/GD32F30x_Firmware_Library/CMSIS/GD/GD32F30x/Source\system_gd32f30x.c **** #if (defined(GD32F30X_HD) || defined(GD32F30X_XD))
 930:C:/Users/49542/Desktop/GD32F30x_Demo_Suites_V2.0.0/GD32F30x_Demo_Suites_V2.0.0/GD32F30x_Firmware_Library/CMSIS/GD/GD32F30x/Source\system_gd32f30x.c ****             predv0sel = (RCU_CFG0 & RCU_CFG0_PREDV0);
 931:C:/Users/49542/Desktop/GD32F30x_Demo_Suites_V2.0.0/GD32F30x_Demo_Suites_V2.0.0/GD32F30x_Firmware_Library/CMSIS/GD/GD32F30x/Source\system_gd32f30x.c ****             /* PREDV0 input source clock divided by 2 */
 932:C:/Users/49542/Desktop/GD32F30x_Demo_Suites_V2.0.0/GD32F30x_Demo_Suites_V2.0.0/GD32F30x_Firmware_Library/CMSIS/GD/GD32F30x/Source\system_gd32f30x.c ****             if(RCU_CFG0_PREDV0 == predv0sel){
 933:C:/Users/49542/Desktop/GD32F30x_Demo_Suites_V2.0.0/GD32F30x_Demo_Suites_V2.0.0/GD32F30x_Firmware_Library/CMSIS/GD/GD32F30x/Source\system_gd32f30x.c ****                 ck_src = HXTAL_VALUE/2U;
 934:C:/Users/49542/Desktop/GD32F30x_Demo_Suites_V2.0.0/GD32F30x_Demo_Suites_V2.0.0/GD32F30x_Firmware_Library/CMSIS/GD/GD32F30x/Source\system_gd32f30x.c ****             }
 935:C:/Users/49542/Desktop/GD32F30x_Demo_Suites_V2.0.0/GD32F30x_Demo_Suites_V2.0.0/GD32F30x_Firmware_Library/CMSIS/GD/GD32F30x/Source\system_gd32f30x.c **** #elif defined(GD32F30X_CL)
 936:C:/Users/49542/Desktop/GD32F30x_Demo_Suites_V2.0.0/GD32F30x_Demo_Suites_V2.0.0/GD32F30x_Firmware_Library/CMSIS/GD/GD32F30x/Source\system_gd32f30x.c ****             predv0sel = (RCU_CFG1 & RCU_CFG1_PREDV0SEL);
 937:C:/Users/49542/Desktop/GD32F30x_Demo_Suites_V2.0.0/GD32F30x_Demo_Suites_V2.0.0/GD32F30x_Firmware_Library/CMSIS/GD/GD32F30x/Source\system_gd32f30x.c ****             /* source clock use PLL1 */
 938:C:/Users/49542/Desktop/GD32F30x_Demo_Suites_V2.0.0/GD32F30x_Demo_Suites_V2.0.0/GD32F30x_Firmware_Library/CMSIS/GD/GD32F30x/Source\system_gd32f30x.c ****             if(RCU_PREDV0SRC_CKPLL1 == predv0sel){
 939:C:/Users/49542/Desktop/GD32F30x_Demo_Suites_V2.0.0/GD32F30x_Demo_Suites_V2.0.0/GD32F30x_Firmware_Library/CMSIS/GD/GD32F30x/Source\system_gd32f30x.c ****                 predv1 = ((RCU_CFG1 & RCU_CFG1_PREDV1) >> 4) + 1U;
 940:C:/Users/49542/Desktop/GD32F30x_Demo_Suites_V2.0.0/GD32F30x_Demo_Suites_V2.0.0/GD32F30x_Firmware_Library/CMSIS/GD/GD32F30x/Source\system_gd32f30x.c ****                 pll1mf = ((RCU_CFG1 & RCU_CFG1_PLL1MF) >> 8) + 2U;
 941:C:/Users/49542/Desktop/GD32F30x_Demo_Suites_V2.0.0/GD32F30x_Demo_Suites_V2.0.0/GD32F30x_Firmware_Library/CMSIS/GD/GD32F30x/Source\system_gd32f30x.c ****                 if(17U == pll1mf){
 942:C:/Users/49542/Desktop/GD32F30x_Demo_Suites_V2.0.0/GD32F30x_Demo_Suites_V2.0.0/GD32F30x_Firmware_Library/CMSIS/GD/GD32F30x/Source\system_gd32f30x.c ****                     pll1mf = 20U;
 943:C:/Users/49542/Desktop/GD32F30x_Demo_Suites_V2.0.0/GD32F30x_Demo_Suites_V2.0.0/GD32F30x_Firmware_Library/CMSIS/GD/GD32F30x/Source\system_gd32f30x.c ****                 }
 944:C:/Users/49542/Desktop/GD32F30x_Demo_Suites_V2.0.0/GD32F30x_Demo_Suites_V2.0.0/GD32F30x_Firmware_Library/CMSIS/GD/GD32F30x/Source\system_gd32f30x.c ****                 ck_src = (ck_src/predv1)*pll1mf;
 945:C:/Users/49542/Desktop/GD32F30x_Demo_Suites_V2.0.0/GD32F30x_Demo_Suites_V2.0.0/GD32F30x_Firmware_Library/CMSIS/GD/GD32F30x/Source\system_gd32f30x.c ****             }
 946:C:/Users/49542/Desktop/GD32F30x_Demo_Suites_V2.0.0/GD32F30x_Demo_Suites_V2.0.0/GD32F30x_Firmware_Library/CMSIS/GD/GD32F30x/Source\system_gd32f30x.c ****             predv0 = (RCU_CFG1 & RCU_CFG1_PREDV0) + 1U;
 947:C:/Users/49542/Desktop/GD32F30x_Demo_Suites_V2.0.0/GD32F30x_Demo_Suites_V2.0.0/GD32F30x_Firmware_Library/CMSIS/GD/GD32F30x/Source\system_gd32f30x.c ****             ck_src /= predv0;
 948:C:/Users/49542/Desktop/GD32F30x_Demo_Suites_V2.0.0/GD32F30x_Demo_Suites_V2.0.0/GD32F30x_Firmware_Library/CMSIS/GD/GD32F30x/Source\system_gd32f30x.c **** #endif /* GD32F30X_HD and GD32F30X_XD */
 949:C:/Users/49542/Desktop/GD32F30x_Demo_Suites_V2.0.0/GD32F30x_Demo_Suites_V2.0.0/GD32F30x_Firmware_Library/CMSIS/GD/GD32F30x/Source\system_gd32f30x.c ****         }else{
 950:C:/Users/49542/Desktop/GD32F30x_Demo_Suites_V2.0.0/GD32F30x_Demo_Suites_V2.0.0/GD32F30x_Firmware_Library/CMSIS/GD/GD32F30x/Source\system_gd32f30x.c ****             /* PLL clock source is IRC8M/2 */
 951:C:/Users/49542/Desktop/GD32F30x_Demo_Suites_V2.0.0/GD32F30x_Demo_Suites_V2.0.0/GD32F30x_Firmware_Library/CMSIS/GD/GD32F30x/Source\system_gd32f30x.c ****             ck_src = IRC8M_VALUE/2U;
 952:C:/Users/49542/Desktop/GD32F30x_Demo_Suites_V2.0.0/GD32F30x_Demo_Suites_V2.0.0/GD32F30x_Firmware_Library/CMSIS/GD/GD32F30x/Source\system_gd32f30x.c ****         }
 953:C:/Users/49542/Desktop/GD32F30x_Demo_Suites_V2.0.0/GD32F30x_Demo_Suites_V2.0.0/GD32F30x_Firmware_Library/CMSIS/GD/GD32F30x/Source\system_gd32f30x.c **** 
 954:C:/Users/49542/Desktop/GD32F30x_Demo_Suites_V2.0.0/GD32F30x_Demo_Suites_V2.0.0/GD32F30x_Firmware_Library/CMSIS/GD/GD32F30x/Source\system_gd32f30x.c ****         /* PLL multiplication factor */
 955:C:/Users/49542/Desktop/GD32F30x_Demo_Suites_V2.0.0/GD32F30x_Demo_Suites_V2.0.0/GD32F30x_Firmware_Library/CMSIS/GD/GD32F30x/Source\system_gd32f30x.c ****         pllmf = GET_BITS(RCU_CFG0, 18, 21);
 956:C:/Users/49542/Desktop/GD32F30x_Demo_Suites_V2.0.0/GD32F30x_Demo_Suites_V2.0.0/GD32F30x_Firmware_Library/CMSIS/GD/GD32F30x/Source\system_gd32f30x.c **** 
 957:C:/Users/49542/Desktop/GD32F30x_Demo_Suites_V2.0.0/GD32F30x_Demo_Suites_V2.0.0/GD32F30x_Firmware_Library/CMSIS/GD/GD32F30x/Source\system_gd32f30x.c ****         if((RCU_CFG0 & RCU_CFG0_PLLMF_4)){
 958:C:/Users/49542/Desktop/GD32F30x_Demo_Suites_V2.0.0/GD32F30x_Demo_Suites_V2.0.0/GD32F30x_Firmware_Library/CMSIS/GD/GD32F30x/Source\system_gd32f30x.c ****             pllmf |= 0x10U;
 959:C:/Users/49542/Desktop/GD32F30x_Demo_Suites_V2.0.0/GD32F30x_Demo_Suites_V2.0.0/GD32F30x_Firmware_Library/CMSIS/GD/GD32F30x/Source\system_gd32f30x.c ****         }
 960:C:/Users/49542/Desktop/GD32F30x_Demo_Suites_V2.0.0/GD32F30x_Demo_Suites_V2.0.0/GD32F30x_Firmware_Library/CMSIS/GD/GD32F30x/Source\system_gd32f30x.c ****         if((RCU_CFG0 & RCU_CFG0_PLLMF_5)){
 961:C:/Users/49542/Desktop/GD32F30x_Demo_Suites_V2.0.0/GD32F30x_Demo_Suites_V2.0.0/GD32F30x_Firmware_Library/CMSIS/GD/GD32F30x/Source\system_gd32f30x.c ****             pllmf |= 0x20U;
 962:C:/Users/49542/Desktop/GD32F30x_Demo_Suites_V2.0.0/GD32F30x_Demo_Suites_V2.0.0/GD32F30x_Firmware_Library/CMSIS/GD/GD32F30x/Source\system_gd32f30x.c ****         }
 963:C:/Users/49542/Desktop/GD32F30x_Demo_Suites_V2.0.0/GD32F30x_Demo_Suites_V2.0.0/GD32F30x_Firmware_Library/CMSIS/GD/GD32F30x/Source\system_gd32f30x.c **** 
 964:C:/Users/49542/Desktop/GD32F30x_Demo_Suites_V2.0.0/GD32F30x_Demo_Suites_V2.0.0/GD32F30x_Firmware_Library/CMSIS/GD/GD32F30x/Source\system_gd32f30x.c ****         if( pllmf >= 15U){
 965:C:/Users/49542/Desktop/GD32F30x_Demo_Suites_V2.0.0/GD32F30x_Demo_Suites_V2.0.0/GD32F30x_Firmware_Library/CMSIS/GD/GD32F30x/Source\system_gd32f30x.c ****             pllmf += 1U;
ARM GAS  C:\Users\49542\AppData\Local\Temp\ccCGQ85p.s 			page 23


 966:C:/Users/49542/Desktop/GD32F30x_Demo_Suites_V2.0.0/GD32F30x_Demo_Suites_V2.0.0/GD32F30x_Firmware_Library/CMSIS/GD/GD32F30x/Source\system_gd32f30x.c ****         }else{
 967:C:/Users/49542/Desktop/GD32F30x_Demo_Suites_V2.0.0/GD32F30x_Demo_Suites_V2.0.0/GD32F30x_Firmware_Library/CMSIS/GD/GD32F30x/Source\system_gd32f30x.c ****             pllmf += 2U;
 968:C:/Users/49542/Desktop/GD32F30x_Demo_Suites_V2.0.0/GD32F30x_Demo_Suites_V2.0.0/GD32F30x_Firmware_Library/CMSIS/GD/GD32F30x/Source\system_gd32f30x.c ****         }
 969:C:/Users/49542/Desktop/GD32F30x_Demo_Suites_V2.0.0/GD32F30x_Demo_Suites_V2.0.0/GD32F30x_Firmware_Library/CMSIS/GD/GD32F30x/Source\system_gd32f30x.c ****         if(pllmf > 61U){
 970:C:/Users/49542/Desktop/GD32F30x_Demo_Suites_V2.0.0/GD32F30x_Demo_Suites_V2.0.0/GD32F30x_Firmware_Library/CMSIS/GD/GD32F30x/Source\system_gd32f30x.c ****             pllmf = 63U;
 971:C:/Users/49542/Desktop/GD32F30x_Demo_Suites_V2.0.0/GD32F30x_Demo_Suites_V2.0.0/GD32F30x_Firmware_Library/CMSIS/GD/GD32F30x/Source\system_gd32f30x.c ****         }
 972:C:/Users/49542/Desktop/GD32F30x_Demo_Suites_V2.0.0/GD32F30x_Demo_Suites_V2.0.0/GD32F30x_Firmware_Library/CMSIS/GD/GD32F30x/Source\system_gd32f30x.c ****         SystemCoreClock = ck_src*pllmf;
 973:C:/Users/49542/Desktop/GD32F30x_Demo_Suites_V2.0.0/GD32F30x_Demo_Suites_V2.0.0/GD32F30x_Firmware_Library/CMSIS/GD/GD32F30x/Source\system_gd32f30x.c ****     #ifdef GD32F30X_CL
 974:C:/Users/49542/Desktop/GD32F30x_Demo_Suites_V2.0.0/GD32F30x_Demo_Suites_V2.0.0/GD32F30x_Firmware_Library/CMSIS/GD/GD32F30x/Source\system_gd32f30x.c ****         if(15U == pllmf){
 975:C:/Users/49542/Desktop/GD32F30x_Demo_Suites_V2.0.0/GD32F30x_Demo_Suites_V2.0.0/GD32F30x_Firmware_Library/CMSIS/GD/GD32F30x/Source\system_gd32f30x.c ****             SystemCoreClock = ck_src*6U + ck_src/2U;
 976:C:/Users/49542/Desktop/GD32F30x_Demo_Suites_V2.0.0/GD32F30x_Demo_Suites_V2.0.0/GD32F30x_Firmware_Library/CMSIS/GD/GD32F30x/Source\system_gd32f30x.c ****         }
 977:C:/Users/49542/Desktop/GD32F30x_Demo_Suites_V2.0.0/GD32F30x_Demo_Suites_V2.0.0/GD32F30x_Firmware_Library/CMSIS/GD/GD32F30x/Source\system_gd32f30x.c ****     #endif /* GD32F30X_CL */
 978:C:/Users/49542/Desktop/GD32F30x_Demo_Suites_V2.0.0/GD32F30x_Demo_Suites_V2.0.0/GD32F30x_Firmware_Library/CMSIS/GD/GD32F30x/Source\system_gd32f30x.c **** 
 979:C:/Users/49542/Desktop/GD32F30x_Demo_Suites_V2.0.0/GD32F30x_Demo_Suites_V2.0.0/GD32F30x_Firmware_Library/CMSIS/GD/GD32F30x/Source\system_gd32f30x.c ****         break;
 980:C:/Users/49542/Desktop/GD32F30x_Demo_Suites_V2.0.0/GD32F30x_Demo_Suites_V2.0.0/GD32F30x_Firmware_Library/CMSIS/GD/GD32F30x/Source\system_gd32f30x.c ****     /* IRC8M is selected as CK_SYS */
 981:C:/Users/49542/Desktop/GD32F30x_Demo_Suites_V2.0.0/GD32F30x_Demo_Suites_V2.0.0/GD32F30x_Firmware_Library/CMSIS/GD/GD32F30x/Source\system_gd32f30x.c ****     default:
 982:C:/Users/49542/Desktop/GD32F30x_Demo_Suites_V2.0.0/GD32F30x_Demo_Suites_V2.0.0/GD32F30x_Firmware_Library/CMSIS/GD/GD32F30x/Source\system_gd32f30x.c ****         SystemCoreClock = IRC8M_VALUE;
 283              		.loc 1 982 0
 284 0012 204B     		ldr	r3, .L36+4
 285              	.LVL9:
 286 0014 204A     		ldr	r2, .L36+8
 287 0016 1A60     		str	r2, [r3]
 983:C:/Users/49542/Desktop/GD32F30x_Demo_Suites_V2.0.0/GD32F30x_Demo_Suites_V2.0.0/GD32F30x_Firmware_Library/CMSIS/GD/GD32F30x/Source\system_gd32f30x.c ****         break;
 984:C:/Users/49542/Desktop/GD32F30x_Demo_Suites_V2.0.0/GD32F30x_Demo_Suites_V2.0.0/GD32F30x_Firmware_Library/CMSIS/GD/GD32F30x/Source\system_gd32f30x.c ****     }
 985:C:/Users/49542/Desktop/GD32F30x_Demo_Suites_V2.0.0/GD32F30x_Demo_Suites_V2.0.0/GD32F30x_Firmware_Library/CMSIS/GD/GD32F30x/Source\system_gd32f30x.c **** 
 986:C:/Users/49542/Desktop/GD32F30x_Demo_Suites_V2.0.0/GD32F30x_Demo_Suites_V2.0.0/GD32F30x_Firmware_Library/CMSIS/GD/GD32F30x/Source\system_gd32f30x.c **** }
 288              		.loc 1 986 0
 289 0018 7047     		bx	lr
 290              	.LVL10:
 291              	.L21:
 906:C:/Users/49542/Desktop/GD32F30x_Demo_Suites_V2.0.0/GD32F30x_Demo_Suites_V2.0.0/GD32F30x_Firmware_Library/CMSIS/GD/GD32F30x/Source\system_gd32f30x.c ****         break;
 292              		.loc 1 906 0
 293 001a 1E4B     		ldr	r3, .L36+4
 294              	.LVL11:
 295 001c 1E4A     		ldr	r2, .L36+8
 296 001e 1A60     		str	r2, [r3]
 907:C:/Users/49542/Desktop/GD32F30x_Demo_Suites_V2.0.0/GD32F30x_Demo_Suites_V2.0.0/GD32F30x_Firmware_Library/CMSIS/GD/GD32F30x/Source\system_gd32f30x.c ****     /* HXTAL is selected as CK_SYS */
 297              		.loc 1 907 0
 298 0020 7047     		bx	lr
 299              	.LVL12:
 300              	.L20:
 910:C:/Users/49542/Desktop/GD32F30x_Demo_Suites_V2.0.0/GD32F30x_Demo_Suites_V2.0.0/GD32F30x_Firmware_Library/CMSIS/GD/GD32F30x/Source\system_gd32f30x.c ****         break;
 301              		.loc 1 910 0
 302 0022 1C4B     		ldr	r3, .L36+4
 303              	.LVL13:
 304 0024 1C4A     		ldr	r2, .L36+8
 305 0026 1A60     		str	r2, [r3]
 911:C:/Users/49542/Desktop/GD32F30x_Demo_Suites_V2.0.0/GD32F30x_Demo_Suites_V2.0.0/GD32F30x_Firmware_Library/CMSIS/GD/GD32F30x/Source\system_gd32f30x.c ****     /* PLL is selected as CK_SYS */
 306              		.loc 1 911 0
 307 0028 7047     		bx	lr
 308              	.LVL14:
 309              	.L22:
 915:C:/Users/49542/Desktop/GD32F30x_Demo_Suites_V2.0.0/GD32F30x_Demo_Suites_V2.0.0/GD32F30x_Firmware_Library/CMSIS/GD/GD32F30x/Source\system_gd32f30x.c **** 
 310              		.loc 1 915 0
 311 002a 194B     		ldr	r3, .L36
 312              	.LVL15:
 313 002c 1B68     		ldr	r3, [r3]
ARM GAS  C:\Users\49542\AppData\Local\Temp\ccCGQ85p.s 			page 24


 314              	.LVL16:
 917:C:/Users/49542/Desktop/GD32F30x_Demo_Suites_V2.0.0/GD32F30x_Demo_Suites_V2.0.0/GD32F30x_Firmware_Library/CMSIS/GD/GD32F30x/Source\system_gd32f30x.c ****             /* PLL clock source is HXTAL or IRC48M */
 315              		.loc 1 917 0
 316 002e 13F4803F 		tst	r3, #65536
 317 0032 0ED0     		beq	.L31
 919:C:/Users/49542/Desktop/GD32F30x_Demo_Suites_V2.0.0/GD32F30x_Demo_Suites_V2.0.0/GD32F30x_Firmware_Library/CMSIS/GD/GD32F30x/Source\system_gd32f30x.c ****             
 318              		.loc 1 919 0
 319 0034 194B     		ldr	r3, .L36+12
 320              	.LVL17:
 321 0036 1B68     		ldr	r3, [r3]
 322              	.LVL18:
 921:C:/Users/49542/Desktop/GD32F30x_Demo_Suites_V2.0.0/GD32F30x_Demo_Suites_V2.0.0/GD32F30x_Firmware_Library/CMSIS/GD/GD32F30x/Source\system_gd32f30x.c ****                 /* PLL clock source is HXTAL */
 323              		.loc 1 921 0
 324 0038 13F0804F 		tst	r3, #1073741824
 325 003c 07D1     		bne	.L32
 923:C:/Users/49542/Desktop/GD32F30x_Demo_Suites_V2.0.0/GD32F30x_Demo_Suites_V2.0.0/GD32F30x_Firmware_Library/CMSIS/GD/GD32F30x/Source\system_gd32f30x.c ****             }else{
 326              		.loc 1 923 0
 327 003e 164A     		ldr	r2, .L36+8
 328              	.L25:
 329              	.LVL19:
 930:C:/Users/49542/Desktop/GD32F30x_Demo_Suites_V2.0.0/GD32F30x_Demo_Suites_V2.0.0/GD32F30x_Firmware_Library/CMSIS/GD/GD32F30x/Source\system_gd32f30x.c ****             /* PREDV0 input source clock divided by 2 */
 330              		.loc 1 930 0
 331 0040 134B     		ldr	r3, .L36
 332              	.LVL20:
 333 0042 1B68     		ldr	r3, [r3]
 334              	.LVL21:
 932:C:/Users/49542/Desktop/GD32F30x_Demo_Suites_V2.0.0/GD32F30x_Demo_Suites_V2.0.0/GD32F30x_Firmware_Library/CMSIS/GD/GD32F30x/Source\system_gd32f30x.c ****                 ck_src = HXTAL_VALUE/2U;
 335              		.loc 1 932 0
 336 0044 13F4003F 		tst	r3, #131072
 337 0048 04D0     		beq	.L24
 933:C:/Users/49542/Desktop/GD32F30x_Demo_Suites_V2.0.0/GD32F30x_Demo_Suites_V2.0.0/GD32F30x_Firmware_Library/CMSIS/GD/GD32F30x/Source\system_gd32f30x.c ****             }
 338              		.loc 1 933 0
 339 004a 154A     		ldr	r2, .L36+16
 340              	.LVL22:
 341 004c 02E0     		b	.L24
 342              	.LVL23:
 343              	.L32:
 926:C:/Users/49542/Desktop/GD32F30x_Demo_Suites_V2.0.0/GD32F30x_Demo_Suites_V2.0.0/GD32F30x_Firmware_Library/CMSIS/GD/GD32F30x/Source\system_gd32f30x.c ****             }
 344              		.loc 1 926 0
 345 004e 154A     		ldr	r2, .L36+20
 346 0050 F6E7     		b	.L25
 347              	.LVL24:
 348              	.L31:
 951:C:/Users/49542/Desktop/GD32F30x_Demo_Suites_V2.0.0/GD32F30x_Demo_Suites_V2.0.0/GD32F30x_Firmware_Library/CMSIS/GD/GD32F30x/Source\system_gd32f30x.c ****         }
 349              		.loc 1 951 0
 350 0052 134A     		ldr	r2, .L36+16
 351              	.LVL25:
 352              	.L24:
 955:C:/Users/49542/Desktop/GD32F30x_Demo_Suites_V2.0.0/GD32F30x_Demo_Suites_V2.0.0/GD32F30x_Firmware_Library/CMSIS/GD/GD32F30x/Source\system_gd32f30x.c **** 
 353              		.loc 1 955 0
 354 0054 0E49     		ldr	r1, .L36
 355 0056 0B68     		ldr	r3, [r1]
 356 0058 C3F38343 		ubfx	r3, r3, #18, #4
 357              	.LVL26:
 957:C:/Users/49542/Desktop/GD32F30x_Demo_Suites_V2.0.0/GD32F30x_Demo_Suites_V2.0.0/GD32F30x_Firmware_Library/CMSIS/GD/GD32F30x/Source\system_gd32f30x.c ****             pllmf |= 0x10U;
 358              		.loc 1 957 0
 359 005c 0968     		ldr	r1, [r1]
ARM GAS  C:\Users\49542\AppData\Local\Temp\ccCGQ85p.s 			page 25


 360 005e 11F0006F 		tst	r1, #134217728
 361 0062 01D0     		beq	.L26
 958:C:/Users/49542/Desktop/GD32F30x_Demo_Suites_V2.0.0/GD32F30x_Demo_Suites_V2.0.0/GD32F30x_Firmware_Library/CMSIS/GD/GD32F30x/Source\system_gd32f30x.c ****         }
 362              		.loc 1 958 0
 363 0064 43F01003 		orr	r3, r3, #16
 364              	.LVL27:
 365              	.L26:
 960:C:/Users/49542/Desktop/GD32F30x_Demo_Suites_V2.0.0/GD32F30x_Demo_Suites_V2.0.0/GD32F30x_Firmware_Library/CMSIS/GD/GD32F30x/Source\system_gd32f30x.c ****             pllmf |= 0x20U;
 366              		.loc 1 960 0
 367 0068 0949     		ldr	r1, .L36
 368 006a 0968     		ldr	r1, [r1]
 369 006c 11F0804F 		tst	r1, #1073741824
 370 0070 01D0     		beq	.L27
 961:C:/Users/49542/Desktop/GD32F30x_Demo_Suites_V2.0.0/GD32F30x_Demo_Suites_V2.0.0/GD32F30x_Firmware_Library/CMSIS/GD/GD32F30x/Source\system_gd32f30x.c ****         }
 371              		.loc 1 961 0
 372 0072 43F02003 		orr	r3, r3, #32
 373              	.LVL28:
 374              	.L27:
 964:C:/Users/49542/Desktop/GD32F30x_Demo_Suites_V2.0.0/GD32F30x_Demo_Suites_V2.0.0/GD32F30x_Firmware_Library/CMSIS/GD/GD32F30x/Source\system_gd32f30x.c ****             pllmf += 1U;
 375              		.loc 1 964 0
 376 0076 0E2B     		cmp	r3, #14
 377 0078 08D9     		bls	.L28
 965:C:/Users/49542/Desktop/GD32F30x_Demo_Suites_V2.0.0/GD32F30x_Demo_Suites_V2.0.0/GD32F30x_Firmware_Library/CMSIS/GD/GD32F30x/Source\system_gd32f30x.c ****         }else{
 378              		.loc 1 965 0
 379 007a 0133     		adds	r3, r3, #1
 380              	.LVL29:
 381              	.L29:
 969:C:/Users/49542/Desktop/GD32F30x_Demo_Suites_V2.0.0/GD32F30x_Demo_Suites_V2.0.0/GD32F30x_Firmware_Library/CMSIS/GD/GD32F30x/Source\system_gd32f30x.c ****             pllmf = 63U;
 382              		.loc 1 969 0
 383 007c 3D2B     		cmp	r3, #61
 384 007e 00D9     		bls	.L30
 970:C:/Users/49542/Desktop/GD32F30x_Demo_Suites_V2.0.0/GD32F30x_Demo_Suites_V2.0.0/GD32F30x_Firmware_Library/CMSIS/GD/GD32F30x/Source\system_gd32f30x.c ****         }
 385              		.loc 1 970 0
 386 0080 3F23     		movs	r3, #63
 387              	.LVL30:
 388              	.L30:
 972:C:/Users/49542/Desktop/GD32F30x_Demo_Suites_V2.0.0/GD32F30x_Demo_Suites_V2.0.0/GD32F30x_Firmware_Library/CMSIS/GD/GD32F30x/Source\system_gd32f30x.c ****     #ifdef GD32F30X_CL
 389              		.loc 1 972 0
 390 0082 02FB03F3 		mul	r3, r2, r3
 391              	.LVL31:
 392 0086 034A     		ldr	r2, .L36+4
 393              	.LVL32:
 394 0088 1360     		str	r3, [r2]
 979:C:/Users/49542/Desktop/GD32F30x_Demo_Suites_V2.0.0/GD32F30x_Demo_Suites_V2.0.0/GD32F30x_Firmware_Library/CMSIS/GD/GD32F30x/Source\system_gd32f30x.c ****     /* IRC8M is selected as CK_SYS */
 395              		.loc 1 979 0
 396 008a 7047     		bx	lr
 397              	.LVL33:
 398              	.L28:
 967:C:/Users/49542/Desktop/GD32F30x_Demo_Suites_V2.0.0/GD32F30x_Demo_Suites_V2.0.0/GD32F30x_Firmware_Library/CMSIS/GD/GD32F30x/Source\system_gd32f30x.c ****         }
 399              		.loc 1 967 0
 400 008c 0233     		adds	r3, r3, #2
 401              	.LVL34:
 402 008e F5E7     		b	.L29
 403              	.L37:
 404              		.align	2
 405              	.L36:
 406 0090 04100240 		.word	1073876996
ARM GAS  C:\Users\49542\AppData\Local\Temp\ccCGQ85p.s 			page 26


 407 0094 00000000 		.word	.LANCHOR0
 408 0098 00127A00 		.word	8000000
 409 009c 2C100240 		.word	1073877036
 410 00a0 00093D00 		.word	4000000
 411 00a4 006CDC02 		.word	48000000
 412              		.cfi_endproc
 413              	.LFE119:
 415              		.global	SystemCoreClock
 416              		.section	.data.SystemCoreClock,"aw",%progbits
 417              		.align	2
 418              		.set	.LANCHOR0,. + 0
 421              	SystemCoreClock:
 422 0000 000E2707 		.word	120000000
 423              		.text
 424              	.Letext0:
 425              		.file 2 "c:\\users\\49542\\opensourcetools\\gnu tools arm embedded\\7 2018-q2-update\\arm-none-eab
 426              		.file 3 "c:\\users\\49542\\opensourcetools\\gnu tools arm embedded\\7 2018-q2-update\\arm-none-eab
 427              		.file 4 "C:/Users/49542/Desktop/GD32F30x_Demo_Suites_V2.0.0/GD32F30x_Demo_Suites_V2.0.0/GD32F30x_F
 428              		.file 5 "C:/Users/49542/Desktop/GD32F30x_Demo_Suites_V2.0.0/GD32F30x_Demo_Suites_V2.0.0/GD32F30x_F
 429              		.file 6 "c:\\users\\49542\\opensourcetools\\gnu tools arm embedded\\7 2018-q2-update\\arm-none-eab
 430              		.file 7 "c:\\users\\49542\\opensourcetools\\gnu tools arm embedded\\7 2018-q2-update\\arm-none-eab
 431              		.file 8 "c:\\users\\49542\\opensourcetools\\gnu tools arm embedded\\7 2018-q2-update\\lib\\gcc\\ar
 432              		.file 9 "c:\\users\\49542\\opensourcetools\\gnu tools arm embedded\\7 2018-q2-update\\arm-none-eab
 433              		.file 10 "c:\\users\\49542\\opensourcetools\\gnu tools arm embedded\\7 2018-q2-update\\arm-none-ea
 434              		.file 11 "C:/Users/49542/Desktop/GD32F30x_Demo_Suites_V2.0.0/GD32F30x_Demo_Suites_V2.0.0/GD32F30x_
ARM GAS  C:\Users\49542\AppData\Local\Temp\ccCGQ85p.s 			page 27


DEFINED SYMBOLS
                            *ABS*:00000000 system_gd32f30x.c
C:\Users\49542\AppData\Local\Temp\ccCGQ85p.s:18     .text.system_clock_120m_hxtal:00000000 $t
C:\Users\49542\AppData\Local\Temp\ccCGQ85p.s:24     .text.system_clock_120m_hxtal:00000000 system_clock_120m_hxtal
C:\Users\49542\AppData\Local\Temp\ccCGQ85p.s:159    .text.system_clock_120m_hxtal:000000d4 $d
C:\Users\49542\AppData\Local\Temp\ccCGQ85p.s:168    .text.system_clock_config:00000000 $t
C:\Users\49542\AppData\Local\Temp\ccCGQ85p.s:174    .text.system_clock_config:00000000 system_clock_config
C:\Users\49542\AppData\Local\Temp\ccCGQ85p.s:194    .text.SystemInit:00000000 $t
C:\Users\49542\AppData\Local\Temp\ccCGQ85p.s:201    .text.SystemInit:00000000 SystemInit
C:\Users\49542\AppData\Local\Temp\ccCGQ85p.s:250    .text.SystemInit:00000048 $d
C:\Users\49542\AppData\Local\Temp\ccCGQ85p.s:258    .text.SystemCoreClockUpdate:00000000 $t
C:\Users\49542\AppData\Local\Temp\ccCGQ85p.s:265    .text.SystemCoreClockUpdate:00000000 SystemCoreClockUpdate
C:\Users\49542\AppData\Local\Temp\ccCGQ85p.s:406    .text.SystemCoreClockUpdate:00000090 $d
C:\Users\49542\AppData\Local\Temp\ccCGQ85p.s:421    .data.SystemCoreClock:00000000 SystemCoreClock
C:\Users\49542\AppData\Local\Temp\ccCGQ85p.s:417    .data.SystemCoreClock:00000000 $d

NO UNDEFINED SYMBOLS
