ARM GAS  C:\Users\49542\AppData\Local\Temp\ccBQ2p1n.s 			page 1


   1              		.cpu cortex-m4
   2              		.eabi_attribute 27, 1
   3              		.eabi_attribute 28, 1
   4              		.eabi_attribute 20, 1
   5              		.eabi_attribute 21, 1
   6              		.eabi_attribute 23, 3
   7              		.eabi_attribute 24, 1
   8              		.eabi_attribute 25, 1
   9              		.eabi_attribute 26, 1
  10              		.eabi_attribute 30, 6
  11              		.eabi_attribute 34, 1
  12              		.eabi_attribute 18, 4
  13              		.file	"BearPi-IoT_gd32f303.c"
  14              		.text
  15              	.Ltext0:
  16              		.cfi_sections	.debug_frame
  17              		.section	.data.GPIO_PORT,"aw",%progbits
  18              		.align	2
  21              	GPIO_PORT:
  22 0000 000C0140 		.word	1073810432
  23 0004 00000000 		.space	12
  23      00000000 
  23      00000000 
  24              		.section	.data.GPIO_PIN,"aw",%progbits
  25              		.align	2
  28              	GPIO_PIN:
  29 0000 01000000 		.word	1
  30 0004 00000000 		.space	12
  30      00000000 
  30      00000000 
  31              		.section	.data.COM_CLK,"aw",%progbits
  32              		.align	2
  35              	COM_CLK:
  36 0000 0E06     		.short	1550
  37 0002 1107     		.short	1809
  38              		.section	.data.COM_TX_PIN,"aw",%progbits
  39              		.align	2
  42              	COM_TX_PIN:
  43 0000 00020000 		.word	512
  44 0004 04000000 		.word	4
  45              		.section	.data.COM_RX_PIN,"aw",%progbits
  46              		.align	2
  49              	COM_RX_PIN:
  50 0000 00040000 		.word	1024
  51 0004 08000000 		.word	8
  52              		.section	.data.COM_GPIO_PORT,"aw",%progbits
  53              		.align	2
  56              	COM_GPIO_PORT:
  57 0000 00080140 		.word	1073809408
  58 0004 00080140 		.word	1073809408
  59              		.section	.data.COM_GPIO_CLK,"aw",%progbits
  60              		.align	2
  63              	COM_GPIO_CLK:
  64 0000 0206     		.short	1538
  65 0002 0206     		.short	1538
  66              		.section	.data.GPIO_CLK,"aw",%progbits
  67              		.align	2
ARM GAS  C:\Users\49542\AppData\Local\Temp\ccBQ2p1n.s 			page 2


  70              	GPIO_CLK:
  71 0000 0306     		.short	1539
  72 0002 00000000 		.space	6
  72      0000
  73              		.section	.data.KEY_PORT,"aw",%progbits
  74              		.align	2
  77              	KEY_PORT:
  78 0000 00080140 		.word	1073809408
  79 0004 00080140 		.word	1073809408
  80 0008 00000000 		.space	4
  81              		.section	.data.KEY_PIN,"aw",%progbits
  82              		.align	2
  85              	KEY_PIN:
  86 0000 02000000 		.word	2
  87 0004 01000000 		.word	1
  88 0008 00000000 		.space	4
  89              		.section	.data.KEY_CLK,"aw",%progbits
  90              		.align	2
  93              	KEY_CLK:
  94 0000 0206     		.short	1538
  95 0002 0206     		.short	1538
  96 0004 0000     		.space	2
  97              		.section	.data.KEY_EXTI_LINE,"aw",%progbits
  98              		.align	2
 101              	KEY_EXTI_LINE:
 102 0000 02000000 		.word	2
 103 0004 01000000 		.word	1
 104 0008 00000000 		.space	4
 105              		.section	.bss.KEY_PORT_SOURCE,"aw",%nobits
 106              		.align	2
 109              	KEY_PORT_SOURCE:
 110 0000 000000   		.space	3
 111              		.section	.data.KEY_PIN_SOURCE,"aw",%progbits
 112              		.align	2
 115              	KEY_PIN_SOURCE:
 116 0000 01       		.byte	1
 117 0001 00       		.byte	0
 118 0002 00       		.space	1
 119              		.section	.data.KEY_IRQn,"aw",%progbits
 120              		.align	2
 123              	KEY_IRQn:
 124 0000 07       		.byte	7
 125 0001 06       		.byte	6
 126 0002 00       		.space	1
 127              		.section	.text.gd_eval_led_init,"ax",%progbits
 128              		.align	1
 129              		.global	gd_eval_led_init
 130              		.syntax unified
 131              		.thumb
 132              		.thumb_func
 133              		.fpu fpv4-sp-d16
 135              	gd_eval_led_init:
 136              	.LFB119:
 137              		.file 1 "C:/Users/49542/Desktop/GD32F30x_Demo_Suites_V2.0.0/GD32F30x_Demo_Suites_V2.0.0/BearPi-IoT
   1:C:/Users/49542/Desktop/GD32F30x_Demo_Suites_V2.0.0/GD32F30x_Demo_Suites_V2.0.0/BearPi-IoT_GD32F303_Demo_Suites/Utilities\BearPi-IoT_gd32f303.c **** /*!
   2:C:/Users/49542/Desktop/GD32F30x_Demo_Suites_V2.0.0/GD32F30x_Demo_Suites_V2.0.0/BearPi-IoT_GD32F303_Demo_Suites/Utilities\BearPi-IoT_gd32f303.c ****     \file  BearPi-IoT_gd32f303.c
   3:C:/Users/49542/Desktop/GD32F30x_Demo_Suites_V2.0.0/GD32F30x_Demo_Suites_V2.0.0/BearPi-IoT_GD32F303_Demo_Suites/Utilities\BearPi-IoT_gd32f303.c ****     \brief firmware functions to manage leds, keys, COM ports
ARM GAS  C:\Users\49542\AppData\Local\Temp\ccBQ2p1n.s 			page 3


   4:C:/Users/49542/Desktop/GD32F30x_Demo_Suites_V2.0.0/GD32F30x_Demo_Suites_V2.0.0/BearPi-IoT_GD32F303_Demo_Suites/Utilities\BearPi-IoT_gd32f303.c **** 
   5:C:/Users/49542/Desktop/GD32F30x_Demo_Suites_V2.0.0/GD32F30x_Demo_Suites_V2.0.0/BearPi-IoT_GD32F303_Demo_Suites/Utilities\BearPi-IoT_gd32f303.c ****     \version 2019-10-30, V1.0.0, demo for BearPi-IoT_GD32F30x
   6:C:/Users/49542/Desktop/GD32F30x_Demo_Suites_V2.0.0/GD32F30x_Demo_Suites_V2.0.0/BearPi-IoT_GD32F303_Demo_Suites/Utilities\BearPi-IoT_gd32f303.c **** 
   7:C:/Users/49542/Desktop/GD32F30x_Demo_Suites_V2.0.0/GD32F30x_Demo_Suites_V2.0.0/BearPi-IoT_GD32F303_Demo_Suites/Utilities\BearPi-IoT_gd32f303.c **** */
   8:C:/Users/49542/Desktop/GD32F30x_Demo_Suites_V2.0.0/GD32F30x_Demo_Suites_V2.0.0/BearPi-IoT_GD32F303_Demo_Suites/Utilities\BearPi-IoT_gd32f303.c **** 
   9:C:/Users/49542/Desktop/GD32F30x_Demo_Suites_V2.0.0/GD32F30x_Demo_Suites_V2.0.0/BearPi-IoT_GD32F303_Demo_Suites/Utilities\BearPi-IoT_gd32f303.c **** /*
  10:C:/Users/49542/Desktop/GD32F30x_Demo_Suites_V2.0.0/GD32F30x_Demo_Suites_V2.0.0/BearPi-IoT_GD32F303_Demo_Suites/Utilities\BearPi-IoT_gd32f303.c ****     Copyright (c) 2019, BearPi LIMITED.
  11:C:/Users/49542/Desktop/GD32F30x_Demo_Suites_V2.0.0/GD32F30x_Demo_Suites_V2.0.0/BearPi-IoT_GD32F303_Demo_Suites/Utilities\BearPi-IoT_gd32f303.c **** 
  12:C:/Users/49542/Desktop/GD32F30x_Demo_Suites_V2.0.0/GD32F30x_Demo_Suites_V2.0.0/BearPi-IoT_GD32F303_Demo_Suites/Utilities\BearPi-IoT_gd32f303.c ****     All rights reserved.
  13:C:/Users/49542/Desktop/GD32F30x_Demo_Suites_V2.0.0/GD32F30x_Demo_Suites_V2.0.0/BearPi-IoT_GD32F303_Demo_Suites/Utilities\BearPi-IoT_gd32f303.c **** 
  14:C:/Users/49542/Desktop/GD32F30x_Demo_Suites_V2.0.0/GD32F30x_Demo_Suites_V2.0.0/BearPi-IoT_GD32F303_Demo_Suites/Utilities\BearPi-IoT_gd32f303.c ****     Redistribution and use in source and binary forms, with or without modification, 
  15:C:/Users/49542/Desktop/GD32F30x_Demo_Suites_V2.0.0/GD32F30x_Demo_Suites_V2.0.0/BearPi-IoT_GD32F303_Demo_Suites/Utilities\BearPi-IoT_gd32f303.c **** are permitted provided that the following conditions are met:
  16:C:/Users/49542/Desktop/GD32F30x_Demo_Suites_V2.0.0/GD32F30x_Demo_Suites_V2.0.0/BearPi-IoT_GD32F303_Demo_Suites/Utilities\BearPi-IoT_gd32f303.c **** 
  17:C:/Users/49542/Desktop/GD32F30x_Demo_Suites_V2.0.0/GD32F30x_Demo_Suites_V2.0.0/BearPi-IoT_GD32F303_Demo_Suites/Utilities\BearPi-IoT_gd32f303.c ****     1. Redistributions of source code must retain the above copyright notice, this 
  18:C:/Users/49542/Desktop/GD32F30x_Demo_Suites_V2.0.0/GD32F30x_Demo_Suites_V2.0.0/BearPi-IoT_GD32F303_Demo_Suites/Utilities\BearPi-IoT_gd32f303.c ****        list of conditions and the following disclaimer.
  19:C:/Users/49542/Desktop/GD32F30x_Demo_Suites_V2.0.0/GD32F30x_Demo_Suites_V2.0.0/BearPi-IoT_GD32F303_Demo_Suites/Utilities\BearPi-IoT_gd32f303.c ****     2. Redistributions in binary form must reproduce the above copyright notice, 
  20:C:/Users/49542/Desktop/GD32F30x_Demo_Suites_V2.0.0/GD32F30x_Demo_Suites_V2.0.0/BearPi-IoT_GD32F303_Demo_Suites/Utilities\BearPi-IoT_gd32f303.c ****        this list of conditions and the following disclaimer in the documentation 
  21:C:/Users/49542/Desktop/GD32F30x_Demo_Suites_V2.0.0/GD32F30x_Demo_Suites_V2.0.0/BearPi-IoT_GD32F303_Demo_Suites/Utilities\BearPi-IoT_gd32f303.c ****        and/or other materials provided with the distribution.
  22:C:/Users/49542/Desktop/GD32F30x_Demo_Suites_V2.0.0/GD32F30x_Demo_Suites_V2.0.0/BearPi-IoT_GD32F303_Demo_Suites/Utilities\BearPi-IoT_gd32f303.c ****     3. Neither the name of the copyright holder nor the names of its contributors 
  23:C:/Users/49542/Desktop/GD32F30x_Demo_Suites_V2.0.0/GD32F30x_Demo_Suites_V2.0.0/BearPi-IoT_GD32F303_Demo_Suites/Utilities\BearPi-IoT_gd32f303.c ****        may be used to endorse or promote products derived from this software without 
  24:C:/Users/49542/Desktop/GD32F30x_Demo_Suites_V2.0.0/GD32F30x_Demo_Suites_V2.0.0/BearPi-IoT_GD32F303_Demo_Suites/Utilities\BearPi-IoT_gd32f303.c ****        specific prior written permission.
  25:C:/Users/49542/Desktop/GD32F30x_Demo_Suites_V2.0.0/GD32F30x_Demo_Suites_V2.0.0/BearPi-IoT_GD32F303_Demo_Suites/Utilities\BearPi-IoT_gd32f303.c **** 
  26:C:/Users/49542/Desktop/GD32F30x_Demo_Suites_V2.0.0/GD32F30x_Demo_Suites_V2.0.0/BearPi-IoT_GD32F303_Demo_Suites/Utilities\BearPi-IoT_gd32f303.c ****     THIS SOFTWARE IS PROVIDED BY THE COPYRIGHT HOLDERS AND CONTRIBUTORS "AS IS" 
  27:C:/Users/49542/Desktop/GD32F30x_Demo_Suites_V2.0.0/GD32F30x_Demo_Suites_V2.0.0/BearPi-IoT_GD32F303_Demo_Suites/Utilities\BearPi-IoT_gd32f303.c **** AND ANY EXPRESS OR IMPLIED WARRANTIES, INCLUDING, BUT NOT LIMITED TO, THE IMPLIED 
  28:C:/Users/49542/Desktop/GD32F30x_Demo_Suites_V2.0.0/GD32F30x_Demo_Suites_V2.0.0/BearPi-IoT_GD32F303_Demo_Suites/Utilities\BearPi-IoT_gd32f303.c **** WARRANTIES OF MERCHANTABILITY AND FITNESS FOR A PARTICULAR PURPOSE ARE DISCLAIMED. 
  29:C:/Users/49542/Desktop/GD32F30x_Demo_Suites_V2.0.0/GD32F30x_Demo_Suites_V2.0.0/BearPi-IoT_GD32F303_Demo_Suites/Utilities\BearPi-IoT_gd32f303.c **** IN NO EVENT SHALL THE COPYRIGHT HOLDER OR CONTRIBUTORS BE LIABLE FOR ANY DIRECT, 
  30:C:/Users/49542/Desktop/GD32F30x_Demo_Suites_V2.0.0/GD32F30x_Demo_Suites_V2.0.0/BearPi-IoT_GD32F303_Demo_Suites/Utilities\BearPi-IoT_gd32f303.c **** INDIRECT, INCIDENTAL, SPECIAL, EXEMPLARY, OR CONSEQUENTIAL DAMAGES (INCLUDING, BUT 
  31:C:/Users/49542/Desktop/GD32F30x_Demo_Suites_V2.0.0/GD32F30x_Demo_Suites_V2.0.0/BearPi-IoT_GD32F303_Demo_Suites/Utilities\BearPi-IoT_gd32f303.c **** NOT LIMITED TO, PROCUREMENT OF SUBSTITUTE GOODS OR SERVICES; LOSS OF USE, DATA, OR 
  32:C:/Users/49542/Desktop/GD32F30x_Demo_Suites_V2.0.0/GD32F30x_Demo_Suites_V2.0.0/BearPi-IoT_GD32F303_Demo_Suites/Utilities\BearPi-IoT_gd32f303.c **** PROFITS; OR BUSINESS INTERRUPTION) HOWEVER CAUSED AND ON ANY THEORY OF LIABILITY, 
  33:C:/Users/49542/Desktop/GD32F30x_Demo_Suites_V2.0.0/GD32F30x_Demo_Suites_V2.0.0/BearPi-IoT_GD32F303_Demo_Suites/Utilities\BearPi-IoT_gd32f303.c **** WHETHER IN CONTRACT, STRICT LIABILITY, OR TORT (INCLUDING NEGLIGENCE OR OTHERWISE) 
  34:C:/Users/49542/Desktop/GD32F30x_Demo_Suites_V2.0.0/GD32F30x_Demo_Suites_V2.0.0/BearPi-IoT_GD32F303_Demo_Suites/Utilities\BearPi-IoT_gd32f303.c **** ARISING IN ANY WAY OUT OF THE USE OF THIS SOFTWARE, EVEN IF ADVISED OF THE POSSIBILITY 
  35:C:/Users/49542/Desktop/GD32F30x_Demo_Suites_V2.0.0/GD32F30x_Demo_Suites_V2.0.0/BearPi-IoT_GD32F303_Demo_Suites/Utilities\BearPi-IoT_gd32f303.c **** OF SUCH DAMAGE.
  36:C:/Users/49542/Desktop/GD32F30x_Demo_Suites_V2.0.0/GD32F30x_Demo_Suites_V2.0.0/BearPi-IoT_GD32F303_Demo_Suites/Utilities\BearPi-IoT_gd32f303.c **** */
  37:C:/Users/49542/Desktop/GD32F30x_Demo_Suites_V2.0.0/GD32F30x_Demo_Suites_V2.0.0/BearPi-IoT_GD32F303_Demo_Suites/Utilities\BearPi-IoT_gd32f303.c **** 
  38:C:/Users/49542/Desktop/GD32F30x_Demo_Suites_V2.0.0/GD32F30x_Demo_Suites_V2.0.0/BearPi-IoT_GD32F303_Demo_Suites/Utilities\BearPi-IoT_gd32f303.c **** #include <gd32f30x.h>
  39:C:/Users/49542/Desktop/GD32F30x_Demo_Suites_V2.0.0/GD32F30x_Demo_Suites_V2.0.0/BearPi-IoT_GD32F303_Demo_Suites/Utilities\BearPi-IoT_gd32f303.c **** #include "BearPi-IoT_gd32f303.h"
  40:C:/Users/49542/Desktop/GD32F30x_Demo_Suites_V2.0.0/GD32F30x_Demo_Suites_V2.0.0/BearPi-IoT_GD32F303_Demo_Suites/Utilities\BearPi-IoT_gd32f303.c **** #include <stdio.h>
  41:C:/Users/49542/Desktop/GD32F30x_Demo_Suites_V2.0.0/GD32F30x_Demo_Suites_V2.0.0/BearPi-IoT_GD32F303_Demo_Suites/Utilities\BearPi-IoT_gd32f303.c **** 
  42:C:/Users/49542/Desktop/GD32F30x_Demo_Suites_V2.0.0/GD32F30x_Demo_Suites_V2.0.0/BearPi-IoT_GD32F303_Demo_Suites/Utilities\BearPi-IoT_gd32f303.c **** /* private variables */
  43:C:/Users/49542/Desktop/GD32F30x_Demo_Suites_V2.0.0/GD32F30x_Demo_Suites_V2.0.0/BearPi-IoT_GD32F303_Demo_Suites/Utilities\BearPi-IoT_gd32f303.c **** static uint32_t GPIO_PORT[LEDn] = {LED_GPIO_PORT};
  44:C:/Users/49542/Desktop/GD32F30x_Demo_Suites_V2.0.0/GD32F30x_Demo_Suites_V2.0.0/BearPi-IoT_GD32F303_Demo_Suites/Utilities\BearPi-IoT_gd32f303.c **** static uint32_t GPIO_PIN[LEDn] = {LED_PIN};
  45:C:/Users/49542/Desktop/GD32F30x_Demo_Suites_V2.0.0/GD32F30x_Demo_Suites_V2.0.0/BearPi-IoT_GD32F303_Demo_Suites/Utilities\BearPi-IoT_gd32f303.c **** 
  46:C:/Users/49542/Desktop/GD32F30x_Demo_Suites_V2.0.0/GD32F30x_Demo_Suites_V2.0.0/BearPi-IoT_GD32F303_Demo_Suites/Utilities\BearPi-IoT_gd32f303.c **** static rcu_periph_enum COM_CLK[COMn] = {EVAL_COM0_CLK, EVAL_COM1_CLK};
  47:C:/Users/49542/Desktop/GD32F30x_Demo_Suites_V2.0.0/GD32F30x_Demo_Suites_V2.0.0/BearPi-IoT_GD32F303_Demo_Suites/Utilities\BearPi-IoT_gd32f303.c **** static uint32_t COM_TX_PIN[COMn] = {EVAL_COM0_TX_PIN, EVAL_COM1_TX_PIN};
  48:C:/Users/49542/Desktop/GD32F30x_Demo_Suites_V2.0.0/GD32F30x_Demo_Suites_V2.0.0/BearPi-IoT_GD32F303_Demo_Suites/Utilities\BearPi-IoT_gd32f303.c **** static uint32_t COM_RX_PIN[COMn] = {EVAL_COM0_RX_PIN, EVAL_COM1_RX_PIN};
  49:C:/Users/49542/Desktop/GD32F30x_Demo_Suites_V2.0.0/GD32F30x_Demo_Suites_V2.0.0/BearPi-IoT_GD32F303_Demo_Suites/Utilities\BearPi-IoT_gd32f303.c **** static uint32_t COM_GPIO_PORT[COMn] = {EVAL_COM0_GPIO_PORT, EVAL_COM1_GPIO_PORT};
  50:C:/Users/49542/Desktop/GD32F30x_Demo_Suites_V2.0.0/GD32F30x_Demo_Suites_V2.0.0/BearPi-IoT_GD32F303_Demo_Suites/Utilities\BearPi-IoT_gd32f303.c **** static rcu_periph_enum COM_GPIO_CLK[COMn] = {EVAL_COM0_GPIO_CLK, EVAL_COM1_GPIO_CLK};
  51:C:/Users/49542/Desktop/GD32F30x_Demo_Suites_V2.0.0/GD32F30x_Demo_Suites_V2.0.0/BearPi-IoT_GD32F303_Demo_Suites/Utilities\BearPi-IoT_gd32f303.c **** 
  52:C:/Users/49542/Desktop/GD32F30x_Demo_Suites_V2.0.0/GD32F30x_Demo_Suites_V2.0.0/BearPi-IoT_GD32F303_Demo_Suites/Utilities\BearPi-IoT_gd32f303.c **** static rcu_periph_enum GPIO_CLK[LEDn] = {LED_GPIO_CLK};
  53:C:/Users/49542/Desktop/GD32F30x_Demo_Suites_V2.0.0/GD32F30x_Demo_Suites_V2.0.0/BearPi-IoT_GD32F303_Demo_Suites/Utilities\BearPi-IoT_gd32f303.c **** 
  54:C:/Users/49542/Desktop/GD32F30x_Demo_Suites_V2.0.0/GD32F30x_Demo_Suites_V2.0.0/BearPi-IoT_GD32F303_Demo_Suites/Utilities\BearPi-IoT_gd32f303.c **** static uint32_t KEY_PORT[KEYn] = {F1_KEY_GPIO_PORT, 
  55:C:/Users/49542/Desktop/GD32F30x_Demo_Suites_V2.0.0/GD32F30x_Demo_Suites_V2.0.0/BearPi-IoT_GD32F303_Demo_Suites/Utilities\BearPi-IoT_gd32f303.c ****                                   F2_KEY_GPIO_PORT};
  56:C:/Users/49542/Desktop/GD32F30x_Demo_Suites_V2.0.0/GD32F30x_Demo_Suites_V2.0.0/BearPi-IoT_GD32F303_Demo_Suites/Utilities\BearPi-IoT_gd32f303.c **** static uint32_t KEY_PIN[KEYn] = {F1_KEY_PIN, F2_KEY_PIN};
  57:C:/Users/49542/Desktop/GD32F30x_Demo_Suites_V2.0.0/GD32F30x_Demo_Suites_V2.0.0/BearPi-IoT_GD32F303_Demo_Suites/Utilities\BearPi-IoT_gd32f303.c **** static rcu_periph_enum KEY_CLK[KEYn] = {F1_KEY_GPIO_CLK, 
  58:C:/Users/49542/Desktop/GD32F30x_Demo_Suites_V2.0.0/GD32F30x_Demo_Suites_V2.0.0/BearPi-IoT_GD32F303_Demo_Suites/Utilities\BearPi-IoT_gd32f303.c ****                                         F2_KEY_GPIO_CLK};
  59:C:/Users/49542/Desktop/GD32F30x_Demo_Suites_V2.0.0/GD32F30x_Demo_Suites_V2.0.0/BearPi-IoT_GD32F303_Demo_Suites/Utilities\BearPi-IoT_gd32f303.c **** static exti_line_enum KEY_EXTI_LINE[KEYn] = {F1_KEY_EXTI_LINE,
  60:C:/Users/49542/Desktop/GD32F30x_Demo_Suites_V2.0.0/GD32F30x_Demo_Suites_V2.0.0/BearPi-IoT_GD32F303_Demo_Suites/Utilities\BearPi-IoT_gd32f303.c ****                                              F2_KEY_EXTI_LINE};
ARM GAS  C:\Users\49542\AppData\Local\Temp\ccBQ2p1n.s 			page 4


  61:C:/Users/49542/Desktop/GD32F30x_Demo_Suites_V2.0.0/GD32F30x_Demo_Suites_V2.0.0/BearPi-IoT_GD32F303_Demo_Suites/Utilities\BearPi-IoT_gd32f303.c **** static uint8_t KEY_PORT_SOURCE[KEYn] = {F1_KEY_EXTI_PORT_SOURCE,
  62:C:/Users/49542/Desktop/GD32F30x_Demo_Suites_V2.0.0/GD32F30x_Demo_Suites_V2.0.0/BearPi-IoT_GD32F303_Demo_Suites/Utilities\BearPi-IoT_gd32f303.c ****                                         F2_KEY_EXTI_PORT_SOURCE};
  63:C:/Users/49542/Desktop/GD32F30x_Demo_Suites_V2.0.0/GD32F30x_Demo_Suites_V2.0.0/BearPi-IoT_GD32F303_Demo_Suites/Utilities\BearPi-IoT_gd32f303.c **** static uint8_t KEY_PIN_SOURCE[KEYn] = {F1_KEY_EXTI_PIN_SOURCE,
  64:C:/Users/49542/Desktop/GD32F30x_Demo_Suites_V2.0.0/GD32F30x_Demo_Suites_V2.0.0/BearPi-IoT_GD32F303_Demo_Suites/Utilities\BearPi-IoT_gd32f303.c ****                                        F2_KEY_EXTI_PIN_SOURCE};
  65:C:/Users/49542/Desktop/GD32F30x_Demo_Suites_V2.0.0/GD32F30x_Demo_Suites_V2.0.0/BearPi-IoT_GD32F303_Demo_Suites/Utilities\BearPi-IoT_gd32f303.c **** static uint8_t KEY_IRQn[KEYn] = {F1_KEY_EXTI_IRQn, 
  66:C:/Users/49542/Desktop/GD32F30x_Demo_Suites_V2.0.0/GD32F30x_Demo_Suites_V2.0.0/BearPi-IoT_GD32F303_Demo_Suites/Utilities\BearPi-IoT_gd32f303.c ****                                  F2_KEY_EXTI_IRQn};
  67:C:/Users/49542/Desktop/GD32F30x_Demo_Suites_V2.0.0/GD32F30x_Demo_Suites_V2.0.0/BearPi-IoT_GD32F303_Demo_Suites/Utilities\BearPi-IoT_gd32f303.c **** 
  68:C:/Users/49542/Desktop/GD32F30x_Demo_Suites_V2.0.0/GD32F30x_Demo_Suites_V2.0.0/BearPi-IoT_GD32F303_Demo_Suites/Utilities\BearPi-IoT_gd32f303.c **** /*!
  69:C:/Users/49542/Desktop/GD32F30x_Demo_Suites_V2.0.0/GD32F30x_Demo_Suites_V2.0.0/BearPi-IoT_GD32F303_Demo_Suites/Utilities\BearPi-IoT_gd32f303.c ****     \brief      configure led GPIO
  70:C:/Users/49542/Desktop/GD32F30x_Demo_Suites_V2.0.0/GD32F30x_Demo_Suites_V2.0.0/BearPi-IoT_GD32F303_Demo_Suites/Utilities\BearPi-IoT_gd32f303.c ****     \param[in]  lednum: specify the led to be configured
  71:C:/Users/49542/Desktop/GD32F30x_Demo_Suites_V2.0.0/GD32F30x_Demo_Suites_V2.0.0/BearPi-IoT_GD32F303_Demo_Suites/Utilities\BearPi-IoT_gd32f303.c ****       \arg      LED
  72:C:/Users/49542/Desktop/GD32F30x_Demo_Suites_V2.0.0/GD32F30x_Demo_Suites_V2.0.0/BearPi-IoT_GD32F303_Demo_Suites/Utilities\BearPi-IoT_gd32f303.c ****     \param[out] none
  73:C:/Users/49542/Desktop/GD32F30x_Demo_Suites_V2.0.0/GD32F30x_Demo_Suites_V2.0.0/BearPi-IoT_GD32F303_Demo_Suites/Utilities\BearPi-IoT_gd32f303.c ****     \retval     none
  74:C:/Users/49542/Desktop/GD32F30x_Demo_Suites_V2.0.0/GD32F30x_Demo_Suites_V2.0.0/BearPi-IoT_GD32F303_Demo_Suites/Utilities\BearPi-IoT_gd32f303.c **** */
  75:C:/Users/49542/Desktop/GD32F30x_Demo_Suites_V2.0.0/GD32F30x_Demo_Suites_V2.0.0/BearPi-IoT_GD32F303_Demo_Suites/Utilities\BearPi-IoT_gd32f303.c **** void  gd_eval_led_init (led_typedef_enum lednum)
  76:C:/Users/49542/Desktop/GD32F30x_Demo_Suites_V2.0.0/GD32F30x_Demo_Suites_V2.0.0/BearPi-IoT_GD32F303_Demo_Suites/Utilities\BearPi-IoT_gd32f303.c **** {
 138              		.loc 1 76 0
 139              		.cfi_startproc
 140              		@ args = 0, pretend = 0, frame = 8
 141              		@ frame_needed = 1, uses_anonymous_args = 0
 142 0000 80B5     		push	{r7, lr}
 143              	.LCFI0:
 144              		.cfi_def_cfa_offset 8
 145              		.cfi_offset 7, -8
 146              		.cfi_offset 14, -4
 147 0002 82B0     		sub	sp, sp, #8
 148              	.LCFI1:
 149              		.cfi_def_cfa_offset 16
 150 0004 00AF     		add	r7, sp, #0
 151              	.LCFI2:
 152              		.cfi_def_cfa_register 7
 153 0006 0346     		mov	r3, r0
 154 0008 FB71     		strb	r3, [r7, #7]
  77:C:/Users/49542/Desktop/GD32F30x_Demo_Suites_V2.0.0/GD32F30x_Demo_Suites_V2.0.0/BearPi-IoT_GD32F303_Demo_Suites/Utilities\BearPi-IoT_gd32f303.c ****     /* enable the led clock */
  78:C:/Users/49542/Desktop/GD32F30x_Demo_Suites_V2.0.0/GD32F30x_Demo_Suites_V2.0.0/BearPi-IoT_GD32F303_Demo_Suites/Utilities\BearPi-IoT_gd32f303.c ****     rcu_periph_clock_enable(GPIO_CLK[lednum]);
 155              		.loc 1 78 0
 156 000a FB79     		ldrb	r3, [r7, #7]	@ zero_extendqisi2
 157 000c 104A     		ldr	r2, .L2
 158 000e 32F81330 		ldrh	r3, [r2, r3, lsl #1]
 159 0012 1846     		mov	r0, r3
 160 0014 FFF7FEFF 		bl	rcu_periph_clock_enable
  79:C:/Users/49542/Desktop/GD32F30x_Demo_Suites_V2.0.0/GD32F30x_Demo_Suites_V2.0.0/BearPi-IoT_GD32F303_Demo_Suites/Utilities\BearPi-IoT_gd32f303.c ****     /* configure led GPIO port */ 
  80:C:/Users/49542/Desktop/GD32F30x_Demo_Suites_V2.0.0/GD32F30x_Demo_Suites_V2.0.0/BearPi-IoT_GD32F303_Demo_Suites/Utilities\BearPi-IoT_gd32f303.c ****     gpio_init(GPIO_PORT[lednum], GPIO_MODE_OUT_PP, GPIO_OSPEED_50MHZ,GPIO_PIN[lednum]);
 161              		.loc 1 80 0
 162 0018 FB79     		ldrb	r3, [r7, #7]	@ zero_extendqisi2
 163 001a 0E4A     		ldr	r2, .L2+4
 164 001c 52F82300 		ldr	r0, [r2, r3, lsl #2]
 165 0020 FB79     		ldrb	r3, [r7, #7]	@ zero_extendqisi2
 166 0022 0D4A     		ldr	r2, .L2+8
 167 0024 52F82330 		ldr	r3, [r2, r3, lsl #2]
 168 0028 0322     		movs	r2, #3
 169 002a 1021     		movs	r1, #16
 170 002c FFF7FEFF 		bl	gpio_init
  81:C:/Users/49542/Desktop/GD32F30x_Demo_Suites_V2.0.0/GD32F30x_Demo_Suites_V2.0.0/BearPi-IoT_GD32F303_Demo_Suites/Utilities\BearPi-IoT_gd32f303.c **** 
  82:C:/Users/49542/Desktop/GD32F30x_Demo_Suites_V2.0.0/GD32F30x_Demo_Suites_V2.0.0/BearPi-IoT_GD32F303_Demo_Suites/Utilities\BearPi-IoT_gd32f303.c ****     GPIO_BC(GPIO_PORT[lednum]) = GPIO_PIN[lednum];
 171              		.loc 1 82 0
 172 0030 FB79     		ldrb	r3, [r7, #7]	@ zero_extendqisi2
ARM GAS  C:\Users\49542\AppData\Local\Temp\ccBQ2p1n.s 			page 5


 173 0032 FA79     		ldrb	r2, [r7, #7]	@ zero_extendqisi2
 174 0034 0749     		ldr	r1, .L2+4
 175 0036 51F82220 		ldr	r2, [r1, r2, lsl #2]
 176 003a 1432     		adds	r2, r2, #20
 177 003c 1146     		mov	r1, r2
 178 003e 064A     		ldr	r2, .L2+8
 179 0040 52F82330 		ldr	r3, [r2, r3, lsl #2]
 180 0044 0B60     		str	r3, [r1]
  83:C:/Users/49542/Desktop/GD32F30x_Demo_Suites_V2.0.0/GD32F30x_Demo_Suites_V2.0.0/BearPi-IoT_GD32F303_Demo_Suites/Utilities\BearPi-IoT_gd32f303.c **** }
 181              		.loc 1 83 0
 182 0046 00BF     		nop
 183 0048 0837     		adds	r7, r7, #8
 184              	.LCFI3:
 185              		.cfi_def_cfa_offset 8
 186 004a BD46     		mov	sp, r7
 187              	.LCFI4:
 188              		.cfi_def_cfa_register 13
 189              		@ sp needed
 190 004c 80BD     		pop	{r7, pc}
 191              	.L3:
 192 004e 00BF     		.align	2
 193              	.L2:
 194 0050 00000000 		.word	GPIO_CLK
 195 0054 00000000 		.word	GPIO_PORT
 196 0058 00000000 		.word	GPIO_PIN
 197              		.cfi_endproc
 198              	.LFE119:
 200              		.section	.text.gd_eval_led_on,"ax",%progbits
 201              		.align	1
 202              		.global	gd_eval_led_on
 203              		.syntax unified
 204              		.thumb
 205              		.thumb_func
 206              		.fpu fpv4-sp-d16
 208              	gd_eval_led_on:
 209              	.LFB120:
  84:C:/Users/49542/Desktop/GD32F30x_Demo_Suites_V2.0.0/GD32F30x_Demo_Suites_V2.0.0/BearPi-IoT_GD32F303_Demo_Suites/Utilities\BearPi-IoT_gd32f303.c **** 
  85:C:/Users/49542/Desktop/GD32F30x_Demo_Suites_V2.0.0/GD32F30x_Demo_Suites_V2.0.0/BearPi-IoT_GD32F303_Demo_Suites/Utilities\BearPi-IoT_gd32f303.c **** /*!
  86:C:/Users/49542/Desktop/GD32F30x_Demo_Suites_V2.0.0/GD32F30x_Demo_Suites_V2.0.0/BearPi-IoT_GD32F303_Demo_Suites/Utilities\BearPi-IoT_gd32f303.c ****     \brief      turn on selected led
  87:C:/Users/49542/Desktop/GD32F30x_Demo_Suites_V2.0.0/GD32F30x_Demo_Suites_V2.0.0/BearPi-IoT_GD32F303_Demo_Suites/Utilities\BearPi-IoT_gd32f303.c ****     \param[in]  lednum: specify the led to be turned on
  88:C:/Users/49542/Desktop/GD32F30x_Demo_Suites_V2.0.0/GD32F30x_Demo_Suites_V2.0.0/BearPi-IoT_GD32F303_Demo_Suites/Utilities\BearPi-IoT_gd32f303.c ****       \arg        LED
  89:C:/Users/49542/Desktop/GD32F30x_Demo_Suites_V2.0.0/GD32F30x_Demo_Suites_V2.0.0/BearPi-IoT_GD32F303_Demo_Suites/Utilities\BearPi-IoT_gd32f303.c ****     \param[out] none
  90:C:/Users/49542/Desktop/GD32F30x_Demo_Suites_V2.0.0/GD32F30x_Demo_Suites_V2.0.0/BearPi-IoT_GD32F303_Demo_Suites/Utilities\BearPi-IoT_gd32f303.c ****     \retval     none
  91:C:/Users/49542/Desktop/GD32F30x_Demo_Suites_V2.0.0/GD32F30x_Demo_Suites_V2.0.0/BearPi-IoT_GD32F303_Demo_Suites/Utilities\BearPi-IoT_gd32f303.c **** */
  92:C:/Users/49542/Desktop/GD32F30x_Demo_Suites_V2.0.0/GD32F30x_Demo_Suites_V2.0.0/BearPi-IoT_GD32F303_Demo_Suites/Utilities\BearPi-IoT_gd32f303.c **** void gd_eval_led_on(led_typedef_enum lednum)
  93:C:/Users/49542/Desktop/GD32F30x_Demo_Suites_V2.0.0/GD32F30x_Demo_Suites_V2.0.0/BearPi-IoT_GD32F303_Demo_Suites/Utilities\BearPi-IoT_gd32f303.c **** {
 210              		.loc 1 93 0
 211              		.cfi_startproc
 212              		@ args = 0, pretend = 0, frame = 8
 213              		@ frame_needed = 1, uses_anonymous_args = 0
 214              		@ link register save eliminated.
 215 0000 80B4     		push	{r7}
 216              	.LCFI5:
 217              		.cfi_def_cfa_offset 4
 218              		.cfi_offset 7, -4
 219 0002 83B0     		sub	sp, sp, #12
 220              	.LCFI6:
ARM GAS  C:\Users\49542\AppData\Local\Temp\ccBQ2p1n.s 			page 6


 221              		.cfi_def_cfa_offset 16
 222 0004 00AF     		add	r7, sp, #0
 223              	.LCFI7:
 224              		.cfi_def_cfa_register 7
 225 0006 0346     		mov	r3, r0
 226 0008 FB71     		strb	r3, [r7, #7]
  94:C:/Users/49542/Desktop/GD32F30x_Demo_Suites_V2.0.0/GD32F30x_Demo_Suites_V2.0.0/BearPi-IoT_GD32F303_Demo_Suites/Utilities\BearPi-IoT_gd32f303.c ****     GPIO_BOP(GPIO_PORT[lednum]) = GPIO_PIN[lednum];
 227              		.loc 1 94 0
 228 000a FB79     		ldrb	r3, [r7, #7]	@ zero_extendqisi2
 229 000c FA79     		ldrb	r2, [r7, #7]	@ zero_extendqisi2
 230 000e 0749     		ldr	r1, .L5
 231 0010 51F82220 		ldr	r2, [r1, r2, lsl #2]
 232 0014 1032     		adds	r2, r2, #16
 233 0016 1146     		mov	r1, r2
 234 0018 054A     		ldr	r2, .L5+4
 235 001a 52F82330 		ldr	r3, [r2, r3, lsl #2]
 236 001e 0B60     		str	r3, [r1]
  95:C:/Users/49542/Desktop/GD32F30x_Demo_Suites_V2.0.0/GD32F30x_Demo_Suites_V2.0.0/BearPi-IoT_GD32F303_Demo_Suites/Utilities\BearPi-IoT_gd32f303.c **** }
 237              		.loc 1 95 0
 238 0020 00BF     		nop
 239 0022 0C37     		adds	r7, r7, #12
 240              	.LCFI8:
 241              		.cfi_def_cfa_offset 4
 242 0024 BD46     		mov	sp, r7
 243              	.LCFI9:
 244              		.cfi_def_cfa_register 13
 245              		@ sp needed
 246 0026 5DF8047B 		ldr	r7, [sp], #4
 247              	.LCFI10:
 248              		.cfi_restore 7
 249              		.cfi_def_cfa_offset 0
 250 002a 7047     		bx	lr
 251              	.L6:
 252              		.align	2
 253              	.L5:
 254 002c 00000000 		.word	GPIO_PORT
 255 0030 00000000 		.word	GPIO_PIN
 256              		.cfi_endproc
 257              	.LFE120:
 259              		.section	.text.gd_eval_led_off,"ax",%progbits
 260              		.align	1
 261              		.global	gd_eval_led_off
 262              		.syntax unified
 263              		.thumb
 264              		.thumb_func
 265              		.fpu fpv4-sp-d16
 267              	gd_eval_led_off:
 268              	.LFB121:
  96:C:/Users/49542/Desktop/GD32F30x_Demo_Suites_V2.0.0/GD32F30x_Demo_Suites_V2.0.0/BearPi-IoT_GD32F303_Demo_Suites/Utilities\BearPi-IoT_gd32f303.c **** 
  97:C:/Users/49542/Desktop/GD32F30x_Demo_Suites_V2.0.0/GD32F30x_Demo_Suites_V2.0.0/BearPi-IoT_GD32F303_Demo_Suites/Utilities\BearPi-IoT_gd32f303.c **** /*!
  98:C:/Users/49542/Desktop/GD32F30x_Demo_Suites_V2.0.0/GD32F30x_Demo_Suites_V2.0.0/BearPi-IoT_GD32F303_Demo_Suites/Utilities\BearPi-IoT_gd32f303.c ****     \brief      turn off selected led
  99:C:/Users/49542/Desktop/GD32F30x_Demo_Suites_V2.0.0/GD32F30x_Demo_Suites_V2.0.0/BearPi-IoT_GD32F303_Demo_Suites/Utilities\BearPi-IoT_gd32f303.c ****     \param[in]  lednum: specify the led to be turned off
 100:C:/Users/49542/Desktop/GD32F30x_Demo_Suites_V2.0.0/GD32F30x_Demo_Suites_V2.0.0/BearPi-IoT_GD32F303_Demo_Suites/Utilities\BearPi-IoT_gd32f303.c ****       \arg        LED
 101:C:/Users/49542/Desktop/GD32F30x_Demo_Suites_V2.0.0/GD32F30x_Demo_Suites_V2.0.0/BearPi-IoT_GD32F303_Demo_Suites/Utilities\BearPi-IoT_gd32f303.c ****     \param[out] none
 102:C:/Users/49542/Desktop/GD32F30x_Demo_Suites_V2.0.0/GD32F30x_Demo_Suites_V2.0.0/BearPi-IoT_GD32F303_Demo_Suites/Utilities\BearPi-IoT_gd32f303.c ****     \retval     none
 103:C:/Users/49542/Desktop/GD32F30x_Demo_Suites_V2.0.0/GD32F30x_Demo_Suites_V2.0.0/BearPi-IoT_GD32F303_Demo_Suites/Utilities\BearPi-IoT_gd32f303.c **** */
 104:C:/Users/49542/Desktop/GD32F30x_Demo_Suites_V2.0.0/GD32F30x_Demo_Suites_V2.0.0/BearPi-IoT_GD32F303_Demo_Suites/Utilities\BearPi-IoT_gd32f303.c **** void gd_eval_led_off(led_typedef_enum lednum)
ARM GAS  C:\Users\49542\AppData\Local\Temp\ccBQ2p1n.s 			page 7


 105:C:/Users/49542/Desktop/GD32F30x_Demo_Suites_V2.0.0/GD32F30x_Demo_Suites_V2.0.0/BearPi-IoT_GD32F303_Demo_Suites/Utilities\BearPi-IoT_gd32f303.c **** {
 269              		.loc 1 105 0
 270              		.cfi_startproc
 271              		@ args = 0, pretend = 0, frame = 8
 272              		@ frame_needed = 1, uses_anonymous_args = 0
 273              		@ link register save eliminated.
 274 0000 80B4     		push	{r7}
 275              	.LCFI11:
 276              		.cfi_def_cfa_offset 4
 277              		.cfi_offset 7, -4
 278 0002 83B0     		sub	sp, sp, #12
 279              	.LCFI12:
 280              		.cfi_def_cfa_offset 16
 281 0004 00AF     		add	r7, sp, #0
 282              	.LCFI13:
 283              		.cfi_def_cfa_register 7
 284 0006 0346     		mov	r3, r0
 285 0008 FB71     		strb	r3, [r7, #7]
 106:C:/Users/49542/Desktop/GD32F30x_Demo_Suites_V2.0.0/GD32F30x_Demo_Suites_V2.0.0/BearPi-IoT_GD32F303_Demo_Suites/Utilities\BearPi-IoT_gd32f303.c ****     GPIO_BC(GPIO_PORT[lednum]) = GPIO_PIN[lednum];
 286              		.loc 1 106 0
 287 000a FB79     		ldrb	r3, [r7, #7]	@ zero_extendqisi2
 288 000c FA79     		ldrb	r2, [r7, #7]	@ zero_extendqisi2
 289 000e 0749     		ldr	r1, .L8
 290 0010 51F82220 		ldr	r2, [r1, r2, lsl #2]
 291 0014 1432     		adds	r2, r2, #20
 292 0016 1146     		mov	r1, r2
 293 0018 054A     		ldr	r2, .L8+4
 294 001a 52F82330 		ldr	r3, [r2, r3, lsl #2]
 295 001e 0B60     		str	r3, [r1]
 107:C:/Users/49542/Desktop/GD32F30x_Demo_Suites_V2.0.0/GD32F30x_Demo_Suites_V2.0.0/BearPi-IoT_GD32F303_Demo_Suites/Utilities\BearPi-IoT_gd32f303.c **** }
 296              		.loc 1 107 0
 297 0020 00BF     		nop
 298 0022 0C37     		adds	r7, r7, #12
 299              	.LCFI14:
 300              		.cfi_def_cfa_offset 4
 301 0024 BD46     		mov	sp, r7
 302              	.LCFI15:
 303              		.cfi_def_cfa_register 13
 304              		@ sp needed
 305 0026 5DF8047B 		ldr	r7, [sp], #4
 306              	.LCFI16:
 307              		.cfi_restore 7
 308              		.cfi_def_cfa_offset 0
 309 002a 7047     		bx	lr
 310              	.L9:
 311              		.align	2
 312              	.L8:
 313 002c 00000000 		.word	GPIO_PORT
 314 0030 00000000 		.word	GPIO_PIN
 315              		.cfi_endproc
 316              	.LFE121:
 318              		.section	.text.gd_eval_led_toggle,"ax",%progbits
 319              		.align	1
 320              		.global	gd_eval_led_toggle
 321              		.syntax unified
 322              		.thumb
 323              		.thumb_func
ARM GAS  C:\Users\49542\AppData\Local\Temp\ccBQ2p1n.s 			page 8


 324              		.fpu fpv4-sp-d16
 326              	gd_eval_led_toggle:
 327              	.LFB122:
 108:C:/Users/49542/Desktop/GD32F30x_Demo_Suites_V2.0.0/GD32F30x_Demo_Suites_V2.0.0/BearPi-IoT_GD32F303_Demo_Suites/Utilities\BearPi-IoT_gd32f303.c **** 
 109:C:/Users/49542/Desktop/GD32F30x_Demo_Suites_V2.0.0/GD32F30x_Demo_Suites_V2.0.0/BearPi-IoT_GD32F303_Demo_Suites/Utilities\BearPi-IoT_gd32f303.c **** /*!
 110:C:/Users/49542/Desktop/GD32F30x_Demo_Suites_V2.0.0/GD32F30x_Demo_Suites_V2.0.0/BearPi-IoT_GD32F303_Demo_Suites/Utilities\BearPi-IoT_gd32f303.c ****     \brief      toggle selected led
 111:C:/Users/49542/Desktop/GD32F30x_Demo_Suites_V2.0.0/GD32F30x_Demo_Suites_V2.0.0/BearPi-IoT_GD32F303_Demo_Suites/Utilities\BearPi-IoT_gd32f303.c ****     \param[in]  lednum: specify the led to be toggled
 112:C:/Users/49542/Desktop/GD32F30x_Demo_Suites_V2.0.0/GD32F30x_Demo_Suites_V2.0.0/BearPi-IoT_GD32F303_Demo_Suites/Utilities\BearPi-IoT_gd32f303.c ****       \arg        LED
 113:C:/Users/49542/Desktop/GD32F30x_Demo_Suites_V2.0.0/GD32F30x_Demo_Suites_V2.0.0/BearPi-IoT_GD32F303_Demo_Suites/Utilities\BearPi-IoT_gd32f303.c ****     \param[out] none
 114:C:/Users/49542/Desktop/GD32F30x_Demo_Suites_V2.0.0/GD32F30x_Demo_Suites_V2.0.0/BearPi-IoT_GD32F303_Demo_Suites/Utilities\BearPi-IoT_gd32f303.c ****     \retval     none
 115:C:/Users/49542/Desktop/GD32F30x_Demo_Suites_V2.0.0/GD32F30x_Demo_Suites_V2.0.0/BearPi-IoT_GD32F303_Demo_Suites/Utilities\BearPi-IoT_gd32f303.c **** */
 116:C:/Users/49542/Desktop/GD32F30x_Demo_Suites_V2.0.0/GD32F30x_Demo_Suites_V2.0.0/BearPi-IoT_GD32F303_Demo_Suites/Utilities\BearPi-IoT_gd32f303.c **** void gd_eval_led_toggle(led_typedef_enum lednum)
 117:C:/Users/49542/Desktop/GD32F30x_Demo_Suites_V2.0.0/GD32F30x_Demo_Suites_V2.0.0/BearPi-IoT_GD32F303_Demo_Suites/Utilities\BearPi-IoT_gd32f303.c **** {
 328              		.loc 1 117 0
 329              		.cfi_startproc
 330              		@ args = 0, pretend = 0, frame = 8
 331              		@ frame_needed = 1, uses_anonymous_args = 0
 332 0000 B0B5     		push	{r4, r5, r7, lr}
 333              	.LCFI17:
 334              		.cfi_def_cfa_offset 16
 335              		.cfi_offset 4, -16
 336              		.cfi_offset 5, -12
 337              		.cfi_offset 7, -8
 338              		.cfi_offset 14, -4
 339 0002 82B0     		sub	sp, sp, #8
 340              	.LCFI18:
 341              		.cfi_def_cfa_offset 24
 342 0004 00AF     		add	r7, sp, #0
 343              	.LCFI19:
 344              		.cfi_def_cfa_register 7
 345 0006 0346     		mov	r3, r0
 346 0008 FB71     		strb	r3, [r7, #7]
 118:C:/Users/49542/Desktop/GD32F30x_Demo_Suites_V2.0.0/GD32F30x_Demo_Suites_V2.0.0/BearPi-IoT_GD32F303_Demo_Suites/Utilities\BearPi-IoT_gd32f303.c ****     gpio_bit_write(GPIO_PORT[lednum], GPIO_PIN[lednum], 
 347              		.loc 1 118 0
 348 000a FB79     		ldrb	r3, [r7, #7]	@ zero_extendqisi2
 349 000c 0F4A     		ldr	r2, .L11
 350 000e 52F82340 		ldr	r4, [r2, r3, lsl #2]
 351 0012 FB79     		ldrb	r3, [r7, #7]	@ zero_extendqisi2
 352 0014 0E4A     		ldr	r2, .L11+4
 353 0016 52F82350 		ldr	r5, [r2, r3, lsl #2]
 119:C:/Users/49542/Desktop/GD32F30x_Demo_Suites_V2.0.0/GD32F30x_Demo_Suites_V2.0.0/BearPi-IoT_GD32F303_Demo_Suites/Utilities\BearPi-IoT_gd32f303.c ****                     (bit_status)(1-gpio_input_bit_get(GPIO_PORT[lednum], GPIO_PIN[lednum])));
 354              		.loc 1 119 0
 355 001a FB79     		ldrb	r3, [r7, #7]	@ zero_extendqisi2
 356 001c 0B4A     		ldr	r2, .L11
 357 001e 52F82300 		ldr	r0, [r2, r3, lsl #2]
 358 0022 FB79     		ldrb	r3, [r7, #7]	@ zero_extendqisi2
 359 0024 0A4A     		ldr	r2, .L11+4
 360 0026 52F82330 		ldr	r3, [r2, r3, lsl #2]
 361 002a 1946     		mov	r1, r3
 362 002c FFF7FEFF 		bl	gpio_input_bit_get
 363 0030 0346     		mov	r3, r0
 364 0032 C3F10103 		rsb	r3, r3, #1
 365 0036 DBB2     		uxtb	r3, r3
 118:C:/Users/49542/Desktop/GD32F30x_Demo_Suites_V2.0.0/GD32F30x_Demo_Suites_V2.0.0/BearPi-IoT_GD32F303_Demo_Suites/Utilities\BearPi-IoT_gd32f303.c ****     gpio_bit_write(GPIO_PORT[lednum], GPIO_PIN[lednum], 
 366              		.loc 1 118 0
 367 0038 1A46     		mov	r2, r3
 368 003a 2946     		mov	r1, r5
ARM GAS  C:\Users\49542\AppData\Local\Temp\ccBQ2p1n.s 			page 9


 369 003c 2046     		mov	r0, r4
 370 003e FFF7FEFF 		bl	gpio_bit_write
 120:C:/Users/49542/Desktop/GD32F30x_Demo_Suites_V2.0.0/GD32F30x_Demo_Suites_V2.0.0/BearPi-IoT_GD32F303_Demo_Suites/Utilities\BearPi-IoT_gd32f303.c **** }
 371              		.loc 1 120 0
 372 0042 00BF     		nop
 373 0044 0837     		adds	r7, r7, #8
 374              	.LCFI20:
 375              		.cfi_def_cfa_offset 16
 376 0046 BD46     		mov	sp, r7
 377              	.LCFI21:
 378              		.cfi_def_cfa_register 13
 379              		@ sp needed
 380 0048 B0BD     		pop	{r4, r5, r7, pc}
 381              	.L12:
 382 004a 00BF     		.align	2
 383              	.L11:
 384 004c 00000000 		.word	GPIO_PORT
 385 0050 00000000 		.word	GPIO_PIN
 386              		.cfi_endproc
 387              	.LFE122:
 389              		.section	.text.gd_eval_key_init,"ax",%progbits
 390              		.align	1
 391              		.global	gd_eval_key_init
 392              		.syntax unified
 393              		.thumb
 394              		.thumb_func
 395              		.fpu fpv4-sp-d16
 397              	gd_eval_key_init:
 398              	.LFB123:
 121:C:/Users/49542/Desktop/GD32F30x_Demo_Suites_V2.0.0/GD32F30x_Demo_Suites_V2.0.0/BearPi-IoT_GD32F303_Demo_Suites/Utilities\BearPi-IoT_gd32f303.c **** 
 122:C:/Users/49542/Desktop/GD32F30x_Demo_Suites_V2.0.0/GD32F30x_Demo_Suites_V2.0.0/BearPi-IoT_GD32F303_Demo_Suites/Utilities\BearPi-IoT_gd32f303.c **** /*!
 123:C:/Users/49542/Desktop/GD32F30x_Demo_Suites_V2.0.0/GD32F30x_Demo_Suites_V2.0.0/BearPi-IoT_GD32F303_Demo_Suites/Utilities\BearPi-IoT_gd32f303.c ****     \brief      configure key
 124:C:/Users/49542/Desktop/GD32F30x_Demo_Suites_V2.0.0/GD32F30x_Demo_Suites_V2.0.0/BearPi-IoT_GD32F303_Demo_Suites/Utilities\BearPi-IoT_gd32f303.c ****     \param[in]  key_num: specify the key to be configured
 125:C:/Users/49542/Desktop/GD32F30x_Demo_Suites_V2.0.0/GD32F30x_Demo_Suites_V2.0.0/BearPi-IoT_GD32F303_Demo_Suites/Utilities\BearPi-IoT_gd32f303.c ****       \arg        F1_KEY
 126:C:/Users/49542/Desktop/GD32F30x_Demo_Suites_V2.0.0/GD32F30x_Demo_Suites_V2.0.0/BearPi-IoT_GD32F303_Demo_Suites/Utilities\BearPi-IoT_gd32f303.c ****       \arg        F2_KEY
 127:C:/Users/49542/Desktop/GD32F30x_Demo_Suites_V2.0.0/GD32F30x_Demo_Suites_V2.0.0/BearPi-IoT_GD32F303_Demo_Suites/Utilities\BearPi-IoT_gd32f303.c ****     \param[in]  key_mode: specify button mode
 128:C:/Users/49542/Desktop/GD32F30x_Demo_Suites_V2.0.0/GD32F30x_Demo_Suites_V2.0.0/BearPi-IoT_GD32F303_Demo_Suites/Utilities\BearPi-IoT_gd32f303.c ****       \arg        KEY_MODE_GPIO: key will be used as simple IO
 129:C:/Users/49542/Desktop/GD32F30x_Demo_Suites_V2.0.0/GD32F30x_Demo_Suites_V2.0.0/BearPi-IoT_GD32F303_Demo_Suites/Utilities\BearPi-IoT_gd32f303.c ****       \arg        KEY_MODE_EXTI: key will be connected to EXTI line with interrupt
 130:C:/Users/49542/Desktop/GD32F30x_Demo_Suites_V2.0.0/GD32F30x_Demo_Suites_V2.0.0/BearPi-IoT_GD32F303_Demo_Suites/Utilities\BearPi-IoT_gd32f303.c ****     \param[out] none
 131:C:/Users/49542/Desktop/GD32F30x_Demo_Suites_V2.0.0/GD32F30x_Demo_Suites_V2.0.0/BearPi-IoT_GD32F303_Demo_Suites/Utilities\BearPi-IoT_gd32f303.c ****     \retval     none
 132:C:/Users/49542/Desktop/GD32F30x_Demo_Suites_V2.0.0/GD32F30x_Demo_Suites_V2.0.0/BearPi-IoT_GD32F303_Demo_Suites/Utilities\BearPi-IoT_gd32f303.c **** */
 133:C:/Users/49542/Desktop/GD32F30x_Demo_Suites_V2.0.0/GD32F30x_Demo_Suites_V2.0.0/BearPi-IoT_GD32F303_Demo_Suites/Utilities\BearPi-IoT_gd32f303.c **** void gd_eval_key_init(key_typedef_enum key_num, keymode_typedef_enum key_mode)
 134:C:/Users/49542/Desktop/GD32F30x_Demo_Suites_V2.0.0/GD32F30x_Demo_Suites_V2.0.0/BearPi-IoT_GD32F303_Demo_Suites/Utilities\BearPi-IoT_gd32f303.c **** {
 399              		.loc 1 134 0
 400              		.cfi_startproc
 401              		@ args = 0, pretend = 0, frame = 8
 402              		@ frame_needed = 1, uses_anonymous_args = 0
 403 0000 80B5     		push	{r7, lr}
 404              	.LCFI22:
 405              		.cfi_def_cfa_offset 8
 406              		.cfi_offset 7, -8
 407              		.cfi_offset 14, -4
 408 0002 82B0     		sub	sp, sp, #8
 409              	.LCFI23:
 410              		.cfi_def_cfa_offset 16
 411 0004 00AF     		add	r7, sp, #0
 412              	.LCFI24:
ARM GAS  C:\Users\49542\AppData\Local\Temp\ccBQ2p1n.s 			page 10


 413              		.cfi_def_cfa_register 7
 414 0006 0346     		mov	r3, r0
 415 0008 0A46     		mov	r2, r1
 416 000a FB71     		strb	r3, [r7, #7]
 417 000c 1346     		mov	r3, r2
 418 000e BB71     		strb	r3, [r7, #6]
 135:C:/Users/49542/Desktop/GD32F30x_Demo_Suites_V2.0.0/GD32F30x_Demo_Suites_V2.0.0/BearPi-IoT_GD32F303_Demo_Suites/Utilities\BearPi-IoT_gd32f303.c ****     /* enable the key clock */
 136:C:/Users/49542/Desktop/GD32F30x_Demo_Suites_V2.0.0/GD32F30x_Demo_Suites_V2.0.0/BearPi-IoT_GD32F303_Demo_Suites/Utilities\BearPi-IoT_gd32f303.c ****     rcu_periph_clock_enable(KEY_CLK[key_num]);
 419              		.loc 1 136 0
 420 0010 FB79     		ldrb	r3, [r7, #7]	@ zero_extendqisi2
 421 0012 1F4A     		ldr	r2, .L16
 422 0014 32F81330 		ldrh	r3, [r2, r3, lsl #1]
 423 0018 1846     		mov	r0, r3
 424 001a FFF7FEFF 		bl	rcu_periph_clock_enable
 137:C:/Users/49542/Desktop/GD32F30x_Demo_Suites_V2.0.0/GD32F30x_Demo_Suites_V2.0.0/BearPi-IoT_GD32F303_Demo_Suites/Utilities\BearPi-IoT_gd32f303.c ****     rcu_periph_clock_enable(RCU_AF);
 425              		.loc 1 137 0
 426 001e 4FF4C060 		mov	r0, #1536
 427 0022 FFF7FEFF 		bl	rcu_periph_clock_enable
 138:C:/Users/49542/Desktop/GD32F30x_Demo_Suites_V2.0.0/GD32F30x_Demo_Suites_V2.0.0/BearPi-IoT_GD32F303_Demo_Suites/Utilities\BearPi-IoT_gd32f303.c **** 
 139:C:/Users/49542/Desktop/GD32F30x_Demo_Suites_V2.0.0/GD32F30x_Demo_Suites_V2.0.0/BearPi-IoT_GD32F303_Demo_Suites/Utilities\BearPi-IoT_gd32f303.c ****     /* configure button pin as input */
 140:C:/Users/49542/Desktop/GD32F30x_Demo_Suites_V2.0.0/GD32F30x_Demo_Suites_V2.0.0/BearPi-IoT_GD32F303_Demo_Suites/Utilities\BearPi-IoT_gd32f303.c ****     gpio_init(KEY_PORT[key_num], GPIO_MODE_IPU, GPIO_OSPEED_50MHZ, KEY_PIN[key_num]);
 428              		.loc 1 140 0
 429 0026 FB79     		ldrb	r3, [r7, #7]	@ zero_extendqisi2
 430 0028 1A4A     		ldr	r2, .L16+4
 431 002a 52F82300 		ldr	r0, [r2, r3, lsl #2]
 432 002e FB79     		ldrb	r3, [r7, #7]	@ zero_extendqisi2
 433 0030 194A     		ldr	r2, .L16+8
 434 0032 52F82330 		ldr	r3, [r2, r3, lsl #2]
 435 0036 0322     		movs	r2, #3
 436 0038 4821     		movs	r1, #72
 437 003a FFF7FEFF 		bl	gpio_init
 141:C:/Users/49542/Desktop/GD32F30x_Demo_Suites_V2.0.0/GD32F30x_Demo_Suites_V2.0.0/BearPi-IoT_GD32F303_Demo_Suites/Utilities\BearPi-IoT_gd32f303.c **** 
 142:C:/Users/49542/Desktop/GD32F30x_Demo_Suites_V2.0.0/GD32F30x_Demo_Suites_V2.0.0/BearPi-IoT_GD32F303_Demo_Suites/Utilities\BearPi-IoT_gd32f303.c ****     if (key_mode == KEY_MODE_EXTI) {
 438              		.loc 1 142 0
 439 003e BB79     		ldrb	r3, [r7, #6]	@ zero_extendqisi2
 440 0040 012B     		cmp	r3, #1
 441 0042 20D1     		bne	.L15
 143:C:/Users/49542/Desktop/GD32F30x_Demo_Suites_V2.0.0/GD32F30x_Demo_Suites_V2.0.0/BearPi-IoT_GD32F303_Demo_Suites/Utilities\BearPi-IoT_gd32f303.c ****         /* enable and set key EXTI interrupt to the lowest priority */
 144:C:/Users/49542/Desktop/GD32F30x_Demo_Suites_V2.0.0/GD32F30x_Demo_Suites_V2.0.0/BearPi-IoT_GD32F303_Demo_Suites/Utilities\BearPi-IoT_gd32f303.c ****         nvic_irq_enable(KEY_IRQn[key_num], 2U, 0U);
 442              		.loc 1 144 0
 443 0044 FB79     		ldrb	r3, [r7, #7]	@ zero_extendqisi2
 444 0046 154A     		ldr	r2, .L16+12
 445 0048 D35C     		ldrb	r3, [r2, r3]	@ zero_extendqisi2
 446 004a 0022     		movs	r2, #0
 447 004c 0221     		movs	r1, #2
 448 004e 1846     		mov	r0, r3
 449 0050 FFF7FEFF 		bl	nvic_irq_enable
 145:C:/Users/49542/Desktop/GD32F30x_Demo_Suites_V2.0.0/GD32F30x_Demo_Suites_V2.0.0/BearPi-IoT_GD32F303_Demo_Suites/Utilities\BearPi-IoT_gd32f303.c **** 
 146:C:/Users/49542/Desktop/GD32F30x_Demo_Suites_V2.0.0/GD32F30x_Demo_Suites_V2.0.0/BearPi-IoT_GD32F303_Demo_Suites/Utilities\BearPi-IoT_gd32f303.c ****         /* connect key EXTI line to key GPIO pin */
 147:C:/Users/49542/Desktop/GD32F30x_Demo_Suites_V2.0.0/GD32F30x_Demo_Suites_V2.0.0/BearPi-IoT_GD32F303_Demo_Suites/Utilities\BearPi-IoT_gd32f303.c ****         gpio_exti_source_select(KEY_PORT_SOURCE[key_num], KEY_PIN_SOURCE[key_num]);
 450              		.loc 1 147 0
 451 0054 FB79     		ldrb	r3, [r7, #7]	@ zero_extendqisi2
 452 0056 124A     		ldr	r2, .L16+16
 453 0058 D05C     		ldrb	r0, [r2, r3]	@ zero_extendqisi2
 454 005a FB79     		ldrb	r3, [r7, #7]	@ zero_extendqisi2
 455 005c 114A     		ldr	r2, .L16+20
 456 005e D35C     		ldrb	r3, [r2, r3]	@ zero_extendqisi2
ARM GAS  C:\Users\49542\AppData\Local\Temp\ccBQ2p1n.s 			page 11


 457 0060 1946     		mov	r1, r3
 458 0062 FFF7FEFF 		bl	gpio_exti_source_select
 148:C:/Users/49542/Desktop/GD32F30x_Demo_Suites_V2.0.0/GD32F30x_Demo_Suites_V2.0.0/BearPi-IoT_GD32F303_Demo_Suites/Utilities\BearPi-IoT_gd32f303.c **** 
 149:C:/Users/49542/Desktop/GD32F30x_Demo_Suites_V2.0.0/GD32F30x_Demo_Suites_V2.0.0/BearPi-IoT_GD32F303_Demo_Suites/Utilities\BearPi-IoT_gd32f303.c ****         /* configure key EXTI line */
 150:C:/Users/49542/Desktop/GD32F30x_Demo_Suites_V2.0.0/GD32F30x_Demo_Suites_V2.0.0/BearPi-IoT_GD32F303_Demo_Suites/Utilities\BearPi-IoT_gd32f303.c ****         exti_init(KEY_EXTI_LINE[key_num], EXTI_INTERRUPT, EXTI_TRIG_FALLING);
 459              		.loc 1 150 0
 460 0066 FB79     		ldrb	r3, [r7, #7]	@ zero_extendqisi2
 461 0068 0F4A     		ldr	r2, .L16+24
 462 006a 52F82330 		ldr	r3, [r2, r3, lsl #2]
 463 006e 0122     		movs	r2, #1
 464 0070 0021     		movs	r1, #0
 465 0072 1846     		mov	r0, r3
 466 0074 FFF7FEFF 		bl	exti_init
 151:C:/Users/49542/Desktop/GD32F30x_Demo_Suites_V2.0.0/GD32F30x_Demo_Suites_V2.0.0/BearPi-IoT_GD32F303_Demo_Suites/Utilities\BearPi-IoT_gd32f303.c ****         exti_interrupt_flag_clear(KEY_EXTI_LINE[key_num]);
 467              		.loc 1 151 0
 468 0078 FB79     		ldrb	r3, [r7, #7]	@ zero_extendqisi2
 469 007a 0B4A     		ldr	r2, .L16+24
 470 007c 52F82330 		ldr	r3, [r2, r3, lsl #2]
 471 0080 1846     		mov	r0, r3
 472 0082 FFF7FEFF 		bl	exti_interrupt_flag_clear
 473              	.L15:
 152:C:/Users/49542/Desktop/GD32F30x_Demo_Suites_V2.0.0/GD32F30x_Demo_Suites_V2.0.0/BearPi-IoT_GD32F303_Demo_Suites/Utilities\BearPi-IoT_gd32f303.c ****     }
 153:C:/Users/49542/Desktop/GD32F30x_Demo_Suites_V2.0.0/GD32F30x_Demo_Suites_V2.0.0/BearPi-IoT_GD32F303_Demo_Suites/Utilities\BearPi-IoT_gd32f303.c **** }
 474              		.loc 1 153 0
 475 0086 00BF     		nop
 476 0088 0837     		adds	r7, r7, #8
 477              	.LCFI25:
 478              		.cfi_def_cfa_offset 8
 479 008a BD46     		mov	sp, r7
 480              	.LCFI26:
 481              		.cfi_def_cfa_register 13
 482              		@ sp needed
 483 008c 80BD     		pop	{r7, pc}
 484              	.L17:
 485 008e 00BF     		.align	2
 486              	.L16:
 487 0090 00000000 		.word	KEY_CLK
 488 0094 00000000 		.word	KEY_PORT
 489 0098 00000000 		.word	KEY_PIN
 490 009c 00000000 		.word	KEY_IRQn
 491 00a0 00000000 		.word	KEY_PORT_SOURCE
 492 00a4 00000000 		.word	KEY_PIN_SOURCE
 493 00a8 00000000 		.word	KEY_EXTI_LINE
 494              		.cfi_endproc
 495              	.LFE123:
 497              		.section	.text.gd_eval_key_state_get,"ax",%progbits
 498              		.align	1
 499              		.global	gd_eval_key_state_get
 500              		.syntax unified
 501              		.thumb
 502              		.thumb_func
 503              		.fpu fpv4-sp-d16
 505              	gd_eval_key_state_get:
 506              	.LFB124:
 154:C:/Users/49542/Desktop/GD32F30x_Demo_Suites_V2.0.0/GD32F30x_Demo_Suites_V2.0.0/BearPi-IoT_GD32F303_Demo_Suites/Utilities\BearPi-IoT_gd32f303.c **** 
 155:C:/Users/49542/Desktop/GD32F30x_Demo_Suites_V2.0.0/GD32F30x_Demo_Suites_V2.0.0/BearPi-IoT_GD32F303_Demo_Suites/Utilities\BearPi-IoT_gd32f303.c **** /*!
 156:C:/Users/49542/Desktop/GD32F30x_Demo_Suites_V2.0.0/GD32F30x_Demo_Suites_V2.0.0/BearPi-IoT_GD32F303_Demo_Suites/Utilities\BearPi-IoT_gd32f303.c ****     \brief      return the selected key state
ARM GAS  C:\Users\49542\AppData\Local\Temp\ccBQ2p1n.s 			page 12


 157:C:/Users/49542/Desktop/GD32F30x_Demo_Suites_V2.0.0/GD32F30x_Demo_Suites_V2.0.0/BearPi-IoT_GD32F303_Demo_Suites/Utilities\BearPi-IoT_gd32f303.c ****     \param[in]  key: specify the key to be checked
 158:C:/Users/49542/Desktop/GD32F30x_Demo_Suites_V2.0.0/GD32F30x_Demo_Suites_V2.0.0/BearPi-IoT_GD32F303_Demo_Suites/Utilities\BearPi-IoT_gd32f303.c ****       \arg        F1_KEY
 159:C:/Users/49542/Desktop/GD32F30x_Demo_Suites_V2.0.0/GD32F30x_Demo_Suites_V2.0.0/BearPi-IoT_GD32F303_Demo_Suites/Utilities\BearPi-IoT_gd32f303.c ****       \arg        F2_KEY
 160:C:/Users/49542/Desktop/GD32F30x_Demo_Suites_V2.0.0/GD32F30x_Demo_Suites_V2.0.0/BearPi-IoT_GD32F303_Demo_Suites/Utilities\BearPi-IoT_gd32f303.c ****     \param[out] none
 161:C:/Users/49542/Desktop/GD32F30x_Demo_Suites_V2.0.0/GD32F30x_Demo_Suites_V2.0.0/BearPi-IoT_GD32F303_Demo_Suites/Utilities\BearPi-IoT_gd32f303.c ****     \retval     the key's GPIO pin value
 162:C:/Users/49542/Desktop/GD32F30x_Demo_Suites_V2.0.0/GD32F30x_Demo_Suites_V2.0.0/BearPi-IoT_GD32F303_Demo_Suites/Utilities\BearPi-IoT_gd32f303.c **** */
 163:C:/Users/49542/Desktop/GD32F30x_Demo_Suites_V2.0.0/GD32F30x_Demo_Suites_V2.0.0/BearPi-IoT_GD32F303_Demo_Suites/Utilities\BearPi-IoT_gd32f303.c **** uint8_t gd_eval_key_state_get(key_typedef_enum key)
 164:C:/Users/49542/Desktop/GD32F30x_Demo_Suites_V2.0.0/GD32F30x_Demo_Suites_V2.0.0/BearPi-IoT_GD32F303_Demo_Suites/Utilities\BearPi-IoT_gd32f303.c **** {
 507              		.loc 1 164 0
 508              		.cfi_startproc
 509              		@ args = 0, pretend = 0, frame = 8
 510              		@ frame_needed = 1, uses_anonymous_args = 0
 511 0000 80B5     		push	{r7, lr}
 512              	.LCFI27:
 513              		.cfi_def_cfa_offset 8
 514              		.cfi_offset 7, -8
 515              		.cfi_offset 14, -4
 516 0002 82B0     		sub	sp, sp, #8
 517              	.LCFI28:
 518              		.cfi_def_cfa_offset 16
 519 0004 00AF     		add	r7, sp, #0
 520              	.LCFI29:
 521              		.cfi_def_cfa_register 7
 522 0006 0346     		mov	r3, r0
 523 0008 FB71     		strb	r3, [r7, #7]
 165:C:/Users/49542/Desktop/GD32F30x_Demo_Suites_V2.0.0/GD32F30x_Demo_Suites_V2.0.0/BearPi-IoT_GD32F303_Demo_Suites/Utilities\BearPi-IoT_gd32f303.c ****     return gpio_input_bit_get(KEY_PORT[key], KEY_PIN[key]);
 524              		.loc 1 165 0
 525 000a FB79     		ldrb	r3, [r7, #7]	@ zero_extendqisi2
 526 000c 074A     		ldr	r2, .L20
 527 000e 52F82300 		ldr	r0, [r2, r3, lsl #2]
 528 0012 FB79     		ldrb	r3, [r7, #7]	@ zero_extendqisi2
 529 0014 064A     		ldr	r2, .L20+4
 530 0016 52F82330 		ldr	r3, [r2, r3, lsl #2]
 531 001a 1946     		mov	r1, r3
 532 001c FFF7FEFF 		bl	gpio_input_bit_get
 533 0020 0346     		mov	r3, r0
 166:C:/Users/49542/Desktop/GD32F30x_Demo_Suites_V2.0.0/GD32F30x_Demo_Suites_V2.0.0/BearPi-IoT_GD32F303_Demo_Suites/Utilities\BearPi-IoT_gd32f303.c **** }
 534              		.loc 1 166 0
 535 0022 1846     		mov	r0, r3
 536 0024 0837     		adds	r7, r7, #8
 537              	.LCFI30:
 538              		.cfi_def_cfa_offset 8
 539 0026 BD46     		mov	sp, r7
 540              	.LCFI31:
 541              		.cfi_def_cfa_register 13
 542              		@ sp needed
 543 0028 80BD     		pop	{r7, pc}
 544              	.L21:
 545 002a 00BF     		.align	2
 546              	.L20:
 547 002c 00000000 		.word	KEY_PORT
 548 0030 00000000 		.word	KEY_PIN
 549              		.cfi_endproc
 550              	.LFE124:
 552              		.section	.text.gd_eval_com_init,"ax",%progbits
 553              		.align	1
 554              		.global	gd_eval_com_init
ARM GAS  C:\Users\49542\AppData\Local\Temp\ccBQ2p1n.s 			page 13


 555              		.syntax unified
 556              		.thumb
 557              		.thumb_func
 558              		.fpu fpv4-sp-d16
 560              	gd_eval_com_init:
 561              	.LFB125:
 167:C:/Users/49542/Desktop/GD32F30x_Demo_Suites_V2.0.0/GD32F30x_Demo_Suites_V2.0.0/BearPi-IoT_GD32F303_Demo_Suites/Utilities\BearPi-IoT_gd32f303.c **** 
 168:C:/Users/49542/Desktop/GD32F30x_Demo_Suites_V2.0.0/GD32F30x_Demo_Suites_V2.0.0/BearPi-IoT_GD32F303_Demo_Suites/Utilities\BearPi-IoT_gd32f303.c **** /*!
 169:C:/Users/49542/Desktop/GD32F30x_Demo_Suites_V2.0.0/GD32F30x_Demo_Suites_V2.0.0/BearPi-IoT_GD32F303_Demo_Suites/Utilities\BearPi-IoT_gd32f303.c ****     \brief      configure COM port
 170:C:/Users/49542/Desktop/GD32F30x_Demo_Suites_V2.0.0/GD32F30x_Demo_Suites_V2.0.0/BearPi-IoT_GD32F303_Demo_Suites/Utilities\BearPi-IoT_gd32f303.c ****     \param[in]  com: COM on the board
 171:C:/Users/49542/Desktop/GD32F30x_Demo_Suites_V2.0.0/GD32F30x_Demo_Suites_V2.0.0/BearPi-IoT_GD32F303_Demo_Suites/Utilities\BearPi-IoT_gd32f303.c ****       \arg        EVAL_COM0: COM0 on the board
 172:C:/Users/49542/Desktop/GD32F30x_Demo_Suites_V2.0.0/GD32F30x_Demo_Suites_V2.0.0/BearPi-IoT_GD32F303_Demo_Suites/Utilities\BearPi-IoT_gd32f303.c ****       \arg        EVAL_COM1: COM1 on the board
 173:C:/Users/49542/Desktop/GD32F30x_Demo_Suites_V2.0.0/GD32F30x_Demo_Suites_V2.0.0/BearPi-IoT_GD32F303_Demo_Suites/Utilities\BearPi-IoT_gd32f303.c ****     \param[out] none
 174:C:/Users/49542/Desktop/GD32F30x_Demo_Suites_V2.0.0/GD32F30x_Demo_Suites_V2.0.0/BearPi-IoT_GD32F303_Demo_Suites/Utilities\BearPi-IoT_gd32f303.c ****     \retval     none
 175:C:/Users/49542/Desktop/GD32F30x_Demo_Suites_V2.0.0/GD32F30x_Demo_Suites_V2.0.0/BearPi-IoT_GD32F303_Demo_Suites/Utilities\BearPi-IoT_gd32f303.c **** */
 176:C:/Users/49542/Desktop/GD32F30x_Demo_Suites_V2.0.0/GD32F30x_Demo_Suites_V2.0.0/BearPi-IoT_GD32F303_Demo_Suites/Utilities\BearPi-IoT_gd32f303.c **** void gd_eval_com_init(uint32_t com)
 177:C:/Users/49542/Desktop/GD32F30x_Demo_Suites_V2.0.0/GD32F30x_Demo_Suites_V2.0.0/BearPi-IoT_GD32F303_Demo_Suites/Utilities\BearPi-IoT_gd32f303.c **** {
 562              		.loc 1 177 0
 563              		.cfi_startproc
 564              		@ args = 0, pretend = 0, frame = 16
 565              		@ frame_needed = 1, uses_anonymous_args = 0
 566 0000 80B5     		push	{r7, lr}
 567              	.LCFI32:
 568              		.cfi_def_cfa_offset 8
 569              		.cfi_offset 7, -8
 570              		.cfi_offset 14, -4
 571 0002 84B0     		sub	sp, sp, #16
 572              	.LCFI33:
 573              		.cfi_def_cfa_offset 24
 574 0004 00AF     		add	r7, sp, #0
 575              	.LCFI34:
 576              		.cfi_def_cfa_register 7
 577 0006 7860     		str	r0, [r7, #4]
 178:C:/Users/49542/Desktop/GD32F30x_Demo_Suites_V2.0.0/GD32F30x_Demo_Suites_V2.0.0/BearPi-IoT_GD32F303_Demo_Suites/Utilities\BearPi-IoT_gd32f303.c ****     uint32_t com_id = 0U;
 578              		.loc 1 178 0
 579 0008 0023     		movs	r3, #0
 580 000a FB60     		str	r3, [r7, #12]
 179:C:/Users/49542/Desktop/GD32F30x_Demo_Suites_V2.0.0/GD32F30x_Demo_Suites_V2.0.0/BearPi-IoT_GD32F303_Demo_Suites/Utilities\BearPi-IoT_gd32f303.c ****     if(EVAL_COM0 == com){
 581              		.loc 1 179 0
 582 000c 7B68     		ldr	r3, [r7, #4]
 583 000e 2B4A     		ldr	r2, .L27
 584 0010 9342     		cmp	r3, r2
 585 0012 02D1     		bne	.L23
 180:C:/Users/49542/Desktop/GD32F30x_Demo_Suites_V2.0.0/GD32F30x_Demo_Suites_V2.0.0/BearPi-IoT_GD32F303_Demo_Suites/Utilities\BearPi-IoT_gd32f303.c ****         com_id = 0U;
 586              		.loc 1 180 0
 587 0014 0023     		movs	r3, #0
 588 0016 FB60     		str	r3, [r7, #12]
 589 0018 05E0     		b	.L24
 590              	.L23:
 181:C:/Users/49542/Desktop/GD32F30x_Demo_Suites_V2.0.0/GD32F30x_Demo_Suites_V2.0.0/BearPi-IoT_GD32F303_Demo_Suites/Utilities\BearPi-IoT_gd32f303.c ****     }else if(EVAL_COM1 == com){
 591              		.loc 1 181 0
 592 001a 7B68     		ldr	r3, [r7, #4]
 593 001c 284A     		ldr	r2, .L27+4
 594 001e 9342     		cmp	r3, r2
 595 0020 01D1     		bne	.L24
 182:C:/Users/49542/Desktop/GD32F30x_Demo_Suites_V2.0.0/GD32F30x_Demo_Suites_V2.0.0/BearPi-IoT_GD32F303_Demo_Suites/Utilities\BearPi-IoT_gd32f303.c ****         com_id = 1U;
 596              		.loc 1 182 0
ARM GAS  C:\Users\49542\AppData\Local\Temp\ccBQ2p1n.s 			page 14


 597 0022 0123     		movs	r3, #1
 598 0024 FB60     		str	r3, [r7, #12]
 599              	.L24:
 183:C:/Users/49542/Desktop/GD32F30x_Demo_Suites_V2.0.0/GD32F30x_Demo_Suites_V2.0.0/BearPi-IoT_GD32F303_Demo_Suites/Utilities\BearPi-IoT_gd32f303.c ****     }
 184:C:/Users/49542/Desktop/GD32F30x_Demo_Suites_V2.0.0/GD32F30x_Demo_Suites_V2.0.0/BearPi-IoT_GD32F303_Demo_Suites/Utilities\BearPi-IoT_gd32f303.c ****     
 185:C:/Users/49542/Desktop/GD32F30x_Demo_Suites_V2.0.0/GD32F30x_Demo_Suites_V2.0.0/BearPi-IoT_GD32F303_Demo_Suites/Utilities\BearPi-IoT_gd32f303.c ****     /* enable GPIO clock */
 186:C:/Users/49542/Desktop/GD32F30x_Demo_Suites_V2.0.0/GD32F30x_Demo_Suites_V2.0.0/BearPi-IoT_GD32F303_Demo_Suites/Utilities\BearPi-IoT_gd32f303.c ****     rcu_periph_clock_enable(COM_GPIO_CLK[com_id]);
 600              		.loc 1 186 0
 601 0026 274A     		ldr	r2, .L27+8
 602 0028 FB68     		ldr	r3, [r7, #12]
 603 002a 32F81330 		ldrh	r3, [r2, r3, lsl #1]
 604 002e 1846     		mov	r0, r3
 605 0030 FFF7FEFF 		bl	rcu_periph_clock_enable
 187:C:/Users/49542/Desktop/GD32F30x_Demo_Suites_V2.0.0/GD32F30x_Demo_Suites_V2.0.0/BearPi-IoT_GD32F303_Demo_Suites/Utilities\BearPi-IoT_gd32f303.c **** 
 188:C:/Users/49542/Desktop/GD32F30x_Demo_Suites_V2.0.0/GD32F30x_Demo_Suites_V2.0.0/BearPi-IoT_GD32F303_Demo_Suites/Utilities\BearPi-IoT_gd32f303.c ****     /* enable USART clock */
 189:C:/Users/49542/Desktop/GD32F30x_Demo_Suites_V2.0.0/GD32F30x_Demo_Suites_V2.0.0/BearPi-IoT_GD32F303_Demo_Suites/Utilities\BearPi-IoT_gd32f303.c ****     rcu_periph_clock_enable(COM_CLK[com_id]);
 606              		.loc 1 189 0
 607 0034 244A     		ldr	r2, .L27+12
 608 0036 FB68     		ldr	r3, [r7, #12]
 609 0038 32F81330 		ldrh	r3, [r2, r3, lsl #1]
 610 003c 1846     		mov	r0, r3
 611 003e FFF7FEFF 		bl	rcu_periph_clock_enable
 190:C:/Users/49542/Desktop/GD32F30x_Demo_Suites_V2.0.0/GD32F30x_Demo_Suites_V2.0.0/BearPi-IoT_GD32F303_Demo_Suites/Utilities\BearPi-IoT_gd32f303.c **** 
 191:C:/Users/49542/Desktop/GD32F30x_Demo_Suites_V2.0.0/GD32F30x_Demo_Suites_V2.0.0/BearPi-IoT_GD32F303_Demo_Suites/Utilities\BearPi-IoT_gd32f303.c ****     /* connect port to USARTx_Tx */
 192:C:/Users/49542/Desktop/GD32F30x_Demo_Suites_V2.0.0/GD32F30x_Demo_Suites_V2.0.0/BearPi-IoT_GD32F303_Demo_Suites/Utilities\BearPi-IoT_gd32f303.c ****     gpio_init(COM_GPIO_PORT[com_id], GPIO_MODE_AF_PP, GPIO_OSPEED_50MHZ, COM_TX_PIN[com_id]);
 612              		.loc 1 192 0
 613 0042 224A     		ldr	r2, .L27+16
 614 0044 FB68     		ldr	r3, [r7, #12]
 615 0046 52F82300 		ldr	r0, [r2, r3, lsl #2]
 616 004a 214A     		ldr	r2, .L27+20
 617 004c FB68     		ldr	r3, [r7, #12]
 618 004e 52F82330 		ldr	r3, [r2, r3, lsl #2]
 619 0052 0322     		movs	r2, #3
 620 0054 1821     		movs	r1, #24
 621 0056 FFF7FEFF 		bl	gpio_init
 193:C:/Users/49542/Desktop/GD32F30x_Demo_Suites_V2.0.0/GD32F30x_Demo_Suites_V2.0.0/BearPi-IoT_GD32F303_Demo_Suites/Utilities\BearPi-IoT_gd32f303.c **** 
 194:C:/Users/49542/Desktop/GD32F30x_Demo_Suites_V2.0.0/GD32F30x_Demo_Suites_V2.0.0/BearPi-IoT_GD32F303_Demo_Suites/Utilities\BearPi-IoT_gd32f303.c ****     /* connect port to USARTx_Rx */
 195:C:/Users/49542/Desktop/GD32F30x_Demo_Suites_V2.0.0/GD32F30x_Demo_Suites_V2.0.0/BearPi-IoT_GD32F303_Demo_Suites/Utilities\BearPi-IoT_gd32f303.c ****     gpio_init(COM_GPIO_PORT[com_id], GPIO_MODE_IN_FLOATING, GPIO_OSPEED_50MHZ, COM_RX_PIN[com_id]);
 622              		.loc 1 195 0
 623 005a 1C4A     		ldr	r2, .L27+16
 624 005c FB68     		ldr	r3, [r7, #12]
 625 005e 52F82300 		ldr	r0, [r2, r3, lsl #2]
 626 0062 1C4A     		ldr	r2, .L27+24
 627 0064 FB68     		ldr	r3, [r7, #12]
 628 0066 52F82330 		ldr	r3, [r2, r3, lsl #2]
 629 006a 0322     		movs	r2, #3
 630 006c 0421     		movs	r1, #4
 631 006e FFF7FEFF 		bl	gpio_init
 196:C:/Users/49542/Desktop/GD32F30x_Demo_Suites_V2.0.0/GD32F30x_Demo_Suites_V2.0.0/BearPi-IoT_GD32F303_Demo_Suites/Utilities\BearPi-IoT_gd32f303.c **** 
 197:C:/Users/49542/Desktop/GD32F30x_Demo_Suites_V2.0.0/GD32F30x_Demo_Suites_V2.0.0/BearPi-IoT_GD32F303_Demo_Suites/Utilities\BearPi-IoT_gd32f303.c ****     /* USART configure */
 198:C:/Users/49542/Desktop/GD32F30x_Demo_Suites_V2.0.0/GD32F30x_Demo_Suites_V2.0.0/BearPi-IoT_GD32F303_Demo_Suites/Utilities\BearPi-IoT_gd32f303.c ****     usart_deinit(com);
 632              		.loc 1 198 0
 633 0072 7868     		ldr	r0, [r7, #4]
 634 0074 FFF7FEFF 		bl	usart_deinit
 199:C:/Users/49542/Desktop/GD32F30x_Demo_Suites_V2.0.0/GD32F30x_Demo_Suites_V2.0.0/BearPi-IoT_GD32F303_Demo_Suites/Utilities\BearPi-IoT_gd32f303.c **** 		if(EVAL_COM0 == com){
 635              		.loc 1 199 0
 636 0078 7B68     		ldr	r3, [r7, #4]
ARM GAS  C:\Users\49542\AppData\Local\Temp\ccBQ2p1n.s 			page 15


 637 007a 104A     		ldr	r2, .L27
 638 007c 9342     		cmp	r3, r2
 639 007e 05D1     		bne	.L25
 200:C:/Users/49542/Desktop/GD32F30x_Demo_Suites_V2.0.0/GD32F30x_Demo_Suites_V2.0.0/BearPi-IoT_GD32F303_Demo_Suites/Utilities\BearPi-IoT_gd32f303.c ****         usart_baudrate_set(com, 115200U);
 640              		.loc 1 200 0
 641 0080 4FF4E131 		mov	r1, #115200
 642 0084 7868     		ldr	r0, [r7, #4]
 643 0086 FFF7FEFF 		bl	usart_baudrate_set
 644 008a 08E0     		b	.L26
 645              	.L25:
 201:C:/Users/49542/Desktop/GD32F30x_Demo_Suites_V2.0.0/GD32F30x_Demo_Suites_V2.0.0/BearPi-IoT_GD32F303_Demo_Suites/Utilities\BearPi-IoT_gd32f303.c ****     }else if(EVAL_COM1 == com){
 646              		.loc 1 201 0
 647 008c 7B68     		ldr	r3, [r7, #4]
 648 008e 0C4A     		ldr	r2, .L27+4
 649 0090 9342     		cmp	r3, r2
 650 0092 04D1     		bne	.L26
 202:C:/Users/49542/Desktop/GD32F30x_Demo_Suites_V2.0.0/GD32F30x_Demo_Suites_V2.0.0/BearPi-IoT_GD32F303_Demo_Suites/Utilities\BearPi-IoT_gd32f303.c ****         usart_baudrate_set(com, 9600U);
 651              		.loc 1 202 0
 652 0094 4FF41651 		mov	r1, #9600
 653 0098 7868     		ldr	r0, [r7, #4]
 654 009a FFF7FEFF 		bl	usart_baudrate_set
 655              	.L26:
 203:C:/Users/49542/Desktop/GD32F30x_Demo_Suites_V2.0.0/GD32F30x_Demo_Suites_V2.0.0/BearPi-IoT_GD32F303_Demo_Suites/Utilities\BearPi-IoT_gd32f303.c ****     }
 204:C:/Users/49542/Desktop/GD32F30x_Demo_Suites_V2.0.0/GD32F30x_Demo_Suites_V2.0.0/BearPi-IoT_GD32F303_Demo_Suites/Utilities\BearPi-IoT_gd32f303.c ****     usart_receive_config(com, USART_RECEIVE_ENABLE);
 656              		.loc 1 204 0
 657 009e 0421     		movs	r1, #4
 658 00a0 7868     		ldr	r0, [r7, #4]
 659 00a2 FFF7FEFF 		bl	usart_receive_config
 205:C:/Users/49542/Desktop/GD32F30x_Demo_Suites_V2.0.0/GD32F30x_Demo_Suites_V2.0.0/BearPi-IoT_GD32F303_Demo_Suites/Utilities\BearPi-IoT_gd32f303.c ****     usart_transmit_config(com, USART_TRANSMIT_ENABLE);
 660              		.loc 1 205 0
 661 00a6 0821     		movs	r1, #8
 662 00a8 7868     		ldr	r0, [r7, #4]
 663 00aa FFF7FEFF 		bl	usart_transmit_config
 206:C:/Users/49542/Desktop/GD32F30x_Demo_Suites_V2.0.0/GD32F30x_Demo_Suites_V2.0.0/BearPi-IoT_GD32F303_Demo_Suites/Utilities\BearPi-IoT_gd32f303.c ****     usart_enable(com);
 664              		.loc 1 206 0
 665 00ae 7868     		ldr	r0, [r7, #4]
 666 00b0 FFF7FEFF 		bl	usart_enable
 207:C:/Users/49542/Desktop/GD32F30x_Demo_Suites_V2.0.0/GD32F30x_Demo_Suites_V2.0.0/BearPi-IoT_GD32F303_Demo_Suites/Utilities\BearPi-IoT_gd32f303.c **** }
 667              		.loc 1 207 0
 668 00b4 00BF     		nop
 669 00b6 1037     		adds	r7, r7, #16
 670              	.LCFI35:
 671              		.cfi_def_cfa_offset 8
 672 00b8 BD46     		mov	sp, r7
 673              	.LCFI36:
 674              		.cfi_def_cfa_register 13
 675              		@ sp needed
 676 00ba 80BD     		pop	{r7, pc}
 677              	.L28:
 678              		.align	2
 679              	.L27:
 680 00bc 00380140 		.word	1073821696
 681 00c0 00440040 		.word	1073759232
 682 00c4 00000000 		.word	COM_GPIO_CLK
 683 00c8 00000000 		.word	COM_CLK
 684 00cc 00000000 		.word	COM_GPIO_PORT
 685 00d0 00000000 		.word	COM_TX_PIN
ARM GAS  C:\Users\49542\AppData\Local\Temp\ccBQ2p1n.s 			page 16


 686 00d4 00000000 		.word	COM_RX_PIN
 687              		.cfi_endproc
 688              	.LFE125:
 690              		.section	.text._put_char,"ax",%progbits
 691              		.align	1
 692              		.global	_put_char
 693              		.syntax unified
 694              		.thumb
 695              		.thumb_func
 696              		.fpu fpv4-sp-d16
 698              	_put_char:
 699              	.LFB126:
 208:C:/Users/49542/Desktop/GD32F30x_Demo_Suites_V2.0.0/GD32F30x_Demo_Suites_V2.0.0/BearPi-IoT_GD32F303_Demo_Suites/Utilities\BearPi-IoT_gd32f303.c **** /* retarget the C library printf function to the USART */
 209:C:/Users/49542/Desktop/GD32F30x_Demo_Suites_V2.0.0/GD32F30x_Demo_Suites_V2.0.0/BearPi-IoT_GD32F303_Demo_Suites/Utilities\BearPi-IoT_gd32f303.c **** #if defined ( __CC_ARM ) || defined ( __ICCARM__ )  /* KEIL and IAR: printf will call fputc to prin
 210:C:/Users/49542/Desktop/GD32F30x_Demo_Suites_V2.0.0/GD32F30x_Demo_Suites_V2.0.0/BearPi-IoT_GD32F303_Demo_Suites/Utilities\BearPi-IoT_gd32f303.c **** int fputc(int ch, FILE *f)
 211:C:/Users/49542/Desktop/GD32F30x_Demo_Suites_V2.0.0/GD32F30x_Demo_Suites_V2.0.0/BearPi-IoT_GD32F303_Demo_Suites/Utilities\BearPi-IoT_gd32f303.c **** {
 212:C:/Users/49542/Desktop/GD32F30x_Demo_Suites_V2.0.0/GD32F30x_Demo_Suites_V2.0.0/BearPi-IoT_GD32F303_Demo_Suites/Utilities\BearPi-IoT_gd32f303.c ****     usart_data_transmit(EVAL_COM0, (uint8_t)ch);
 213:C:/Users/49542/Desktop/GD32F30x_Demo_Suites_V2.0.0/GD32F30x_Demo_Suites_V2.0.0/BearPi-IoT_GD32F303_Demo_Suites/Utilities\BearPi-IoT_gd32f303.c ****     while(RESET == usart_flag_get(EVAL_COM0, USART_FLAG_TBE));
 214:C:/Users/49542/Desktop/GD32F30x_Demo_Suites_V2.0.0/GD32F30x_Demo_Suites_V2.0.0/BearPi-IoT_GD32F303_Demo_Suites/Utilities\BearPi-IoT_gd32f303.c ****     return ch;
 215:C:/Users/49542/Desktop/GD32F30x_Demo_Suites_V2.0.0/GD32F30x_Demo_Suites_V2.0.0/BearPi-IoT_GD32F303_Demo_Suites/Utilities\BearPi-IoT_gd32f303.c **** }
 216:C:/Users/49542/Desktop/GD32F30x_Demo_Suites_V2.0.0/GD32F30x_Demo_Suites_V2.0.0/BearPi-IoT_GD32F303_Demo_Suites/Utilities\BearPi-IoT_gd32f303.c **** #elif defined ( __GNUC__ )  /* GCC: printf will call _write to print */
 217:C:/Users/49542/Desktop/GD32F30x_Demo_Suites_V2.0.0/GD32F30x_Demo_Suites_V2.0.0/BearPi-IoT_GD32F303_Demo_Suites/Utilities\BearPi-IoT_gd32f303.c **** int _put_char(int ch)
 218:C:/Users/49542/Desktop/GD32F30x_Demo_Suites_V2.0.0/GD32F30x_Demo_Suites_V2.0.0/BearPi-IoT_GD32F303_Demo_Suites/Utilities\BearPi-IoT_gd32f303.c **** {
 700              		.loc 1 218 0
 701              		.cfi_startproc
 702              		@ args = 0, pretend = 0, frame = 8
 703              		@ frame_needed = 1, uses_anonymous_args = 0
 704 0000 80B5     		push	{r7, lr}
 705              	.LCFI37:
 706              		.cfi_def_cfa_offset 8
 707              		.cfi_offset 7, -8
 708              		.cfi_offset 14, -4
 709 0002 82B0     		sub	sp, sp, #8
 710              	.LCFI38:
 711              		.cfi_def_cfa_offset 16
 712 0004 00AF     		add	r7, sp, #0
 713              	.LCFI39:
 714              		.cfi_def_cfa_register 7
 715 0006 7860     		str	r0, [r7, #4]
 219:C:/Users/49542/Desktop/GD32F30x_Demo_Suites_V2.0.0/GD32F30x_Demo_Suites_V2.0.0/BearPi-IoT_GD32F303_Demo_Suites/Utilities\BearPi-IoT_gd32f303.c ****     usart_data_transmit(EVAL_COM0, (uint8_t) ch );
 716              		.loc 1 219 0
 717 0008 7B68     		ldr	r3, [r7, #4]
 718 000a DBB2     		uxtb	r3, r3
 719 000c 1946     		mov	r1, r3
 720 000e 0848     		ldr	r0, .L32
 721 0010 FFF7FEFF 		bl	usart_data_transmit
 220:C:/Users/49542/Desktop/GD32F30x_Demo_Suites_V2.0.0/GD32F30x_Demo_Suites_V2.0.0/BearPi-IoT_GD32F303_Demo_Suites/Utilities\BearPi-IoT_gd32f303.c ****     while (usart_flag_get(EVAL_COM0, USART_FLAG_TBE)== RESET){
 722              		.loc 1 220 0
 723 0014 00BF     		nop
 724              	.L30:
 725              		.loc 1 220 0 is_stmt 0 discriminator 1
 726 0016 0721     		movs	r1, #7
 727 0018 0548     		ldr	r0, .L32
 728 001a FFF7FEFF 		bl	usart_flag_get
 729 001e 0346     		mov	r3, r0
 730 0020 002B     		cmp	r3, #0
 731 0022 F8D0     		beq	.L30
ARM GAS  C:\Users\49542\AppData\Local\Temp\ccBQ2p1n.s 			page 17


 221:C:/Users/49542/Desktop/GD32F30x_Demo_Suites_V2.0.0/GD32F30x_Demo_Suites_V2.0.0/BearPi-IoT_GD32F303_Demo_Suites/Utilities\BearPi-IoT_gd32f303.c ****     }
 222:C:/Users/49542/Desktop/GD32F30x_Demo_Suites_V2.0.0/GD32F30x_Demo_Suites_V2.0.0/BearPi-IoT_GD32F303_Demo_Suites/Utilities\BearPi-IoT_gd32f303.c **** 
 223:C:/Users/49542/Desktop/GD32F30x_Demo_Suites_V2.0.0/GD32F30x_Demo_Suites_V2.0.0/BearPi-IoT_GD32F303_Demo_Suites/Utilities\BearPi-IoT_gd32f303.c ****     return ch;
 732              		.loc 1 223 0 is_stmt 1
 733 0024 7B68     		ldr	r3, [r7, #4]
 224:C:/Users/49542/Desktop/GD32F30x_Demo_Suites_V2.0.0/GD32F30x_Demo_Suites_V2.0.0/BearPi-IoT_GD32F303_Demo_Suites/Utilities\BearPi-IoT_gd32f303.c **** }
 734              		.loc 1 224 0
 735 0026 1846     		mov	r0, r3
 736 0028 0837     		adds	r7, r7, #8
 737              	.LCFI40:
 738              		.cfi_def_cfa_offset 8
 739 002a BD46     		mov	sp, r7
 740              	.LCFI41:
 741              		.cfi_def_cfa_register 13
 742              		@ sp needed
 743 002c 80BD     		pop	{r7, pc}
 744              	.L33:
 745 002e 00BF     		.align	2
 746              	.L32:
 747 0030 00380140 		.word	1073821696
 748              		.cfi_endproc
 749              	.LFE126:
 751              		.section	.text._write,"ax",%progbits
 752              		.align	1
 753              		.global	_write
 754              		.syntax unified
 755              		.thumb
 756              		.thumb_func
 757              		.fpu fpv4-sp-d16
 759              	_write:
 760              	.LFB127:
 225:C:/Users/49542/Desktop/GD32F30x_Demo_Suites_V2.0.0/GD32F30x_Demo_Suites_V2.0.0/BearPi-IoT_GD32F303_Demo_Suites/Utilities\BearPi-IoT_gd32f303.c **** 
 226:C:/Users/49542/Desktop/GD32F30x_Demo_Suites_V2.0.0/GD32F30x_Demo_Suites_V2.0.0/BearPi-IoT_GD32F303_Demo_Suites/Utilities\BearPi-IoT_gd32f303.c **** __attribute__((used)) int _write(int fd, char *ptr, int len)
 227:C:/Users/49542/Desktop/GD32F30x_Demo_Suites_V2.0.0/GD32F30x_Demo_Suites_V2.0.0/BearPi-IoT_GD32F303_Demo_Suites/Utilities\BearPi-IoT_gd32f303.c **** {
 761              		.loc 1 227 0
 762              		.cfi_startproc
 763              		@ args = 0, pretend = 0, frame = 24
 764              		@ frame_needed = 1, uses_anonymous_args = 0
 765 0000 80B5     		push	{r7, lr}
 766              	.LCFI42:
 767              		.cfi_def_cfa_offset 8
 768              		.cfi_offset 7, -8
 769              		.cfi_offset 14, -4
 770 0002 86B0     		sub	sp, sp, #24
 771              	.LCFI43:
 772              		.cfi_def_cfa_offset 32
 773 0004 00AF     		add	r7, sp, #0
 774              	.LCFI44:
 775              		.cfi_def_cfa_register 7
 776 0006 F860     		str	r0, [r7, #12]
 777 0008 B960     		str	r1, [r7, #8]
 778 000a 7A60     		str	r2, [r7, #4]
 228:C:/Users/49542/Desktop/GD32F30x_Demo_Suites_V2.0.0/GD32F30x_Demo_Suites_V2.0.0/BearPi-IoT_GD32F303_Demo_Suites/Utilities\BearPi-IoT_gd32f303.c **** 
 229:C:/Users/49542/Desktop/GD32F30x_Demo_Suites_V2.0.0/GD32F30x_Demo_Suites_V2.0.0/BearPi-IoT_GD32F303_Demo_Suites/Utilities\BearPi-IoT_gd32f303.c ****     	const uint8_t * current = (const uint8_t *) ptr;
 779              		.loc 1 229 0
 780 000c BB68     		ldr	r3, [r7, #8]
 781 000e 3B61     		str	r3, [r7, #16]
ARM GAS  C:\Users\49542\AppData\Local\Temp\ccBQ2p1n.s 			page 18


 782              	.LBB2:
 230:C:/Users/49542/Desktop/GD32F30x_Demo_Suites_V2.0.0/GD32F30x_Demo_Suites_V2.0.0/BearPi-IoT_GD32F303_Demo_Suites/Utilities\BearPi-IoT_gd32f303.c **** 
 231:C:/Users/49542/Desktop/GD32F30x_Demo_Suites_V2.0.0/GD32F30x_Demo_Suites_V2.0.0/BearPi-IoT_GD32F303_Demo_Suites/Utilities\BearPi-IoT_gd32f303.c ****     	for (size_t jj = 0; jj < len; jj++)
 783              		.loc 1 231 0
 784 0010 0023     		movs	r3, #0
 785 0012 7B61     		str	r3, [r7, #20]
 786 0014 09E0     		b	.L35
 787              	.L36:
 232:C:/Users/49542/Desktop/GD32F30x_Demo_Suites_V2.0.0/GD32F30x_Demo_Suites_V2.0.0/BearPi-IoT_GD32F303_Demo_Suites/Utilities\BearPi-IoT_gd32f303.c ****     	{
 233:C:/Users/49542/Desktop/GD32F30x_Demo_Suites_V2.0.0/GD32F30x_Demo_Suites_V2.0.0/BearPi-IoT_GD32F303_Demo_Suites/Utilities\BearPi-IoT_gd32f303.c ****     		_put_char(current[jj]);
 788              		.loc 1 233 0 discriminator 3
 789 0016 3A69     		ldr	r2, [r7, #16]
 790 0018 7B69     		ldr	r3, [r7, #20]
 791 001a 1344     		add	r3, r3, r2
 792 001c 1B78     		ldrb	r3, [r3]	@ zero_extendqisi2
 793 001e 1846     		mov	r0, r3
 794 0020 FFF7FEFF 		bl	_put_char
 231:C:/Users/49542/Desktop/GD32F30x_Demo_Suites_V2.0.0/GD32F30x_Demo_Suites_V2.0.0/BearPi-IoT_GD32F303_Demo_Suites/Utilities\BearPi-IoT_gd32f303.c ****     	{
 795              		.loc 1 231 0 discriminator 3
 796 0024 7B69     		ldr	r3, [r7, #20]
 797 0026 0133     		adds	r3, r3, #1
 798 0028 7B61     		str	r3, [r7, #20]
 799              	.L35:
 231:C:/Users/49542/Desktop/GD32F30x_Demo_Suites_V2.0.0/GD32F30x_Demo_Suites_V2.0.0/BearPi-IoT_GD32F303_Demo_Suites/Utilities\BearPi-IoT_gd32f303.c ****     	{
 800              		.loc 1 231 0 is_stmt 0 discriminator 1
 801 002a 7B68     		ldr	r3, [r7, #4]
 802 002c 7A69     		ldr	r2, [r7, #20]
 803 002e 9A42     		cmp	r2, r3
 804 0030 F1D3     		bcc	.L36
 805              	.LBE2:
 234:C:/Users/49542/Desktop/GD32F30x_Demo_Suites_V2.0.0/GD32F30x_Demo_Suites_V2.0.0/BearPi-IoT_GD32F303_Demo_Suites/Utilities\BearPi-IoT_gd32f303.c ****     	}
 235:C:/Users/49542/Desktop/GD32F30x_Demo_Suites_V2.0.0/GD32F30x_Demo_Suites_V2.0.0/BearPi-IoT_GD32F303_Demo_Suites/Utilities\BearPi-IoT_gd32f303.c ****     return len;
 806              		.loc 1 235 0 is_stmt 1
 807 0032 7B68     		ldr	r3, [r7, #4]
 236:C:/Users/49542/Desktop/GD32F30x_Demo_Suites_V2.0.0/GD32F30x_Demo_Suites_V2.0.0/BearPi-IoT_GD32F303_Demo_Suites/Utilities\BearPi-IoT_gd32f303.c **** }
 808              		.loc 1 236 0
 809 0034 1846     		mov	r0, r3
 810 0036 1837     		adds	r7, r7, #24
 811              	.LCFI45:
 812              		.cfi_def_cfa_offset 8
 813 0038 BD46     		mov	sp, r7
 814              	.LCFI46:
 815              		.cfi_def_cfa_register 13
 816              		@ sp needed
 817 003a 80BD     		pop	{r7, pc}
 818              		.cfi_endproc
 819              	.LFE127:
 821              		.text
 822              	.Letext0:
 823              		.file 2 "c:\\users\\49542\\opensourcetools\\gnu tools arm embedded\\7 2018-q2-update\\arm-none-eab
 824              		.file 3 "c:\\users\\49542\\opensourcetools\\gnu tools arm embedded\\7 2018-q2-update\\arm-none-eab
 825              		.file 4 "C:/Users/49542/Desktop/GD32F30x_Demo_Suites_V2.0.0/GD32F30x_Demo_Suites_V2.0.0/GD32F30x_F
 826              		.file 5 "C:/Users/49542/Desktop/GD32F30x_Demo_Suites_V2.0.0/GD32F30x_Demo_Suites_V2.0.0/GD32F30x_F
 827              		.file 6 "C:/Users/49542/Desktop/GD32F30x_Demo_Suites_V2.0.0/GD32F30x_Demo_Suites_V2.0.0/GD32F30x_F
 828              		.file 7 "C:/Users/49542/Desktop/GD32F30x_Demo_Suites_V2.0.0/GD32F30x_Demo_Suites_V2.0.0/GD32F30x_F
 829              		.file 8 "C:/Users/49542/Desktop/GD32F30x_Demo_Suites_V2.0.0/GD32F30x_Demo_Suites_V2.0.0/GD32F30x_F
 830              		.file 9 "C:/Users/49542/Desktop/GD32F30x_Demo_Suites_V2.0.0/GD32F30x_Demo_Suites_V2.0.0/GD32F30x_F
ARM GAS  C:\Users\49542\AppData\Local\Temp\ccBQ2p1n.s 			page 19


 831              		.file 10 "C:/Users/49542/Desktop/GD32F30x_Demo_Suites_V2.0.0/GD32F30x_Demo_Suites_V2.0.0/GD32F30x_
 832              		.file 11 "C:/Users/49542/Desktop/GD32F30x_Demo_Suites_V2.0.0/GD32F30x_Demo_Suites_V2.0.0/GD32F30x_
 833              		.file 12 "c:\\users\\49542\\opensourcetools\\gnu tools arm embedded\\7 2018-q2-update\\lib\\gcc\\a
 834              		.file 13 "c:\\users\\49542\\opensourcetools\\gnu tools arm embedded\\7 2018-q2-update\\arm-none-ea
 835              		.file 14 "c:\\users\\49542\\opensourcetools\\gnu tools arm embedded\\7 2018-q2-update\\arm-none-ea
 836              		.file 15 "c:\\users\\49542\\opensourcetools\\gnu tools arm embedded\\7 2018-q2-update\\arm-none-ea
 837              		.file 16 "c:\\users\\49542\\opensourcetools\\gnu tools arm embedded\\7 2018-q2-update\\arm-none-ea
 838              		.file 17 "C:/Users/49542/Desktop/GD32F30x_Demo_Suites_V2.0.0/GD32F30x_Demo_Suites_V2.0.0/BearPi-Io
ARM GAS  C:\Users\49542\AppData\Local\Temp\ccBQ2p1n.s 			page 20

