ARM GAS  C:\Users\49542\AppData\Local\Temp\ccX92vIs.s 			page 1


   1              		.cpu cortex-m4
   2              		.eabi_attribute 27, 1
   3              		.eabi_attribute 28, 1
   4              		.eabi_attribute 20, 1
   5              		.eabi_attribute 21, 1
   6              		.eabi_attribute 23, 3
   7              		.eabi_attribute 24, 1
   8              		.eabi_attribute 25, 1
   9              		.eabi_attribute 26, 1
  10              		.eabi_attribute 30, 6
  11              		.eabi_attribute 34, 1
  12              		.eabi_attribute 18, 4
  13              		.file	"gd32f30x_sdio.c"
  14              		.text
  15              	.Ltext0:
  16              		.cfi_sections	.debug_frame
  17              		.section	.text.sdio_deinit,"ax",%progbits
  18              		.align	1
  19              		.global	sdio_deinit
  20              		.syntax unified
  21              		.thumb
  22              		.thumb_func
  23              		.fpu fpv4-sp-d16
  25              	sdio_deinit:
  26              	.LFB116:
  27              		.file 1 "C:/Users/49542/Desktop/GD32F30x_Demo_Suites_V2.0.0/GD32F30x_Demo_Suites_V2.0.0/GD32F30x_F
   1:C:/Users/49542/Desktop/GD32F30x_Demo_Suites_V2.0.0/GD32F30x_Demo_Suites_V2.0.0/GD32F30x_Firmware_Library/GD32F30x_standard_peripheral/Source\gd32f30x_sdio.c **** /*!
   2:C:/Users/49542/Desktop/GD32F30x_Demo_Suites_V2.0.0/GD32F30x_Demo_Suites_V2.0.0/GD32F30x_Firmware_Library/GD32F30x_standard_peripheral/Source\gd32f30x_sdio.c ****     \file  gd32f30x_sdio.c
   3:C:/Users/49542/Desktop/GD32F30x_Demo_Suites_V2.0.0/GD32F30x_Demo_Suites_V2.0.0/GD32F30x_Firmware_Library/GD32F30x_standard_peripheral/Source\gd32f30x_sdio.c ****     \brief SDIO driver
   4:C:/Users/49542/Desktop/GD32F30x_Demo_Suites_V2.0.0/GD32F30x_Demo_Suites_V2.0.0/GD32F30x_Firmware_Library/GD32F30x_standard_peripheral/Source\gd32f30x_sdio.c **** 
   5:C:/Users/49542/Desktop/GD32F30x_Demo_Suites_V2.0.0/GD32F30x_Demo_Suites_V2.0.0/GD32F30x_Firmware_Library/GD32F30x_standard_peripheral/Source\gd32f30x_sdio.c ****     \version 2017-02-10, V1.0.0, firmware for GD32F30x
   6:C:/Users/49542/Desktop/GD32F30x_Demo_Suites_V2.0.0/GD32F30x_Demo_Suites_V2.0.0/GD32F30x_Firmware_Library/GD32F30x_standard_peripheral/Source\gd32f30x_sdio.c ****     \version 2018-10-10, V1.1.0, firmware for GD32F30x
   7:C:/Users/49542/Desktop/GD32F30x_Demo_Suites_V2.0.0/GD32F30x_Demo_Suites_V2.0.0/GD32F30x_Firmware_Library/GD32F30x_standard_peripheral/Source\gd32f30x_sdio.c ****     \version 2018-12-25, V2.0.0, firmware for GD32F30x
   8:C:/Users/49542/Desktop/GD32F30x_Demo_Suites_V2.0.0/GD32F30x_Demo_Suites_V2.0.0/GD32F30x_Firmware_Library/GD32F30x_standard_peripheral/Source\gd32f30x_sdio.c **** */
   9:C:/Users/49542/Desktop/GD32F30x_Demo_Suites_V2.0.0/GD32F30x_Demo_Suites_V2.0.0/GD32F30x_Firmware_Library/GD32F30x_standard_peripheral/Source\gd32f30x_sdio.c **** 
  10:C:/Users/49542/Desktop/GD32F30x_Demo_Suites_V2.0.0/GD32F30x_Demo_Suites_V2.0.0/GD32F30x_Firmware_Library/GD32F30x_standard_peripheral/Source\gd32f30x_sdio.c **** /*
  11:C:/Users/49542/Desktop/GD32F30x_Demo_Suites_V2.0.0/GD32F30x_Demo_Suites_V2.0.0/GD32F30x_Firmware_Library/GD32F30x_standard_peripheral/Source\gd32f30x_sdio.c ****     Copyright (c) 2018, GigaDevice Semiconductor Inc.
  12:C:/Users/49542/Desktop/GD32F30x_Demo_Suites_V2.0.0/GD32F30x_Demo_Suites_V2.0.0/GD32F30x_Firmware_Library/GD32F30x_standard_peripheral/Source\gd32f30x_sdio.c **** 
  13:C:/Users/49542/Desktop/GD32F30x_Demo_Suites_V2.0.0/GD32F30x_Demo_Suites_V2.0.0/GD32F30x_Firmware_Library/GD32F30x_standard_peripheral/Source\gd32f30x_sdio.c ****     All rights reserved.
  14:C:/Users/49542/Desktop/GD32F30x_Demo_Suites_V2.0.0/GD32F30x_Demo_Suites_V2.0.0/GD32F30x_Firmware_Library/GD32F30x_standard_peripheral/Source\gd32f30x_sdio.c **** 
  15:C:/Users/49542/Desktop/GD32F30x_Demo_Suites_V2.0.0/GD32F30x_Demo_Suites_V2.0.0/GD32F30x_Firmware_Library/GD32F30x_standard_peripheral/Source\gd32f30x_sdio.c ****     Redistribution and use in source and binary forms, with or without modification, 
  16:C:/Users/49542/Desktop/GD32F30x_Demo_Suites_V2.0.0/GD32F30x_Demo_Suites_V2.0.0/GD32F30x_Firmware_Library/GD32F30x_standard_peripheral/Source\gd32f30x_sdio.c **** are permitted provided that the following conditions are met:
  17:C:/Users/49542/Desktop/GD32F30x_Demo_Suites_V2.0.0/GD32F30x_Demo_Suites_V2.0.0/GD32F30x_Firmware_Library/GD32F30x_standard_peripheral/Source\gd32f30x_sdio.c **** 
  18:C:/Users/49542/Desktop/GD32F30x_Demo_Suites_V2.0.0/GD32F30x_Demo_Suites_V2.0.0/GD32F30x_Firmware_Library/GD32F30x_standard_peripheral/Source\gd32f30x_sdio.c ****     1. Redistributions of source code must retain the above copyright notice, this 
  19:C:/Users/49542/Desktop/GD32F30x_Demo_Suites_V2.0.0/GD32F30x_Demo_Suites_V2.0.0/GD32F30x_Firmware_Library/GD32F30x_standard_peripheral/Source\gd32f30x_sdio.c ****        list of conditions and the following disclaimer.
  20:C:/Users/49542/Desktop/GD32F30x_Demo_Suites_V2.0.0/GD32F30x_Demo_Suites_V2.0.0/GD32F30x_Firmware_Library/GD32F30x_standard_peripheral/Source\gd32f30x_sdio.c ****     2. Redistributions in binary form must reproduce the above copyright notice, 
  21:C:/Users/49542/Desktop/GD32F30x_Demo_Suites_V2.0.0/GD32F30x_Demo_Suites_V2.0.0/GD32F30x_Firmware_Library/GD32F30x_standard_peripheral/Source\gd32f30x_sdio.c ****        this list of conditions and the following disclaimer in the documentation 
  22:C:/Users/49542/Desktop/GD32F30x_Demo_Suites_V2.0.0/GD32F30x_Demo_Suites_V2.0.0/GD32F30x_Firmware_Library/GD32F30x_standard_peripheral/Source\gd32f30x_sdio.c ****        and/or other materials provided with the distribution.
  23:C:/Users/49542/Desktop/GD32F30x_Demo_Suites_V2.0.0/GD32F30x_Demo_Suites_V2.0.0/GD32F30x_Firmware_Library/GD32F30x_standard_peripheral/Source\gd32f30x_sdio.c ****     3. Neither the name of the copyright holder nor the names of its contributors 
  24:C:/Users/49542/Desktop/GD32F30x_Demo_Suites_V2.0.0/GD32F30x_Demo_Suites_V2.0.0/GD32F30x_Firmware_Library/GD32F30x_standard_peripheral/Source\gd32f30x_sdio.c ****        may be used to endorse or promote products derived from this software without 
  25:C:/Users/49542/Desktop/GD32F30x_Demo_Suites_V2.0.0/GD32F30x_Demo_Suites_V2.0.0/GD32F30x_Firmware_Library/GD32F30x_standard_peripheral/Source\gd32f30x_sdio.c ****        specific prior written permission.
  26:C:/Users/49542/Desktop/GD32F30x_Demo_Suites_V2.0.0/GD32F30x_Demo_Suites_V2.0.0/GD32F30x_Firmware_Library/GD32F30x_standard_peripheral/Source\gd32f30x_sdio.c **** 
  27:C:/Users/49542/Desktop/GD32F30x_Demo_Suites_V2.0.0/GD32F30x_Demo_Suites_V2.0.0/GD32F30x_Firmware_Library/GD32F30x_standard_peripheral/Source\gd32f30x_sdio.c ****     THIS SOFTWARE IS PROVIDED BY THE COPYRIGHT HOLDERS AND CONTRIBUTORS "AS IS" 
  28:C:/Users/49542/Desktop/GD32F30x_Demo_Suites_V2.0.0/GD32F30x_Demo_Suites_V2.0.0/GD32F30x_Firmware_Library/GD32F30x_standard_peripheral/Source\gd32f30x_sdio.c **** AND ANY EXPRESS OR IMPLIED WARRANTIES, INCLUDING, BUT NOT LIMITED TO, THE IMPLIED 
  29:C:/Users/49542/Desktop/GD32F30x_Demo_Suites_V2.0.0/GD32F30x_Demo_Suites_V2.0.0/GD32F30x_Firmware_Library/GD32F30x_standard_peripheral/Source\gd32f30x_sdio.c **** WARRANTIES OF MERCHANTABILITY AND FITNESS FOR A PARTICULAR PURPOSE ARE DISCLAIMED. 
  30:C:/Users/49542/Desktop/GD32F30x_Demo_Suites_V2.0.0/GD32F30x_Demo_Suites_V2.0.0/GD32F30x_Firmware_Library/GD32F30x_standard_peripheral/Source\gd32f30x_sdio.c **** IN NO EVENT SHALL THE COPYRIGHT HOLDER OR CONTRIBUTORS BE LIABLE FOR ANY DIRECT, 
  31:C:/Users/49542/Desktop/GD32F30x_Demo_Suites_V2.0.0/GD32F30x_Demo_Suites_V2.0.0/GD32F30x_Firmware_Library/GD32F30x_standard_peripheral/Source\gd32f30x_sdio.c **** INDIRECT, INCIDENTAL, SPECIAL, EXEMPLARY, OR CONSEQUENTIAL DAMAGES (INCLUDING, BUT 
ARM GAS  C:\Users\49542\AppData\Local\Temp\ccX92vIs.s 			page 2


  32:C:/Users/49542/Desktop/GD32F30x_Demo_Suites_V2.0.0/GD32F30x_Demo_Suites_V2.0.0/GD32F30x_Firmware_Library/GD32F30x_standard_peripheral/Source\gd32f30x_sdio.c **** NOT LIMITED TO, PROCUREMENT OF SUBSTITUTE GOODS OR SERVICES; LOSS OF USE, DATA, OR 
  33:C:/Users/49542/Desktop/GD32F30x_Demo_Suites_V2.0.0/GD32F30x_Demo_Suites_V2.0.0/GD32F30x_Firmware_Library/GD32F30x_standard_peripheral/Source\gd32f30x_sdio.c **** PROFITS; OR BUSINESS INTERRUPTION) HOWEVER CAUSED AND ON ANY THEORY OF LIABILITY, 
  34:C:/Users/49542/Desktop/GD32F30x_Demo_Suites_V2.0.0/GD32F30x_Demo_Suites_V2.0.0/GD32F30x_Firmware_Library/GD32F30x_standard_peripheral/Source\gd32f30x_sdio.c **** WHETHER IN CONTRACT, STRICT LIABILITY, OR TORT (INCLUDING NEGLIGENCE OR OTHERWISE) 
  35:C:/Users/49542/Desktop/GD32F30x_Demo_Suites_V2.0.0/GD32F30x_Demo_Suites_V2.0.0/GD32F30x_Firmware_Library/GD32F30x_standard_peripheral/Source\gd32f30x_sdio.c **** ARISING IN ANY WAY OUT OF THE USE OF THIS SOFTWARE, EVEN IF ADVISED OF THE POSSIBILITY 
  36:C:/Users/49542/Desktop/GD32F30x_Demo_Suites_V2.0.0/GD32F30x_Demo_Suites_V2.0.0/GD32F30x_Firmware_Library/GD32F30x_standard_peripheral/Source\gd32f30x_sdio.c **** OF SUCH DAMAGE.
  37:C:/Users/49542/Desktop/GD32F30x_Demo_Suites_V2.0.0/GD32F30x_Demo_Suites_V2.0.0/GD32F30x_Firmware_Library/GD32F30x_standard_peripheral/Source\gd32f30x_sdio.c **** */
  38:C:/Users/49542/Desktop/GD32F30x_Demo_Suites_V2.0.0/GD32F30x_Demo_Suites_V2.0.0/GD32F30x_Firmware_Library/GD32F30x_standard_peripheral/Source\gd32f30x_sdio.c **** 
  39:C:/Users/49542/Desktop/GD32F30x_Demo_Suites_V2.0.0/GD32F30x_Demo_Suites_V2.0.0/GD32F30x_Firmware_Library/GD32F30x_standard_peripheral/Source\gd32f30x_sdio.c **** #include "gd32f30x_sdio.h"
  40:C:/Users/49542/Desktop/GD32F30x_Demo_Suites_V2.0.0/GD32F30x_Demo_Suites_V2.0.0/GD32F30x_Firmware_Library/GD32F30x_standard_peripheral/Source\gd32f30x_sdio.c **** 
  41:C:/Users/49542/Desktop/GD32F30x_Demo_Suites_V2.0.0/GD32F30x_Demo_Suites_V2.0.0/GD32F30x_Firmware_Library/GD32F30x_standard_peripheral/Source\gd32f30x_sdio.c **** #define DEFAULT_RESET_VALUE 0x00000000U
  42:C:/Users/49542/Desktop/GD32F30x_Demo_Suites_V2.0.0/GD32F30x_Demo_Suites_V2.0.0/GD32F30x_Firmware_Library/GD32F30x_standard_peripheral/Source\gd32f30x_sdio.c **** 
  43:C:/Users/49542/Desktop/GD32F30x_Demo_Suites_V2.0.0/GD32F30x_Demo_Suites_V2.0.0/GD32F30x_Firmware_Library/GD32F30x_standard_peripheral/Source\gd32f30x_sdio.c **** /*!
  44:C:/Users/49542/Desktop/GD32F30x_Demo_Suites_V2.0.0/GD32F30x_Demo_Suites_V2.0.0/GD32F30x_Firmware_Library/GD32F30x_standard_peripheral/Source\gd32f30x_sdio.c ****     \brief      deinitialize the SDIO
  45:C:/Users/49542/Desktop/GD32F30x_Demo_Suites_V2.0.0/GD32F30x_Demo_Suites_V2.0.0/GD32F30x_Firmware_Library/GD32F30x_standard_peripheral/Source\gd32f30x_sdio.c ****     \param[in]  none
  46:C:/Users/49542/Desktop/GD32F30x_Demo_Suites_V2.0.0/GD32F30x_Demo_Suites_V2.0.0/GD32F30x_Firmware_Library/GD32F30x_standard_peripheral/Source\gd32f30x_sdio.c ****     \param[out] none
  47:C:/Users/49542/Desktop/GD32F30x_Demo_Suites_V2.0.0/GD32F30x_Demo_Suites_V2.0.0/GD32F30x_Firmware_Library/GD32F30x_standard_peripheral/Source\gd32f30x_sdio.c ****     \retval     none
  48:C:/Users/49542/Desktop/GD32F30x_Demo_Suites_V2.0.0/GD32F30x_Demo_Suites_V2.0.0/GD32F30x_Firmware_Library/GD32F30x_standard_peripheral/Source\gd32f30x_sdio.c **** */
  49:C:/Users/49542/Desktop/GD32F30x_Demo_Suites_V2.0.0/GD32F30x_Demo_Suites_V2.0.0/GD32F30x_Firmware_Library/GD32F30x_standard_peripheral/Source\gd32f30x_sdio.c **** void sdio_deinit(void)
  50:C:/Users/49542/Desktop/GD32F30x_Demo_Suites_V2.0.0/GD32F30x_Demo_Suites_V2.0.0/GD32F30x_Firmware_Library/GD32F30x_standard_peripheral/Source\gd32f30x_sdio.c **** {
  28              		.loc 1 50 0
  29              		.cfi_startproc
  30              		@ args = 0, pretend = 0, frame = 0
  31              		@ frame_needed = 1, uses_anonymous_args = 0
  32              		@ link register save eliminated.
  33 0000 80B4     		push	{r7}
  34              	.LCFI0:
  35              		.cfi_def_cfa_offset 4
  36              		.cfi_offset 7, -4
  37 0002 00AF     		add	r7, sp, #0
  38              	.LCFI1:
  39              		.cfi_def_cfa_register 7
  51:C:/Users/49542/Desktop/GD32F30x_Demo_Suites_V2.0.0/GD32F30x_Demo_Suites_V2.0.0/GD32F30x_Firmware_Library/GD32F30x_standard_peripheral/Source\gd32f30x_sdio.c ****     SDIO_PWRCTL  = DEFAULT_RESET_VALUE;
  40              		.loc 1 51 0
  41 0004 0F4B     		ldr	r3, .L2
  42 0006 0022     		movs	r2, #0
  43 0008 1A60     		str	r2, [r3]
  52:C:/Users/49542/Desktop/GD32F30x_Demo_Suites_V2.0.0/GD32F30x_Demo_Suites_V2.0.0/GD32F30x_Firmware_Library/GD32F30x_standard_peripheral/Source\gd32f30x_sdio.c ****     SDIO_CLKCTL  = DEFAULT_RESET_VALUE;
  44              		.loc 1 52 0
  45 000a 0F4B     		ldr	r3, .L2+4
  46 000c 0022     		movs	r2, #0
  47 000e 1A60     		str	r2, [r3]
  53:C:/Users/49542/Desktop/GD32F30x_Demo_Suites_V2.0.0/GD32F30x_Demo_Suites_V2.0.0/GD32F30x_Firmware_Library/GD32F30x_standard_peripheral/Source\gd32f30x_sdio.c ****     SDIO_CMDAGMT = DEFAULT_RESET_VALUE;
  48              		.loc 1 53 0
  49 0010 0E4B     		ldr	r3, .L2+8
  50 0012 0022     		movs	r2, #0
  51 0014 1A60     		str	r2, [r3]
  54:C:/Users/49542/Desktop/GD32F30x_Demo_Suites_V2.0.0/GD32F30x_Demo_Suites_V2.0.0/GD32F30x_Firmware_Library/GD32F30x_standard_peripheral/Source\gd32f30x_sdio.c ****     SDIO_CMDCTL  = DEFAULT_RESET_VALUE;
  52              		.loc 1 54 0
  53 0016 0E4B     		ldr	r3, .L2+12
  54 0018 0022     		movs	r2, #0
  55 001a 1A60     		str	r2, [r3]
  55:C:/Users/49542/Desktop/GD32F30x_Demo_Suites_V2.0.0/GD32F30x_Demo_Suites_V2.0.0/GD32F30x_Firmware_Library/GD32F30x_standard_peripheral/Source\gd32f30x_sdio.c ****     SDIO_DATATO  = DEFAULT_RESET_VALUE;
  56              		.loc 1 55 0
  57 001c 0D4B     		ldr	r3, .L2+16
  58 001e 0022     		movs	r2, #0
  59 0020 1A60     		str	r2, [r3]
  56:C:/Users/49542/Desktop/GD32F30x_Demo_Suites_V2.0.0/GD32F30x_Demo_Suites_V2.0.0/GD32F30x_Firmware_Library/GD32F30x_standard_peripheral/Source\gd32f30x_sdio.c ****     SDIO_DATALEN = DEFAULT_RESET_VALUE;
ARM GAS  C:\Users\49542\AppData\Local\Temp\ccX92vIs.s 			page 3


  60              		.loc 1 56 0
  61 0022 0D4B     		ldr	r3, .L2+20
  62 0024 0022     		movs	r2, #0
  63 0026 1A60     		str	r2, [r3]
  57:C:/Users/49542/Desktop/GD32F30x_Demo_Suites_V2.0.0/GD32F30x_Demo_Suites_V2.0.0/GD32F30x_Firmware_Library/GD32F30x_standard_peripheral/Source\gd32f30x_sdio.c ****     SDIO_DATACTL = DEFAULT_RESET_VALUE;
  64              		.loc 1 57 0
  65 0028 0C4B     		ldr	r3, .L2+24
  66 002a 0022     		movs	r2, #0
  67 002c 1A60     		str	r2, [r3]
  58:C:/Users/49542/Desktop/GD32F30x_Demo_Suites_V2.0.0/GD32F30x_Demo_Suites_V2.0.0/GD32F30x_Firmware_Library/GD32F30x_standard_peripheral/Source\gd32f30x_sdio.c ****     SDIO_INTC    = DEFAULT_RESET_VALUE;
  68              		.loc 1 58 0
  69 002e 0C4B     		ldr	r3, .L2+28
  70 0030 0022     		movs	r2, #0
  71 0032 1A60     		str	r2, [r3]
  59:C:/Users/49542/Desktop/GD32F30x_Demo_Suites_V2.0.0/GD32F30x_Demo_Suites_V2.0.0/GD32F30x_Firmware_Library/GD32F30x_standard_peripheral/Source\gd32f30x_sdio.c ****     SDIO_INTEN   = DEFAULT_RESET_VALUE;
  72              		.loc 1 59 0
  73 0034 0B4B     		ldr	r3, .L2+32
  74 0036 0022     		movs	r2, #0
  75 0038 1A60     		str	r2, [r3]
  60:C:/Users/49542/Desktop/GD32F30x_Demo_Suites_V2.0.0/GD32F30x_Demo_Suites_V2.0.0/GD32F30x_Firmware_Library/GD32F30x_standard_peripheral/Source\gd32f30x_sdio.c **** }
  76              		.loc 1 60 0
  77 003a 00BF     		nop
  78 003c BD46     		mov	sp, r7
  79              	.LCFI2:
  80              		.cfi_def_cfa_register 13
  81              		@ sp needed
  82 003e 5DF8047B 		ldr	r7, [sp], #4
  83              	.LCFI3:
  84              		.cfi_restore 7
  85              		.cfi_def_cfa_offset 0
  86 0042 7047     		bx	lr
  87              	.L3:
  88              		.align	2
  89              	.L2:
  90 0044 00800140 		.word	1073840128
  91 0048 04800140 		.word	1073840132
  92 004c 08800140 		.word	1073840136
  93 0050 0C800140 		.word	1073840140
  94 0054 24800140 		.word	1073840164
  95 0058 28800140 		.word	1073840168
  96 005c 2C800140 		.word	1073840172
  97 0060 38800140 		.word	1073840184
  98 0064 3C800140 		.word	1073840188
  99              		.cfi_endproc
 100              	.LFE116:
 102              		.section	.text.sdio_clock_config,"ax",%progbits
 103              		.align	1
 104              		.global	sdio_clock_config
 105              		.syntax unified
 106              		.thumb
 107              		.thumb_func
 108              		.fpu fpv4-sp-d16
 110              	sdio_clock_config:
 111              	.LFB117:
  61:C:/Users/49542/Desktop/GD32F30x_Demo_Suites_V2.0.0/GD32F30x_Demo_Suites_V2.0.0/GD32F30x_Firmware_Library/GD32F30x_standard_peripheral/Source\gd32f30x_sdio.c **** 
  62:C:/Users/49542/Desktop/GD32F30x_Demo_Suites_V2.0.0/GD32F30x_Demo_Suites_V2.0.0/GD32F30x_Firmware_Library/GD32F30x_standard_peripheral/Source\gd32f30x_sdio.c **** /*!
  63:C:/Users/49542/Desktop/GD32F30x_Demo_Suites_V2.0.0/GD32F30x_Demo_Suites_V2.0.0/GD32F30x_Firmware_Library/GD32F30x_standard_peripheral/Source\gd32f30x_sdio.c ****     \brief      configure the SDIO clock
ARM GAS  C:\Users\49542\AppData\Local\Temp\ccX92vIs.s 			page 4


  64:C:/Users/49542/Desktop/GD32F30x_Demo_Suites_V2.0.0/GD32F30x_Demo_Suites_V2.0.0/GD32F30x_Firmware_Library/GD32F30x_standard_peripheral/Source\gd32f30x_sdio.c ****     \param[in]  clock_edge: SDIO_CLK clock edge
  65:C:/Users/49542/Desktop/GD32F30x_Demo_Suites_V2.0.0/GD32F30x_Demo_Suites_V2.0.0/GD32F30x_Firmware_Library/GD32F30x_standard_peripheral/Source\gd32f30x_sdio.c ****                 only one parameter can be selected which is shown as below:
  66:C:/Users/49542/Desktop/GD32F30x_Demo_Suites_V2.0.0/GD32F30x_Demo_Suites_V2.0.0/GD32F30x_Firmware_Library/GD32F30x_standard_peripheral/Source\gd32f30x_sdio.c ****       \arg        SDIO_SDIOCLKEDGE_RISING: select the rising edge of the SDIOCLK to generate SDIO_C
  67:C:/Users/49542/Desktop/GD32F30x_Demo_Suites_V2.0.0/GD32F30x_Demo_Suites_V2.0.0/GD32F30x_Firmware_Library/GD32F30x_standard_peripheral/Source\gd32f30x_sdio.c ****       \arg        SDIO_SDIOCLKEDGE_FALLING: select the falling edge of the SDIOCLK to generate SDIO
  68:C:/Users/49542/Desktop/GD32F30x_Demo_Suites_V2.0.0/GD32F30x_Demo_Suites_V2.0.0/GD32F30x_Firmware_Library/GD32F30x_standard_peripheral/Source\gd32f30x_sdio.c ****     \param[in]  clock_bypass: clock bypass
  69:C:/Users/49542/Desktop/GD32F30x_Demo_Suites_V2.0.0/GD32F30x_Demo_Suites_V2.0.0/GD32F30x_Firmware_Library/GD32F30x_standard_peripheral/Source\gd32f30x_sdio.c ****                 only one parameter can be selected which is shown as below:
  70:C:/Users/49542/Desktop/GD32F30x_Demo_Suites_V2.0.0/GD32F30x_Demo_Suites_V2.0.0/GD32F30x_Firmware_Library/GD32F30x_standard_peripheral/Source\gd32f30x_sdio.c ****       \arg        SDIO_CLOCKBYPASS_ENABLE: clock bypass
  71:C:/Users/49542/Desktop/GD32F30x_Demo_Suites_V2.0.0/GD32F30x_Demo_Suites_V2.0.0/GD32F30x_Firmware_Library/GD32F30x_standard_peripheral/Source\gd32f30x_sdio.c ****       \arg        SDIO_CLOCKBYPASS_DISABLE: no bypass
  72:C:/Users/49542/Desktop/GD32F30x_Demo_Suites_V2.0.0/GD32F30x_Demo_Suites_V2.0.0/GD32F30x_Firmware_Library/GD32F30x_standard_peripheral/Source\gd32f30x_sdio.c ****     \param[in]  clock_powersave: SDIO_CLK clock dynamic switch on/off for power saving
  73:C:/Users/49542/Desktop/GD32F30x_Demo_Suites_V2.0.0/GD32F30x_Demo_Suites_V2.0.0/GD32F30x_Firmware_Library/GD32F30x_standard_peripheral/Source\gd32f30x_sdio.c ****                 only one parameter can be selected which is shown as below:
  74:C:/Users/49542/Desktop/GD32F30x_Demo_Suites_V2.0.0/GD32F30x_Demo_Suites_V2.0.0/GD32F30x_Firmware_Library/GD32F30x_standard_peripheral/Source\gd32f30x_sdio.c ****       \arg        SDIO_CLOCKPWRSAVE_ENABLE: SDIO_CLK closed when bus is idle
  75:C:/Users/49542/Desktop/GD32F30x_Demo_Suites_V2.0.0/GD32F30x_Demo_Suites_V2.0.0/GD32F30x_Firmware_Library/GD32F30x_standard_peripheral/Source\gd32f30x_sdio.c ****       \arg        SDIO_CLOCKPWRSAVE_DISABLE: SDIO_CLK clock is always on
  76:C:/Users/49542/Desktop/GD32F30x_Demo_Suites_V2.0.0/GD32F30x_Demo_Suites_V2.0.0/GD32F30x_Firmware_Library/GD32F30x_standard_peripheral/Source\gd32f30x_sdio.c ****     \param[in]  clock_division: clock division, less than 512
  77:C:/Users/49542/Desktop/GD32F30x_Demo_Suites_V2.0.0/GD32F30x_Demo_Suites_V2.0.0/GD32F30x_Firmware_Library/GD32F30x_standard_peripheral/Source\gd32f30x_sdio.c ****     \param[out] none
  78:C:/Users/49542/Desktop/GD32F30x_Demo_Suites_V2.0.0/GD32F30x_Demo_Suites_V2.0.0/GD32F30x_Firmware_Library/GD32F30x_standard_peripheral/Source\gd32f30x_sdio.c ****     \retval     none
  79:C:/Users/49542/Desktop/GD32F30x_Demo_Suites_V2.0.0/GD32F30x_Demo_Suites_V2.0.0/GD32F30x_Firmware_Library/GD32F30x_standard_peripheral/Source\gd32f30x_sdio.c **** */
  80:C:/Users/49542/Desktop/GD32F30x_Demo_Suites_V2.0.0/GD32F30x_Demo_Suites_V2.0.0/GD32F30x_Firmware_Library/GD32F30x_standard_peripheral/Source\gd32f30x_sdio.c **** void sdio_clock_config(uint32_t clock_edge, uint32_t clock_bypass, uint32_t clock_powersave, uint16
  81:C:/Users/49542/Desktop/GD32F30x_Demo_Suites_V2.0.0/GD32F30x_Demo_Suites_V2.0.0/GD32F30x_Firmware_Library/GD32F30x_standard_peripheral/Source\gd32f30x_sdio.c **** {
 112              		.loc 1 81 0
 113              		.cfi_startproc
 114              		@ args = 0, pretend = 0, frame = 24
 115              		@ frame_needed = 1, uses_anonymous_args = 0
 116              		@ link register save eliminated.
 117 0000 80B4     		push	{r7}
 118              	.LCFI4:
 119              		.cfi_def_cfa_offset 4
 120              		.cfi_offset 7, -4
 121 0002 87B0     		sub	sp, sp, #28
 122              	.LCFI5:
 123              		.cfi_def_cfa_offset 32
 124 0004 00AF     		add	r7, sp, #0
 125              	.LCFI6:
 126              		.cfi_def_cfa_register 7
 127 0006 F860     		str	r0, [r7, #12]
 128 0008 B960     		str	r1, [r7, #8]
 129 000a 7A60     		str	r2, [r7, #4]
 130 000c 7B80     		strh	r3, [r7, #2]	@ movhi
  82:C:/Users/49542/Desktop/GD32F30x_Demo_Suites_V2.0.0/GD32F30x_Demo_Suites_V2.0.0/GD32F30x_Firmware_Library/GD32F30x_standard_peripheral/Source\gd32f30x_sdio.c ****     uint32_t clock_config = 0U;
 131              		.loc 1 82 0
 132 000e 0023     		movs	r3, #0
 133 0010 7B61     		str	r3, [r7, #20]
  83:C:/Users/49542/Desktop/GD32F30x_Demo_Suites_V2.0.0/GD32F30x_Demo_Suites_V2.0.0/GD32F30x_Firmware_Library/GD32F30x_standard_peripheral/Source\gd32f30x_sdio.c ****     clock_config = SDIO_CLKCTL;
 134              		.loc 1 83 0
 135 0012 124B     		ldr	r3, .L6
 136 0014 1B68     		ldr	r3, [r3]
 137 0016 7B61     		str	r3, [r7, #20]
  84:C:/Users/49542/Desktop/GD32F30x_Demo_Suites_V2.0.0/GD32F30x_Demo_Suites_V2.0.0/GD32F30x_Firmware_Library/GD32F30x_standard_peripheral/Source\gd32f30x_sdio.c ****     /* reset the CLKEDGE, CLKBYP, CLKPWRSAV, DIV */
  85:C:/Users/49542/Desktop/GD32F30x_Demo_Suites_V2.0.0/GD32F30x_Demo_Suites_V2.0.0/GD32F30x_Firmware_Library/GD32F30x_standard_peripheral/Source\gd32f30x_sdio.c ****     clock_config &= ~(SDIO_CLKCTL_CLKEDGE | SDIO_CLKCTL_CLKBYP | SDIO_CLKCTL_CLKPWRSAV | SDIO_CLKCT
 138              		.loc 1 85 0
 139 0018 7A69     		ldr	r2, [r7, #20]
 140 001a 114B     		ldr	r3, .L6+4
 141 001c 1340     		ands	r3, r3, r2
 142 001e 7B61     		str	r3, [r7, #20]
  86:C:/Users/49542/Desktop/GD32F30x_Demo_Suites_V2.0.0/GD32F30x_Demo_Suites_V2.0.0/GD32F30x_Firmware_Library/GD32F30x_standard_peripheral/Source\gd32f30x_sdio.c ****     /* if the clock division is greater or equal to 256, set the DIV[8] */
  87:C:/Users/49542/Desktop/GD32F30x_Demo_Suites_V2.0.0/GD32F30x_Demo_Suites_V2.0.0/GD32F30x_Firmware_Library/GD32F30x_standard_peripheral/Source\gd32f30x_sdio.c ****     if(clock_division >= 256U){
 143              		.loc 1 87 0
 144 0020 7B88     		ldrh	r3, [r7, #2]
ARM GAS  C:\Users\49542\AppData\Local\Temp\ccX92vIs.s 			page 5


 145 0022 FF2B     		cmp	r3, #255
 146 0024 07D9     		bls	.L5
  88:C:/Users/49542/Desktop/GD32F30x_Demo_Suites_V2.0.0/GD32F30x_Demo_Suites_V2.0.0/GD32F30x_Firmware_Library/GD32F30x_standard_peripheral/Source\gd32f30x_sdio.c ****         clock_config |= SDIO_CLKCTL_DIV8;
 147              		.loc 1 88 0
 148 0026 7B69     		ldr	r3, [r7, #20]
 149 0028 43F00043 		orr	r3, r3, #-2147483648
 150 002c 7B61     		str	r3, [r7, #20]
  89:C:/Users/49542/Desktop/GD32F30x_Demo_Suites_V2.0.0/GD32F30x_Demo_Suites_V2.0.0/GD32F30x_Firmware_Library/GD32F30x_standard_peripheral/Source\gd32f30x_sdio.c ****         clock_division -= 256U;
 151              		.loc 1 89 0
 152 002e 7B88     		ldrh	r3, [r7, #2]	@ movhi
 153 0030 A3F58073 		sub	r3, r3, #256
 154 0034 7B80     		strh	r3, [r7, #2]	@ movhi
 155              	.L5:
  90:C:/Users/49542/Desktop/GD32F30x_Demo_Suites_V2.0.0/GD32F30x_Demo_Suites_V2.0.0/GD32F30x_Firmware_Library/GD32F30x_standard_peripheral/Source\gd32f30x_sdio.c ****     }
  91:C:/Users/49542/Desktop/GD32F30x_Demo_Suites_V2.0.0/GD32F30x_Demo_Suites_V2.0.0/GD32F30x_Firmware_Library/GD32F30x_standard_peripheral/Source\gd32f30x_sdio.c ****     /* configure the SDIO_CLKCTL according to the parameters */
  92:C:/Users/49542/Desktop/GD32F30x_Demo_Suites_V2.0.0/GD32F30x_Demo_Suites_V2.0.0/GD32F30x_Firmware_Library/GD32F30x_standard_peripheral/Source\gd32f30x_sdio.c ****     clock_config |= (clock_edge | clock_bypass | clock_powersave | clock_division);
 156              		.loc 1 92 0
 157 0036 FA68     		ldr	r2, [r7, #12]
 158 0038 BB68     		ldr	r3, [r7, #8]
 159 003a 1A43     		orrs	r2, r2, r3
 160 003c 7B68     		ldr	r3, [r7, #4]
 161 003e 1A43     		orrs	r2, r2, r3
 162 0040 7B88     		ldrh	r3, [r7, #2]
 163 0042 1343     		orrs	r3, r3, r2
 164 0044 7A69     		ldr	r2, [r7, #20]
 165 0046 1343     		orrs	r3, r3, r2
 166 0048 7B61     		str	r3, [r7, #20]
  93:C:/Users/49542/Desktop/GD32F30x_Demo_Suites_V2.0.0/GD32F30x_Demo_Suites_V2.0.0/GD32F30x_Firmware_Library/GD32F30x_standard_peripheral/Source\gd32f30x_sdio.c ****     SDIO_CLKCTL = clock_config;
 167              		.loc 1 93 0
 168 004a 044A     		ldr	r2, .L6
 169 004c 7B69     		ldr	r3, [r7, #20]
 170 004e 1360     		str	r3, [r2]
  94:C:/Users/49542/Desktop/GD32F30x_Demo_Suites_V2.0.0/GD32F30x_Demo_Suites_V2.0.0/GD32F30x_Firmware_Library/GD32F30x_standard_peripheral/Source\gd32f30x_sdio.c **** }
 171              		.loc 1 94 0
 172 0050 00BF     		nop
 173 0052 1C37     		adds	r7, r7, #28
 174              	.LCFI7:
 175              		.cfi_def_cfa_offset 4
 176 0054 BD46     		mov	sp, r7
 177              	.LCFI8:
 178              		.cfi_def_cfa_register 13
 179              		@ sp needed
 180 0056 5DF8047B 		ldr	r7, [sp], #4
 181              	.LCFI9:
 182              		.cfi_restore 7
 183              		.cfi_def_cfa_offset 0
 184 005a 7047     		bx	lr
 185              	.L7:
 186              		.align	2
 187              	.L6:
 188 005c 04800140 		.word	1073840132
 189 0060 00D9FF7F 		.word	2147473664
 190              		.cfi_endproc
 191              	.LFE117:
 193              		.section	.text.sdio_hardware_clock_enable,"ax",%progbits
 194              		.align	1
 195              		.global	sdio_hardware_clock_enable
ARM GAS  C:\Users\49542\AppData\Local\Temp\ccX92vIs.s 			page 6


 196              		.syntax unified
 197              		.thumb
 198              		.thumb_func
 199              		.fpu fpv4-sp-d16
 201              	sdio_hardware_clock_enable:
 202              	.LFB118:
  95:C:/Users/49542/Desktop/GD32F30x_Demo_Suites_V2.0.0/GD32F30x_Demo_Suites_V2.0.0/GD32F30x_Firmware_Library/GD32F30x_standard_peripheral/Source\gd32f30x_sdio.c **** 
  96:C:/Users/49542/Desktop/GD32F30x_Demo_Suites_V2.0.0/GD32F30x_Demo_Suites_V2.0.0/GD32F30x_Firmware_Library/GD32F30x_standard_peripheral/Source\gd32f30x_sdio.c **** /*!
  97:C:/Users/49542/Desktop/GD32F30x_Demo_Suites_V2.0.0/GD32F30x_Demo_Suites_V2.0.0/GD32F30x_Firmware_Library/GD32F30x_standard_peripheral/Source\gd32f30x_sdio.c ****     \brief      enable hardware clock control
  98:C:/Users/49542/Desktop/GD32F30x_Demo_Suites_V2.0.0/GD32F30x_Demo_Suites_V2.0.0/GD32F30x_Firmware_Library/GD32F30x_standard_peripheral/Source\gd32f30x_sdio.c ****     \param[in]  none
  99:C:/Users/49542/Desktop/GD32F30x_Demo_Suites_V2.0.0/GD32F30x_Demo_Suites_V2.0.0/GD32F30x_Firmware_Library/GD32F30x_standard_peripheral/Source\gd32f30x_sdio.c ****     \param[out] none
 100:C:/Users/49542/Desktop/GD32F30x_Demo_Suites_V2.0.0/GD32F30x_Demo_Suites_V2.0.0/GD32F30x_Firmware_Library/GD32F30x_standard_peripheral/Source\gd32f30x_sdio.c ****     \retval     none
 101:C:/Users/49542/Desktop/GD32F30x_Demo_Suites_V2.0.0/GD32F30x_Demo_Suites_V2.0.0/GD32F30x_Firmware_Library/GD32F30x_standard_peripheral/Source\gd32f30x_sdio.c **** */
 102:C:/Users/49542/Desktop/GD32F30x_Demo_Suites_V2.0.0/GD32F30x_Demo_Suites_V2.0.0/GD32F30x_Firmware_Library/GD32F30x_standard_peripheral/Source\gd32f30x_sdio.c **** void sdio_hardware_clock_enable(void)
 103:C:/Users/49542/Desktop/GD32F30x_Demo_Suites_V2.0.0/GD32F30x_Demo_Suites_V2.0.0/GD32F30x_Firmware_Library/GD32F30x_standard_peripheral/Source\gd32f30x_sdio.c **** {
 203              		.loc 1 103 0
 204              		.cfi_startproc
 205              		@ args = 0, pretend = 0, frame = 0
 206              		@ frame_needed = 1, uses_anonymous_args = 0
 207              		@ link register save eliminated.
 208 0000 80B4     		push	{r7}
 209              	.LCFI10:
 210              		.cfi_def_cfa_offset 4
 211              		.cfi_offset 7, -4
 212 0002 00AF     		add	r7, sp, #0
 213              	.LCFI11:
 214              		.cfi_def_cfa_register 7
 104:C:/Users/49542/Desktop/GD32F30x_Demo_Suites_V2.0.0/GD32F30x_Demo_Suites_V2.0.0/GD32F30x_Firmware_Library/GD32F30x_standard_peripheral/Source\gd32f30x_sdio.c ****     SDIO_CLKCTL |= SDIO_CLKCTL_HWCLKEN;
 215              		.loc 1 104 0
 216 0004 054B     		ldr	r3, .L9
 217 0006 1B68     		ldr	r3, [r3]
 218 0008 044A     		ldr	r2, .L9
 219 000a 43F48043 		orr	r3, r3, #16384
 220 000e 1360     		str	r3, [r2]
 105:C:/Users/49542/Desktop/GD32F30x_Demo_Suites_V2.0.0/GD32F30x_Demo_Suites_V2.0.0/GD32F30x_Firmware_Library/GD32F30x_standard_peripheral/Source\gd32f30x_sdio.c **** }
 221              		.loc 1 105 0
 222 0010 00BF     		nop
 223 0012 BD46     		mov	sp, r7
 224              	.LCFI12:
 225              		.cfi_def_cfa_register 13
 226              		@ sp needed
 227 0014 5DF8047B 		ldr	r7, [sp], #4
 228              	.LCFI13:
 229              		.cfi_restore 7
 230              		.cfi_def_cfa_offset 0
 231 0018 7047     		bx	lr
 232              	.L10:
 233 001a 00BF     		.align	2
 234              	.L9:
 235 001c 04800140 		.word	1073840132
 236              		.cfi_endproc
 237              	.LFE118:
 239              		.section	.text.sdio_hardware_clock_disable,"ax",%progbits
 240              		.align	1
 241              		.global	sdio_hardware_clock_disable
 242              		.syntax unified
 243              		.thumb
ARM GAS  C:\Users\49542\AppData\Local\Temp\ccX92vIs.s 			page 7


 244              		.thumb_func
 245              		.fpu fpv4-sp-d16
 247              	sdio_hardware_clock_disable:
 248              	.LFB119:
 106:C:/Users/49542/Desktop/GD32F30x_Demo_Suites_V2.0.0/GD32F30x_Demo_Suites_V2.0.0/GD32F30x_Firmware_Library/GD32F30x_standard_peripheral/Source\gd32f30x_sdio.c **** 
 107:C:/Users/49542/Desktop/GD32F30x_Demo_Suites_V2.0.0/GD32F30x_Demo_Suites_V2.0.0/GD32F30x_Firmware_Library/GD32F30x_standard_peripheral/Source\gd32f30x_sdio.c **** /*!
 108:C:/Users/49542/Desktop/GD32F30x_Demo_Suites_V2.0.0/GD32F30x_Demo_Suites_V2.0.0/GD32F30x_Firmware_Library/GD32F30x_standard_peripheral/Source\gd32f30x_sdio.c ****     \brief      disable hardware clock control
 109:C:/Users/49542/Desktop/GD32F30x_Demo_Suites_V2.0.0/GD32F30x_Demo_Suites_V2.0.0/GD32F30x_Firmware_Library/GD32F30x_standard_peripheral/Source\gd32f30x_sdio.c ****     \param[in]  none
 110:C:/Users/49542/Desktop/GD32F30x_Demo_Suites_V2.0.0/GD32F30x_Demo_Suites_V2.0.0/GD32F30x_Firmware_Library/GD32F30x_standard_peripheral/Source\gd32f30x_sdio.c ****     \param[out] none
 111:C:/Users/49542/Desktop/GD32F30x_Demo_Suites_V2.0.0/GD32F30x_Demo_Suites_V2.0.0/GD32F30x_Firmware_Library/GD32F30x_standard_peripheral/Source\gd32f30x_sdio.c ****     \retval     none
 112:C:/Users/49542/Desktop/GD32F30x_Demo_Suites_V2.0.0/GD32F30x_Demo_Suites_V2.0.0/GD32F30x_Firmware_Library/GD32F30x_standard_peripheral/Source\gd32f30x_sdio.c **** */
 113:C:/Users/49542/Desktop/GD32F30x_Demo_Suites_V2.0.0/GD32F30x_Demo_Suites_V2.0.0/GD32F30x_Firmware_Library/GD32F30x_standard_peripheral/Source\gd32f30x_sdio.c **** void sdio_hardware_clock_disable(void)
 114:C:/Users/49542/Desktop/GD32F30x_Demo_Suites_V2.0.0/GD32F30x_Demo_Suites_V2.0.0/GD32F30x_Firmware_Library/GD32F30x_standard_peripheral/Source\gd32f30x_sdio.c **** {
 249              		.loc 1 114 0
 250              		.cfi_startproc
 251              		@ args = 0, pretend = 0, frame = 0
 252              		@ frame_needed = 1, uses_anonymous_args = 0
 253              		@ link register save eliminated.
 254 0000 80B4     		push	{r7}
 255              	.LCFI14:
 256              		.cfi_def_cfa_offset 4
 257              		.cfi_offset 7, -4
 258 0002 00AF     		add	r7, sp, #0
 259              	.LCFI15:
 260              		.cfi_def_cfa_register 7
 115:C:/Users/49542/Desktop/GD32F30x_Demo_Suites_V2.0.0/GD32F30x_Demo_Suites_V2.0.0/GD32F30x_Firmware_Library/GD32F30x_standard_peripheral/Source\gd32f30x_sdio.c ****     SDIO_CLKCTL &= ~SDIO_CLKCTL_HWCLKEN;
 261              		.loc 1 115 0
 262 0004 054B     		ldr	r3, .L12
 263 0006 1B68     		ldr	r3, [r3]
 264 0008 044A     		ldr	r2, .L12
 265 000a 23F48043 		bic	r3, r3, #16384
 266 000e 1360     		str	r3, [r2]
 116:C:/Users/49542/Desktop/GD32F30x_Demo_Suites_V2.0.0/GD32F30x_Demo_Suites_V2.0.0/GD32F30x_Firmware_Library/GD32F30x_standard_peripheral/Source\gd32f30x_sdio.c **** }
 267              		.loc 1 116 0
 268 0010 00BF     		nop
 269 0012 BD46     		mov	sp, r7
 270              	.LCFI16:
 271              		.cfi_def_cfa_register 13
 272              		@ sp needed
 273 0014 5DF8047B 		ldr	r7, [sp], #4
 274              	.LCFI17:
 275              		.cfi_restore 7
 276              		.cfi_def_cfa_offset 0
 277 0018 7047     		bx	lr
 278              	.L13:
 279 001a 00BF     		.align	2
 280              	.L12:
 281 001c 04800140 		.word	1073840132
 282              		.cfi_endproc
 283              	.LFE119:
 285              		.section	.text.sdio_bus_mode_set,"ax",%progbits
 286              		.align	1
 287              		.global	sdio_bus_mode_set
 288              		.syntax unified
 289              		.thumb
 290              		.thumb_func
 291              		.fpu fpv4-sp-d16
ARM GAS  C:\Users\49542\AppData\Local\Temp\ccX92vIs.s 			page 8


 293              	sdio_bus_mode_set:
 294              	.LFB120:
 117:C:/Users/49542/Desktop/GD32F30x_Demo_Suites_V2.0.0/GD32F30x_Demo_Suites_V2.0.0/GD32F30x_Firmware_Library/GD32F30x_standard_peripheral/Source\gd32f30x_sdio.c **** 
 118:C:/Users/49542/Desktop/GD32F30x_Demo_Suites_V2.0.0/GD32F30x_Demo_Suites_V2.0.0/GD32F30x_Firmware_Library/GD32F30x_standard_peripheral/Source\gd32f30x_sdio.c **** /*!
 119:C:/Users/49542/Desktop/GD32F30x_Demo_Suites_V2.0.0/GD32F30x_Demo_Suites_V2.0.0/GD32F30x_Firmware_Library/GD32F30x_standard_peripheral/Source\gd32f30x_sdio.c ****     \brief      set different SDIO card bus mode
 120:C:/Users/49542/Desktop/GD32F30x_Demo_Suites_V2.0.0/GD32F30x_Demo_Suites_V2.0.0/GD32F30x_Firmware_Library/GD32F30x_standard_peripheral/Source\gd32f30x_sdio.c ****     \param[in]  bus_mode: SDIO card bus mode
 121:C:/Users/49542/Desktop/GD32F30x_Demo_Suites_V2.0.0/GD32F30x_Demo_Suites_V2.0.0/GD32F30x_Firmware_Library/GD32F30x_standard_peripheral/Source\gd32f30x_sdio.c ****                 only one parameter can be selected which is shown as below:
 122:C:/Users/49542/Desktop/GD32F30x_Demo_Suites_V2.0.0/GD32F30x_Demo_Suites_V2.0.0/GD32F30x_Firmware_Library/GD32F30x_standard_peripheral/Source\gd32f30x_sdio.c ****       \arg        SDIO_BUSMODE_1BIT: 1-bit SDIO card bus mode
 123:C:/Users/49542/Desktop/GD32F30x_Demo_Suites_V2.0.0/GD32F30x_Demo_Suites_V2.0.0/GD32F30x_Firmware_Library/GD32F30x_standard_peripheral/Source\gd32f30x_sdio.c ****       \arg        SDIO_BUSMODE_4BIT: 4-bit SDIO card bus mode
 124:C:/Users/49542/Desktop/GD32F30x_Demo_Suites_V2.0.0/GD32F30x_Demo_Suites_V2.0.0/GD32F30x_Firmware_Library/GD32F30x_standard_peripheral/Source\gd32f30x_sdio.c ****       \arg        SDIO_BUSMODE_8BIT: 8-bit SDIO card bus mode
 125:C:/Users/49542/Desktop/GD32F30x_Demo_Suites_V2.0.0/GD32F30x_Demo_Suites_V2.0.0/GD32F30x_Firmware_Library/GD32F30x_standard_peripheral/Source\gd32f30x_sdio.c ****     \param[out] none
 126:C:/Users/49542/Desktop/GD32F30x_Demo_Suites_V2.0.0/GD32F30x_Demo_Suites_V2.0.0/GD32F30x_Firmware_Library/GD32F30x_standard_peripheral/Source\gd32f30x_sdio.c ****     \retval     none
 127:C:/Users/49542/Desktop/GD32F30x_Demo_Suites_V2.0.0/GD32F30x_Demo_Suites_V2.0.0/GD32F30x_Firmware_Library/GD32F30x_standard_peripheral/Source\gd32f30x_sdio.c **** */
 128:C:/Users/49542/Desktop/GD32F30x_Demo_Suites_V2.0.0/GD32F30x_Demo_Suites_V2.0.0/GD32F30x_Firmware_Library/GD32F30x_standard_peripheral/Source\gd32f30x_sdio.c **** void sdio_bus_mode_set(uint32_t bus_mode)
 129:C:/Users/49542/Desktop/GD32F30x_Demo_Suites_V2.0.0/GD32F30x_Demo_Suites_V2.0.0/GD32F30x_Firmware_Library/GD32F30x_standard_peripheral/Source\gd32f30x_sdio.c **** {
 295              		.loc 1 129 0
 296              		.cfi_startproc
 297              		@ args = 0, pretend = 0, frame = 8
 298              		@ frame_needed = 1, uses_anonymous_args = 0
 299              		@ link register save eliminated.
 300 0000 80B4     		push	{r7}
 301              	.LCFI18:
 302              		.cfi_def_cfa_offset 4
 303              		.cfi_offset 7, -4
 304 0002 83B0     		sub	sp, sp, #12
 305              	.LCFI19:
 306              		.cfi_def_cfa_offset 16
 307 0004 00AF     		add	r7, sp, #0
 308              	.LCFI20:
 309              		.cfi_def_cfa_register 7
 310 0006 7860     		str	r0, [r7, #4]
 130:C:/Users/49542/Desktop/GD32F30x_Demo_Suites_V2.0.0/GD32F30x_Demo_Suites_V2.0.0/GD32F30x_Firmware_Library/GD32F30x_standard_peripheral/Source\gd32f30x_sdio.c ****     /* reset the SDIO card bus mode bits and set according to bus_mode */
 131:C:/Users/49542/Desktop/GD32F30x_Demo_Suites_V2.0.0/GD32F30x_Demo_Suites_V2.0.0/GD32F30x_Firmware_Library/GD32F30x_standard_peripheral/Source\gd32f30x_sdio.c ****     SDIO_CLKCTL &= ~SDIO_CLKCTL_BUSMODE;
 311              		.loc 1 131 0
 312 0008 084B     		ldr	r3, .L15
 313 000a 1B68     		ldr	r3, [r3]
 314 000c 074A     		ldr	r2, .L15
 315 000e 23F4C053 		bic	r3, r3, #6144
 316 0012 1360     		str	r3, [r2]
 132:C:/Users/49542/Desktop/GD32F30x_Demo_Suites_V2.0.0/GD32F30x_Demo_Suites_V2.0.0/GD32F30x_Firmware_Library/GD32F30x_standard_peripheral/Source\gd32f30x_sdio.c ****     SDIO_CLKCTL |= bus_mode;
 317              		.loc 1 132 0
 318 0014 054B     		ldr	r3, .L15
 319 0016 1A68     		ldr	r2, [r3]
 320 0018 0449     		ldr	r1, .L15
 321 001a 7B68     		ldr	r3, [r7, #4]
 322 001c 1343     		orrs	r3, r3, r2
 323 001e 0B60     		str	r3, [r1]
 133:C:/Users/49542/Desktop/GD32F30x_Demo_Suites_V2.0.0/GD32F30x_Demo_Suites_V2.0.0/GD32F30x_Firmware_Library/GD32F30x_standard_peripheral/Source\gd32f30x_sdio.c **** }
 324              		.loc 1 133 0
 325 0020 00BF     		nop
 326 0022 0C37     		adds	r7, r7, #12
 327              	.LCFI21:
 328              		.cfi_def_cfa_offset 4
 329 0024 BD46     		mov	sp, r7
 330              	.LCFI22:
 331              		.cfi_def_cfa_register 13
 332              		@ sp needed
ARM GAS  C:\Users\49542\AppData\Local\Temp\ccX92vIs.s 			page 9


 333 0026 5DF8047B 		ldr	r7, [sp], #4
 334              	.LCFI23:
 335              		.cfi_restore 7
 336              		.cfi_def_cfa_offset 0
 337 002a 7047     		bx	lr
 338              	.L16:
 339              		.align	2
 340              	.L15:
 341 002c 04800140 		.word	1073840132
 342              		.cfi_endproc
 343              	.LFE120:
 345              		.section	.text.sdio_power_state_set,"ax",%progbits
 346              		.align	1
 347              		.global	sdio_power_state_set
 348              		.syntax unified
 349              		.thumb
 350              		.thumb_func
 351              		.fpu fpv4-sp-d16
 353              	sdio_power_state_set:
 354              	.LFB121:
 134:C:/Users/49542/Desktop/GD32F30x_Demo_Suites_V2.0.0/GD32F30x_Demo_Suites_V2.0.0/GD32F30x_Firmware_Library/GD32F30x_standard_peripheral/Source\gd32f30x_sdio.c **** 
 135:C:/Users/49542/Desktop/GD32F30x_Demo_Suites_V2.0.0/GD32F30x_Demo_Suites_V2.0.0/GD32F30x_Firmware_Library/GD32F30x_standard_peripheral/Source\gd32f30x_sdio.c **** /*!
 136:C:/Users/49542/Desktop/GD32F30x_Demo_Suites_V2.0.0/GD32F30x_Demo_Suites_V2.0.0/GD32F30x_Firmware_Library/GD32F30x_standard_peripheral/Source\gd32f30x_sdio.c ****     \brief      set the SDIO power state
 137:C:/Users/49542/Desktop/GD32F30x_Demo_Suites_V2.0.0/GD32F30x_Demo_Suites_V2.0.0/GD32F30x_Firmware_Library/GD32F30x_standard_peripheral/Source\gd32f30x_sdio.c ****     \param[in]  power_state: SDIO power state
 138:C:/Users/49542/Desktop/GD32F30x_Demo_Suites_V2.0.0/GD32F30x_Demo_Suites_V2.0.0/GD32F30x_Firmware_Library/GD32F30x_standard_peripheral/Source\gd32f30x_sdio.c ****                 only one parameter can be selected which is shown as below:
 139:C:/Users/49542/Desktop/GD32F30x_Demo_Suites_V2.0.0/GD32F30x_Demo_Suites_V2.0.0/GD32F30x_Firmware_Library/GD32F30x_standard_peripheral/Source\gd32f30x_sdio.c ****       \arg        SDIO_POWER_ON: SDIO power on
 140:C:/Users/49542/Desktop/GD32F30x_Demo_Suites_V2.0.0/GD32F30x_Demo_Suites_V2.0.0/GD32F30x_Firmware_Library/GD32F30x_standard_peripheral/Source\gd32f30x_sdio.c ****       \arg        SDIO_POWER_OFF: SDIO power off
 141:C:/Users/49542/Desktop/GD32F30x_Demo_Suites_V2.0.0/GD32F30x_Demo_Suites_V2.0.0/GD32F30x_Firmware_Library/GD32F30x_standard_peripheral/Source\gd32f30x_sdio.c ****     \param[out] none
 142:C:/Users/49542/Desktop/GD32F30x_Demo_Suites_V2.0.0/GD32F30x_Demo_Suites_V2.0.0/GD32F30x_Firmware_Library/GD32F30x_standard_peripheral/Source\gd32f30x_sdio.c ****     \retval     none
 143:C:/Users/49542/Desktop/GD32F30x_Demo_Suites_V2.0.0/GD32F30x_Demo_Suites_V2.0.0/GD32F30x_Firmware_Library/GD32F30x_standard_peripheral/Source\gd32f30x_sdio.c **** */
 144:C:/Users/49542/Desktop/GD32F30x_Demo_Suites_V2.0.0/GD32F30x_Demo_Suites_V2.0.0/GD32F30x_Firmware_Library/GD32F30x_standard_peripheral/Source\gd32f30x_sdio.c **** void sdio_power_state_set(uint32_t power_state)
 145:C:/Users/49542/Desktop/GD32F30x_Demo_Suites_V2.0.0/GD32F30x_Demo_Suites_V2.0.0/GD32F30x_Firmware_Library/GD32F30x_standard_peripheral/Source\gd32f30x_sdio.c **** {
 355              		.loc 1 145 0
 356              		.cfi_startproc
 357              		@ args = 0, pretend = 0, frame = 8
 358              		@ frame_needed = 1, uses_anonymous_args = 0
 359              		@ link register save eliminated.
 360 0000 80B4     		push	{r7}
 361              	.LCFI24:
 362              		.cfi_def_cfa_offset 4
 363              		.cfi_offset 7, -4
 364 0002 83B0     		sub	sp, sp, #12
 365              	.LCFI25:
 366              		.cfi_def_cfa_offset 16
 367 0004 00AF     		add	r7, sp, #0
 368              	.LCFI26:
 369              		.cfi_def_cfa_register 7
 370 0006 7860     		str	r0, [r7, #4]
 146:C:/Users/49542/Desktop/GD32F30x_Demo_Suites_V2.0.0/GD32F30x_Demo_Suites_V2.0.0/GD32F30x_Firmware_Library/GD32F30x_standard_peripheral/Source\gd32f30x_sdio.c ****     SDIO_PWRCTL = power_state;
 371              		.loc 1 146 0
 372 0008 044A     		ldr	r2, .L18
 373 000a 7B68     		ldr	r3, [r7, #4]
 374 000c 1360     		str	r3, [r2]
 147:C:/Users/49542/Desktop/GD32F30x_Demo_Suites_V2.0.0/GD32F30x_Demo_Suites_V2.0.0/GD32F30x_Firmware_Library/GD32F30x_standard_peripheral/Source\gd32f30x_sdio.c **** }
 375              		.loc 1 147 0
 376 000e 00BF     		nop
 377 0010 0C37     		adds	r7, r7, #12
ARM GAS  C:\Users\49542\AppData\Local\Temp\ccX92vIs.s 			page 10


 378              	.LCFI27:
 379              		.cfi_def_cfa_offset 4
 380 0012 BD46     		mov	sp, r7
 381              	.LCFI28:
 382              		.cfi_def_cfa_register 13
 383              		@ sp needed
 384 0014 5DF8047B 		ldr	r7, [sp], #4
 385              	.LCFI29:
 386              		.cfi_restore 7
 387              		.cfi_def_cfa_offset 0
 388 0018 7047     		bx	lr
 389              	.L19:
 390 001a 00BF     		.align	2
 391              	.L18:
 392 001c 00800140 		.word	1073840128
 393              		.cfi_endproc
 394              	.LFE121:
 396              		.section	.text.sdio_power_state_get,"ax",%progbits
 397              		.align	1
 398              		.global	sdio_power_state_get
 399              		.syntax unified
 400              		.thumb
 401              		.thumb_func
 402              		.fpu fpv4-sp-d16
 404              	sdio_power_state_get:
 405              	.LFB122:
 148:C:/Users/49542/Desktop/GD32F30x_Demo_Suites_V2.0.0/GD32F30x_Demo_Suites_V2.0.0/GD32F30x_Firmware_Library/GD32F30x_standard_peripheral/Source\gd32f30x_sdio.c **** 
 149:C:/Users/49542/Desktop/GD32F30x_Demo_Suites_V2.0.0/GD32F30x_Demo_Suites_V2.0.0/GD32F30x_Firmware_Library/GD32F30x_standard_peripheral/Source\gd32f30x_sdio.c **** /*!
 150:C:/Users/49542/Desktop/GD32F30x_Demo_Suites_V2.0.0/GD32F30x_Demo_Suites_V2.0.0/GD32F30x_Firmware_Library/GD32F30x_standard_peripheral/Source\gd32f30x_sdio.c ****     \brief      get the SDIO power state
 151:C:/Users/49542/Desktop/GD32F30x_Demo_Suites_V2.0.0/GD32F30x_Demo_Suites_V2.0.0/GD32F30x_Firmware_Library/GD32F30x_standard_peripheral/Source\gd32f30x_sdio.c ****     \param[in]  none
 152:C:/Users/49542/Desktop/GD32F30x_Demo_Suites_V2.0.0/GD32F30x_Demo_Suites_V2.0.0/GD32F30x_Firmware_Library/GD32F30x_standard_peripheral/Source\gd32f30x_sdio.c ****     \param[out] none
 153:C:/Users/49542/Desktop/GD32F30x_Demo_Suites_V2.0.0/GD32F30x_Demo_Suites_V2.0.0/GD32F30x_Firmware_Library/GD32F30x_standard_peripheral/Source\gd32f30x_sdio.c ****     \retval     SDIO power state
 154:C:/Users/49542/Desktop/GD32F30x_Demo_Suites_V2.0.0/GD32F30x_Demo_Suites_V2.0.0/GD32F30x_Firmware_Library/GD32F30x_standard_peripheral/Source\gd32f30x_sdio.c ****       \arg        SDIO_POWER_ON: SDIO power on
 155:C:/Users/49542/Desktop/GD32F30x_Demo_Suites_V2.0.0/GD32F30x_Demo_Suites_V2.0.0/GD32F30x_Firmware_Library/GD32F30x_standard_peripheral/Source\gd32f30x_sdio.c ****       \arg        SDIO_POWER_OFF: SDIO power off
 156:C:/Users/49542/Desktop/GD32F30x_Demo_Suites_V2.0.0/GD32F30x_Demo_Suites_V2.0.0/GD32F30x_Firmware_Library/GD32F30x_standard_peripheral/Source\gd32f30x_sdio.c **** */
 157:C:/Users/49542/Desktop/GD32F30x_Demo_Suites_V2.0.0/GD32F30x_Demo_Suites_V2.0.0/GD32F30x_Firmware_Library/GD32F30x_standard_peripheral/Source\gd32f30x_sdio.c **** uint32_t sdio_power_state_get(void)
 158:C:/Users/49542/Desktop/GD32F30x_Demo_Suites_V2.0.0/GD32F30x_Demo_Suites_V2.0.0/GD32F30x_Firmware_Library/GD32F30x_standard_peripheral/Source\gd32f30x_sdio.c **** {
 406              		.loc 1 158 0
 407              		.cfi_startproc
 408              		@ args = 0, pretend = 0, frame = 0
 409              		@ frame_needed = 1, uses_anonymous_args = 0
 410              		@ link register save eliminated.
 411 0000 80B4     		push	{r7}
 412              	.LCFI30:
 413              		.cfi_def_cfa_offset 4
 414              		.cfi_offset 7, -4
 415 0002 00AF     		add	r7, sp, #0
 416              	.LCFI31:
 417              		.cfi_def_cfa_register 7
 159:C:/Users/49542/Desktop/GD32F30x_Demo_Suites_V2.0.0/GD32F30x_Demo_Suites_V2.0.0/GD32F30x_Firmware_Library/GD32F30x_standard_peripheral/Source\gd32f30x_sdio.c ****     return SDIO_PWRCTL;
 418              		.loc 1 159 0
 419 0004 034B     		ldr	r3, .L22
 420 0006 1B68     		ldr	r3, [r3]
 160:C:/Users/49542/Desktop/GD32F30x_Demo_Suites_V2.0.0/GD32F30x_Demo_Suites_V2.0.0/GD32F30x_Firmware_Library/GD32F30x_standard_peripheral/Source\gd32f30x_sdio.c **** }
 421              		.loc 1 160 0
 422 0008 1846     		mov	r0, r3
 423 000a BD46     		mov	sp, r7
ARM GAS  C:\Users\49542\AppData\Local\Temp\ccX92vIs.s 			page 11


 424              	.LCFI32:
 425              		.cfi_def_cfa_register 13
 426              		@ sp needed
 427 000c 5DF8047B 		ldr	r7, [sp], #4
 428              	.LCFI33:
 429              		.cfi_restore 7
 430              		.cfi_def_cfa_offset 0
 431 0010 7047     		bx	lr
 432              	.L23:
 433 0012 00BF     		.align	2
 434              	.L22:
 435 0014 00800140 		.word	1073840128
 436              		.cfi_endproc
 437              	.LFE122:
 439              		.section	.text.sdio_clock_enable,"ax",%progbits
 440              		.align	1
 441              		.global	sdio_clock_enable
 442              		.syntax unified
 443              		.thumb
 444              		.thumb_func
 445              		.fpu fpv4-sp-d16
 447              	sdio_clock_enable:
 448              	.LFB123:
 161:C:/Users/49542/Desktop/GD32F30x_Demo_Suites_V2.0.0/GD32F30x_Demo_Suites_V2.0.0/GD32F30x_Firmware_Library/GD32F30x_standard_peripheral/Source\gd32f30x_sdio.c **** 
 162:C:/Users/49542/Desktop/GD32F30x_Demo_Suites_V2.0.0/GD32F30x_Demo_Suites_V2.0.0/GD32F30x_Firmware_Library/GD32F30x_standard_peripheral/Source\gd32f30x_sdio.c **** /*!
 163:C:/Users/49542/Desktop/GD32F30x_Demo_Suites_V2.0.0/GD32F30x_Demo_Suites_V2.0.0/GD32F30x_Firmware_Library/GD32F30x_standard_peripheral/Source\gd32f30x_sdio.c ****     \brief      enable SDIO_CLK clock output
 164:C:/Users/49542/Desktop/GD32F30x_Demo_Suites_V2.0.0/GD32F30x_Demo_Suites_V2.0.0/GD32F30x_Firmware_Library/GD32F30x_standard_peripheral/Source\gd32f30x_sdio.c ****     \param[in]  none
 165:C:/Users/49542/Desktop/GD32F30x_Demo_Suites_V2.0.0/GD32F30x_Demo_Suites_V2.0.0/GD32F30x_Firmware_Library/GD32F30x_standard_peripheral/Source\gd32f30x_sdio.c ****     \param[out] none
 166:C:/Users/49542/Desktop/GD32F30x_Demo_Suites_V2.0.0/GD32F30x_Demo_Suites_V2.0.0/GD32F30x_Firmware_Library/GD32F30x_standard_peripheral/Source\gd32f30x_sdio.c ****     \retval     none
 167:C:/Users/49542/Desktop/GD32F30x_Demo_Suites_V2.0.0/GD32F30x_Demo_Suites_V2.0.0/GD32F30x_Firmware_Library/GD32F30x_standard_peripheral/Source\gd32f30x_sdio.c **** */
 168:C:/Users/49542/Desktop/GD32F30x_Demo_Suites_V2.0.0/GD32F30x_Demo_Suites_V2.0.0/GD32F30x_Firmware_Library/GD32F30x_standard_peripheral/Source\gd32f30x_sdio.c **** void sdio_clock_enable(void)
 169:C:/Users/49542/Desktop/GD32F30x_Demo_Suites_V2.0.0/GD32F30x_Demo_Suites_V2.0.0/GD32F30x_Firmware_Library/GD32F30x_standard_peripheral/Source\gd32f30x_sdio.c **** {
 449              		.loc 1 169 0
 450              		.cfi_startproc
 451              		@ args = 0, pretend = 0, frame = 0
 452              		@ frame_needed = 1, uses_anonymous_args = 0
 453              		@ link register save eliminated.
 454 0000 80B4     		push	{r7}
 455              	.LCFI34:
 456              		.cfi_def_cfa_offset 4
 457              		.cfi_offset 7, -4
 458 0002 00AF     		add	r7, sp, #0
 459              	.LCFI35:
 460              		.cfi_def_cfa_register 7
 170:C:/Users/49542/Desktop/GD32F30x_Demo_Suites_V2.0.0/GD32F30x_Demo_Suites_V2.0.0/GD32F30x_Firmware_Library/GD32F30x_standard_peripheral/Source\gd32f30x_sdio.c ****     SDIO_CLKCTL |= SDIO_CLKCTL_CLKEN;
 461              		.loc 1 170 0
 462 0004 054B     		ldr	r3, .L25
 463 0006 1B68     		ldr	r3, [r3]
 464 0008 044A     		ldr	r2, .L25
 465 000a 43F48073 		orr	r3, r3, #256
 466 000e 1360     		str	r3, [r2]
 171:C:/Users/49542/Desktop/GD32F30x_Demo_Suites_V2.0.0/GD32F30x_Demo_Suites_V2.0.0/GD32F30x_Firmware_Library/GD32F30x_standard_peripheral/Source\gd32f30x_sdio.c **** }
 467              		.loc 1 171 0
 468 0010 00BF     		nop
 469 0012 BD46     		mov	sp, r7
 470              	.LCFI36:
 471              		.cfi_def_cfa_register 13
ARM GAS  C:\Users\49542\AppData\Local\Temp\ccX92vIs.s 			page 12


 472              		@ sp needed
 473 0014 5DF8047B 		ldr	r7, [sp], #4
 474              	.LCFI37:
 475              		.cfi_restore 7
 476              		.cfi_def_cfa_offset 0
 477 0018 7047     		bx	lr
 478              	.L26:
 479 001a 00BF     		.align	2
 480              	.L25:
 481 001c 04800140 		.word	1073840132
 482              		.cfi_endproc
 483              	.LFE123:
 485              		.section	.text.sdio_clock_disable,"ax",%progbits
 486              		.align	1
 487              		.global	sdio_clock_disable
 488              		.syntax unified
 489              		.thumb
 490              		.thumb_func
 491              		.fpu fpv4-sp-d16
 493              	sdio_clock_disable:
 494              	.LFB124:
 172:C:/Users/49542/Desktop/GD32F30x_Demo_Suites_V2.0.0/GD32F30x_Demo_Suites_V2.0.0/GD32F30x_Firmware_Library/GD32F30x_standard_peripheral/Source\gd32f30x_sdio.c **** 
 173:C:/Users/49542/Desktop/GD32F30x_Demo_Suites_V2.0.0/GD32F30x_Demo_Suites_V2.0.0/GD32F30x_Firmware_Library/GD32F30x_standard_peripheral/Source\gd32f30x_sdio.c **** /*!
 174:C:/Users/49542/Desktop/GD32F30x_Demo_Suites_V2.0.0/GD32F30x_Demo_Suites_V2.0.0/GD32F30x_Firmware_Library/GD32F30x_standard_peripheral/Source\gd32f30x_sdio.c ****     \brief      disable SDIO_CLK clock output
 175:C:/Users/49542/Desktop/GD32F30x_Demo_Suites_V2.0.0/GD32F30x_Demo_Suites_V2.0.0/GD32F30x_Firmware_Library/GD32F30x_standard_peripheral/Source\gd32f30x_sdio.c ****     \param[in]  none
 176:C:/Users/49542/Desktop/GD32F30x_Demo_Suites_V2.0.0/GD32F30x_Demo_Suites_V2.0.0/GD32F30x_Firmware_Library/GD32F30x_standard_peripheral/Source\gd32f30x_sdio.c ****     \param[out] none
 177:C:/Users/49542/Desktop/GD32F30x_Demo_Suites_V2.0.0/GD32F30x_Demo_Suites_V2.0.0/GD32F30x_Firmware_Library/GD32F30x_standard_peripheral/Source\gd32f30x_sdio.c ****     \retval     none
 178:C:/Users/49542/Desktop/GD32F30x_Demo_Suites_V2.0.0/GD32F30x_Demo_Suites_V2.0.0/GD32F30x_Firmware_Library/GD32F30x_standard_peripheral/Source\gd32f30x_sdio.c **** */
 179:C:/Users/49542/Desktop/GD32F30x_Demo_Suites_V2.0.0/GD32F30x_Demo_Suites_V2.0.0/GD32F30x_Firmware_Library/GD32F30x_standard_peripheral/Source\gd32f30x_sdio.c **** void sdio_clock_disable(void)
 180:C:/Users/49542/Desktop/GD32F30x_Demo_Suites_V2.0.0/GD32F30x_Demo_Suites_V2.0.0/GD32F30x_Firmware_Library/GD32F30x_standard_peripheral/Source\gd32f30x_sdio.c **** {
 495              		.loc 1 180 0
 496              		.cfi_startproc
 497              		@ args = 0, pretend = 0, frame = 0
 498              		@ frame_needed = 1, uses_anonymous_args = 0
 499              		@ link register save eliminated.
 500 0000 80B4     		push	{r7}
 501              	.LCFI38:
 502              		.cfi_def_cfa_offset 4
 503              		.cfi_offset 7, -4
 504 0002 00AF     		add	r7, sp, #0
 505              	.LCFI39:
 506              		.cfi_def_cfa_register 7
 181:C:/Users/49542/Desktop/GD32F30x_Demo_Suites_V2.0.0/GD32F30x_Demo_Suites_V2.0.0/GD32F30x_Firmware_Library/GD32F30x_standard_peripheral/Source\gd32f30x_sdio.c ****     SDIO_CLKCTL &= ~SDIO_CLKCTL_CLKEN;
 507              		.loc 1 181 0
 508 0004 054B     		ldr	r3, .L28
 509 0006 1B68     		ldr	r3, [r3]
 510 0008 044A     		ldr	r2, .L28
 511 000a 23F48073 		bic	r3, r3, #256
 512 000e 1360     		str	r3, [r2]
 182:C:/Users/49542/Desktop/GD32F30x_Demo_Suites_V2.0.0/GD32F30x_Demo_Suites_V2.0.0/GD32F30x_Firmware_Library/GD32F30x_standard_peripheral/Source\gd32f30x_sdio.c **** }
 513              		.loc 1 182 0
 514 0010 00BF     		nop
 515 0012 BD46     		mov	sp, r7
 516              	.LCFI40:
 517              		.cfi_def_cfa_register 13
 518              		@ sp needed
 519 0014 5DF8047B 		ldr	r7, [sp], #4
ARM GAS  C:\Users\49542\AppData\Local\Temp\ccX92vIs.s 			page 13


 520              	.LCFI41:
 521              		.cfi_restore 7
 522              		.cfi_def_cfa_offset 0
 523 0018 7047     		bx	lr
 524              	.L29:
 525 001a 00BF     		.align	2
 526              	.L28:
 527 001c 04800140 		.word	1073840132
 528              		.cfi_endproc
 529              	.LFE124:
 531              		.section	.text.sdio_command_response_config,"ax",%progbits
 532              		.align	1
 533              		.global	sdio_command_response_config
 534              		.syntax unified
 535              		.thumb
 536              		.thumb_func
 537              		.fpu fpv4-sp-d16
 539              	sdio_command_response_config:
 540              	.LFB125:
 183:C:/Users/49542/Desktop/GD32F30x_Demo_Suites_V2.0.0/GD32F30x_Demo_Suites_V2.0.0/GD32F30x_Firmware_Library/GD32F30x_standard_peripheral/Source\gd32f30x_sdio.c **** 
 184:C:/Users/49542/Desktop/GD32F30x_Demo_Suites_V2.0.0/GD32F30x_Demo_Suites_V2.0.0/GD32F30x_Firmware_Library/GD32F30x_standard_peripheral/Source\gd32f30x_sdio.c **** /*!
 185:C:/Users/49542/Desktop/GD32F30x_Demo_Suites_V2.0.0/GD32F30x_Demo_Suites_V2.0.0/GD32F30x_Firmware_Library/GD32F30x_standard_peripheral/Source\gd32f30x_sdio.c ****     \brief      configure the command and response
 186:C:/Users/49542/Desktop/GD32F30x_Demo_Suites_V2.0.0/GD32F30x_Demo_Suites_V2.0.0/GD32F30x_Firmware_Library/GD32F30x_standard_peripheral/Source\gd32f30x_sdio.c ****     \param[in]  cmd_index: command index, refer to the related specifications
 187:C:/Users/49542/Desktop/GD32F30x_Demo_Suites_V2.0.0/GD32F30x_Demo_Suites_V2.0.0/GD32F30x_Firmware_Library/GD32F30x_standard_peripheral/Source\gd32f30x_sdio.c ****     \param[in]  cmd_argument: command argument, refer to the related specifications
 188:C:/Users/49542/Desktop/GD32F30x_Demo_Suites_V2.0.0/GD32F30x_Demo_Suites_V2.0.0/GD32F30x_Firmware_Library/GD32F30x_standard_peripheral/Source\gd32f30x_sdio.c ****     \param[in]  response_type: response type
 189:C:/Users/49542/Desktop/GD32F30x_Demo_Suites_V2.0.0/GD32F30x_Demo_Suites_V2.0.0/GD32F30x_Firmware_Library/GD32F30x_standard_peripheral/Source\gd32f30x_sdio.c ****                 only one parameter can be selected which is shown as below:
 190:C:/Users/49542/Desktop/GD32F30x_Demo_Suites_V2.0.0/GD32F30x_Demo_Suites_V2.0.0/GD32F30x_Firmware_Library/GD32F30x_standard_peripheral/Source\gd32f30x_sdio.c ****       \arg        SDIO_RESPONSETYPE_NO: no response
 191:C:/Users/49542/Desktop/GD32F30x_Demo_Suites_V2.0.0/GD32F30x_Demo_Suites_V2.0.0/GD32F30x_Firmware_Library/GD32F30x_standard_peripheral/Source\gd32f30x_sdio.c ****       \arg        SDIO_RESPONSETYPE_SHORT: short response
 192:C:/Users/49542/Desktop/GD32F30x_Demo_Suites_V2.0.0/GD32F30x_Demo_Suites_V2.0.0/GD32F30x_Firmware_Library/GD32F30x_standard_peripheral/Source\gd32f30x_sdio.c ****       \arg        SDIO_RESPONSETYPE_LONG: long response
 193:C:/Users/49542/Desktop/GD32F30x_Demo_Suites_V2.0.0/GD32F30x_Demo_Suites_V2.0.0/GD32F30x_Firmware_Library/GD32F30x_standard_peripheral/Source\gd32f30x_sdio.c ****     \param[out] none
 194:C:/Users/49542/Desktop/GD32F30x_Demo_Suites_V2.0.0/GD32F30x_Demo_Suites_V2.0.0/GD32F30x_Firmware_Library/GD32F30x_standard_peripheral/Source\gd32f30x_sdio.c ****     \retval     none
 195:C:/Users/49542/Desktop/GD32F30x_Demo_Suites_V2.0.0/GD32F30x_Demo_Suites_V2.0.0/GD32F30x_Firmware_Library/GD32F30x_standard_peripheral/Source\gd32f30x_sdio.c **** */
 196:C:/Users/49542/Desktop/GD32F30x_Demo_Suites_V2.0.0/GD32F30x_Demo_Suites_V2.0.0/GD32F30x_Firmware_Library/GD32F30x_standard_peripheral/Source\gd32f30x_sdio.c **** void sdio_command_response_config(uint32_t cmd_index, uint32_t cmd_argument, uint32_t response_type
 197:C:/Users/49542/Desktop/GD32F30x_Demo_Suites_V2.0.0/GD32F30x_Demo_Suites_V2.0.0/GD32F30x_Firmware_Library/GD32F30x_standard_peripheral/Source\gd32f30x_sdio.c **** {
 541              		.loc 1 197 0
 542              		.cfi_startproc
 543              		@ args = 0, pretend = 0, frame = 24
 544              		@ frame_needed = 1, uses_anonymous_args = 0
 545              		@ link register save eliminated.
 546 0000 80B4     		push	{r7}
 547              	.LCFI42:
 548              		.cfi_def_cfa_offset 4
 549              		.cfi_offset 7, -4
 550 0002 87B0     		sub	sp, sp, #28
 551              	.LCFI43:
 552              		.cfi_def_cfa_offset 32
 553 0004 00AF     		add	r7, sp, #0
 554              	.LCFI44:
 555              		.cfi_def_cfa_register 7
 556 0006 F860     		str	r0, [r7, #12]
 557 0008 B960     		str	r1, [r7, #8]
 558 000a 7A60     		str	r2, [r7, #4]
 198:C:/Users/49542/Desktop/GD32F30x_Demo_Suites_V2.0.0/GD32F30x_Demo_Suites_V2.0.0/GD32F30x_Firmware_Library/GD32F30x_standard_peripheral/Source\gd32f30x_sdio.c ****     uint32_t cmd_config = 0U;
 559              		.loc 1 198 0
 560 000c 0023     		movs	r3, #0
 561 000e 7B61     		str	r3, [r7, #20]
 199:C:/Users/49542/Desktop/GD32F30x_Demo_Suites_V2.0.0/GD32F30x_Demo_Suites_V2.0.0/GD32F30x_Firmware_Library/GD32F30x_standard_peripheral/Source\gd32f30x_sdio.c ****     /* reset the command index, command argument and response type */
ARM GAS  C:\Users\49542\AppData\Local\Temp\ccX92vIs.s 			page 14


 200:C:/Users/49542/Desktop/GD32F30x_Demo_Suites_V2.0.0/GD32F30x_Demo_Suites_V2.0.0/GD32F30x_Firmware_Library/GD32F30x_standard_peripheral/Source\gd32f30x_sdio.c ****     SDIO_CMDAGMT &= ~SDIO_CMDAGMT_CMDAGMT;
 562              		.loc 1 200 0
 563 0010 0E4B     		ldr	r3, .L31
 564 0012 1B68     		ldr	r3, [r3]
 565 0014 0D4B     		ldr	r3, .L31
 566 0016 0022     		movs	r2, #0
 567 0018 1A60     		str	r2, [r3]
 201:C:/Users/49542/Desktop/GD32F30x_Demo_Suites_V2.0.0/GD32F30x_Demo_Suites_V2.0.0/GD32F30x_Firmware_Library/GD32F30x_standard_peripheral/Source\gd32f30x_sdio.c ****     SDIO_CMDAGMT = cmd_argument;
 568              		.loc 1 201 0
 569 001a 0C4A     		ldr	r2, .L31
 570 001c BB68     		ldr	r3, [r7, #8]
 571 001e 1360     		str	r3, [r2]
 202:C:/Users/49542/Desktop/GD32F30x_Demo_Suites_V2.0.0/GD32F30x_Demo_Suites_V2.0.0/GD32F30x_Firmware_Library/GD32F30x_standard_peripheral/Source\gd32f30x_sdio.c ****     cmd_config = SDIO_CMDCTL;
 572              		.loc 1 202 0
 573 0020 0B4B     		ldr	r3, .L31+4
 574 0022 1B68     		ldr	r3, [r3]
 575 0024 7B61     		str	r3, [r7, #20]
 203:C:/Users/49542/Desktop/GD32F30x_Demo_Suites_V2.0.0/GD32F30x_Demo_Suites_V2.0.0/GD32F30x_Firmware_Library/GD32F30x_standard_peripheral/Source\gd32f30x_sdio.c ****     cmd_config &= ~(SDIO_CMDCTL_CMDIDX | SDIO_CMDCTL_CMDRESP);
 576              		.loc 1 203 0
 577 0026 7B69     		ldr	r3, [r7, #20]
 578 0028 23F0FF03 		bic	r3, r3, #255
 579 002c 7B61     		str	r3, [r7, #20]
 204:C:/Users/49542/Desktop/GD32F30x_Demo_Suites_V2.0.0/GD32F30x_Demo_Suites_V2.0.0/GD32F30x_Firmware_Library/GD32F30x_standard_peripheral/Source\gd32f30x_sdio.c ****     /* configure SDIO_CMDCTL and SDIO_CMDAGMT according to the parameters */
 205:C:/Users/49542/Desktop/GD32F30x_Demo_Suites_V2.0.0/GD32F30x_Demo_Suites_V2.0.0/GD32F30x_Firmware_Library/GD32F30x_standard_peripheral/Source\gd32f30x_sdio.c ****     cmd_config |= (cmd_index | response_type);
 580              		.loc 1 205 0
 581 002e FA68     		ldr	r2, [r7, #12]
 582 0030 7B68     		ldr	r3, [r7, #4]
 583 0032 1343     		orrs	r3, r3, r2
 584 0034 7A69     		ldr	r2, [r7, #20]
 585 0036 1343     		orrs	r3, r3, r2
 586 0038 7B61     		str	r3, [r7, #20]
 206:C:/Users/49542/Desktop/GD32F30x_Demo_Suites_V2.0.0/GD32F30x_Demo_Suites_V2.0.0/GD32F30x_Firmware_Library/GD32F30x_standard_peripheral/Source\gd32f30x_sdio.c ****     SDIO_CMDCTL = cmd_config;
 587              		.loc 1 206 0
 588 003a 054A     		ldr	r2, .L31+4
 589 003c 7B69     		ldr	r3, [r7, #20]
 590 003e 1360     		str	r3, [r2]
 207:C:/Users/49542/Desktop/GD32F30x_Demo_Suites_V2.0.0/GD32F30x_Demo_Suites_V2.0.0/GD32F30x_Firmware_Library/GD32F30x_standard_peripheral/Source\gd32f30x_sdio.c **** }
 591              		.loc 1 207 0
 592 0040 00BF     		nop
 593 0042 1C37     		adds	r7, r7, #28
 594              	.LCFI45:
 595              		.cfi_def_cfa_offset 4
 596 0044 BD46     		mov	sp, r7
 597              	.LCFI46:
 598              		.cfi_def_cfa_register 13
 599              		@ sp needed
 600 0046 5DF8047B 		ldr	r7, [sp], #4
 601              	.LCFI47:
 602              		.cfi_restore 7
 603              		.cfi_def_cfa_offset 0
 604 004a 7047     		bx	lr
 605              	.L32:
 606              		.align	2
 607              	.L31:
 608 004c 08800140 		.word	1073840136
 609 0050 0C800140 		.word	1073840140
 610              		.cfi_endproc
ARM GAS  C:\Users\49542\AppData\Local\Temp\ccX92vIs.s 			page 15


 611              	.LFE125:
 613              		.section	.text.sdio_wait_type_set,"ax",%progbits
 614              		.align	1
 615              		.global	sdio_wait_type_set
 616              		.syntax unified
 617              		.thumb
 618              		.thumb_func
 619              		.fpu fpv4-sp-d16
 621              	sdio_wait_type_set:
 622              	.LFB126:
 208:C:/Users/49542/Desktop/GD32F30x_Demo_Suites_V2.0.0/GD32F30x_Demo_Suites_V2.0.0/GD32F30x_Firmware_Library/GD32F30x_standard_peripheral/Source\gd32f30x_sdio.c **** 
 209:C:/Users/49542/Desktop/GD32F30x_Demo_Suites_V2.0.0/GD32F30x_Demo_Suites_V2.0.0/GD32F30x_Firmware_Library/GD32F30x_standard_peripheral/Source\gd32f30x_sdio.c **** /*!
 210:C:/Users/49542/Desktop/GD32F30x_Demo_Suites_V2.0.0/GD32F30x_Demo_Suites_V2.0.0/GD32F30x_Firmware_Library/GD32F30x_standard_peripheral/Source\gd32f30x_sdio.c ****     \brief      set the command state machine wait type
 211:C:/Users/49542/Desktop/GD32F30x_Demo_Suites_V2.0.0/GD32F30x_Demo_Suites_V2.0.0/GD32F30x_Firmware_Library/GD32F30x_standard_peripheral/Source\gd32f30x_sdio.c ****     \param[in]  wait_type: wait type
 212:C:/Users/49542/Desktop/GD32F30x_Demo_Suites_V2.0.0/GD32F30x_Demo_Suites_V2.0.0/GD32F30x_Firmware_Library/GD32F30x_standard_peripheral/Source\gd32f30x_sdio.c ****                 only one parameter can be selected which is shown as below:
 213:C:/Users/49542/Desktop/GD32F30x_Demo_Suites_V2.0.0/GD32F30x_Demo_Suites_V2.0.0/GD32F30x_Firmware_Library/GD32F30x_standard_peripheral/Source\gd32f30x_sdio.c ****       \arg        SDIO_WAITTYPE_NO: not wait interrupt
 214:C:/Users/49542/Desktop/GD32F30x_Demo_Suites_V2.0.0/GD32F30x_Demo_Suites_V2.0.0/GD32F30x_Firmware_Library/GD32F30x_standard_peripheral/Source\gd32f30x_sdio.c ****       \arg        SDIO_WAITTYPE_INTERRUPT: wait interrupt
 215:C:/Users/49542/Desktop/GD32F30x_Demo_Suites_V2.0.0/GD32F30x_Demo_Suites_V2.0.0/GD32F30x_Firmware_Library/GD32F30x_standard_peripheral/Source\gd32f30x_sdio.c ****       \arg        SDIO_WAITTYPE_DATAEND: wait the end of data transfer
 216:C:/Users/49542/Desktop/GD32F30x_Demo_Suites_V2.0.0/GD32F30x_Demo_Suites_V2.0.0/GD32F30x_Firmware_Library/GD32F30x_standard_peripheral/Source\gd32f30x_sdio.c ****     \param[out] none
 217:C:/Users/49542/Desktop/GD32F30x_Demo_Suites_V2.0.0/GD32F30x_Demo_Suites_V2.0.0/GD32F30x_Firmware_Library/GD32F30x_standard_peripheral/Source\gd32f30x_sdio.c ****     \retval     none
 218:C:/Users/49542/Desktop/GD32F30x_Demo_Suites_V2.0.0/GD32F30x_Demo_Suites_V2.0.0/GD32F30x_Firmware_Library/GD32F30x_standard_peripheral/Source\gd32f30x_sdio.c **** */
 219:C:/Users/49542/Desktop/GD32F30x_Demo_Suites_V2.0.0/GD32F30x_Demo_Suites_V2.0.0/GD32F30x_Firmware_Library/GD32F30x_standard_peripheral/Source\gd32f30x_sdio.c **** void sdio_wait_type_set(uint32_t wait_type)
 220:C:/Users/49542/Desktop/GD32F30x_Demo_Suites_V2.0.0/GD32F30x_Demo_Suites_V2.0.0/GD32F30x_Firmware_Library/GD32F30x_standard_peripheral/Source\gd32f30x_sdio.c **** {
 623              		.loc 1 220 0
 624              		.cfi_startproc
 625              		@ args = 0, pretend = 0, frame = 8
 626              		@ frame_needed = 1, uses_anonymous_args = 0
 627              		@ link register save eliminated.
 628 0000 80B4     		push	{r7}
 629              	.LCFI48:
 630              		.cfi_def_cfa_offset 4
 631              		.cfi_offset 7, -4
 632 0002 83B0     		sub	sp, sp, #12
 633              	.LCFI49:
 634              		.cfi_def_cfa_offset 16
 635 0004 00AF     		add	r7, sp, #0
 636              	.LCFI50:
 637              		.cfi_def_cfa_register 7
 638 0006 7860     		str	r0, [r7, #4]
 221:C:/Users/49542/Desktop/GD32F30x_Demo_Suites_V2.0.0/GD32F30x_Demo_Suites_V2.0.0/GD32F30x_Firmware_Library/GD32F30x_standard_peripheral/Source\gd32f30x_sdio.c ****     /* reset INTWAIT and WAITDEND */
 222:C:/Users/49542/Desktop/GD32F30x_Demo_Suites_V2.0.0/GD32F30x_Demo_Suites_V2.0.0/GD32F30x_Firmware_Library/GD32F30x_standard_peripheral/Source\gd32f30x_sdio.c ****     SDIO_CMDCTL &= ~(SDIO_CMDCTL_INTWAIT | SDIO_CMDCTL_WAITDEND);
 639              		.loc 1 222 0
 640 0008 084B     		ldr	r3, .L34
 641 000a 1B68     		ldr	r3, [r3]
 642 000c 074A     		ldr	r2, .L34
 643 000e 23F44073 		bic	r3, r3, #768
 644 0012 1360     		str	r3, [r2]
 223:C:/Users/49542/Desktop/GD32F30x_Demo_Suites_V2.0.0/GD32F30x_Demo_Suites_V2.0.0/GD32F30x_Firmware_Library/GD32F30x_standard_peripheral/Source\gd32f30x_sdio.c ****     /* set the wait type according to wait_type */
 224:C:/Users/49542/Desktop/GD32F30x_Demo_Suites_V2.0.0/GD32F30x_Demo_Suites_V2.0.0/GD32F30x_Firmware_Library/GD32F30x_standard_peripheral/Source\gd32f30x_sdio.c ****     SDIO_CMDCTL |= wait_type;
 645              		.loc 1 224 0
 646 0014 054B     		ldr	r3, .L34
 647 0016 1A68     		ldr	r2, [r3]
 648 0018 0449     		ldr	r1, .L34
 649 001a 7B68     		ldr	r3, [r7, #4]
 650 001c 1343     		orrs	r3, r3, r2
 651 001e 0B60     		str	r3, [r1]
 225:C:/Users/49542/Desktop/GD32F30x_Demo_Suites_V2.0.0/GD32F30x_Demo_Suites_V2.0.0/GD32F30x_Firmware_Library/GD32F30x_standard_peripheral/Source\gd32f30x_sdio.c **** }
ARM GAS  C:\Users\49542\AppData\Local\Temp\ccX92vIs.s 			page 16


 652              		.loc 1 225 0
 653 0020 00BF     		nop
 654 0022 0C37     		adds	r7, r7, #12
 655              	.LCFI51:
 656              		.cfi_def_cfa_offset 4
 657 0024 BD46     		mov	sp, r7
 658              	.LCFI52:
 659              		.cfi_def_cfa_register 13
 660              		@ sp needed
 661 0026 5DF8047B 		ldr	r7, [sp], #4
 662              	.LCFI53:
 663              		.cfi_restore 7
 664              		.cfi_def_cfa_offset 0
 665 002a 7047     		bx	lr
 666              	.L35:
 667              		.align	2
 668              	.L34:
 669 002c 0C800140 		.word	1073840140
 670              		.cfi_endproc
 671              	.LFE126:
 673              		.section	.text.sdio_csm_enable,"ax",%progbits
 674              		.align	1
 675              		.global	sdio_csm_enable
 676              		.syntax unified
 677              		.thumb
 678              		.thumb_func
 679              		.fpu fpv4-sp-d16
 681              	sdio_csm_enable:
 682              	.LFB127:
 226:C:/Users/49542/Desktop/GD32F30x_Demo_Suites_V2.0.0/GD32F30x_Demo_Suites_V2.0.0/GD32F30x_Firmware_Library/GD32F30x_standard_peripheral/Source\gd32f30x_sdio.c **** 
 227:C:/Users/49542/Desktop/GD32F30x_Demo_Suites_V2.0.0/GD32F30x_Demo_Suites_V2.0.0/GD32F30x_Firmware_Library/GD32F30x_standard_peripheral/Source\gd32f30x_sdio.c **** /*!
 228:C:/Users/49542/Desktop/GD32F30x_Demo_Suites_V2.0.0/GD32F30x_Demo_Suites_V2.0.0/GD32F30x_Firmware_Library/GD32F30x_standard_peripheral/Source\gd32f30x_sdio.c ****     \brief      enable the CSM(command state machine)
 229:C:/Users/49542/Desktop/GD32F30x_Demo_Suites_V2.0.0/GD32F30x_Demo_Suites_V2.0.0/GD32F30x_Firmware_Library/GD32F30x_standard_peripheral/Source\gd32f30x_sdio.c ****     \param[in]  none
 230:C:/Users/49542/Desktop/GD32F30x_Demo_Suites_V2.0.0/GD32F30x_Demo_Suites_V2.0.0/GD32F30x_Firmware_Library/GD32F30x_standard_peripheral/Source\gd32f30x_sdio.c ****     \param[out] none
 231:C:/Users/49542/Desktop/GD32F30x_Demo_Suites_V2.0.0/GD32F30x_Demo_Suites_V2.0.0/GD32F30x_Firmware_Library/GD32F30x_standard_peripheral/Source\gd32f30x_sdio.c ****     \retval     none
 232:C:/Users/49542/Desktop/GD32F30x_Demo_Suites_V2.0.0/GD32F30x_Demo_Suites_V2.0.0/GD32F30x_Firmware_Library/GD32F30x_standard_peripheral/Source\gd32f30x_sdio.c **** */
 233:C:/Users/49542/Desktop/GD32F30x_Demo_Suites_V2.0.0/GD32F30x_Demo_Suites_V2.0.0/GD32F30x_Firmware_Library/GD32F30x_standard_peripheral/Source\gd32f30x_sdio.c **** void sdio_csm_enable(void)
 234:C:/Users/49542/Desktop/GD32F30x_Demo_Suites_V2.0.0/GD32F30x_Demo_Suites_V2.0.0/GD32F30x_Firmware_Library/GD32F30x_standard_peripheral/Source\gd32f30x_sdio.c **** {
 683              		.loc 1 234 0
 684              		.cfi_startproc
 685              		@ args = 0, pretend = 0, frame = 0
 686              		@ frame_needed = 1, uses_anonymous_args = 0
 687              		@ link register save eliminated.
 688 0000 80B4     		push	{r7}
 689              	.LCFI54:
 690              		.cfi_def_cfa_offset 4
 691              		.cfi_offset 7, -4
 692 0002 00AF     		add	r7, sp, #0
 693              	.LCFI55:
 694              		.cfi_def_cfa_register 7
 235:C:/Users/49542/Desktop/GD32F30x_Demo_Suites_V2.0.0/GD32F30x_Demo_Suites_V2.0.0/GD32F30x_Firmware_Library/GD32F30x_standard_peripheral/Source\gd32f30x_sdio.c ****     SDIO_CMDCTL |= SDIO_CMDCTL_CSMEN;
 695              		.loc 1 235 0
 696 0004 054B     		ldr	r3, .L37
 697 0006 1B68     		ldr	r3, [r3]
 698 0008 044A     		ldr	r2, .L37
 699 000a 43F48063 		orr	r3, r3, #1024
 700 000e 1360     		str	r3, [r2]
ARM GAS  C:\Users\49542\AppData\Local\Temp\ccX92vIs.s 			page 17


 236:C:/Users/49542/Desktop/GD32F30x_Demo_Suites_V2.0.0/GD32F30x_Demo_Suites_V2.0.0/GD32F30x_Firmware_Library/GD32F30x_standard_peripheral/Source\gd32f30x_sdio.c **** }
 701              		.loc 1 236 0
 702 0010 00BF     		nop
 703 0012 BD46     		mov	sp, r7
 704              	.LCFI56:
 705              		.cfi_def_cfa_register 13
 706              		@ sp needed
 707 0014 5DF8047B 		ldr	r7, [sp], #4
 708              	.LCFI57:
 709              		.cfi_restore 7
 710              		.cfi_def_cfa_offset 0
 711 0018 7047     		bx	lr
 712              	.L38:
 713 001a 00BF     		.align	2
 714              	.L37:
 715 001c 0C800140 		.word	1073840140
 716              		.cfi_endproc
 717              	.LFE127:
 719              		.section	.text.sdio_csm_disable,"ax",%progbits
 720              		.align	1
 721              		.global	sdio_csm_disable
 722              		.syntax unified
 723              		.thumb
 724              		.thumb_func
 725              		.fpu fpv4-sp-d16
 727              	sdio_csm_disable:
 728              	.LFB128:
 237:C:/Users/49542/Desktop/GD32F30x_Demo_Suites_V2.0.0/GD32F30x_Demo_Suites_V2.0.0/GD32F30x_Firmware_Library/GD32F30x_standard_peripheral/Source\gd32f30x_sdio.c **** 
 238:C:/Users/49542/Desktop/GD32F30x_Demo_Suites_V2.0.0/GD32F30x_Demo_Suites_V2.0.0/GD32F30x_Firmware_Library/GD32F30x_standard_peripheral/Source\gd32f30x_sdio.c **** /*!
 239:C:/Users/49542/Desktop/GD32F30x_Demo_Suites_V2.0.0/GD32F30x_Demo_Suites_V2.0.0/GD32F30x_Firmware_Library/GD32F30x_standard_peripheral/Source\gd32f30x_sdio.c ****     \brief      disable the CSM(command state machine)
 240:C:/Users/49542/Desktop/GD32F30x_Demo_Suites_V2.0.0/GD32F30x_Demo_Suites_V2.0.0/GD32F30x_Firmware_Library/GD32F30x_standard_peripheral/Source\gd32f30x_sdio.c ****     \param[in]  none
 241:C:/Users/49542/Desktop/GD32F30x_Demo_Suites_V2.0.0/GD32F30x_Demo_Suites_V2.0.0/GD32F30x_Firmware_Library/GD32F30x_standard_peripheral/Source\gd32f30x_sdio.c ****     \param[out] none
 242:C:/Users/49542/Desktop/GD32F30x_Demo_Suites_V2.0.0/GD32F30x_Demo_Suites_V2.0.0/GD32F30x_Firmware_Library/GD32F30x_standard_peripheral/Source\gd32f30x_sdio.c ****     \retval     none
 243:C:/Users/49542/Desktop/GD32F30x_Demo_Suites_V2.0.0/GD32F30x_Demo_Suites_V2.0.0/GD32F30x_Firmware_Library/GD32F30x_standard_peripheral/Source\gd32f30x_sdio.c **** */
 244:C:/Users/49542/Desktop/GD32F30x_Demo_Suites_V2.0.0/GD32F30x_Demo_Suites_V2.0.0/GD32F30x_Firmware_Library/GD32F30x_standard_peripheral/Source\gd32f30x_sdio.c **** void sdio_csm_disable(void)
 245:C:/Users/49542/Desktop/GD32F30x_Demo_Suites_V2.0.0/GD32F30x_Demo_Suites_V2.0.0/GD32F30x_Firmware_Library/GD32F30x_standard_peripheral/Source\gd32f30x_sdio.c **** {
 729              		.loc 1 245 0
 730              		.cfi_startproc
 731              		@ args = 0, pretend = 0, frame = 0
 732              		@ frame_needed = 1, uses_anonymous_args = 0
 733              		@ link register save eliminated.
 734 0000 80B4     		push	{r7}
 735              	.LCFI58:
 736              		.cfi_def_cfa_offset 4
 737              		.cfi_offset 7, -4
 738 0002 00AF     		add	r7, sp, #0
 739              	.LCFI59:
 740              		.cfi_def_cfa_register 7
 246:C:/Users/49542/Desktop/GD32F30x_Demo_Suites_V2.0.0/GD32F30x_Demo_Suites_V2.0.0/GD32F30x_Firmware_Library/GD32F30x_standard_peripheral/Source\gd32f30x_sdio.c ****     SDIO_CMDCTL &= ~SDIO_CMDCTL_CSMEN;
 741              		.loc 1 246 0
 742 0004 054B     		ldr	r3, .L40
 743 0006 1B68     		ldr	r3, [r3]
 744 0008 044A     		ldr	r2, .L40
 745 000a 23F48063 		bic	r3, r3, #1024
 746 000e 1360     		str	r3, [r2]
 247:C:/Users/49542/Desktop/GD32F30x_Demo_Suites_V2.0.0/GD32F30x_Demo_Suites_V2.0.0/GD32F30x_Firmware_Library/GD32F30x_standard_peripheral/Source\gd32f30x_sdio.c **** }
 747              		.loc 1 247 0
ARM GAS  C:\Users\49542\AppData\Local\Temp\ccX92vIs.s 			page 18


 748 0010 00BF     		nop
 749 0012 BD46     		mov	sp, r7
 750              	.LCFI60:
 751              		.cfi_def_cfa_register 13
 752              		@ sp needed
 753 0014 5DF8047B 		ldr	r7, [sp], #4
 754              	.LCFI61:
 755              		.cfi_restore 7
 756              		.cfi_def_cfa_offset 0
 757 0018 7047     		bx	lr
 758              	.L41:
 759 001a 00BF     		.align	2
 760              	.L40:
 761 001c 0C800140 		.word	1073840140
 762              		.cfi_endproc
 763              	.LFE128:
 765              		.section	.text.sdio_command_index_get,"ax",%progbits
 766              		.align	1
 767              		.global	sdio_command_index_get
 768              		.syntax unified
 769              		.thumb
 770              		.thumb_func
 771              		.fpu fpv4-sp-d16
 773              	sdio_command_index_get:
 774              	.LFB129:
 248:C:/Users/49542/Desktop/GD32F30x_Demo_Suites_V2.0.0/GD32F30x_Demo_Suites_V2.0.0/GD32F30x_Firmware_Library/GD32F30x_standard_peripheral/Source\gd32f30x_sdio.c **** 
 249:C:/Users/49542/Desktop/GD32F30x_Demo_Suites_V2.0.0/GD32F30x_Demo_Suites_V2.0.0/GD32F30x_Firmware_Library/GD32F30x_standard_peripheral/Source\gd32f30x_sdio.c **** /*!
 250:C:/Users/49542/Desktop/GD32F30x_Demo_Suites_V2.0.0/GD32F30x_Demo_Suites_V2.0.0/GD32F30x_Firmware_Library/GD32F30x_standard_peripheral/Source\gd32f30x_sdio.c ****     \brief      get the last response command index
 251:C:/Users/49542/Desktop/GD32F30x_Demo_Suites_V2.0.0/GD32F30x_Demo_Suites_V2.0.0/GD32F30x_Firmware_Library/GD32F30x_standard_peripheral/Source\gd32f30x_sdio.c ****     \param[in]  none
 252:C:/Users/49542/Desktop/GD32F30x_Demo_Suites_V2.0.0/GD32F30x_Demo_Suites_V2.0.0/GD32F30x_Firmware_Library/GD32F30x_standard_peripheral/Source\gd32f30x_sdio.c ****     \param[out] none
 253:C:/Users/49542/Desktop/GD32F30x_Demo_Suites_V2.0.0/GD32F30x_Demo_Suites_V2.0.0/GD32F30x_Firmware_Library/GD32F30x_standard_peripheral/Source\gd32f30x_sdio.c ****     \retval     last response command index
 254:C:/Users/49542/Desktop/GD32F30x_Demo_Suites_V2.0.0/GD32F30x_Demo_Suites_V2.0.0/GD32F30x_Firmware_Library/GD32F30x_standard_peripheral/Source\gd32f30x_sdio.c **** */
 255:C:/Users/49542/Desktop/GD32F30x_Demo_Suites_V2.0.0/GD32F30x_Demo_Suites_V2.0.0/GD32F30x_Firmware_Library/GD32F30x_standard_peripheral/Source\gd32f30x_sdio.c **** uint8_t sdio_command_index_get(void)
 256:C:/Users/49542/Desktop/GD32F30x_Demo_Suites_V2.0.0/GD32F30x_Demo_Suites_V2.0.0/GD32F30x_Firmware_Library/GD32F30x_standard_peripheral/Source\gd32f30x_sdio.c **** {
 775              		.loc 1 256 0
 776              		.cfi_startproc
 777              		@ args = 0, pretend = 0, frame = 0
 778              		@ frame_needed = 1, uses_anonymous_args = 0
 779              		@ link register save eliminated.
 780 0000 80B4     		push	{r7}
 781              	.LCFI62:
 782              		.cfi_def_cfa_offset 4
 783              		.cfi_offset 7, -4
 784 0002 00AF     		add	r7, sp, #0
 785              	.LCFI63:
 786              		.cfi_def_cfa_register 7
 257:C:/Users/49542/Desktop/GD32F30x_Demo_Suites_V2.0.0/GD32F30x_Demo_Suites_V2.0.0/GD32F30x_Firmware_Library/GD32F30x_standard_peripheral/Source\gd32f30x_sdio.c ****     return (uint8_t)SDIO_RSPCMDIDX;
 787              		.loc 1 257 0
 788 0004 034B     		ldr	r3, .L44
 789 0006 1B68     		ldr	r3, [r3]
 790 0008 DBB2     		uxtb	r3, r3
 258:C:/Users/49542/Desktop/GD32F30x_Demo_Suites_V2.0.0/GD32F30x_Demo_Suites_V2.0.0/GD32F30x_Firmware_Library/GD32F30x_standard_peripheral/Source\gd32f30x_sdio.c **** }
 791              		.loc 1 258 0
 792 000a 1846     		mov	r0, r3
 793 000c BD46     		mov	sp, r7
 794              	.LCFI64:
 795              		.cfi_def_cfa_register 13
ARM GAS  C:\Users\49542\AppData\Local\Temp\ccX92vIs.s 			page 19


 796              		@ sp needed
 797 000e 5DF8047B 		ldr	r7, [sp], #4
 798              	.LCFI65:
 799              		.cfi_restore 7
 800              		.cfi_def_cfa_offset 0
 801 0012 7047     		bx	lr
 802              	.L45:
 803              		.align	2
 804              	.L44:
 805 0014 10800140 		.word	1073840144
 806              		.cfi_endproc
 807              	.LFE129:
 809              		.section	.text.sdio_response_get,"ax",%progbits
 810              		.align	1
 811              		.global	sdio_response_get
 812              		.syntax unified
 813              		.thumb
 814              		.thumb_func
 815              		.fpu fpv4-sp-d16
 817              	sdio_response_get:
 818              	.LFB130:
 259:C:/Users/49542/Desktop/GD32F30x_Demo_Suites_V2.0.0/GD32F30x_Demo_Suites_V2.0.0/GD32F30x_Firmware_Library/GD32F30x_standard_peripheral/Source\gd32f30x_sdio.c **** 
 260:C:/Users/49542/Desktop/GD32F30x_Demo_Suites_V2.0.0/GD32F30x_Demo_Suites_V2.0.0/GD32F30x_Firmware_Library/GD32F30x_standard_peripheral/Source\gd32f30x_sdio.c **** /*!
 261:C:/Users/49542/Desktop/GD32F30x_Demo_Suites_V2.0.0/GD32F30x_Demo_Suites_V2.0.0/GD32F30x_Firmware_Library/GD32F30x_standard_peripheral/Source\gd32f30x_sdio.c ****     \brief      get the response for the last received command
 262:C:/Users/49542/Desktop/GD32F30x_Demo_Suites_V2.0.0/GD32F30x_Demo_Suites_V2.0.0/GD32F30x_Firmware_Library/GD32F30x_standard_peripheral/Source\gd32f30x_sdio.c ****     \param[in]  responsex: SDIO response
 263:C:/Users/49542/Desktop/GD32F30x_Demo_Suites_V2.0.0/GD32F30x_Demo_Suites_V2.0.0/GD32F30x_Firmware_Library/GD32F30x_standard_peripheral/Source\gd32f30x_sdio.c ****                 only one parameter can be selected which is shown as below:
 264:C:/Users/49542/Desktop/GD32F30x_Demo_Suites_V2.0.0/GD32F30x_Demo_Suites_V2.0.0/GD32F30x_Firmware_Library/GD32F30x_standard_peripheral/Source\gd32f30x_sdio.c ****       \arg       SDIO_RESPONSE0: card response[31:0]/card response[127:96]
 265:C:/Users/49542/Desktop/GD32F30x_Demo_Suites_V2.0.0/GD32F30x_Demo_Suites_V2.0.0/GD32F30x_Firmware_Library/GD32F30x_standard_peripheral/Source\gd32f30x_sdio.c ****       \arg       SDIO_RESPONSE1: card response[95:64]
 266:C:/Users/49542/Desktop/GD32F30x_Demo_Suites_V2.0.0/GD32F30x_Demo_Suites_V2.0.0/GD32F30x_Firmware_Library/GD32F30x_standard_peripheral/Source\gd32f30x_sdio.c ****       \arg       SDIO_RESPONSE2: card response[63:32]
 267:C:/Users/49542/Desktop/GD32F30x_Demo_Suites_V2.0.0/GD32F30x_Demo_Suites_V2.0.0/GD32F30x_Firmware_Library/GD32F30x_standard_peripheral/Source\gd32f30x_sdio.c ****       \arg       SDIO_RESPONSE3: card response[31:1], plus bit 0
 268:C:/Users/49542/Desktop/GD32F30x_Demo_Suites_V2.0.0/GD32F30x_Demo_Suites_V2.0.0/GD32F30x_Firmware_Library/GD32F30x_standard_peripheral/Source\gd32f30x_sdio.c ****     \param[out] none
 269:C:/Users/49542/Desktop/GD32F30x_Demo_Suites_V2.0.0/GD32F30x_Demo_Suites_V2.0.0/GD32F30x_Firmware_Library/GD32F30x_standard_peripheral/Source\gd32f30x_sdio.c ****     \retval     response for the last received command
 270:C:/Users/49542/Desktop/GD32F30x_Demo_Suites_V2.0.0/GD32F30x_Demo_Suites_V2.0.0/GD32F30x_Firmware_Library/GD32F30x_standard_peripheral/Source\gd32f30x_sdio.c **** */
 271:C:/Users/49542/Desktop/GD32F30x_Demo_Suites_V2.0.0/GD32F30x_Demo_Suites_V2.0.0/GD32F30x_Firmware_Library/GD32F30x_standard_peripheral/Source\gd32f30x_sdio.c **** uint32_t sdio_response_get(uint32_t responsex)
 272:C:/Users/49542/Desktop/GD32F30x_Demo_Suites_V2.0.0/GD32F30x_Demo_Suites_V2.0.0/GD32F30x_Firmware_Library/GD32F30x_standard_peripheral/Source\gd32f30x_sdio.c **** {
 819              		.loc 1 272 0
 820              		.cfi_startproc
 821              		@ args = 0, pretend = 0, frame = 16
 822              		@ frame_needed = 1, uses_anonymous_args = 0
 823              		@ link register save eliminated.
 824 0000 80B4     		push	{r7}
 825              	.LCFI66:
 826              		.cfi_def_cfa_offset 4
 827              		.cfi_offset 7, -4
 828 0002 85B0     		sub	sp, sp, #20
 829              	.LCFI67:
 830              		.cfi_def_cfa_offset 24
 831 0004 00AF     		add	r7, sp, #0
 832              	.LCFI68:
 833              		.cfi_def_cfa_register 7
 834 0006 7860     		str	r0, [r7, #4]
 273:C:/Users/49542/Desktop/GD32F30x_Demo_Suites_V2.0.0/GD32F30x_Demo_Suites_V2.0.0/GD32F30x_Firmware_Library/GD32F30x_standard_peripheral/Source\gd32f30x_sdio.c ****     uint32_t resp_content = 0U;
 835              		.loc 1 273 0
 836 0008 0023     		movs	r3, #0
 837 000a FB60     		str	r3, [r7, #12]
 274:C:/Users/49542/Desktop/GD32F30x_Demo_Suites_V2.0.0/GD32F30x_Demo_Suites_V2.0.0/GD32F30x_Firmware_Library/GD32F30x_standard_peripheral/Source\gd32f30x_sdio.c ****     switch(responsex){
 838              		.loc 1 274 0
ARM GAS  C:\Users\49542\AppData\Local\Temp\ccX92vIs.s 			page 20


 839 000c 7B68     		ldr	r3, [r7, #4]
 840 000e 032B     		cmp	r3, #3
 841 0010 1AD8     		bhi	.L55
 842 0012 01A2     		adr	r2, .L49
 843 0014 52F823F0 		ldr	pc, [r2, r3, lsl #2]
 844              		.p2align 2
 845              	.L49:
 846 0018 29000000 		.word	.L48+1
 847 001c 31000000 		.word	.L50+1
 848 0020 39000000 		.word	.L51+1
 849 0024 41000000 		.word	.L52+1
 850              		.p2align 1
 851              	.L48:
 275:C:/Users/49542/Desktop/GD32F30x_Demo_Suites_V2.0.0/GD32F30x_Demo_Suites_V2.0.0/GD32F30x_Firmware_Library/GD32F30x_standard_peripheral/Source\gd32f30x_sdio.c ****     case SDIO_RESPONSE0:
 276:C:/Users/49542/Desktop/GD32F30x_Demo_Suites_V2.0.0/GD32F30x_Demo_Suites_V2.0.0/GD32F30x_Firmware_Library/GD32F30x_standard_peripheral/Source\gd32f30x_sdio.c ****         resp_content = SDIO_RESP0;
 852              		.loc 1 276 0
 853 0028 0B4B     		ldr	r3, .L56
 854 002a 1B68     		ldr	r3, [r3]
 855 002c FB60     		str	r3, [r7, #12]
 277:C:/Users/49542/Desktop/GD32F30x_Demo_Suites_V2.0.0/GD32F30x_Demo_Suites_V2.0.0/GD32F30x_Firmware_Library/GD32F30x_standard_peripheral/Source\gd32f30x_sdio.c ****         break;
 856              		.loc 1 277 0
 857 002e 0CE0     		b	.L53
 858              	.L50:
 278:C:/Users/49542/Desktop/GD32F30x_Demo_Suites_V2.0.0/GD32F30x_Demo_Suites_V2.0.0/GD32F30x_Firmware_Library/GD32F30x_standard_peripheral/Source\gd32f30x_sdio.c ****     case SDIO_RESPONSE1:
 279:C:/Users/49542/Desktop/GD32F30x_Demo_Suites_V2.0.0/GD32F30x_Demo_Suites_V2.0.0/GD32F30x_Firmware_Library/GD32F30x_standard_peripheral/Source\gd32f30x_sdio.c ****         resp_content = SDIO_RESP1;
 859              		.loc 1 279 0
 860 0030 0A4B     		ldr	r3, .L56+4
 861 0032 1B68     		ldr	r3, [r3]
 862 0034 FB60     		str	r3, [r7, #12]
 280:C:/Users/49542/Desktop/GD32F30x_Demo_Suites_V2.0.0/GD32F30x_Demo_Suites_V2.0.0/GD32F30x_Firmware_Library/GD32F30x_standard_peripheral/Source\gd32f30x_sdio.c ****         break;
 863              		.loc 1 280 0
 864 0036 08E0     		b	.L53
 865              	.L51:
 281:C:/Users/49542/Desktop/GD32F30x_Demo_Suites_V2.0.0/GD32F30x_Demo_Suites_V2.0.0/GD32F30x_Firmware_Library/GD32F30x_standard_peripheral/Source\gd32f30x_sdio.c ****     case SDIO_RESPONSE2:
 282:C:/Users/49542/Desktop/GD32F30x_Demo_Suites_V2.0.0/GD32F30x_Demo_Suites_V2.0.0/GD32F30x_Firmware_Library/GD32F30x_standard_peripheral/Source\gd32f30x_sdio.c ****         resp_content = SDIO_RESP2;
 866              		.loc 1 282 0
 867 0038 094B     		ldr	r3, .L56+8
 868 003a 1B68     		ldr	r3, [r3]
 869 003c FB60     		str	r3, [r7, #12]
 283:C:/Users/49542/Desktop/GD32F30x_Demo_Suites_V2.0.0/GD32F30x_Demo_Suites_V2.0.0/GD32F30x_Firmware_Library/GD32F30x_standard_peripheral/Source\gd32f30x_sdio.c ****         break;
 870              		.loc 1 283 0
 871 003e 04E0     		b	.L53
 872              	.L52:
 284:C:/Users/49542/Desktop/GD32F30x_Demo_Suites_V2.0.0/GD32F30x_Demo_Suites_V2.0.0/GD32F30x_Firmware_Library/GD32F30x_standard_peripheral/Source\gd32f30x_sdio.c ****     case SDIO_RESPONSE3:
 285:C:/Users/49542/Desktop/GD32F30x_Demo_Suites_V2.0.0/GD32F30x_Demo_Suites_V2.0.0/GD32F30x_Firmware_Library/GD32F30x_standard_peripheral/Source\gd32f30x_sdio.c ****         resp_content = SDIO_RESP3;
 873              		.loc 1 285 0
 874 0040 084B     		ldr	r3, .L56+12
 875 0042 1B68     		ldr	r3, [r3]
 876 0044 FB60     		str	r3, [r7, #12]
 286:C:/Users/49542/Desktop/GD32F30x_Demo_Suites_V2.0.0/GD32F30x_Demo_Suites_V2.0.0/GD32F30x_Firmware_Library/GD32F30x_standard_peripheral/Source\gd32f30x_sdio.c ****         break;
 877              		.loc 1 286 0
 878 0046 00E0     		b	.L53
 879              	.L55:
 287:C:/Users/49542/Desktop/GD32F30x_Demo_Suites_V2.0.0/GD32F30x_Demo_Suites_V2.0.0/GD32F30x_Firmware_Library/GD32F30x_standard_peripheral/Source\gd32f30x_sdio.c ****     default:
 288:C:/Users/49542/Desktop/GD32F30x_Demo_Suites_V2.0.0/GD32F30x_Demo_Suites_V2.0.0/GD32F30x_Firmware_Library/GD32F30x_standard_peripheral/Source\gd32f30x_sdio.c ****         break;
 880              		.loc 1 288 0
 881 0048 00BF     		nop
ARM GAS  C:\Users\49542\AppData\Local\Temp\ccX92vIs.s 			page 21


 882              	.L53:
 289:C:/Users/49542/Desktop/GD32F30x_Demo_Suites_V2.0.0/GD32F30x_Demo_Suites_V2.0.0/GD32F30x_Firmware_Library/GD32F30x_standard_peripheral/Source\gd32f30x_sdio.c ****     }
 290:C:/Users/49542/Desktop/GD32F30x_Demo_Suites_V2.0.0/GD32F30x_Demo_Suites_V2.0.0/GD32F30x_Firmware_Library/GD32F30x_standard_peripheral/Source\gd32f30x_sdio.c ****     return resp_content;
 883              		.loc 1 290 0
 884 004a FB68     		ldr	r3, [r7, #12]
 291:C:/Users/49542/Desktop/GD32F30x_Demo_Suites_V2.0.0/GD32F30x_Demo_Suites_V2.0.0/GD32F30x_Firmware_Library/GD32F30x_standard_peripheral/Source\gd32f30x_sdio.c **** }
 885              		.loc 1 291 0
 886 004c 1846     		mov	r0, r3
 887 004e 1437     		adds	r7, r7, #20
 888              	.LCFI69:
 889              		.cfi_def_cfa_offset 4
 890 0050 BD46     		mov	sp, r7
 891              	.LCFI70:
 892              		.cfi_def_cfa_register 13
 893              		@ sp needed
 894 0052 5DF8047B 		ldr	r7, [sp], #4
 895              	.LCFI71:
 896              		.cfi_restore 7
 897              		.cfi_def_cfa_offset 0
 898 0056 7047     		bx	lr
 899              	.L57:
 900              		.align	2
 901              	.L56:
 902 0058 14800140 		.word	1073840148
 903 005c 18800140 		.word	1073840152
 904 0060 1C800140 		.word	1073840156
 905 0064 20800140 		.word	1073840160
 906              		.cfi_endproc
 907              	.LFE130:
 909              		.section	.text.sdio_data_config,"ax",%progbits
 910              		.align	1
 911              		.global	sdio_data_config
 912              		.syntax unified
 913              		.thumb
 914              		.thumb_func
 915              		.fpu fpv4-sp-d16
 917              	sdio_data_config:
 918              	.LFB131:
 292:C:/Users/49542/Desktop/GD32F30x_Demo_Suites_V2.0.0/GD32F30x_Demo_Suites_V2.0.0/GD32F30x_Firmware_Library/GD32F30x_standard_peripheral/Source\gd32f30x_sdio.c **** 
 293:C:/Users/49542/Desktop/GD32F30x_Demo_Suites_V2.0.0/GD32F30x_Demo_Suites_V2.0.0/GD32F30x_Firmware_Library/GD32F30x_standard_peripheral/Source\gd32f30x_sdio.c **** /*!
 294:C:/Users/49542/Desktop/GD32F30x_Demo_Suites_V2.0.0/GD32F30x_Demo_Suites_V2.0.0/GD32F30x_Firmware_Library/GD32F30x_standard_peripheral/Source\gd32f30x_sdio.c ****     \brief      configure the data timeout, data length and data block size
 295:C:/Users/49542/Desktop/GD32F30x_Demo_Suites_V2.0.0/GD32F30x_Demo_Suites_V2.0.0/GD32F30x_Firmware_Library/GD32F30x_standard_peripheral/Source\gd32f30x_sdio.c ****     \param[in]  data_timeout: data timeout period in card bus clock periods
 296:C:/Users/49542/Desktop/GD32F30x_Demo_Suites_V2.0.0/GD32F30x_Demo_Suites_V2.0.0/GD32F30x_Firmware_Library/GD32F30x_standard_peripheral/Source\gd32f30x_sdio.c ****     \param[in]  data_length: number of data bytes to be transferred
 297:C:/Users/49542/Desktop/GD32F30x_Demo_Suites_V2.0.0/GD32F30x_Demo_Suites_V2.0.0/GD32F30x_Firmware_Library/GD32F30x_standard_peripheral/Source\gd32f30x_sdio.c ****     \param[in]  data_blocksize: size of data block for block transfer
 298:C:/Users/49542/Desktop/GD32F30x_Demo_Suites_V2.0.0/GD32F30x_Demo_Suites_V2.0.0/GD32F30x_Firmware_Library/GD32F30x_standard_peripheral/Source\gd32f30x_sdio.c ****                 only one parameter can be selected which is shown as below:
 299:C:/Users/49542/Desktop/GD32F30x_Demo_Suites_V2.0.0/GD32F30x_Demo_Suites_V2.0.0/GD32F30x_Firmware_Library/GD32F30x_standard_peripheral/Source\gd32f30x_sdio.c ****       \arg        SDIO_DATABLOCKSIZE_1BYTE: block size = 1 byte
 300:C:/Users/49542/Desktop/GD32F30x_Demo_Suites_V2.0.0/GD32F30x_Demo_Suites_V2.0.0/GD32F30x_Firmware_Library/GD32F30x_standard_peripheral/Source\gd32f30x_sdio.c ****       \arg        SDIO_DATABLOCKSIZE_2BYTES: block size = 2 bytes
 301:C:/Users/49542/Desktop/GD32F30x_Demo_Suites_V2.0.0/GD32F30x_Demo_Suites_V2.0.0/GD32F30x_Firmware_Library/GD32F30x_standard_peripheral/Source\gd32f30x_sdio.c ****       \arg        SDIO_DATABLOCKSIZE_4BYTES: block size = 4 bytes
 302:C:/Users/49542/Desktop/GD32F30x_Demo_Suites_V2.0.0/GD32F30x_Demo_Suites_V2.0.0/GD32F30x_Firmware_Library/GD32F30x_standard_peripheral/Source\gd32f30x_sdio.c ****       \arg        SDIO_DATABLOCKSIZE_8BYTES: block size = 8 bytes
 303:C:/Users/49542/Desktop/GD32F30x_Demo_Suites_V2.0.0/GD32F30x_Demo_Suites_V2.0.0/GD32F30x_Firmware_Library/GD32F30x_standard_peripheral/Source\gd32f30x_sdio.c ****       \arg        SDIO_DATABLOCKSIZE_16BYTES: block size = 16 bytes
 304:C:/Users/49542/Desktop/GD32F30x_Demo_Suites_V2.0.0/GD32F30x_Demo_Suites_V2.0.0/GD32F30x_Firmware_Library/GD32F30x_standard_peripheral/Source\gd32f30x_sdio.c ****       \arg        SDIO_DATABLOCKSIZE_32BYTES: block size = 32 bytes
 305:C:/Users/49542/Desktop/GD32F30x_Demo_Suites_V2.0.0/GD32F30x_Demo_Suites_V2.0.0/GD32F30x_Firmware_Library/GD32F30x_standard_peripheral/Source\gd32f30x_sdio.c ****       \arg        SDIO_DATABLOCKSIZE_64BYTES: block size = 64 bytes
 306:C:/Users/49542/Desktop/GD32F30x_Demo_Suites_V2.0.0/GD32F30x_Demo_Suites_V2.0.0/GD32F30x_Firmware_Library/GD32F30x_standard_peripheral/Source\gd32f30x_sdio.c ****       \arg        SDIO_DATABLOCKSIZE_128BYTES: block size = 128 bytes
 307:C:/Users/49542/Desktop/GD32F30x_Demo_Suites_V2.0.0/GD32F30x_Demo_Suites_V2.0.0/GD32F30x_Firmware_Library/GD32F30x_standard_peripheral/Source\gd32f30x_sdio.c ****       \arg        SDIO_DATABLOCKSIZE_256BYTES: block size = 256 bytes
 308:C:/Users/49542/Desktop/GD32F30x_Demo_Suites_V2.0.0/GD32F30x_Demo_Suites_V2.0.0/GD32F30x_Firmware_Library/GD32F30x_standard_peripheral/Source\gd32f30x_sdio.c ****       \arg        SDIO_DATABLOCKSIZE_512BYTES: block size = 512 bytes
 309:C:/Users/49542/Desktop/GD32F30x_Demo_Suites_V2.0.0/GD32F30x_Demo_Suites_V2.0.0/GD32F30x_Firmware_Library/GD32F30x_standard_peripheral/Source\gd32f30x_sdio.c ****       \arg        SDIO_DATABLOCKSIZE_1024BYTES: block size = 1024 bytes
 310:C:/Users/49542/Desktop/GD32F30x_Demo_Suites_V2.0.0/GD32F30x_Demo_Suites_V2.0.0/GD32F30x_Firmware_Library/GD32F30x_standard_peripheral/Source\gd32f30x_sdio.c ****       \arg        SDIO_DATABLOCKSIZE_2048BYTES: block size = 2048 bytes
ARM GAS  C:\Users\49542\AppData\Local\Temp\ccX92vIs.s 			page 22


 311:C:/Users/49542/Desktop/GD32F30x_Demo_Suites_V2.0.0/GD32F30x_Demo_Suites_V2.0.0/GD32F30x_Firmware_Library/GD32F30x_standard_peripheral/Source\gd32f30x_sdio.c ****       \arg        SDIO_DATABLOCKSIZE_4096BYTES: block size = 4096 bytes
 312:C:/Users/49542/Desktop/GD32F30x_Demo_Suites_V2.0.0/GD32F30x_Demo_Suites_V2.0.0/GD32F30x_Firmware_Library/GD32F30x_standard_peripheral/Source\gd32f30x_sdio.c ****       \arg        SDIO_DATABLOCKSIZE_8192BYTES: block size = 8192 bytes
 313:C:/Users/49542/Desktop/GD32F30x_Demo_Suites_V2.0.0/GD32F30x_Demo_Suites_V2.0.0/GD32F30x_Firmware_Library/GD32F30x_standard_peripheral/Source\gd32f30x_sdio.c ****       \arg        SDIO_DATABLOCKSIZE_16384BYTES: block size = 16384 bytes
 314:C:/Users/49542/Desktop/GD32F30x_Demo_Suites_V2.0.0/GD32F30x_Demo_Suites_V2.0.0/GD32F30x_Firmware_Library/GD32F30x_standard_peripheral/Source\gd32f30x_sdio.c ****     \param[out] none
 315:C:/Users/49542/Desktop/GD32F30x_Demo_Suites_V2.0.0/GD32F30x_Demo_Suites_V2.0.0/GD32F30x_Firmware_Library/GD32F30x_standard_peripheral/Source\gd32f30x_sdio.c ****     \retval     none
 316:C:/Users/49542/Desktop/GD32F30x_Demo_Suites_V2.0.0/GD32F30x_Demo_Suites_V2.0.0/GD32F30x_Firmware_Library/GD32F30x_standard_peripheral/Source\gd32f30x_sdio.c **** */
 317:C:/Users/49542/Desktop/GD32F30x_Demo_Suites_V2.0.0/GD32F30x_Demo_Suites_V2.0.0/GD32F30x_Firmware_Library/GD32F30x_standard_peripheral/Source\gd32f30x_sdio.c **** void sdio_data_config(uint32_t data_timeout, uint32_t data_length, uint32_t data_blocksize)
 318:C:/Users/49542/Desktop/GD32F30x_Demo_Suites_V2.0.0/GD32F30x_Demo_Suites_V2.0.0/GD32F30x_Firmware_Library/GD32F30x_standard_peripheral/Source\gd32f30x_sdio.c **** {
 919              		.loc 1 318 0
 920              		.cfi_startproc
 921              		@ args = 0, pretend = 0, frame = 16
 922              		@ frame_needed = 1, uses_anonymous_args = 0
 923              		@ link register save eliminated.
 924 0000 80B4     		push	{r7}
 925              	.LCFI72:
 926              		.cfi_def_cfa_offset 4
 927              		.cfi_offset 7, -4
 928 0002 85B0     		sub	sp, sp, #20
 929              	.LCFI73:
 930              		.cfi_def_cfa_offset 24
 931 0004 00AF     		add	r7, sp, #0
 932              	.LCFI74:
 933              		.cfi_def_cfa_register 7
 934 0006 F860     		str	r0, [r7, #12]
 935 0008 B960     		str	r1, [r7, #8]
 936 000a 7A60     		str	r2, [r7, #4]
 319:C:/Users/49542/Desktop/GD32F30x_Demo_Suites_V2.0.0/GD32F30x_Demo_Suites_V2.0.0/GD32F30x_Firmware_Library/GD32F30x_standard_peripheral/Source\gd32f30x_sdio.c ****     /* reset data timeout, data length and data block size */
 320:C:/Users/49542/Desktop/GD32F30x_Demo_Suites_V2.0.0/GD32F30x_Demo_Suites_V2.0.0/GD32F30x_Firmware_Library/GD32F30x_standard_peripheral/Source\gd32f30x_sdio.c ****     SDIO_DATATO &= ~SDIO_DATATO_DATATO;
 937              		.loc 1 320 0
 938 000c 114B     		ldr	r3, .L59
 939 000e 1B68     		ldr	r3, [r3]
 940 0010 104B     		ldr	r3, .L59
 941 0012 0022     		movs	r2, #0
 942 0014 1A60     		str	r2, [r3]
 321:C:/Users/49542/Desktop/GD32F30x_Demo_Suites_V2.0.0/GD32F30x_Demo_Suites_V2.0.0/GD32F30x_Firmware_Library/GD32F30x_standard_peripheral/Source\gd32f30x_sdio.c ****     SDIO_DATALEN &= ~SDIO_DATALEN_DATALEN;
 943              		.loc 1 321 0
 944 0016 104B     		ldr	r3, .L59+4
 945 0018 1B68     		ldr	r3, [r3]
 946 001a 0F4A     		ldr	r2, .L59+4
 947 001c 03F07E43 		and	r3, r3, #-33554432
 948 0020 1360     		str	r3, [r2]
 322:C:/Users/49542/Desktop/GD32F30x_Demo_Suites_V2.0.0/GD32F30x_Demo_Suites_V2.0.0/GD32F30x_Firmware_Library/GD32F30x_standard_peripheral/Source\gd32f30x_sdio.c ****     SDIO_DATACTL &= ~SDIO_DATACTL_BLKSZ;
 949              		.loc 1 322 0
 950 0022 0E4B     		ldr	r3, .L59+8
 951 0024 1B68     		ldr	r3, [r3]
 952 0026 0D4A     		ldr	r2, .L59+8
 953 0028 23F0F003 		bic	r3, r3, #240
 954 002c 1360     		str	r3, [r2]
 323:C:/Users/49542/Desktop/GD32F30x_Demo_Suites_V2.0.0/GD32F30x_Demo_Suites_V2.0.0/GD32F30x_Firmware_Library/GD32F30x_standard_peripheral/Source\gd32f30x_sdio.c ****     /* configure the related parameters of data */
 324:C:/Users/49542/Desktop/GD32F30x_Demo_Suites_V2.0.0/GD32F30x_Demo_Suites_V2.0.0/GD32F30x_Firmware_Library/GD32F30x_standard_peripheral/Source\gd32f30x_sdio.c ****     SDIO_DATATO = data_timeout;
 955              		.loc 1 324 0
 956 002e 094A     		ldr	r2, .L59
 957 0030 FB68     		ldr	r3, [r7, #12]
 958 0032 1360     		str	r3, [r2]
 325:C:/Users/49542/Desktop/GD32F30x_Demo_Suites_V2.0.0/GD32F30x_Demo_Suites_V2.0.0/GD32F30x_Firmware_Library/GD32F30x_standard_peripheral/Source\gd32f30x_sdio.c ****     SDIO_DATALEN = data_length;
 959              		.loc 1 325 0
 960 0034 084A     		ldr	r2, .L59+4
ARM GAS  C:\Users\49542\AppData\Local\Temp\ccX92vIs.s 			page 23


 961 0036 BB68     		ldr	r3, [r7, #8]
 962 0038 1360     		str	r3, [r2]
 326:C:/Users/49542/Desktop/GD32F30x_Demo_Suites_V2.0.0/GD32F30x_Demo_Suites_V2.0.0/GD32F30x_Firmware_Library/GD32F30x_standard_peripheral/Source\gd32f30x_sdio.c ****     SDIO_DATACTL |= data_blocksize;
 963              		.loc 1 326 0
 964 003a 084B     		ldr	r3, .L59+8
 965 003c 1A68     		ldr	r2, [r3]
 966 003e 0749     		ldr	r1, .L59+8
 967 0040 7B68     		ldr	r3, [r7, #4]
 968 0042 1343     		orrs	r3, r3, r2
 969 0044 0B60     		str	r3, [r1]
 327:C:/Users/49542/Desktop/GD32F30x_Demo_Suites_V2.0.0/GD32F30x_Demo_Suites_V2.0.0/GD32F30x_Firmware_Library/GD32F30x_standard_peripheral/Source\gd32f30x_sdio.c **** }
 970              		.loc 1 327 0
 971 0046 00BF     		nop
 972 0048 1437     		adds	r7, r7, #20
 973              	.LCFI75:
 974              		.cfi_def_cfa_offset 4
 975 004a BD46     		mov	sp, r7
 976              	.LCFI76:
 977              		.cfi_def_cfa_register 13
 978              		@ sp needed
 979 004c 5DF8047B 		ldr	r7, [sp], #4
 980              	.LCFI77:
 981              		.cfi_restore 7
 982              		.cfi_def_cfa_offset 0
 983 0050 7047     		bx	lr
 984              	.L60:
 985 0052 00BF     		.align	2
 986              	.L59:
 987 0054 24800140 		.word	1073840164
 988 0058 28800140 		.word	1073840168
 989 005c 2C800140 		.word	1073840172
 990              		.cfi_endproc
 991              	.LFE131:
 993              		.section	.text.sdio_data_transfer_config,"ax",%progbits
 994              		.align	1
 995              		.global	sdio_data_transfer_config
 996              		.syntax unified
 997              		.thumb
 998              		.thumb_func
 999              		.fpu fpv4-sp-d16
 1001              	sdio_data_transfer_config:
 1002              	.LFB132:
 328:C:/Users/49542/Desktop/GD32F30x_Demo_Suites_V2.0.0/GD32F30x_Demo_Suites_V2.0.0/GD32F30x_Firmware_Library/GD32F30x_standard_peripheral/Source\gd32f30x_sdio.c **** 
 329:C:/Users/49542/Desktop/GD32F30x_Demo_Suites_V2.0.0/GD32F30x_Demo_Suites_V2.0.0/GD32F30x_Firmware_Library/GD32F30x_standard_peripheral/Source\gd32f30x_sdio.c **** /*!
 330:C:/Users/49542/Desktop/GD32F30x_Demo_Suites_V2.0.0/GD32F30x_Demo_Suites_V2.0.0/GD32F30x_Firmware_Library/GD32F30x_standard_peripheral/Source\gd32f30x_sdio.c ****     \brief      configure the data transfer mode and direction
 331:C:/Users/49542/Desktop/GD32F30x_Demo_Suites_V2.0.0/GD32F30x_Demo_Suites_V2.0.0/GD32F30x_Firmware_Library/GD32F30x_standard_peripheral/Source\gd32f30x_sdio.c ****     \param[in]  transfer_mode: mode of data transfer
 332:C:/Users/49542/Desktop/GD32F30x_Demo_Suites_V2.0.0/GD32F30x_Demo_Suites_V2.0.0/GD32F30x_Firmware_Library/GD32F30x_standard_peripheral/Source\gd32f30x_sdio.c ****                 only one parameter can be selected which is shown as below:
 333:C:/Users/49542/Desktop/GD32F30x_Demo_Suites_V2.0.0/GD32F30x_Demo_Suites_V2.0.0/GD32F30x_Firmware_Library/GD32F30x_standard_peripheral/Source\gd32f30x_sdio.c ****       \arg       SDIO_TRANSMODE_BLOCK: block transfer
 334:C:/Users/49542/Desktop/GD32F30x_Demo_Suites_V2.0.0/GD32F30x_Demo_Suites_V2.0.0/GD32F30x_Firmware_Library/GD32F30x_standard_peripheral/Source\gd32f30x_sdio.c ****       \arg       SDIO_TRANSMODE_STREAM: stream transfer or SDIO multibyte transfer
 335:C:/Users/49542/Desktop/GD32F30x_Demo_Suites_V2.0.0/GD32F30x_Demo_Suites_V2.0.0/GD32F30x_Firmware_Library/GD32F30x_standard_peripheral/Source\gd32f30x_sdio.c ****     \param[in]  transfer_direction: data transfer direction, read or write
 336:C:/Users/49542/Desktop/GD32F30x_Demo_Suites_V2.0.0/GD32F30x_Demo_Suites_V2.0.0/GD32F30x_Firmware_Library/GD32F30x_standard_peripheral/Source\gd32f30x_sdio.c ****                 only one parameter can be selected which is shown as below:
 337:C:/Users/49542/Desktop/GD32F30x_Demo_Suites_V2.0.0/GD32F30x_Demo_Suites_V2.0.0/GD32F30x_Firmware_Library/GD32F30x_standard_peripheral/Source\gd32f30x_sdio.c ****       \arg       SDIO_TRANSDIRECTION_TOCARD: write data to card
 338:C:/Users/49542/Desktop/GD32F30x_Demo_Suites_V2.0.0/GD32F30x_Demo_Suites_V2.0.0/GD32F30x_Firmware_Library/GD32F30x_standard_peripheral/Source\gd32f30x_sdio.c ****       \arg       SDIO_TRANSDIRECTION_TOSDIO: read data from card
 339:C:/Users/49542/Desktop/GD32F30x_Demo_Suites_V2.0.0/GD32F30x_Demo_Suites_V2.0.0/GD32F30x_Firmware_Library/GD32F30x_standard_peripheral/Source\gd32f30x_sdio.c ****     \param[out] none
 340:C:/Users/49542/Desktop/GD32F30x_Demo_Suites_V2.0.0/GD32F30x_Demo_Suites_V2.0.0/GD32F30x_Firmware_Library/GD32F30x_standard_peripheral/Source\gd32f30x_sdio.c ****     \retval     none
 341:C:/Users/49542/Desktop/GD32F30x_Demo_Suites_V2.0.0/GD32F30x_Demo_Suites_V2.0.0/GD32F30x_Firmware_Library/GD32F30x_standard_peripheral/Source\gd32f30x_sdio.c **** */
 342:C:/Users/49542/Desktop/GD32F30x_Demo_Suites_V2.0.0/GD32F30x_Demo_Suites_V2.0.0/GD32F30x_Firmware_Library/GD32F30x_standard_peripheral/Source\gd32f30x_sdio.c **** void sdio_data_transfer_config(uint32_t transfer_mode, uint32_t transfer_direction)
ARM GAS  C:\Users\49542\AppData\Local\Temp\ccX92vIs.s 			page 24


 343:C:/Users/49542/Desktop/GD32F30x_Demo_Suites_V2.0.0/GD32F30x_Demo_Suites_V2.0.0/GD32F30x_Firmware_Library/GD32F30x_standard_peripheral/Source\gd32f30x_sdio.c **** {
 1003              		.loc 1 343 0
 1004              		.cfi_startproc
 1005              		@ args = 0, pretend = 0, frame = 16
 1006              		@ frame_needed = 1, uses_anonymous_args = 0
 1007              		@ link register save eliminated.
 1008 0000 80B4     		push	{r7}
 1009              	.LCFI78:
 1010              		.cfi_def_cfa_offset 4
 1011              		.cfi_offset 7, -4
 1012 0002 85B0     		sub	sp, sp, #20
 1013              	.LCFI79:
 1014              		.cfi_def_cfa_offset 24
 1015 0004 00AF     		add	r7, sp, #0
 1016              	.LCFI80:
 1017              		.cfi_def_cfa_register 7
 1018 0006 7860     		str	r0, [r7, #4]
 1019 0008 3960     		str	r1, [r7]
 344:C:/Users/49542/Desktop/GD32F30x_Demo_Suites_V2.0.0/GD32F30x_Demo_Suites_V2.0.0/GD32F30x_Firmware_Library/GD32F30x_standard_peripheral/Source\gd32f30x_sdio.c ****     uint32_t data_trans = 0U;
 1020              		.loc 1 344 0
 1021 000a 0023     		movs	r3, #0
 1022 000c FB60     		str	r3, [r7, #12]
 345:C:/Users/49542/Desktop/GD32F30x_Demo_Suites_V2.0.0/GD32F30x_Demo_Suites_V2.0.0/GD32F30x_Firmware_Library/GD32F30x_standard_peripheral/Source\gd32f30x_sdio.c ****     /* reset the data transfer mode, transfer direction and set according to the parameters */
 346:C:/Users/49542/Desktop/GD32F30x_Demo_Suites_V2.0.0/GD32F30x_Demo_Suites_V2.0.0/GD32F30x_Firmware_Library/GD32F30x_standard_peripheral/Source\gd32f30x_sdio.c ****     data_trans = SDIO_DATACTL;
 1023              		.loc 1 346 0
 1024 000e 0B4B     		ldr	r3, .L62
 1025 0010 1B68     		ldr	r3, [r3]
 1026 0012 FB60     		str	r3, [r7, #12]
 347:C:/Users/49542/Desktop/GD32F30x_Demo_Suites_V2.0.0/GD32F30x_Demo_Suites_V2.0.0/GD32F30x_Firmware_Library/GD32F30x_standard_peripheral/Source\gd32f30x_sdio.c ****     data_trans &= ~(SDIO_DATACTL_TRANSMOD | SDIO_DATACTL_DATADIR);
 1027              		.loc 1 347 0
 1028 0014 FB68     		ldr	r3, [r7, #12]
 1029 0016 23F00603 		bic	r3, r3, #6
 1030 001a FB60     		str	r3, [r7, #12]
 348:C:/Users/49542/Desktop/GD32F30x_Demo_Suites_V2.0.0/GD32F30x_Demo_Suites_V2.0.0/GD32F30x_Firmware_Library/GD32F30x_standard_peripheral/Source\gd32f30x_sdio.c ****     data_trans |= (transfer_mode | transfer_direction);
 1031              		.loc 1 348 0
 1032 001c 7A68     		ldr	r2, [r7, #4]
 1033 001e 3B68     		ldr	r3, [r7]
 1034 0020 1343     		orrs	r3, r3, r2
 1035 0022 FA68     		ldr	r2, [r7, #12]
 1036 0024 1343     		orrs	r3, r3, r2
 1037 0026 FB60     		str	r3, [r7, #12]
 349:C:/Users/49542/Desktop/GD32F30x_Demo_Suites_V2.0.0/GD32F30x_Demo_Suites_V2.0.0/GD32F30x_Firmware_Library/GD32F30x_standard_peripheral/Source\gd32f30x_sdio.c ****     SDIO_DATACTL = data_trans;
 1038              		.loc 1 349 0
 1039 0028 044A     		ldr	r2, .L62
 1040 002a FB68     		ldr	r3, [r7, #12]
 1041 002c 1360     		str	r3, [r2]
 350:C:/Users/49542/Desktop/GD32F30x_Demo_Suites_V2.0.0/GD32F30x_Demo_Suites_V2.0.0/GD32F30x_Firmware_Library/GD32F30x_standard_peripheral/Source\gd32f30x_sdio.c **** }
 1042              		.loc 1 350 0
 1043 002e 00BF     		nop
 1044 0030 1437     		adds	r7, r7, #20
 1045              	.LCFI81:
 1046              		.cfi_def_cfa_offset 4
 1047 0032 BD46     		mov	sp, r7
 1048              	.LCFI82:
 1049              		.cfi_def_cfa_register 13
 1050              		@ sp needed
 1051 0034 5DF8047B 		ldr	r7, [sp], #4
ARM GAS  C:\Users\49542\AppData\Local\Temp\ccX92vIs.s 			page 25


 1052              	.LCFI83:
 1053              		.cfi_restore 7
 1054              		.cfi_def_cfa_offset 0
 1055 0038 7047     		bx	lr
 1056              	.L63:
 1057 003a 00BF     		.align	2
 1058              	.L62:
 1059 003c 2C800140 		.word	1073840172
 1060              		.cfi_endproc
 1061              	.LFE132:
 1063              		.section	.text.sdio_dsm_enable,"ax",%progbits
 1064              		.align	1
 1065              		.global	sdio_dsm_enable
 1066              		.syntax unified
 1067              		.thumb
 1068              		.thumb_func
 1069              		.fpu fpv4-sp-d16
 1071              	sdio_dsm_enable:
 1072              	.LFB133:
 351:C:/Users/49542/Desktop/GD32F30x_Demo_Suites_V2.0.0/GD32F30x_Demo_Suites_V2.0.0/GD32F30x_Firmware_Library/GD32F30x_standard_peripheral/Source\gd32f30x_sdio.c **** 
 352:C:/Users/49542/Desktop/GD32F30x_Demo_Suites_V2.0.0/GD32F30x_Demo_Suites_V2.0.0/GD32F30x_Firmware_Library/GD32F30x_standard_peripheral/Source\gd32f30x_sdio.c **** /*!
 353:C:/Users/49542/Desktop/GD32F30x_Demo_Suites_V2.0.0/GD32F30x_Demo_Suites_V2.0.0/GD32F30x_Firmware_Library/GD32F30x_standard_peripheral/Source\gd32f30x_sdio.c ****     \brief      enable the DSM(data state machine) for data transfer
 354:C:/Users/49542/Desktop/GD32F30x_Demo_Suites_V2.0.0/GD32F30x_Demo_Suites_V2.0.0/GD32F30x_Firmware_Library/GD32F30x_standard_peripheral/Source\gd32f30x_sdio.c ****     \param[in]  none
 355:C:/Users/49542/Desktop/GD32F30x_Demo_Suites_V2.0.0/GD32F30x_Demo_Suites_V2.0.0/GD32F30x_Firmware_Library/GD32F30x_standard_peripheral/Source\gd32f30x_sdio.c ****     \param[out] none
 356:C:/Users/49542/Desktop/GD32F30x_Demo_Suites_V2.0.0/GD32F30x_Demo_Suites_V2.0.0/GD32F30x_Firmware_Library/GD32F30x_standard_peripheral/Source\gd32f30x_sdio.c ****     \retval     none
 357:C:/Users/49542/Desktop/GD32F30x_Demo_Suites_V2.0.0/GD32F30x_Demo_Suites_V2.0.0/GD32F30x_Firmware_Library/GD32F30x_standard_peripheral/Source\gd32f30x_sdio.c **** */
 358:C:/Users/49542/Desktop/GD32F30x_Demo_Suites_V2.0.0/GD32F30x_Demo_Suites_V2.0.0/GD32F30x_Firmware_Library/GD32F30x_standard_peripheral/Source\gd32f30x_sdio.c **** void sdio_dsm_enable(void)
 359:C:/Users/49542/Desktop/GD32F30x_Demo_Suites_V2.0.0/GD32F30x_Demo_Suites_V2.0.0/GD32F30x_Firmware_Library/GD32F30x_standard_peripheral/Source\gd32f30x_sdio.c **** {
 1073              		.loc 1 359 0
 1074              		.cfi_startproc
 1075              		@ args = 0, pretend = 0, frame = 0
 1076              		@ frame_needed = 1, uses_anonymous_args = 0
 1077              		@ link register save eliminated.
 1078 0000 80B4     		push	{r7}
 1079              	.LCFI84:
 1080              		.cfi_def_cfa_offset 4
 1081              		.cfi_offset 7, -4
 1082 0002 00AF     		add	r7, sp, #0
 1083              	.LCFI85:
 1084              		.cfi_def_cfa_register 7
 360:C:/Users/49542/Desktop/GD32F30x_Demo_Suites_V2.0.0/GD32F30x_Demo_Suites_V2.0.0/GD32F30x_Firmware_Library/GD32F30x_standard_peripheral/Source\gd32f30x_sdio.c ****     SDIO_DATACTL |= SDIO_DATACTL_DATAEN;
 1085              		.loc 1 360 0
 1086 0004 054B     		ldr	r3, .L65
 1087 0006 1B68     		ldr	r3, [r3]
 1088 0008 044A     		ldr	r2, .L65
 1089 000a 43F00103 		orr	r3, r3, #1
 1090 000e 1360     		str	r3, [r2]
 361:C:/Users/49542/Desktop/GD32F30x_Demo_Suites_V2.0.0/GD32F30x_Demo_Suites_V2.0.0/GD32F30x_Firmware_Library/GD32F30x_standard_peripheral/Source\gd32f30x_sdio.c **** }
 1091              		.loc 1 361 0
 1092 0010 00BF     		nop
 1093 0012 BD46     		mov	sp, r7
 1094              	.LCFI86:
 1095              		.cfi_def_cfa_register 13
 1096              		@ sp needed
 1097 0014 5DF8047B 		ldr	r7, [sp], #4
 1098              	.LCFI87:
 1099              		.cfi_restore 7
ARM GAS  C:\Users\49542\AppData\Local\Temp\ccX92vIs.s 			page 26


 1100              		.cfi_def_cfa_offset 0
 1101 0018 7047     		bx	lr
 1102              	.L66:
 1103 001a 00BF     		.align	2
 1104              	.L65:
 1105 001c 2C800140 		.word	1073840172
 1106              		.cfi_endproc
 1107              	.LFE133:
 1109              		.section	.text.sdio_dsm_disable,"ax",%progbits
 1110              		.align	1
 1111              		.global	sdio_dsm_disable
 1112              		.syntax unified
 1113              		.thumb
 1114              		.thumb_func
 1115              		.fpu fpv4-sp-d16
 1117              	sdio_dsm_disable:
 1118              	.LFB134:
 362:C:/Users/49542/Desktop/GD32F30x_Demo_Suites_V2.0.0/GD32F30x_Demo_Suites_V2.0.0/GD32F30x_Firmware_Library/GD32F30x_standard_peripheral/Source\gd32f30x_sdio.c **** 
 363:C:/Users/49542/Desktop/GD32F30x_Demo_Suites_V2.0.0/GD32F30x_Demo_Suites_V2.0.0/GD32F30x_Firmware_Library/GD32F30x_standard_peripheral/Source\gd32f30x_sdio.c **** /*!
 364:C:/Users/49542/Desktop/GD32F30x_Demo_Suites_V2.0.0/GD32F30x_Demo_Suites_V2.0.0/GD32F30x_Firmware_Library/GD32F30x_standard_peripheral/Source\gd32f30x_sdio.c ****     \brief      disable the DSM(data state machine)
 365:C:/Users/49542/Desktop/GD32F30x_Demo_Suites_V2.0.0/GD32F30x_Demo_Suites_V2.0.0/GD32F30x_Firmware_Library/GD32F30x_standard_peripheral/Source\gd32f30x_sdio.c ****     \param[in]  none
 366:C:/Users/49542/Desktop/GD32F30x_Demo_Suites_V2.0.0/GD32F30x_Demo_Suites_V2.0.0/GD32F30x_Firmware_Library/GD32F30x_standard_peripheral/Source\gd32f30x_sdio.c ****     \param[out] none
 367:C:/Users/49542/Desktop/GD32F30x_Demo_Suites_V2.0.0/GD32F30x_Demo_Suites_V2.0.0/GD32F30x_Firmware_Library/GD32F30x_standard_peripheral/Source\gd32f30x_sdio.c ****     \retval     none
 368:C:/Users/49542/Desktop/GD32F30x_Demo_Suites_V2.0.0/GD32F30x_Demo_Suites_V2.0.0/GD32F30x_Firmware_Library/GD32F30x_standard_peripheral/Source\gd32f30x_sdio.c **** */
 369:C:/Users/49542/Desktop/GD32F30x_Demo_Suites_V2.0.0/GD32F30x_Demo_Suites_V2.0.0/GD32F30x_Firmware_Library/GD32F30x_standard_peripheral/Source\gd32f30x_sdio.c **** void sdio_dsm_disable(void)
 370:C:/Users/49542/Desktop/GD32F30x_Demo_Suites_V2.0.0/GD32F30x_Demo_Suites_V2.0.0/GD32F30x_Firmware_Library/GD32F30x_standard_peripheral/Source\gd32f30x_sdio.c **** {
 1119              		.loc 1 370 0
 1120              		.cfi_startproc
 1121              		@ args = 0, pretend = 0, frame = 0
 1122              		@ frame_needed = 1, uses_anonymous_args = 0
 1123              		@ link register save eliminated.
 1124 0000 80B4     		push	{r7}
 1125              	.LCFI88:
 1126              		.cfi_def_cfa_offset 4
 1127              		.cfi_offset 7, -4
 1128 0002 00AF     		add	r7, sp, #0
 1129              	.LCFI89:
 1130              		.cfi_def_cfa_register 7
 371:C:/Users/49542/Desktop/GD32F30x_Demo_Suites_V2.0.0/GD32F30x_Demo_Suites_V2.0.0/GD32F30x_Firmware_Library/GD32F30x_standard_peripheral/Source\gd32f30x_sdio.c ****     SDIO_DATACTL &= ~SDIO_DATACTL_DATAEN;
 1131              		.loc 1 371 0
 1132 0004 054B     		ldr	r3, .L68
 1133 0006 1B68     		ldr	r3, [r3]
 1134 0008 044A     		ldr	r2, .L68
 1135 000a 23F00103 		bic	r3, r3, #1
 1136 000e 1360     		str	r3, [r2]
 372:C:/Users/49542/Desktop/GD32F30x_Demo_Suites_V2.0.0/GD32F30x_Demo_Suites_V2.0.0/GD32F30x_Firmware_Library/GD32F30x_standard_peripheral/Source\gd32f30x_sdio.c **** }
 1137              		.loc 1 372 0
 1138 0010 00BF     		nop
 1139 0012 BD46     		mov	sp, r7
 1140              	.LCFI90:
 1141              		.cfi_def_cfa_register 13
 1142              		@ sp needed
 1143 0014 5DF8047B 		ldr	r7, [sp], #4
 1144              	.LCFI91:
 1145              		.cfi_restore 7
 1146              		.cfi_def_cfa_offset 0
 1147 0018 7047     		bx	lr
ARM GAS  C:\Users\49542\AppData\Local\Temp\ccX92vIs.s 			page 27


 1148              	.L69:
 1149 001a 00BF     		.align	2
 1150              	.L68:
 1151 001c 2C800140 		.word	1073840172
 1152              		.cfi_endproc
 1153              	.LFE134:
 1155              		.section	.text.sdio_data_write,"ax",%progbits
 1156              		.align	1
 1157              		.global	sdio_data_write
 1158              		.syntax unified
 1159              		.thumb
 1160              		.thumb_func
 1161              		.fpu fpv4-sp-d16
 1163              	sdio_data_write:
 1164              	.LFB135:
 373:C:/Users/49542/Desktop/GD32F30x_Demo_Suites_V2.0.0/GD32F30x_Demo_Suites_V2.0.0/GD32F30x_Firmware_Library/GD32F30x_standard_peripheral/Source\gd32f30x_sdio.c **** 
 374:C:/Users/49542/Desktop/GD32F30x_Demo_Suites_V2.0.0/GD32F30x_Demo_Suites_V2.0.0/GD32F30x_Firmware_Library/GD32F30x_standard_peripheral/Source\gd32f30x_sdio.c **** /*!
 375:C:/Users/49542/Desktop/GD32F30x_Demo_Suites_V2.0.0/GD32F30x_Demo_Suites_V2.0.0/GD32F30x_Firmware_Library/GD32F30x_standard_peripheral/Source\gd32f30x_sdio.c ****     \brief      write data(one word) to the transmit FIFO
 376:C:/Users/49542/Desktop/GD32F30x_Demo_Suites_V2.0.0/GD32F30x_Demo_Suites_V2.0.0/GD32F30x_Firmware_Library/GD32F30x_standard_peripheral/Source\gd32f30x_sdio.c ****     \param[in]  data: 32-bit data write to card
 377:C:/Users/49542/Desktop/GD32F30x_Demo_Suites_V2.0.0/GD32F30x_Demo_Suites_V2.0.0/GD32F30x_Firmware_Library/GD32F30x_standard_peripheral/Source\gd32f30x_sdio.c ****     \param[out] none
 378:C:/Users/49542/Desktop/GD32F30x_Demo_Suites_V2.0.0/GD32F30x_Demo_Suites_V2.0.0/GD32F30x_Firmware_Library/GD32F30x_standard_peripheral/Source\gd32f30x_sdio.c ****     \retval     none
 379:C:/Users/49542/Desktop/GD32F30x_Demo_Suites_V2.0.0/GD32F30x_Demo_Suites_V2.0.0/GD32F30x_Firmware_Library/GD32F30x_standard_peripheral/Source\gd32f30x_sdio.c **** */
 380:C:/Users/49542/Desktop/GD32F30x_Demo_Suites_V2.0.0/GD32F30x_Demo_Suites_V2.0.0/GD32F30x_Firmware_Library/GD32F30x_standard_peripheral/Source\gd32f30x_sdio.c **** void sdio_data_write(uint32_t data)
 381:C:/Users/49542/Desktop/GD32F30x_Demo_Suites_V2.0.0/GD32F30x_Demo_Suites_V2.0.0/GD32F30x_Firmware_Library/GD32F30x_standard_peripheral/Source\gd32f30x_sdio.c **** {
 1165              		.loc 1 381 0
 1166              		.cfi_startproc
 1167              		@ args = 0, pretend = 0, frame = 8
 1168              		@ frame_needed = 1, uses_anonymous_args = 0
 1169              		@ link register save eliminated.
 1170 0000 80B4     		push	{r7}
 1171              	.LCFI92:
 1172              		.cfi_def_cfa_offset 4
 1173              		.cfi_offset 7, -4
 1174 0002 83B0     		sub	sp, sp, #12
 1175              	.LCFI93:
 1176              		.cfi_def_cfa_offset 16
 1177 0004 00AF     		add	r7, sp, #0
 1178              	.LCFI94:
 1179              		.cfi_def_cfa_register 7
 1180 0006 7860     		str	r0, [r7, #4]
 382:C:/Users/49542/Desktop/GD32F30x_Demo_Suites_V2.0.0/GD32F30x_Demo_Suites_V2.0.0/GD32F30x_Firmware_Library/GD32F30x_standard_peripheral/Source\gd32f30x_sdio.c ****     SDIO_FIFO = data;
 1181              		.loc 1 382 0
 1182 0008 044A     		ldr	r2, .L71
 1183 000a 7B68     		ldr	r3, [r7, #4]
 1184 000c 1360     		str	r3, [r2]
 383:C:/Users/49542/Desktop/GD32F30x_Demo_Suites_V2.0.0/GD32F30x_Demo_Suites_V2.0.0/GD32F30x_Firmware_Library/GD32F30x_standard_peripheral/Source\gd32f30x_sdio.c **** }
 1185              		.loc 1 383 0
 1186 000e 00BF     		nop
 1187 0010 0C37     		adds	r7, r7, #12
 1188              	.LCFI95:
 1189              		.cfi_def_cfa_offset 4
 1190 0012 BD46     		mov	sp, r7
 1191              	.LCFI96:
 1192              		.cfi_def_cfa_register 13
 1193              		@ sp needed
 1194 0014 5DF8047B 		ldr	r7, [sp], #4
 1195              	.LCFI97:
ARM GAS  C:\Users\49542\AppData\Local\Temp\ccX92vIs.s 			page 28


 1196              		.cfi_restore 7
 1197              		.cfi_def_cfa_offset 0
 1198 0018 7047     		bx	lr
 1199              	.L72:
 1200 001a 00BF     		.align	2
 1201              	.L71:
 1202 001c 80800140 		.word	1073840256
 1203              		.cfi_endproc
 1204              	.LFE135:
 1206              		.section	.text.sdio_data_read,"ax",%progbits
 1207              		.align	1
 1208              		.global	sdio_data_read
 1209              		.syntax unified
 1210              		.thumb
 1211              		.thumb_func
 1212              		.fpu fpv4-sp-d16
 1214              	sdio_data_read:
 1215              	.LFB136:
 384:C:/Users/49542/Desktop/GD32F30x_Demo_Suites_V2.0.0/GD32F30x_Demo_Suites_V2.0.0/GD32F30x_Firmware_Library/GD32F30x_standard_peripheral/Source\gd32f30x_sdio.c **** 
 385:C:/Users/49542/Desktop/GD32F30x_Demo_Suites_V2.0.0/GD32F30x_Demo_Suites_V2.0.0/GD32F30x_Firmware_Library/GD32F30x_standard_peripheral/Source\gd32f30x_sdio.c **** /*!
 386:C:/Users/49542/Desktop/GD32F30x_Demo_Suites_V2.0.0/GD32F30x_Demo_Suites_V2.0.0/GD32F30x_Firmware_Library/GD32F30x_standard_peripheral/Source\gd32f30x_sdio.c ****     \brief      read data(one word) from the receive FIFO
 387:C:/Users/49542/Desktop/GD32F30x_Demo_Suites_V2.0.0/GD32F30x_Demo_Suites_V2.0.0/GD32F30x_Firmware_Library/GD32F30x_standard_peripheral/Source\gd32f30x_sdio.c ****     \param[in]  none
 388:C:/Users/49542/Desktop/GD32F30x_Demo_Suites_V2.0.0/GD32F30x_Demo_Suites_V2.0.0/GD32F30x_Firmware_Library/GD32F30x_standard_peripheral/Source\gd32f30x_sdio.c ****     \param[out] none
 389:C:/Users/49542/Desktop/GD32F30x_Demo_Suites_V2.0.0/GD32F30x_Demo_Suites_V2.0.0/GD32F30x_Firmware_Library/GD32F30x_standard_peripheral/Source\gd32f30x_sdio.c ****     \retval     received data
 390:C:/Users/49542/Desktop/GD32F30x_Demo_Suites_V2.0.0/GD32F30x_Demo_Suites_V2.0.0/GD32F30x_Firmware_Library/GD32F30x_standard_peripheral/Source\gd32f30x_sdio.c **** */
 391:C:/Users/49542/Desktop/GD32F30x_Demo_Suites_V2.0.0/GD32F30x_Demo_Suites_V2.0.0/GD32F30x_Firmware_Library/GD32F30x_standard_peripheral/Source\gd32f30x_sdio.c **** uint32_t sdio_data_read(void)
 392:C:/Users/49542/Desktop/GD32F30x_Demo_Suites_V2.0.0/GD32F30x_Demo_Suites_V2.0.0/GD32F30x_Firmware_Library/GD32F30x_standard_peripheral/Source\gd32f30x_sdio.c **** {
 1216              		.loc 1 392 0
 1217              		.cfi_startproc
 1218              		@ args = 0, pretend = 0, frame = 0
 1219              		@ frame_needed = 1, uses_anonymous_args = 0
 1220              		@ link register save eliminated.
 1221 0000 80B4     		push	{r7}
 1222              	.LCFI98:
 1223              		.cfi_def_cfa_offset 4
 1224              		.cfi_offset 7, -4
 1225 0002 00AF     		add	r7, sp, #0
 1226              	.LCFI99:
 1227              		.cfi_def_cfa_register 7
 393:C:/Users/49542/Desktop/GD32F30x_Demo_Suites_V2.0.0/GD32F30x_Demo_Suites_V2.0.0/GD32F30x_Firmware_Library/GD32F30x_standard_peripheral/Source\gd32f30x_sdio.c ****     return SDIO_FIFO;
 1228              		.loc 1 393 0
 1229 0004 034B     		ldr	r3, .L75
 1230 0006 1B68     		ldr	r3, [r3]
 394:C:/Users/49542/Desktop/GD32F30x_Demo_Suites_V2.0.0/GD32F30x_Demo_Suites_V2.0.0/GD32F30x_Firmware_Library/GD32F30x_standard_peripheral/Source\gd32f30x_sdio.c **** }
 1231              		.loc 1 394 0
 1232 0008 1846     		mov	r0, r3
 1233 000a BD46     		mov	sp, r7
 1234              	.LCFI100:
 1235              		.cfi_def_cfa_register 13
 1236              		@ sp needed
 1237 000c 5DF8047B 		ldr	r7, [sp], #4
 1238              	.LCFI101:
 1239              		.cfi_restore 7
 1240              		.cfi_def_cfa_offset 0
 1241 0010 7047     		bx	lr
 1242              	.L76:
 1243 0012 00BF     		.align	2
ARM GAS  C:\Users\49542\AppData\Local\Temp\ccX92vIs.s 			page 29


 1244              	.L75:
 1245 0014 80800140 		.word	1073840256
 1246              		.cfi_endproc
 1247              	.LFE136:
 1249              		.section	.text.sdio_data_counter_get,"ax",%progbits
 1250              		.align	1
 1251              		.global	sdio_data_counter_get
 1252              		.syntax unified
 1253              		.thumb
 1254              		.thumb_func
 1255              		.fpu fpv4-sp-d16
 1257              	sdio_data_counter_get:
 1258              	.LFB137:
 395:C:/Users/49542/Desktop/GD32F30x_Demo_Suites_V2.0.0/GD32F30x_Demo_Suites_V2.0.0/GD32F30x_Firmware_Library/GD32F30x_standard_peripheral/Source\gd32f30x_sdio.c **** 
 396:C:/Users/49542/Desktop/GD32F30x_Demo_Suites_V2.0.0/GD32F30x_Demo_Suites_V2.0.0/GD32F30x_Firmware_Library/GD32F30x_standard_peripheral/Source\gd32f30x_sdio.c **** /*!
 397:C:/Users/49542/Desktop/GD32F30x_Demo_Suites_V2.0.0/GD32F30x_Demo_Suites_V2.0.0/GD32F30x_Firmware_Library/GD32F30x_standard_peripheral/Source\gd32f30x_sdio.c ****     \brief      get the number of remaining data bytes to be transferred to card
 398:C:/Users/49542/Desktop/GD32F30x_Demo_Suites_V2.0.0/GD32F30x_Demo_Suites_V2.0.0/GD32F30x_Firmware_Library/GD32F30x_standard_peripheral/Source\gd32f30x_sdio.c ****     \param[in]  none
 399:C:/Users/49542/Desktop/GD32F30x_Demo_Suites_V2.0.0/GD32F30x_Demo_Suites_V2.0.0/GD32F30x_Firmware_Library/GD32F30x_standard_peripheral/Source\gd32f30x_sdio.c ****     \param[out] none
 400:C:/Users/49542/Desktop/GD32F30x_Demo_Suites_V2.0.0/GD32F30x_Demo_Suites_V2.0.0/GD32F30x_Firmware_Library/GD32F30x_standard_peripheral/Source\gd32f30x_sdio.c ****     \retval     number of remaining data bytes to be transferred
 401:C:/Users/49542/Desktop/GD32F30x_Demo_Suites_V2.0.0/GD32F30x_Demo_Suites_V2.0.0/GD32F30x_Firmware_Library/GD32F30x_standard_peripheral/Source\gd32f30x_sdio.c **** */
 402:C:/Users/49542/Desktop/GD32F30x_Demo_Suites_V2.0.0/GD32F30x_Demo_Suites_V2.0.0/GD32F30x_Firmware_Library/GD32F30x_standard_peripheral/Source\gd32f30x_sdio.c **** uint32_t sdio_data_counter_get(void)
 403:C:/Users/49542/Desktop/GD32F30x_Demo_Suites_V2.0.0/GD32F30x_Demo_Suites_V2.0.0/GD32F30x_Firmware_Library/GD32F30x_standard_peripheral/Source\gd32f30x_sdio.c **** {
 1259              		.loc 1 403 0
 1260              		.cfi_startproc
 1261              		@ args = 0, pretend = 0, frame = 0
 1262              		@ frame_needed = 1, uses_anonymous_args = 0
 1263              		@ link register save eliminated.
 1264 0000 80B4     		push	{r7}
 1265              	.LCFI102:
 1266              		.cfi_def_cfa_offset 4
 1267              		.cfi_offset 7, -4
 1268 0002 00AF     		add	r7, sp, #0
 1269              	.LCFI103:
 1270              		.cfi_def_cfa_register 7
 404:C:/Users/49542/Desktop/GD32F30x_Demo_Suites_V2.0.0/GD32F30x_Demo_Suites_V2.0.0/GD32F30x_Firmware_Library/GD32F30x_standard_peripheral/Source\gd32f30x_sdio.c ****     return SDIO_DATACNT;
 1271              		.loc 1 404 0
 1272 0004 034B     		ldr	r3, .L79
 1273 0006 1B68     		ldr	r3, [r3]
 405:C:/Users/49542/Desktop/GD32F30x_Demo_Suites_V2.0.0/GD32F30x_Demo_Suites_V2.0.0/GD32F30x_Firmware_Library/GD32F30x_standard_peripheral/Source\gd32f30x_sdio.c **** }
 1274              		.loc 1 405 0
 1275 0008 1846     		mov	r0, r3
 1276 000a BD46     		mov	sp, r7
 1277              	.LCFI104:
 1278              		.cfi_def_cfa_register 13
 1279              		@ sp needed
 1280 000c 5DF8047B 		ldr	r7, [sp], #4
 1281              	.LCFI105:
 1282              		.cfi_restore 7
 1283              		.cfi_def_cfa_offset 0
 1284 0010 7047     		bx	lr
 1285              	.L80:
 1286 0012 00BF     		.align	2
 1287              	.L79:
 1288 0014 30800140 		.word	1073840176
 1289              		.cfi_endproc
 1290              	.LFE137:
 1292              		.section	.text.sdio_fifo_counter_get,"ax",%progbits
ARM GAS  C:\Users\49542\AppData\Local\Temp\ccX92vIs.s 			page 30


 1293              		.align	1
 1294              		.global	sdio_fifo_counter_get
 1295              		.syntax unified
 1296              		.thumb
 1297              		.thumb_func
 1298              		.fpu fpv4-sp-d16
 1300              	sdio_fifo_counter_get:
 1301              	.LFB138:
 406:C:/Users/49542/Desktop/GD32F30x_Demo_Suites_V2.0.0/GD32F30x_Demo_Suites_V2.0.0/GD32F30x_Firmware_Library/GD32F30x_standard_peripheral/Source\gd32f30x_sdio.c **** 
 407:C:/Users/49542/Desktop/GD32F30x_Demo_Suites_V2.0.0/GD32F30x_Demo_Suites_V2.0.0/GD32F30x_Firmware_Library/GD32F30x_standard_peripheral/Source\gd32f30x_sdio.c **** /*!
 408:C:/Users/49542/Desktop/GD32F30x_Demo_Suites_V2.0.0/GD32F30x_Demo_Suites_V2.0.0/GD32F30x_Firmware_Library/GD32F30x_standard_peripheral/Source\gd32f30x_sdio.c ****     \brief      get the number of words remaining to be written or read from FIFO
 409:C:/Users/49542/Desktop/GD32F30x_Demo_Suites_V2.0.0/GD32F30x_Demo_Suites_V2.0.0/GD32F30x_Firmware_Library/GD32F30x_standard_peripheral/Source\gd32f30x_sdio.c ****     \param[in]  none
 410:C:/Users/49542/Desktop/GD32F30x_Demo_Suites_V2.0.0/GD32F30x_Demo_Suites_V2.0.0/GD32F30x_Firmware_Library/GD32F30x_standard_peripheral/Source\gd32f30x_sdio.c ****     \param[out] none
 411:C:/Users/49542/Desktop/GD32F30x_Demo_Suites_V2.0.0/GD32F30x_Demo_Suites_V2.0.0/GD32F30x_Firmware_Library/GD32F30x_standard_peripheral/Source\gd32f30x_sdio.c ****     \retval     remaining number of words
 412:C:/Users/49542/Desktop/GD32F30x_Demo_Suites_V2.0.0/GD32F30x_Demo_Suites_V2.0.0/GD32F30x_Firmware_Library/GD32F30x_standard_peripheral/Source\gd32f30x_sdio.c **** */
 413:C:/Users/49542/Desktop/GD32F30x_Demo_Suites_V2.0.0/GD32F30x_Demo_Suites_V2.0.0/GD32F30x_Firmware_Library/GD32F30x_standard_peripheral/Source\gd32f30x_sdio.c **** uint32_t sdio_fifo_counter_get(void)
 414:C:/Users/49542/Desktop/GD32F30x_Demo_Suites_V2.0.0/GD32F30x_Demo_Suites_V2.0.0/GD32F30x_Firmware_Library/GD32F30x_standard_peripheral/Source\gd32f30x_sdio.c **** {
 1302              		.loc 1 414 0
 1303              		.cfi_startproc
 1304              		@ args = 0, pretend = 0, frame = 0
 1305              		@ frame_needed = 1, uses_anonymous_args = 0
 1306              		@ link register save eliminated.
 1307 0000 80B4     		push	{r7}
 1308              	.LCFI106:
 1309              		.cfi_def_cfa_offset 4
 1310              		.cfi_offset 7, -4
 1311 0002 00AF     		add	r7, sp, #0
 1312              	.LCFI107:
 1313              		.cfi_def_cfa_register 7
 415:C:/Users/49542/Desktop/GD32F30x_Demo_Suites_V2.0.0/GD32F30x_Demo_Suites_V2.0.0/GD32F30x_Firmware_Library/GD32F30x_standard_peripheral/Source\gd32f30x_sdio.c ****     return SDIO_FIFOCNT;
 1314              		.loc 1 415 0
 1315 0004 034B     		ldr	r3, .L83
 1316 0006 1B68     		ldr	r3, [r3]
 416:C:/Users/49542/Desktop/GD32F30x_Demo_Suites_V2.0.0/GD32F30x_Demo_Suites_V2.0.0/GD32F30x_Firmware_Library/GD32F30x_standard_peripheral/Source\gd32f30x_sdio.c **** }
 1317              		.loc 1 416 0
 1318 0008 1846     		mov	r0, r3
 1319 000a BD46     		mov	sp, r7
 1320              	.LCFI108:
 1321              		.cfi_def_cfa_register 13
 1322              		@ sp needed
 1323 000c 5DF8047B 		ldr	r7, [sp], #4
 1324              	.LCFI109:
 1325              		.cfi_restore 7
 1326              		.cfi_def_cfa_offset 0
 1327 0010 7047     		bx	lr
 1328              	.L84:
 1329 0012 00BF     		.align	2
 1330              	.L83:
 1331 0014 48800140 		.word	1073840200
 1332              		.cfi_endproc
 1333              	.LFE138:
 1335              		.section	.text.sdio_dma_enable,"ax",%progbits
 1336              		.align	1
 1337              		.global	sdio_dma_enable
 1338              		.syntax unified
 1339              		.thumb
 1340              		.thumb_func
ARM GAS  C:\Users\49542\AppData\Local\Temp\ccX92vIs.s 			page 31


 1341              		.fpu fpv4-sp-d16
 1343              	sdio_dma_enable:
 1344              	.LFB139:
 417:C:/Users/49542/Desktop/GD32F30x_Demo_Suites_V2.0.0/GD32F30x_Demo_Suites_V2.0.0/GD32F30x_Firmware_Library/GD32F30x_standard_peripheral/Source\gd32f30x_sdio.c **** 
 418:C:/Users/49542/Desktop/GD32F30x_Demo_Suites_V2.0.0/GD32F30x_Demo_Suites_V2.0.0/GD32F30x_Firmware_Library/GD32F30x_standard_peripheral/Source\gd32f30x_sdio.c **** /*!
 419:C:/Users/49542/Desktop/GD32F30x_Demo_Suites_V2.0.0/GD32F30x_Demo_Suites_V2.0.0/GD32F30x_Firmware_Library/GD32F30x_standard_peripheral/Source\gd32f30x_sdio.c ****     \brief      enable the DMA request for SDIO
 420:C:/Users/49542/Desktop/GD32F30x_Demo_Suites_V2.0.0/GD32F30x_Demo_Suites_V2.0.0/GD32F30x_Firmware_Library/GD32F30x_standard_peripheral/Source\gd32f30x_sdio.c ****     \param[in]  none
 421:C:/Users/49542/Desktop/GD32F30x_Demo_Suites_V2.0.0/GD32F30x_Demo_Suites_V2.0.0/GD32F30x_Firmware_Library/GD32F30x_standard_peripheral/Source\gd32f30x_sdio.c ****     \param[out] none
 422:C:/Users/49542/Desktop/GD32F30x_Demo_Suites_V2.0.0/GD32F30x_Demo_Suites_V2.0.0/GD32F30x_Firmware_Library/GD32F30x_standard_peripheral/Source\gd32f30x_sdio.c ****     \retval     none
 423:C:/Users/49542/Desktop/GD32F30x_Demo_Suites_V2.0.0/GD32F30x_Demo_Suites_V2.0.0/GD32F30x_Firmware_Library/GD32F30x_standard_peripheral/Source\gd32f30x_sdio.c **** */
 424:C:/Users/49542/Desktop/GD32F30x_Demo_Suites_V2.0.0/GD32F30x_Demo_Suites_V2.0.0/GD32F30x_Firmware_Library/GD32F30x_standard_peripheral/Source\gd32f30x_sdio.c **** void sdio_dma_enable(void)
 425:C:/Users/49542/Desktop/GD32F30x_Demo_Suites_V2.0.0/GD32F30x_Demo_Suites_V2.0.0/GD32F30x_Firmware_Library/GD32F30x_standard_peripheral/Source\gd32f30x_sdio.c **** {
 1345              		.loc 1 425 0
 1346              		.cfi_startproc
 1347              		@ args = 0, pretend = 0, frame = 0
 1348              		@ frame_needed = 1, uses_anonymous_args = 0
 1349              		@ link register save eliminated.
 1350 0000 80B4     		push	{r7}
 1351              	.LCFI110:
 1352              		.cfi_def_cfa_offset 4
 1353              		.cfi_offset 7, -4
 1354 0002 00AF     		add	r7, sp, #0
 1355              	.LCFI111:
 1356              		.cfi_def_cfa_register 7
 426:C:/Users/49542/Desktop/GD32F30x_Demo_Suites_V2.0.0/GD32F30x_Demo_Suites_V2.0.0/GD32F30x_Firmware_Library/GD32F30x_standard_peripheral/Source\gd32f30x_sdio.c ****     SDIO_DATACTL |= SDIO_DATACTL_DMAEN;
 1357              		.loc 1 426 0
 1358 0004 054B     		ldr	r3, .L86
 1359 0006 1B68     		ldr	r3, [r3]
 1360 0008 044A     		ldr	r2, .L86
 1361 000a 43F00803 		orr	r3, r3, #8
 1362 000e 1360     		str	r3, [r2]
 427:C:/Users/49542/Desktop/GD32F30x_Demo_Suites_V2.0.0/GD32F30x_Demo_Suites_V2.0.0/GD32F30x_Firmware_Library/GD32F30x_standard_peripheral/Source\gd32f30x_sdio.c **** }
 1363              		.loc 1 427 0
 1364 0010 00BF     		nop
 1365 0012 BD46     		mov	sp, r7
 1366              	.LCFI112:
 1367              		.cfi_def_cfa_register 13
 1368              		@ sp needed
 1369 0014 5DF8047B 		ldr	r7, [sp], #4
 1370              	.LCFI113:
 1371              		.cfi_restore 7
 1372              		.cfi_def_cfa_offset 0
 1373 0018 7047     		bx	lr
 1374              	.L87:
 1375 001a 00BF     		.align	2
 1376              	.L86:
 1377 001c 2C800140 		.word	1073840172
 1378              		.cfi_endproc
 1379              	.LFE139:
 1381              		.section	.text.sdio_dma_disable,"ax",%progbits
 1382              		.align	1
 1383              		.global	sdio_dma_disable
 1384              		.syntax unified
 1385              		.thumb
 1386              		.thumb_func
 1387              		.fpu fpv4-sp-d16
 1389              	sdio_dma_disable:
ARM GAS  C:\Users\49542\AppData\Local\Temp\ccX92vIs.s 			page 32


 1390              	.LFB140:
 428:C:/Users/49542/Desktop/GD32F30x_Demo_Suites_V2.0.0/GD32F30x_Demo_Suites_V2.0.0/GD32F30x_Firmware_Library/GD32F30x_standard_peripheral/Source\gd32f30x_sdio.c **** 
 429:C:/Users/49542/Desktop/GD32F30x_Demo_Suites_V2.0.0/GD32F30x_Demo_Suites_V2.0.0/GD32F30x_Firmware_Library/GD32F30x_standard_peripheral/Source\gd32f30x_sdio.c **** /*!
 430:C:/Users/49542/Desktop/GD32F30x_Demo_Suites_V2.0.0/GD32F30x_Demo_Suites_V2.0.0/GD32F30x_Firmware_Library/GD32F30x_standard_peripheral/Source\gd32f30x_sdio.c ****     \brief      disable the DMA request for SDIO
 431:C:/Users/49542/Desktop/GD32F30x_Demo_Suites_V2.0.0/GD32F30x_Demo_Suites_V2.0.0/GD32F30x_Firmware_Library/GD32F30x_standard_peripheral/Source\gd32f30x_sdio.c ****     \param[in]  none
 432:C:/Users/49542/Desktop/GD32F30x_Demo_Suites_V2.0.0/GD32F30x_Demo_Suites_V2.0.0/GD32F30x_Firmware_Library/GD32F30x_standard_peripheral/Source\gd32f30x_sdio.c ****     \param[out] none
 433:C:/Users/49542/Desktop/GD32F30x_Demo_Suites_V2.0.0/GD32F30x_Demo_Suites_V2.0.0/GD32F30x_Firmware_Library/GD32F30x_standard_peripheral/Source\gd32f30x_sdio.c ****     \retval     none
 434:C:/Users/49542/Desktop/GD32F30x_Demo_Suites_V2.0.0/GD32F30x_Demo_Suites_V2.0.0/GD32F30x_Firmware_Library/GD32F30x_standard_peripheral/Source\gd32f30x_sdio.c **** */
 435:C:/Users/49542/Desktop/GD32F30x_Demo_Suites_V2.0.0/GD32F30x_Demo_Suites_V2.0.0/GD32F30x_Firmware_Library/GD32F30x_standard_peripheral/Source\gd32f30x_sdio.c **** void sdio_dma_disable(void)
 436:C:/Users/49542/Desktop/GD32F30x_Demo_Suites_V2.0.0/GD32F30x_Demo_Suites_V2.0.0/GD32F30x_Firmware_Library/GD32F30x_standard_peripheral/Source\gd32f30x_sdio.c **** {
 1391              		.loc 1 436 0
 1392              		.cfi_startproc
 1393              		@ args = 0, pretend = 0, frame = 0
 1394              		@ frame_needed = 1, uses_anonymous_args = 0
 1395              		@ link register save eliminated.
 1396 0000 80B4     		push	{r7}
 1397              	.LCFI114:
 1398              		.cfi_def_cfa_offset 4
 1399              		.cfi_offset 7, -4
 1400 0002 00AF     		add	r7, sp, #0
 1401              	.LCFI115:
 1402              		.cfi_def_cfa_register 7
 437:C:/Users/49542/Desktop/GD32F30x_Demo_Suites_V2.0.0/GD32F30x_Demo_Suites_V2.0.0/GD32F30x_Firmware_Library/GD32F30x_standard_peripheral/Source\gd32f30x_sdio.c ****     SDIO_DATACTL &= ~SDIO_DATACTL_DMAEN;
 1403              		.loc 1 437 0
 1404 0004 054B     		ldr	r3, .L89
 1405 0006 1B68     		ldr	r3, [r3]
 1406 0008 044A     		ldr	r2, .L89
 1407 000a 23F00803 		bic	r3, r3, #8
 1408 000e 1360     		str	r3, [r2]
 438:C:/Users/49542/Desktop/GD32F30x_Demo_Suites_V2.0.0/GD32F30x_Demo_Suites_V2.0.0/GD32F30x_Firmware_Library/GD32F30x_standard_peripheral/Source\gd32f30x_sdio.c **** }
 1409              		.loc 1 438 0
 1410 0010 00BF     		nop
 1411 0012 BD46     		mov	sp, r7
 1412              	.LCFI116:
 1413              		.cfi_def_cfa_register 13
 1414              		@ sp needed
 1415 0014 5DF8047B 		ldr	r7, [sp], #4
 1416              	.LCFI117:
 1417              		.cfi_restore 7
 1418              		.cfi_def_cfa_offset 0
 1419 0018 7047     		bx	lr
 1420              	.L90:
 1421 001a 00BF     		.align	2
 1422              	.L89:
 1423 001c 2C800140 		.word	1073840172
 1424              		.cfi_endproc
 1425              	.LFE140:
 1427              		.section	.text.sdio_flag_get,"ax",%progbits
 1428              		.align	1
 1429              		.global	sdio_flag_get
 1430              		.syntax unified
 1431              		.thumb
 1432              		.thumb_func
 1433              		.fpu fpv4-sp-d16
 1435              	sdio_flag_get:
 1436              	.LFB141:
 439:C:/Users/49542/Desktop/GD32F30x_Demo_Suites_V2.0.0/GD32F30x_Demo_Suites_V2.0.0/GD32F30x_Firmware_Library/GD32F30x_standard_peripheral/Source\gd32f30x_sdio.c **** 
ARM GAS  C:\Users\49542\AppData\Local\Temp\ccX92vIs.s 			page 33


 440:C:/Users/49542/Desktop/GD32F30x_Demo_Suites_V2.0.0/GD32F30x_Demo_Suites_V2.0.0/GD32F30x_Firmware_Library/GD32F30x_standard_peripheral/Source\gd32f30x_sdio.c **** /*!
 441:C:/Users/49542/Desktop/GD32F30x_Demo_Suites_V2.0.0/GD32F30x_Demo_Suites_V2.0.0/GD32F30x_Firmware_Library/GD32F30x_standard_peripheral/Source\gd32f30x_sdio.c ****     \brief      get the flags state of SDIO
 442:C:/Users/49542/Desktop/GD32F30x_Demo_Suites_V2.0.0/GD32F30x_Demo_Suites_V2.0.0/GD32F30x_Firmware_Library/GD32F30x_standard_peripheral/Source\gd32f30x_sdio.c ****     \param[in]  flag: flags state of SDIO
 443:C:/Users/49542/Desktop/GD32F30x_Demo_Suites_V2.0.0/GD32F30x_Demo_Suites_V2.0.0/GD32F30x_Firmware_Library/GD32F30x_standard_peripheral/Source\gd32f30x_sdio.c ****                 one or more parameters can be selected which are shown as below:
 444:C:/Users/49542/Desktop/GD32F30x_Demo_Suites_V2.0.0/GD32F30x_Demo_Suites_V2.0.0/GD32F30x_Firmware_Library/GD32F30x_standard_peripheral/Source\gd32f30x_sdio.c ****       \arg        SDIO_FLAG_CCRCERR: command response received (CRC check failed) flag
 445:C:/Users/49542/Desktop/GD32F30x_Demo_Suites_V2.0.0/GD32F30x_Demo_Suites_V2.0.0/GD32F30x_Firmware_Library/GD32F30x_standard_peripheral/Source\gd32f30x_sdio.c ****       \arg        SDIO_FLAG_DTCRCERR: data block sent/received (CRC check failed) flag
 446:C:/Users/49542/Desktop/GD32F30x_Demo_Suites_V2.0.0/GD32F30x_Demo_Suites_V2.0.0/GD32F30x_Firmware_Library/GD32F30x_standard_peripheral/Source\gd32f30x_sdio.c ****       \arg        SDIO_FLAG_CMDTMOUT: command response timeout flag
 447:C:/Users/49542/Desktop/GD32F30x_Demo_Suites_V2.0.0/GD32F30x_Demo_Suites_V2.0.0/GD32F30x_Firmware_Library/GD32F30x_standard_peripheral/Source\gd32f30x_sdio.c ****       \arg        SDIO_FLAG_DTTMOUT: data timeout flag
 448:C:/Users/49542/Desktop/GD32F30x_Demo_Suites_V2.0.0/GD32F30x_Demo_Suites_V2.0.0/GD32F30x_Firmware_Library/GD32F30x_standard_peripheral/Source\gd32f30x_sdio.c ****       \arg        SDIO_FLAG_TXURE: transmit FIFO underrun error occurs flag
 449:C:/Users/49542/Desktop/GD32F30x_Demo_Suites_V2.0.0/GD32F30x_Demo_Suites_V2.0.0/GD32F30x_Firmware_Library/GD32F30x_standard_peripheral/Source\gd32f30x_sdio.c ****       \arg        SDIO_FLAG_RXORE: received FIFO overrun error occurs flag
 450:C:/Users/49542/Desktop/GD32F30x_Demo_Suites_V2.0.0/GD32F30x_Demo_Suites_V2.0.0/GD32F30x_Firmware_Library/GD32F30x_standard_peripheral/Source\gd32f30x_sdio.c ****       \arg        SDIO_FLAG_CMDRECV: command response received (CRC check passed) flag
 451:C:/Users/49542/Desktop/GD32F30x_Demo_Suites_V2.0.0/GD32F30x_Demo_Suites_V2.0.0/GD32F30x_Firmware_Library/GD32F30x_standard_peripheral/Source\gd32f30x_sdio.c ****       \arg        SDIO_FLAG_CMDSEND: command sent (no response required) flag
 452:C:/Users/49542/Desktop/GD32F30x_Demo_Suites_V2.0.0/GD32F30x_Demo_Suites_V2.0.0/GD32F30x_Firmware_Library/GD32F30x_standard_peripheral/Source\gd32f30x_sdio.c ****       \arg        SDIO_FLAG_DTEND: data end (data counter, SDIO_DATACNT, is zero) flag
 453:C:/Users/49542/Desktop/GD32F30x_Demo_Suites_V2.0.0/GD32F30x_Demo_Suites_V2.0.0/GD32F30x_Firmware_Library/GD32F30x_standard_peripheral/Source\gd32f30x_sdio.c ****       \arg        SDIO_FLAG_STBITE: start bit error in the bus flag
 454:C:/Users/49542/Desktop/GD32F30x_Demo_Suites_V2.0.0/GD32F30x_Demo_Suites_V2.0.0/GD32F30x_Firmware_Library/GD32F30x_standard_peripheral/Source\gd32f30x_sdio.c ****       \arg        SDIO_FLAG_DTBLKEND: data block sent/received (CRC check passed) flag
 455:C:/Users/49542/Desktop/GD32F30x_Demo_Suites_V2.0.0/GD32F30x_Demo_Suites_V2.0.0/GD32F30x_Firmware_Library/GD32F30x_standard_peripheral/Source\gd32f30x_sdio.c ****       \arg        SDIO_FLAG_CMDRUN: command transmission in progress flag
 456:C:/Users/49542/Desktop/GD32F30x_Demo_Suites_V2.0.0/GD32F30x_Demo_Suites_V2.0.0/GD32F30x_Firmware_Library/GD32F30x_standard_peripheral/Source\gd32f30x_sdio.c ****       \arg        SDIO_FLAG_TXRUN: data transmission in progress flag
 457:C:/Users/49542/Desktop/GD32F30x_Demo_Suites_V2.0.0/GD32F30x_Demo_Suites_V2.0.0/GD32F30x_Firmware_Library/GD32F30x_standard_peripheral/Source\gd32f30x_sdio.c ****       \arg        SDIO_FLAG_RXRUN: data reception in progress flag
 458:C:/Users/49542/Desktop/GD32F30x_Demo_Suites_V2.0.0/GD32F30x_Demo_Suites_V2.0.0/GD32F30x_Firmware_Library/GD32F30x_standard_peripheral/Source\gd32f30x_sdio.c ****       \arg        SDIO_FLAG_TFH: transmit FIFO is half empty flag: at least 8 words can be written 
 459:C:/Users/49542/Desktop/GD32F30x_Demo_Suites_V2.0.0/GD32F30x_Demo_Suites_V2.0.0/GD32F30x_Firmware_Library/GD32F30x_standard_peripheral/Source\gd32f30x_sdio.c ****       \arg        SDIO_FLAG_RFH: receive FIFO is half full flag: at least 8 words can be read in th
 460:C:/Users/49542/Desktop/GD32F30x_Demo_Suites_V2.0.0/GD32F30x_Demo_Suites_V2.0.0/GD32F30x_Firmware_Library/GD32F30x_standard_peripheral/Source\gd32f30x_sdio.c ****       \arg        SDIO_FLAG_TFF: transmit FIFO is full flag
 461:C:/Users/49542/Desktop/GD32F30x_Demo_Suites_V2.0.0/GD32F30x_Demo_Suites_V2.0.0/GD32F30x_Firmware_Library/GD32F30x_standard_peripheral/Source\gd32f30x_sdio.c ****       \arg        SDIO_FLAG_RFF: receive FIFO is full flag
 462:C:/Users/49542/Desktop/GD32F30x_Demo_Suites_V2.0.0/GD32F30x_Demo_Suites_V2.0.0/GD32F30x_Firmware_Library/GD32F30x_standard_peripheral/Source\gd32f30x_sdio.c ****       \arg        SDIO_FLAG_TFE: transmit FIFO is empty flag
 463:C:/Users/49542/Desktop/GD32F30x_Demo_Suites_V2.0.0/GD32F30x_Demo_Suites_V2.0.0/GD32F30x_Firmware_Library/GD32F30x_standard_peripheral/Source\gd32f30x_sdio.c ****       \arg        SDIO_FLAG_RFE: receive FIFO is empty flag
 464:C:/Users/49542/Desktop/GD32F30x_Demo_Suites_V2.0.0/GD32F30x_Demo_Suites_V2.0.0/GD32F30x_Firmware_Library/GD32F30x_standard_peripheral/Source\gd32f30x_sdio.c ****       \arg        SDIO_FLAG_TXDTVAL: data is valid in transmit FIFO flag
 465:C:/Users/49542/Desktop/GD32F30x_Demo_Suites_V2.0.0/GD32F30x_Demo_Suites_V2.0.0/GD32F30x_Firmware_Library/GD32F30x_standard_peripheral/Source\gd32f30x_sdio.c ****       \arg        SDIO_FLAG_RXDTVAL: data is valid in receive FIFO flag
 466:C:/Users/49542/Desktop/GD32F30x_Demo_Suites_V2.0.0/GD32F30x_Demo_Suites_V2.0.0/GD32F30x_Firmware_Library/GD32F30x_standard_peripheral/Source\gd32f30x_sdio.c ****       \arg        SDIO_FLAG_SDIOINT: SD I/O interrupt received flag
 467:C:/Users/49542/Desktop/GD32F30x_Demo_Suites_V2.0.0/GD32F30x_Demo_Suites_V2.0.0/GD32F30x_Firmware_Library/GD32F30x_standard_peripheral/Source\gd32f30x_sdio.c ****       \arg        SDIO_FLAG_ATAEND: CE-ATA command completion signal received (only for CMD61) flag
 468:C:/Users/49542/Desktop/GD32F30x_Demo_Suites_V2.0.0/GD32F30x_Demo_Suites_V2.0.0/GD32F30x_Firmware_Library/GD32F30x_standard_peripheral/Source\gd32f30x_sdio.c ****     \param[out] none
 469:C:/Users/49542/Desktop/GD32F30x_Demo_Suites_V2.0.0/GD32F30x_Demo_Suites_V2.0.0/GD32F30x_Firmware_Library/GD32F30x_standard_peripheral/Source\gd32f30x_sdio.c ****     \retval     FlagStatus: SET or RESET
 470:C:/Users/49542/Desktop/GD32F30x_Demo_Suites_V2.0.0/GD32F30x_Demo_Suites_V2.0.0/GD32F30x_Firmware_Library/GD32F30x_standard_peripheral/Source\gd32f30x_sdio.c **** */
 471:C:/Users/49542/Desktop/GD32F30x_Demo_Suites_V2.0.0/GD32F30x_Demo_Suites_V2.0.0/GD32F30x_Firmware_Library/GD32F30x_standard_peripheral/Source\gd32f30x_sdio.c **** FlagStatus sdio_flag_get(uint32_t flag)
 472:C:/Users/49542/Desktop/GD32F30x_Demo_Suites_V2.0.0/GD32F30x_Demo_Suites_V2.0.0/GD32F30x_Firmware_Library/GD32F30x_standard_peripheral/Source\gd32f30x_sdio.c **** {
 1437              		.loc 1 472 0
 1438              		.cfi_startproc
 1439              		@ args = 0, pretend = 0, frame = 8
 1440              		@ frame_needed = 1, uses_anonymous_args = 0
 1441              		@ link register save eliminated.
 1442 0000 80B4     		push	{r7}
 1443              	.LCFI118:
 1444              		.cfi_def_cfa_offset 4
 1445              		.cfi_offset 7, -4
 1446 0002 83B0     		sub	sp, sp, #12
 1447              	.LCFI119:
 1448              		.cfi_def_cfa_offset 16
 1449 0004 00AF     		add	r7, sp, #0
 1450              	.LCFI120:
 1451              		.cfi_def_cfa_register 7
 1452 0006 7860     		str	r0, [r7, #4]
 473:C:/Users/49542/Desktop/GD32F30x_Demo_Suites_V2.0.0/GD32F30x_Demo_Suites_V2.0.0/GD32F30x_Firmware_Library/GD32F30x_standard_peripheral/Source\gd32f30x_sdio.c ****     if(RESET != (SDIO_STAT & flag)){
 1453              		.loc 1 473 0
 1454 0008 074B     		ldr	r3, .L94
 1455 000a 1A68     		ldr	r2, [r3]
 1456 000c 7B68     		ldr	r3, [r7, #4]
 1457 000e 1340     		ands	r3, r3, r2
 1458 0010 002B     		cmp	r3, #0
 1459 0012 01D0     		beq	.L92
ARM GAS  C:\Users\49542\AppData\Local\Temp\ccX92vIs.s 			page 34


 474:C:/Users/49542/Desktop/GD32F30x_Demo_Suites_V2.0.0/GD32F30x_Demo_Suites_V2.0.0/GD32F30x_Firmware_Library/GD32F30x_standard_peripheral/Source\gd32f30x_sdio.c ****         return SET;
 1460              		.loc 1 474 0
 1461 0014 0123     		movs	r3, #1
 1462 0016 00E0     		b	.L93
 1463              	.L92:
 475:C:/Users/49542/Desktop/GD32F30x_Demo_Suites_V2.0.0/GD32F30x_Demo_Suites_V2.0.0/GD32F30x_Firmware_Library/GD32F30x_standard_peripheral/Source\gd32f30x_sdio.c ****     }
 476:C:/Users/49542/Desktop/GD32F30x_Demo_Suites_V2.0.0/GD32F30x_Demo_Suites_V2.0.0/GD32F30x_Firmware_Library/GD32F30x_standard_peripheral/Source\gd32f30x_sdio.c ****     return RESET;
 1464              		.loc 1 476 0
 1465 0018 0023     		movs	r3, #0
 1466              	.L93:
 477:C:/Users/49542/Desktop/GD32F30x_Demo_Suites_V2.0.0/GD32F30x_Demo_Suites_V2.0.0/GD32F30x_Firmware_Library/GD32F30x_standard_peripheral/Source\gd32f30x_sdio.c **** }
 1467              		.loc 1 477 0
 1468 001a 1846     		mov	r0, r3
 1469 001c 0C37     		adds	r7, r7, #12
 1470              	.LCFI121:
 1471              		.cfi_def_cfa_offset 4
 1472 001e BD46     		mov	sp, r7
 1473              	.LCFI122:
 1474              		.cfi_def_cfa_register 13
 1475              		@ sp needed
 1476 0020 5DF8047B 		ldr	r7, [sp], #4
 1477              	.LCFI123:
 1478              		.cfi_restore 7
 1479              		.cfi_def_cfa_offset 0
 1480 0024 7047     		bx	lr
 1481              	.L95:
 1482 0026 00BF     		.align	2
 1483              	.L94:
 1484 0028 34800140 		.word	1073840180
 1485              		.cfi_endproc
 1486              	.LFE141:
 1488              		.section	.text.sdio_flag_clear,"ax",%progbits
 1489              		.align	1
 1490              		.global	sdio_flag_clear
 1491              		.syntax unified
 1492              		.thumb
 1493              		.thumb_func
 1494              		.fpu fpv4-sp-d16
 1496              	sdio_flag_clear:
 1497              	.LFB142:
 478:C:/Users/49542/Desktop/GD32F30x_Demo_Suites_V2.0.0/GD32F30x_Demo_Suites_V2.0.0/GD32F30x_Firmware_Library/GD32F30x_standard_peripheral/Source\gd32f30x_sdio.c **** 
 479:C:/Users/49542/Desktop/GD32F30x_Demo_Suites_V2.0.0/GD32F30x_Demo_Suites_V2.0.0/GD32F30x_Firmware_Library/GD32F30x_standard_peripheral/Source\gd32f30x_sdio.c **** /*!
 480:C:/Users/49542/Desktop/GD32F30x_Demo_Suites_V2.0.0/GD32F30x_Demo_Suites_V2.0.0/GD32F30x_Firmware_Library/GD32F30x_standard_peripheral/Source\gd32f30x_sdio.c ****     \brief      clear the pending flags of SDIO
 481:C:/Users/49542/Desktop/GD32F30x_Demo_Suites_V2.0.0/GD32F30x_Demo_Suites_V2.0.0/GD32F30x_Firmware_Library/GD32F30x_standard_peripheral/Source\gd32f30x_sdio.c ****     \param[in]  flag: flags state of SDIO
 482:C:/Users/49542/Desktop/GD32F30x_Demo_Suites_V2.0.0/GD32F30x_Demo_Suites_V2.0.0/GD32F30x_Firmware_Library/GD32F30x_standard_peripheral/Source\gd32f30x_sdio.c ****                 one or more parameters can be selected which are shown as below:
 483:C:/Users/49542/Desktop/GD32F30x_Demo_Suites_V2.0.0/GD32F30x_Demo_Suites_V2.0.0/GD32F30x_Firmware_Library/GD32F30x_standard_peripheral/Source\gd32f30x_sdio.c ****       \arg        SDIO_FLAG_CCRCERR: command response received (CRC check failed) flag
 484:C:/Users/49542/Desktop/GD32F30x_Demo_Suites_V2.0.0/GD32F30x_Demo_Suites_V2.0.0/GD32F30x_Firmware_Library/GD32F30x_standard_peripheral/Source\gd32f30x_sdio.c ****       \arg        SDIO_FLAG_DTCRCERR: data block sent/received (CRC check failed) flag
 485:C:/Users/49542/Desktop/GD32F30x_Demo_Suites_V2.0.0/GD32F30x_Demo_Suites_V2.0.0/GD32F30x_Firmware_Library/GD32F30x_standard_peripheral/Source\gd32f30x_sdio.c ****       \arg        SDIO_FLAG_CMDTMOUT: command response timeout flag
 486:C:/Users/49542/Desktop/GD32F30x_Demo_Suites_V2.0.0/GD32F30x_Demo_Suites_V2.0.0/GD32F30x_Firmware_Library/GD32F30x_standard_peripheral/Source\gd32f30x_sdio.c ****       \arg        SDIO_FLAG_DTTMOUT: data timeout flag
 487:C:/Users/49542/Desktop/GD32F30x_Demo_Suites_V2.0.0/GD32F30x_Demo_Suites_V2.0.0/GD32F30x_Firmware_Library/GD32F30x_standard_peripheral/Source\gd32f30x_sdio.c ****       \arg        SDIO_FLAG_TXURE: transmit FIFO underrun error occurs flag
 488:C:/Users/49542/Desktop/GD32F30x_Demo_Suites_V2.0.0/GD32F30x_Demo_Suites_V2.0.0/GD32F30x_Firmware_Library/GD32F30x_standard_peripheral/Source\gd32f30x_sdio.c ****       \arg        SDIO_FLAG_RXORE: received FIFO overrun error occurs flag
 489:C:/Users/49542/Desktop/GD32F30x_Demo_Suites_V2.0.0/GD32F30x_Demo_Suites_V2.0.0/GD32F30x_Firmware_Library/GD32F30x_standard_peripheral/Source\gd32f30x_sdio.c ****       \arg        SDIO_FLAG_CMDRECV: command response received (CRC check passed) flag
 490:C:/Users/49542/Desktop/GD32F30x_Demo_Suites_V2.0.0/GD32F30x_Demo_Suites_V2.0.0/GD32F30x_Firmware_Library/GD32F30x_standard_peripheral/Source\gd32f30x_sdio.c ****       \arg        SDIO_FLAG_CMDSEND: command sent (no response required) flag
 491:C:/Users/49542/Desktop/GD32F30x_Demo_Suites_V2.0.0/GD32F30x_Demo_Suites_V2.0.0/GD32F30x_Firmware_Library/GD32F30x_standard_peripheral/Source\gd32f30x_sdio.c ****       \arg        SDIO_FLAG_DTEND: data end (data counter, SDIO_DATACNT, is zero) flag
 492:C:/Users/49542/Desktop/GD32F30x_Demo_Suites_V2.0.0/GD32F30x_Demo_Suites_V2.0.0/GD32F30x_Firmware_Library/GD32F30x_standard_peripheral/Source\gd32f30x_sdio.c ****       \arg        SDIO_FLAG_STBITE: start bit error in the bus flag
 493:C:/Users/49542/Desktop/GD32F30x_Demo_Suites_V2.0.0/GD32F30x_Demo_Suites_V2.0.0/GD32F30x_Firmware_Library/GD32F30x_standard_peripheral/Source\gd32f30x_sdio.c ****       \arg        SDIO_FLAG_DTBLKEND: data block sent/received (CRC check passed) flag
 494:C:/Users/49542/Desktop/GD32F30x_Demo_Suites_V2.0.0/GD32F30x_Demo_Suites_V2.0.0/GD32F30x_Firmware_Library/GD32F30x_standard_peripheral/Source\gd32f30x_sdio.c ****       \arg        SDIO_FLAG_SDIOINT: SD I/O interrupt received flag
ARM GAS  C:\Users\49542\AppData\Local\Temp\ccX92vIs.s 			page 35


 495:C:/Users/49542/Desktop/GD32F30x_Demo_Suites_V2.0.0/GD32F30x_Demo_Suites_V2.0.0/GD32F30x_Firmware_Library/GD32F30x_standard_peripheral/Source\gd32f30x_sdio.c ****       \arg        SDIO_FLAG_ATAEND: CE-ATA command completion signal received (only for CMD61) flag
 496:C:/Users/49542/Desktop/GD32F30x_Demo_Suites_V2.0.0/GD32F30x_Demo_Suites_V2.0.0/GD32F30x_Firmware_Library/GD32F30x_standard_peripheral/Source\gd32f30x_sdio.c ****     \param[out] none
 497:C:/Users/49542/Desktop/GD32F30x_Demo_Suites_V2.0.0/GD32F30x_Demo_Suites_V2.0.0/GD32F30x_Firmware_Library/GD32F30x_standard_peripheral/Source\gd32f30x_sdio.c ****     \retval     none
 498:C:/Users/49542/Desktop/GD32F30x_Demo_Suites_V2.0.0/GD32F30x_Demo_Suites_V2.0.0/GD32F30x_Firmware_Library/GD32F30x_standard_peripheral/Source\gd32f30x_sdio.c **** */
 499:C:/Users/49542/Desktop/GD32F30x_Demo_Suites_V2.0.0/GD32F30x_Demo_Suites_V2.0.0/GD32F30x_Firmware_Library/GD32F30x_standard_peripheral/Source\gd32f30x_sdio.c **** void sdio_flag_clear(uint32_t flag)
 500:C:/Users/49542/Desktop/GD32F30x_Demo_Suites_V2.0.0/GD32F30x_Demo_Suites_V2.0.0/GD32F30x_Firmware_Library/GD32F30x_standard_peripheral/Source\gd32f30x_sdio.c **** {
 1498              		.loc 1 500 0
 1499              		.cfi_startproc
 1500              		@ args = 0, pretend = 0, frame = 8
 1501              		@ frame_needed = 1, uses_anonymous_args = 0
 1502              		@ link register save eliminated.
 1503 0000 80B4     		push	{r7}
 1504              	.LCFI124:
 1505              		.cfi_def_cfa_offset 4
 1506              		.cfi_offset 7, -4
 1507 0002 83B0     		sub	sp, sp, #12
 1508              	.LCFI125:
 1509              		.cfi_def_cfa_offset 16
 1510 0004 00AF     		add	r7, sp, #0
 1511              	.LCFI126:
 1512              		.cfi_def_cfa_register 7
 1513 0006 7860     		str	r0, [r7, #4]
 501:C:/Users/49542/Desktop/GD32F30x_Demo_Suites_V2.0.0/GD32F30x_Demo_Suites_V2.0.0/GD32F30x_Firmware_Library/GD32F30x_standard_peripheral/Source\gd32f30x_sdio.c ****     SDIO_INTC = flag;
 1514              		.loc 1 501 0
 1515 0008 044A     		ldr	r2, .L97
 1516 000a 7B68     		ldr	r3, [r7, #4]
 1517 000c 1360     		str	r3, [r2]
 502:C:/Users/49542/Desktop/GD32F30x_Demo_Suites_V2.0.0/GD32F30x_Demo_Suites_V2.0.0/GD32F30x_Firmware_Library/GD32F30x_standard_peripheral/Source\gd32f30x_sdio.c **** }
 1518              		.loc 1 502 0
 1519 000e 00BF     		nop
 1520 0010 0C37     		adds	r7, r7, #12
 1521              	.LCFI127:
 1522              		.cfi_def_cfa_offset 4
 1523 0012 BD46     		mov	sp, r7
 1524              	.LCFI128:
 1525              		.cfi_def_cfa_register 13
 1526              		@ sp needed
 1527 0014 5DF8047B 		ldr	r7, [sp], #4
 1528              	.LCFI129:
 1529              		.cfi_restore 7
 1530              		.cfi_def_cfa_offset 0
 1531 0018 7047     		bx	lr
 1532              	.L98:
 1533 001a 00BF     		.align	2
 1534              	.L97:
 1535 001c 38800140 		.word	1073840184
 1536              		.cfi_endproc
 1537              	.LFE142:
 1539              		.section	.text.sdio_interrupt_enable,"ax",%progbits
 1540              		.align	1
 1541              		.global	sdio_interrupt_enable
 1542              		.syntax unified
 1543              		.thumb
 1544              		.thumb_func
 1545              		.fpu fpv4-sp-d16
 1547              	sdio_interrupt_enable:
 1548              	.LFB143:
ARM GAS  C:\Users\49542\AppData\Local\Temp\ccX92vIs.s 			page 36


 503:C:/Users/49542/Desktop/GD32F30x_Demo_Suites_V2.0.0/GD32F30x_Demo_Suites_V2.0.0/GD32F30x_Firmware_Library/GD32F30x_standard_peripheral/Source\gd32f30x_sdio.c **** 
 504:C:/Users/49542/Desktop/GD32F30x_Demo_Suites_V2.0.0/GD32F30x_Demo_Suites_V2.0.0/GD32F30x_Firmware_Library/GD32F30x_standard_peripheral/Source\gd32f30x_sdio.c **** /*!
 505:C:/Users/49542/Desktop/GD32F30x_Demo_Suites_V2.0.0/GD32F30x_Demo_Suites_V2.0.0/GD32F30x_Firmware_Library/GD32F30x_standard_peripheral/Source\gd32f30x_sdio.c ****     \brief      enable the SDIO interrupt
 506:C:/Users/49542/Desktop/GD32F30x_Demo_Suites_V2.0.0/GD32F30x_Demo_Suites_V2.0.0/GD32F30x_Firmware_Library/GD32F30x_standard_peripheral/Source\gd32f30x_sdio.c ****     \param[in]  int_flag: interrupt flags state of SDIO
 507:C:/Users/49542/Desktop/GD32F30x_Demo_Suites_V2.0.0/GD32F30x_Demo_Suites_V2.0.0/GD32F30x_Firmware_Library/GD32F30x_standard_peripheral/Source\gd32f30x_sdio.c ****                 one or more parameters can be selected which are shown as below:
 508:C:/Users/49542/Desktop/GD32F30x_Demo_Suites_V2.0.0/GD32F30x_Demo_Suites_V2.0.0/GD32F30x_Firmware_Library/GD32F30x_standard_peripheral/Source\gd32f30x_sdio.c ****       \arg        SDIO_INT_CCRCERR: SDIO CCRCERR interrupt
 509:C:/Users/49542/Desktop/GD32F30x_Demo_Suites_V2.0.0/GD32F30x_Demo_Suites_V2.0.0/GD32F30x_Firmware_Library/GD32F30x_standard_peripheral/Source\gd32f30x_sdio.c ****       \arg        SDIO_INT_DTCRCERR: SDIO DTCRCERR interrupt
 510:C:/Users/49542/Desktop/GD32F30x_Demo_Suites_V2.0.0/GD32F30x_Demo_Suites_V2.0.0/GD32F30x_Firmware_Library/GD32F30x_standard_peripheral/Source\gd32f30x_sdio.c ****       \arg        SDIO_INT_CMDTMOUT: SDIO CMDTMOUT interrupt
 511:C:/Users/49542/Desktop/GD32F30x_Demo_Suites_V2.0.0/GD32F30x_Demo_Suites_V2.0.0/GD32F30x_Firmware_Library/GD32F30x_standard_peripheral/Source\gd32f30x_sdio.c ****       \arg        SDIO_INT_DTTMOUT: SDIO DTTMOUT interrupt
 512:C:/Users/49542/Desktop/GD32F30x_Demo_Suites_V2.0.0/GD32F30x_Demo_Suites_V2.0.0/GD32F30x_Firmware_Library/GD32F30x_standard_peripheral/Source\gd32f30x_sdio.c ****       \arg        SDIO_INT_TXURE: SDIO TXURE interrupt
 513:C:/Users/49542/Desktop/GD32F30x_Demo_Suites_V2.0.0/GD32F30x_Demo_Suites_V2.0.0/GD32F30x_Firmware_Library/GD32F30x_standard_peripheral/Source\gd32f30x_sdio.c ****       \arg        SDIO_INT_RXORE: SDIO RXORE interrupt
 514:C:/Users/49542/Desktop/GD32F30x_Demo_Suites_V2.0.0/GD32F30x_Demo_Suites_V2.0.0/GD32F30x_Firmware_Library/GD32F30x_standard_peripheral/Source\gd32f30x_sdio.c ****       \arg        SDIO_INT_CMDRECV: SDIO CMDRECV interrupt
 515:C:/Users/49542/Desktop/GD32F30x_Demo_Suites_V2.0.0/GD32F30x_Demo_Suites_V2.0.0/GD32F30x_Firmware_Library/GD32F30x_standard_peripheral/Source\gd32f30x_sdio.c ****       \arg        SDIO_INT_CMDSEND: SDIO CMDSEND interrupt
 516:C:/Users/49542/Desktop/GD32F30x_Demo_Suites_V2.0.0/GD32F30x_Demo_Suites_V2.0.0/GD32F30x_Firmware_Library/GD32F30x_standard_peripheral/Source\gd32f30x_sdio.c ****       \arg        SDIO_INT_DTEND: SDIO DTEND interrupt
 517:C:/Users/49542/Desktop/GD32F30x_Demo_Suites_V2.0.0/GD32F30x_Demo_Suites_V2.0.0/GD32F30x_Firmware_Library/GD32F30x_standard_peripheral/Source\gd32f30x_sdio.c ****       \arg        SDIO_INT_STBITE: SDIO STBITE interrupt
 518:C:/Users/49542/Desktop/GD32F30x_Demo_Suites_V2.0.0/GD32F30x_Demo_Suites_V2.0.0/GD32F30x_Firmware_Library/GD32F30x_standard_peripheral/Source\gd32f30x_sdio.c ****       \arg        SDIO_INT_DTBLKEND: SDIO DTBLKEND interrupt
 519:C:/Users/49542/Desktop/GD32F30x_Demo_Suites_V2.0.0/GD32F30x_Demo_Suites_V2.0.0/GD32F30x_Firmware_Library/GD32F30x_standard_peripheral/Source\gd32f30x_sdio.c ****       \arg        SDIO_INT_CMDRUN: SDIO CMDRUN interrupt
 520:C:/Users/49542/Desktop/GD32F30x_Demo_Suites_V2.0.0/GD32F30x_Demo_Suites_V2.0.0/GD32F30x_Firmware_Library/GD32F30x_standard_peripheral/Source\gd32f30x_sdio.c ****       \arg        SDIO_INT_TXRUN: SDIO TXRUN interrupt
 521:C:/Users/49542/Desktop/GD32F30x_Demo_Suites_V2.0.0/GD32F30x_Demo_Suites_V2.0.0/GD32F30x_Firmware_Library/GD32F30x_standard_peripheral/Source\gd32f30x_sdio.c ****       \arg        SDIO_INT_RXRUN: SDIO RXRUN interrupt
 522:C:/Users/49542/Desktop/GD32F30x_Demo_Suites_V2.0.0/GD32F30x_Demo_Suites_V2.0.0/GD32F30x_Firmware_Library/GD32F30x_standard_peripheral/Source\gd32f30x_sdio.c ****       \arg        SDIO_INT_TFH: SDIO TFH interrupt
 523:C:/Users/49542/Desktop/GD32F30x_Demo_Suites_V2.0.0/GD32F30x_Demo_Suites_V2.0.0/GD32F30x_Firmware_Library/GD32F30x_standard_peripheral/Source\gd32f30x_sdio.c ****       \arg        SDIO_INT_RFH: SDIO RFH interrupt
 524:C:/Users/49542/Desktop/GD32F30x_Demo_Suites_V2.0.0/GD32F30x_Demo_Suites_V2.0.0/GD32F30x_Firmware_Library/GD32F30x_standard_peripheral/Source\gd32f30x_sdio.c ****       \arg        SDIO_INT_TFF: SDIO TFF interrupt
 525:C:/Users/49542/Desktop/GD32F30x_Demo_Suites_V2.0.0/GD32F30x_Demo_Suites_V2.0.0/GD32F30x_Firmware_Library/GD32F30x_standard_peripheral/Source\gd32f30x_sdio.c ****       \arg        SDIO_INT_RFF: SDIO RFF interrupt
 526:C:/Users/49542/Desktop/GD32F30x_Demo_Suites_V2.0.0/GD32F30x_Demo_Suites_V2.0.0/GD32F30x_Firmware_Library/GD32F30x_standard_peripheral/Source\gd32f30x_sdio.c ****       \arg        SDIO_INT_TFE: SDIO TFE interrupt
 527:C:/Users/49542/Desktop/GD32F30x_Demo_Suites_V2.0.0/GD32F30x_Demo_Suites_V2.0.0/GD32F30x_Firmware_Library/GD32F30x_standard_peripheral/Source\gd32f30x_sdio.c ****       \arg        SDIO_INT_RFE: SDIO RFE interrupt
 528:C:/Users/49542/Desktop/GD32F30x_Demo_Suites_V2.0.0/GD32F30x_Demo_Suites_V2.0.0/GD32F30x_Firmware_Library/GD32F30x_standard_peripheral/Source\gd32f30x_sdio.c ****       \arg        SDIO_INT_TXDTVAL: SDIO TXDTVAL interrupt
 529:C:/Users/49542/Desktop/GD32F30x_Demo_Suites_V2.0.0/GD32F30x_Demo_Suites_V2.0.0/GD32F30x_Firmware_Library/GD32F30x_standard_peripheral/Source\gd32f30x_sdio.c ****       \arg        SDIO_INT_RXDTVAL: SDIO RXDTVAL interrupt
 530:C:/Users/49542/Desktop/GD32F30x_Demo_Suites_V2.0.0/GD32F30x_Demo_Suites_V2.0.0/GD32F30x_Firmware_Library/GD32F30x_standard_peripheral/Source\gd32f30x_sdio.c ****       \arg        SDIO_INT_SDIOINT: SDIO SDIOINT interrupt
 531:C:/Users/49542/Desktop/GD32F30x_Demo_Suites_V2.0.0/GD32F30x_Demo_Suites_V2.0.0/GD32F30x_Firmware_Library/GD32F30x_standard_peripheral/Source\gd32f30x_sdio.c ****       \arg        SDIO_INT_ATAEND: SDIO ATAEND interrupt
 532:C:/Users/49542/Desktop/GD32F30x_Demo_Suites_V2.0.0/GD32F30x_Demo_Suites_V2.0.0/GD32F30x_Firmware_Library/GD32F30x_standard_peripheral/Source\gd32f30x_sdio.c ****     \param[out] none
 533:C:/Users/49542/Desktop/GD32F30x_Demo_Suites_V2.0.0/GD32F30x_Demo_Suites_V2.0.0/GD32F30x_Firmware_Library/GD32F30x_standard_peripheral/Source\gd32f30x_sdio.c ****     \retval     none
 534:C:/Users/49542/Desktop/GD32F30x_Demo_Suites_V2.0.0/GD32F30x_Demo_Suites_V2.0.0/GD32F30x_Firmware_Library/GD32F30x_standard_peripheral/Source\gd32f30x_sdio.c **** */
 535:C:/Users/49542/Desktop/GD32F30x_Demo_Suites_V2.0.0/GD32F30x_Demo_Suites_V2.0.0/GD32F30x_Firmware_Library/GD32F30x_standard_peripheral/Source\gd32f30x_sdio.c **** void sdio_interrupt_enable(uint32_t int_flag)
 536:C:/Users/49542/Desktop/GD32F30x_Demo_Suites_V2.0.0/GD32F30x_Demo_Suites_V2.0.0/GD32F30x_Firmware_Library/GD32F30x_standard_peripheral/Source\gd32f30x_sdio.c **** {
 1549              		.loc 1 536 0
 1550              		.cfi_startproc
 1551              		@ args = 0, pretend = 0, frame = 8
 1552              		@ frame_needed = 1, uses_anonymous_args = 0
 1553              		@ link register save eliminated.
 1554 0000 80B4     		push	{r7}
 1555              	.LCFI130:
 1556              		.cfi_def_cfa_offset 4
 1557              		.cfi_offset 7, -4
 1558 0002 83B0     		sub	sp, sp, #12
 1559              	.LCFI131:
 1560              		.cfi_def_cfa_offset 16
 1561 0004 00AF     		add	r7, sp, #0
 1562              	.LCFI132:
 1563              		.cfi_def_cfa_register 7
 1564 0006 7860     		str	r0, [r7, #4]
 537:C:/Users/49542/Desktop/GD32F30x_Demo_Suites_V2.0.0/GD32F30x_Demo_Suites_V2.0.0/GD32F30x_Firmware_Library/GD32F30x_standard_peripheral/Source\gd32f30x_sdio.c ****     SDIO_INTEN |= int_flag;
 1565              		.loc 1 537 0
 1566 0008 054B     		ldr	r3, .L100
 1567 000a 1A68     		ldr	r2, [r3]
 1568 000c 0449     		ldr	r1, .L100
 1569 000e 7B68     		ldr	r3, [r7, #4]
 1570 0010 1343     		orrs	r3, r3, r2
ARM GAS  C:\Users\49542\AppData\Local\Temp\ccX92vIs.s 			page 37


 1571 0012 0B60     		str	r3, [r1]
 538:C:/Users/49542/Desktop/GD32F30x_Demo_Suites_V2.0.0/GD32F30x_Demo_Suites_V2.0.0/GD32F30x_Firmware_Library/GD32F30x_standard_peripheral/Source\gd32f30x_sdio.c **** }
 1572              		.loc 1 538 0
 1573 0014 00BF     		nop
 1574 0016 0C37     		adds	r7, r7, #12
 1575              	.LCFI133:
 1576              		.cfi_def_cfa_offset 4
 1577 0018 BD46     		mov	sp, r7
 1578              	.LCFI134:
 1579              		.cfi_def_cfa_register 13
 1580              		@ sp needed
 1581 001a 5DF8047B 		ldr	r7, [sp], #4
 1582              	.LCFI135:
 1583              		.cfi_restore 7
 1584              		.cfi_def_cfa_offset 0
 1585 001e 7047     		bx	lr
 1586              	.L101:
 1587              		.align	2
 1588              	.L100:
 1589 0020 3C800140 		.word	1073840188
 1590              		.cfi_endproc
 1591              	.LFE143:
 1593              		.section	.text.sdio_interrupt_disable,"ax",%progbits
 1594              		.align	1
 1595              		.global	sdio_interrupt_disable
 1596              		.syntax unified
 1597              		.thumb
 1598              		.thumb_func
 1599              		.fpu fpv4-sp-d16
 1601              	sdio_interrupt_disable:
 1602              	.LFB144:
 539:C:/Users/49542/Desktop/GD32F30x_Demo_Suites_V2.0.0/GD32F30x_Demo_Suites_V2.0.0/GD32F30x_Firmware_Library/GD32F30x_standard_peripheral/Source\gd32f30x_sdio.c **** 
 540:C:/Users/49542/Desktop/GD32F30x_Demo_Suites_V2.0.0/GD32F30x_Demo_Suites_V2.0.0/GD32F30x_Firmware_Library/GD32F30x_standard_peripheral/Source\gd32f30x_sdio.c **** /*!
 541:C:/Users/49542/Desktop/GD32F30x_Demo_Suites_V2.0.0/GD32F30x_Demo_Suites_V2.0.0/GD32F30x_Firmware_Library/GD32F30x_standard_peripheral/Source\gd32f30x_sdio.c ****     \brief      disable the SDIO interrupt
 542:C:/Users/49542/Desktop/GD32F30x_Demo_Suites_V2.0.0/GD32F30x_Demo_Suites_V2.0.0/GD32F30x_Firmware_Library/GD32F30x_standard_peripheral/Source\gd32f30x_sdio.c ****     \param[in]  int_flag: interrupt flags state of SDIO
 543:C:/Users/49542/Desktop/GD32F30x_Demo_Suites_V2.0.0/GD32F30x_Demo_Suites_V2.0.0/GD32F30x_Firmware_Library/GD32F30x_standard_peripheral/Source\gd32f30x_sdio.c ****                 one or more parameters can be selected which are shown as below:
 544:C:/Users/49542/Desktop/GD32F30x_Demo_Suites_V2.0.0/GD32F30x_Demo_Suites_V2.0.0/GD32F30x_Firmware_Library/GD32F30x_standard_peripheral/Source\gd32f30x_sdio.c ****       \arg        SDIO_INT_CCRCERR: SDIO CCRCERR interrupt
 545:C:/Users/49542/Desktop/GD32F30x_Demo_Suites_V2.0.0/GD32F30x_Demo_Suites_V2.0.0/GD32F30x_Firmware_Library/GD32F30x_standard_peripheral/Source\gd32f30x_sdio.c ****       \arg        SDIO_INT_DTCRCERR: SDIO DTCRCERR interrupt
 546:C:/Users/49542/Desktop/GD32F30x_Demo_Suites_V2.0.0/GD32F30x_Demo_Suites_V2.0.0/GD32F30x_Firmware_Library/GD32F30x_standard_peripheral/Source\gd32f30x_sdio.c ****       \arg        SDIO_INT_CMDTMOUT: SDIO CMDTMOUT interrupt
 547:C:/Users/49542/Desktop/GD32F30x_Demo_Suites_V2.0.0/GD32F30x_Demo_Suites_V2.0.0/GD32F30x_Firmware_Library/GD32F30x_standard_peripheral/Source\gd32f30x_sdio.c ****       \arg        SDIO_INT_DTTMOUT: SDIO DTTMOUT interrupt
 548:C:/Users/49542/Desktop/GD32F30x_Demo_Suites_V2.0.0/GD32F30x_Demo_Suites_V2.0.0/GD32F30x_Firmware_Library/GD32F30x_standard_peripheral/Source\gd32f30x_sdio.c ****       \arg        SDIO_INT_TXURE: SDIO TXURE interrupt
 549:C:/Users/49542/Desktop/GD32F30x_Demo_Suites_V2.0.0/GD32F30x_Demo_Suites_V2.0.0/GD32F30x_Firmware_Library/GD32F30x_standard_peripheral/Source\gd32f30x_sdio.c ****       \arg        SDIO_INT_RXORE: SDIO RXORE interrupt
 550:C:/Users/49542/Desktop/GD32F30x_Demo_Suites_V2.0.0/GD32F30x_Demo_Suites_V2.0.0/GD32F30x_Firmware_Library/GD32F30x_standard_peripheral/Source\gd32f30x_sdio.c ****       \arg        SDIO_INT_CMDRECV: SDIO CMDRECV interrupt
 551:C:/Users/49542/Desktop/GD32F30x_Demo_Suites_V2.0.0/GD32F30x_Demo_Suites_V2.0.0/GD32F30x_Firmware_Library/GD32F30x_standard_peripheral/Source\gd32f30x_sdio.c ****       \arg        SDIO_INT_CMDSEND: SDIO CMDSEND interrupt
 552:C:/Users/49542/Desktop/GD32F30x_Demo_Suites_V2.0.0/GD32F30x_Demo_Suites_V2.0.0/GD32F30x_Firmware_Library/GD32F30x_standard_peripheral/Source\gd32f30x_sdio.c ****       \arg        SDIO_INT_DTEND: SDIO DTEND interrupt
 553:C:/Users/49542/Desktop/GD32F30x_Demo_Suites_V2.0.0/GD32F30x_Demo_Suites_V2.0.0/GD32F30x_Firmware_Library/GD32F30x_standard_peripheral/Source\gd32f30x_sdio.c ****       \arg        SDIO_INT_STBITE: SDIO STBITE interrupt
 554:C:/Users/49542/Desktop/GD32F30x_Demo_Suites_V2.0.0/GD32F30x_Demo_Suites_V2.0.0/GD32F30x_Firmware_Library/GD32F30x_standard_peripheral/Source\gd32f30x_sdio.c ****       \arg        SDIO_INT_DTBLKEND: SDIO DTBLKEND interrupt
 555:C:/Users/49542/Desktop/GD32F30x_Demo_Suites_V2.0.0/GD32F30x_Demo_Suites_V2.0.0/GD32F30x_Firmware_Library/GD32F30x_standard_peripheral/Source\gd32f30x_sdio.c ****       \arg        SDIO_INT_CMDRUN: SDIO CMDRUN interrupt
 556:C:/Users/49542/Desktop/GD32F30x_Demo_Suites_V2.0.0/GD32F30x_Demo_Suites_V2.0.0/GD32F30x_Firmware_Library/GD32F30x_standard_peripheral/Source\gd32f30x_sdio.c ****       \arg        SDIO_INT_TXRUN: SDIO TXRUN interrupt
 557:C:/Users/49542/Desktop/GD32F30x_Demo_Suites_V2.0.0/GD32F30x_Demo_Suites_V2.0.0/GD32F30x_Firmware_Library/GD32F30x_standard_peripheral/Source\gd32f30x_sdio.c ****       \arg        SDIO_INT_RXRUN: SDIO RXRUN interrupt
 558:C:/Users/49542/Desktop/GD32F30x_Demo_Suites_V2.0.0/GD32F30x_Demo_Suites_V2.0.0/GD32F30x_Firmware_Library/GD32F30x_standard_peripheral/Source\gd32f30x_sdio.c ****       \arg        SDIO_INT_TFH: SDIO TFH interrupt
 559:C:/Users/49542/Desktop/GD32F30x_Demo_Suites_V2.0.0/GD32F30x_Demo_Suites_V2.0.0/GD32F30x_Firmware_Library/GD32F30x_standard_peripheral/Source\gd32f30x_sdio.c ****       \arg        SDIO_INT_RFH: SDIO RFH interrupt
 560:C:/Users/49542/Desktop/GD32F30x_Demo_Suites_V2.0.0/GD32F30x_Demo_Suites_V2.0.0/GD32F30x_Firmware_Library/GD32F30x_standard_peripheral/Source\gd32f30x_sdio.c ****       \arg        SDIO_INT_TFF: SDIO TFF interrupt
 561:C:/Users/49542/Desktop/GD32F30x_Demo_Suites_V2.0.0/GD32F30x_Demo_Suites_V2.0.0/GD32F30x_Firmware_Library/GD32F30x_standard_peripheral/Source\gd32f30x_sdio.c ****       \arg        SDIO_INT_RFF: SDIO RFF interrupt
 562:C:/Users/49542/Desktop/GD32F30x_Demo_Suites_V2.0.0/GD32F30x_Demo_Suites_V2.0.0/GD32F30x_Firmware_Library/GD32F30x_standard_peripheral/Source\gd32f30x_sdio.c ****       \arg        SDIO_INT_TFE: SDIO TFE interrupt
 563:C:/Users/49542/Desktop/GD32F30x_Demo_Suites_V2.0.0/GD32F30x_Demo_Suites_V2.0.0/GD32F30x_Firmware_Library/GD32F30x_standard_peripheral/Source\gd32f30x_sdio.c ****       \arg        SDIO_INT_RFE: SDIO RFE interrupt
 564:C:/Users/49542/Desktop/GD32F30x_Demo_Suites_V2.0.0/GD32F30x_Demo_Suites_V2.0.0/GD32F30x_Firmware_Library/GD32F30x_standard_peripheral/Source\gd32f30x_sdio.c ****       \arg        SDIO_INT_TXDTVAL: SDIO TXDTVAL interrupt
ARM GAS  C:\Users\49542\AppData\Local\Temp\ccX92vIs.s 			page 38


 565:C:/Users/49542/Desktop/GD32F30x_Demo_Suites_V2.0.0/GD32F30x_Demo_Suites_V2.0.0/GD32F30x_Firmware_Library/GD32F30x_standard_peripheral/Source\gd32f30x_sdio.c ****       \arg        SDIO_INT_RXDTVAL: SDIO RXDTVAL interrupt
 566:C:/Users/49542/Desktop/GD32F30x_Demo_Suites_V2.0.0/GD32F30x_Demo_Suites_V2.0.0/GD32F30x_Firmware_Library/GD32F30x_standard_peripheral/Source\gd32f30x_sdio.c ****       \arg        SDIO_INT_SDIOINT: SDIO SDIOINT interrupt
 567:C:/Users/49542/Desktop/GD32F30x_Demo_Suites_V2.0.0/GD32F30x_Demo_Suites_V2.0.0/GD32F30x_Firmware_Library/GD32F30x_standard_peripheral/Source\gd32f30x_sdio.c ****       \arg        SDIO_INT_ATAEND: SDIO ATAEND interrupt
 568:C:/Users/49542/Desktop/GD32F30x_Demo_Suites_V2.0.0/GD32F30x_Demo_Suites_V2.0.0/GD32F30x_Firmware_Library/GD32F30x_standard_peripheral/Source\gd32f30x_sdio.c ****     \param[out] none
 569:C:/Users/49542/Desktop/GD32F30x_Demo_Suites_V2.0.0/GD32F30x_Demo_Suites_V2.0.0/GD32F30x_Firmware_Library/GD32F30x_standard_peripheral/Source\gd32f30x_sdio.c ****     \retval     none
 570:C:/Users/49542/Desktop/GD32F30x_Demo_Suites_V2.0.0/GD32F30x_Demo_Suites_V2.0.0/GD32F30x_Firmware_Library/GD32F30x_standard_peripheral/Source\gd32f30x_sdio.c **** */
 571:C:/Users/49542/Desktop/GD32F30x_Demo_Suites_V2.0.0/GD32F30x_Demo_Suites_V2.0.0/GD32F30x_Firmware_Library/GD32F30x_standard_peripheral/Source\gd32f30x_sdio.c **** void sdio_interrupt_disable(uint32_t int_flag)
 572:C:/Users/49542/Desktop/GD32F30x_Demo_Suites_V2.0.0/GD32F30x_Demo_Suites_V2.0.0/GD32F30x_Firmware_Library/GD32F30x_standard_peripheral/Source\gd32f30x_sdio.c **** {
 1603              		.loc 1 572 0
 1604              		.cfi_startproc
 1605              		@ args = 0, pretend = 0, frame = 8
 1606              		@ frame_needed = 1, uses_anonymous_args = 0
 1607              		@ link register save eliminated.
 1608 0000 80B4     		push	{r7}
 1609              	.LCFI136:
 1610              		.cfi_def_cfa_offset 4
 1611              		.cfi_offset 7, -4
 1612 0002 83B0     		sub	sp, sp, #12
 1613              	.LCFI137:
 1614              		.cfi_def_cfa_offset 16
 1615 0004 00AF     		add	r7, sp, #0
 1616              	.LCFI138:
 1617              		.cfi_def_cfa_register 7
 1618 0006 7860     		str	r0, [r7, #4]
 573:C:/Users/49542/Desktop/GD32F30x_Demo_Suites_V2.0.0/GD32F30x_Demo_Suites_V2.0.0/GD32F30x_Firmware_Library/GD32F30x_standard_peripheral/Source\gd32f30x_sdio.c ****     SDIO_INTEN &= ~int_flag;
 1619              		.loc 1 573 0
 1620 0008 064B     		ldr	r3, .L103
 1621 000a 1A68     		ldr	r2, [r3]
 1622 000c 7B68     		ldr	r3, [r7, #4]
 1623 000e DB43     		mvns	r3, r3
 1624 0010 0449     		ldr	r1, .L103
 1625 0012 1340     		ands	r3, r3, r2
 1626 0014 0B60     		str	r3, [r1]
 574:C:/Users/49542/Desktop/GD32F30x_Demo_Suites_V2.0.0/GD32F30x_Demo_Suites_V2.0.0/GD32F30x_Firmware_Library/GD32F30x_standard_peripheral/Source\gd32f30x_sdio.c **** }
 1627              		.loc 1 574 0
 1628 0016 00BF     		nop
 1629 0018 0C37     		adds	r7, r7, #12
 1630              	.LCFI139:
 1631              		.cfi_def_cfa_offset 4
 1632 001a BD46     		mov	sp, r7
 1633              	.LCFI140:
 1634              		.cfi_def_cfa_register 13
 1635              		@ sp needed
 1636 001c 5DF8047B 		ldr	r7, [sp], #4
 1637              	.LCFI141:
 1638              		.cfi_restore 7
 1639              		.cfi_def_cfa_offset 0
 1640 0020 7047     		bx	lr
 1641              	.L104:
 1642 0022 00BF     		.align	2
 1643              	.L103:
 1644 0024 3C800140 		.word	1073840188
 1645              		.cfi_endproc
 1646              	.LFE144:
 1648              		.section	.text.sdio_interrupt_flag_get,"ax",%progbits
 1649              		.align	1
 1650              		.global	sdio_interrupt_flag_get
ARM GAS  C:\Users\49542\AppData\Local\Temp\ccX92vIs.s 			page 39


 1651              		.syntax unified
 1652              		.thumb
 1653              		.thumb_func
 1654              		.fpu fpv4-sp-d16
 1656              	sdio_interrupt_flag_get:
 1657              	.LFB145:
 575:C:/Users/49542/Desktop/GD32F30x_Demo_Suites_V2.0.0/GD32F30x_Demo_Suites_V2.0.0/GD32F30x_Firmware_Library/GD32F30x_standard_peripheral/Source\gd32f30x_sdio.c **** 
 576:C:/Users/49542/Desktop/GD32F30x_Demo_Suites_V2.0.0/GD32F30x_Demo_Suites_V2.0.0/GD32F30x_Firmware_Library/GD32F30x_standard_peripheral/Source\gd32f30x_sdio.c **** /*!
 577:C:/Users/49542/Desktop/GD32F30x_Demo_Suites_V2.0.0/GD32F30x_Demo_Suites_V2.0.0/GD32F30x_Firmware_Library/GD32F30x_standard_peripheral/Source\gd32f30x_sdio.c ****     \brief      get the interrupt flags state of SDIO
 578:C:/Users/49542/Desktop/GD32F30x_Demo_Suites_V2.0.0/GD32F30x_Demo_Suites_V2.0.0/GD32F30x_Firmware_Library/GD32F30x_standard_peripheral/Source\gd32f30x_sdio.c ****     \param[in]  int_flag: interrupt flags state of SDIO
 579:C:/Users/49542/Desktop/GD32F30x_Demo_Suites_V2.0.0/GD32F30x_Demo_Suites_V2.0.0/GD32F30x_Firmware_Library/GD32F30x_standard_peripheral/Source\gd32f30x_sdio.c ****                 one or more parameters can be selected which are shown as below:
 580:C:/Users/49542/Desktop/GD32F30x_Demo_Suites_V2.0.0/GD32F30x_Demo_Suites_V2.0.0/GD32F30x_Firmware_Library/GD32F30x_standard_peripheral/Source\gd32f30x_sdio.c ****       \arg        SDIO_INT_FLAG_CCRCERR: SDIO CCRCERR interrupt flag
 581:C:/Users/49542/Desktop/GD32F30x_Demo_Suites_V2.0.0/GD32F30x_Demo_Suites_V2.0.0/GD32F30x_Firmware_Library/GD32F30x_standard_peripheral/Source\gd32f30x_sdio.c ****       \arg        SDIO_INT_FLAG_DTCRCERR: SDIO DTCRCERR interrupt flag
 582:C:/Users/49542/Desktop/GD32F30x_Demo_Suites_V2.0.0/GD32F30x_Demo_Suites_V2.0.0/GD32F30x_Firmware_Library/GD32F30x_standard_peripheral/Source\gd32f30x_sdio.c ****       \arg        SDIO_INT_FLAG_CMDTMOUT: SDIO CMDTMOUT interrupt flag
 583:C:/Users/49542/Desktop/GD32F30x_Demo_Suites_V2.0.0/GD32F30x_Demo_Suites_V2.0.0/GD32F30x_Firmware_Library/GD32F30x_standard_peripheral/Source\gd32f30x_sdio.c ****       \arg        SDIO_INT_FLAG_DTTMOUT: SDIO DTTMOUT interrupt flag
 584:C:/Users/49542/Desktop/GD32F30x_Demo_Suites_V2.0.0/GD32F30x_Demo_Suites_V2.0.0/GD32F30x_Firmware_Library/GD32F30x_standard_peripheral/Source\gd32f30x_sdio.c ****       \arg        SDIO_INT_FLAG_TXURE: SDIO TXURE interrupt flag
 585:C:/Users/49542/Desktop/GD32F30x_Demo_Suites_V2.0.0/GD32F30x_Demo_Suites_V2.0.0/GD32F30x_Firmware_Library/GD32F30x_standard_peripheral/Source\gd32f30x_sdio.c ****       \arg        SDIO_INT_FLAG_RXORE: SDIO RXORE interrupt flag
 586:C:/Users/49542/Desktop/GD32F30x_Demo_Suites_V2.0.0/GD32F30x_Demo_Suites_V2.0.0/GD32F30x_Firmware_Library/GD32F30x_standard_peripheral/Source\gd32f30x_sdio.c ****       \arg        SDIO_INT_FLAG_CMDRECV: SDIO CMDRECV interrupt flag
 587:C:/Users/49542/Desktop/GD32F30x_Demo_Suites_V2.0.0/GD32F30x_Demo_Suites_V2.0.0/GD32F30x_Firmware_Library/GD32F30x_standard_peripheral/Source\gd32f30x_sdio.c ****       \arg        SDIO_INT_FLAG_CMDSEND: SDIO CMDSEND interrupt flag
 588:C:/Users/49542/Desktop/GD32F30x_Demo_Suites_V2.0.0/GD32F30x_Demo_Suites_V2.0.0/GD32F30x_Firmware_Library/GD32F30x_standard_peripheral/Source\gd32f30x_sdio.c ****       \arg        SDIO_INT_FLAG_DTEND: SDIO DTEND interrupt flag
 589:C:/Users/49542/Desktop/GD32F30x_Demo_Suites_V2.0.0/GD32F30x_Demo_Suites_V2.0.0/GD32F30x_Firmware_Library/GD32F30x_standard_peripheral/Source\gd32f30x_sdio.c ****       \arg        SDIO_INT_FLAG_STBITE: SDIO STBITE interrupt flag
 590:C:/Users/49542/Desktop/GD32F30x_Demo_Suites_V2.0.0/GD32F30x_Demo_Suites_V2.0.0/GD32F30x_Firmware_Library/GD32F30x_standard_peripheral/Source\gd32f30x_sdio.c ****       \arg        SDIO_INT_FLAG_DTBLKEND: SDIO DTBLKEND interrupt flag
 591:C:/Users/49542/Desktop/GD32F30x_Demo_Suites_V2.0.0/GD32F30x_Demo_Suites_V2.0.0/GD32F30x_Firmware_Library/GD32F30x_standard_peripheral/Source\gd32f30x_sdio.c ****       \arg        SDIO_INT_FLAG_CMDRUN: SDIO CMDRUN interrupt flag
 592:C:/Users/49542/Desktop/GD32F30x_Demo_Suites_V2.0.0/GD32F30x_Demo_Suites_V2.0.0/GD32F30x_Firmware_Library/GD32F30x_standard_peripheral/Source\gd32f30x_sdio.c ****       \arg        SDIO_INT_FLAG_TXRUN: SDIO TXRUN interrupt flag
 593:C:/Users/49542/Desktop/GD32F30x_Demo_Suites_V2.0.0/GD32F30x_Demo_Suites_V2.0.0/GD32F30x_Firmware_Library/GD32F30x_standard_peripheral/Source\gd32f30x_sdio.c ****       \arg        SDIO_INT_FLAG_RXRUN: SDIO RXRUN interrupt flag
 594:C:/Users/49542/Desktop/GD32F30x_Demo_Suites_V2.0.0/GD32F30x_Demo_Suites_V2.0.0/GD32F30x_Firmware_Library/GD32F30x_standard_peripheral/Source\gd32f30x_sdio.c ****       \arg        SDIO_INT_FLAG_TFH: SDIO TFH interrupt flag
 595:C:/Users/49542/Desktop/GD32F30x_Demo_Suites_V2.0.0/GD32F30x_Demo_Suites_V2.0.0/GD32F30x_Firmware_Library/GD32F30x_standard_peripheral/Source\gd32f30x_sdio.c ****       \arg        SDIO_INT_FLAG_RFH: SDIO RFH interrupt flag
 596:C:/Users/49542/Desktop/GD32F30x_Demo_Suites_V2.0.0/GD32F30x_Demo_Suites_V2.0.0/GD32F30x_Firmware_Library/GD32F30x_standard_peripheral/Source\gd32f30x_sdio.c ****       \arg        SDIO_INT_FLAG_TFF: SDIO TFF interrupt flag
 597:C:/Users/49542/Desktop/GD32F30x_Demo_Suites_V2.0.0/GD32F30x_Demo_Suites_V2.0.0/GD32F30x_Firmware_Library/GD32F30x_standard_peripheral/Source\gd32f30x_sdio.c ****       \arg        SDIO_INT_FLAG_RFF: SDIO RFF interrupt flag
 598:C:/Users/49542/Desktop/GD32F30x_Demo_Suites_V2.0.0/GD32F30x_Demo_Suites_V2.0.0/GD32F30x_Firmware_Library/GD32F30x_standard_peripheral/Source\gd32f30x_sdio.c ****       \arg        SDIO_INT_FLAG_TFE: SDIO TFE interrupt flag
 599:C:/Users/49542/Desktop/GD32F30x_Demo_Suites_V2.0.0/GD32F30x_Demo_Suites_V2.0.0/GD32F30x_Firmware_Library/GD32F30x_standard_peripheral/Source\gd32f30x_sdio.c ****       \arg        SDIO_INT_FLAG_RFE: SDIO RFE interrupt flag
 600:C:/Users/49542/Desktop/GD32F30x_Demo_Suites_V2.0.0/GD32F30x_Demo_Suites_V2.0.0/GD32F30x_Firmware_Library/GD32F30x_standard_peripheral/Source\gd32f30x_sdio.c ****       \arg        SDIO_INT_FLAG_TXDTVAL: SDIO TXDTVAL interrupt flag
 601:C:/Users/49542/Desktop/GD32F30x_Demo_Suites_V2.0.0/GD32F30x_Demo_Suites_V2.0.0/GD32F30x_Firmware_Library/GD32F30x_standard_peripheral/Source\gd32f30x_sdio.c ****       \arg        SDIO_INT_FLAG_RXDTVAL: SDIO RXDTVAL interrupt flag
 602:C:/Users/49542/Desktop/GD32F30x_Demo_Suites_V2.0.0/GD32F30x_Demo_Suites_V2.0.0/GD32F30x_Firmware_Library/GD32F30x_standard_peripheral/Source\gd32f30x_sdio.c ****       \arg        SDIO_INT_FLAG_SDIOINT: SDIO SDIOINT interrupt flag
 603:C:/Users/49542/Desktop/GD32F30x_Demo_Suites_V2.0.0/GD32F30x_Demo_Suites_V2.0.0/GD32F30x_Firmware_Library/GD32F30x_standard_peripheral/Source\gd32f30x_sdio.c ****       \arg        SDIO_INT_FLAG_ATAEND: SDIO ATAEND interrupt flag
 604:C:/Users/49542/Desktop/GD32F30x_Demo_Suites_V2.0.0/GD32F30x_Demo_Suites_V2.0.0/GD32F30x_Firmware_Library/GD32F30x_standard_peripheral/Source\gd32f30x_sdio.c ****     \param[out] none
 605:C:/Users/49542/Desktop/GD32F30x_Demo_Suites_V2.0.0/GD32F30x_Demo_Suites_V2.0.0/GD32F30x_Firmware_Library/GD32F30x_standard_peripheral/Source\gd32f30x_sdio.c ****     \retval     FlagStatus: SET or RESET
 606:C:/Users/49542/Desktop/GD32F30x_Demo_Suites_V2.0.0/GD32F30x_Demo_Suites_V2.0.0/GD32F30x_Firmware_Library/GD32F30x_standard_peripheral/Source\gd32f30x_sdio.c **** */
 607:C:/Users/49542/Desktop/GD32F30x_Demo_Suites_V2.0.0/GD32F30x_Demo_Suites_V2.0.0/GD32F30x_Firmware_Library/GD32F30x_standard_peripheral/Source\gd32f30x_sdio.c **** FlagStatus sdio_interrupt_flag_get(uint32_t int_flag)
 608:C:/Users/49542/Desktop/GD32F30x_Demo_Suites_V2.0.0/GD32F30x_Demo_Suites_V2.0.0/GD32F30x_Firmware_Library/GD32F30x_standard_peripheral/Source\gd32f30x_sdio.c **** {
 1658              		.loc 1 608 0
 1659              		.cfi_startproc
 1660              		@ args = 0, pretend = 0, frame = 8
 1661              		@ frame_needed = 1, uses_anonymous_args = 0
 1662              		@ link register save eliminated.
 1663 0000 80B4     		push	{r7}
 1664              	.LCFI142:
 1665              		.cfi_def_cfa_offset 4
 1666              		.cfi_offset 7, -4
 1667 0002 83B0     		sub	sp, sp, #12
 1668              	.LCFI143:
 1669              		.cfi_def_cfa_offset 16
 1670 0004 00AF     		add	r7, sp, #0
 1671              	.LCFI144:
 1672              		.cfi_def_cfa_register 7
 1673 0006 7860     		str	r0, [r7, #4]
 609:C:/Users/49542/Desktop/GD32F30x_Demo_Suites_V2.0.0/GD32F30x_Demo_Suites_V2.0.0/GD32F30x_Firmware_Library/GD32F30x_standard_peripheral/Source\gd32f30x_sdio.c ****     if(RESET != (SDIO_STAT & int_flag)){
ARM GAS  C:\Users\49542\AppData\Local\Temp\ccX92vIs.s 			page 40


 1674              		.loc 1 609 0
 1675 0008 074B     		ldr	r3, .L108
 1676 000a 1A68     		ldr	r2, [r3]
 1677 000c 7B68     		ldr	r3, [r7, #4]
 1678 000e 1340     		ands	r3, r3, r2
 1679 0010 002B     		cmp	r3, #0
 1680 0012 01D0     		beq	.L106
 610:C:/Users/49542/Desktop/GD32F30x_Demo_Suites_V2.0.0/GD32F30x_Demo_Suites_V2.0.0/GD32F30x_Firmware_Library/GD32F30x_standard_peripheral/Source\gd32f30x_sdio.c ****         return SET;
 1681              		.loc 1 610 0
 1682 0014 0123     		movs	r3, #1
 1683 0016 00E0     		b	.L107
 1684              	.L106:
 611:C:/Users/49542/Desktop/GD32F30x_Demo_Suites_V2.0.0/GD32F30x_Demo_Suites_V2.0.0/GD32F30x_Firmware_Library/GD32F30x_standard_peripheral/Source\gd32f30x_sdio.c ****     }
 612:C:/Users/49542/Desktop/GD32F30x_Demo_Suites_V2.0.0/GD32F30x_Demo_Suites_V2.0.0/GD32F30x_Firmware_Library/GD32F30x_standard_peripheral/Source\gd32f30x_sdio.c ****     return RESET;
 1685              		.loc 1 612 0
 1686 0018 0023     		movs	r3, #0
 1687              	.L107:
 613:C:/Users/49542/Desktop/GD32F30x_Demo_Suites_V2.0.0/GD32F30x_Demo_Suites_V2.0.0/GD32F30x_Firmware_Library/GD32F30x_standard_peripheral/Source\gd32f30x_sdio.c **** }
 1688              		.loc 1 613 0
 1689 001a 1846     		mov	r0, r3
 1690 001c 0C37     		adds	r7, r7, #12
 1691              	.LCFI145:
 1692              		.cfi_def_cfa_offset 4
 1693 001e BD46     		mov	sp, r7
 1694              	.LCFI146:
 1695              		.cfi_def_cfa_register 13
 1696              		@ sp needed
 1697 0020 5DF8047B 		ldr	r7, [sp], #4
 1698              	.LCFI147:
 1699              		.cfi_restore 7
 1700              		.cfi_def_cfa_offset 0
 1701 0024 7047     		bx	lr
 1702              	.L109:
 1703 0026 00BF     		.align	2
 1704              	.L108:
 1705 0028 34800140 		.word	1073840180
 1706              		.cfi_endproc
 1707              	.LFE145:
 1709              		.section	.text.sdio_interrupt_flag_clear,"ax",%progbits
 1710              		.align	1
 1711              		.global	sdio_interrupt_flag_clear
 1712              		.syntax unified
 1713              		.thumb
 1714              		.thumb_func
 1715              		.fpu fpv4-sp-d16
 1717              	sdio_interrupt_flag_clear:
 1718              	.LFB146:
 614:C:/Users/49542/Desktop/GD32F30x_Demo_Suites_V2.0.0/GD32F30x_Demo_Suites_V2.0.0/GD32F30x_Firmware_Library/GD32F30x_standard_peripheral/Source\gd32f30x_sdio.c **** 
 615:C:/Users/49542/Desktop/GD32F30x_Demo_Suites_V2.0.0/GD32F30x_Demo_Suites_V2.0.0/GD32F30x_Firmware_Library/GD32F30x_standard_peripheral/Source\gd32f30x_sdio.c **** /*!
 616:C:/Users/49542/Desktop/GD32F30x_Demo_Suites_V2.0.0/GD32F30x_Demo_Suites_V2.0.0/GD32F30x_Firmware_Library/GD32F30x_standard_peripheral/Source\gd32f30x_sdio.c ****     \brief      clear the interrupt pending flags of SDIO
 617:C:/Users/49542/Desktop/GD32F30x_Demo_Suites_V2.0.0/GD32F30x_Demo_Suites_V2.0.0/GD32F30x_Firmware_Library/GD32F30x_standard_peripheral/Source\gd32f30x_sdio.c ****     \param[in]  int_flag: interrupt flags state of SDIO
 618:C:/Users/49542/Desktop/GD32F30x_Demo_Suites_V2.0.0/GD32F30x_Demo_Suites_V2.0.0/GD32F30x_Firmware_Library/GD32F30x_standard_peripheral/Source\gd32f30x_sdio.c ****                 one or more parameters can be selected which are shown as below:
 619:C:/Users/49542/Desktop/GD32F30x_Demo_Suites_V2.0.0/GD32F30x_Demo_Suites_V2.0.0/GD32F30x_Firmware_Library/GD32F30x_standard_peripheral/Source\gd32f30x_sdio.c ****       \arg        SDIO_INT_FLAG_CCRCERR: command response received (CRC check failed) flag
 620:C:/Users/49542/Desktop/GD32F30x_Demo_Suites_V2.0.0/GD32F30x_Demo_Suites_V2.0.0/GD32F30x_Firmware_Library/GD32F30x_standard_peripheral/Source\gd32f30x_sdio.c ****       \arg        SDIO_INT_FLAG_DTCRCERR: data block sent/received (CRC check failed) flag
 621:C:/Users/49542/Desktop/GD32F30x_Demo_Suites_V2.0.0/GD32F30x_Demo_Suites_V2.0.0/GD32F30x_Firmware_Library/GD32F30x_standard_peripheral/Source\gd32f30x_sdio.c ****       \arg        SDIO_INT_FLAG_CMDTMOUT: command response timeout flag
 622:C:/Users/49542/Desktop/GD32F30x_Demo_Suites_V2.0.0/GD32F30x_Demo_Suites_V2.0.0/GD32F30x_Firmware_Library/GD32F30x_standard_peripheral/Source\gd32f30x_sdio.c ****       \arg        SDIO_INT_FLAG_DTTMOUT: data timeout flag
 623:C:/Users/49542/Desktop/GD32F30x_Demo_Suites_V2.0.0/GD32F30x_Demo_Suites_V2.0.0/GD32F30x_Firmware_Library/GD32F30x_standard_peripheral/Source\gd32f30x_sdio.c ****       \arg        SDIO_INT_FLAG_TXURE: transmit FIFO underrun error occurs flag
ARM GAS  C:\Users\49542\AppData\Local\Temp\ccX92vIs.s 			page 41


 624:C:/Users/49542/Desktop/GD32F30x_Demo_Suites_V2.0.0/GD32F30x_Demo_Suites_V2.0.0/GD32F30x_Firmware_Library/GD32F30x_standard_peripheral/Source\gd32f30x_sdio.c ****       \arg        SDIO_INT_FLAG_RXORE: received FIFO overrun error occurs flag
 625:C:/Users/49542/Desktop/GD32F30x_Demo_Suites_V2.0.0/GD32F30x_Demo_Suites_V2.0.0/GD32F30x_Firmware_Library/GD32F30x_standard_peripheral/Source\gd32f30x_sdio.c ****       \arg        SDIO_INT_FLAG_CMDRECV: command response received (CRC check passed) flag
 626:C:/Users/49542/Desktop/GD32F30x_Demo_Suites_V2.0.0/GD32F30x_Demo_Suites_V2.0.0/GD32F30x_Firmware_Library/GD32F30x_standard_peripheral/Source\gd32f30x_sdio.c ****       \arg        SDIO_INT_FLAG_CMDSEND: command sent (no response required) flag
 627:C:/Users/49542/Desktop/GD32F30x_Demo_Suites_V2.0.0/GD32F30x_Demo_Suites_V2.0.0/GD32F30x_Firmware_Library/GD32F30x_standard_peripheral/Source\gd32f30x_sdio.c ****       \arg        SDIO_INT_FLAG_DTEND: data end (data counter, SDIO_DATACNT, is zero) flag
 628:C:/Users/49542/Desktop/GD32F30x_Demo_Suites_V2.0.0/GD32F30x_Demo_Suites_V2.0.0/GD32F30x_Firmware_Library/GD32F30x_standard_peripheral/Source\gd32f30x_sdio.c ****       \arg        SDIO_INT_FLAG_STBITE: start bit error in the bus flag
 629:C:/Users/49542/Desktop/GD32F30x_Demo_Suites_V2.0.0/GD32F30x_Demo_Suites_V2.0.0/GD32F30x_Firmware_Library/GD32F30x_standard_peripheral/Source\gd32f30x_sdio.c ****       \arg        SDIO_INT_FLAG_DTBLKEND: data block sent/received (CRC check passed) flag
 630:C:/Users/49542/Desktop/GD32F30x_Demo_Suites_V2.0.0/GD32F30x_Demo_Suites_V2.0.0/GD32F30x_Firmware_Library/GD32F30x_standard_peripheral/Source\gd32f30x_sdio.c ****       \arg        SDIO_INT_FLAG_SDIOINT: SD I/O interrupt received flag
 631:C:/Users/49542/Desktop/GD32F30x_Demo_Suites_V2.0.0/GD32F30x_Demo_Suites_V2.0.0/GD32F30x_Firmware_Library/GD32F30x_standard_peripheral/Source\gd32f30x_sdio.c ****       \arg        SDIO_INT_FLAG_ATAEND: CE-ATA command completion signal received (only for CMD61) 
 632:C:/Users/49542/Desktop/GD32F30x_Demo_Suites_V2.0.0/GD32F30x_Demo_Suites_V2.0.0/GD32F30x_Firmware_Library/GD32F30x_standard_peripheral/Source\gd32f30x_sdio.c ****     \param[out] none
 633:C:/Users/49542/Desktop/GD32F30x_Demo_Suites_V2.0.0/GD32F30x_Demo_Suites_V2.0.0/GD32F30x_Firmware_Library/GD32F30x_standard_peripheral/Source\gd32f30x_sdio.c ****     \retval     none
 634:C:/Users/49542/Desktop/GD32F30x_Demo_Suites_V2.0.0/GD32F30x_Demo_Suites_V2.0.0/GD32F30x_Firmware_Library/GD32F30x_standard_peripheral/Source\gd32f30x_sdio.c **** */
 635:C:/Users/49542/Desktop/GD32F30x_Demo_Suites_V2.0.0/GD32F30x_Demo_Suites_V2.0.0/GD32F30x_Firmware_Library/GD32F30x_standard_peripheral/Source\gd32f30x_sdio.c **** void sdio_interrupt_flag_clear(uint32_t int_flag)
 636:C:/Users/49542/Desktop/GD32F30x_Demo_Suites_V2.0.0/GD32F30x_Demo_Suites_V2.0.0/GD32F30x_Firmware_Library/GD32F30x_standard_peripheral/Source\gd32f30x_sdio.c **** {
 1719              		.loc 1 636 0
 1720              		.cfi_startproc
 1721              		@ args = 0, pretend = 0, frame = 8
 1722              		@ frame_needed = 1, uses_anonymous_args = 0
 1723              		@ link register save eliminated.
 1724 0000 80B4     		push	{r7}
 1725              	.LCFI148:
 1726              		.cfi_def_cfa_offset 4
 1727              		.cfi_offset 7, -4
 1728 0002 83B0     		sub	sp, sp, #12
 1729              	.LCFI149:
 1730              		.cfi_def_cfa_offset 16
 1731 0004 00AF     		add	r7, sp, #0
 1732              	.LCFI150:
 1733              		.cfi_def_cfa_register 7
 1734 0006 7860     		str	r0, [r7, #4]
 637:C:/Users/49542/Desktop/GD32F30x_Demo_Suites_V2.0.0/GD32F30x_Demo_Suites_V2.0.0/GD32F30x_Firmware_Library/GD32F30x_standard_peripheral/Source\gd32f30x_sdio.c ****     SDIO_INTC = int_flag;
 1735              		.loc 1 637 0
 1736 0008 044A     		ldr	r2, .L111
 1737 000a 7B68     		ldr	r3, [r7, #4]
 1738 000c 1360     		str	r3, [r2]
 638:C:/Users/49542/Desktop/GD32F30x_Demo_Suites_V2.0.0/GD32F30x_Demo_Suites_V2.0.0/GD32F30x_Firmware_Library/GD32F30x_standard_peripheral/Source\gd32f30x_sdio.c **** }
 1739              		.loc 1 638 0
 1740 000e 00BF     		nop
 1741 0010 0C37     		adds	r7, r7, #12
 1742              	.LCFI151:
 1743              		.cfi_def_cfa_offset 4
 1744 0012 BD46     		mov	sp, r7
 1745              	.LCFI152:
 1746              		.cfi_def_cfa_register 13
 1747              		@ sp needed
 1748 0014 5DF8047B 		ldr	r7, [sp], #4
 1749              	.LCFI153:
 1750              		.cfi_restore 7
 1751              		.cfi_def_cfa_offset 0
 1752 0018 7047     		bx	lr
 1753              	.L112:
 1754 001a 00BF     		.align	2
 1755              	.L111:
 1756 001c 38800140 		.word	1073840184
 1757              		.cfi_endproc
 1758              	.LFE146:
 1760              		.section	.text.sdio_readwait_enable,"ax",%progbits
 1761              		.align	1
ARM GAS  C:\Users\49542\AppData\Local\Temp\ccX92vIs.s 			page 42


 1762              		.global	sdio_readwait_enable
 1763              		.syntax unified
 1764              		.thumb
 1765              		.thumb_func
 1766              		.fpu fpv4-sp-d16
 1768              	sdio_readwait_enable:
 1769              	.LFB147:
 639:C:/Users/49542/Desktop/GD32F30x_Demo_Suites_V2.0.0/GD32F30x_Demo_Suites_V2.0.0/GD32F30x_Firmware_Library/GD32F30x_standard_peripheral/Source\gd32f30x_sdio.c **** 
 640:C:/Users/49542/Desktop/GD32F30x_Demo_Suites_V2.0.0/GD32F30x_Demo_Suites_V2.0.0/GD32F30x_Firmware_Library/GD32F30x_standard_peripheral/Source\gd32f30x_sdio.c **** /*!
 641:C:/Users/49542/Desktop/GD32F30x_Demo_Suites_V2.0.0/GD32F30x_Demo_Suites_V2.0.0/GD32F30x_Firmware_Library/GD32F30x_standard_peripheral/Source\gd32f30x_sdio.c ****     \brief      enable the read wait mode(SD I/O only)
 642:C:/Users/49542/Desktop/GD32F30x_Demo_Suites_V2.0.0/GD32F30x_Demo_Suites_V2.0.0/GD32F30x_Firmware_Library/GD32F30x_standard_peripheral/Source\gd32f30x_sdio.c ****     \param[in]  none
 643:C:/Users/49542/Desktop/GD32F30x_Demo_Suites_V2.0.0/GD32F30x_Demo_Suites_V2.0.0/GD32F30x_Firmware_Library/GD32F30x_standard_peripheral/Source\gd32f30x_sdio.c ****     \param[out] none
 644:C:/Users/49542/Desktop/GD32F30x_Demo_Suites_V2.0.0/GD32F30x_Demo_Suites_V2.0.0/GD32F30x_Firmware_Library/GD32F30x_standard_peripheral/Source\gd32f30x_sdio.c ****     \retval     none
 645:C:/Users/49542/Desktop/GD32F30x_Demo_Suites_V2.0.0/GD32F30x_Demo_Suites_V2.0.0/GD32F30x_Firmware_Library/GD32F30x_standard_peripheral/Source\gd32f30x_sdio.c **** */
 646:C:/Users/49542/Desktop/GD32F30x_Demo_Suites_V2.0.0/GD32F30x_Demo_Suites_V2.0.0/GD32F30x_Firmware_Library/GD32F30x_standard_peripheral/Source\gd32f30x_sdio.c **** void sdio_readwait_enable(void)
 647:C:/Users/49542/Desktop/GD32F30x_Demo_Suites_V2.0.0/GD32F30x_Demo_Suites_V2.0.0/GD32F30x_Firmware_Library/GD32F30x_standard_peripheral/Source\gd32f30x_sdio.c **** {
 1770              		.loc 1 647 0
 1771              		.cfi_startproc
 1772              		@ args = 0, pretend = 0, frame = 0
 1773              		@ frame_needed = 1, uses_anonymous_args = 0
 1774              		@ link register save eliminated.
 1775 0000 80B4     		push	{r7}
 1776              	.LCFI154:
 1777              		.cfi_def_cfa_offset 4
 1778              		.cfi_offset 7, -4
 1779 0002 00AF     		add	r7, sp, #0
 1780              	.LCFI155:
 1781              		.cfi_def_cfa_register 7
 648:C:/Users/49542/Desktop/GD32F30x_Demo_Suites_V2.0.0/GD32F30x_Demo_Suites_V2.0.0/GD32F30x_Firmware_Library/GD32F30x_standard_peripheral/Source\gd32f30x_sdio.c ****     SDIO_DATACTL |= SDIO_DATACTL_RWEN;
 1782              		.loc 1 648 0
 1783 0004 054B     		ldr	r3, .L114
 1784 0006 1B68     		ldr	r3, [r3]
 1785 0008 044A     		ldr	r2, .L114
 1786 000a 43F48073 		orr	r3, r3, #256
 1787 000e 1360     		str	r3, [r2]
 649:C:/Users/49542/Desktop/GD32F30x_Demo_Suites_V2.0.0/GD32F30x_Demo_Suites_V2.0.0/GD32F30x_Firmware_Library/GD32F30x_standard_peripheral/Source\gd32f30x_sdio.c **** }
 1788              		.loc 1 649 0
 1789 0010 00BF     		nop
 1790 0012 BD46     		mov	sp, r7
 1791              	.LCFI156:
 1792              		.cfi_def_cfa_register 13
 1793              		@ sp needed
 1794 0014 5DF8047B 		ldr	r7, [sp], #4
 1795              	.LCFI157:
 1796              		.cfi_restore 7
 1797              		.cfi_def_cfa_offset 0
 1798 0018 7047     		bx	lr
 1799              	.L115:
 1800 001a 00BF     		.align	2
 1801              	.L114:
 1802 001c 2C800140 		.word	1073840172
 1803              		.cfi_endproc
 1804              	.LFE147:
 1806              		.section	.text.sdio_readwait_disable,"ax",%progbits
 1807              		.align	1
 1808              		.global	sdio_readwait_disable
 1809              		.syntax unified
ARM GAS  C:\Users\49542\AppData\Local\Temp\ccX92vIs.s 			page 43


 1810              		.thumb
 1811              		.thumb_func
 1812              		.fpu fpv4-sp-d16
 1814              	sdio_readwait_disable:
 1815              	.LFB148:
 650:C:/Users/49542/Desktop/GD32F30x_Demo_Suites_V2.0.0/GD32F30x_Demo_Suites_V2.0.0/GD32F30x_Firmware_Library/GD32F30x_standard_peripheral/Source\gd32f30x_sdio.c **** 
 651:C:/Users/49542/Desktop/GD32F30x_Demo_Suites_V2.0.0/GD32F30x_Demo_Suites_V2.0.0/GD32F30x_Firmware_Library/GD32F30x_standard_peripheral/Source\gd32f30x_sdio.c **** /*!
 652:C:/Users/49542/Desktop/GD32F30x_Demo_Suites_V2.0.0/GD32F30x_Demo_Suites_V2.0.0/GD32F30x_Firmware_Library/GD32F30x_standard_peripheral/Source\gd32f30x_sdio.c ****     \brief      disable the read wait mode(SD I/O only)
 653:C:/Users/49542/Desktop/GD32F30x_Demo_Suites_V2.0.0/GD32F30x_Demo_Suites_V2.0.0/GD32F30x_Firmware_Library/GD32F30x_standard_peripheral/Source\gd32f30x_sdio.c ****     \param[in]  none
 654:C:/Users/49542/Desktop/GD32F30x_Demo_Suites_V2.0.0/GD32F30x_Demo_Suites_V2.0.0/GD32F30x_Firmware_Library/GD32F30x_standard_peripheral/Source\gd32f30x_sdio.c ****     \param[out] none
 655:C:/Users/49542/Desktop/GD32F30x_Demo_Suites_V2.0.0/GD32F30x_Demo_Suites_V2.0.0/GD32F30x_Firmware_Library/GD32F30x_standard_peripheral/Source\gd32f30x_sdio.c ****     \retval     none
 656:C:/Users/49542/Desktop/GD32F30x_Demo_Suites_V2.0.0/GD32F30x_Demo_Suites_V2.0.0/GD32F30x_Firmware_Library/GD32F30x_standard_peripheral/Source\gd32f30x_sdio.c **** */
 657:C:/Users/49542/Desktop/GD32F30x_Demo_Suites_V2.0.0/GD32F30x_Demo_Suites_V2.0.0/GD32F30x_Firmware_Library/GD32F30x_standard_peripheral/Source\gd32f30x_sdio.c **** void sdio_readwait_disable(void)
 658:C:/Users/49542/Desktop/GD32F30x_Demo_Suites_V2.0.0/GD32F30x_Demo_Suites_V2.0.0/GD32F30x_Firmware_Library/GD32F30x_standard_peripheral/Source\gd32f30x_sdio.c **** {
 1816              		.loc 1 658 0
 1817              		.cfi_startproc
 1818              		@ args = 0, pretend = 0, frame = 0
 1819              		@ frame_needed = 1, uses_anonymous_args = 0
 1820              		@ link register save eliminated.
 1821 0000 80B4     		push	{r7}
 1822              	.LCFI158:
 1823              		.cfi_def_cfa_offset 4
 1824              		.cfi_offset 7, -4
 1825 0002 00AF     		add	r7, sp, #0
 1826              	.LCFI159:
 1827              		.cfi_def_cfa_register 7
 659:C:/Users/49542/Desktop/GD32F30x_Demo_Suites_V2.0.0/GD32F30x_Demo_Suites_V2.0.0/GD32F30x_Firmware_Library/GD32F30x_standard_peripheral/Source\gd32f30x_sdio.c ****     SDIO_DATACTL &= ~SDIO_DATACTL_RWEN;
 1828              		.loc 1 659 0
 1829 0004 054B     		ldr	r3, .L117
 1830 0006 1B68     		ldr	r3, [r3]
 1831 0008 044A     		ldr	r2, .L117
 1832 000a 23F48073 		bic	r3, r3, #256
 1833 000e 1360     		str	r3, [r2]
 660:C:/Users/49542/Desktop/GD32F30x_Demo_Suites_V2.0.0/GD32F30x_Demo_Suites_V2.0.0/GD32F30x_Firmware_Library/GD32F30x_standard_peripheral/Source\gd32f30x_sdio.c **** }
 1834              		.loc 1 660 0
 1835 0010 00BF     		nop
 1836 0012 BD46     		mov	sp, r7
 1837              	.LCFI160:
 1838              		.cfi_def_cfa_register 13
 1839              		@ sp needed
 1840 0014 5DF8047B 		ldr	r7, [sp], #4
 1841              	.LCFI161:
 1842              		.cfi_restore 7
 1843              		.cfi_def_cfa_offset 0
 1844 0018 7047     		bx	lr
 1845              	.L118:
 1846 001a 00BF     		.align	2
 1847              	.L117:
 1848 001c 2C800140 		.word	1073840172
 1849              		.cfi_endproc
 1850              	.LFE148:
 1852              		.section	.text.sdio_stop_readwait_enable,"ax",%progbits
 1853              		.align	1
 1854              		.global	sdio_stop_readwait_enable
 1855              		.syntax unified
 1856              		.thumb
 1857              		.thumb_func
ARM GAS  C:\Users\49542\AppData\Local\Temp\ccX92vIs.s 			page 44


 1858              		.fpu fpv4-sp-d16
 1860              	sdio_stop_readwait_enable:
 1861              	.LFB149:
 661:C:/Users/49542/Desktop/GD32F30x_Demo_Suites_V2.0.0/GD32F30x_Demo_Suites_V2.0.0/GD32F30x_Firmware_Library/GD32F30x_standard_peripheral/Source\gd32f30x_sdio.c **** 
 662:C:/Users/49542/Desktop/GD32F30x_Demo_Suites_V2.0.0/GD32F30x_Demo_Suites_V2.0.0/GD32F30x_Firmware_Library/GD32F30x_standard_peripheral/Source\gd32f30x_sdio.c **** /*!
 663:C:/Users/49542/Desktop/GD32F30x_Demo_Suites_V2.0.0/GD32F30x_Demo_Suites_V2.0.0/GD32F30x_Firmware_Library/GD32F30x_standard_peripheral/Source\gd32f30x_sdio.c ****     \brief      enable the function that stop the read wait process(SD I/O only)
 664:C:/Users/49542/Desktop/GD32F30x_Demo_Suites_V2.0.0/GD32F30x_Demo_Suites_V2.0.0/GD32F30x_Firmware_Library/GD32F30x_standard_peripheral/Source\gd32f30x_sdio.c ****     \param[in]  none
 665:C:/Users/49542/Desktop/GD32F30x_Demo_Suites_V2.0.0/GD32F30x_Demo_Suites_V2.0.0/GD32F30x_Firmware_Library/GD32F30x_standard_peripheral/Source\gd32f30x_sdio.c ****     \param[out] none
 666:C:/Users/49542/Desktop/GD32F30x_Demo_Suites_V2.0.0/GD32F30x_Demo_Suites_V2.0.0/GD32F30x_Firmware_Library/GD32F30x_standard_peripheral/Source\gd32f30x_sdio.c ****     \retval     none
 667:C:/Users/49542/Desktop/GD32F30x_Demo_Suites_V2.0.0/GD32F30x_Demo_Suites_V2.0.0/GD32F30x_Firmware_Library/GD32F30x_standard_peripheral/Source\gd32f30x_sdio.c **** */
 668:C:/Users/49542/Desktop/GD32F30x_Demo_Suites_V2.0.0/GD32F30x_Demo_Suites_V2.0.0/GD32F30x_Firmware_Library/GD32F30x_standard_peripheral/Source\gd32f30x_sdio.c **** void sdio_stop_readwait_enable(void)
 669:C:/Users/49542/Desktop/GD32F30x_Demo_Suites_V2.0.0/GD32F30x_Demo_Suites_V2.0.0/GD32F30x_Firmware_Library/GD32F30x_standard_peripheral/Source\gd32f30x_sdio.c **** {
 1862              		.loc 1 669 0
 1863              		.cfi_startproc
 1864              		@ args = 0, pretend = 0, frame = 0
 1865              		@ frame_needed = 1, uses_anonymous_args = 0
 1866              		@ link register save eliminated.
 1867 0000 80B4     		push	{r7}
 1868              	.LCFI162:
 1869              		.cfi_def_cfa_offset 4
 1870              		.cfi_offset 7, -4
 1871 0002 00AF     		add	r7, sp, #0
 1872              	.LCFI163:
 1873              		.cfi_def_cfa_register 7
 670:C:/Users/49542/Desktop/GD32F30x_Demo_Suites_V2.0.0/GD32F30x_Demo_Suites_V2.0.0/GD32F30x_Firmware_Library/GD32F30x_standard_peripheral/Source\gd32f30x_sdio.c ****     SDIO_DATACTL |= SDIO_DATACTL_RWSTOP;
 1874              		.loc 1 670 0
 1875 0004 054B     		ldr	r3, .L120
 1876 0006 1B68     		ldr	r3, [r3]
 1877 0008 044A     		ldr	r2, .L120
 1878 000a 43F40073 		orr	r3, r3, #512
 1879 000e 1360     		str	r3, [r2]
 671:C:/Users/49542/Desktop/GD32F30x_Demo_Suites_V2.0.0/GD32F30x_Demo_Suites_V2.0.0/GD32F30x_Firmware_Library/GD32F30x_standard_peripheral/Source\gd32f30x_sdio.c **** }
 1880              		.loc 1 671 0
 1881 0010 00BF     		nop
 1882 0012 BD46     		mov	sp, r7
 1883              	.LCFI164:
 1884              		.cfi_def_cfa_register 13
 1885              		@ sp needed
 1886 0014 5DF8047B 		ldr	r7, [sp], #4
 1887              	.LCFI165:
 1888              		.cfi_restore 7
 1889              		.cfi_def_cfa_offset 0
 1890 0018 7047     		bx	lr
 1891              	.L121:
 1892 001a 00BF     		.align	2
 1893              	.L120:
 1894 001c 2C800140 		.word	1073840172
 1895              		.cfi_endproc
 1896              	.LFE149:
 1898              		.section	.text.sdio_stop_readwait_disable,"ax",%progbits
 1899              		.align	1
 1900              		.global	sdio_stop_readwait_disable
 1901              		.syntax unified
 1902              		.thumb
 1903              		.thumb_func
 1904              		.fpu fpv4-sp-d16
 1906              	sdio_stop_readwait_disable:
ARM GAS  C:\Users\49542\AppData\Local\Temp\ccX92vIs.s 			page 45


 1907              	.LFB150:
 672:C:/Users/49542/Desktop/GD32F30x_Demo_Suites_V2.0.0/GD32F30x_Demo_Suites_V2.0.0/GD32F30x_Firmware_Library/GD32F30x_standard_peripheral/Source\gd32f30x_sdio.c **** 
 673:C:/Users/49542/Desktop/GD32F30x_Demo_Suites_V2.0.0/GD32F30x_Demo_Suites_V2.0.0/GD32F30x_Firmware_Library/GD32F30x_standard_peripheral/Source\gd32f30x_sdio.c **** /*!
 674:C:/Users/49542/Desktop/GD32F30x_Demo_Suites_V2.0.0/GD32F30x_Demo_Suites_V2.0.0/GD32F30x_Firmware_Library/GD32F30x_standard_peripheral/Source\gd32f30x_sdio.c ****     \brief      disable the function that stop the read wait process(SD I/O only)
 675:C:/Users/49542/Desktop/GD32F30x_Demo_Suites_V2.0.0/GD32F30x_Demo_Suites_V2.0.0/GD32F30x_Firmware_Library/GD32F30x_standard_peripheral/Source\gd32f30x_sdio.c ****     \param[in]  none
 676:C:/Users/49542/Desktop/GD32F30x_Demo_Suites_V2.0.0/GD32F30x_Demo_Suites_V2.0.0/GD32F30x_Firmware_Library/GD32F30x_standard_peripheral/Source\gd32f30x_sdio.c ****     \param[out] none
 677:C:/Users/49542/Desktop/GD32F30x_Demo_Suites_V2.0.0/GD32F30x_Demo_Suites_V2.0.0/GD32F30x_Firmware_Library/GD32F30x_standard_peripheral/Source\gd32f30x_sdio.c ****     \retval     none
 678:C:/Users/49542/Desktop/GD32F30x_Demo_Suites_V2.0.0/GD32F30x_Demo_Suites_V2.0.0/GD32F30x_Firmware_Library/GD32F30x_standard_peripheral/Source\gd32f30x_sdio.c **** */
 679:C:/Users/49542/Desktop/GD32F30x_Demo_Suites_V2.0.0/GD32F30x_Demo_Suites_V2.0.0/GD32F30x_Firmware_Library/GD32F30x_standard_peripheral/Source\gd32f30x_sdio.c **** void sdio_stop_readwait_disable(void)
 680:C:/Users/49542/Desktop/GD32F30x_Demo_Suites_V2.0.0/GD32F30x_Demo_Suites_V2.0.0/GD32F30x_Firmware_Library/GD32F30x_standard_peripheral/Source\gd32f30x_sdio.c **** {
 1908              		.loc 1 680 0
 1909              		.cfi_startproc
 1910              		@ args = 0, pretend = 0, frame = 0
 1911              		@ frame_needed = 1, uses_anonymous_args = 0
 1912              		@ link register save eliminated.
 1913 0000 80B4     		push	{r7}
 1914              	.LCFI166:
 1915              		.cfi_def_cfa_offset 4
 1916              		.cfi_offset 7, -4
 1917 0002 00AF     		add	r7, sp, #0
 1918              	.LCFI167:
 1919              		.cfi_def_cfa_register 7
 681:C:/Users/49542/Desktop/GD32F30x_Demo_Suites_V2.0.0/GD32F30x_Demo_Suites_V2.0.0/GD32F30x_Firmware_Library/GD32F30x_standard_peripheral/Source\gd32f30x_sdio.c ****     SDIO_DATACTL &= ~SDIO_DATACTL_RWSTOP;
 1920              		.loc 1 681 0
 1921 0004 054B     		ldr	r3, .L123
 1922 0006 1B68     		ldr	r3, [r3]
 1923 0008 044A     		ldr	r2, .L123
 1924 000a 23F40073 		bic	r3, r3, #512
 1925 000e 1360     		str	r3, [r2]
 682:C:/Users/49542/Desktop/GD32F30x_Demo_Suites_V2.0.0/GD32F30x_Demo_Suites_V2.0.0/GD32F30x_Firmware_Library/GD32F30x_standard_peripheral/Source\gd32f30x_sdio.c **** }
 1926              		.loc 1 682 0
 1927 0010 00BF     		nop
 1928 0012 BD46     		mov	sp, r7
 1929              	.LCFI168:
 1930              		.cfi_def_cfa_register 13
 1931              		@ sp needed
 1932 0014 5DF8047B 		ldr	r7, [sp], #4
 1933              	.LCFI169:
 1934              		.cfi_restore 7
 1935              		.cfi_def_cfa_offset 0
 1936 0018 7047     		bx	lr
 1937              	.L124:
 1938 001a 00BF     		.align	2
 1939              	.L123:
 1940 001c 2C800140 		.word	1073840172
 1941              		.cfi_endproc
 1942              	.LFE150:
 1944              		.section	.text.sdio_readwait_type_set,"ax",%progbits
 1945              		.align	1
 1946              		.global	sdio_readwait_type_set
 1947              		.syntax unified
 1948              		.thumb
 1949              		.thumb_func
 1950              		.fpu fpv4-sp-d16
 1952              	sdio_readwait_type_set:
 1953              	.LFB151:
 683:C:/Users/49542/Desktop/GD32F30x_Demo_Suites_V2.0.0/GD32F30x_Demo_Suites_V2.0.0/GD32F30x_Firmware_Library/GD32F30x_standard_peripheral/Source\gd32f30x_sdio.c **** 
ARM GAS  C:\Users\49542\AppData\Local\Temp\ccX92vIs.s 			page 46


 684:C:/Users/49542/Desktop/GD32F30x_Demo_Suites_V2.0.0/GD32F30x_Demo_Suites_V2.0.0/GD32F30x_Firmware_Library/GD32F30x_standard_peripheral/Source\gd32f30x_sdio.c **** /*!
 685:C:/Users/49542/Desktop/GD32F30x_Demo_Suites_V2.0.0/GD32F30x_Demo_Suites_V2.0.0/GD32F30x_Firmware_Library/GD32F30x_standard_peripheral/Source\gd32f30x_sdio.c ****     \brief      set the read wait type(SD I/O only)
 686:C:/Users/49542/Desktop/GD32F30x_Demo_Suites_V2.0.0/GD32F30x_Demo_Suites_V2.0.0/GD32F30x_Firmware_Library/GD32F30x_standard_peripheral/Source\gd32f30x_sdio.c ****     \param[in]  readwait_type: SD I/O read wait type
 687:C:/Users/49542/Desktop/GD32F30x_Demo_Suites_V2.0.0/GD32F30x_Demo_Suites_V2.0.0/GD32F30x_Firmware_Library/GD32F30x_standard_peripheral/Source\gd32f30x_sdio.c ****                 only one parameter can be selected which is shown as below:
 688:C:/Users/49542/Desktop/GD32F30x_Demo_Suites_V2.0.0/GD32F30x_Demo_Suites_V2.0.0/GD32F30x_Firmware_Library/GD32F30x_standard_peripheral/Source\gd32f30x_sdio.c ****       \arg        SDIO_READWAITTYPE_CLK: read wait control by stopping SDIO_CLK
 689:C:/Users/49542/Desktop/GD32F30x_Demo_Suites_V2.0.0/GD32F30x_Demo_Suites_V2.0.0/GD32F30x_Firmware_Library/GD32F30x_standard_peripheral/Source\gd32f30x_sdio.c ****       \arg        SDIO_READWAITTYPE_DAT2: read wait control using SDIO_DAT[2]
 690:C:/Users/49542/Desktop/GD32F30x_Demo_Suites_V2.0.0/GD32F30x_Demo_Suites_V2.0.0/GD32F30x_Firmware_Library/GD32F30x_standard_peripheral/Source\gd32f30x_sdio.c ****     \param[out] none
 691:C:/Users/49542/Desktop/GD32F30x_Demo_Suites_V2.0.0/GD32F30x_Demo_Suites_V2.0.0/GD32F30x_Firmware_Library/GD32F30x_standard_peripheral/Source\gd32f30x_sdio.c ****     \retval     none
 692:C:/Users/49542/Desktop/GD32F30x_Demo_Suites_V2.0.0/GD32F30x_Demo_Suites_V2.0.0/GD32F30x_Firmware_Library/GD32F30x_standard_peripheral/Source\gd32f30x_sdio.c **** */
 693:C:/Users/49542/Desktop/GD32F30x_Demo_Suites_V2.0.0/GD32F30x_Demo_Suites_V2.0.0/GD32F30x_Firmware_Library/GD32F30x_standard_peripheral/Source\gd32f30x_sdio.c **** void sdio_readwait_type_set(uint32_t readwait_type)
 694:C:/Users/49542/Desktop/GD32F30x_Demo_Suites_V2.0.0/GD32F30x_Demo_Suites_V2.0.0/GD32F30x_Firmware_Library/GD32F30x_standard_peripheral/Source\gd32f30x_sdio.c **** {
 1954              		.loc 1 694 0
 1955              		.cfi_startproc
 1956              		@ args = 0, pretend = 0, frame = 8
 1957              		@ frame_needed = 1, uses_anonymous_args = 0
 1958              		@ link register save eliminated.
 1959 0000 80B4     		push	{r7}
 1960              	.LCFI170:
 1961              		.cfi_def_cfa_offset 4
 1962              		.cfi_offset 7, -4
 1963 0002 83B0     		sub	sp, sp, #12
 1964              	.LCFI171:
 1965              		.cfi_def_cfa_offset 16
 1966 0004 00AF     		add	r7, sp, #0
 1967              	.LCFI172:
 1968              		.cfi_def_cfa_register 7
 1969 0006 7860     		str	r0, [r7, #4]
 695:C:/Users/49542/Desktop/GD32F30x_Demo_Suites_V2.0.0/GD32F30x_Demo_Suites_V2.0.0/GD32F30x_Firmware_Library/GD32F30x_standard_peripheral/Source\gd32f30x_sdio.c ****     if(SDIO_READWAITTYPE_CLK == readwait_type){
 1970              		.loc 1 695 0
 1971 0008 7B68     		ldr	r3, [r7, #4]
 1972 000a B3F5806F 		cmp	r3, #1024
 1973 000e 06D1     		bne	.L126
 696:C:/Users/49542/Desktop/GD32F30x_Demo_Suites_V2.0.0/GD32F30x_Demo_Suites_V2.0.0/GD32F30x_Firmware_Library/GD32F30x_standard_peripheral/Source\gd32f30x_sdio.c ****         SDIO_DATACTL |= SDIO_DATACTL_RWTYPE;
 1974              		.loc 1 696 0
 1975 0010 094B     		ldr	r3, .L129
 1976 0012 1B68     		ldr	r3, [r3]
 1977 0014 084A     		ldr	r2, .L129
 1978 0016 43F48063 		orr	r3, r3, #1024
 1979 001a 1360     		str	r3, [r2]
 697:C:/Users/49542/Desktop/GD32F30x_Demo_Suites_V2.0.0/GD32F30x_Demo_Suites_V2.0.0/GD32F30x_Firmware_Library/GD32F30x_standard_peripheral/Source\gd32f30x_sdio.c ****     }else{
 698:C:/Users/49542/Desktop/GD32F30x_Demo_Suites_V2.0.0/GD32F30x_Demo_Suites_V2.0.0/GD32F30x_Firmware_Library/GD32F30x_standard_peripheral/Source\gd32f30x_sdio.c ****         SDIO_DATACTL &= ~SDIO_DATACTL_RWTYPE;
 699:C:/Users/49542/Desktop/GD32F30x_Demo_Suites_V2.0.0/GD32F30x_Demo_Suites_V2.0.0/GD32F30x_Firmware_Library/GD32F30x_standard_peripheral/Source\gd32f30x_sdio.c ****     }
 700:C:/Users/49542/Desktop/GD32F30x_Demo_Suites_V2.0.0/GD32F30x_Demo_Suites_V2.0.0/GD32F30x_Firmware_Library/GD32F30x_standard_peripheral/Source\gd32f30x_sdio.c **** }
 1980              		.loc 1 700 0
 1981 001c 05E0     		b	.L128
 1982              	.L126:
 698:C:/Users/49542/Desktop/GD32F30x_Demo_Suites_V2.0.0/GD32F30x_Demo_Suites_V2.0.0/GD32F30x_Firmware_Library/GD32F30x_standard_peripheral/Source\gd32f30x_sdio.c ****     }
 1983              		.loc 1 698 0
 1984 001e 064B     		ldr	r3, .L129
 1985 0020 1B68     		ldr	r3, [r3]
 1986 0022 054A     		ldr	r2, .L129
 1987 0024 23F48063 		bic	r3, r3, #1024
 1988 0028 1360     		str	r3, [r2]
 1989              	.L128:
 1990              		.loc 1 700 0
 1991 002a 00BF     		nop
 1992 002c 0C37     		adds	r7, r7, #12
ARM GAS  C:\Users\49542\AppData\Local\Temp\ccX92vIs.s 			page 47


 1993              	.LCFI173:
 1994              		.cfi_def_cfa_offset 4
 1995 002e BD46     		mov	sp, r7
 1996              	.LCFI174:
 1997              		.cfi_def_cfa_register 13
 1998              		@ sp needed
 1999 0030 5DF8047B 		ldr	r7, [sp], #4
 2000              	.LCFI175:
 2001              		.cfi_restore 7
 2002              		.cfi_def_cfa_offset 0
 2003 0034 7047     		bx	lr
 2004              	.L130:
 2005 0036 00BF     		.align	2
 2006              	.L129:
 2007 0038 2C800140 		.word	1073840172
 2008              		.cfi_endproc
 2009              	.LFE151:
 2011              		.section	.text.sdio_operation_enable,"ax",%progbits
 2012              		.align	1
 2013              		.global	sdio_operation_enable
 2014              		.syntax unified
 2015              		.thumb
 2016              		.thumb_func
 2017              		.fpu fpv4-sp-d16
 2019              	sdio_operation_enable:
 2020              	.LFB152:
 701:C:/Users/49542/Desktop/GD32F30x_Demo_Suites_V2.0.0/GD32F30x_Demo_Suites_V2.0.0/GD32F30x_Firmware_Library/GD32F30x_standard_peripheral/Source\gd32f30x_sdio.c **** 
 702:C:/Users/49542/Desktop/GD32F30x_Demo_Suites_V2.0.0/GD32F30x_Demo_Suites_V2.0.0/GD32F30x_Firmware_Library/GD32F30x_standard_peripheral/Source\gd32f30x_sdio.c **** /*!
 703:C:/Users/49542/Desktop/GD32F30x_Demo_Suites_V2.0.0/GD32F30x_Demo_Suites_V2.0.0/GD32F30x_Firmware_Library/GD32F30x_standard_peripheral/Source\gd32f30x_sdio.c ****     \brief      enable the SD I/O mode specific operation(SD I/O only)
 704:C:/Users/49542/Desktop/GD32F30x_Demo_Suites_V2.0.0/GD32F30x_Demo_Suites_V2.0.0/GD32F30x_Firmware_Library/GD32F30x_standard_peripheral/Source\gd32f30x_sdio.c ****     \param[in]  none
 705:C:/Users/49542/Desktop/GD32F30x_Demo_Suites_V2.0.0/GD32F30x_Demo_Suites_V2.0.0/GD32F30x_Firmware_Library/GD32F30x_standard_peripheral/Source\gd32f30x_sdio.c ****     \param[out] none
 706:C:/Users/49542/Desktop/GD32F30x_Demo_Suites_V2.0.0/GD32F30x_Demo_Suites_V2.0.0/GD32F30x_Firmware_Library/GD32F30x_standard_peripheral/Source\gd32f30x_sdio.c ****     \retval     none
 707:C:/Users/49542/Desktop/GD32F30x_Demo_Suites_V2.0.0/GD32F30x_Demo_Suites_V2.0.0/GD32F30x_Firmware_Library/GD32F30x_standard_peripheral/Source\gd32f30x_sdio.c **** */
 708:C:/Users/49542/Desktop/GD32F30x_Demo_Suites_V2.0.0/GD32F30x_Demo_Suites_V2.0.0/GD32F30x_Firmware_Library/GD32F30x_standard_peripheral/Source\gd32f30x_sdio.c **** void sdio_operation_enable(void)
 709:C:/Users/49542/Desktop/GD32F30x_Demo_Suites_V2.0.0/GD32F30x_Demo_Suites_V2.0.0/GD32F30x_Firmware_Library/GD32F30x_standard_peripheral/Source\gd32f30x_sdio.c **** {
 2021              		.loc 1 709 0
 2022              		.cfi_startproc
 2023              		@ args = 0, pretend = 0, frame = 0
 2024              		@ frame_needed = 1, uses_anonymous_args = 0
 2025              		@ link register save eliminated.
 2026 0000 80B4     		push	{r7}
 2027              	.LCFI176:
 2028              		.cfi_def_cfa_offset 4
 2029              		.cfi_offset 7, -4
 2030 0002 00AF     		add	r7, sp, #0
 2031              	.LCFI177:
 2032              		.cfi_def_cfa_register 7
 710:C:/Users/49542/Desktop/GD32F30x_Demo_Suites_V2.0.0/GD32F30x_Demo_Suites_V2.0.0/GD32F30x_Firmware_Library/GD32F30x_standard_peripheral/Source\gd32f30x_sdio.c ****     SDIO_DATACTL |= SDIO_DATACTL_IOEN;
 2033              		.loc 1 710 0
 2034 0004 054B     		ldr	r3, .L132
 2035 0006 1B68     		ldr	r3, [r3]
 2036 0008 044A     		ldr	r2, .L132
 2037 000a 43F40063 		orr	r3, r3, #2048
 2038 000e 1360     		str	r3, [r2]
 711:C:/Users/49542/Desktop/GD32F30x_Demo_Suites_V2.0.0/GD32F30x_Demo_Suites_V2.0.0/GD32F30x_Firmware_Library/GD32F30x_standard_peripheral/Source\gd32f30x_sdio.c **** }
 2039              		.loc 1 711 0
 2040 0010 00BF     		nop
ARM GAS  C:\Users\49542\AppData\Local\Temp\ccX92vIs.s 			page 48


 2041 0012 BD46     		mov	sp, r7
 2042              	.LCFI178:
 2043              		.cfi_def_cfa_register 13
 2044              		@ sp needed
 2045 0014 5DF8047B 		ldr	r7, [sp], #4
 2046              	.LCFI179:
 2047              		.cfi_restore 7
 2048              		.cfi_def_cfa_offset 0
 2049 0018 7047     		bx	lr
 2050              	.L133:
 2051 001a 00BF     		.align	2
 2052              	.L132:
 2053 001c 2C800140 		.word	1073840172
 2054              		.cfi_endproc
 2055              	.LFE152:
 2057              		.section	.text.sdio_operation_disable,"ax",%progbits
 2058              		.align	1
 2059              		.global	sdio_operation_disable
 2060              		.syntax unified
 2061              		.thumb
 2062              		.thumb_func
 2063              		.fpu fpv4-sp-d16
 2065              	sdio_operation_disable:
 2066              	.LFB153:
 712:C:/Users/49542/Desktop/GD32F30x_Demo_Suites_V2.0.0/GD32F30x_Demo_Suites_V2.0.0/GD32F30x_Firmware_Library/GD32F30x_standard_peripheral/Source\gd32f30x_sdio.c **** 
 713:C:/Users/49542/Desktop/GD32F30x_Demo_Suites_V2.0.0/GD32F30x_Demo_Suites_V2.0.0/GD32F30x_Firmware_Library/GD32F30x_standard_peripheral/Source\gd32f30x_sdio.c **** /*!
 714:C:/Users/49542/Desktop/GD32F30x_Demo_Suites_V2.0.0/GD32F30x_Demo_Suites_V2.0.0/GD32F30x_Firmware_Library/GD32F30x_standard_peripheral/Source\gd32f30x_sdio.c ****     \brief      disable the SD I/O mode specific operation(SD I/O only)
 715:C:/Users/49542/Desktop/GD32F30x_Demo_Suites_V2.0.0/GD32F30x_Demo_Suites_V2.0.0/GD32F30x_Firmware_Library/GD32F30x_standard_peripheral/Source\gd32f30x_sdio.c ****     \param[in]  none
 716:C:/Users/49542/Desktop/GD32F30x_Demo_Suites_V2.0.0/GD32F30x_Demo_Suites_V2.0.0/GD32F30x_Firmware_Library/GD32F30x_standard_peripheral/Source\gd32f30x_sdio.c ****     \param[out] none
 717:C:/Users/49542/Desktop/GD32F30x_Demo_Suites_V2.0.0/GD32F30x_Demo_Suites_V2.0.0/GD32F30x_Firmware_Library/GD32F30x_standard_peripheral/Source\gd32f30x_sdio.c ****     \retval     none
 718:C:/Users/49542/Desktop/GD32F30x_Demo_Suites_V2.0.0/GD32F30x_Demo_Suites_V2.0.0/GD32F30x_Firmware_Library/GD32F30x_standard_peripheral/Source\gd32f30x_sdio.c **** */
 719:C:/Users/49542/Desktop/GD32F30x_Demo_Suites_V2.0.0/GD32F30x_Demo_Suites_V2.0.0/GD32F30x_Firmware_Library/GD32F30x_standard_peripheral/Source\gd32f30x_sdio.c **** void sdio_operation_disable(void)
 720:C:/Users/49542/Desktop/GD32F30x_Demo_Suites_V2.0.0/GD32F30x_Demo_Suites_V2.0.0/GD32F30x_Firmware_Library/GD32F30x_standard_peripheral/Source\gd32f30x_sdio.c **** {
 2067              		.loc 1 720 0
 2068              		.cfi_startproc
 2069              		@ args = 0, pretend = 0, frame = 0
 2070              		@ frame_needed = 1, uses_anonymous_args = 0
 2071              		@ link register save eliminated.
 2072 0000 80B4     		push	{r7}
 2073              	.LCFI180:
 2074              		.cfi_def_cfa_offset 4
 2075              		.cfi_offset 7, -4
 2076 0002 00AF     		add	r7, sp, #0
 2077              	.LCFI181:
 2078              		.cfi_def_cfa_register 7
 721:C:/Users/49542/Desktop/GD32F30x_Demo_Suites_V2.0.0/GD32F30x_Demo_Suites_V2.0.0/GD32F30x_Firmware_Library/GD32F30x_standard_peripheral/Source\gd32f30x_sdio.c ****     SDIO_DATACTL &= ~SDIO_DATACTL_IOEN;
 2079              		.loc 1 721 0
 2080 0004 054B     		ldr	r3, .L135
 2081 0006 1B68     		ldr	r3, [r3]
 2082 0008 044A     		ldr	r2, .L135
 2083 000a 23F40063 		bic	r3, r3, #2048
 2084 000e 1360     		str	r3, [r2]
 722:C:/Users/49542/Desktop/GD32F30x_Demo_Suites_V2.0.0/GD32F30x_Demo_Suites_V2.0.0/GD32F30x_Firmware_Library/GD32F30x_standard_peripheral/Source\gd32f30x_sdio.c **** }
 2085              		.loc 1 722 0
 2086 0010 00BF     		nop
 2087 0012 BD46     		mov	sp, r7
 2088              	.LCFI182:
ARM GAS  C:\Users\49542\AppData\Local\Temp\ccX92vIs.s 			page 49


 2089              		.cfi_def_cfa_register 13
 2090              		@ sp needed
 2091 0014 5DF8047B 		ldr	r7, [sp], #4
 2092              	.LCFI183:
 2093              		.cfi_restore 7
 2094              		.cfi_def_cfa_offset 0
 2095 0018 7047     		bx	lr
 2096              	.L136:
 2097 001a 00BF     		.align	2
 2098              	.L135:
 2099 001c 2C800140 		.word	1073840172
 2100              		.cfi_endproc
 2101              	.LFE153:
 2103              		.section	.text.sdio_suspend_enable,"ax",%progbits
 2104              		.align	1
 2105              		.global	sdio_suspend_enable
 2106              		.syntax unified
 2107              		.thumb
 2108              		.thumb_func
 2109              		.fpu fpv4-sp-d16
 2111              	sdio_suspend_enable:
 2112              	.LFB154:
 723:C:/Users/49542/Desktop/GD32F30x_Demo_Suites_V2.0.0/GD32F30x_Demo_Suites_V2.0.0/GD32F30x_Firmware_Library/GD32F30x_standard_peripheral/Source\gd32f30x_sdio.c **** 
 724:C:/Users/49542/Desktop/GD32F30x_Demo_Suites_V2.0.0/GD32F30x_Demo_Suites_V2.0.0/GD32F30x_Firmware_Library/GD32F30x_standard_peripheral/Source\gd32f30x_sdio.c **** /*!
 725:C:/Users/49542/Desktop/GD32F30x_Demo_Suites_V2.0.0/GD32F30x_Demo_Suites_V2.0.0/GD32F30x_Firmware_Library/GD32F30x_standard_peripheral/Source\gd32f30x_sdio.c ****     \brief      enable the SD I/O suspend operation(SD I/O only)
 726:C:/Users/49542/Desktop/GD32F30x_Demo_Suites_V2.0.0/GD32F30x_Demo_Suites_V2.0.0/GD32F30x_Firmware_Library/GD32F30x_standard_peripheral/Source\gd32f30x_sdio.c ****     \param[in]  none
 727:C:/Users/49542/Desktop/GD32F30x_Demo_Suites_V2.0.0/GD32F30x_Demo_Suites_V2.0.0/GD32F30x_Firmware_Library/GD32F30x_standard_peripheral/Source\gd32f30x_sdio.c ****     \param[out] none
 728:C:/Users/49542/Desktop/GD32F30x_Demo_Suites_V2.0.0/GD32F30x_Demo_Suites_V2.0.0/GD32F30x_Firmware_Library/GD32F30x_standard_peripheral/Source\gd32f30x_sdio.c ****     \retval     none
 729:C:/Users/49542/Desktop/GD32F30x_Demo_Suites_V2.0.0/GD32F30x_Demo_Suites_V2.0.0/GD32F30x_Firmware_Library/GD32F30x_standard_peripheral/Source\gd32f30x_sdio.c **** */
 730:C:/Users/49542/Desktop/GD32F30x_Demo_Suites_V2.0.0/GD32F30x_Demo_Suites_V2.0.0/GD32F30x_Firmware_Library/GD32F30x_standard_peripheral/Source\gd32f30x_sdio.c **** void sdio_suspend_enable(void)
 731:C:/Users/49542/Desktop/GD32F30x_Demo_Suites_V2.0.0/GD32F30x_Demo_Suites_V2.0.0/GD32F30x_Firmware_Library/GD32F30x_standard_peripheral/Source\gd32f30x_sdio.c **** {
 2113              		.loc 1 731 0
 2114              		.cfi_startproc
 2115              		@ args = 0, pretend = 0, frame = 0
 2116              		@ frame_needed = 1, uses_anonymous_args = 0
 2117              		@ link register save eliminated.
 2118 0000 80B4     		push	{r7}
 2119              	.LCFI184:
 2120              		.cfi_def_cfa_offset 4
 2121              		.cfi_offset 7, -4
 2122 0002 00AF     		add	r7, sp, #0
 2123              	.LCFI185:
 2124              		.cfi_def_cfa_register 7
 732:C:/Users/49542/Desktop/GD32F30x_Demo_Suites_V2.0.0/GD32F30x_Demo_Suites_V2.0.0/GD32F30x_Firmware_Library/GD32F30x_standard_peripheral/Source\gd32f30x_sdio.c ****     SDIO_CMDCTL |= SDIO_CMDCTL_SUSPEND;
 2125              		.loc 1 732 0
 2126 0004 054B     		ldr	r3, .L138
 2127 0006 1B68     		ldr	r3, [r3]
 2128 0008 044A     		ldr	r2, .L138
 2129 000a 43F40063 		orr	r3, r3, #2048
 2130 000e 1360     		str	r3, [r2]
 733:C:/Users/49542/Desktop/GD32F30x_Demo_Suites_V2.0.0/GD32F30x_Demo_Suites_V2.0.0/GD32F30x_Firmware_Library/GD32F30x_standard_peripheral/Source\gd32f30x_sdio.c **** }
 2131              		.loc 1 733 0
 2132 0010 00BF     		nop
 2133 0012 BD46     		mov	sp, r7
 2134              	.LCFI186:
 2135              		.cfi_def_cfa_register 13
 2136              		@ sp needed
ARM GAS  C:\Users\49542\AppData\Local\Temp\ccX92vIs.s 			page 50


 2137 0014 5DF8047B 		ldr	r7, [sp], #4
 2138              	.LCFI187:
 2139              		.cfi_restore 7
 2140              		.cfi_def_cfa_offset 0
 2141 0018 7047     		bx	lr
 2142              	.L139:
 2143 001a 00BF     		.align	2
 2144              	.L138:
 2145 001c 0C800140 		.word	1073840140
 2146              		.cfi_endproc
 2147              	.LFE154:
 2149              		.section	.text.sdio_suspend_disable,"ax",%progbits
 2150              		.align	1
 2151              		.global	sdio_suspend_disable
 2152              		.syntax unified
 2153              		.thumb
 2154              		.thumb_func
 2155              		.fpu fpv4-sp-d16
 2157              	sdio_suspend_disable:
 2158              	.LFB155:
 734:C:/Users/49542/Desktop/GD32F30x_Demo_Suites_V2.0.0/GD32F30x_Demo_Suites_V2.0.0/GD32F30x_Firmware_Library/GD32F30x_standard_peripheral/Source\gd32f30x_sdio.c **** 
 735:C:/Users/49542/Desktop/GD32F30x_Demo_Suites_V2.0.0/GD32F30x_Demo_Suites_V2.0.0/GD32F30x_Firmware_Library/GD32F30x_standard_peripheral/Source\gd32f30x_sdio.c **** /*!
 736:C:/Users/49542/Desktop/GD32F30x_Demo_Suites_V2.0.0/GD32F30x_Demo_Suites_V2.0.0/GD32F30x_Firmware_Library/GD32F30x_standard_peripheral/Source\gd32f30x_sdio.c ****     \brief      disable the SD I/O suspend operation(SD I/O only)
 737:C:/Users/49542/Desktop/GD32F30x_Demo_Suites_V2.0.0/GD32F30x_Demo_Suites_V2.0.0/GD32F30x_Firmware_Library/GD32F30x_standard_peripheral/Source\gd32f30x_sdio.c ****     \param[in]  none
 738:C:/Users/49542/Desktop/GD32F30x_Demo_Suites_V2.0.0/GD32F30x_Demo_Suites_V2.0.0/GD32F30x_Firmware_Library/GD32F30x_standard_peripheral/Source\gd32f30x_sdio.c ****     \param[out] none
 739:C:/Users/49542/Desktop/GD32F30x_Demo_Suites_V2.0.0/GD32F30x_Demo_Suites_V2.0.0/GD32F30x_Firmware_Library/GD32F30x_standard_peripheral/Source\gd32f30x_sdio.c ****     \retval     none
 740:C:/Users/49542/Desktop/GD32F30x_Demo_Suites_V2.0.0/GD32F30x_Demo_Suites_V2.0.0/GD32F30x_Firmware_Library/GD32F30x_standard_peripheral/Source\gd32f30x_sdio.c **** */
 741:C:/Users/49542/Desktop/GD32F30x_Demo_Suites_V2.0.0/GD32F30x_Demo_Suites_V2.0.0/GD32F30x_Firmware_Library/GD32F30x_standard_peripheral/Source\gd32f30x_sdio.c **** void sdio_suspend_disable(void)
 742:C:/Users/49542/Desktop/GD32F30x_Demo_Suites_V2.0.0/GD32F30x_Demo_Suites_V2.0.0/GD32F30x_Firmware_Library/GD32F30x_standard_peripheral/Source\gd32f30x_sdio.c **** {
 2159              		.loc 1 742 0
 2160              		.cfi_startproc
 2161              		@ args = 0, pretend = 0, frame = 0
 2162              		@ frame_needed = 1, uses_anonymous_args = 0
 2163              		@ link register save eliminated.
 2164 0000 80B4     		push	{r7}
 2165              	.LCFI188:
 2166              		.cfi_def_cfa_offset 4
 2167              		.cfi_offset 7, -4
 2168 0002 00AF     		add	r7, sp, #0
 2169              	.LCFI189:
 2170              		.cfi_def_cfa_register 7
 743:C:/Users/49542/Desktop/GD32F30x_Demo_Suites_V2.0.0/GD32F30x_Demo_Suites_V2.0.0/GD32F30x_Firmware_Library/GD32F30x_standard_peripheral/Source\gd32f30x_sdio.c ****     SDIO_CMDCTL &= ~SDIO_CMDCTL_SUSPEND;
 2171              		.loc 1 743 0
 2172 0004 054B     		ldr	r3, .L141
 2173 0006 1B68     		ldr	r3, [r3]
 2174 0008 044A     		ldr	r2, .L141
 2175 000a 23F40063 		bic	r3, r3, #2048
 2176 000e 1360     		str	r3, [r2]
 744:C:/Users/49542/Desktop/GD32F30x_Demo_Suites_V2.0.0/GD32F30x_Demo_Suites_V2.0.0/GD32F30x_Firmware_Library/GD32F30x_standard_peripheral/Source\gd32f30x_sdio.c **** }
 2177              		.loc 1 744 0
 2178 0010 00BF     		nop
 2179 0012 BD46     		mov	sp, r7
 2180              	.LCFI190:
 2181              		.cfi_def_cfa_register 13
 2182              		@ sp needed
 2183 0014 5DF8047B 		ldr	r7, [sp], #4
 2184              	.LCFI191:
ARM GAS  C:\Users\49542\AppData\Local\Temp\ccX92vIs.s 			page 51


 2185              		.cfi_restore 7
 2186              		.cfi_def_cfa_offset 0
 2187 0018 7047     		bx	lr
 2188              	.L142:
 2189 001a 00BF     		.align	2
 2190              	.L141:
 2191 001c 0C800140 		.word	1073840140
 2192              		.cfi_endproc
 2193              	.LFE155:
 2195              		.section	.text.sdio_ceata_command_enable,"ax",%progbits
 2196              		.align	1
 2197              		.global	sdio_ceata_command_enable
 2198              		.syntax unified
 2199              		.thumb
 2200              		.thumb_func
 2201              		.fpu fpv4-sp-d16
 2203              	sdio_ceata_command_enable:
 2204              	.LFB156:
 745:C:/Users/49542/Desktop/GD32F30x_Demo_Suites_V2.0.0/GD32F30x_Demo_Suites_V2.0.0/GD32F30x_Firmware_Library/GD32F30x_standard_peripheral/Source\gd32f30x_sdio.c **** 
 746:C:/Users/49542/Desktop/GD32F30x_Demo_Suites_V2.0.0/GD32F30x_Demo_Suites_V2.0.0/GD32F30x_Firmware_Library/GD32F30x_standard_peripheral/Source\gd32f30x_sdio.c **** /*!
 747:C:/Users/49542/Desktop/GD32F30x_Demo_Suites_V2.0.0/GD32F30x_Demo_Suites_V2.0.0/GD32F30x_Firmware_Library/GD32F30x_standard_peripheral/Source\gd32f30x_sdio.c ****     \brief      enable the CE-ATA command(CE-ATA only)
 748:C:/Users/49542/Desktop/GD32F30x_Demo_Suites_V2.0.0/GD32F30x_Demo_Suites_V2.0.0/GD32F30x_Firmware_Library/GD32F30x_standard_peripheral/Source\gd32f30x_sdio.c ****     \param[in]  none
 749:C:/Users/49542/Desktop/GD32F30x_Demo_Suites_V2.0.0/GD32F30x_Demo_Suites_V2.0.0/GD32F30x_Firmware_Library/GD32F30x_standard_peripheral/Source\gd32f30x_sdio.c ****     \param[out] none
 750:C:/Users/49542/Desktop/GD32F30x_Demo_Suites_V2.0.0/GD32F30x_Demo_Suites_V2.0.0/GD32F30x_Firmware_Library/GD32F30x_standard_peripheral/Source\gd32f30x_sdio.c ****     \retval     none
 751:C:/Users/49542/Desktop/GD32F30x_Demo_Suites_V2.0.0/GD32F30x_Demo_Suites_V2.0.0/GD32F30x_Firmware_Library/GD32F30x_standard_peripheral/Source\gd32f30x_sdio.c **** */
 752:C:/Users/49542/Desktop/GD32F30x_Demo_Suites_V2.0.0/GD32F30x_Demo_Suites_V2.0.0/GD32F30x_Firmware_Library/GD32F30x_standard_peripheral/Source\gd32f30x_sdio.c **** void sdio_ceata_command_enable(void)
 753:C:/Users/49542/Desktop/GD32F30x_Demo_Suites_V2.0.0/GD32F30x_Demo_Suites_V2.0.0/GD32F30x_Firmware_Library/GD32F30x_standard_peripheral/Source\gd32f30x_sdio.c **** {
 2205              		.loc 1 753 0
 2206              		.cfi_startproc
 2207              		@ args = 0, pretend = 0, frame = 0
 2208              		@ frame_needed = 1, uses_anonymous_args = 0
 2209              		@ link register save eliminated.
 2210 0000 80B4     		push	{r7}
 2211              	.LCFI192:
 2212              		.cfi_def_cfa_offset 4
 2213              		.cfi_offset 7, -4
 2214 0002 00AF     		add	r7, sp, #0
 2215              	.LCFI193:
 2216              		.cfi_def_cfa_register 7
 754:C:/Users/49542/Desktop/GD32F30x_Demo_Suites_V2.0.0/GD32F30x_Demo_Suites_V2.0.0/GD32F30x_Firmware_Library/GD32F30x_standard_peripheral/Source\gd32f30x_sdio.c ****     SDIO_CMDCTL |= SDIO_CMDCTL_ATAEN;
 2217              		.loc 1 754 0
 2218 0004 054B     		ldr	r3, .L144
 2219 0006 1B68     		ldr	r3, [r3]
 2220 0008 044A     		ldr	r2, .L144
 2221 000a 43F48043 		orr	r3, r3, #16384
 2222 000e 1360     		str	r3, [r2]
 755:C:/Users/49542/Desktop/GD32F30x_Demo_Suites_V2.0.0/GD32F30x_Demo_Suites_V2.0.0/GD32F30x_Firmware_Library/GD32F30x_standard_peripheral/Source\gd32f30x_sdio.c **** }
 2223              		.loc 1 755 0
 2224 0010 00BF     		nop
 2225 0012 BD46     		mov	sp, r7
 2226              	.LCFI194:
 2227              		.cfi_def_cfa_register 13
 2228              		@ sp needed
 2229 0014 5DF8047B 		ldr	r7, [sp], #4
 2230              	.LCFI195:
 2231              		.cfi_restore 7
 2232              		.cfi_def_cfa_offset 0
ARM GAS  C:\Users\49542\AppData\Local\Temp\ccX92vIs.s 			page 52


 2233 0018 7047     		bx	lr
 2234              	.L145:
 2235 001a 00BF     		.align	2
 2236              	.L144:
 2237 001c 0C800140 		.word	1073840140
 2238              		.cfi_endproc
 2239              	.LFE156:
 2241              		.section	.text.sdio_ceata_command_disable,"ax",%progbits
 2242              		.align	1
 2243              		.global	sdio_ceata_command_disable
 2244              		.syntax unified
 2245              		.thumb
 2246              		.thumb_func
 2247              		.fpu fpv4-sp-d16
 2249              	sdio_ceata_command_disable:
 2250              	.LFB157:
 756:C:/Users/49542/Desktop/GD32F30x_Demo_Suites_V2.0.0/GD32F30x_Demo_Suites_V2.0.0/GD32F30x_Firmware_Library/GD32F30x_standard_peripheral/Source\gd32f30x_sdio.c **** 
 757:C:/Users/49542/Desktop/GD32F30x_Demo_Suites_V2.0.0/GD32F30x_Demo_Suites_V2.0.0/GD32F30x_Firmware_Library/GD32F30x_standard_peripheral/Source\gd32f30x_sdio.c **** /*!
 758:C:/Users/49542/Desktop/GD32F30x_Demo_Suites_V2.0.0/GD32F30x_Demo_Suites_V2.0.0/GD32F30x_Firmware_Library/GD32F30x_standard_peripheral/Source\gd32f30x_sdio.c ****     \brief      disable the CE-ATA command(CE-ATA only)
 759:C:/Users/49542/Desktop/GD32F30x_Demo_Suites_V2.0.0/GD32F30x_Demo_Suites_V2.0.0/GD32F30x_Firmware_Library/GD32F30x_standard_peripheral/Source\gd32f30x_sdio.c ****     \param[in]  none
 760:C:/Users/49542/Desktop/GD32F30x_Demo_Suites_V2.0.0/GD32F30x_Demo_Suites_V2.0.0/GD32F30x_Firmware_Library/GD32F30x_standard_peripheral/Source\gd32f30x_sdio.c ****     \param[out] none
 761:C:/Users/49542/Desktop/GD32F30x_Demo_Suites_V2.0.0/GD32F30x_Demo_Suites_V2.0.0/GD32F30x_Firmware_Library/GD32F30x_standard_peripheral/Source\gd32f30x_sdio.c ****     \retval     none
 762:C:/Users/49542/Desktop/GD32F30x_Demo_Suites_V2.0.0/GD32F30x_Demo_Suites_V2.0.0/GD32F30x_Firmware_Library/GD32F30x_standard_peripheral/Source\gd32f30x_sdio.c **** */
 763:C:/Users/49542/Desktop/GD32F30x_Demo_Suites_V2.0.0/GD32F30x_Demo_Suites_V2.0.0/GD32F30x_Firmware_Library/GD32F30x_standard_peripheral/Source\gd32f30x_sdio.c **** void sdio_ceata_command_disable(void)
 764:C:/Users/49542/Desktop/GD32F30x_Demo_Suites_V2.0.0/GD32F30x_Demo_Suites_V2.0.0/GD32F30x_Firmware_Library/GD32F30x_standard_peripheral/Source\gd32f30x_sdio.c **** {
 2251              		.loc 1 764 0
 2252              		.cfi_startproc
 2253              		@ args = 0, pretend = 0, frame = 0
 2254              		@ frame_needed = 1, uses_anonymous_args = 0
 2255              		@ link register save eliminated.
 2256 0000 80B4     		push	{r7}
 2257              	.LCFI196:
 2258              		.cfi_def_cfa_offset 4
 2259              		.cfi_offset 7, -4
 2260 0002 00AF     		add	r7, sp, #0
 2261              	.LCFI197:
 2262              		.cfi_def_cfa_register 7
 765:C:/Users/49542/Desktop/GD32F30x_Demo_Suites_V2.0.0/GD32F30x_Demo_Suites_V2.0.0/GD32F30x_Firmware_Library/GD32F30x_standard_peripheral/Source\gd32f30x_sdio.c ****     SDIO_CMDCTL &= ~SDIO_CMDCTL_ATAEN;
 2263              		.loc 1 765 0
 2264 0004 054B     		ldr	r3, .L147
 2265 0006 1B68     		ldr	r3, [r3]
 2266 0008 044A     		ldr	r2, .L147
 2267 000a 23F48043 		bic	r3, r3, #16384
 2268 000e 1360     		str	r3, [r2]
 766:C:/Users/49542/Desktop/GD32F30x_Demo_Suites_V2.0.0/GD32F30x_Demo_Suites_V2.0.0/GD32F30x_Firmware_Library/GD32F30x_standard_peripheral/Source\gd32f30x_sdio.c **** }
 2269              		.loc 1 766 0
 2270 0010 00BF     		nop
 2271 0012 BD46     		mov	sp, r7
 2272              	.LCFI198:
 2273              		.cfi_def_cfa_register 13
 2274              		@ sp needed
 2275 0014 5DF8047B 		ldr	r7, [sp], #4
 2276              	.LCFI199:
 2277              		.cfi_restore 7
 2278              		.cfi_def_cfa_offset 0
 2279 0018 7047     		bx	lr
 2280              	.L148:
ARM GAS  C:\Users\49542\AppData\Local\Temp\ccX92vIs.s 			page 53


 2281 001a 00BF     		.align	2
 2282              	.L147:
 2283 001c 0C800140 		.word	1073840140
 2284              		.cfi_endproc
 2285              	.LFE157:
 2287              		.section	.text.sdio_ceata_interrupt_enable,"ax",%progbits
 2288              		.align	1
 2289              		.global	sdio_ceata_interrupt_enable
 2290              		.syntax unified
 2291              		.thumb
 2292              		.thumb_func
 2293              		.fpu fpv4-sp-d16
 2295              	sdio_ceata_interrupt_enable:
 2296              	.LFB158:
 767:C:/Users/49542/Desktop/GD32F30x_Demo_Suites_V2.0.0/GD32F30x_Demo_Suites_V2.0.0/GD32F30x_Firmware_Library/GD32F30x_standard_peripheral/Source\gd32f30x_sdio.c **** 
 768:C:/Users/49542/Desktop/GD32F30x_Demo_Suites_V2.0.0/GD32F30x_Demo_Suites_V2.0.0/GD32F30x_Firmware_Library/GD32F30x_standard_peripheral/Source\gd32f30x_sdio.c **** /*!
 769:C:/Users/49542/Desktop/GD32F30x_Demo_Suites_V2.0.0/GD32F30x_Demo_Suites_V2.0.0/GD32F30x_Firmware_Library/GD32F30x_standard_peripheral/Source\gd32f30x_sdio.c ****     \brief      enable the CE-ATA interrupt(CE-ATA only)
 770:C:/Users/49542/Desktop/GD32F30x_Demo_Suites_V2.0.0/GD32F30x_Demo_Suites_V2.0.0/GD32F30x_Firmware_Library/GD32F30x_standard_peripheral/Source\gd32f30x_sdio.c ****     \param[in]  none
 771:C:/Users/49542/Desktop/GD32F30x_Demo_Suites_V2.0.0/GD32F30x_Demo_Suites_V2.0.0/GD32F30x_Firmware_Library/GD32F30x_standard_peripheral/Source\gd32f30x_sdio.c ****     \param[out] none
 772:C:/Users/49542/Desktop/GD32F30x_Demo_Suites_V2.0.0/GD32F30x_Demo_Suites_V2.0.0/GD32F30x_Firmware_Library/GD32F30x_standard_peripheral/Source\gd32f30x_sdio.c ****     \retval     none
 773:C:/Users/49542/Desktop/GD32F30x_Demo_Suites_V2.0.0/GD32F30x_Demo_Suites_V2.0.0/GD32F30x_Firmware_Library/GD32F30x_standard_peripheral/Source\gd32f30x_sdio.c **** */
 774:C:/Users/49542/Desktop/GD32F30x_Demo_Suites_V2.0.0/GD32F30x_Demo_Suites_V2.0.0/GD32F30x_Firmware_Library/GD32F30x_standard_peripheral/Source\gd32f30x_sdio.c **** void sdio_ceata_interrupt_enable(void)
 775:C:/Users/49542/Desktop/GD32F30x_Demo_Suites_V2.0.0/GD32F30x_Demo_Suites_V2.0.0/GD32F30x_Firmware_Library/GD32F30x_standard_peripheral/Source\gd32f30x_sdio.c **** {
 2297              		.loc 1 775 0
 2298              		.cfi_startproc
 2299              		@ args = 0, pretend = 0, frame = 0
 2300              		@ frame_needed = 1, uses_anonymous_args = 0
 2301              		@ link register save eliminated.
 2302 0000 80B4     		push	{r7}
 2303              	.LCFI200:
 2304              		.cfi_def_cfa_offset 4
 2305              		.cfi_offset 7, -4
 2306 0002 00AF     		add	r7, sp, #0
 2307              	.LCFI201:
 2308              		.cfi_def_cfa_register 7
 776:C:/Users/49542/Desktop/GD32F30x_Demo_Suites_V2.0.0/GD32F30x_Demo_Suites_V2.0.0/GD32F30x_Firmware_Library/GD32F30x_standard_peripheral/Source\gd32f30x_sdio.c ****     SDIO_CMDCTL &= ~SDIO_CMDCTL_NINTEN;
 2309              		.loc 1 776 0
 2310 0004 054B     		ldr	r3, .L150
 2311 0006 1B68     		ldr	r3, [r3]
 2312 0008 044A     		ldr	r2, .L150
 2313 000a 23F40053 		bic	r3, r3, #8192
 2314 000e 1360     		str	r3, [r2]
 777:C:/Users/49542/Desktop/GD32F30x_Demo_Suites_V2.0.0/GD32F30x_Demo_Suites_V2.0.0/GD32F30x_Firmware_Library/GD32F30x_standard_peripheral/Source\gd32f30x_sdio.c **** }
 2315              		.loc 1 777 0
 2316 0010 00BF     		nop
 2317 0012 BD46     		mov	sp, r7
 2318              	.LCFI202:
 2319              		.cfi_def_cfa_register 13
 2320              		@ sp needed
 2321 0014 5DF8047B 		ldr	r7, [sp], #4
 2322              	.LCFI203:
 2323              		.cfi_restore 7
 2324              		.cfi_def_cfa_offset 0
 2325 0018 7047     		bx	lr
 2326              	.L151:
 2327 001a 00BF     		.align	2
 2328              	.L150:
ARM GAS  C:\Users\49542\AppData\Local\Temp\ccX92vIs.s 			page 54


 2329 001c 0C800140 		.word	1073840140
 2330              		.cfi_endproc
 2331              	.LFE158:
 2333              		.section	.text.sdio_ceata_interrupt_disable,"ax",%progbits
 2334              		.align	1
 2335              		.global	sdio_ceata_interrupt_disable
 2336              		.syntax unified
 2337              		.thumb
 2338              		.thumb_func
 2339              		.fpu fpv4-sp-d16
 2341              	sdio_ceata_interrupt_disable:
 2342              	.LFB159:
 778:C:/Users/49542/Desktop/GD32F30x_Demo_Suites_V2.0.0/GD32F30x_Demo_Suites_V2.0.0/GD32F30x_Firmware_Library/GD32F30x_standard_peripheral/Source\gd32f30x_sdio.c **** 
 779:C:/Users/49542/Desktop/GD32F30x_Demo_Suites_V2.0.0/GD32F30x_Demo_Suites_V2.0.0/GD32F30x_Firmware_Library/GD32F30x_standard_peripheral/Source\gd32f30x_sdio.c **** /*!
 780:C:/Users/49542/Desktop/GD32F30x_Demo_Suites_V2.0.0/GD32F30x_Demo_Suites_V2.0.0/GD32F30x_Firmware_Library/GD32F30x_standard_peripheral/Source\gd32f30x_sdio.c ****     \brief      disable the CE-ATA interrupt(CE-ATA only)
 781:C:/Users/49542/Desktop/GD32F30x_Demo_Suites_V2.0.0/GD32F30x_Demo_Suites_V2.0.0/GD32F30x_Firmware_Library/GD32F30x_standard_peripheral/Source\gd32f30x_sdio.c ****     \param[in]  none
 782:C:/Users/49542/Desktop/GD32F30x_Demo_Suites_V2.0.0/GD32F30x_Demo_Suites_V2.0.0/GD32F30x_Firmware_Library/GD32F30x_standard_peripheral/Source\gd32f30x_sdio.c ****     \param[out] none
 783:C:/Users/49542/Desktop/GD32F30x_Demo_Suites_V2.0.0/GD32F30x_Demo_Suites_V2.0.0/GD32F30x_Firmware_Library/GD32F30x_standard_peripheral/Source\gd32f30x_sdio.c ****     \retval     none
 784:C:/Users/49542/Desktop/GD32F30x_Demo_Suites_V2.0.0/GD32F30x_Demo_Suites_V2.0.0/GD32F30x_Firmware_Library/GD32F30x_standard_peripheral/Source\gd32f30x_sdio.c **** */
 785:C:/Users/49542/Desktop/GD32F30x_Demo_Suites_V2.0.0/GD32F30x_Demo_Suites_V2.0.0/GD32F30x_Firmware_Library/GD32F30x_standard_peripheral/Source\gd32f30x_sdio.c **** void sdio_ceata_interrupt_disable(void)
 786:C:/Users/49542/Desktop/GD32F30x_Demo_Suites_V2.0.0/GD32F30x_Demo_Suites_V2.0.0/GD32F30x_Firmware_Library/GD32F30x_standard_peripheral/Source\gd32f30x_sdio.c **** {
 2343              		.loc 1 786 0
 2344              		.cfi_startproc
 2345              		@ args = 0, pretend = 0, frame = 0
 2346              		@ frame_needed = 1, uses_anonymous_args = 0
 2347              		@ link register save eliminated.
 2348 0000 80B4     		push	{r7}
 2349              	.LCFI204:
 2350              		.cfi_def_cfa_offset 4
 2351              		.cfi_offset 7, -4
 2352 0002 00AF     		add	r7, sp, #0
 2353              	.LCFI205:
 2354              		.cfi_def_cfa_register 7
 787:C:/Users/49542/Desktop/GD32F30x_Demo_Suites_V2.0.0/GD32F30x_Demo_Suites_V2.0.0/GD32F30x_Firmware_Library/GD32F30x_standard_peripheral/Source\gd32f30x_sdio.c ****     SDIO_CMDCTL |= SDIO_CMDCTL_NINTEN;
 2355              		.loc 1 787 0
 2356 0004 054B     		ldr	r3, .L153
 2357 0006 1B68     		ldr	r3, [r3]
 2358 0008 044A     		ldr	r2, .L153
 2359 000a 43F40053 		orr	r3, r3, #8192
 2360 000e 1360     		str	r3, [r2]
 788:C:/Users/49542/Desktop/GD32F30x_Demo_Suites_V2.0.0/GD32F30x_Demo_Suites_V2.0.0/GD32F30x_Firmware_Library/GD32F30x_standard_peripheral/Source\gd32f30x_sdio.c **** }
 2361              		.loc 1 788 0
 2362 0010 00BF     		nop
 2363 0012 BD46     		mov	sp, r7
 2364              	.LCFI206:
 2365              		.cfi_def_cfa_register 13
 2366              		@ sp needed
 2367 0014 5DF8047B 		ldr	r7, [sp], #4
 2368              	.LCFI207:
 2369              		.cfi_restore 7
 2370              		.cfi_def_cfa_offset 0
 2371 0018 7047     		bx	lr
 2372              	.L154:
 2373 001a 00BF     		.align	2
 2374              	.L153:
 2375 001c 0C800140 		.word	1073840140
 2376              		.cfi_endproc
ARM GAS  C:\Users\49542\AppData\Local\Temp\ccX92vIs.s 			page 55


 2377              	.LFE159:
 2379              		.section	.text.sdio_ceata_command_completion_enable,"ax",%progbits
 2380              		.align	1
 2381              		.global	sdio_ceata_command_completion_enable
 2382              		.syntax unified
 2383              		.thumb
 2384              		.thumb_func
 2385              		.fpu fpv4-sp-d16
 2387              	sdio_ceata_command_completion_enable:
 2388              	.LFB160:
 789:C:/Users/49542/Desktop/GD32F30x_Demo_Suites_V2.0.0/GD32F30x_Demo_Suites_V2.0.0/GD32F30x_Firmware_Library/GD32F30x_standard_peripheral/Source\gd32f30x_sdio.c **** 
 790:C:/Users/49542/Desktop/GD32F30x_Demo_Suites_V2.0.0/GD32F30x_Demo_Suites_V2.0.0/GD32F30x_Firmware_Library/GD32F30x_standard_peripheral/Source\gd32f30x_sdio.c **** /*!
 791:C:/Users/49542/Desktop/GD32F30x_Demo_Suites_V2.0.0/GD32F30x_Demo_Suites_V2.0.0/GD32F30x_Firmware_Library/GD32F30x_standard_peripheral/Source\gd32f30x_sdio.c ****     \brief      enable the CE-ATA command completion signal(CE-ATA only)
 792:C:/Users/49542/Desktop/GD32F30x_Demo_Suites_V2.0.0/GD32F30x_Demo_Suites_V2.0.0/GD32F30x_Firmware_Library/GD32F30x_standard_peripheral/Source\gd32f30x_sdio.c ****     \param[in]  none
 793:C:/Users/49542/Desktop/GD32F30x_Demo_Suites_V2.0.0/GD32F30x_Demo_Suites_V2.0.0/GD32F30x_Firmware_Library/GD32F30x_standard_peripheral/Source\gd32f30x_sdio.c ****     \param[out] none
 794:C:/Users/49542/Desktop/GD32F30x_Demo_Suites_V2.0.0/GD32F30x_Demo_Suites_V2.0.0/GD32F30x_Firmware_Library/GD32F30x_standard_peripheral/Source\gd32f30x_sdio.c ****     \retval     none
 795:C:/Users/49542/Desktop/GD32F30x_Demo_Suites_V2.0.0/GD32F30x_Demo_Suites_V2.0.0/GD32F30x_Firmware_Library/GD32F30x_standard_peripheral/Source\gd32f30x_sdio.c **** */
 796:C:/Users/49542/Desktop/GD32F30x_Demo_Suites_V2.0.0/GD32F30x_Demo_Suites_V2.0.0/GD32F30x_Firmware_Library/GD32F30x_standard_peripheral/Source\gd32f30x_sdio.c **** void sdio_ceata_command_completion_enable(void)
 797:C:/Users/49542/Desktop/GD32F30x_Demo_Suites_V2.0.0/GD32F30x_Demo_Suites_V2.0.0/GD32F30x_Firmware_Library/GD32F30x_standard_peripheral/Source\gd32f30x_sdio.c **** {
 2389              		.loc 1 797 0
 2390              		.cfi_startproc
 2391              		@ args = 0, pretend = 0, frame = 0
 2392              		@ frame_needed = 1, uses_anonymous_args = 0
 2393              		@ link register save eliminated.
 2394 0000 80B4     		push	{r7}
 2395              	.LCFI208:
 2396              		.cfi_def_cfa_offset 4
 2397              		.cfi_offset 7, -4
 2398 0002 00AF     		add	r7, sp, #0
 2399              	.LCFI209:
 2400              		.cfi_def_cfa_register 7
 798:C:/Users/49542/Desktop/GD32F30x_Demo_Suites_V2.0.0/GD32F30x_Demo_Suites_V2.0.0/GD32F30x_Firmware_Library/GD32F30x_standard_peripheral/Source\gd32f30x_sdio.c ****     SDIO_CMDCTL |= SDIO_CMDCTL_ENCMDC;
 2401              		.loc 1 798 0
 2402 0004 054B     		ldr	r3, .L156
 2403 0006 1B68     		ldr	r3, [r3]
 2404 0008 044A     		ldr	r2, .L156
 2405 000a 43F48053 		orr	r3, r3, #4096
