ARM GAS  C:\Users\49542\AppData\Local\Temp\cccqehWW.s 			page 1


   1              		.cpu cortex-m4
   2              		.eabi_attribute 27, 1
   3              		.eabi_attribute 28, 1
   4              		.eabi_attribute 20, 1
   5              		.eabi_attribute 21, 1
   6              		.eabi_attribute 23, 3
   7              		.eabi_attribute 24, 1
   8              		.eabi_attribute 25, 1
   9              		.eabi_attribute 26, 1
  10              		.eabi_attribute 30, 6
  11              		.eabi_attribute 34, 1
  12              		.eabi_attribute 18, 4
  13              		.file	"gd32f30x_wwdgt.c"
  14              		.text
  15              	.Ltext0:
  16              		.cfi_sections	.debug_frame
  17              		.section	.text.wwdgt_deinit,"ax",%progbits
  18              		.align	1
  19              		.global	wwdgt_deinit
  20              		.syntax unified
  21              		.thumb
  22              		.thumb_func
  23              		.fpu fpv4-sp-d16
  25              	wwdgt_deinit:
  26              	.LFB116:
  27              		.file 1 "C:/Users/49542/Desktop/GD32F30x_Demo_Suites_V2.0.0/GD32F30x_Demo_Suites_V2.0.0/GD32F30x_F
   1:C:/Users/49542/Desktop/GD32F30x_Demo_Suites_V2.0.0/GD32F30x_Demo_Suites_V2.0.0/GD32F30x_Firmware_Library/GD32F30x_standard_peripheral/Source\gd32f30x_wwdgt.c **** /*!
   2:C:/Users/49542/Desktop/GD32F30x_Demo_Suites_V2.0.0/GD32F30x_Demo_Suites_V2.0.0/GD32F30x_Firmware_Library/GD32F30x_standard_peripheral/Source\gd32f30x_wwdgt.c ****     \file  gd32f30x_wwdgt.c
   3:C:/Users/49542/Desktop/GD32F30x_Demo_Suites_V2.0.0/GD32F30x_Demo_Suites_V2.0.0/GD32F30x_Firmware_Library/GD32F30x_standard_peripheral/Source\gd32f30x_wwdgt.c ****     \brief WWDGT driver
   4:C:/Users/49542/Desktop/GD32F30x_Demo_Suites_V2.0.0/GD32F30x_Demo_Suites_V2.0.0/GD32F30x_Firmware_Library/GD32F30x_standard_peripheral/Source\gd32f30x_wwdgt.c **** 
   5:C:/Users/49542/Desktop/GD32F30x_Demo_Suites_V2.0.0/GD32F30x_Demo_Suites_V2.0.0/GD32F30x_Firmware_Library/GD32F30x_standard_peripheral/Source\gd32f30x_wwdgt.c ****     \version 2017-02-10, V1.0.0, firmware for GD32F30x
   6:C:/Users/49542/Desktop/GD32F30x_Demo_Suites_V2.0.0/GD32F30x_Demo_Suites_V2.0.0/GD32F30x_Firmware_Library/GD32F30x_standard_peripheral/Source\gd32f30x_wwdgt.c ****     \version 2018-10-10, V1.1.0, firmware for GD32F30x
   7:C:/Users/49542/Desktop/GD32F30x_Demo_Suites_V2.0.0/GD32F30x_Demo_Suites_V2.0.0/GD32F30x_Firmware_Library/GD32F30x_standard_peripheral/Source\gd32f30x_wwdgt.c ****     \version 2018-12-25, V2.0.0, firmware for GD32F30x
   8:C:/Users/49542/Desktop/GD32F30x_Demo_Suites_V2.0.0/GD32F30x_Demo_Suites_V2.0.0/GD32F30x_Firmware_Library/GD32F30x_standard_peripheral/Source\gd32f30x_wwdgt.c **** */
   9:C:/Users/49542/Desktop/GD32F30x_Demo_Suites_V2.0.0/GD32F30x_Demo_Suites_V2.0.0/GD32F30x_Firmware_Library/GD32F30x_standard_peripheral/Source\gd32f30x_wwdgt.c **** 
  10:C:/Users/49542/Desktop/GD32F30x_Demo_Suites_V2.0.0/GD32F30x_Demo_Suites_V2.0.0/GD32F30x_Firmware_Library/GD32F30x_standard_peripheral/Source\gd32f30x_wwdgt.c **** /*
  11:C:/Users/49542/Desktop/GD32F30x_Demo_Suites_V2.0.0/GD32F30x_Demo_Suites_V2.0.0/GD32F30x_Firmware_Library/GD32F30x_standard_peripheral/Source\gd32f30x_wwdgt.c ****     Copyright (c) 2018, GigaDevice Semiconductor Inc.
  12:C:/Users/49542/Desktop/GD32F30x_Demo_Suites_V2.0.0/GD32F30x_Demo_Suites_V2.0.0/GD32F30x_Firmware_Library/GD32F30x_standard_peripheral/Source\gd32f30x_wwdgt.c **** 
  13:C:/Users/49542/Desktop/GD32F30x_Demo_Suites_V2.0.0/GD32F30x_Demo_Suites_V2.0.0/GD32F30x_Firmware_Library/GD32F30x_standard_peripheral/Source\gd32f30x_wwdgt.c ****     All rights reserved.
  14:C:/Users/49542/Desktop/GD32F30x_Demo_Suites_V2.0.0/GD32F30x_Demo_Suites_V2.0.0/GD32F30x_Firmware_Library/GD32F30x_standard_peripheral/Source\gd32f30x_wwdgt.c **** 
  15:C:/Users/49542/Desktop/GD32F30x_Demo_Suites_V2.0.0/GD32F30x_Demo_Suites_V2.0.0/GD32F30x_Firmware_Library/GD32F30x_standard_peripheral/Source\gd32f30x_wwdgt.c ****     Redistribution and use in source and binary forms, with or without modification, 
  16:C:/Users/49542/Desktop/GD32F30x_Demo_Suites_V2.0.0/GD32F30x_Demo_Suites_V2.0.0/GD32F30x_Firmware_Library/GD32F30x_standard_peripheral/Source\gd32f30x_wwdgt.c **** are permitted provided that the following conditions are met:
  17:C:/Users/49542/Desktop/GD32F30x_Demo_Suites_V2.0.0/GD32F30x_Demo_Suites_V2.0.0/GD32F30x_Firmware_Library/GD32F30x_standard_peripheral/Source\gd32f30x_wwdgt.c **** 
  18:C:/Users/49542/Desktop/GD32F30x_Demo_Suites_V2.0.0/GD32F30x_Demo_Suites_V2.0.0/GD32F30x_Firmware_Library/GD32F30x_standard_peripheral/Source\gd32f30x_wwdgt.c ****     1. Redistributions of source code must retain the above copyright notice, this 
  19:C:/Users/49542/Desktop/GD32F30x_Demo_Suites_V2.0.0/GD32F30x_Demo_Suites_V2.0.0/GD32F30x_Firmware_Library/GD32F30x_standard_peripheral/Source\gd32f30x_wwdgt.c ****        list of conditions and the following disclaimer.
  20:C:/Users/49542/Desktop/GD32F30x_Demo_Suites_V2.0.0/GD32F30x_Demo_Suites_V2.0.0/GD32F30x_Firmware_Library/GD32F30x_standard_peripheral/Source\gd32f30x_wwdgt.c ****     2. Redistributions in binary form must reproduce the above copyright notice, 
  21:C:/Users/49542/Desktop/GD32F30x_Demo_Suites_V2.0.0/GD32F30x_Demo_Suites_V2.0.0/GD32F30x_Firmware_Library/GD32F30x_standard_peripheral/Source\gd32f30x_wwdgt.c ****        this list of conditions and the following disclaimer in the documentation 
  22:C:/Users/49542/Desktop/GD32F30x_Demo_Suites_V2.0.0/GD32F30x_Demo_Suites_V2.0.0/GD32F30x_Firmware_Library/GD32F30x_standard_peripheral/Source\gd32f30x_wwdgt.c ****        and/or other materials provided with the distribution.
  23:C:/Users/49542/Desktop/GD32F30x_Demo_Suites_V2.0.0/GD32F30x_Demo_Suites_V2.0.0/GD32F30x_Firmware_Library/GD32F30x_standard_peripheral/Source\gd32f30x_wwdgt.c ****     3. Neither the name of the copyright holder nor the names of its contributors 
  24:C:/Users/49542/Desktop/GD32F30x_Demo_Suites_V2.0.0/GD32F30x_Demo_Suites_V2.0.0/GD32F30x_Firmware_Library/GD32F30x_standard_peripheral/Source\gd32f30x_wwdgt.c ****        may be used to endorse or promote products derived from this software without 
  25:C:/Users/49542/Desktop/GD32F30x_Demo_Suites_V2.0.0/GD32F30x_Demo_Suites_V2.0.0/GD32F30x_Firmware_Library/GD32F30x_standard_peripheral/Source\gd32f30x_wwdgt.c ****        specific prior written permission.
  26:C:/Users/49542/Desktop/GD32F30x_Demo_Suites_V2.0.0/GD32F30x_Demo_Suites_V2.0.0/GD32F30x_Firmware_Library/GD32F30x_standard_peripheral/Source\gd32f30x_wwdgt.c **** 
  27:C:/Users/49542/Desktop/GD32F30x_Demo_Suites_V2.0.0/GD32F30x_Demo_Suites_V2.0.0/GD32F30x_Firmware_Library/GD32F30x_standard_peripheral/Source\gd32f30x_wwdgt.c ****     THIS SOFTWARE IS PROVIDED BY THE COPYRIGHT HOLDERS AND CONTRIBUTORS "AS IS" 
  28:C:/Users/49542/Desktop/GD32F30x_Demo_Suites_V2.0.0/GD32F30x_Demo_Suites_V2.0.0/GD32F30x_Firmware_Library/GD32F30x_standard_peripheral/Source\gd32f30x_wwdgt.c **** AND ANY EXPRESS OR IMPLIED WARRANTIES, INCLUDING, BUT NOT LIMITED TO, THE IMPLIED 
  29:C:/Users/49542/Desktop/GD32F30x_Demo_Suites_V2.0.0/GD32F30x_Demo_Suites_V2.0.0/GD32F30x_Firmware_Library/GD32F30x_standard_peripheral/Source\gd32f30x_wwdgt.c **** WARRANTIES OF MERCHANTABILITY AND FITNESS FOR A PARTICULAR PURPOSE ARE DISCLAIMED. 
  30:C:/Users/49542/Desktop/GD32F30x_Demo_Suites_V2.0.0/GD32F30x_Demo_Suites_V2.0.0/GD32F30x_Firmware_Library/GD32F30x_standard_peripheral/Source\gd32f30x_wwdgt.c **** IN NO EVENT SHALL THE COPYRIGHT HOLDER OR CONTRIBUTORS BE LIABLE FOR ANY DIRECT, 
  31:C:/Users/49542/Desktop/GD32F30x_Demo_Suites_V2.0.0/GD32F30x_Demo_Suites_V2.0.0/GD32F30x_Firmware_Library/GD32F30x_standard_peripheral/Source\gd32f30x_wwdgt.c **** INDIRECT, INCIDENTAL, SPECIAL, EXEMPLARY, OR CONSEQUENTIAL DAMAGES (INCLUDING, BUT 
ARM GAS  C:\Users\49542\AppData\Local\Temp\cccqehWW.s 			page 2


  32:C:/Users/49542/Desktop/GD32F30x_Demo_Suites_V2.0.0/GD32F30x_Demo_Suites_V2.0.0/GD32F30x_Firmware_Library/GD32F30x_standard_peripheral/Source\gd32f30x_wwdgt.c **** NOT LIMITED TO, PROCUREMENT OF SUBSTITUTE GOODS OR SERVICES; LOSS OF USE, DATA, OR 
  33:C:/Users/49542/Desktop/GD32F30x_Demo_Suites_V2.0.0/GD32F30x_Demo_Suites_V2.0.0/GD32F30x_Firmware_Library/GD32F30x_standard_peripheral/Source\gd32f30x_wwdgt.c **** PROFITS; OR BUSINESS INTERRUPTION) HOWEVER CAUSED AND ON ANY THEORY OF LIABILITY, 
  34:C:/Users/49542/Desktop/GD32F30x_Demo_Suites_V2.0.0/GD32F30x_Demo_Suites_V2.0.0/GD32F30x_Firmware_Library/GD32F30x_standard_peripheral/Source\gd32f30x_wwdgt.c **** WHETHER IN CONTRACT, STRICT LIABILITY, OR TORT (INCLUDING NEGLIGENCE OR OTHERWISE) 
  35:C:/Users/49542/Desktop/GD32F30x_Demo_Suites_V2.0.0/GD32F30x_Demo_Suites_V2.0.0/GD32F30x_Firmware_Library/GD32F30x_standard_peripheral/Source\gd32f30x_wwdgt.c **** ARISING IN ANY WAY OUT OF THE USE OF THIS SOFTWARE, EVEN IF ADVISED OF THE POSSIBILITY 
  36:C:/Users/49542/Desktop/GD32F30x_Demo_Suites_V2.0.0/GD32F30x_Demo_Suites_V2.0.0/GD32F30x_Firmware_Library/GD32F30x_standard_peripheral/Source\gd32f30x_wwdgt.c **** OF SUCH DAMAGE.
  37:C:/Users/49542/Desktop/GD32F30x_Demo_Suites_V2.0.0/GD32F30x_Demo_Suites_V2.0.0/GD32F30x_Firmware_Library/GD32F30x_standard_peripheral/Source\gd32f30x_wwdgt.c **** */
  38:C:/Users/49542/Desktop/GD32F30x_Demo_Suites_V2.0.0/GD32F30x_Demo_Suites_V2.0.0/GD32F30x_Firmware_Library/GD32F30x_standard_peripheral/Source\gd32f30x_wwdgt.c **** 
  39:C:/Users/49542/Desktop/GD32F30x_Demo_Suites_V2.0.0/GD32F30x_Demo_Suites_V2.0.0/GD32F30x_Firmware_Library/GD32F30x_standard_peripheral/Source\gd32f30x_wwdgt.c **** #include "gd32f30x_wwdgt.h"
  40:C:/Users/49542/Desktop/GD32F30x_Demo_Suites_V2.0.0/GD32F30x_Demo_Suites_V2.0.0/GD32F30x_Firmware_Library/GD32F30x_standard_peripheral/Source\gd32f30x_wwdgt.c **** 
  41:C:/Users/49542/Desktop/GD32F30x_Demo_Suites_V2.0.0/GD32F30x_Demo_Suites_V2.0.0/GD32F30x_Firmware_Library/GD32F30x_standard_peripheral/Source\gd32f30x_wwdgt.c **** /* write value to WWDGT_CTL_CNT bit field */
  42:C:/Users/49542/Desktop/GD32F30x_Demo_Suites_V2.0.0/GD32F30x_Demo_Suites_V2.0.0/GD32F30x_Firmware_Library/GD32F30x_standard_peripheral/Source\gd32f30x_wwdgt.c **** #define CTL_CNT(regval)             (BITS(0,6) & ((uint32_t)(regval) << 0))
  43:C:/Users/49542/Desktop/GD32F30x_Demo_Suites_V2.0.0/GD32F30x_Demo_Suites_V2.0.0/GD32F30x_Firmware_Library/GD32F30x_standard_peripheral/Source\gd32f30x_wwdgt.c **** /* write value to WWDGT_CFG_WIN bit field */
  44:C:/Users/49542/Desktop/GD32F30x_Demo_Suites_V2.0.0/GD32F30x_Demo_Suites_V2.0.0/GD32F30x_Firmware_Library/GD32F30x_standard_peripheral/Source\gd32f30x_wwdgt.c **** #define CFG_WIN(regval)             (BITS(0,6) & ((uint32_t)(regval) << 0))
  45:C:/Users/49542/Desktop/GD32F30x_Demo_Suites_V2.0.0/GD32F30x_Demo_Suites_V2.0.0/GD32F30x_Firmware_Library/GD32F30x_standard_peripheral/Source\gd32f30x_wwdgt.c **** 
  46:C:/Users/49542/Desktop/GD32F30x_Demo_Suites_V2.0.0/GD32F30x_Demo_Suites_V2.0.0/GD32F30x_Firmware_Library/GD32F30x_standard_peripheral/Source\gd32f30x_wwdgt.c **** /*!
  47:C:/Users/49542/Desktop/GD32F30x_Demo_Suites_V2.0.0/GD32F30x_Demo_Suites_V2.0.0/GD32F30x_Firmware_Library/GD32F30x_standard_peripheral/Source\gd32f30x_wwdgt.c ****     \brief      reset the window watchdog timer configuration
  48:C:/Users/49542/Desktop/GD32F30x_Demo_Suites_V2.0.0/GD32F30x_Demo_Suites_V2.0.0/GD32F30x_Firmware_Library/GD32F30x_standard_peripheral/Source\gd32f30x_wwdgt.c ****     \param[in]  none
  49:C:/Users/49542/Desktop/GD32F30x_Demo_Suites_V2.0.0/GD32F30x_Demo_Suites_V2.0.0/GD32F30x_Firmware_Library/GD32F30x_standard_peripheral/Source\gd32f30x_wwdgt.c ****     \param[out] none
  50:C:/Users/49542/Desktop/GD32F30x_Demo_Suites_V2.0.0/GD32F30x_Demo_Suites_V2.0.0/GD32F30x_Firmware_Library/GD32F30x_standard_peripheral/Source\gd32f30x_wwdgt.c ****     \retval     none
  51:C:/Users/49542/Desktop/GD32F30x_Demo_Suites_V2.0.0/GD32F30x_Demo_Suites_V2.0.0/GD32F30x_Firmware_Library/GD32F30x_standard_peripheral/Source\gd32f30x_wwdgt.c **** */
  52:C:/Users/49542/Desktop/GD32F30x_Demo_Suites_V2.0.0/GD32F30x_Demo_Suites_V2.0.0/GD32F30x_Firmware_Library/GD32F30x_standard_peripheral/Source\gd32f30x_wwdgt.c **** void wwdgt_deinit(void)
  53:C:/Users/49542/Desktop/GD32F30x_Demo_Suites_V2.0.0/GD32F30x_Demo_Suites_V2.0.0/GD32F30x_Firmware_Library/GD32F30x_standard_peripheral/Source\gd32f30x_wwdgt.c **** {
  28              		.loc 1 53 0
  29              		.cfi_startproc
  30              		@ args = 0, pretend = 0, frame = 0
  31              		@ frame_needed = 1, uses_anonymous_args = 0
  32 0000 80B5     		push	{r7, lr}
  33              	.LCFI0:
  34              		.cfi_def_cfa_offset 8
  35              		.cfi_offset 7, -8
  36              		.cfi_offset 14, -4
  37 0002 00AF     		add	r7, sp, #0
  38              	.LCFI1:
  39              		.cfi_def_cfa_register 7
  54:C:/Users/49542/Desktop/GD32F30x_Demo_Suites_V2.0.0/GD32F30x_Demo_Suites_V2.0.0/GD32F30x_Firmware_Library/GD32F30x_standard_peripheral/Source\gd32f30x_wwdgt.c ****     rcu_periph_reset_enable(RCU_WWDGTRST);
  40              		.loc 1 54 0
  41 0004 40F20B40 		movw	r0, #1035
  42 0008 FFF7FEFF 		bl	rcu_periph_reset_enable
  55:C:/Users/49542/Desktop/GD32F30x_Demo_Suites_V2.0.0/GD32F30x_Demo_Suites_V2.0.0/GD32F30x_Firmware_Library/GD32F30x_standard_peripheral/Source\gd32f30x_wwdgt.c ****     rcu_periph_reset_disable(RCU_WWDGTRST);
  43              		.loc 1 55 0
  44 000c 40F20B40 		movw	r0, #1035
  45 0010 FFF7FEFF 		bl	rcu_periph_reset_disable
  56:C:/Users/49542/Desktop/GD32F30x_Demo_Suites_V2.0.0/GD32F30x_Demo_Suites_V2.0.0/GD32F30x_Firmware_Library/GD32F30x_standard_peripheral/Source\gd32f30x_wwdgt.c **** }
  46              		.loc 1 56 0
  47 0014 00BF     		nop
  48 0016 80BD     		pop	{r7, pc}
  49              		.cfi_endproc
  50              	.LFE116:
  52              		.section	.text.wwdgt_enable,"ax",%progbits
  53              		.align	1
  54              		.global	wwdgt_enable
  55              		.syntax unified
  56              		.thumb
  57              		.thumb_func
  58              		.fpu fpv4-sp-d16
  60              	wwdgt_enable:
  61              	.LFB117:
ARM GAS  C:\Users\49542\AppData\Local\Temp\cccqehWW.s 			page 3


  57:C:/Users/49542/Desktop/GD32F30x_Demo_Suites_V2.0.0/GD32F30x_Demo_Suites_V2.0.0/GD32F30x_Firmware_Library/GD32F30x_standard_peripheral/Source\gd32f30x_wwdgt.c **** 
  58:C:/Users/49542/Desktop/GD32F30x_Demo_Suites_V2.0.0/GD32F30x_Demo_Suites_V2.0.0/GD32F30x_Firmware_Library/GD32F30x_standard_peripheral/Source\gd32f30x_wwdgt.c **** /*!
  59:C:/Users/49542/Desktop/GD32F30x_Demo_Suites_V2.0.0/GD32F30x_Demo_Suites_V2.0.0/GD32F30x_Firmware_Library/GD32F30x_standard_peripheral/Source\gd32f30x_wwdgt.c ****     \brief      start the window watchdog timer counter
  60:C:/Users/49542/Desktop/GD32F30x_Demo_Suites_V2.0.0/GD32F30x_Demo_Suites_V2.0.0/GD32F30x_Firmware_Library/GD32F30x_standard_peripheral/Source\gd32f30x_wwdgt.c ****     \param[in]  none
  61:C:/Users/49542/Desktop/GD32F30x_Demo_Suites_V2.0.0/GD32F30x_Demo_Suites_V2.0.0/GD32F30x_Firmware_Library/GD32F30x_standard_peripheral/Source\gd32f30x_wwdgt.c ****     \param[out] none
  62:C:/Users/49542/Desktop/GD32F30x_Demo_Suites_V2.0.0/GD32F30x_Demo_Suites_V2.0.0/GD32F30x_Firmware_Library/GD32F30x_standard_peripheral/Source\gd32f30x_wwdgt.c ****     \retval     none
  63:C:/Users/49542/Desktop/GD32F30x_Demo_Suites_V2.0.0/GD32F30x_Demo_Suites_V2.0.0/GD32F30x_Firmware_Library/GD32F30x_standard_peripheral/Source\gd32f30x_wwdgt.c **** */
  64:C:/Users/49542/Desktop/GD32F30x_Demo_Suites_V2.0.0/GD32F30x_Demo_Suites_V2.0.0/GD32F30x_Firmware_Library/GD32F30x_standard_peripheral/Source\gd32f30x_wwdgt.c **** void wwdgt_enable(void)
  65:C:/Users/49542/Desktop/GD32F30x_Demo_Suites_V2.0.0/GD32F30x_Demo_Suites_V2.0.0/GD32F30x_Firmware_Library/GD32F30x_standard_peripheral/Source\gd32f30x_wwdgt.c **** {
  62              		.loc 1 65 0
  63              		.cfi_startproc
  64              		@ args = 0, pretend = 0, frame = 0
  65              		@ frame_needed = 1, uses_anonymous_args = 0
  66              		@ link register save eliminated.
  67 0000 80B4     		push	{r7}
  68              	.LCFI2:
  69              		.cfi_def_cfa_offset 4
  70              		.cfi_offset 7, -4
  71 0002 00AF     		add	r7, sp, #0
  72              	.LCFI3:
  73              		.cfi_def_cfa_register 7
  66:C:/Users/49542/Desktop/GD32F30x_Demo_Suites_V2.0.0/GD32F30x_Demo_Suites_V2.0.0/GD32F30x_Firmware_Library/GD32F30x_standard_peripheral/Source\gd32f30x_wwdgt.c ****     WWDGT_CTL |= WWDGT_CTL_WDGTEN;
  74              		.loc 1 66 0
  75 0004 054B     		ldr	r3, .L3
  76 0006 1B68     		ldr	r3, [r3]
  77 0008 044A     		ldr	r2, .L3
  78 000a 43F08003 		orr	r3, r3, #128
  79 000e 1360     		str	r3, [r2]
  67:C:/Users/49542/Desktop/GD32F30x_Demo_Suites_V2.0.0/GD32F30x_Demo_Suites_V2.0.0/GD32F30x_Firmware_Library/GD32F30x_standard_peripheral/Source\gd32f30x_wwdgt.c **** }
  80              		.loc 1 67 0
  81 0010 00BF     		nop
  82 0012 BD46     		mov	sp, r7
  83              	.LCFI4:
  84              		.cfi_def_cfa_register 13
  85              		@ sp needed
  86 0014 5DF8047B 		ldr	r7, [sp], #4
  87              	.LCFI5:
  88              		.cfi_restore 7
  89              		.cfi_def_cfa_offset 0
  90 0018 7047     		bx	lr
  91              	.L4:
  92 001a 00BF     		.align	2
  93              	.L3:
  94 001c 002C0040 		.word	1073753088
  95              		.cfi_endproc
  96              	.LFE117:
  98              		.section	.text.wwdgt_counter_update,"ax",%progbits
  99              		.align	1
 100              		.global	wwdgt_counter_update
 101              		.syntax unified
 102              		.thumb
 103              		.thumb_func
 104              		.fpu fpv4-sp-d16
 106              	wwdgt_counter_update:
 107              	.LFB118:
  68:C:/Users/49542/Desktop/GD32F30x_Demo_Suites_V2.0.0/GD32F30x_Demo_Suites_V2.0.0/GD32F30x_Firmware_Library/GD32F30x_standard_peripheral/Source\gd32f30x_wwdgt.c **** 
  69:C:/Users/49542/Desktop/GD32F30x_Demo_Suites_V2.0.0/GD32F30x_Demo_Suites_V2.0.0/GD32F30x_Firmware_Library/GD32F30x_standard_peripheral/Source\gd32f30x_wwdgt.c **** /*!
ARM GAS  C:\Users\49542\AppData\Local\Temp\cccqehWW.s 			page 4


  70:C:/Users/49542/Desktop/GD32F30x_Demo_Suites_V2.0.0/GD32F30x_Demo_Suites_V2.0.0/GD32F30x_Firmware_Library/GD32F30x_standard_peripheral/Source\gd32f30x_wwdgt.c ****     \brief      configure the window watchdog timer counter value
  71:C:/Users/49542/Desktop/GD32F30x_Demo_Suites_V2.0.0/GD32F30x_Demo_Suites_V2.0.0/GD32F30x_Firmware_Library/GD32F30x_standard_peripheral/Source\gd32f30x_wwdgt.c ****     \param[in]  counter_value: 0x00 - 0x7F
  72:C:/Users/49542/Desktop/GD32F30x_Demo_Suites_V2.0.0/GD32F30x_Demo_Suites_V2.0.0/GD32F30x_Firmware_Library/GD32F30x_standard_peripheral/Source\gd32f30x_wwdgt.c ****     \param[out] none
  73:C:/Users/49542/Desktop/GD32F30x_Demo_Suites_V2.0.0/GD32F30x_Demo_Suites_V2.0.0/GD32F30x_Firmware_Library/GD32F30x_standard_peripheral/Source\gd32f30x_wwdgt.c ****     \retval     none
  74:C:/Users/49542/Desktop/GD32F30x_Demo_Suites_V2.0.0/GD32F30x_Demo_Suites_V2.0.0/GD32F30x_Firmware_Library/GD32F30x_standard_peripheral/Source\gd32f30x_wwdgt.c **** */
  75:C:/Users/49542/Desktop/GD32F30x_Demo_Suites_V2.0.0/GD32F30x_Demo_Suites_V2.0.0/GD32F30x_Firmware_Library/GD32F30x_standard_peripheral/Source\gd32f30x_wwdgt.c **** void wwdgt_counter_update(uint16_t counter_value)
  76:C:/Users/49542/Desktop/GD32F30x_Demo_Suites_V2.0.0/GD32F30x_Demo_Suites_V2.0.0/GD32F30x_Firmware_Library/GD32F30x_standard_peripheral/Source\gd32f30x_wwdgt.c **** {
 108              		.loc 1 76 0
 109              		.cfi_startproc
 110              		@ args = 0, pretend = 0, frame = 16
 111              		@ frame_needed = 1, uses_anonymous_args = 0
 112              		@ link register save eliminated.
 113 0000 80B4     		push	{r7}
 114              	.LCFI6:
 115              		.cfi_def_cfa_offset 4
 116              		.cfi_offset 7, -4
 117 0002 85B0     		sub	sp, sp, #20
 118              	.LCFI7:
 119              		.cfi_def_cfa_offset 24
 120 0004 00AF     		add	r7, sp, #0
 121              	.LCFI8:
 122              		.cfi_def_cfa_register 7
 123 0006 0346     		mov	r3, r0
 124 0008 FB80     		strh	r3, [r7, #6]	@ movhi
  77:C:/Users/49542/Desktop/GD32F30x_Demo_Suites_V2.0.0/GD32F30x_Demo_Suites_V2.0.0/GD32F30x_Firmware_Library/GD32F30x_standard_peripheral/Source\gd32f30x_wwdgt.c ****     uint32_t reg = 0U;
 125              		.loc 1 77 0
 126 000a 0023     		movs	r3, #0
 127 000c FB60     		str	r3, [r7, #12]
  78:C:/Users/49542/Desktop/GD32F30x_Demo_Suites_V2.0.0/GD32F30x_Demo_Suites_V2.0.0/GD32F30x_Firmware_Library/GD32F30x_standard_peripheral/Source\gd32f30x_wwdgt.c ****     
  79:C:/Users/49542/Desktop/GD32F30x_Demo_Suites_V2.0.0/GD32F30x_Demo_Suites_V2.0.0/GD32F30x_Firmware_Library/GD32F30x_standard_peripheral/Source\gd32f30x_wwdgt.c ****     reg = (WWDGT_CTL & (~WWDGT_CTL_CNT));
 128              		.loc 1 79 0
 129 000e 0A4B     		ldr	r3, .L6
 130 0010 1B68     		ldr	r3, [r3]
 131 0012 23F07F03 		bic	r3, r3, #127
 132 0016 FB60     		str	r3, [r7, #12]
  80:C:/Users/49542/Desktop/GD32F30x_Demo_Suites_V2.0.0/GD32F30x_Demo_Suites_V2.0.0/GD32F30x_Firmware_Library/GD32F30x_standard_peripheral/Source\gd32f30x_wwdgt.c ****     reg |= CTL_CNT(counter_value);
 133              		.loc 1 80 0
 134 0018 FB88     		ldrh	r3, [r7, #6]
 135 001a 03F07F03 		and	r3, r3, #127
 136 001e FA68     		ldr	r2, [r7, #12]
 137 0020 1343     		orrs	r3, r3, r2
 138 0022 FB60     		str	r3, [r7, #12]
  81:C:/Users/49542/Desktop/GD32F30x_Demo_Suites_V2.0.0/GD32F30x_Demo_Suites_V2.0.0/GD32F30x_Firmware_Library/GD32F30x_standard_peripheral/Source\gd32f30x_wwdgt.c ****     
  82:C:/Users/49542/Desktop/GD32F30x_Demo_Suites_V2.0.0/GD32F30x_Demo_Suites_V2.0.0/GD32F30x_Firmware_Library/GD32F30x_standard_peripheral/Source\gd32f30x_wwdgt.c ****     WWDGT_CTL = reg;
 139              		.loc 1 82 0
 140 0024 044A     		ldr	r2, .L6
 141 0026 FB68     		ldr	r3, [r7, #12]
 142 0028 1360     		str	r3, [r2]
  83:C:/Users/49542/Desktop/GD32F30x_Demo_Suites_V2.0.0/GD32F30x_Demo_Suites_V2.0.0/GD32F30x_Firmware_Library/GD32F30x_standard_peripheral/Source\gd32f30x_wwdgt.c **** }
 143              		.loc 1 83 0
 144 002a 00BF     		nop
 145 002c 1437     		adds	r7, r7, #20
 146              	.LCFI9:
 147              		.cfi_def_cfa_offset 4
 148 002e BD46     		mov	sp, r7
 149              	.LCFI10:
 150              		.cfi_def_cfa_register 13
ARM GAS  C:\Users\49542\AppData\Local\Temp\cccqehWW.s 			page 5


 151              		@ sp needed
 152 0030 5DF8047B 		ldr	r7, [sp], #4
 153              	.LCFI11:
 154              		.cfi_restore 7
 155              		.cfi_def_cfa_offset 0
 156 0034 7047     		bx	lr
 157              	.L7:
 158 0036 00BF     		.align	2
 159              	.L6:
 160 0038 002C0040 		.word	1073753088
 161              		.cfi_endproc
 162              	.LFE118:
 164              		.section	.text.wwdgt_config,"ax",%progbits
 165              		.align	1
 166              		.global	wwdgt_config
 167              		.syntax unified
 168              		.thumb
 169              		.thumb_func
 170              		.fpu fpv4-sp-d16
 172              	wwdgt_config:
 173              	.LFB119:
  84:C:/Users/49542/Desktop/GD32F30x_Demo_Suites_V2.0.0/GD32F30x_Demo_Suites_V2.0.0/GD32F30x_Firmware_Library/GD32F30x_standard_peripheral/Source\gd32f30x_wwdgt.c **** 
  85:C:/Users/49542/Desktop/GD32F30x_Demo_Suites_V2.0.0/GD32F30x_Demo_Suites_V2.0.0/GD32F30x_Firmware_Library/GD32F30x_standard_peripheral/Source\gd32f30x_wwdgt.c **** /*!
  86:C:/Users/49542/Desktop/GD32F30x_Demo_Suites_V2.0.0/GD32F30x_Demo_Suites_V2.0.0/GD32F30x_Firmware_Library/GD32F30x_standard_peripheral/Source\gd32f30x_wwdgt.c ****     \brief      configure counter value, window value, and prescaler divider value  
  87:C:/Users/49542/Desktop/GD32F30x_Demo_Suites_V2.0.0/GD32F30x_Demo_Suites_V2.0.0/GD32F30x_Firmware_Library/GD32F30x_standard_peripheral/Source\gd32f30x_wwdgt.c ****     \param[in]  counter: 0x00 - 0x7F   
  88:C:/Users/49542/Desktop/GD32F30x_Demo_Suites_V2.0.0/GD32F30x_Demo_Suites_V2.0.0/GD32F30x_Firmware_Library/GD32F30x_standard_peripheral/Source\gd32f30x_wwdgt.c ****     \param[in]  window: 0x00 - 0x7F
  89:C:/Users/49542/Desktop/GD32F30x_Demo_Suites_V2.0.0/GD32F30x_Demo_Suites_V2.0.0/GD32F30x_Firmware_Library/GD32F30x_standard_peripheral/Source\gd32f30x_wwdgt.c ****     \param[in]  prescaler: wwdgt prescaler value
  90:C:/Users/49542/Desktop/GD32F30x_Demo_Suites_V2.0.0/GD32F30x_Demo_Suites_V2.0.0/GD32F30x_Firmware_Library/GD32F30x_standard_peripheral/Source\gd32f30x_wwdgt.c ****                 only one parameter can be selected which is shown as below:
  91:C:/Users/49542/Desktop/GD32F30x_Demo_Suites_V2.0.0/GD32F30x_Demo_Suites_V2.0.0/GD32F30x_Firmware_Library/GD32F30x_standard_peripheral/Source\gd32f30x_wwdgt.c ****       \arg        WWDGT_CFG_PSC_DIV1: the time base of window watchdog counter = (PCLK1/4096)/1
  92:C:/Users/49542/Desktop/GD32F30x_Demo_Suites_V2.0.0/GD32F30x_Demo_Suites_V2.0.0/GD32F30x_Firmware_Library/GD32F30x_standard_peripheral/Source\gd32f30x_wwdgt.c ****       \arg        WWDGT_CFG_PSC_DIV2: the time base of window watchdog counter = (PCLK1/4096)/2
  93:C:/Users/49542/Desktop/GD32F30x_Demo_Suites_V2.0.0/GD32F30x_Demo_Suites_V2.0.0/GD32F30x_Firmware_Library/GD32F30x_standard_peripheral/Source\gd32f30x_wwdgt.c ****       \arg        WWDGT_CFG_PSC_DIV4: the time base of window watchdog counter = (PCLK1/4096)/4
  94:C:/Users/49542/Desktop/GD32F30x_Demo_Suites_V2.0.0/GD32F30x_Demo_Suites_V2.0.0/GD32F30x_Firmware_Library/GD32F30x_standard_peripheral/Source\gd32f30x_wwdgt.c ****       \arg        WWDGT_CFG_PSC_DIV8: the time base of window watchdog counter = (PCLK1/4096)/8
  95:C:/Users/49542/Desktop/GD32F30x_Demo_Suites_V2.0.0/GD32F30x_Demo_Suites_V2.0.0/GD32F30x_Firmware_Library/GD32F30x_standard_peripheral/Source\gd32f30x_wwdgt.c ****     \param[out] none
  96:C:/Users/49542/Desktop/GD32F30x_Demo_Suites_V2.0.0/GD32F30x_Demo_Suites_V2.0.0/GD32F30x_Firmware_Library/GD32F30x_standard_peripheral/Source\gd32f30x_wwdgt.c ****     \retval     none
  97:C:/Users/49542/Desktop/GD32F30x_Demo_Suites_V2.0.0/GD32F30x_Demo_Suites_V2.0.0/GD32F30x_Firmware_Library/GD32F30x_standard_peripheral/Source\gd32f30x_wwdgt.c **** */
  98:C:/Users/49542/Desktop/GD32F30x_Demo_Suites_V2.0.0/GD32F30x_Demo_Suites_V2.0.0/GD32F30x_Firmware_Library/GD32F30x_standard_peripheral/Source\gd32f30x_wwdgt.c **** void wwdgt_config(uint16_t counter, uint16_t window, uint32_t prescaler)
  99:C:/Users/49542/Desktop/GD32F30x_Demo_Suites_V2.0.0/GD32F30x_Demo_Suites_V2.0.0/GD32F30x_Firmware_Library/GD32F30x_standard_peripheral/Source\gd32f30x_wwdgt.c **** {
 174              		.loc 1 99 0
 175              		.cfi_startproc
 176              		@ args = 0, pretend = 0, frame = 16
 177              		@ frame_needed = 1, uses_anonymous_args = 0
 178              		@ link register save eliminated.
 179 0000 80B4     		push	{r7}
 180              	.LCFI12:
 181              		.cfi_def_cfa_offset 4
 182              		.cfi_offset 7, -4
 183 0002 85B0     		sub	sp, sp, #20
 184              	.LCFI13:
 185              		.cfi_def_cfa_offset 24
 186 0004 00AF     		add	r7, sp, #0
 187              	.LCFI14:
 188              		.cfi_def_cfa_register 7
 189 0006 0346     		mov	r3, r0
 190 0008 3A60     		str	r2, [r7]
 191 000a FB80     		strh	r3, [r7, #6]	@ movhi
 192 000c 0B46     		mov	r3, r1	@ movhi
 193 000e BB80     		strh	r3, [r7, #4]	@ movhi
ARM GAS  C:\Users\49542\AppData\Local\Temp\cccqehWW.s 			page 6


 100:C:/Users/49542/Desktop/GD32F30x_Demo_Suites_V2.0.0/GD32F30x_Demo_Suites_V2.0.0/GD32F30x_Firmware_Library/GD32F30x_standard_peripheral/Source\gd32f30x_wwdgt.c ****     uint32_t reg_cfg = 0U, reg_ctl = 0U;
 194              		.loc 1 100 0
 195 0010 0023     		movs	r3, #0
 196 0012 FB60     		str	r3, [r7, #12]
 197 0014 0023     		movs	r3, #0
 198 0016 BB60     		str	r3, [r7, #8]
 101:C:/Users/49542/Desktop/GD32F30x_Demo_Suites_V2.0.0/GD32F30x_Demo_Suites_V2.0.0/GD32F30x_Firmware_Library/GD32F30x_standard_peripheral/Source\gd32f30x_wwdgt.c **** 
 102:C:/Users/49542/Desktop/GD32F30x_Demo_Suites_V2.0.0/GD32F30x_Demo_Suites_V2.0.0/GD32F30x_Firmware_Library/GD32F30x_standard_peripheral/Source\gd32f30x_wwdgt.c ****     /* clear WIN and PSC bits, clear CNT bit */
 103:C:/Users/49542/Desktop/GD32F30x_Demo_Suites_V2.0.0/GD32F30x_Demo_Suites_V2.0.0/GD32F30x_Firmware_Library/GD32F30x_standard_peripheral/Source\gd32f30x_wwdgt.c ****     reg_cfg = (WWDGT_CFG &(~(WWDGT_CFG_WIN|WWDGT_CFG_PSC)));
 199              		.loc 1 103 0
 200 0018 134B     		ldr	r3, .L9
 201 001a 1B68     		ldr	r3, [r3]
 202 001c 23F4FF73 		bic	r3, r3, #510
 203 0020 23F00103 		bic	r3, r3, #1
 204 0024 FB60     		str	r3, [r7, #12]
 104:C:/Users/49542/Desktop/GD32F30x_Demo_Suites_V2.0.0/GD32F30x_Demo_Suites_V2.0.0/GD32F30x_Firmware_Library/GD32F30x_standard_peripheral/Source\gd32f30x_wwdgt.c ****     reg_ctl = (WWDGT_CTL &(~WWDGT_CTL_CNT));
 205              		.loc 1 104 0
 206 0026 114B     		ldr	r3, .L9+4
 207 0028 1B68     		ldr	r3, [r3]
 208 002a 23F07F03 		bic	r3, r3, #127
 209 002e BB60     		str	r3, [r7, #8]
 105:C:/Users/49542/Desktop/GD32F30x_Demo_Suites_V2.0.0/GD32F30x_Demo_Suites_V2.0.0/GD32F30x_Firmware_Library/GD32F30x_standard_peripheral/Source\gd32f30x_wwdgt.c ****   
 106:C:/Users/49542/Desktop/GD32F30x_Demo_Suites_V2.0.0/GD32F30x_Demo_Suites_V2.0.0/GD32F30x_Firmware_Library/GD32F30x_standard_peripheral/Source\gd32f30x_wwdgt.c ****     /* configure WIN and PSC bits, configure CNT bit */
 107:C:/Users/49542/Desktop/GD32F30x_Demo_Suites_V2.0.0/GD32F30x_Demo_Suites_V2.0.0/GD32F30x_Firmware_Library/GD32F30x_standard_peripheral/Source\gd32f30x_wwdgt.c ****     reg_cfg |= CFG_WIN(window);
 210              		.loc 1 107 0
 211 0030 BB88     		ldrh	r3, [r7, #4]
 212 0032 03F07F03 		and	r3, r3, #127
 213 0036 FA68     		ldr	r2, [r7, #12]
 214 0038 1343     		orrs	r3, r3, r2
 215 003a FB60     		str	r3, [r7, #12]
 108:C:/Users/49542/Desktop/GD32F30x_Demo_Suites_V2.0.0/GD32F30x_Demo_Suites_V2.0.0/GD32F30x_Firmware_Library/GD32F30x_standard_peripheral/Source\gd32f30x_wwdgt.c ****     reg_cfg |= prescaler;
 216              		.loc 1 108 0
 217 003c FA68     		ldr	r2, [r7, #12]
 218 003e 3B68     		ldr	r3, [r7]
 219 0040 1343     		orrs	r3, r3, r2
 220 0042 FB60     		str	r3, [r7, #12]
 109:C:/Users/49542/Desktop/GD32F30x_Demo_Suites_V2.0.0/GD32F30x_Demo_Suites_V2.0.0/GD32F30x_Firmware_Library/GD32F30x_standard_peripheral/Source\gd32f30x_wwdgt.c ****     reg_ctl |= CTL_CNT(counter);
 221              		.loc 1 109 0
 222 0044 FB88     		ldrh	r3, [r7, #6]
 223 0046 03F07F03 		and	r3, r3, #127
 224 004a BA68     		ldr	r2, [r7, #8]
 225 004c 1343     		orrs	r3, r3, r2
 226 004e BB60     		str	r3, [r7, #8]
 110:C:/Users/49542/Desktop/GD32F30x_Demo_Suites_V2.0.0/GD32F30x_Demo_Suites_V2.0.0/GD32F30x_Firmware_Library/GD32F30x_standard_peripheral/Source\gd32f30x_wwdgt.c ****     
 111:C:/Users/49542/Desktop/GD32F30x_Demo_Suites_V2.0.0/GD32F30x_Demo_Suites_V2.0.0/GD32F30x_Firmware_Library/GD32F30x_standard_peripheral/Source\gd32f30x_wwdgt.c ****     WWDGT_CTL = reg_ctl;
 227              		.loc 1 111 0
 228 0050 064A     		ldr	r2, .L9+4
 229 0052 BB68     		ldr	r3, [r7, #8]
 230 0054 1360     		str	r3, [r2]
 112:C:/Users/49542/Desktop/GD32F30x_Demo_Suites_V2.0.0/GD32F30x_Demo_Suites_V2.0.0/GD32F30x_Firmware_Library/GD32F30x_standard_peripheral/Source\gd32f30x_wwdgt.c ****     WWDGT_CFG = reg_cfg;
 231              		.loc 1 112 0
 232 0056 044A     		ldr	r2, .L9
 233 0058 FB68     		ldr	r3, [r7, #12]
 234 005a 1360     		str	r3, [r2]
 113:C:/Users/49542/Desktop/GD32F30x_Demo_Suites_V2.0.0/GD32F30x_Demo_Suites_V2.0.0/GD32F30x_Firmware_Library/GD32F30x_standard_peripheral/Source\gd32f30x_wwdgt.c **** }
 235              		.loc 1 113 0
 236 005c 00BF     		nop
ARM GAS  C:\Users\49542\AppData\Local\Temp\cccqehWW.s 			page 7


 237 005e 1437     		adds	r7, r7, #20
 238              	.LCFI15:
 239              		.cfi_def_cfa_offset 4
 240 0060 BD46     		mov	sp, r7
 241              	.LCFI16:
 242              		.cfi_def_cfa_register 13
 243              		@ sp needed
 244 0062 5DF8047B 		ldr	r7, [sp], #4
 245              	.LCFI17:
 246              		.cfi_restore 7
 247              		.cfi_def_cfa_offset 0
 248 0066 7047     		bx	lr
 249              	.L10:
 250              		.align	2
 251              	.L9:
 252 0068 042C0040 		.word	1073753092
 253 006c 002C0040 		.word	1073753088
 254              		.cfi_endproc
 255              	.LFE119:
 257              		.section	.text.wwdgt_interrupt_enable,"ax",%progbits
 258              		.align	1
 259              		.global	wwdgt_interrupt_enable
 260              		.syntax unified
 261              		.thumb
 262              		.thumb_func
 263              		.fpu fpv4-sp-d16
 265              	wwdgt_interrupt_enable:
 266              	.LFB120:
 114:C:/Users/49542/Desktop/GD32F30x_Demo_Suites_V2.0.0/GD32F30x_Demo_Suites_V2.0.0/GD32F30x_Firmware_Library/GD32F30x_standard_peripheral/Source\gd32f30x_wwdgt.c **** 
 115:C:/Users/49542/Desktop/GD32F30x_Demo_Suites_V2.0.0/GD32F30x_Demo_Suites_V2.0.0/GD32F30x_Firmware_Library/GD32F30x_standard_peripheral/Source\gd32f30x_wwdgt.c **** /*!
 116:C:/Users/49542/Desktop/GD32F30x_Demo_Suites_V2.0.0/GD32F30x_Demo_Suites_V2.0.0/GD32F30x_Firmware_Library/GD32F30x_standard_peripheral/Source\gd32f30x_wwdgt.c ****     \brief      enable early wakeup interrupt of WWDGT
 117:C:/Users/49542/Desktop/GD32F30x_Demo_Suites_V2.0.0/GD32F30x_Demo_Suites_V2.0.0/GD32F30x_Firmware_Library/GD32F30x_standard_peripheral/Source\gd32f30x_wwdgt.c ****     \param[in]  none
 118:C:/Users/49542/Desktop/GD32F30x_Demo_Suites_V2.0.0/GD32F30x_Demo_Suites_V2.0.0/GD32F30x_Firmware_Library/GD32F30x_standard_peripheral/Source\gd32f30x_wwdgt.c ****     \param[out] none
 119:C:/Users/49542/Desktop/GD32F30x_Demo_Suites_V2.0.0/GD32F30x_Demo_Suites_V2.0.0/GD32F30x_Firmware_Library/GD32F30x_standard_peripheral/Source\gd32f30x_wwdgt.c ****     \retval     none
 120:C:/Users/49542/Desktop/GD32F30x_Demo_Suites_V2.0.0/GD32F30x_Demo_Suites_V2.0.0/GD32F30x_Firmware_Library/GD32F30x_standard_peripheral/Source\gd32f30x_wwdgt.c **** */
 121:C:/Users/49542/Desktop/GD32F30x_Demo_Suites_V2.0.0/GD32F30x_Demo_Suites_V2.0.0/GD32F30x_Firmware_Library/GD32F30x_standard_peripheral/Source\gd32f30x_wwdgt.c **** void wwdgt_interrupt_enable(void)
 122:C:/Users/49542/Desktop/GD32F30x_Demo_Suites_V2.0.0/GD32F30x_Demo_Suites_V2.0.0/GD32F30x_Firmware_Library/GD32F30x_standard_peripheral/Source\gd32f30x_wwdgt.c **** {
 267              		.loc 1 122 0
 268              		.cfi_startproc
 269              		@ args = 0, pretend = 0, frame = 0
 270              		@ frame_needed = 1, uses_anonymous_args = 0
 271              		@ link register save eliminated.
 272 0000 80B4     		push	{r7}
 273              	.LCFI18:
 274              		.cfi_def_cfa_offset 4
 275              		.cfi_offset 7, -4
 276 0002 00AF     		add	r7, sp, #0
 277              	.LCFI19:
 278              		.cfi_def_cfa_register 7
 123:C:/Users/49542/Desktop/GD32F30x_Demo_Suites_V2.0.0/GD32F30x_Demo_Suites_V2.0.0/GD32F30x_Firmware_Library/GD32F30x_standard_peripheral/Source\gd32f30x_wwdgt.c ****     WWDGT_CFG |= WWDGT_CFG_EWIE;
 279              		.loc 1 123 0
 280 0004 054B     		ldr	r3, .L12
 281 0006 1B68     		ldr	r3, [r3]
 282 0008 044A     		ldr	r2, .L12
 283 000a 43F40073 		orr	r3, r3, #512
 284 000e 1360     		str	r3, [r2]
 124:C:/Users/49542/Desktop/GD32F30x_Demo_Suites_V2.0.0/GD32F30x_Demo_Suites_V2.0.0/GD32F30x_Firmware_Library/GD32F30x_standard_peripheral/Source\gd32f30x_wwdgt.c **** }
ARM GAS  C:\Users\49542\AppData\Local\Temp\cccqehWW.s 			page 8


 285              		.loc 1 124 0
 286 0010 00BF     		nop
 287 0012 BD46     		mov	sp, r7
 288              	.LCFI20:
 289              		.cfi_def_cfa_register 13
 290              		@ sp needed
 291 0014 5DF8047B 		ldr	r7, [sp], #4
 292              	.LCFI21:
 293              		.cfi_restore 7
 294              		.cfi_def_cfa_offset 0
 295 0018 7047     		bx	lr
 296              	.L13:
 297 001a 00BF     		.align	2
 298              	.L12:
 299 001c 042C0040 		.word	1073753092
 300              		.cfi_endproc
 301              	.LFE120:
 303              		.section	.text.wwdgt_flag_get,"ax",%progbits
 304              		.align	1
 305              		.global	wwdgt_flag_get
 306              		.syntax unified
 307              		.thumb
 308              		.thumb_func
 309              		.fpu fpv4-sp-d16
 311              	wwdgt_flag_get:
 312              	.LFB121:
 125:C:/Users/49542/Desktop/GD32F30x_Demo_Suites_V2.0.0/GD32F30x_Demo_Suites_V2.0.0/GD32F30x_Firmware_Library/GD32F30x_standard_peripheral/Source\gd32f30x_wwdgt.c **** 
 126:C:/Users/49542/Desktop/GD32F30x_Demo_Suites_V2.0.0/GD32F30x_Demo_Suites_V2.0.0/GD32F30x_Firmware_Library/GD32F30x_standard_peripheral/Source\gd32f30x_wwdgt.c **** /*!
 127:C:/Users/49542/Desktop/GD32F30x_Demo_Suites_V2.0.0/GD32F30x_Demo_Suites_V2.0.0/GD32F30x_Firmware_Library/GD32F30x_standard_peripheral/Source\gd32f30x_wwdgt.c ****     \brief      check early wakeup interrupt state of WWDGT
 128:C:/Users/49542/Desktop/GD32F30x_Demo_Suites_V2.0.0/GD32F30x_Demo_Suites_V2.0.0/GD32F30x_Firmware_Library/GD32F30x_standard_peripheral/Source\gd32f30x_wwdgt.c ****     \param[in]  none
 129:C:/Users/49542/Desktop/GD32F30x_Demo_Suites_V2.0.0/GD32F30x_Demo_Suites_V2.0.0/GD32F30x_Firmware_Library/GD32F30x_standard_peripheral/Source\gd32f30x_wwdgt.c ****     \param[out] none
 130:C:/Users/49542/Desktop/GD32F30x_Demo_Suites_V2.0.0/GD32F30x_Demo_Suites_V2.0.0/GD32F30x_Firmware_Library/GD32F30x_standard_peripheral/Source\gd32f30x_wwdgt.c ****     \retval     FlagStatus: SET or RESET
 131:C:/Users/49542/Desktop/GD32F30x_Demo_Suites_V2.0.0/GD32F30x_Demo_Suites_V2.0.0/GD32F30x_Firmware_Library/GD32F30x_standard_peripheral/Source\gd32f30x_wwdgt.c **** */
 132:C:/Users/49542/Desktop/GD32F30x_Demo_Suites_V2.0.0/GD32F30x_Demo_Suites_V2.0.0/GD32F30x_Firmware_Library/GD32F30x_standard_peripheral/Source\gd32f30x_wwdgt.c **** FlagStatus wwdgt_flag_get(void)
 133:C:/Users/49542/Desktop/GD32F30x_Demo_Suites_V2.0.0/GD32F30x_Demo_Suites_V2.0.0/GD32F30x_Firmware_Library/GD32F30x_standard_peripheral/Source\gd32f30x_wwdgt.c **** {
 313              		.loc 1 133 0
 314              		.cfi_startproc
 315              		@ args = 0, pretend = 0, frame = 0
 316              		@ frame_needed = 1, uses_anonymous_args = 0
 317              		@ link register save eliminated.
 318 0000 80B4     		push	{r7}
 319              	.LCFI22:
 320              		.cfi_def_cfa_offset 4
 321              		.cfi_offset 7, -4
 322 0002 00AF     		add	r7, sp, #0
 323              	.LCFI23:
 324              		.cfi_def_cfa_register 7
 134:C:/Users/49542/Desktop/GD32F30x_Demo_Suites_V2.0.0/GD32F30x_Demo_Suites_V2.0.0/GD32F30x_Firmware_Library/GD32F30x_standard_peripheral/Source\gd32f30x_wwdgt.c ****     if(RESET != (WWDGT_STAT & WWDGT_STAT_EWIF)){
 325              		.loc 1 134 0
 326 0004 064B     		ldr	r3, .L17
 327 0006 1B68     		ldr	r3, [r3]
 328 0008 03F00103 		and	r3, r3, #1
 329 000c 002B     		cmp	r3, #0
 330 000e 01D0     		beq	.L15
 135:C:/Users/49542/Desktop/GD32F30x_Demo_Suites_V2.0.0/GD32F30x_Demo_Suites_V2.0.0/GD32F30x_Firmware_Library/GD32F30x_standard_peripheral/Source\gd32f30x_wwdgt.c ****         return SET;
 331              		.loc 1 135 0
 332 0010 0123     		movs	r3, #1
ARM GAS  C:\Users\49542\AppData\Local\Temp\cccqehWW.s 			page 9


 333 0012 00E0     		b	.L16
 334              	.L15:
 136:C:/Users/49542/Desktop/GD32F30x_Demo_Suites_V2.0.0/GD32F30x_Demo_Suites_V2.0.0/GD32F30x_Firmware_Library/GD32F30x_standard_peripheral/Source\gd32f30x_wwdgt.c ****     }
 137:C:/Users/49542/Desktop/GD32F30x_Demo_Suites_V2.0.0/GD32F30x_Demo_Suites_V2.0.0/GD32F30x_Firmware_Library/GD32F30x_standard_peripheral/Source\gd32f30x_wwdgt.c **** 
 138:C:/Users/49542/Desktop/GD32F30x_Demo_Suites_V2.0.0/GD32F30x_Demo_Suites_V2.0.0/GD32F30x_Firmware_Library/GD32F30x_standard_peripheral/Source\gd32f30x_wwdgt.c ****     return RESET;
 335              		.loc 1 138 0
 336 0014 0023     		movs	r3, #0
 337              	.L16:
 139:C:/Users/49542/Desktop/GD32F30x_Demo_Suites_V2.0.0/GD32F30x_Demo_Suites_V2.0.0/GD32F30x_Firmware_Library/GD32F30x_standard_peripheral/Source\gd32f30x_wwdgt.c **** }
 338              		.loc 1 139 0
 339 0016 1846     		mov	r0, r3
 340 0018 BD46     		mov	sp, r7
 341              	.LCFI24:
 342              		.cfi_def_cfa_register 13
 343              		@ sp needed
 344 001a 5DF8047B 		ldr	r7, [sp], #4
 345              	.LCFI25:
 346              		.cfi_restore 7
 347              		.cfi_def_cfa_offset 0
 348 001e 7047     		bx	lr
 349              	.L18:
 350              		.align	2
 351              	.L17:
 352 0020 082C0040 		.word	1073753096
 353              		.cfi_endproc
 354              	.LFE121:
 356              		.section	.text.wwdgt_flag_clear,"ax",%progbits
 357              		.align	1
 358              		.global	wwdgt_flag_clear
 359              		.syntax unified
 360              		.thumb
 361              		.thumb_func
 362              		.fpu fpv4-sp-d16
 364              	wwdgt_flag_clear:
 365              	.LFB122:
 140:C:/Users/49542/Desktop/GD32F30x_Demo_Suites_V2.0.0/GD32F30x_Demo_Suites_V2.0.0/GD32F30x_Firmware_Library/GD32F30x_standard_peripheral/Source\gd32f30x_wwdgt.c **** 
 141:C:/Users/49542/Desktop/GD32F30x_Demo_Suites_V2.0.0/GD32F30x_Demo_Suites_V2.0.0/GD32F30x_Firmware_Library/GD32F30x_standard_peripheral/Source\gd32f30x_wwdgt.c **** /*!
 142:C:/Users/49542/Desktop/GD32F30x_Demo_Suites_V2.0.0/GD32F30x_Demo_Suites_V2.0.0/GD32F30x_Firmware_Library/GD32F30x_standard_peripheral/Source\gd32f30x_wwdgt.c ****     \brief      clear early wakeup interrupt state of WWDGT
 143:C:/Users/49542/Desktop/GD32F30x_Demo_Suites_V2.0.0/GD32F30x_Demo_Suites_V2.0.0/GD32F30x_Firmware_Library/GD32F30x_standard_peripheral/Source\gd32f30x_wwdgt.c ****     \param[in]  none
 144:C:/Users/49542/Desktop/GD32F30x_Demo_Suites_V2.0.0/GD32F30x_Demo_Suites_V2.0.0/GD32F30x_Firmware_Library/GD32F30x_standard_peripheral/Source\gd32f30x_wwdgt.c ****     \param[out] none
 145:C:/Users/49542/Desktop/GD32F30x_Demo_Suites_V2.0.0/GD32F30x_Demo_Suites_V2.0.0/GD32F30x_Firmware_Library/GD32F30x_standard_peripheral/Source\gd32f30x_wwdgt.c ****     \retval     none
 146:C:/Users/49542/Desktop/GD32F30x_Demo_Suites_V2.0.0/GD32F30x_Demo_Suites_V2.0.0/GD32F30x_Firmware_Library/GD32F30x_standard_peripheral/Source\gd32f30x_wwdgt.c **** */
 147:C:/Users/49542/Desktop/GD32F30x_Demo_Suites_V2.0.0/GD32F30x_Demo_Suites_V2.0.0/GD32F30x_Firmware_Library/GD32F30x_standard_peripheral/Source\gd32f30x_wwdgt.c **** void wwdgt_flag_clear(void)
 148:C:/Users/49542/Desktop/GD32F30x_Demo_Suites_V2.0.0/GD32F30x_Demo_Suites_V2.0.0/GD32F30x_Firmware_Library/GD32F30x_standard_peripheral/Source\gd32f30x_wwdgt.c **** {
 366              		.loc 1 148 0
 367              		.cfi_startproc
 368              		@ args = 0, pretend = 0, frame = 0
 369              		@ frame_needed = 1, uses_anonymous_args = 0
 370              		@ link register save eliminated.
 371 0000 80B4     		push	{r7}
 372              	.LCFI26:
 373              		.cfi_def_cfa_offset 4
 374              		.cfi_offset 7, -4
 375 0002 00AF     		add	r7, sp, #0
 376              	.LCFI27:
 377              		.cfi_def_cfa_register 7
 149:C:/Users/49542/Desktop/GD32F30x_Demo_Suites_V2.0.0/GD32F30x_Demo_Suites_V2.0.0/GD32F30x_Firmware_Library/GD32F30x_standard_peripheral/Source\gd32f30x_wwdgt.c ****     WWDGT_STAT &= (~WWDGT_STAT_EWIF);
ARM GAS  C:\Users\49542\AppData\Local\Temp\cccqehWW.s 			page 10


 378              		.loc 1 149 0
 379 0004 054B     		ldr	r3, .L20
 380 0006 1B68     		ldr	r3, [r3]
 381 0008 044A     		ldr	r2, .L20
 382 000a 23F00103 		bic	r3, r3, #1
 383 000e 1360     		str	r3, [r2]
 150:C:/Users/49542/Desktop/GD32F30x_Demo_Suites_V2.0.0/GD32F30x_Demo_Suites_V2.0.0/GD32F30x_Firmware_Library/GD32F30x_standard_peripheral/Source\gd32f30x_wwdgt.c **** }
 384              		.loc 1 150 0
 385 0010 00BF     		nop
 386 0012 BD46     		mov	sp, r7
 387              	.LCFI28:
 388              		.cfi_def_cfa_register 13
 389              		@ sp needed
 390 0014 5DF8047B 		ldr	r7, [sp], #4
 391              	.LCFI29:
 392              		.cfi_restore 7
 393              		.cfi_def_cfa_offset 0
 394 0018 7047     		bx	lr
 395              	.L21:
 396 001a 00BF     		.align	2
 397              	.L20:
 398 001c 082C0040 		.word	1073753096
 399              		.cfi_endproc
 400              	.LFE122:
 402              		.text
 403              	.Letext0:
 404              		.file 2 "c:\\users\\49542\\opensourcetools\\gnu tools arm embedded\\7 2018-q2-update\\arm-none-eab
 405              		.file 3 "c:\\users\\49542\\opensourcetools\\gnu tools arm embedded\\7 2018-q2-update\\arm-none-eab
 406              		.file 4 "C:/Users/49542/Desktop/GD32F30x_Demo_Suites_V2.0.0/GD32F30x_Demo_Suites_V2.0.0/GD32F30x_F
 407              		.file 5 "C:/Users/49542/Desktop/GD32F30x_Demo_Suites_V2.0.0/GD32F30x_Demo_Suites_V2.0.0/GD32F30x_F
 408              		.file 6 "C:/Users/49542/Desktop/GD32F30x_Demo_Suites_V2.0.0/GD32F30x_Demo_Suites_V2.0.0/GD32F30x_F
 409              		.file 7 "C:/Users/49542/Desktop/GD32F30x_Demo_Suites_V2.0.0/GD32F30x_Demo_Suites_V2.0.0/GD32F30x_F
 410              		.file 8 "c:\\users\\49542\\opensourcetools\\gnu tools arm embedded\\7 2018-q2-update\\arm-none-eab
 411              		.file 9 "c:\\users\\49542\\opensourcetools\\gnu tools arm embedded\\7 2018-q2-update\\arm-none-eab
 412              		.file 10 "c:\\users\\49542\\opensourcetools\\gnu tools arm embedded\\7 2018-q2-update\\lib\\gcc\\a
 413              		.file 11 "c:\\users\\49542\\opensourcetools\\gnu tools arm embedded\\7 2018-q2-update\\arm-none-ea
 414              		.file 12 "c:\\users\\49542\\opensourcetools\\gnu tools arm embedded\\7 2018-q2-update\\arm-none-ea
ARM GAS  C:\Users\49542\AppData\Local\Temp\cccqehWW.s 			page 11

