ARM GAS  C:\Users\49542\AppData\Local\Temp\ccEPk6Rd.s 			page 1


   1              		.cpu cortex-m4
   2              		.eabi_attribute 27, 1
   3              		.eabi_attribute 28, 1
   4              		.eabi_attribute 20, 1
   5              		.eabi_attribute 21, 1
   6              		.eabi_attribute 23, 3
   7              		.eabi_attribute 24, 1
   8              		.eabi_attribute 25, 1
   9              		.eabi_attribute 26, 1
  10              		.eabi_attribute 30, 6
  11              		.eabi_attribute 34, 1
  12              		.eabi_attribute 18, 4
  13              		.file	"gd32f30x_fmc.c"
  14              		.text
  15              	.Ltext0:
  16              		.cfi_sections	.debug_frame
  17              		.section	.text.fmc_wscnt_set,"ax",%progbits
  18              		.align	1
  19              		.global	fmc_wscnt_set
  20              		.syntax unified
  21              		.thumb
  22              		.thumb_func
  23              		.fpu fpv4-sp-d16
  25              	fmc_wscnt_set:
  26              	.LFB116:
  27              		.file 1 "C:/Users/49542/Desktop/GD32F30x_Demo_Suites_V2.0.0/GD32F30x_Demo_Suites_V2.0.0/GD32F30x_F
   1:C:/Users/49542/Desktop/GD32F30x_Demo_Suites_V2.0.0/GD32F30x_Demo_Suites_V2.0.0/GD32F30x_Firmware_Library/GD32F30x_standard_peripheral/Source\gd32f30x_fmc.c **** /*!
   2:C:/Users/49542/Desktop/GD32F30x_Demo_Suites_V2.0.0/GD32F30x_Demo_Suites_V2.0.0/GD32F30x_Firmware_Library/GD32F30x_standard_peripheral/Source\gd32f30x_fmc.c ****     \file  gd32f30x_fmc.c
   3:C:/Users/49542/Desktop/GD32F30x_Demo_Suites_V2.0.0/GD32F30x_Demo_Suites_V2.0.0/GD32F30x_Firmware_Library/GD32F30x_standard_peripheral/Source\gd32f30x_fmc.c ****     \brief FMC driver
   4:C:/Users/49542/Desktop/GD32F30x_Demo_Suites_V2.0.0/GD32F30x_Demo_Suites_V2.0.0/GD32F30x_Firmware_Library/GD32F30x_standard_peripheral/Source\gd32f30x_fmc.c **** 
   5:C:/Users/49542/Desktop/GD32F30x_Demo_Suites_V2.0.0/GD32F30x_Demo_Suites_V2.0.0/GD32F30x_Firmware_Library/GD32F30x_standard_peripheral/Source\gd32f30x_fmc.c ****     \version 2017-02-10, V1.0.0, firmware for GD32F30x
   6:C:/Users/49542/Desktop/GD32F30x_Demo_Suites_V2.0.0/GD32F30x_Demo_Suites_V2.0.0/GD32F30x_Firmware_Library/GD32F30x_standard_peripheral/Source\gd32f30x_fmc.c ****     \version 2018-10-10, V1.1.0, firmware for GD32F30x
   7:C:/Users/49542/Desktop/GD32F30x_Demo_Suites_V2.0.0/GD32F30x_Demo_Suites_V2.0.0/GD32F30x_Firmware_Library/GD32F30x_standard_peripheral/Source\gd32f30x_fmc.c ****     \version 2018-12-25, V2.0.0, firmware for GD32F30x
   8:C:/Users/49542/Desktop/GD32F30x_Demo_Suites_V2.0.0/GD32F30x_Demo_Suites_V2.0.0/GD32F30x_Firmware_Library/GD32F30x_standard_peripheral/Source\gd32f30x_fmc.c **** */
   9:C:/Users/49542/Desktop/GD32F30x_Demo_Suites_V2.0.0/GD32F30x_Demo_Suites_V2.0.0/GD32F30x_Firmware_Library/GD32F30x_standard_peripheral/Source\gd32f30x_fmc.c **** 
  10:C:/Users/49542/Desktop/GD32F30x_Demo_Suites_V2.0.0/GD32F30x_Demo_Suites_V2.0.0/GD32F30x_Firmware_Library/GD32F30x_standard_peripheral/Source\gd32f30x_fmc.c **** /*
  11:C:/Users/49542/Desktop/GD32F30x_Demo_Suites_V2.0.0/GD32F30x_Demo_Suites_V2.0.0/GD32F30x_Firmware_Library/GD32F30x_standard_peripheral/Source\gd32f30x_fmc.c ****     Copyright (c) 2018, GigaDevice Semiconductor Inc.
  12:C:/Users/49542/Desktop/GD32F30x_Demo_Suites_V2.0.0/GD32F30x_Demo_Suites_V2.0.0/GD32F30x_Firmware_Library/GD32F30x_standard_peripheral/Source\gd32f30x_fmc.c **** 
  13:C:/Users/49542/Desktop/GD32F30x_Demo_Suites_V2.0.0/GD32F30x_Demo_Suites_V2.0.0/GD32F30x_Firmware_Library/GD32F30x_standard_peripheral/Source\gd32f30x_fmc.c ****     All rights reserved.
  14:C:/Users/49542/Desktop/GD32F30x_Demo_Suites_V2.0.0/GD32F30x_Demo_Suites_V2.0.0/GD32F30x_Firmware_Library/GD32F30x_standard_peripheral/Source\gd32f30x_fmc.c **** 
  15:C:/Users/49542/Desktop/GD32F30x_Demo_Suites_V2.0.0/GD32F30x_Demo_Suites_V2.0.0/GD32F30x_Firmware_Library/GD32F30x_standard_peripheral/Source\gd32f30x_fmc.c ****     Redistribution and use in source and binary forms, with or without modification, 
  16:C:/Users/49542/Desktop/GD32F30x_Demo_Suites_V2.0.0/GD32F30x_Demo_Suites_V2.0.0/GD32F30x_Firmware_Library/GD32F30x_standard_peripheral/Source\gd32f30x_fmc.c **** are permitted provided that the following conditions are met:
  17:C:/Users/49542/Desktop/GD32F30x_Demo_Suites_V2.0.0/GD32F30x_Demo_Suites_V2.0.0/GD32F30x_Firmware_Library/GD32F30x_standard_peripheral/Source\gd32f30x_fmc.c **** 
  18:C:/Users/49542/Desktop/GD32F30x_Demo_Suites_V2.0.0/GD32F30x_Demo_Suites_V2.0.0/GD32F30x_Firmware_Library/GD32F30x_standard_peripheral/Source\gd32f30x_fmc.c ****     1. Redistributions of source code must retain the above copyright notice, this 
  19:C:/Users/49542/Desktop/GD32F30x_Demo_Suites_V2.0.0/GD32F30x_Demo_Suites_V2.0.0/GD32F30x_Firmware_Library/GD32F30x_standard_peripheral/Source\gd32f30x_fmc.c ****        list of conditions and the following disclaimer.
  20:C:/Users/49542/Desktop/GD32F30x_Demo_Suites_V2.0.0/GD32F30x_Demo_Suites_V2.0.0/GD32F30x_Firmware_Library/GD32F30x_standard_peripheral/Source\gd32f30x_fmc.c ****     2. Redistributions in binary form must reproduce the above copyright notice, 
  21:C:/Users/49542/Desktop/GD32F30x_Demo_Suites_V2.0.0/GD32F30x_Demo_Suites_V2.0.0/GD32F30x_Firmware_Library/GD32F30x_standard_peripheral/Source\gd32f30x_fmc.c ****        this list of conditions and the following disclaimer in the documentation 
  22:C:/Users/49542/Desktop/GD32F30x_Demo_Suites_V2.0.0/GD32F30x_Demo_Suites_V2.0.0/GD32F30x_Firmware_Library/GD32F30x_standard_peripheral/Source\gd32f30x_fmc.c ****        and/or other materials provided with the distribution.
  23:C:/Users/49542/Desktop/GD32F30x_Demo_Suites_V2.0.0/GD32F30x_Demo_Suites_V2.0.0/GD32F30x_Firmware_Library/GD32F30x_standard_peripheral/Source\gd32f30x_fmc.c ****     3. Neither the name of the copyright holder nor the names of its contributors 
  24:C:/Users/49542/Desktop/GD32F30x_Demo_Suites_V2.0.0/GD32F30x_Demo_Suites_V2.0.0/GD32F30x_Firmware_Library/GD32F30x_standard_peripheral/Source\gd32f30x_fmc.c ****        may be used to endorse or promote products derived from this software without 
  25:C:/Users/49542/Desktop/GD32F30x_Demo_Suites_V2.0.0/GD32F30x_Demo_Suites_V2.0.0/GD32F30x_Firmware_Library/GD32F30x_standard_peripheral/Source\gd32f30x_fmc.c ****        specific prior written permission.
  26:C:/Users/49542/Desktop/GD32F30x_Demo_Suites_V2.0.0/GD32F30x_Demo_Suites_V2.0.0/GD32F30x_Firmware_Library/GD32F30x_standard_peripheral/Source\gd32f30x_fmc.c **** 
  27:C:/Users/49542/Desktop/GD32F30x_Demo_Suites_V2.0.0/GD32F30x_Demo_Suites_V2.0.0/GD32F30x_Firmware_Library/GD32F30x_standard_peripheral/Source\gd32f30x_fmc.c ****     THIS SOFTWARE IS PROVIDED BY THE COPYRIGHT HOLDERS AND CONTRIBUTORS "AS IS" 
  28:C:/Users/49542/Desktop/GD32F30x_Demo_Suites_V2.0.0/GD32F30x_Demo_Suites_V2.0.0/GD32F30x_Firmware_Library/GD32F30x_standard_peripheral/Source\gd32f30x_fmc.c **** AND ANY EXPRESS OR IMPLIED WARRANTIES, INCLUDING, BUT NOT LIMITED TO, THE IMPLIED 
  29:C:/Users/49542/Desktop/GD32F30x_Demo_Suites_V2.0.0/GD32F30x_Demo_Suites_V2.0.0/GD32F30x_Firmware_Library/GD32F30x_standard_peripheral/Source\gd32f30x_fmc.c **** WARRANTIES OF MERCHANTABILITY AND FITNESS FOR A PARTICULAR PURPOSE ARE DISCLAIMED. 
  30:C:/Users/49542/Desktop/GD32F30x_Demo_Suites_V2.0.0/GD32F30x_Demo_Suites_V2.0.0/GD32F30x_Firmware_Library/GD32F30x_standard_peripheral/Source\gd32f30x_fmc.c **** IN NO EVENT SHALL THE COPYRIGHT HOLDER OR CONTRIBUTORS BE LIABLE FOR ANY DIRECT, 
  31:C:/Users/49542/Desktop/GD32F30x_Demo_Suites_V2.0.0/GD32F30x_Demo_Suites_V2.0.0/GD32F30x_Firmware_Library/GD32F30x_standard_peripheral/Source\gd32f30x_fmc.c **** INDIRECT, INCIDENTAL, SPECIAL, EXEMPLARY, OR CONSEQUENTIAL DAMAGES (INCLUDING, BUT 
ARM GAS  C:\Users\49542\AppData\Local\Temp\ccEPk6Rd.s 			page 2


  32:C:/Users/49542/Desktop/GD32F30x_Demo_Suites_V2.0.0/GD32F30x_Demo_Suites_V2.0.0/GD32F30x_Firmware_Library/GD32F30x_standard_peripheral/Source\gd32f30x_fmc.c **** NOT LIMITED TO, PROCUREMENT OF SUBSTITUTE GOODS OR SERVICES; LOSS OF USE, DATA, OR 
  33:C:/Users/49542/Desktop/GD32F30x_Demo_Suites_V2.0.0/GD32F30x_Demo_Suites_V2.0.0/GD32F30x_Firmware_Library/GD32F30x_standard_peripheral/Source\gd32f30x_fmc.c **** PROFITS; OR BUSINESS INTERRUPTION) HOWEVER CAUSED AND ON ANY THEORY OF LIABILITY, 
  34:C:/Users/49542/Desktop/GD32F30x_Demo_Suites_V2.0.0/GD32F30x_Demo_Suites_V2.0.0/GD32F30x_Firmware_Library/GD32F30x_standard_peripheral/Source\gd32f30x_fmc.c **** WHETHER IN CONTRACT, STRICT LIABILITY, OR TORT (INCLUDING NEGLIGENCE OR OTHERWISE) 
  35:C:/Users/49542/Desktop/GD32F30x_Demo_Suites_V2.0.0/GD32F30x_Demo_Suites_V2.0.0/GD32F30x_Firmware_Library/GD32F30x_standard_peripheral/Source\gd32f30x_fmc.c **** ARISING IN ANY WAY OUT OF THE USE OF THIS SOFTWARE, EVEN IF ADVISED OF THE POSSIBILITY 
  36:C:/Users/49542/Desktop/GD32F30x_Demo_Suites_V2.0.0/GD32F30x_Demo_Suites_V2.0.0/GD32F30x_Firmware_Library/GD32F30x_standard_peripheral/Source\gd32f30x_fmc.c **** OF SUCH DAMAGE.
  37:C:/Users/49542/Desktop/GD32F30x_Demo_Suites_V2.0.0/GD32F30x_Demo_Suites_V2.0.0/GD32F30x_Firmware_Library/GD32F30x_standard_peripheral/Source\gd32f30x_fmc.c **** */
  38:C:/Users/49542/Desktop/GD32F30x_Demo_Suites_V2.0.0/GD32F30x_Demo_Suites_V2.0.0/GD32F30x_Firmware_Library/GD32F30x_standard_peripheral/Source\gd32f30x_fmc.c **** 
  39:C:/Users/49542/Desktop/GD32F30x_Demo_Suites_V2.0.0/GD32F30x_Demo_Suites_V2.0.0/GD32F30x_Firmware_Library/GD32F30x_standard_peripheral/Source\gd32f30x_fmc.c **** 
  40:C:/Users/49542/Desktop/GD32F30x_Demo_Suites_V2.0.0/GD32F30x_Demo_Suites_V2.0.0/GD32F30x_Firmware_Library/GD32F30x_standard_peripheral/Source\gd32f30x_fmc.c **** #include "gd32f30x_fmc.h"
  41:C:/Users/49542/Desktop/GD32F30x_Demo_Suites_V2.0.0/GD32F30x_Demo_Suites_V2.0.0/GD32F30x_Firmware_Library/GD32F30x_standard_peripheral/Source\gd32f30x_fmc.c **** 
  42:C:/Users/49542/Desktop/GD32F30x_Demo_Suites_V2.0.0/GD32F30x_Demo_Suites_V2.0.0/GD32F30x_Firmware_Library/GD32F30x_standard_peripheral/Source\gd32f30x_fmc.c **** /*!
  43:C:/Users/49542/Desktop/GD32F30x_Demo_Suites_V2.0.0/GD32F30x_Demo_Suites_V2.0.0/GD32F30x_Firmware_Library/GD32F30x_standard_peripheral/Source\gd32f30x_fmc.c ****     \brief      set the wait state counter value
  44:C:/Users/49542/Desktop/GD32F30x_Demo_Suites_V2.0.0/GD32F30x_Demo_Suites_V2.0.0/GD32F30x_Firmware_Library/GD32F30x_standard_peripheral/Source\gd32f30x_fmc.c ****     \param[in]  wscnt:wait state counter value
  45:C:/Users/49542/Desktop/GD32F30x_Demo_Suites_V2.0.0/GD32F30x_Demo_Suites_V2.0.0/GD32F30x_Firmware_Library/GD32F30x_standard_peripheral/Source\gd32f30x_fmc.c ****       \arg        WS_WSCNT_0: FMC 0 wait
  46:C:/Users/49542/Desktop/GD32F30x_Demo_Suites_V2.0.0/GD32F30x_Demo_Suites_V2.0.0/GD32F30x_Firmware_Library/GD32F30x_standard_peripheral/Source\gd32f30x_fmc.c ****       \arg        WS_WSCNT_1: FMC 1 wait
  47:C:/Users/49542/Desktop/GD32F30x_Demo_Suites_V2.0.0/GD32F30x_Demo_Suites_V2.0.0/GD32F30x_Firmware_Library/GD32F30x_standard_peripheral/Source\gd32f30x_fmc.c ****       \arg        WS_WSCNT_2: FMC 2 wait
  48:C:/Users/49542/Desktop/GD32F30x_Demo_Suites_V2.0.0/GD32F30x_Demo_Suites_V2.0.0/GD32F30x_Firmware_Library/GD32F30x_standard_peripheral/Source\gd32f30x_fmc.c ****     \param[out] none
  49:C:/Users/49542/Desktop/GD32F30x_Demo_Suites_V2.0.0/GD32F30x_Demo_Suites_V2.0.0/GD32F30x_Firmware_Library/GD32F30x_standard_peripheral/Source\gd32f30x_fmc.c ****     \retval     none
  50:C:/Users/49542/Desktop/GD32F30x_Demo_Suites_V2.0.0/GD32F30x_Demo_Suites_V2.0.0/GD32F30x_Firmware_Library/GD32F30x_standard_peripheral/Source\gd32f30x_fmc.c **** */
  51:C:/Users/49542/Desktop/GD32F30x_Demo_Suites_V2.0.0/GD32F30x_Demo_Suites_V2.0.0/GD32F30x_Firmware_Library/GD32F30x_standard_peripheral/Source\gd32f30x_fmc.c **** void fmc_wscnt_set(uint32_t wscnt)
  52:C:/Users/49542/Desktop/GD32F30x_Demo_Suites_V2.0.0/GD32F30x_Demo_Suites_V2.0.0/GD32F30x_Firmware_Library/GD32F30x_standard_peripheral/Source\gd32f30x_fmc.c **** {
  28              		.loc 1 52 0
  29              		.cfi_startproc
  30              		@ args = 0, pretend = 0, frame = 16
  31              		@ frame_needed = 1, uses_anonymous_args = 0
  32              		@ link register save eliminated.
  33 0000 80B4     		push	{r7}
  34              	.LCFI0:
  35              		.cfi_def_cfa_offset 4
  36              		.cfi_offset 7, -4
  37 0002 85B0     		sub	sp, sp, #20
  38              	.LCFI1:
  39              		.cfi_def_cfa_offset 24
  40 0004 00AF     		add	r7, sp, #0
  41              	.LCFI2:
  42              		.cfi_def_cfa_register 7
  43 0006 7860     		str	r0, [r7, #4]
  53:C:/Users/49542/Desktop/GD32F30x_Demo_Suites_V2.0.0/GD32F30x_Demo_Suites_V2.0.0/GD32F30x_Firmware_Library/GD32F30x_standard_peripheral/Source\gd32f30x_fmc.c ****     uint32_t reg;
  54:C:/Users/49542/Desktop/GD32F30x_Demo_Suites_V2.0.0/GD32F30x_Demo_Suites_V2.0.0/GD32F30x_Firmware_Library/GD32F30x_standard_peripheral/Source\gd32f30x_fmc.c ****     
  55:C:/Users/49542/Desktop/GD32F30x_Demo_Suites_V2.0.0/GD32F30x_Demo_Suites_V2.0.0/GD32F30x_Firmware_Library/GD32F30x_standard_peripheral/Source\gd32f30x_fmc.c ****     reg = FMC_WS;
  44              		.loc 1 55 0
  45 0008 084B     		ldr	r3, .L2
  46 000a 1B68     		ldr	r3, [r3]
  47 000c FB60     		str	r3, [r7, #12]
  56:C:/Users/49542/Desktop/GD32F30x_Demo_Suites_V2.0.0/GD32F30x_Demo_Suites_V2.0.0/GD32F30x_Firmware_Library/GD32F30x_standard_peripheral/Source\gd32f30x_fmc.c ****     /* set the wait state counter value */
  57:C:/Users/49542/Desktop/GD32F30x_Demo_Suites_V2.0.0/GD32F30x_Demo_Suites_V2.0.0/GD32F30x_Firmware_Library/GD32F30x_standard_peripheral/Source\gd32f30x_fmc.c ****     reg &= ~FMC_WS_WSCNT;
  48              		.loc 1 57 0
  49 000e FB68     		ldr	r3, [r7, #12]
  50 0010 23F00703 		bic	r3, r3, #7
  51 0014 FB60     		str	r3, [r7, #12]
  58:C:/Users/49542/Desktop/GD32F30x_Demo_Suites_V2.0.0/GD32F30x_Demo_Suites_V2.0.0/GD32F30x_Firmware_Library/GD32F30x_standard_peripheral/Source\gd32f30x_fmc.c ****     FMC_WS = (reg | wscnt);
  52              		.loc 1 58 0
  53 0016 0549     		ldr	r1, .L2
  54 0018 FA68     		ldr	r2, [r7, #12]
  55 001a 7B68     		ldr	r3, [r7, #4]
  56 001c 1343     		orrs	r3, r3, r2
  57 001e 0B60     		str	r3, [r1]
ARM GAS  C:\Users\49542\AppData\Local\Temp\ccEPk6Rd.s 			page 3


  59:C:/Users/49542/Desktop/GD32F30x_Demo_Suites_V2.0.0/GD32F30x_Demo_Suites_V2.0.0/GD32F30x_Firmware_Library/GD32F30x_standard_peripheral/Source\gd32f30x_fmc.c **** }
  58              		.loc 1 59 0
  59 0020 00BF     		nop
  60 0022 1437     		adds	r7, r7, #20
  61              	.LCFI3:
  62              		.cfi_def_cfa_offset 4
  63 0024 BD46     		mov	sp, r7
  64              	.LCFI4:
  65              		.cfi_def_cfa_register 13
  66              		@ sp needed
  67 0026 5DF8047B 		ldr	r7, [sp], #4
  68              	.LCFI5:
  69              		.cfi_restore 7
  70              		.cfi_def_cfa_offset 0
  71 002a 7047     		bx	lr
  72              	.L3:
  73              		.align	2
  74              	.L2:
  75 002c 00200240 		.word	1073881088
  76              		.cfi_endproc
  77              	.LFE116:
  79              		.section	.text.fmc_unlock,"ax",%progbits
  80              		.align	1
  81              		.global	fmc_unlock
  82              		.syntax unified
  83              		.thumb
  84              		.thumb_func
  85              		.fpu fpv4-sp-d16
  87              	fmc_unlock:
  88              	.LFB117:
  60:C:/Users/49542/Desktop/GD32F30x_Demo_Suites_V2.0.0/GD32F30x_Demo_Suites_V2.0.0/GD32F30x_Firmware_Library/GD32F30x_standard_peripheral/Source\gd32f30x_fmc.c **** 
  61:C:/Users/49542/Desktop/GD32F30x_Demo_Suites_V2.0.0/GD32F30x_Demo_Suites_V2.0.0/GD32F30x_Firmware_Library/GD32F30x_standard_peripheral/Source\gd32f30x_fmc.c **** /*!
  62:C:/Users/49542/Desktop/GD32F30x_Demo_Suites_V2.0.0/GD32F30x_Demo_Suites_V2.0.0/GD32F30x_Firmware_Library/GD32F30x_standard_peripheral/Source\gd32f30x_fmc.c ****     \brief      unlock the main FMC operation
  63:C:/Users/49542/Desktop/GD32F30x_Demo_Suites_V2.0.0/GD32F30x_Demo_Suites_V2.0.0/GD32F30x_Firmware_Library/GD32F30x_standard_peripheral/Source\gd32f30x_fmc.c ****     \param[in]  none
  64:C:/Users/49542/Desktop/GD32F30x_Demo_Suites_V2.0.0/GD32F30x_Demo_Suites_V2.0.0/GD32F30x_Firmware_Library/GD32F30x_standard_peripheral/Source\gd32f30x_fmc.c ****     \param[out] none
  65:C:/Users/49542/Desktop/GD32F30x_Demo_Suites_V2.0.0/GD32F30x_Demo_Suites_V2.0.0/GD32F30x_Firmware_Library/GD32F30x_standard_peripheral/Source\gd32f30x_fmc.c ****     \retval     none
  66:C:/Users/49542/Desktop/GD32F30x_Demo_Suites_V2.0.0/GD32F30x_Demo_Suites_V2.0.0/GD32F30x_Firmware_Library/GD32F30x_standard_peripheral/Source\gd32f30x_fmc.c **** */
  67:C:/Users/49542/Desktop/GD32F30x_Demo_Suites_V2.0.0/GD32F30x_Demo_Suites_V2.0.0/GD32F30x_Firmware_Library/GD32F30x_standard_peripheral/Source\gd32f30x_fmc.c **** void fmc_unlock(void)
  68:C:/Users/49542/Desktop/GD32F30x_Demo_Suites_V2.0.0/GD32F30x_Demo_Suites_V2.0.0/GD32F30x_Firmware_Library/GD32F30x_standard_peripheral/Source\gd32f30x_fmc.c **** {
  89              		.loc 1 68 0
  90              		.cfi_startproc
  91              		@ args = 0, pretend = 0, frame = 0
  92              		@ frame_needed = 1, uses_anonymous_args = 0
  93              		@ link register save eliminated.
  94 0000 80B4     		push	{r7}
  95              	.LCFI6:
  96              		.cfi_def_cfa_offset 4
  97              		.cfi_offset 7, -4
  98 0002 00AF     		add	r7, sp, #0
  99              	.LCFI7:
 100              		.cfi_def_cfa_register 7
  69:C:/Users/49542/Desktop/GD32F30x_Demo_Suites_V2.0.0/GD32F30x_Demo_Suites_V2.0.0/GD32F30x_Firmware_Library/GD32F30x_standard_peripheral/Source\gd32f30x_fmc.c ****     if((RESET != (FMC_CTL0 & FMC_CTL0_LK))){
 101              		.loc 1 69 0
 102 0004 104B     		ldr	r3, .L8
 103 0006 1B68     		ldr	r3, [r3]
 104 0008 03F08003 		and	r3, r3, #128
 105 000c 002B     		cmp	r3, #0
ARM GAS  C:\Users\49542\AppData\Local\Temp\ccEPk6Rd.s 			page 4


 106 000e 05D0     		beq	.L5
  70:C:/Users/49542/Desktop/GD32F30x_Demo_Suites_V2.0.0/GD32F30x_Demo_Suites_V2.0.0/GD32F30x_Firmware_Library/GD32F30x_standard_peripheral/Source\gd32f30x_fmc.c ****         /* write the FMC unlock key */
  71:C:/Users/49542/Desktop/GD32F30x_Demo_Suites_V2.0.0/GD32F30x_Demo_Suites_V2.0.0/GD32F30x_Firmware_Library/GD32F30x_standard_peripheral/Source\gd32f30x_fmc.c ****         FMC_KEY0 = UNLOCK_KEY0;
 107              		.loc 1 71 0
 108 0010 0E4B     		ldr	r3, .L8+4
 109 0012 0F4A     		ldr	r2, .L8+8
 110 0014 1A60     		str	r2, [r3]
  72:C:/Users/49542/Desktop/GD32F30x_Demo_Suites_V2.0.0/GD32F30x_Demo_Suites_V2.0.0/GD32F30x_Firmware_Library/GD32F30x_standard_peripheral/Source\gd32f30x_fmc.c ****         FMC_KEY0 = UNLOCK_KEY1;
 111              		.loc 1 72 0
 112 0016 0D4B     		ldr	r3, .L8+4
 113 0018 0E4A     		ldr	r2, .L8+12
 114 001a 1A60     		str	r2, [r3]
 115              	.L5:
  73:C:/Users/49542/Desktop/GD32F30x_Demo_Suites_V2.0.0/GD32F30x_Demo_Suites_V2.0.0/GD32F30x_Firmware_Library/GD32F30x_standard_peripheral/Source\gd32f30x_fmc.c ****     }
  74:C:/Users/49542/Desktop/GD32F30x_Demo_Suites_V2.0.0/GD32F30x_Demo_Suites_V2.0.0/GD32F30x_Firmware_Library/GD32F30x_standard_peripheral/Source\gd32f30x_fmc.c ****     if(FMC_BANK0_SIZE < FMC_SIZE){
 116              		.loc 1 74 0
 117 001c 0E4B     		ldr	r3, .L8+16
 118 001e 1B88     		ldrh	r3, [r3]
 119 0020 B3F5007F 		cmp	r3, #512
 120 0024 0BD9     		bls	.L7
  75:C:/Users/49542/Desktop/GD32F30x_Demo_Suites_V2.0.0/GD32F30x_Demo_Suites_V2.0.0/GD32F30x_Firmware_Library/GD32F30x_standard_peripheral/Source\gd32f30x_fmc.c ****         /* write the FMC unlock key */
  76:C:/Users/49542/Desktop/GD32F30x_Demo_Suites_V2.0.0/GD32F30x_Demo_Suites_V2.0.0/GD32F30x_Firmware_Library/GD32F30x_standard_peripheral/Source\gd32f30x_fmc.c ****         if(RESET != (FMC_CTL1 & FMC_CTL1_LK)){
 121              		.loc 1 76 0
 122 0026 0D4B     		ldr	r3, .L8+20
 123 0028 1B68     		ldr	r3, [r3]
 124 002a 03F08003 		and	r3, r3, #128
 125 002e 002B     		cmp	r3, #0
 126 0030 05D0     		beq	.L7
  77:C:/Users/49542/Desktop/GD32F30x_Demo_Suites_V2.0.0/GD32F30x_Demo_Suites_V2.0.0/GD32F30x_Firmware_Library/GD32F30x_standard_peripheral/Source\gd32f30x_fmc.c ****             FMC_KEY1 = UNLOCK_KEY0;
 127              		.loc 1 77 0
 128 0032 0B4B     		ldr	r3, .L8+24
 129 0034 064A     		ldr	r2, .L8+8
 130 0036 1A60     		str	r2, [r3]
  78:C:/Users/49542/Desktop/GD32F30x_Demo_Suites_V2.0.0/GD32F30x_Demo_Suites_V2.0.0/GD32F30x_Firmware_Library/GD32F30x_standard_peripheral/Source\gd32f30x_fmc.c ****             FMC_KEY1 = UNLOCK_KEY1;
 131              		.loc 1 78 0
 132 0038 094B     		ldr	r3, .L8+24
 133 003a 064A     		ldr	r2, .L8+12
 134 003c 1A60     		str	r2, [r3]
 135              	.L7:
  79:C:/Users/49542/Desktop/GD32F30x_Demo_Suites_V2.0.0/GD32F30x_Demo_Suites_V2.0.0/GD32F30x_Firmware_Library/GD32F30x_standard_peripheral/Source\gd32f30x_fmc.c ****         }
  80:C:/Users/49542/Desktop/GD32F30x_Demo_Suites_V2.0.0/GD32F30x_Demo_Suites_V2.0.0/GD32F30x_Firmware_Library/GD32F30x_standard_peripheral/Source\gd32f30x_fmc.c ****     }
  81:C:/Users/49542/Desktop/GD32F30x_Demo_Suites_V2.0.0/GD32F30x_Demo_Suites_V2.0.0/GD32F30x_Firmware_Library/GD32F30x_standard_peripheral/Source\gd32f30x_fmc.c **** }
 136              		.loc 1 81 0
 137 003e 00BF     		nop
 138 0040 BD46     		mov	sp, r7
 139              	.LCFI8:
 140              		.cfi_def_cfa_register 13
 141              		@ sp needed
 142 0042 5DF8047B 		ldr	r7, [sp], #4
 143              	.LCFI9:
 144              		.cfi_restore 7
 145              		.cfi_def_cfa_offset 0
 146 0046 7047     		bx	lr
 147              	.L9:
 148              		.align	2
 149              	.L8:
 150 0048 10200240 		.word	1073881104
ARM GAS  C:\Users\49542\AppData\Local\Temp\ccEPk6Rd.s 			page 5


 151 004c 04200240 		.word	1073881092
 152 0050 23016745 		.word	1164378403
 153 0054 AB89EFCD 		.word	-839939669
 154 0058 E0F7FF1F 		.word	536868832
 155 005c 50200240 		.word	1073881168
 156 0060 44200240 		.word	1073881156
 157              		.cfi_endproc
 158              	.LFE117:
 160              		.section	.text.fmc_bank0_unlock,"ax",%progbits
 161              		.align	1
 162              		.global	fmc_bank0_unlock
 163              		.syntax unified
 164              		.thumb
 165              		.thumb_func
 166              		.fpu fpv4-sp-d16
 168              	fmc_bank0_unlock:
 169              	.LFB118:
  82:C:/Users/49542/Desktop/GD32F30x_Demo_Suites_V2.0.0/GD32F30x_Demo_Suites_V2.0.0/GD32F30x_Firmware_Library/GD32F30x_standard_peripheral/Source\gd32f30x_fmc.c **** 
  83:C:/Users/49542/Desktop/GD32F30x_Demo_Suites_V2.0.0/GD32F30x_Demo_Suites_V2.0.0/GD32F30x_Firmware_Library/GD32F30x_standard_peripheral/Source\gd32f30x_fmc.c **** /*!
  84:C:/Users/49542/Desktop/GD32F30x_Demo_Suites_V2.0.0/GD32F30x_Demo_Suites_V2.0.0/GD32F30x_Firmware_Library/GD32F30x_standard_peripheral/Source\gd32f30x_fmc.c ****     \brief      unlock the FMC bank0 operation 
  85:C:/Users/49542/Desktop/GD32F30x_Demo_Suites_V2.0.0/GD32F30x_Demo_Suites_V2.0.0/GD32F30x_Firmware_Library/GD32F30x_standard_peripheral/Source\gd32f30x_fmc.c ****                 this function can be used for all GD32F30x devices.
  86:C:/Users/49542/Desktop/GD32F30x_Demo_Suites_V2.0.0/GD32F30x_Demo_Suites_V2.0.0/GD32F30x_Firmware_Library/GD32F30x_standard_peripheral/Source\gd32f30x_fmc.c ****                 for GD32F30x with flash more than 512KB, this function unlocks bank0.
  87:C:/Users/49542/Desktop/GD32F30x_Demo_Suites_V2.0.0/GD32F30x_Demo_Suites_V2.0.0/GD32F30x_Firmware_Library/GD32F30x_standard_peripheral/Source\gd32f30x_fmc.c ****                 for GD32F30x with flash no more than 512KB and it is equivalent to fmc_unlock funct
  88:C:/Users/49542/Desktop/GD32F30x_Demo_Suites_V2.0.0/GD32F30x_Demo_Suites_V2.0.0/GD32F30x_Firmware_Library/GD32F30x_standard_peripheral/Source\gd32f30x_fmc.c ****     \param[in]  none
  89:C:/Users/49542/Desktop/GD32F30x_Demo_Suites_V2.0.0/GD32F30x_Demo_Suites_V2.0.0/GD32F30x_Firmware_Library/GD32F30x_standard_peripheral/Source\gd32f30x_fmc.c ****     \param[out] none
  90:C:/Users/49542/Desktop/GD32F30x_Demo_Suites_V2.0.0/GD32F30x_Demo_Suites_V2.0.0/GD32F30x_Firmware_Library/GD32F30x_standard_peripheral/Source\gd32f30x_fmc.c ****     \retval     none
  91:C:/Users/49542/Desktop/GD32F30x_Demo_Suites_V2.0.0/GD32F30x_Demo_Suites_V2.0.0/GD32F30x_Firmware_Library/GD32F30x_standard_peripheral/Source\gd32f30x_fmc.c **** */
  92:C:/Users/49542/Desktop/GD32F30x_Demo_Suites_V2.0.0/GD32F30x_Demo_Suites_V2.0.0/GD32F30x_Firmware_Library/GD32F30x_standard_peripheral/Source\gd32f30x_fmc.c **** void fmc_bank0_unlock(void)
  93:C:/Users/49542/Desktop/GD32F30x_Demo_Suites_V2.0.0/GD32F30x_Demo_Suites_V2.0.0/GD32F30x_Firmware_Library/GD32F30x_standard_peripheral/Source\gd32f30x_fmc.c **** {
 170              		.loc 1 93 0
 171              		.cfi_startproc
 172              		@ args = 0, pretend = 0, frame = 0
 173              		@ frame_needed = 1, uses_anonymous_args = 0
 174              		@ link register save eliminated.
 175 0000 80B4     		push	{r7}
 176              	.LCFI10:
 177              		.cfi_def_cfa_offset 4
 178              		.cfi_offset 7, -4
 179 0002 00AF     		add	r7, sp, #0
 180              	.LCFI11:
 181              		.cfi_def_cfa_register 7
  94:C:/Users/49542/Desktop/GD32F30x_Demo_Suites_V2.0.0/GD32F30x_Demo_Suites_V2.0.0/GD32F30x_Firmware_Library/GD32F30x_standard_peripheral/Source\gd32f30x_fmc.c ****     if((RESET != (FMC_CTL0 & FMC_CTL0_LK))){
 182              		.loc 1 94 0
 183 0004 084B     		ldr	r3, .L13
 184 0006 1B68     		ldr	r3, [r3]
 185 0008 03F08003 		and	r3, r3, #128
 186 000c 002B     		cmp	r3, #0
 187 000e 05D0     		beq	.L12
  95:C:/Users/49542/Desktop/GD32F30x_Demo_Suites_V2.0.0/GD32F30x_Demo_Suites_V2.0.0/GD32F30x_Firmware_Library/GD32F30x_standard_peripheral/Source\gd32f30x_fmc.c ****         /* write the FMC unlock key */
  96:C:/Users/49542/Desktop/GD32F30x_Demo_Suites_V2.0.0/GD32F30x_Demo_Suites_V2.0.0/GD32F30x_Firmware_Library/GD32F30x_standard_peripheral/Source\gd32f30x_fmc.c ****         FMC_KEY0 = UNLOCK_KEY0;
 188              		.loc 1 96 0
 189 0010 064B     		ldr	r3, .L13+4
 190 0012 074A     		ldr	r2, .L13+8
 191 0014 1A60     		str	r2, [r3]
  97:C:/Users/49542/Desktop/GD32F30x_Demo_Suites_V2.0.0/GD32F30x_Demo_Suites_V2.0.0/GD32F30x_Firmware_Library/GD32F30x_standard_peripheral/Source\gd32f30x_fmc.c ****         FMC_KEY0 = UNLOCK_KEY1;
 192              		.loc 1 97 0
 193 0016 054B     		ldr	r3, .L13+4
ARM GAS  C:\Users\49542\AppData\Local\Temp\ccEPk6Rd.s 			page 6


 194 0018 064A     		ldr	r2, .L13+12
 195 001a 1A60     		str	r2, [r3]
 196              	.L12:
  98:C:/Users/49542/Desktop/GD32F30x_Demo_Suites_V2.0.0/GD32F30x_Demo_Suites_V2.0.0/GD32F30x_Firmware_Library/GD32F30x_standard_peripheral/Source\gd32f30x_fmc.c ****     }
  99:C:/Users/49542/Desktop/GD32F30x_Demo_Suites_V2.0.0/GD32F30x_Demo_Suites_V2.0.0/GD32F30x_Firmware_Library/GD32F30x_standard_peripheral/Source\gd32f30x_fmc.c **** }
 197              		.loc 1 99 0
 198 001c 00BF     		nop
 199 001e BD46     		mov	sp, r7
 200              	.LCFI12:
 201              		.cfi_def_cfa_register 13
 202              		@ sp needed
 203 0020 5DF8047B 		ldr	r7, [sp], #4
 204              	.LCFI13:
 205              		.cfi_restore 7
 206              		.cfi_def_cfa_offset 0
 207 0024 7047     		bx	lr
 208              	.L14:
 209 0026 00BF     		.align	2
 210              	.L13:
 211 0028 10200240 		.word	1073881104
 212 002c 04200240 		.word	1073881092
 213 0030 23016745 		.word	1164378403
 214 0034 AB89EFCD 		.word	-839939669
 215              		.cfi_endproc
 216              	.LFE118:
 218              		.section	.text.fmc_bank1_unlock,"ax",%progbits
 219              		.align	1
 220              		.global	fmc_bank1_unlock
 221              		.syntax unified
 222              		.thumb
 223              		.thumb_func
 224              		.fpu fpv4-sp-d16
 226              	fmc_bank1_unlock:
 227              	.LFB119:
 100:C:/Users/49542/Desktop/GD32F30x_Demo_Suites_V2.0.0/GD32F30x_Demo_Suites_V2.0.0/GD32F30x_Firmware_Library/GD32F30x_standard_peripheral/Source\gd32f30x_fmc.c **** 
 101:C:/Users/49542/Desktop/GD32F30x_Demo_Suites_V2.0.0/GD32F30x_Demo_Suites_V2.0.0/GD32F30x_Firmware_Library/GD32F30x_standard_peripheral/Source\gd32f30x_fmc.c **** /*!
 102:C:/Users/49542/Desktop/GD32F30x_Demo_Suites_V2.0.0/GD32F30x_Demo_Suites_V2.0.0/GD32F30x_Firmware_Library/GD32F30x_standard_peripheral/Source\gd32f30x_fmc.c ****     \brief      unlock the FMC bank1 operation 
 103:C:/Users/49542/Desktop/GD32F30x_Demo_Suites_V2.0.0/GD32F30x_Demo_Suites_V2.0.0/GD32F30x_Firmware_Library/GD32F30x_standard_peripheral/Source\gd32f30x_fmc.c ****                 this function can be used for GD32F30x with flash more than 512KB.
 104:C:/Users/49542/Desktop/GD32F30x_Demo_Suites_V2.0.0/GD32F30x_Demo_Suites_V2.0.0/GD32F30x_Firmware_Library/GD32F30x_standard_peripheral/Source\gd32f30x_fmc.c ****     \param[in]  none
 105:C:/Users/49542/Desktop/GD32F30x_Demo_Suites_V2.0.0/GD32F30x_Demo_Suites_V2.0.0/GD32F30x_Firmware_Library/GD32F30x_standard_peripheral/Source\gd32f30x_fmc.c ****     \param[out] none
 106:C:/Users/49542/Desktop/GD32F30x_Demo_Suites_V2.0.0/GD32F30x_Demo_Suites_V2.0.0/GD32F30x_Firmware_Library/GD32F30x_standard_peripheral/Source\gd32f30x_fmc.c ****     \retval     none
 107:C:/Users/49542/Desktop/GD32F30x_Demo_Suites_V2.0.0/GD32F30x_Demo_Suites_V2.0.0/GD32F30x_Firmware_Library/GD32F30x_standard_peripheral/Source\gd32f30x_fmc.c **** */
 108:C:/Users/49542/Desktop/GD32F30x_Demo_Suites_V2.0.0/GD32F30x_Demo_Suites_V2.0.0/GD32F30x_Firmware_Library/GD32F30x_standard_peripheral/Source\gd32f30x_fmc.c **** void fmc_bank1_unlock(void)
 109:C:/Users/49542/Desktop/GD32F30x_Demo_Suites_V2.0.0/GD32F30x_Demo_Suites_V2.0.0/GD32F30x_Firmware_Library/GD32F30x_standard_peripheral/Source\gd32f30x_fmc.c **** {
 228              		.loc 1 109 0
 229              		.cfi_startproc
 230              		@ args = 0, pretend = 0, frame = 0
 231              		@ frame_needed = 1, uses_anonymous_args = 0
 232              		@ link register save eliminated.
 233 0000 80B4     		push	{r7}
 234              	.LCFI14:
 235              		.cfi_def_cfa_offset 4
 236              		.cfi_offset 7, -4
 237 0002 00AF     		add	r7, sp, #0
 238              	.LCFI15:
 239              		.cfi_def_cfa_register 7
 110:C:/Users/49542/Desktop/GD32F30x_Demo_Suites_V2.0.0/GD32F30x_Demo_Suites_V2.0.0/GD32F30x_Firmware_Library/GD32F30x_standard_peripheral/Source\gd32f30x_fmc.c ****     if((RESET != (FMC_CTL1 & FMC_CTL1_LK))){
ARM GAS  C:\Users\49542\AppData\Local\Temp\ccEPk6Rd.s 			page 7


 240              		.loc 1 110 0
 241 0004 084B     		ldr	r3, .L18
 242 0006 1B68     		ldr	r3, [r3]
 243 0008 03F08003 		and	r3, r3, #128
 244 000c 002B     		cmp	r3, #0
 245 000e 05D0     		beq	.L17
 111:C:/Users/49542/Desktop/GD32F30x_Demo_Suites_V2.0.0/GD32F30x_Demo_Suites_V2.0.0/GD32F30x_Firmware_Library/GD32F30x_standard_peripheral/Source\gd32f30x_fmc.c ****         /* write the FMC unlock key */
 112:C:/Users/49542/Desktop/GD32F30x_Demo_Suites_V2.0.0/GD32F30x_Demo_Suites_V2.0.0/GD32F30x_Firmware_Library/GD32F30x_standard_peripheral/Source\gd32f30x_fmc.c ****         FMC_KEY1 = UNLOCK_KEY0;
 246              		.loc 1 112 0
 247 0010 064B     		ldr	r3, .L18+4
 248 0012 074A     		ldr	r2, .L18+8
 249 0014 1A60     		str	r2, [r3]
 113:C:/Users/49542/Desktop/GD32F30x_Demo_Suites_V2.0.0/GD32F30x_Demo_Suites_V2.0.0/GD32F30x_Firmware_Library/GD32F30x_standard_peripheral/Source\gd32f30x_fmc.c ****         FMC_KEY1 = UNLOCK_KEY1;
 250              		.loc 1 113 0
 251 0016 054B     		ldr	r3, .L18+4
 252 0018 064A     		ldr	r2, .L18+12
 253 001a 1A60     		str	r2, [r3]
 254              	.L17:
 114:C:/Users/49542/Desktop/GD32F30x_Demo_Suites_V2.0.0/GD32F30x_Demo_Suites_V2.0.0/GD32F30x_Firmware_Library/GD32F30x_standard_peripheral/Source\gd32f30x_fmc.c ****     }
 115:C:/Users/49542/Desktop/GD32F30x_Demo_Suites_V2.0.0/GD32F30x_Demo_Suites_V2.0.0/GD32F30x_Firmware_Library/GD32F30x_standard_peripheral/Source\gd32f30x_fmc.c **** }
 255              		.loc 1 115 0
 256 001c 00BF     		nop
 257 001e BD46     		mov	sp, r7
 258              	.LCFI16:
 259              		.cfi_def_cfa_register 13
 260              		@ sp needed
 261 0020 5DF8047B 		ldr	r7, [sp], #4
 262              	.LCFI17:
 263              		.cfi_restore 7
 264              		.cfi_def_cfa_offset 0
 265 0024 7047     		bx	lr
 266              	.L19:
 267 0026 00BF     		.align	2
 268              	.L18:
 269 0028 50200240 		.word	1073881168
 270 002c 44200240 		.word	1073881156
 271 0030 23016745 		.word	1164378403
 272 0034 AB89EFCD 		.word	-839939669
 273              		.cfi_endproc
 274              	.LFE119:
 276              		.section	.text.fmc_lock,"ax",%progbits
 277              		.align	1
 278              		.global	fmc_lock
 279              		.syntax unified
 280              		.thumb
 281              		.thumb_func
 282              		.fpu fpv4-sp-d16
 284              	fmc_lock:
 285              	.LFB120:
 116:C:/Users/49542/Desktop/GD32F30x_Demo_Suites_V2.0.0/GD32F30x_Demo_Suites_V2.0.0/GD32F30x_Firmware_Library/GD32F30x_standard_peripheral/Source\gd32f30x_fmc.c **** 
 117:C:/Users/49542/Desktop/GD32F30x_Demo_Suites_V2.0.0/GD32F30x_Demo_Suites_V2.0.0/GD32F30x_Firmware_Library/GD32F30x_standard_peripheral/Source\gd32f30x_fmc.c **** /*!
 118:C:/Users/49542/Desktop/GD32F30x_Demo_Suites_V2.0.0/GD32F30x_Demo_Suites_V2.0.0/GD32F30x_Firmware_Library/GD32F30x_standard_peripheral/Source\gd32f30x_fmc.c ****     \brief      lock the main FMC operation
 119:C:/Users/49542/Desktop/GD32F30x_Demo_Suites_V2.0.0/GD32F30x_Demo_Suites_V2.0.0/GD32F30x_Firmware_Library/GD32F30x_standard_peripheral/Source\gd32f30x_fmc.c ****     \param[in]  none
 120:C:/Users/49542/Desktop/GD32F30x_Demo_Suites_V2.0.0/GD32F30x_Demo_Suites_V2.0.0/GD32F30x_Firmware_Library/GD32F30x_standard_peripheral/Source\gd32f30x_fmc.c ****     \param[out] none
 121:C:/Users/49542/Desktop/GD32F30x_Demo_Suites_V2.0.0/GD32F30x_Demo_Suites_V2.0.0/GD32F30x_Firmware_Library/GD32F30x_standard_peripheral/Source\gd32f30x_fmc.c ****     \retval     none
 122:C:/Users/49542/Desktop/GD32F30x_Demo_Suites_V2.0.0/GD32F30x_Demo_Suites_V2.0.0/GD32F30x_Firmware_Library/GD32F30x_standard_peripheral/Source\gd32f30x_fmc.c **** */
 123:C:/Users/49542/Desktop/GD32F30x_Demo_Suites_V2.0.0/GD32F30x_Demo_Suites_V2.0.0/GD32F30x_Firmware_Library/GD32F30x_standard_peripheral/Source\gd32f30x_fmc.c **** void fmc_lock(void)
ARM GAS  C:\Users\49542\AppData\Local\Temp\ccEPk6Rd.s 			page 8


 124:C:/Users/49542/Desktop/GD32F30x_Demo_Suites_V2.0.0/GD32F30x_Demo_Suites_V2.0.0/GD32F30x_Firmware_Library/GD32F30x_standard_peripheral/Source\gd32f30x_fmc.c **** {
 286              		.loc 1 124 0
 287              		.cfi_startproc
 288              		@ args = 0, pretend = 0, frame = 0
 289              		@ frame_needed = 1, uses_anonymous_args = 0
 290              		@ link register save eliminated.
 291 0000 80B4     		push	{r7}
 292              	.LCFI18:
 293              		.cfi_def_cfa_offset 4
 294              		.cfi_offset 7, -4
 295 0002 00AF     		add	r7, sp, #0
 296              	.LCFI19:
 297              		.cfi_def_cfa_register 7
 125:C:/Users/49542/Desktop/GD32F30x_Demo_Suites_V2.0.0/GD32F30x_Demo_Suites_V2.0.0/GD32F30x_Firmware_Library/GD32F30x_standard_peripheral/Source\gd32f30x_fmc.c ****     /* set the LK bit */
 126:C:/Users/49542/Desktop/GD32F30x_Demo_Suites_V2.0.0/GD32F30x_Demo_Suites_V2.0.0/GD32F30x_Firmware_Library/GD32F30x_standard_peripheral/Source\gd32f30x_fmc.c ****     FMC_CTL0 |= FMC_CTL0_LK;
 298              		.loc 1 126 0
 299 0004 0A4B     		ldr	r3, .L23
 300 0006 1B68     		ldr	r3, [r3]
 301 0008 094A     		ldr	r2, .L23
 302 000a 43F08003 		orr	r3, r3, #128
 303 000e 1360     		str	r3, [r2]
 127:C:/Users/49542/Desktop/GD32F30x_Demo_Suites_V2.0.0/GD32F30x_Demo_Suites_V2.0.0/GD32F30x_Firmware_Library/GD32F30x_standard_peripheral/Source\gd32f30x_fmc.c ****     
 128:C:/Users/49542/Desktop/GD32F30x_Demo_Suites_V2.0.0/GD32F30x_Demo_Suites_V2.0.0/GD32F30x_Firmware_Library/GD32F30x_standard_peripheral/Source\gd32f30x_fmc.c ****     if(FMC_BANK0_SIZE < FMC_SIZE){
 304              		.loc 1 128 0
 305 0010 084B     		ldr	r3, .L23+4
 306 0012 1B88     		ldrh	r3, [r3]
 307 0014 B3F5007F 		cmp	r3, #512
 308 0018 05D9     		bls	.L22
 129:C:/Users/49542/Desktop/GD32F30x_Demo_Suites_V2.0.0/GD32F30x_Demo_Suites_V2.0.0/GD32F30x_Firmware_Library/GD32F30x_standard_peripheral/Source\gd32f30x_fmc.c ****         /* set the LK bit */
 130:C:/Users/49542/Desktop/GD32F30x_Demo_Suites_V2.0.0/GD32F30x_Demo_Suites_V2.0.0/GD32F30x_Firmware_Library/GD32F30x_standard_peripheral/Source\gd32f30x_fmc.c ****         FMC_CTL1 |= FMC_CTL1_LK;
 309              		.loc 1 130 0
 310 001a 074B     		ldr	r3, .L23+8
 311 001c 1B68     		ldr	r3, [r3]
 312 001e 064A     		ldr	r2, .L23+8
 313 0020 43F08003 		orr	r3, r3, #128
 314 0024 1360     		str	r3, [r2]
 315              	.L22:
 131:C:/Users/49542/Desktop/GD32F30x_Demo_Suites_V2.0.0/GD32F30x_Demo_Suites_V2.0.0/GD32F30x_Firmware_Library/GD32F30x_standard_peripheral/Source\gd32f30x_fmc.c ****     }
 132:C:/Users/49542/Desktop/GD32F30x_Demo_Suites_V2.0.0/GD32F30x_Demo_Suites_V2.0.0/GD32F30x_Firmware_Library/GD32F30x_standard_peripheral/Source\gd32f30x_fmc.c **** }
 316              		.loc 1 132 0
 317 0026 00BF     		nop
 318 0028 BD46     		mov	sp, r7
 319              	.LCFI20:
 320              		.cfi_def_cfa_register 13
 321              		@ sp needed
 322 002a 5DF8047B 		ldr	r7, [sp], #4
 323              	.LCFI21:
 324              		.cfi_restore 7
 325              		.cfi_def_cfa_offset 0
 326 002e 7047     		bx	lr
 327              	.L24:
 328              		.align	2
 329              	.L23:
 330 0030 10200240 		.word	1073881104
 331 0034 E0F7FF1F 		.word	536868832
 332 0038 50200240 		.word	1073881168
 333              		.cfi_endproc
ARM GAS  C:\Users\49542\AppData\Local\Temp\ccEPk6Rd.s 			page 9


 334              	.LFE120:
 336              		.section	.text.fmc_bank0_lock,"ax",%progbits
 337              		.align	1
 338              		.global	fmc_bank0_lock
 339              		.syntax unified
 340              		.thumb
 341              		.thumb_func
 342              		.fpu fpv4-sp-d16
 344              	fmc_bank0_lock:
 345              	.LFB121:
 133:C:/Users/49542/Desktop/GD32F30x_Demo_Suites_V2.0.0/GD32F30x_Demo_Suites_V2.0.0/GD32F30x_Firmware_Library/GD32F30x_standard_peripheral/Source\gd32f30x_fmc.c **** 
 134:C:/Users/49542/Desktop/GD32F30x_Demo_Suites_V2.0.0/GD32F30x_Demo_Suites_V2.0.0/GD32F30x_Firmware_Library/GD32F30x_standard_peripheral/Source\gd32f30x_fmc.c **** /*!
 135:C:/Users/49542/Desktop/GD32F30x_Demo_Suites_V2.0.0/GD32F30x_Demo_Suites_V2.0.0/GD32F30x_Firmware_Library/GD32F30x_standard_peripheral/Source\gd32f30x_fmc.c ****     \brief      lock the FMC bank0 operation
 136:C:/Users/49542/Desktop/GD32F30x_Demo_Suites_V2.0.0/GD32F30x_Demo_Suites_V2.0.0/GD32F30x_Firmware_Library/GD32F30x_standard_peripheral/Source\gd32f30x_fmc.c ****                 this function can be used for all GD32F30X devices.
 137:C:/Users/49542/Desktop/GD32F30x_Demo_Suites_V2.0.0/GD32F30x_Demo_Suites_V2.0.0/GD32F30x_Firmware_Library/GD32F30x_standard_peripheral/Source\gd32f30x_fmc.c ****                 for GD32F30x with flash more than 512KB, this function locks bank0.
 138:C:/Users/49542/Desktop/GD32F30x_Demo_Suites_V2.0.0/GD32F30x_Demo_Suites_V2.0.0/GD32F30x_Firmware_Library/GD32F30x_standard_peripheral/Source\gd32f30x_fmc.c ****                 for GD32F30x with flash no more than 512KB and it is equivalent to fmc_lock functio
 139:C:/Users/49542/Desktop/GD32F30x_Demo_Suites_V2.0.0/GD32F30x_Demo_Suites_V2.0.0/GD32F30x_Firmware_Library/GD32F30x_standard_peripheral/Source\gd32f30x_fmc.c ****     \param[in]  none
 140:C:/Users/49542/Desktop/GD32F30x_Demo_Suites_V2.0.0/GD32F30x_Demo_Suites_V2.0.0/GD32F30x_Firmware_Library/GD32F30x_standard_peripheral/Source\gd32f30x_fmc.c ****     \param[out] none
 141:C:/Users/49542/Desktop/GD32F30x_Demo_Suites_V2.0.0/GD32F30x_Demo_Suites_V2.0.0/GD32F30x_Firmware_Library/GD32F30x_standard_peripheral/Source\gd32f30x_fmc.c ****     \retval     none
 142:C:/Users/49542/Desktop/GD32F30x_Demo_Suites_V2.0.0/GD32F30x_Demo_Suites_V2.0.0/GD32F30x_Firmware_Library/GD32F30x_standard_peripheral/Source\gd32f30x_fmc.c **** */
 143:C:/Users/49542/Desktop/GD32F30x_Demo_Suites_V2.0.0/GD32F30x_Demo_Suites_V2.0.0/GD32F30x_Firmware_Library/GD32F30x_standard_peripheral/Source\gd32f30x_fmc.c **** void fmc_bank0_lock(void)
 144:C:/Users/49542/Desktop/GD32F30x_Demo_Suites_V2.0.0/GD32F30x_Demo_Suites_V2.0.0/GD32F30x_Firmware_Library/GD32F30x_standard_peripheral/Source\gd32f30x_fmc.c **** {
 346              		.loc 1 144 0
 347              		.cfi_startproc
 348              		@ args = 0, pretend = 0, frame = 0
 349              		@ frame_needed = 1, uses_anonymous_args = 0
 350              		@ link register save eliminated.
 351 0000 80B4     		push	{r7}
 352              	.LCFI22:
 353              		.cfi_def_cfa_offset 4
 354              		.cfi_offset 7, -4
 355 0002 00AF     		add	r7, sp, #0
 356              	.LCFI23:
 357              		.cfi_def_cfa_register 7
 145:C:/Users/49542/Desktop/GD32F30x_Demo_Suites_V2.0.0/GD32F30x_Demo_Suites_V2.0.0/GD32F30x_Firmware_Library/GD32F30x_standard_peripheral/Source\gd32f30x_fmc.c ****     /* set the LK bit*/
 146:C:/Users/49542/Desktop/GD32F30x_Demo_Suites_V2.0.0/GD32F30x_Demo_Suites_V2.0.0/GD32F30x_Firmware_Library/GD32F30x_standard_peripheral/Source\gd32f30x_fmc.c ****     FMC_CTL0 |= FMC_CTL0_LK;
 358              		.loc 1 146 0
 359 0004 054B     		ldr	r3, .L26
 360 0006 1B68     		ldr	r3, [r3]
 361 0008 044A     		ldr	r2, .L26
 362 000a 43F08003 		orr	r3, r3, #128
 363 000e 1360     		str	r3, [r2]
 147:C:/Users/49542/Desktop/GD32F30x_Demo_Suites_V2.0.0/GD32F30x_Demo_Suites_V2.0.0/GD32F30x_Firmware_Library/GD32F30x_standard_peripheral/Source\gd32f30x_fmc.c **** }
 364              		.loc 1 147 0
 365 0010 00BF     		nop
 366 0012 BD46     		mov	sp, r7
 367              	.LCFI24:
 368              		.cfi_def_cfa_register 13
 369              		@ sp needed
 370 0014 5DF8047B 		ldr	r7, [sp], #4
 371              	.LCFI25:
 372              		.cfi_restore 7
 373              		.cfi_def_cfa_offset 0
 374 0018 7047     		bx	lr
 375              	.L27:
 376 001a 00BF     		.align	2
 377              	.L26:
ARM GAS  C:\Users\49542\AppData\Local\Temp\ccEPk6Rd.s 			page 10


 378 001c 10200240 		.word	1073881104
 379              		.cfi_endproc
 380              	.LFE121:
 382              		.section	.text.fmc_bank1_lock,"ax",%progbits
 383              		.align	1
 384              		.global	fmc_bank1_lock
 385              		.syntax unified
 386              		.thumb
 387              		.thumb_func
 388              		.fpu fpv4-sp-d16
 390              	fmc_bank1_lock:
 391              	.LFB122:
 148:C:/Users/49542/Desktop/GD32F30x_Demo_Suites_V2.0.0/GD32F30x_Demo_Suites_V2.0.0/GD32F30x_Firmware_Library/GD32F30x_standard_peripheral/Source\gd32f30x_fmc.c **** 
 149:C:/Users/49542/Desktop/GD32F30x_Demo_Suites_V2.0.0/GD32F30x_Demo_Suites_V2.0.0/GD32F30x_Firmware_Library/GD32F30x_standard_peripheral/Source\gd32f30x_fmc.c **** /*!
 150:C:/Users/49542/Desktop/GD32F30x_Demo_Suites_V2.0.0/GD32F30x_Demo_Suites_V2.0.0/GD32F30x_Firmware_Library/GD32F30x_standard_peripheral/Source\gd32f30x_fmc.c ****     \brief      lock the FMC bank1 operation
 151:C:/Users/49542/Desktop/GD32F30x_Demo_Suites_V2.0.0/GD32F30x_Demo_Suites_V2.0.0/GD32F30x_Firmware_Library/GD32F30x_standard_peripheral/Source\gd32f30x_fmc.c ****                 this function can be used for GD32F30x with flash more than 512KB.
 152:C:/Users/49542/Desktop/GD32F30x_Demo_Suites_V2.0.0/GD32F30x_Demo_Suites_V2.0.0/GD32F30x_Firmware_Library/GD32F30x_standard_peripheral/Source\gd32f30x_fmc.c ****     \param[in]  none
 153:C:/Users/49542/Desktop/GD32F30x_Demo_Suites_V2.0.0/GD32F30x_Demo_Suites_V2.0.0/GD32F30x_Firmware_Library/GD32F30x_standard_peripheral/Source\gd32f30x_fmc.c ****     \param[out] none
 154:C:/Users/49542/Desktop/GD32F30x_Demo_Suites_V2.0.0/GD32F30x_Demo_Suites_V2.0.0/GD32F30x_Firmware_Library/GD32F30x_standard_peripheral/Source\gd32f30x_fmc.c ****     \retval     none
 155:C:/Users/49542/Desktop/GD32F30x_Demo_Suites_V2.0.0/GD32F30x_Demo_Suites_V2.0.0/GD32F30x_Firmware_Library/GD32F30x_standard_peripheral/Source\gd32f30x_fmc.c **** */
 156:C:/Users/49542/Desktop/GD32F30x_Demo_Suites_V2.0.0/GD32F30x_Demo_Suites_V2.0.0/GD32F30x_Firmware_Library/GD32F30x_standard_peripheral/Source\gd32f30x_fmc.c **** void fmc_bank1_lock(void)
 157:C:/Users/49542/Desktop/GD32F30x_Demo_Suites_V2.0.0/GD32F30x_Demo_Suites_V2.0.0/GD32F30x_Firmware_Library/GD32F30x_standard_peripheral/Source\gd32f30x_fmc.c **** {
 392              		.loc 1 157 0
 393              		.cfi_startproc
 394              		@ args = 0, pretend = 0, frame = 0
 395              		@ frame_needed = 1, uses_anonymous_args = 0
 396              		@ link register save eliminated.
 397 0000 80B4     		push	{r7}
 398              	.LCFI26:
 399              		.cfi_def_cfa_offset 4
 400              		.cfi_offset 7, -4
 401 0002 00AF     		add	r7, sp, #0
 402              	.LCFI27:
 403              		.cfi_def_cfa_register 7
 158:C:/Users/49542/Desktop/GD32F30x_Demo_Suites_V2.0.0/GD32F30x_Demo_Suites_V2.0.0/GD32F30x_Firmware_Library/GD32F30x_standard_peripheral/Source\gd32f30x_fmc.c ****     /* set the LK bit*/
 159:C:/Users/49542/Desktop/GD32F30x_Demo_Suites_V2.0.0/GD32F30x_Demo_Suites_V2.0.0/GD32F30x_Firmware_Library/GD32F30x_standard_peripheral/Source\gd32f30x_fmc.c ****     FMC_CTL1 |= FMC_CTL1_LK;
 404              		.loc 1 159 0
 405 0004 054B     		ldr	r3, .L29
 406 0006 1B68     		ldr	r3, [r3]
 407 0008 044A     		ldr	r2, .L29
 408 000a 43F08003 		orr	r3, r3, #128
 409 000e 1360     		str	r3, [r2]
 160:C:/Users/49542/Desktop/GD32F30x_Demo_Suites_V2.0.0/GD32F30x_Demo_Suites_V2.0.0/GD32F30x_Firmware_Library/GD32F30x_standard_peripheral/Source\gd32f30x_fmc.c **** }
 410              		.loc 1 160 0
 411 0010 00BF     		nop
 412 0012 BD46     		mov	sp, r7
 413              	.LCFI28:
 414              		.cfi_def_cfa_register 13
 415              		@ sp needed
 416 0014 5DF8047B 		ldr	r7, [sp], #4
 417              	.LCFI29:
 418              		.cfi_restore 7
 419              		.cfi_def_cfa_offset 0
 420 0018 7047     		bx	lr
 421              	.L30:
 422 001a 00BF     		.align	2
 423              	.L29:
ARM GAS  C:\Users\49542\AppData\Local\Temp\ccEPk6Rd.s 			page 11


 424 001c 50200240 		.word	1073881168
 425              		.cfi_endproc
 426              	.LFE122:
 428              		.section	.text.fmc_page_erase,"ax",%progbits
 429              		.align	1
 430              		.global	fmc_page_erase
 431              		.syntax unified
 432              		.thumb
 433              		.thumb_func
 434              		.fpu fpv4-sp-d16
 436              	fmc_page_erase:
 437              	.LFB123:
 161:C:/Users/49542/Desktop/GD32F30x_Demo_Suites_V2.0.0/GD32F30x_Demo_Suites_V2.0.0/GD32F30x_Firmware_Library/GD32F30x_standard_peripheral/Source\gd32f30x_fmc.c **** 
 162:C:/Users/49542/Desktop/GD32F30x_Demo_Suites_V2.0.0/GD32F30x_Demo_Suites_V2.0.0/GD32F30x_Firmware_Library/GD32F30x_standard_peripheral/Source\gd32f30x_fmc.c **** /*!
 163:C:/Users/49542/Desktop/GD32F30x_Demo_Suites_V2.0.0/GD32F30x_Demo_Suites_V2.0.0/GD32F30x_Firmware_Library/GD32F30x_standard_peripheral/Source\gd32f30x_fmc.c ****     \brief      erase page
 164:C:/Users/49542/Desktop/GD32F30x_Demo_Suites_V2.0.0/GD32F30x_Demo_Suites_V2.0.0/GD32F30x_Firmware_Library/GD32F30x_standard_peripheral/Source\gd32f30x_fmc.c ****     \param[in]  page_address: the page address to be erased.
 165:C:/Users/49542/Desktop/GD32F30x_Demo_Suites_V2.0.0/GD32F30x_Demo_Suites_V2.0.0/GD32F30x_Firmware_Library/GD32F30x_standard_peripheral/Source\gd32f30x_fmc.c ****     \param[out] none
 166:C:/Users/49542/Desktop/GD32F30x_Demo_Suites_V2.0.0/GD32F30x_Demo_Suites_V2.0.0/GD32F30x_Firmware_Library/GD32F30x_standard_peripheral/Source\gd32f30x_fmc.c ****     \retval     state of FMC, refer to fmc_state_enum
 167:C:/Users/49542/Desktop/GD32F30x_Demo_Suites_V2.0.0/GD32F30x_Demo_Suites_V2.0.0/GD32F30x_Firmware_Library/GD32F30x_standard_peripheral/Source\gd32f30x_fmc.c **** */
 168:C:/Users/49542/Desktop/GD32F30x_Demo_Suites_V2.0.0/GD32F30x_Demo_Suites_V2.0.0/GD32F30x_Firmware_Library/GD32F30x_standard_peripheral/Source\gd32f30x_fmc.c **** fmc_state_enum fmc_page_erase(uint32_t page_address)
 169:C:/Users/49542/Desktop/GD32F30x_Demo_Suites_V2.0.0/GD32F30x_Demo_Suites_V2.0.0/GD32F30x_Firmware_Library/GD32F30x_standard_peripheral/Source\gd32f30x_fmc.c **** {
 438              		.loc 1 169 0
 439              		.cfi_startproc
 440              		@ args = 0, pretend = 0, frame = 16
 441              		@ frame_needed = 1, uses_anonymous_args = 0
 442 0000 80B5     		push	{r7, lr}
 443              	.LCFI30:
 444              		.cfi_def_cfa_offset 8
 445              		.cfi_offset 7, -8
 446              		.cfi_offset 14, -4
 447 0002 84B0     		sub	sp, sp, #16
 448              	.LCFI31:
 449              		.cfi_def_cfa_offset 24
 450 0004 00AF     		add	r7, sp, #0
 451              	.LCFI32:
 452              		.cfi_def_cfa_register 7
 453 0006 7860     		str	r0, [r7, #4]
 170:C:/Users/49542/Desktop/GD32F30x_Demo_Suites_V2.0.0/GD32F30x_Demo_Suites_V2.0.0/GD32F30x_Firmware_Library/GD32F30x_standard_peripheral/Source\gd32f30x_fmc.c ****     fmc_state_enum fmc_state;
 171:C:/Users/49542/Desktop/GD32F30x_Demo_Suites_V2.0.0/GD32F30x_Demo_Suites_V2.0.0/GD32F30x_Firmware_Library/GD32F30x_standard_peripheral/Source\gd32f30x_fmc.c ****     
 172:C:/Users/49542/Desktop/GD32F30x_Demo_Suites_V2.0.0/GD32F30x_Demo_Suites_V2.0.0/GD32F30x_Firmware_Library/GD32F30x_standard_peripheral/Source\gd32f30x_fmc.c ****     if(FMC_BANK0_SIZE < FMC_SIZE){
 454              		.loc 1 172 0
 455 0008 424B     		ldr	r3, .L39
 456 000a 1B88     		ldrh	r3, [r3]
 457 000c B3F5007F 		cmp	r3, #512
 458 0010 56D9     		bls	.L32
 173:C:/Users/49542/Desktop/GD32F30x_Demo_Suites_V2.0.0/GD32F30x_Demo_Suites_V2.0.0/GD32F30x_Firmware_Library/GD32F30x_standard_peripheral/Source\gd32f30x_fmc.c ****         if(FMC_BANK0_END_ADDRESS > page_address){
 459              		.loc 1 173 0
 460 0012 7B68     		ldr	r3, [r7, #4]
 461 0014 404A     		ldr	r2, .L39+4
 462 0016 9342     		cmp	r3, r2
 463 0018 24D8     		bhi	.L33
 174:C:/Users/49542/Desktop/GD32F30x_Demo_Suites_V2.0.0/GD32F30x_Demo_Suites_V2.0.0/GD32F30x_Firmware_Library/GD32F30x_standard_peripheral/Source\gd32f30x_fmc.c ****             fmc_state = fmc_bank0_ready_wait(FMC_TIMEOUT_COUNT);
 464              		.loc 1 174 0
 465 001a 4FF47020 		mov	r0, #983040
 466 001e FFF7FEFF 		bl	fmc_bank0_ready_wait
 467 0022 0346     		mov	r3, r0
 468 0024 FB73     		strb	r3, [r7, #15]
ARM GAS  C:\Users\49542\AppData\Local\Temp\ccEPk6Rd.s 			page 12


 175:C:/Users/49542/Desktop/GD32F30x_Demo_Suites_V2.0.0/GD32F30x_Demo_Suites_V2.0.0/GD32F30x_Firmware_Library/GD32F30x_standard_peripheral/Source\gd32f30x_fmc.c ****             /* if the last operation is completed, start page erase */
 176:C:/Users/49542/Desktop/GD32F30x_Demo_Suites_V2.0.0/GD32F30x_Demo_Suites_V2.0.0/GD32F30x_Firmware_Library/GD32F30x_standard_peripheral/Source\gd32f30x_fmc.c ****             if(FMC_READY == fmc_state){
 469              		.loc 1 176 0
 470 0026 FB7B     		ldrb	r3, [r7, #15]	@ zero_extendqisi2
 471 0028 002B     		cmp	r3, #0
 472 002a 6DD1     		bne	.L37
 177:C:/Users/49542/Desktop/GD32F30x_Demo_Suites_V2.0.0/GD32F30x_Demo_Suites_V2.0.0/GD32F30x_Firmware_Library/GD32F30x_standard_peripheral/Source\gd32f30x_fmc.c ****                 FMC_CTL0 |= FMC_CTL0_PER;
 473              		.loc 1 177 0
 474 002c 3B4B     		ldr	r3, .L39+8
 475 002e 1B68     		ldr	r3, [r3]
 476 0030 3A4A     		ldr	r2, .L39+8
 477 0032 43F00203 		orr	r3, r3, #2
 478 0036 1360     		str	r3, [r2]
 178:C:/Users/49542/Desktop/GD32F30x_Demo_Suites_V2.0.0/GD32F30x_Demo_Suites_V2.0.0/GD32F30x_Firmware_Library/GD32F30x_standard_peripheral/Source\gd32f30x_fmc.c ****                 FMC_ADDR0 = page_address;
 479              		.loc 1 178 0
 480 0038 394A     		ldr	r2, .L39+12
 481 003a 7B68     		ldr	r3, [r7, #4]
 482 003c 1360     		str	r3, [r2]
 179:C:/Users/49542/Desktop/GD32F30x_Demo_Suites_V2.0.0/GD32F30x_Demo_Suites_V2.0.0/GD32F30x_Firmware_Library/GD32F30x_standard_peripheral/Source\gd32f30x_fmc.c ****                 FMC_CTL0 |= FMC_CTL0_START;
 483              		.loc 1 179 0
 484 003e 374B     		ldr	r3, .L39+8
 485 0040 1B68     		ldr	r3, [r3]
 486 0042 364A     		ldr	r2, .L39+8
 487 0044 43F04003 		orr	r3, r3, #64
 488 0048 1360     		str	r3, [r2]
 180:C:/Users/49542/Desktop/GD32F30x_Demo_Suites_V2.0.0/GD32F30x_Demo_Suites_V2.0.0/GD32F30x_Firmware_Library/GD32F30x_standard_peripheral/Source\gd32f30x_fmc.c ****                 /* wait for the FMC ready */
 181:C:/Users/49542/Desktop/GD32F30x_Demo_Suites_V2.0.0/GD32F30x_Demo_Suites_V2.0.0/GD32F30x_Firmware_Library/GD32F30x_standard_peripheral/Source\gd32f30x_fmc.c ****                 fmc_state = fmc_bank0_ready_wait(FMC_TIMEOUT_COUNT);
 489              		.loc 1 181 0
 490 004a 4FF47020 		mov	r0, #983040
 491 004e FFF7FEFF 		bl	fmc_bank0_ready_wait
 492 0052 0346     		mov	r3, r0
 493 0054 FB73     		strb	r3, [r7, #15]
 182:C:/Users/49542/Desktop/GD32F30x_Demo_Suites_V2.0.0/GD32F30x_Demo_Suites_V2.0.0/GD32F30x_Firmware_Library/GD32F30x_standard_peripheral/Source\gd32f30x_fmc.c ****                 /* reset the PER bit */
 183:C:/Users/49542/Desktop/GD32F30x_Demo_Suites_V2.0.0/GD32F30x_Demo_Suites_V2.0.0/GD32F30x_Firmware_Library/GD32F30x_standard_peripheral/Source\gd32f30x_fmc.c ****                 FMC_CTL0 &= ~FMC_CTL0_PER;
 494              		.loc 1 183 0
 495 0056 314B     		ldr	r3, .L39+8
 496 0058 1B68     		ldr	r3, [r3]
 497 005a 304A     		ldr	r2, .L39+8
 498 005c 23F00203 		bic	r3, r3, #2
 499 0060 1360     		str	r3, [r2]
 500 0062 51E0     		b	.L37
 501              	.L33:
 184:C:/Users/49542/Desktop/GD32F30x_Demo_Suites_V2.0.0/GD32F30x_Demo_Suites_V2.0.0/GD32F30x_Firmware_Library/GD32F30x_standard_peripheral/Source\gd32f30x_fmc.c ****             }
 185:C:/Users/49542/Desktop/GD32F30x_Demo_Suites_V2.0.0/GD32F30x_Demo_Suites_V2.0.0/GD32F30x_Firmware_Library/GD32F30x_standard_peripheral/Source\gd32f30x_fmc.c ****         }else{
 186:C:/Users/49542/Desktop/GD32F30x_Demo_Suites_V2.0.0/GD32F30x_Demo_Suites_V2.0.0/GD32F30x_Firmware_Library/GD32F30x_standard_peripheral/Source\gd32f30x_fmc.c ****             /* wait for the FMC ready */
 187:C:/Users/49542/Desktop/GD32F30x_Demo_Suites_V2.0.0/GD32F30x_Demo_Suites_V2.0.0/GD32F30x_Firmware_Library/GD32F30x_standard_peripheral/Source\gd32f30x_fmc.c ****             fmc_state = fmc_bank1_ready_wait(FMC_TIMEOUT_COUNT);
 502              		.loc 1 187 0
 503 0064 4FF47020 		mov	r0, #983040
 504 0068 FFF7FEFF 		bl	fmc_bank1_ready_wait
 505 006c 0346     		mov	r3, r0
 506 006e FB73     		strb	r3, [r7, #15]
 188:C:/Users/49542/Desktop/GD32F30x_Demo_Suites_V2.0.0/GD32F30x_Demo_Suites_V2.0.0/GD32F30x_Firmware_Library/GD32F30x_standard_peripheral/Source\gd32f30x_fmc.c ****             /* if the last operation is completed, start page erase */
 189:C:/Users/49542/Desktop/GD32F30x_Demo_Suites_V2.0.0/GD32F30x_Demo_Suites_V2.0.0/GD32F30x_Firmware_Library/GD32F30x_standard_peripheral/Source\gd32f30x_fmc.c ****             if(FMC_READY == fmc_state){
 507              		.loc 1 189 0
 508 0070 FB7B     		ldrb	r3, [r7, #15]	@ zero_extendqisi2
 509 0072 002B     		cmp	r3, #0
 510 0074 48D1     		bne	.L37
ARM GAS  C:\Users\49542\AppData\Local\Temp\ccEPk6Rd.s 			page 13


 190:C:/Users/49542/Desktop/GD32F30x_Demo_Suites_V2.0.0/GD32F30x_Demo_Suites_V2.0.0/GD32F30x_Firmware_Library/GD32F30x_standard_peripheral/Source\gd32f30x_fmc.c ****                 FMC_CTL1 |= FMC_CTL1_PER;
 511              		.loc 1 190 0
 512 0076 2B4B     		ldr	r3, .L39+16
 513 0078 1B68     		ldr	r3, [r3]
 514 007a 2A4A     		ldr	r2, .L39+16
 515 007c 43F00203 		orr	r3, r3, #2
 516 0080 1360     		str	r3, [r2]
 191:C:/Users/49542/Desktop/GD32F30x_Demo_Suites_V2.0.0/GD32F30x_Demo_Suites_V2.0.0/GD32F30x_Firmware_Library/GD32F30x_standard_peripheral/Source\gd32f30x_fmc.c ****                 FMC_ADDR1 = page_address;
 517              		.loc 1 191 0
 518 0082 294A     		ldr	r2, .L39+20
 519 0084 7B68     		ldr	r3, [r7, #4]
 520 0086 1360     		str	r3, [r2]
 192:C:/Users/49542/Desktop/GD32F30x_Demo_Suites_V2.0.0/GD32F30x_Demo_Suites_V2.0.0/GD32F30x_Firmware_Library/GD32F30x_standard_peripheral/Source\gd32f30x_fmc.c ****                 if(FMC_OBSTAT & FMC_OBSTAT_SPC){
 521              		.loc 1 192 0
 522 0088 284B     		ldr	r3, .L39+24
 523 008a 1B68     		ldr	r3, [r3]
 524 008c 03F00203 		and	r3, r3, #2
 525 0090 002B     		cmp	r3, #0
 526 0092 02D0     		beq	.L36
 193:C:/Users/49542/Desktop/GD32F30x_Demo_Suites_V2.0.0/GD32F30x_Demo_Suites_V2.0.0/GD32F30x_Firmware_Library/GD32F30x_standard_peripheral/Source\gd32f30x_fmc.c ****                     FMC_ADDR0 = page_address;
 527              		.loc 1 193 0
 528 0094 224A     		ldr	r2, .L39+12
 529 0096 7B68     		ldr	r3, [r7, #4]
 530 0098 1360     		str	r3, [r2]
 531              	.L36:
 194:C:/Users/49542/Desktop/GD32F30x_Demo_Suites_V2.0.0/GD32F30x_Demo_Suites_V2.0.0/GD32F30x_Firmware_Library/GD32F30x_standard_peripheral/Source\gd32f30x_fmc.c ****                 }
 195:C:/Users/49542/Desktop/GD32F30x_Demo_Suites_V2.0.0/GD32F30x_Demo_Suites_V2.0.0/GD32F30x_Firmware_Library/GD32F30x_standard_peripheral/Source\gd32f30x_fmc.c ****                 FMC_CTL1 |= FMC_CTL1_START;
 532              		.loc 1 195 0
 533 009a 224B     		ldr	r3, .L39+16
 534 009c 1B68     		ldr	r3, [r3]
 535 009e 214A     		ldr	r2, .L39+16
 536 00a0 43F04003 		orr	r3, r3, #64
 537 00a4 1360     		str	r3, [r2]
 196:C:/Users/49542/Desktop/GD32F30x_Demo_Suites_V2.0.0/GD32F30x_Demo_Suites_V2.0.0/GD32F30x_Firmware_Library/GD32F30x_standard_peripheral/Source\gd32f30x_fmc.c ****                 /* wait for the FMC ready */
 197:C:/Users/49542/Desktop/GD32F30x_Demo_Suites_V2.0.0/GD32F30x_Demo_Suites_V2.0.0/GD32F30x_Firmware_Library/GD32F30x_standard_peripheral/Source\gd32f30x_fmc.c ****                 fmc_state = fmc_bank1_ready_wait(FMC_TIMEOUT_COUNT);
 538              		.loc 1 197 0
 539 00a6 4FF47020 		mov	r0, #983040
 540 00aa FFF7FEFF 		bl	fmc_bank1_ready_wait
 541 00ae 0346     		mov	r3, r0
 542 00b0 FB73     		strb	r3, [r7, #15]
 198:C:/Users/49542/Desktop/GD32F30x_Demo_Suites_V2.0.0/GD32F30x_Demo_Suites_V2.0.0/GD32F30x_Firmware_Library/GD32F30x_standard_peripheral/Source\gd32f30x_fmc.c ****                 /* reset the PER bit */
 199:C:/Users/49542/Desktop/GD32F30x_Demo_Suites_V2.0.0/GD32F30x_Demo_Suites_V2.0.0/GD32F30x_Firmware_Library/GD32F30x_standard_peripheral/Source\gd32f30x_fmc.c ****                 FMC_CTL1 &= ~FMC_CTL1_PER;
 543              		.loc 1 199 0
 544 00b2 1C4B     		ldr	r3, .L39+16
 545 00b4 1B68     		ldr	r3, [r3]
 546 00b6 1B4A     		ldr	r2, .L39+16
 547 00b8 23F00203 		bic	r3, r3, #2
 548 00bc 1360     		str	r3, [r2]
 549 00be 23E0     		b	.L37
 550              	.L32:
 200:C:/Users/49542/Desktop/GD32F30x_Demo_Suites_V2.0.0/GD32F30x_Demo_Suites_V2.0.0/GD32F30x_Firmware_Library/GD32F30x_standard_peripheral/Source\gd32f30x_fmc.c ****             }
 201:C:/Users/49542/Desktop/GD32F30x_Demo_Suites_V2.0.0/GD32F30x_Demo_Suites_V2.0.0/GD32F30x_Firmware_Library/GD32F30x_standard_peripheral/Source\gd32f30x_fmc.c ****         }
 202:C:/Users/49542/Desktop/GD32F30x_Demo_Suites_V2.0.0/GD32F30x_Demo_Suites_V2.0.0/GD32F30x_Firmware_Library/GD32F30x_standard_peripheral/Source\gd32f30x_fmc.c ****     }else{
 203:C:/Users/49542/Desktop/GD32F30x_Demo_Suites_V2.0.0/GD32F30x_Demo_Suites_V2.0.0/GD32F30x_Firmware_Library/GD32F30x_standard_peripheral/Source\gd32f30x_fmc.c ****         fmc_state = fmc_bank0_ready_wait(FMC_TIMEOUT_COUNT);
 551              		.loc 1 203 0
 552 00c0 4FF47020 		mov	r0, #983040
 553 00c4 FFF7FEFF 		bl	fmc_bank0_ready_wait
ARM GAS  C:\Users\49542\AppData\Local\Temp\ccEPk6Rd.s 			page 14


 554 00c8 0346     		mov	r3, r0
 555 00ca FB73     		strb	r3, [r7, #15]
 204:C:/Users/49542/Desktop/GD32F30x_Demo_Suites_V2.0.0/GD32F30x_Demo_Suites_V2.0.0/GD32F30x_Firmware_Library/GD32F30x_standard_peripheral/Source\gd32f30x_fmc.c ****         /* if the last operation is completed, start page erase */
 205:C:/Users/49542/Desktop/GD32F30x_Demo_Suites_V2.0.0/GD32F30x_Demo_Suites_V2.0.0/GD32F30x_Firmware_Library/GD32F30x_standard_peripheral/Source\gd32f30x_fmc.c ****         if(FMC_READY == fmc_state){
 556              		.loc 1 205 0
 557 00cc FB7B     		ldrb	r3, [r7, #15]	@ zero_extendqisi2
 558 00ce 002B     		cmp	r3, #0
 559 00d0 1AD1     		bne	.L37
 206:C:/Users/49542/Desktop/GD32F30x_Demo_Suites_V2.0.0/GD32F30x_Demo_Suites_V2.0.0/GD32F30x_Firmware_Library/GD32F30x_standard_peripheral/Source\gd32f30x_fmc.c ****             FMC_CTL0 |= FMC_CTL0_PER;
 560              		.loc 1 206 0
 561 00d2 124B     		ldr	r3, .L39+8
 562 00d4 1B68     		ldr	r3, [r3]
 563 00d6 114A     		ldr	r2, .L39+8
 564 00d8 43F00203 		orr	r3, r3, #2
 565 00dc 1360     		str	r3, [r2]
 207:C:/Users/49542/Desktop/GD32F30x_Demo_Suites_V2.0.0/GD32F30x_Demo_Suites_V2.0.0/GD32F30x_Firmware_Library/GD32F30x_standard_peripheral/Source\gd32f30x_fmc.c ****             FMC_ADDR0 = page_address;
 566              		.loc 1 207 0
 567 00de 104A     		ldr	r2, .L39+12
 568 00e0 7B68     		ldr	r3, [r7, #4]
 569 00e2 1360     		str	r3, [r2]
 208:C:/Users/49542/Desktop/GD32F30x_Demo_Suites_V2.0.0/GD32F30x_Demo_Suites_V2.0.0/GD32F30x_Firmware_Library/GD32F30x_standard_peripheral/Source\gd32f30x_fmc.c ****             FMC_CTL0 |= FMC_CTL0_START;
 570              		.loc 1 208 0
 571 00e4 0D4B     		ldr	r3, .L39+8
 572 00e6 1B68     		ldr	r3, [r3]
 573 00e8 0C4A     		ldr	r2, .L39+8
 574 00ea 43F04003 		orr	r3, r3, #64
 575 00ee 1360     		str	r3, [r2]
 209:C:/Users/49542/Desktop/GD32F30x_Demo_Suites_V2.0.0/GD32F30x_Demo_Suites_V2.0.0/GD32F30x_Firmware_Library/GD32F30x_standard_peripheral/Source\gd32f30x_fmc.c ****             /* wait for the FMC ready */
 210:C:/Users/49542/Desktop/GD32F30x_Demo_Suites_V2.0.0/GD32F30x_Demo_Suites_V2.0.0/GD32F30x_Firmware_Library/GD32F30x_standard_peripheral/Source\gd32f30x_fmc.c ****             fmc_state = fmc_bank0_ready_wait(FMC_TIMEOUT_COUNT);
 576              		.loc 1 210 0
 577 00f0 4FF47020 		mov	r0, #983040
 578 00f4 FFF7FEFF 		bl	fmc_bank0_ready_wait
 579 00f8 0346     		mov	r3, r0
 580 00fa FB73     		strb	r3, [r7, #15]
 211:C:/Users/49542/Desktop/GD32F30x_Demo_Suites_V2.0.0/GD32F30x_Demo_Suites_V2.0.0/GD32F30x_Firmware_Library/GD32F30x_standard_peripheral/Source\gd32f30x_fmc.c ****             /* reset the PER bit */
 212:C:/Users/49542/Desktop/GD32F30x_Demo_Suites_V2.0.0/GD32F30x_Demo_Suites_V2.0.0/GD32F30x_Firmware_Library/GD32F30x_standard_peripheral/Source\gd32f30x_fmc.c ****             FMC_CTL0 &= ~FMC_CTL0_PER;
 581              		.loc 1 212 0
 582 00fc 074B     		ldr	r3, .L39+8
 583 00fe 1B68     		ldr	r3, [r3]
 584 0100 064A     		ldr	r2, .L39+8
 585 0102 23F00203 		bic	r3, r3, #2
 586 0106 1360     		str	r3, [r2]
 587              	.L37:
 213:C:/Users/49542/Desktop/GD32F30x_Demo_Suites_V2.0.0/GD32F30x_Demo_Suites_V2.0.0/GD32F30x_Firmware_Library/GD32F30x_standard_peripheral/Source\gd32f30x_fmc.c ****         }
 214:C:/Users/49542/Desktop/GD32F30x_Demo_Suites_V2.0.0/GD32F30x_Demo_Suites_V2.0.0/GD32F30x_Firmware_Library/GD32F30x_standard_peripheral/Source\gd32f30x_fmc.c ****     }
 215:C:/Users/49542/Desktop/GD32F30x_Demo_Suites_V2.0.0/GD32F30x_Demo_Suites_V2.0.0/GD32F30x_Firmware_Library/GD32F30x_standard_peripheral/Source\gd32f30x_fmc.c ****     /* return the FMC state */
 216:C:/Users/49542/Desktop/GD32F30x_Demo_Suites_V2.0.0/GD32F30x_Demo_Suites_V2.0.0/GD32F30x_Firmware_Library/GD32F30x_standard_peripheral/Source\gd32f30x_fmc.c ****     return fmc_state;
 588              		.loc 1 216 0
 589 0108 FB7B     		ldrb	r3, [r7, #15]	@ zero_extendqisi2
 217:C:/Users/49542/Desktop/GD32F30x_Demo_Suites_V2.0.0/GD32F30x_Demo_Suites_V2.0.0/GD32F30x_Firmware_Library/GD32F30x_standard_peripheral/Source\gd32f30x_fmc.c **** }
 590              		.loc 1 217 0
 591 010a 1846     		mov	r0, r3
 592 010c 1037     		adds	r7, r7, #16
 593              	.LCFI33:
 594              		.cfi_def_cfa_offset 8
 595 010e BD46     		mov	sp, r7
 596              	.LCFI34:
ARM GAS  C:\Users\49542\AppData\Local\Temp\ccEPk6Rd.s 			page 15


 597              		.cfi_def_cfa_register 13
 598              		@ sp needed
 599 0110 80BD     		pop	{r7, pc}
 600              	.L40:
 601 0112 00BF     		.align	2
 602              	.L39:
 603 0114 E0F7FF1F 		.word	536868832
 604 0118 FEFF0708 		.word	134742014
 605 011c 10200240 		.word	1073881104
 606 0120 14200240 		.word	1073881108
 607 0124 50200240 		.word	1073881168
 608 0128 54200240 		.word	1073881172
 609 012c 1C200240 		.word	1073881116
 610              		.cfi_endproc
 611              	.LFE123:
 613              		.section	.text.fmc_mass_erase,"ax",%progbits
 614              		.align	1
 615              		.global	fmc_mass_erase
 616              		.syntax unified
 617              		.thumb
 618              		.thumb_func
 619              		.fpu fpv4-sp-d16
 621              	fmc_mass_erase:
 622              	.LFB124:
 218:C:/Users/49542/Desktop/GD32F30x_Demo_Suites_V2.0.0/GD32F30x_Demo_Suites_V2.0.0/GD32F30x_Firmware_Library/GD32F30x_standard_peripheral/Source\gd32f30x_fmc.c **** 
 219:C:/Users/49542/Desktop/GD32F30x_Demo_Suites_V2.0.0/GD32F30x_Demo_Suites_V2.0.0/GD32F30x_Firmware_Library/GD32F30x_standard_peripheral/Source\gd32f30x_fmc.c **** /*!
 220:C:/Users/49542/Desktop/GD32F30x_Demo_Suites_V2.0.0/GD32F30x_Demo_Suites_V2.0.0/GD32F30x_Firmware_Library/GD32F30x_standard_peripheral/Source\gd32f30x_fmc.c ****     \brief      erase whole chip
 221:C:/Users/49542/Desktop/GD32F30x_Demo_Suites_V2.0.0/GD32F30x_Demo_Suites_V2.0.0/GD32F30x_Firmware_Library/GD32F30x_standard_peripheral/Source\gd32f30x_fmc.c ****     \param[in]  none
 222:C:/Users/49542/Desktop/GD32F30x_Demo_Suites_V2.0.0/GD32F30x_Demo_Suites_V2.0.0/GD32F30x_Firmware_Library/GD32F30x_standard_peripheral/Source\gd32f30x_fmc.c ****     \param[out] none
 223:C:/Users/49542/Desktop/GD32F30x_Demo_Suites_V2.0.0/GD32F30x_Demo_Suites_V2.0.0/GD32F30x_Firmware_Library/GD32F30x_standard_peripheral/Source\gd32f30x_fmc.c ****     \retval     state of FMC, refer to fmc_state_enum
 224:C:/Users/49542/Desktop/GD32F30x_Demo_Suites_V2.0.0/GD32F30x_Demo_Suites_V2.0.0/GD32F30x_Firmware_Library/GD32F30x_standard_peripheral/Source\gd32f30x_fmc.c **** */
 225:C:/Users/49542/Desktop/GD32F30x_Demo_Suites_V2.0.0/GD32F30x_Demo_Suites_V2.0.0/GD32F30x_Firmware_Library/GD32F30x_standard_peripheral/Source\gd32f30x_fmc.c **** fmc_state_enum fmc_mass_erase(void)
 226:C:/Users/49542/Desktop/GD32F30x_Demo_Suites_V2.0.0/GD32F30x_Demo_Suites_V2.0.0/GD32F30x_Firmware_Library/GD32F30x_standard_peripheral/Source\gd32f30x_fmc.c **** {
 623              		.loc 1 226 0
 624              		.cfi_startproc
 625              		@ args = 0, pretend = 0, frame = 8
 626              		@ frame_needed = 1, uses_anonymous_args = 0
 627 0000 80B5     		push	{r7, lr}
 628              	.LCFI35:
 629              		.cfi_def_cfa_offset 8
 630              		.cfi_offset 7, -8
 631              		.cfi_offset 14, -4
 632 0002 82B0     		sub	sp, sp, #8
 633              	.LCFI36:
 634              		.cfi_def_cfa_offset 16
 635 0004 00AF     		add	r7, sp, #0
 636              	.LCFI37:
 637              		.cfi_def_cfa_register 7
 227:C:/Users/49542/Desktop/GD32F30x_Demo_Suites_V2.0.0/GD32F30x_Demo_Suites_V2.0.0/GD32F30x_Firmware_Library/GD32F30x_standard_peripheral/Source\gd32f30x_fmc.c ****     fmc_state_enum fmc_state;
 228:C:/Users/49542/Desktop/GD32F30x_Demo_Suites_V2.0.0/GD32F30x_Demo_Suites_V2.0.0/GD32F30x_Firmware_Library/GD32F30x_standard_peripheral/Source\gd32f30x_fmc.c ****     if(FMC_BANK0_SIZE < FMC_SIZE){
 638              		.loc 1 228 0
 639 0006 374B     		ldr	r3, .L47
 640 0008 1B88     		ldrh	r3, [r3]
 641 000a B3F5007F 		cmp	r3, #512
 642 000e 42D9     		bls	.L42
 229:C:/Users/49542/Desktop/GD32F30x_Demo_Suites_V2.0.0/GD32F30x_Demo_Suites_V2.0.0/GD32F30x_Firmware_Library/GD32F30x_standard_peripheral/Source\gd32f30x_fmc.c ****         /* wait for the FMC ready */
 230:C:/Users/49542/Desktop/GD32F30x_Demo_Suites_V2.0.0/GD32F30x_Demo_Suites_V2.0.0/GD32F30x_Firmware_Library/GD32F30x_standard_peripheral/Source\gd32f30x_fmc.c ****         fmc_state = fmc_bank0_ready_wait(FMC_TIMEOUT_COUNT);
ARM GAS  C:\Users\49542\AppData\Local\Temp\ccEPk6Rd.s 			page 16


 643              		.loc 1 230 0
 644 0010 4FF47020 		mov	r0, #983040
 645 0014 FFF7FEFF 		bl	fmc_bank0_ready_wait
 646 0018 0346     		mov	r3, r0
 647 001a FB71     		strb	r3, [r7, #7]
 231:C:/Users/49542/Desktop/GD32F30x_Demo_Suites_V2.0.0/GD32F30x_Demo_Suites_V2.0.0/GD32F30x_Firmware_Library/GD32F30x_standard_peripheral/Source\gd32f30x_fmc.c ****         if(FMC_READY == fmc_state){
 648              		.loc 1 231 0
 649 001c FB79     		ldrb	r3, [r7, #7]	@ zero_extendqisi2
 650 001e 002B     		cmp	r3, #0
 651 0020 17D1     		bne	.L43
 232:C:/Users/49542/Desktop/GD32F30x_Demo_Suites_V2.0.0/GD32F30x_Demo_Suites_V2.0.0/GD32F30x_Firmware_Library/GD32F30x_standard_peripheral/Source\gd32f30x_fmc.c ****             /* start whole chip erase */
 233:C:/Users/49542/Desktop/GD32F30x_Demo_Suites_V2.0.0/GD32F30x_Demo_Suites_V2.0.0/GD32F30x_Firmware_Library/GD32F30x_standard_peripheral/Source\gd32f30x_fmc.c ****             FMC_CTL0 |= FMC_CTL0_MER;
 652              		.loc 1 233 0
 653 0022 314B     		ldr	r3, .L47+4
 654 0024 1B68     		ldr	r3, [r3]
 655 0026 304A     		ldr	r2, .L47+4
 656 0028 43F00403 		orr	r3, r3, #4
 657 002c 1360     		str	r3, [r2]
 234:C:/Users/49542/Desktop/GD32F30x_Demo_Suites_V2.0.0/GD32F30x_Demo_Suites_V2.0.0/GD32F30x_Firmware_Library/GD32F30x_standard_peripheral/Source\gd32f30x_fmc.c ****             FMC_CTL0 |= FMC_CTL0_START;
 658              		.loc 1 234 0
 659 002e 2E4B     		ldr	r3, .L47+4
 660 0030 1B68     		ldr	r3, [r3]
 661 0032 2D4A     		ldr	r2, .L47+4
 662 0034 43F04003 		orr	r3, r3, #64
 663 0038 1360     		str	r3, [r2]
 235:C:/Users/49542/Desktop/GD32F30x_Demo_Suites_V2.0.0/GD32F30x_Demo_Suites_V2.0.0/GD32F30x_Firmware_Library/GD32F30x_standard_peripheral/Source\gd32f30x_fmc.c ****             /* wait for the FMC ready */
 236:C:/Users/49542/Desktop/GD32F30x_Demo_Suites_V2.0.0/GD32F30x_Demo_Suites_V2.0.0/GD32F30x_Firmware_Library/GD32F30x_standard_peripheral/Source\gd32f30x_fmc.c ****             fmc_state = fmc_bank0_ready_wait(FMC_TIMEOUT_COUNT);
 664              		.loc 1 236 0
 665 003a 4FF47020 		mov	r0, #983040
 666 003e FFF7FEFF 		bl	fmc_bank0_ready_wait
 667 0042 0346     		mov	r3, r0
 668 0044 FB71     		strb	r3, [r7, #7]
 237:C:/Users/49542/Desktop/GD32F30x_Demo_Suites_V2.0.0/GD32F30x_Demo_Suites_V2.0.0/GD32F30x_Firmware_Library/GD32F30x_standard_peripheral/Source\gd32f30x_fmc.c ****             /* reset the MER bit */
 238:C:/Users/49542/Desktop/GD32F30x_Demo_Suites_V2.0.0/GD32F30x_Demo_Suites_V2.0.0/GD32F30x_Firmware_Library/GD32F30x_standard_peripheral/Source\gd32f30x_fmc.c ****             FMC_CTL0 &= ~FMC_CTL0_MER;
 669              		.loc 1 238 0
 670 0046 284B     		ldr	r3, .L47+4
 671 0048 1B68     		ldr	r3, [r3]
 672 004a 274A     		ldr	r2, .L47+4
 673 004c 23F00403 		bic	r3, r3, #4
 674 0050 1360     		str	r3, [r2]
 675              	.L43:
 239:C:/Users/49542/Desktop/GD32F30x_Demo_Suites_V2.0.0/GD32F30x_Demo_Suites_V2.0.0/GD32F30x_Firmware_Library/GD32F30x_standard_peripheral/Source\gd32f30x_fmc.c ****         }
 240:C:/Users/49542/Desktop/GD32F30x_Demo_Suites_V2.0.0/GD32F30x_Demo_Suites_V2.0.0/GD32F30x_Firmware_Library/GD32F30x_standard_peripheral/Source\gd32f30x_fmc.c ****         fmc_state = fmc_bank1_ready_wait(FMC_TIMEOUT_COUNT);
 676              		.loc 1 240 0
 677 0052 4FF47020 		mov	r0, #983040
 678 0056 FFF7FEFF 		bl	fmc_bank1_ready_wait
 679 005a 0346     		mov	r3, r0
 680 005c FB71     		strb	r3, [r7, #7]
 241:C:/Users/49542/Desktop/GD32F30x_Demo_Suites_V2.0.0/GD32F30x_Demo_Suites_V2.0.0/GD32F30x_Firmware_Library/GD32F30x_standard_peripheral/Source\gd32f30x_fmc.c ****         if(FMC_READY == fmc_state){
 681              		.loc 1 241 0
 682 005e FB79     		ldrb	r3, [r7, #7]	@ zero_extendqisi2
 683 0060 002B     		cmp	r3, #0
 684 0062 39D1     		bne	.L45
 242:C:/Users/49542/Desktop/GD32F30x_Demo_Suites_V2.0.0/GD32F30x_Demo_Suites_V2.0.0/GD32F30x_Firmware_Library/GD32F30x_standard_peripheral/Source\gd32f30x_fmc.c ****             /* start whole chip erase */
 243:C:/Users/49542/Desktop/GD32F30x_Demo_Suites_V2.0.0/GD32F30x_Demo_Suites_V2.0.0/GD32F30x_Firmware_Library/GD32F30x_standard_peripheral/Source\gd32f30x_fmc.c ****             FMC_CTL1 |= FMC_CTL1_MER;
 685              		.loc 1 243 0
 686 0064 214B     		ldr	r3, .L47+8
ARM GAS  C:\Users\49542\AppData\Local\Temp\ccEPk6Rd.s 			page 17


 687 0066 1B68     		ldr	r3, [r3]
 688 0068 204A     		ldr	r2, .L47+8
 689 006a 43F00403 		orr	r3, r3, #4
 690 006e 1360     		str	r3, [r2]
 244:C:/Users/49542/Desktop/GD32F30x_Demo_Suites_V2.0.0/GD32F30x_Demo_Suites_V2.0.0/GD32F30x_Firmware_Library/GD32F30x_standard_peripheral/Source\gd32f30x_fmc.c ****             FMC_CTL1 |= FMC_CTL1_START;
 691              		.loc 1 244 0
 692 0070 1E4B     		ldr	r3, .L47+8
 693 0072 1B68     		ldr	r3, [r3]
 694 0074 1D4A     		ldr	r2, .L47+8
 695 0076 43F04003 		orr	r3, r3, #64
 696 007a 1360     		str	r3, [r2]
 245:C:/Users/49542/Desktop/GD32F30x_Demo_Suites_V2.0.0/GD32F30x_Demo_Suites_V2.0.0/GD32F30x_Firmware_Library/GD32F30x_standard_peripheral/Source\gd32f30x_fmc.c ****             /* wait for the FMC ready */
 246:C:/Users/49542/Desktop/GD32F30x_Demo_Suites_V2.0.0/GD32F30x_Demo_Suites_V2.0.0/GD32F30x_Firmware_Library/GD32F30x_standard_peripheral/Source\gd32f30x_fmc.c ****             fmc_state = fmc_bank1_ready_wait(FMC_TIMEOUT_COUNT);
 697              		.loc 1 246 0
 698 007c 4FF47020 		mov	r0, #983040
 699 0080 FFF7FEFF 		bl	fmc_bank1_ready_wait
 700 0084 0346     		mov	r3, r0
 701 0086 FB71     		strb	r3, [r7, #7]
 247:C:/Users/49542/Desktop/GD32F30x_Demo_Suites_V2.0.0/GD32F30x_Demo_Suites_V2.0.0/GD32F30x_Firmware_Library/GD32F30x_standard_peripheral/Source\gd32f30x_fmc.c ****             /* reset the MER bit */
 248:C:/Users/49542/Desktop/GD32F30x_Demo_Suites_V2.0.0/GD32F30x_Demo_Suites_V2.0.0/GD32F30x_Firmware_Library/GD32F30x_standard_peripheral/Source\gd32f30x_fmc.c ****             FMC_CTL1 &= ~FMC_CTL1_MER;
 702              		.loc 1 248 0
 703 0088 184B     		ldr	r3, .L47+8
 704 008a 1B68     		ldr	r3, [r3]
 705 008c 174A     		ldr	r2, .L47+8
 706 008e 23F00403 		bic	r3, r3, #4
 707 0092 1360     		str	r3, [r2]
 708 0094 20E0     		b	.L45
 709              	.L42:
 249:C:/Users/49542/Desktop/GD32F30x_Demo_Suites_V2.0.0/GD32F30x_Demo_Suites_V2.0.0/GD32F30x_Firmware_Library/GD32F30x_standard_peripheral/Source\gd32f30x_fmc.c ****         }
 250:C:/Users/49542/Desktop/GD32F30x_Demo_Suites_V2.0.0/GD32F30x_Demo_Suites_V2.0.0/GD32F30x_Firmware_Library/GD32F30x_standard_peripheral/Source\gd32f30x_fmc.c ****     }else{
 251:C:/Users/49542/Desktop/GD32F30x_Demo_Suites_V2.0.0/GD32F30x_Demo_Suites_V2.0.0/GD32F30x_Firmware_Library/GD32F30x_standard_peripheral/Source\gd32f30x_fmc.c ****         fmc_state = fmc_bank0_ready_wait(FMC_TIMEOUT_COUNT);
 710              		.loc 1 251 0
 711 0096 4FF47020 		mov	r0, #983040
 712 009a FFF7FEFF 		bl	fmc_bank0_ready_wait
 713 009e 0346     		mov	r3, r0
 714 00a0 FB71     		strb	r3, [r7, #7]
 252:C:/Users/49542/Desktop/GD32F30x_Demo_Suites_V2.0.0/GD32F30x_Demo_Suites_V2.0.0/GD32F30x_Firmware_Library/GD32F30x_standard_peripheral/Source\gd32f30x_fmc.c ****   
 253:C:/Users/49542/Desktop/GD32F30x_Demo_Suites_V2.0.0/GD32F30x_Demo_Suites_V2.0.0/GD32F30x_Firmware_Library/GD32F30x_standard_peripheral/Source\gd32f30x_fmc.c ****         if(FMC_READY == fmc_state){
 715              		.loc 1 253 0
 716 00a2 FB79     		ldrb	r3, [r7, #7]	@ zero_extendqisi2
 717 00a4 002B     		cmp	r3, #0
 718 00a6 17D1     		bne	.L45
 254:C:/Users/49542/Desktop/GD32F30x_Demo_Suites_V2.0.0/GD32F30x_Demo_Suites_V2.0.0/GD32F30x_Firmware_Library/GD32F30x_standard_peripheral/Source\gd32f30x_fmc.c ****             /* start whole chip erase */
 255:C:/Users/49542/Desktop/GD32F30x_Demo_Suites_V2.0.0/GD32F30x_Demo_Suites_V2.0.0/GD32F30x_Firmware_Library/GD32F30x_standard_peripheral/Source\gd32f30x_fmc.c ****             FMC_CTL0 |= FMC_CTL0_MER;
 719              		.loc 1 255 0
 720 00a8 0F4B     		ldr	r3, .L47+4
 721 00aa 1B68     		ldr	r3, [r3]
 722 00ac 0E4A     		ldr	r2, .L47+4
 723 00ae 43F00403 		orr	r3, r3, #4
 724 00b2 1360     		str	r3, [r2]
 256:C:/Users/49542/Desktop/GD32F30x_Demo_Suites_V2.0.0/GD32F30x_Demo_Suites_V2.0.0/GD32F30x_Firmware_Library/GD32F30x_standard_peripheral/Source\gd32f30x_fmc.c ****             FMC_CTL0 |= FMC_CTL0_START;    
 725              		.loc 1 256 0
 726 00b4 0C4B     		ldr	r3, .L47+4
 727 00b6 1B68     		ldr	r3, [r3]
 728 00b8 0B4A     		ldr	r2, .L47+4
 729 00ba 43F04003 		orr	r3, r3, #64
 730 00be 1360     		str	r3, [r2]
ARM GAS  C:\Users\49542\AppData\Local\Temp\ccEPk6Rd.s 			page 18


 257:C:/Users/49542/Desktop/GD32F30x_Demo_Suites_V2.0.0/GD32F30x_Demo_Suites_V2.0.0/GD32F30x_Firmware_Library/GD32F30x_standard_peripheral/Source\gd32f30x_fmc.c ****             /* wait for the FMC ready */
 258:C:/Users/49542/Desktop/GD32F30x_Demo_Suites_V2.0.0/GD32F30x_Demo_Suites_V2.0.0/GD32F30x_Firmware_Library/GD32F30x_standard_peripheral/Source\gd32f30x_fmc.c ****             fmc_state = fmc_bank0_ready_wait(FMC_TIMEOUT_COUNT);
 731              		.loc 1 258 0
 732 00c0 4FF47020 		mov	r0, #983040
 733 00c4 FFF7FEFF 		bl	fmc_bank0_ready_wait
 734 00c8 0346     		mov	r3, r0
 735 00ca FB71     		strb	r3, [r7, #7]
 259:C:/Users/49542/Desktop/GD32F30x_Demo_Suites_V2.0.0/GD32F30x_Demo_Suites_V2.0.0/GD32F30x_Firmware_Library/GD32F30x_standard_peripheral/Source\gd32f30x_fmc.c ****             /* reset the MER bit */
 260:C:/Users/49542/Desktop/GD32F30x_Demo_Suites_V2.0.0/GD32F30x_Demo_Suites_V2.0.0/GD32F30x_Firmware_Library/GD32F30x_standard_peripheral/Source\gd32f30x_fmc.c ****             FMC_CTL0 &= ~FMC_CTL0_MER;
 736              		.loc 1 260 0
 737 00cc 064B     		ldr	r3, .L47+4
 738 00ce 1B68     		ldr	r3, [r3]
 739 00d0 054A     		ldr	r2, .L47+4
 740 00d2 23F00403 		bic	r3, r3, #4
 741 00d6 1360     		str	r3, [r2]
 742              	.L45:
 261:C:/Users/49542/Desktop/GD32F30x_Demo_Suites_V2.0.0/GD32F30x_Demo_Suites_V2.0.0/GD32F30x_Firmware_Library/GD32F30x_standard_peripheral/Source\gd32f30x_fmc.c ****         }
 262:C:/Users/49542/Desktop/GD32F30x_Demo_Suites_V2.0.0/GD32F30x_Demo_Suites_V2.0.0/GD32F30x_Firmware_Library/GD32F30x_standard_peripheral/Source\gd32f30x_fmc.c ****     }
 263:C:/Users/49542/Desktop/GD32F30x_Demo_Suites_V2.0.0/GD32F30x_Demo_Suites_V2.0.0/GD32F30x_Firmware_Library/GD32F30x_standard_peripheral/Source\gd32f30x_fmc.c ****     /* return the FMC state  */
 264:C:/Users/49542/Desktop/GD32F30x_Demo_Suites_V2.0.0/GD32F30x_Demo_Suites_V2.0.0/GD32F30x_Firmware_Library/GD32F30x_standard_peripheral/Source\gd32f30x_fmc.c ****     return fmc_state;
 743              		.loc 1 264 0
 744 00d8 FB79     		ldrb	r3, [r7, #7]	@ zero_extendqisi2
 265:C:/Users/49542/Desktop/GD32F30x_Demo_Suites_V2.0.0/GD32F30x_Demo_Suites_V2.0.0/GD32F30x_Firmware_Library/GD32F30x_standard_peripheral/Source\gd32f30x_fmc.c **** }
 745              		.loc 1 265 0
 746 00da 1846     		mov	r0, r3
 747 00dc 0837     		adds	r7, r7, #8
 748              	.LCFI38:
 749              		.cfi_def_cfa_offset 8
 750 00de BD46     		mov	sp, r7
 751              	.LCFI39:
 752              		.cfi_def_cfa_register 13
 753              		@ sp needed
 754 00e0 80BD     		pop	{r7, pc}
 755              	.L48:
 756 00e2 00BF     		.align	2
 757              	.L47:
 758 00e4 E0F7FF1F 		.word	536868832
 759 00e8 10200240 		.word	1073881104
 760 00ec 50200240 		.word	1073881168
 761              		.cfi_endproc
 762              	.LFE124:
 764              		.section	.text.fmc_bank0_erase,"ax",%progbits
 765              		.align	1
 766              		.global	fmc_bank0_erase
 767              		.syntax unified
 768              		.thumb
 769              		.thumb_func
 770              		.fpu fpv4-sp-d16
 772              	fmc_bank0_erase:
 773              	.LFB125:
 266:C:/Users/49542/Desktop/GD32F30x_Demo_Suites_V2.0.0/GD32F30x_Demo_Suites_V2.0.0/GD32F30x_Firmware_Library/GD32F30x_standard_peripheral/Source\gd32f30x_fmc.c **** 
 267:C:/Users/49542/Desktop/GD32F30x_Demo_Suites_V2.0.0/GD32F30x_Demo_Suites_V2.0.0/GD32F30x_Firmware_Library/GD32F30x_standard_peripheral/Source\gd32f30x_fmc.c **** /*!
 268:C:/Users/49542/Desktop/GD32F30x_Demo_Suites_V2.0.0/GD32F30x_Demo_Suites_V2.0.0/GD32F30x_Firmware_Library/GD32F30x_standard_peripheral/Source\gd32f30x_fmc.c ****     \brief      erase bank0
 269:C:/Users/49542/Desktop/GD32F30x_Demo_Suites_V2.0.0/GD32F30x_Demo_Suites_V2.0.0/GD32F30x_Firmware_Library/GD32F30x_standard_peripheral/Source\gd32f30x_fmc.c ****     \param[in]  none
 270:C:/Users/49542/Desktop/GD32F30x_Demo_Suites_V2.0.0/GD32F30x_Demo_Suites_V2.0.0/GD32F30x_Firmware_Library/GD32F30x_standard_peripheral/Source\gd32f30x_fmc.c ****     \param[out] none
 271:C:/Users/49542/Desktop/GD32F30x_Demo_Suites_V2.0.0/GD32F30x_Demo_Suites_V2.0.0/GD32F30x_Firmware_Library/GD32F30x_standard_peripheral/Source\gd32f30x_fmc.c ****     \retval     state of FMC, refer to fmc_state_enum
 272:C:/Users/49542/Desktop/GD32F30x_Demo_Suites_V2.0.0/GD32F30x_Demo_Suites_V2.0.0/GD32F30x_Firmware_Library/GD32F30x_standard_peripheral/Source\gd32f30x_fmc.c **** */
ARM GAS  C:\Users\49542\AppData\Local\Temp\ccEPk6Rd.s 			page 19


 273:C:/Users/49542/Desktop/GD32F30x_Demo_Suites_V2.0.0/GD32F30x_Demo_Suites_V2.0.0/GD32F30x_Firmware_Library/GD32F30x_standard_peripheral/Source\gd32f30x_fmc.c **** fmc_state_enum fmc_bank0_erase(void)
 274:C:/Users/49542/Desktop/GD32F30x_Demo_Suites_V2.0.0/GD32F30x_Demo_Suites_V2.0.0/GD32F30x_Firmware_Library/GD32F30x_standard_peripheral/Source\gd32f30x_fmc.c **** {
 774              		.loc 1 274 0
 775              		.cfi_startproc
 776              		@ args = 0, pretend = 0, frame = 8
 777              		@ frame_needed = 1, uses_anonymous_args = 0
 778 0000 80B5     		push	{r7, lr}
 779              	.LCFI40:
 780              		.cfi_def_cfa_offset 8
 781              		.cfi_offset 7, -8
 782              		.cfi_offset 14, -4
 783 0002 82B0     		sub	sp, sp, #8
 784              	.LCFI41:
 785              		.cfi_def_cfa_offset 16
 786 0004 00AF     		add	r7, sp, #0
 787              	.LCFI42:
 788              		.cfi_def_cfa_register 7
 275:C:/Users/49542/Desktop/GD32F30x_Demo_Suites_V2.0.0/GD32F30x_Demo_Suites_V2.0.0/GD32F30x_Firmware_Library/GD32F30x_standard_peripheral/Source\gd32f30x_fmc.c ****     fmc_state_enum fmc_state = FMC_READY;
 789              		.loc 1 275 0
 790 0006 0023     		movs	r3, #0
 791 0008 FB71     		strb	r3, [r7, #7]
 276:C:/Users/49542/Desktop/GD32F30x_Demo_Suites_V2.0.0/GD32F30x_Demo_Suites_V2.0.0/GD32F30x_Firmware_Library/GD32F30x_standard_peripheral/Source\gd32f30x_fmc.c ****     /* wait for the FMC ready */
 277:C:/Users/49542/Desktop/GD32F30x_Demo_Suites_V2.0.0/GD32F30x_Demo_Suites_V2.0.0/GD32F30x_Firmware_Library/GD32F30x_standard_peripheral/Source\gd32f30x_fmc.c ****     fmc_state = fmc_bank0_ready_wait(FMC_TIMEOUT_COUNT);
 792              		.loc 1 277 0
 793 000a 4FF47020 		mov	r0, #983040
 794 000e FFF7FEFF 		bl	fmc_bank0_ready_wait
 795 0012 0346     		mov	r3, r0
 796 0014 FB71     		strb	r3, [r7, #7]
 278:C:/Users/49542/Desktop/GD32F30x_Demo_Suites_V2.0.0/GD32F30x_Demo_Suites_V2.0.0/GD32F30x_Firmware_Library/GD32F30x_standard_peripheral/Source\gd32f30x_fmc.c **** 
 279:C:/Users/49542/Desktop/GD32F30x_Demo_Suites_V2.0.0/GD32F30x_Demo_Suites_V2.0.0/GD32F30x_Firmware_Library/GD32F30x_standard_peripheral/Source\gd32f30x_fmc.c ****     if(FMC_READY == fmc_state){
 797              		.loc 1 279 0
 798 0016 FB79     		ldrb	r3, [r7, #7]	@ zero_extendqisi2
 799 0018 002B     		cmp	r3, #0
 800 001a 17D1     		bne	.L50
 280:C:/Users/49542/Desktop/GD32F30x_Demo_Suites_V2.0.0/GD32F30x_Demo_Suites_V2.0.0/GD32F30x_Firmware_Library/GD32F30x_standard_peripheral/Source\gd32f30x_fmc.c ****         /* start FMC bank0 erase */
 281:C:/Users/49542/Desktop/GD32F30x_Demo_Suites_V2.0.0/GD32F30x_Demo_Suites_V2.0.0/GD32F30x_Firmware_Library/GD32F30x_standard_peripheral/Source\gd32f30x_fmc.c ****         FMC_CTL0 |= FMC_CTL0_MER;
 801              		.loc 1 281 0
 802 001c 0E4B     		ldr	r3, .L52
 803 001e 1B68     		ldr	r3, [r3]
 804 0020 0D4A     		ldr	r2, .L52
 805 0022 43F00403 		orr	r3, r3, #4
 806 0026 1360     		str	r3, [r2]
 282:C:/Users/49542/Desktop/GD32F30x_Demo_Suites_V2.0.0/GD32F30x_Demo_Suites_V2.0.0/GD32F30x_Firmware_Library/GD32F30x_standard_peripheral/Source\gd32f30x_fmc.c ****         FMC_CTL0 |= FMC_CTL0_START;
 807              		.loc 1 282 0
 808 0028 0B4B     		ldr	r3, .L52
 809 002a 1B68     		ldr	r3, [r3]
 810 002c 0A4A     		ldr	r2, .L52
 811 002e 43F04003 		orr	r3, r3, #64
 812 0032 1360     		str	r3, [r2]
 283:C:/Users/49542/Desktop/GD32F30x_Demo_Suites_V2.0.0/GD32F30x_Demo_Suites_V2.0.0/GD32F30x_Firmware_Library/GD32F30x_standard_peripheral/Source\gd32f30x_fmc.c ****         /* wait for the FMC ready */
 284:C:/Users/49542/Desktop/GD32F30x_Demo_Suites_V2.0.0/GD32F30x_Demo_Suites_V2.0.0/GD32F30x_Firmware_Library/GD32F30x_standard_peripheral/Source\gd32f30x_fmc.c ****         fmc_state = fmc_bank0_ready_wait(FMC_TIMEOUT_COUNT);
 813              		.loc 1 284 0
 814 0034 4FF47020 		mov	r0, #983040
 815 0038 FFF7FEFF 		bl	fmc_bank0_ready_wait
 816 003c 0346     		mov	r3, r0
 817 003e FB71     		strb	r3, [r7, #7]
 285:C:/Users/49542/Desktop/GD32F30x_Demo_Suites_V2.0.0/GD32F30x_Demo_Suites_V2.0.0/GD32F30x_Firmware_Library/GD32F30x_standard_peripheral/Source\gd32f30x_fmc.c ****         /* reset the MER bit */
ARM GAS  C:\Users\49542\AppData\Local\Temp\ccEPk6Rd.s 			page 20


 286:C:/Users/49542/Desktop/GD32F30x_Demo_Suites_V2.0.0/GD32F30x_Demo_Suites_V2.0.0/GD32F30x_Firmware_Library/GD32F30x_standard_peripheral/Source\gd32f30x_fmc.c ****         FMC_CTL0 &= ~FMC_CTL0_MER;
 818              		.loc 1 286 0
 819 0040 054B     		ldr	r3, .L52
 820 0042 1B68     		ldr	r3, [r3]
 821 0044 044A     		ldr	r2, .L52
 822 0046 23F00403 		bic	r3, r3, #4
 823 004a 1360     		str	r3, [r2]
 824              	.L50:
 287:C:/Users/49542/Desktop/GD32F30x_Demo_Suites_V2.0.0/GD32F30x_Demo_Suites_V2.0.0/GD32F30x_Firmware_Library/GD32F30x_standard_peripheral/Source\gd32f30x_fmc.c ****     }
 288:C:/Users/49542/Desktop/GD32F30x_Demo_Suites_V2.0.0/GD32F30x_Demo_Suites_V2.0.0/GD32F30x_Firmware_Library/GD32F30x_standard_peripheral/Source\gd32f30x_fmc.c ****     /* return the fmc state */
 289:C:/Users/49542/Desktop/GD32F30x_Demo_Suites_V2.0.0/GD32F30x_Demo_Suites_V2.0.0/GD32F30x_Firmware_Library/GD32F30x_standard_peripheral/Source\gd32f30x_fmc.c ****     return fmc_state;
 825              		.loc 1 289 0
 826 004c FB79     		ldrb	r3, [r7, #7]	@ zero_extendqisi2
 290:C:/Users/49542/Desktop/GD32F30x_Demo_Suites_V2.0.0/GD32F30x_Demo_Suites_V2.0.0/GD32F30x_Firmware_Library/GD32F30x_standard_peripheral/Source\gd32f30x_fmc.c **** }
 827              		.loc 1 290 0
 828 004e 1846     		mov	r0, r3
 829 0050 0837     		adds	r7, r7, #8
 830              	.LCFI43:
 831              		.cfi_def_cfa_offset 8
 832 0052 BD46     		mov	sp, r7
 833              	.LCFI44:
 834              		.cfi_def_cfa_register 13
 835              		@ sp needed
 836 0054 80BD     		pop	{r7, pc}
 837              	.L53:
 838 0056 00BF     		.align	2
 839              	.L52:
 840 0058 10200240 		.word	1073881104
 841              		.cfi_endproc
 842              	.LFE125:
 844              		.section	.text.fmc_bank1_erase,"ax",%progbits
 845              		.align	1
 846              		.global	fmc_bank1_erase
 847              		.syntax unified
 848              		.thumb
 849              		.thumb_func
 850              		.fpu fpv4-sp-d16
 852              	fmc_bank1_erase:
 853              	.LFB126:
 291:C:/Users/49542/Desktop/GD32F30x_Demo_Suites_V2.0.0/GD32F30x_Demo_Suites_V2.0.0/GD32F30x_Firmware_Library/GD32F30x_standard_peripheral/Source\gd32f30x_fmc.c **** 
 292:C:/Users/49542/Desktop/GD32F30x_Demo_Suites_V2.0.0/GD32F30x_Demo_Suites_V2.0.0/GD32F30x_Firmware_Library/GD32F30x_standard_peripheral/Source\gd32f30x_fmc.c **** /*!
 293:C:/Users/49542/Desktop/GD32F30x_Demo_Suites_V2.0.0/GD32F30x_Demo_Suites_V2.0.0/GD32F30x_Firmware_Library/GD32F30x_standard_peripheral/Source\gd32f30x_fmc.c ****     \brief      erase bank1
 294:C:/Users/49542/Desktop/GD32F30x_Demo_Suites_V2.0.0/GD32F30x_Demo_Suites_V2.0.0/GD32F30x_Firmware_Library/GD32F30x_standard_peripheral/Source\gd32f30x_fmc.c ****     \param[in]  none
 295:C:/Users/49542/Desktop/GD32F30x_Demo_Suites_V2.0.0/GD32F30x_Demo_Suites_V2.0.0/GD32F30x_Firmware_Library/GD32F30x_standard_peripheral/Source\gd32f30x_fmc.c ****     \param[out] none
 296:C:/Users/49542/Desktop/GD32F30x_Demo_Suites_V2.0.0/GD32F30x_Demo_Suites_V2.0.0/GD32F30x_Firmware_Library/GD32F30x_standard_peripheral/Source\gd32f30x_fmc.c ****     \retval     state of FMC, refer to fmc_state_enum
 297:C:/Users/49542/Desktop/GD32F30x_Demo_Suites_V2.0.0/GD32F30x_Demo_Suites_V2.0.0/GD32F30x_Firmware_Library/GD32F30x_standard_peripheral/Source\gd32f30x_fmc.c **** */
 298:C:/Users/49542/Desktop/GD32F30x_Demo_Suites_V2.0.0/GD32F30x_Demo_Suites_V2.0.0/GD32F30x_Firmware_Library/GD32F30x_standard_peripheral/Source\gd32f30x_fmc.c **** fmc_state_enum fmc_bank1_erase(void)
 299:C:/Users/49542/Desktop/GD32F30x_Demo_Suites_V2.0.0/GD32F30x_Demo_Suites_V2.0.0/GD32F30x_Firmware_Library/GD32F30x_standard_peripheral/Source\gd32f30x_fmc.c **** {
 854              		.loc 1 299 0
 855              		.cfi_startproc
 856              		@ args = 0, pretend = 0, frame = 8
 857              		@ frame_needed = 1, uses_anonymous_args = 0
 858 0000 80B5     		push	{r7, lr}
 859              	.LCFI45:
 860              		.cfi_def_cfa_offset 8
 861              		.cfi_offset 7, -8
 862              		.cfi_offset 14, -4
ARM GAS  C:\Users\49542\AppData\Local\Temp\ccEPk6Rd.s 			page 21


 863 0002 82B0     		sub	sp, sp, #8
 864              	.LCFI46:
 865              		.cfi_def_cfa_offset 16
 866 0004 00AF     		add	r7, sp, #0
 867              	.LCFI47:
 868              		.cfi_def_cfa_register 7
 300:C:/Users/49542/Desktop/GD32F30x_Demo_Suites_V2.0.0/GD32F30x_Demo_Suites_V2.0.0/GD32F30x_Firmware_Library/GD32F30x_standard_peripheral/Source\gd32f30x_fmc.c ****     fmc_state_enum fmc_state = FMC_READY;
 869              		.loc 1 300 0
 870 0006 0023     		movs	r3, #0
 871 0008 FB71     		strb	r3, [r7, #7]
 301:C:/Users/49542/Desktop/GD32F30x_Demo_Suites_V2.0.0/GD32F30x_Demo_Suites_V2.0.0/GD32F30x_Firmware_Library/GD32F30x_standard_peripheral/Source\gd32f30x_fmc.c ****     /* wait for the FMC ready */
 302:C:/Users/49542/Desktop/GD32F30x_Demo_Suites_V2.0.0/GD32F30x_Demo_Suites_V2.0.0/GD32F30x_Firmware_Library/GD32F30x_standard_peripheral/Source\gd32f30x_fmc.c ****     fmc_state = fmc_bank1_ready_wait(FMC_TIMEOUT_COUNT);
 872              		.loc 1 302 0
 873 000a 4FF47020 		mov	r0, #983040
 874 000e FFF7FEFF 		bl	fmc_bank1_ready_wait
 875 0012 0346     		mov	r3, r0
 876 0014 FB71     		strb	r3, [r7, #7]
 303:C:/Users/49542/Desktop/GD32F30x_Demo_Suites_V2.0.0/GD32F30x_Demo_Suites_V2.0.0/GD32F30x_Firmware_Library/GD32F30x_standard_peripheral/Source\gd32f30x_fmc.c ****   
 304:C:/Users/49542/Desktop/GD32F30x_Demo_Suites_V2.0.0/GD32F30x_Demo_Suites_V2.0.0/GD32F30x_Firmware_Library/GD32F30x_standard_peripheral/Source\gd32f30x_fmc.c ****    if(FMC_READY == fmc_state){
 877              		.loc 1 304 0
 878 0016 FB79     		ldrb	r3, [r7, #7]	@ zero_extendqisi2
 879 0018 002B     		cmp	r3, #0
 880 001a 17D1     		bne	.L55
 305:C:/Users/49542/Desktop/GD32F30x_Demo_Suites_V2.0.0/GD32F30x_Demo_Suites_V2.0.0/GD32F30x_Firmware_Library/GD32F30x_standard_peripheral/Source\gd32f30x_fmc.c ****         /* start FMC bank1 erase */
 306:C:/Users/49542/Desktop/GD32F30x_Demo_Suites_V2.0.0/GD32F30x_Demo_Suites_V2.0.0/GD32F30x_Firmware_Library/GD32F30x_standard_peripheral/Source\gd32f30x_fmc.c ****         FMC_CTL1 |= FMC_CTL1_MER;
 881              		.loc 1 306 0
 882 001c 0E4B     		ldr	r3, .L57
 883 001e 1B68     		ldr	r3, [r3]
 884 0020 0D4A     		ldr	r2, .L57
 885 0022 43F00403 		orr	r3, r3, #4
 886 0026 1360     		str	r3, [r2]
 307:C:/Users/49542/Desktop/GD32F30x_Demo_Suites_V2.0.0/GD32F30x_Demo_Suites_V2.0.0/GD32F30x_Firmware_Library/GD32F30x_standard_peripheral/Source\gd32f30x_fmc.c ****         FMC_CTL1 |= FMC_CTL1_START;
 887              		.loc 1 307 0
 888 0028 0B4B     		ldr	r3, .L57
 889 002a 1B68     		ldr	r3, [r3]
 890 002c 0A4A     		ldr	r2, .L57
 891 002e 43F04003 		orr	r3, r3, #64
 892 0032 1360     		str	r3, [r2]
 308:C:/Users/49542/Desktop/GD32F30x_Demo_Suites_V2.0.0/GD32F30x_Demo_Suites_V2.0.0/GD32F30x_Firmware_Library/GD32F30x_standard_peripheral/Source\gd32f30x_fmc.c ****         /* wait for the FMC ready */
 309:C:/Users/49542/Desktop/GD32F30x_Demo_Suites_V2.0.0/GD32F30x_Demo_Suites_V2.0.0/GD32F30x_Firmware_Library/GD32F30x_standard_peripheral/Source\gd32f30x_fmc.c ****         fmc_state = fmc_bank1_ready_wait(FMC_TIMEOUT_COUNT);
 893              		.loc 1 309 0
 894 0034 4FF47020 		mov	r0, #983040
 895 0038 FFF7FEFF 		bl	fmc_bank1_ready_wait
 896 003c 0346     		mov	r3, r0
 897 003e FB71     		strb	r3, [r7, #7]
 310:C:/Users/49542/Desktop/GD32F30x_Demo_Suites_V2.0.0/GD32F30x_Demo_Suites_V2.0.0/GD32F30x_Firmware_Library/GD32F30x_standard_peripheral/Source\gd32f30x_fmc.c ****         /* reset the MER bit */
 311:C:/Users/49542/Desktop/GD32F30x_Demo_Suites_V2.0.0/GD32F30x_Demo_Suites_V2.0.0/GD32F30x_Firmware_Library/GD32F30x_standard_peripheral/Source\gd32f30x_fmc.c ****         FMC_CTL1 &= ~FMC_CTL1_MER;
 898              		.loc 1 311 0
 899 0040 054B     		ldr	r3, .L57
 900 0042 1B68     		ldr	r3, [r3]
 901 0044 044A     		ldr	r2, .L57
 902 0046 23F00403 		bic	r3, r3, #4
 903 004a 1360     		str	r3, [r2]
 904              	.L55:
 312:C:/Users/49542/Desktop/GD32F30x_Demo_Suites_V2.0.0/GD32F30x_Demo_Suites_V2.0.0/GD32F30x_Firmware_Library/GD32F30x_standard_peripheral/Source\gd32f30x_fmc.c ****     }
 313:C:/Users/49542/Desktop/GD32F30x_Demo_Suites_V2.0.0/GD32F30x_Demo_Suites_V2.0.0/GD32F30x_Firmware_Library/GD32F30x_standard_peripheral/Source\gd32f30x_fmc.c ****     /* return the fmc state */
 314:C:/Users/49542/Desktop/GD32F30x_Demo_Suites_V2.0.0/GD32F30x_Demo_Suites_V2.0.0/GD32F30x_Firmware_Library/GD32F30x_standard_peripheral/Source\gd32f30x_fmc.c ****     return fmc_state;
ARM GAS  C:\Users\49542\AppData\Local\Temp\ccEPk6Rd.s 			page 22


 905              		.loc 1 314 0
 906 004c FB79     		ldrb	r3, [r7, #7]	@ zero_extendqisi2
 315:C:/Users/49542/Desktop/GD32F30x_Demo_Suites_V2.0.0/GD32F30x_Demo_Suites_V2.0.0/GD32F30x_Firmware_Library/GD32F30x_standard_peripheral/Source\gd32f30x_fmc.c **** }
 907              		.loc 1 315 0
 908 004e 1846     		mov	r0, r3
 909 0050 0837     		adds	r7, r7, #8
 910              	.LCFI48:
 911              		.cfi_def_cfa_offset 8
 912 0052 BD46     		mov	sp, r7
 913              	.LCFI49:
 914              		.cfi_def_cfa_register 13
 915              		@ sp needed
 916 0054 80BD     		pop	{r7, pc}
 917              	.L58:
 918 0056 00BF     		.align	2
 919              	.L57:
 920 0058 50200240 		.word	1073881168
 921              		.cfi_endproc
 922              	.LFE126:
 924              		.section	.text.fmc_word_program,"ax",%progbits
 925              		.align	1
 926              		.global	fmc_word_program
 927              		.syntax unified
 928              		.thumb
 929              		.thumb_func
 930              		.fpu fpv4-sp-d16
 932              	fmc_word_program:
 933              	.LFB127:
 316:C:/Users/49542/Desktop/GD32F30x_Demo_Suites_V2.0.0/GD32F30x_Demo_Suites_V2.0.0/GD32F30x_Firmware_Library/GD32F30x_standard_peripheral/Source\gd32f30x_fmc.c **** 
 317:C:/Users/49542/Desktop/GD32F30x_Demo_Suites_V2.0.0/GD32F30x_Demo_Suites_V2.0.0/GD32F30x_Firmware_Library/GD32F30x_standard_peripheral/Source\gd32f30x_fmc.c **** /*!
 318:C:/Users/49542/Desktop/GD32F30x_Demo_Suites_V2.0.0/GD32F30x_Demo_Suites_V2.0.0/GD32F30x_Firmware_Library/GD32F30x_standard_peripheral/Source\gd32f30x_fmc.c ****     \brief      program a word at the corresponding address
 319:C:/Users/49542/Desktop/GD32F30x_Demo_Suites_V2.0.0/GD32F30x_Demo_Suites_V2.0.0/GD32F30x_Firmware_Library/GD32F30x_standard_peripheral/Source\gd32f30x_fmc.c ****     \param[in]  address: address to program
 320:C:/Users/49542/Desktop/GD32F30x_Demo_Suites_V2.0.0/GD32F30x_Demo_Suites_V2.0.0/GD32F30x_Firmware_Library/GD32F30x_standard_peripheral/Source\gd32f30x_fmc.c ****     \param[in]  data: word to program
 321:C:/Users/49542/Desktop/GD32F30x_Demo_Suites_V2.0.0/GD32F30x_Demo_Suites_V2.0.0/GD32F30x_Firmware_Library/GD32F30x_standard_peripheral/Source\gd32f30x_fmc.c ****     \param[out] none
 322:C:/Users/49542/Desktop/GD32F30x_Demo_Suites_V2.0.0/GD32F30x_Demo_Suites_V2.0.0/GD32F30x_Firmware_Library/GD32F30x_standard_peripheral/Source\gd32f30x_fmc.c ****     \retval     state of FMC, refer to fmc_state_enum
 323:C:/Users/49542/Desktop/GD32F30x_Demo_Suites_V2.0.0/GD32F30x_Demo_Suites_V2.0.0/GD32F30x_Firmware_Library/GD32F30x_standard_peripheral/Source\gd32f30x_fmc.c **** */
 324:C:/Users/49542/Desktop/GD32F30x_Demo_Suites_V2.0.0/GD32F30x_Demo_Suites_V2.0.0/GD32F30x_Firmware_Library/GD32F30x_standard_peripheral/Source\gd32f30x_fmc.c **** fmc_state_enum fmc_word_program(uint32_t address, uint32_t data)
 325:C:/Users/49542/Desktop/GD32F30x_Demo_Suites_V2.0.0/GD32F30x_Demo_Suites_V2.0.0/GD32F30x_Firmware_Library/GD32F30x_standard_peripheral/Source\gd32f30x_fmc.c **** {
 934              		.loc 1 325 0
 935              		.cfi_startproc
 936              		@ args = 0, pretend = 0, frame = 16
 937              		@ frame_needed = 1, uses_anonymous_args = 0
 938 0000 80B5     		push	{r7, lr}
 939              	.LCFI50:
 940              		.cfi_def_cfa_offset 8
 941              		.cfi_offset 7, -8
 942              		.cfi_offset 14, -4
 943 0002 84B0     		sub	sp, sp, #16
 944              	.LCFI51:
 945              		.cfi_def_cfa_offset 24
 946 0004 00AF     		add	r7, sp, #0
 947              	.LCFI52:
 948              		.cfi_def_cfa_register 7
 949 0006 7860     		str	r0, [r7, #4]
 950 0008 3960     		str	r1, [r7]
 326:C:/Users/49542/Desktop/GD32F30x_Demo_Suites_V2.0.0/GD32F30x_Demo_Suites_V2.0.0/GD32F30x_Firmware_Library/GD32F30x_standard_peripheral/Source\gd32f30x_fmc.c ****     fmc_state_enum fmc_state = FMC_READY;
 951              		.loc 1 326 0
ARM GAS  C:\Users\49542\AppData\Local\Temp\ccEPk6Rd.s 			page 23


 952 000a 0023     		movs	r3, #0
 953 000c FB73     		strb	r3, [r7, #15]
 327:C:/Users/49542/Desktop/GD32F30x_Demo_Suites_V2.0.0/GD32F30x_Demo_Suites_V2.0.0/GD32F30x_Firmware_Library/GD32F30x_standard_peripheral/Source\gd32f30x_fmc.c ****     if(FMC_BANK0_SIZE < FMC_SIZE){
 954              		.loc 1 327 0
 955 000e 354B     		ldr	r3, .L66
 956 0010 1B88     		ldrh	r3, [r3]
 957 0012 B3F5007F 		cmp	r3, #512
 958 0016 41D9     		bls	.L60
 328:C:/Users/49542/Desktop/GD32F30x_Demo_Suites_V2.0.0/GD32F30x_Demo_Suites_V2.0.0/GD32F30x_Firmware_Library/GD32F30x_standard_peripheral/Source\gd32f30x_fmc.c ****         if(FMC_BANK0_END_ADDRESS > address){
 959              		.loc 1 328 0
 960 0018 7B68     		ldr	r3, [r7, #4]
 961 001a 334A     		ldr	r2, .L66+4
 962 001c 9342     		cmp	r3, r2
 963 001e 1ED8     		bhi	.L61
 329:C:/Users/49542/Desktop/GD32F30x_Demo_Suites_V2.0.0/GD32F30x_Demo_Suites_V2.0.0/GD32F30x_Firmware_Library/GD32F30x_standard_peripheral/Source\gd32f30x_fmc.c ****             fmc_state = fmc_bank0_ready_wait(FMC_TIMEOUT_COUNT); 
 964              		.loc 1 329 0
 965 0020 4FF47020 		mov	r0, #983040
 966 0024 FFF7FEFF 		bl	fmc_bank0_ready_wait
 967 0028 0346     		mov	r3, r0
 968 002a FB73     		strb	r3, [r7, #15]
 330:C:/Users/49542/Desktop/GD32F30x_Demo_Suites_V2.0.0/GD32F30x_Demo_Suites_V2.0.0/GD32F30x_Firmware_Library/GD32F30x_standard_peripheral/Source\gd32f30x_fmc.c ****   
 331:C:/Users/49542/Desktop/GD32F30x_Demo_Suites_V2.0.0/GD32F30x_Demo_Suites_V2.0.0/GD32F30x_Firmware_Library/GD32F30x_standard_peripheral/Source\gd32f30x_fmc.c ****             if(FMC_READY == fmc_state){
 969              		.loc 1 331 0
 970 002c FB7B     		ldrb	r3, [r7, #15]	@ zero_extendqisi2
 971 002e 002B     		cmp	r3, #0
 972 0030 52D1     		bne	.L64
 332:C:/Users/49542/Desktop/GD32F30x_Demo_Suites_V2.0.0/GD32F30x_Demo_Suites_V2.0.0/GD32F30x_Firmware_Library/GD32F30x_standard_peripheral/Source\gd32f30x_fmc.c ****                 /* set the PG bit to start program */
 333:C:/Users/49542/Desktop/GD32F30x_Demo_Suites_V2.0.0/GD32F30x_Demo_Suites_V2.0.0/GD32F30x_Firmware_Library/GD32F30x_standard_peripheral/Source\gd32f30x_fmc.c ****                 FMC_CTL0 |= FMC_CTL0_PG;
 973              		.loc 1 333 0
 974 0032 2E4B     		ldr	r3, .L66+8
 975 0034 1B68     		ldr	r3, [r3]
 976 0036 2D4A     		ldr	r2, .L66+8
 977 0038 43F00103 		orr	r3, r3, #1
 978 003c 1360     		str	r3, [r2]
 334:C:/Users/49542/Desktop/GD32F30x_Demo_Suites_V2.0.0/GD32F30x_Demo_Suites_V2.0.0/GD32F30x_Firmware_Library/GD32F30x_standard_peripheral/Source\gd32f30x_fmc.c ****                 REG32(address) = data;
 979              		.loc 1 334 0
 980 003e 7B68     		ldr	r3, [r7, #4]
 981 0040 3A68     		ldr	r2, [r7]
 982 0042 1A60     		str	r2, [r3]
 335:C:/Users/49542/Desktop/GD32F30x_Demo_Suites_V2.0.0/GD32F30x_Demo_Suites_V2.0.0/GD32F30x_Firmware_Library/GD32F30x_standard_peripheral/Source\gd32f30x_fmc.c ****                 /* wait for the FMC ready */
 336:C:/Users/49542/Desktop/GD32F30x_Demo_Suites_V2.0.0/GD32F30x_Demo_Suites_V2.0.0/GD32F30x_Firmware_Library/GD32F30x_standard_peripheral/Source\gd32f30x_fmc.c ****                 fmc_state = fmc_bank0_ready_wait(FMC_TIMEOUT_COUNT);
 983              		.loc 1 336 0
 984 0044 4FF47020 		mov	r0, #983040
 985 0048 FFF7FEFF 		bl	fmc_bank0_ready_wait
 986 004c 0346     		mov	r3, r0
 987 004e FB73     		strb	r3, [r7, #15]
 337:C:/Users/49542/Desktop/GD32F30x_Demo_Suites_V2.0.0/GD32F30x_Demo_Suites_V2.0.0/GD32F30x_Firmware_Library/GD32F30x_standard_peripheral/Source\gd32f30x_fmc.c ****                 /* reset the PG bit */
 338:C:/Users/49542/Desktop/GD32F30x_Demo_Suites_V2.0.0/GD32F30x_Demo_Suites_V2.0.0/GD32F30x_Firmware_Library/GD32F30x_standard_peripheral/Source\gd32f30x_fmc.c ****                 FMC_CTL0 &= ~FMC_CTL0_PG;
 988              		.loc 1 338 0
 989 0050 264B     		ldr	r3, .L66+8
 990 0052 1B68     		ldr	r3, [r3]
 991 0054 254A     		ldr	r2, .L66+8
 992 0056 23F00103 		bic	r3, r3, #1
 993 005a 1360     		str	r3, [r2]
 994 005c 3CE0     		b	.L64
 995              	.L61:
 339:C:/Users/49542/Desktop/GD32F30x_Demo_Suites_V2.0.0/GD32F30x_Demo_Suites_V2.0.0/GD32F30x_Firmware_Library/GD32F30x_standard_peripheral/Source\gd32f30x_fmc.c ****             }
ARM GAS  C:\Users\49542\AppData\Local\Temp\ccEPk6Rd.s 			page 24


 340:C:/Users/49542/Desktop/GD32F30x_Demo_Suites_V2.0.0/GD32F30x_Demo_Suites_V2.0.0/GD32F30x_Firmware_Library/GD32F30x_standard_peripheral/Source\gd32f30x_fmc.c ****         }else{
 341:C:/Users/49542/Desktop/GD32F30x_Demo_Suites_V2.0.0/GD32F30x_Demo_Suites_V2.0.0/GD32F30x_Firmware_Library/GD32F30x_standard_peripheral/Source\gd32f30x_fmc.c ****             fmc_state = fmc_bank1_ready_wait(FMC_TIMEOUT_COUNT); 
 996              		.loc 1 341 0
 997 005e 4FF47020 		mov	r0, #983040
 998 0062 FFF7FEFF 		bl	fmc_bank1_ready_wait
 999 0066 0346     		mov	r3, r0
 1000 0068 FB73     		strb	r3, [r7, #15]
 342:C:/Users/49542/Desktop/GD32F30x_Demo_Suites_V2.0.0/GD32F30x_Demo_Suites_V2.0.0/GD32F30x_Firmware_Library/GD32F30x_standard_peripheral/Source\gd32f30x_fmc.c ****   
 343:C:/Users/49542/Desktop/GD32F30x_Demo_Suites_V2.0.0/GD32F30x_Demo_Suites_V2.0.0/GD32F30x_Firmware_Library/GD32F30x_standard_peripheral/Source\gd32f30x_fmc.c ****             if(FMC_READY == fmc_state){
 1001              		.loc 1 343 0
 1002 006a FB7B     		ldrb	r3, [r7, #15]	@ zero_extendqisi2
 1003 006c 002B     		cmp	r3, #0
 1004 006e 33D1     		bne	.L64
 344:C:/Users/49542/Desktop/GD32F30x_Demo_Suites_V2.0.0/GD32F30x_Demo_Suites_V2.0.0/GD32F30x_Firmware_Library/GD32F30x_standard_peripheral/Source\gd32f30x_fmc.c ****                 /* set the PG bit to start program */
 345:C:/Users/49542/Desktop/GD32F30x_Demo_Suites_V2.0.0/GD32F30x_Demo_Suites_V2.0.0/GD32F30x_Firmware_Library/GD32F30x_standard_peripheral/Source\gd32f30x_fmc.c ****                 FMC_CTL1 |= FMC_CTL1_PG;
 1005              		.loc 1 345 0
 1006 0070 1F4B     		ldr	r3, .L66+12
 1007 0072 1B68     		ldr	r3, [r3]
 1008 0074 1E4A     		ldr	r2, .L66+12
 1009 0076 43F00103 		orr	r3, r3, #1
 1010 007a 1360     		str	r3, [r2]
 346:C:/Users/49542/Desktop/GD32F30x_Demo_Suites_V2.0.0/GD32F30x_Demo_Suites_V2.0.0/GD32F30x_Firmware_Library/GD32F30x_standard_peripheral/Source\gd32f30x_fmc.c ****                 REG32(address) = data;
 1011              		.loc 1 346 0
 1012 007c 7B68     		ldr	r3, [r7, #4]
 1013 007e 3A68     		ldr	r2, [r7]
 1014 0080 1A60     		str	r2, [r3]
 347:C:/Users/49542/Desktop/GD32F30x_Demo_Suites_V2.0.0/GD32F30x_Demo_Suites_V2.0.0/GD32F30x_Firmware_Library/GD32F30x_standard_peripheral/Source\gd32f30x_fmc.c ****                 /* wait for the FMC ready */
 348:C:/Users/49542/Desktop/GD32F30x_Demo_Suites_V2.0.0/GD32F30x_Demo_Suites_V2.0.0/GD32F30x_Firmware_Library/GD32F30x_standard_peripheral/Source\gd32f30x_fmc.c ****                 fmc_state = fmc_bank1_ready_wait(FMC_TIMEOUT_COUNT);
 1015              		.loc 1 348 0
 1016 0082 4FF47020 		mov	r0, #983040
 1017 0086 FFF7FEFF 		bl	fmc_bank1_ready_wait
 1018 008a 0346     		mov	r3, r0
 1019 008c FB73     		strb	r3, [r7, #15]
 349:C:/Users/49542/Desktop/GD32F30x_Demo_Suites_V2.0.0/GD32F30x_Demo_Suites_V2.0.0/GD32F30x_Firmware_Library/GD32F30x_standard_peripheral/Source\gd32f30x_fmc.c ****                 /* reset the PG bit */
 350:C:/Users/49542/Desktop/GD32F30x_Demo_Suites_V2.0.0/GD32F30x_Demo_Suites_V2.0.0/GD32F30x_Firmware_Library/GD32F30x_standard_peripheral/Source\gd32f30x_fmc.c ****                 FMC_CTL1 &= ~FMC_CTL1_PG;
 1020              		.loc 1 350 0
 1021 008e 184B     		ldr	r3, .L66+12
 1022 0090 1B68     		ldr	r3, [r3]
 1023 0092 174A     		ldr	r2, .L66+12
 1024 0094 23F00103 		bic	r3, r3, #1
 1025 0098 1360     		str	r3, [r2]
 1026 009a 1DE0     		b	.L64
 1027              	.L60:
 351:C:/Users/49542/Desktop/GD32F30x_Demo_Suites_V2.0.0/GD32F30x_Demo_Suites_V2.0.0/GD32F30x_Firmware_Library/GD32F30x_standard_peripheral/Source\gd32f30x_fmc.c ****             }
 352:C:/Users/49542/Desktop/GD32F30x_Demo_Suites_V2.0.0/GD32F30x_Demo_Suites_V2.0.0/GD32F30x_Firmware_Library/GD32F30x_standard_peripheral/Source\gd32f30x_fmc.c ****         }
 353:C:/Users/49542/Desktop/GD32F30x_Demo_Suites_V2.0.0/GD32F30x_Demo_Suites_V2.0.0/GD32F30x_Firmware_Library/GD32F30x_standard_peripheral/Source\gd32f30x_fmc.c ****     }else{
 354:C:/Users/49542/Desktop/GD32F30x_Demo_Suites_V2.0.0/GD32F30x_Demo_Suites_V2.0.0/GD32F30x_Firmware_Library/GD32F30x_standard_peripheral/Source\gd32f30x_fmc.c ****         fmc_state = fmc_bank0_ready_wait(FMC_TIMEOUT_COUNT);
 1028              		.loc 1 354 0
 1029 009c 4FF47020 		mov	r0, #983040
 1030 00a0 FFF7FEFF 		bl	fmc_bank0_ready_wait
 1031 00a4 0346     		mov	r3, r0
 1032 00a6 FB73     		strb	r3, [r7, #15]
 355:C:/Users/49542/Desktop/GD32F30x_Demo_Suites_V2.0.0/GD32F30x_Demo_Suites_V2.0.0/GD32F30x_Firmware_Library/GD32F30x_standard_peripheral/Source\gd32f30x_fmc.c ****   
 356:C:/Users/49542/Desktop/GD32F30x_Demo_Suites_V2.0.0/GD32F30x_Demo_Suites_V2.0.0/GD32F30x_Firmware_Library/GD32F30x_standard_peripheral/Source\gd32f30x_fmc.c ****         if(FMC_READY == fmc_state){
 1033              		.loc 1 356 0
 1034 00a8 FB7B     		ldrb	r3, [r7, #15]	@ zero_extendqisi2
 1035 00aa 002B     		cmp	r3, #0
ARM GAS  C:\Users\49542\AppData\Local\Temp\ccEPk6Rd.s 			page 25


 1036 00ac 14D1     		bne	.L64
 357:C:/Users/49542/Desktop/GD32F30x_Demo_Suites_V2.0.0/GD32F30x_Demo_Suites_V2.0.0/GD32F30x_Firmware_Library/GD32F30x_standard_peripheral/Source\gd32f30x_fmc.c ****             /* set the PG bit to start program */
 358:C:/Users/49542/Desktop/GD32F30x_Demo_Suites_V2.0.0/GD32F30x_Demo_Suites_V2.0.0/GD32F30x_Firmware_Library/GD32F30x_standard_peripheral/Source\gd32f30x_fmc.c ****             FMC_CTL0 |= FMC_CTL0_PG;
 1037              		.loc 1 358 0
 1038 00ae 0F4B     		ldr	r3, .L66+8
 1039 00b0 1B68     		ldr	r3, [r3]
 1040 00b2 0E4A     		ldr	r2, .L66+8
 1041 00b4 43F00103 		orr	r3, r3, #1
 1042 00b8 1360     		str	r3, [r2]
 359:C:/Users/49542/Desktop/GD32F30x_Demo_Suites_V2.0.0/GD32F30x_Demo_Suites_V2.0.0/GD32F30x_Firmware_Library/GD32F30x_standard_peripheral/Source\gd32f30x_fmc.c ****             REG32(address) = data;
 1043              		.loc 1 359 0
 1044 00ba 7B68     		ldr	r3, [r7, #4]
 1045 00bc 3A68     		ldr	r2, [r7]
 1046 00be 1A60     		str	r2, [r3]
 360:C:/Users/49542/Desktop/GD32F30x_Demo_Suites_V2.0.0/GD32F30x_Demo_Suites_V2.0.0/GD32F30x_Firmware_Library/GD32F30x_standard_peripheral/Source\gd32f30x_fmc.c ****             /* wait for the FMC ready */
 361:C:/Users/49542/Desktop/GD32F30x_Demo_Suites_V2.0.0/GD32F30x_Demo_Suites_V2.0.0/GD32F30x_Firmware_Library/GD32F30x_standard_peripheral/Source\gd32f30x_fmc.c ****             fmc_state = fmc_bank0_ready_wait(FMC_TIMEOUT_COUNT);
 1047              		.loc 1 361 0
 1048 00c0 4FF47020 		mov	r0, #983040
 1049 00c4 FFF7FEFF 		bl	fmc_bank0_ready_wait
 1050 00c8 0346     		mov	r3, r0
 1051 00ca FB73     		strb	r3, [r7, #15]
 362:C:/Users/49542/Desktop/GD32F30x_Demo_Suites_V2.0.0/GD32F30x_Demo_Suites_V2.0.0/GD32F30x_Firmware_Library/GD32F30x_standard_peripheral/Source\gd32f30x_fmc.c ****             /* reset the PG bit */
 363:C:/Users/49542/Desktop/GD32F30x_Demo_Suites_V2.0.0/GD32F30x_Demo_Suites_V2.0.0/GD32F30x_Firmware_Library/GD32F30x_standard_peripheral/Source\gd32f30x_fmc.c ****             FMC_CTL0 &= ~FMC_CTL0_PG;
 1052              		.loc 1 363 0
 1053 00cc 074B     		ldr	r3, .L66+8
 1054 00ce 1B68     		ldr	r3, [r3]
 1055 00d0 064A     		ldr	r2, .L66+8
 1056 00d2 23F00103 		bic	r3, r3, #1
 1057 00d6 1360     		str	r3, [r2]
 1058              	.L64:
 364:C:/Users/49542/Desktop/GD32F30x_Demo_Suites_V2.0.0/GD32F30x_Demo_Suites_V2.0.0/GD32F30x_Firmware_Library/GD32F30x_standard_peripheral/Source\gd32f30x_fmc.c ****         } 
 365:C:/Users/49542/Desktop/GD32F30x_Demo_Suites_V2.0.0/GD32F30x_Demo_Suites_V2.0.0/GD32F30x_Firmware_Library/GD32F30x_standard_peripheral/Source\gd32f30x_fmc.c ****     }
 366:C:/Users/49542/Desktop/GD32F30x_Demo_Suites_V2.0.0/GD32F30x_Demo_Suites_V2.0.0/GD32F30x_Firmware_Library/GD32F30x_standard_peripheral/Source\gd32f30x_fmc.c ****     /* return the FMC state */
 367:C:/Users/49542/Desktop/GD32F30x_Demo_Suites_V2.0.0/GD32F30x_Demo_Suites_V2.0.0/GD32F30x_Firmware_Library/GD32F30x_standard_peripheral/Source\gd32f30x_fmc.c ****     return fmc_state;
 1059              		.loc 1 367 0
 1060 00d8 FB7B     		ldrb	r3, [r7, #15]	@ zero_extendqisi2
 368:C:/Users/49542/Desktop/GD32F30x_Demo_Suites_V2.0.0/GD32F30x_Demo_Suites_V2.0.0/GD32F30x_Firmware_Library/GD32F30x_standard_peripheral/Source\gd32f30x_fmc.c **** }
 1061              		.loc 1 368 0
 1062 00da 1846     		mov	r0, r3
 1063 00dc 1037     		adds	r7, r7, #16
 1064              	.LCFI53:
 1065              		.cfi_def_cfa_offset 8
 1066 00de BD46     		mov	sp, r7
 1067              	.LCFI54:
 1068              		.cfi_def_cfa_register 13
 1069              		@ sp needed
 1070 00e0 80BD     		pop	{r7, pc}
 1071              	.L67:
 1072 00e2 00BF     		.align	2
 1073              	.L66:
 1074 00e4 E0F7FF1F 		.word	536868832
 1075 00e8 FEFF0708 		.word	134742014
 1076 00ec 10200240 		.word	1073881104
 1077 00f0 50200240 		.word	1073881168
 1078              		.cfi_endproc
 1079              	.LFE127:
 1081              		.section	.text.fmc_halfword_program,"ax",%progbits
ARM GAS  C:\Users\49542\AppData\Local\Temp\ccEPk6Rd.s 			page 26


 1082              		.align	1
 1083              		.global	fmc_halfword_program
 1084              		.syntax unified
 1085              		.thumb
 1086              		.thumb_func
 1087              		.fpu fpv4-sp-d16
 1089              	fmc_halfword_program:
 1090              	.LFB128:
 369:C:/Users/49542/Desktop/GD32F30x_Demo_Suites_V2.0.0/GD32F30x_Demo_Suites_V2.0.0/GD32F30x_Firmware_Library/GD32F30x_standard_peripheral/Source\gd32f30x_fmc.c **** 
 370:C:/Users/49542/Desktop/GD32F30x_Demo_Suites_V2.0.0/GD32F30x_Demo_Suites_V2.0.0/GD32F30x_Firmware_Library/GD32F30x_standard_peripheral/Source\gd32f30x_fmc.c **** /*!
 371:C:/Users/49542/Desktop/GD32F30x_Demo_Suites_V2.0.0/GD32F30x_Demo_Suites_V2.0.0/GD32F30x_Firmware_Library/GD32F30x_standard_peripheral/Source\gd32f30x_fmc.c ****     \brief      program a half word at the corresponding address
 372:C:/Users/49542/Desktop/GD32F30x_Demo_Suites_V2.0.0/GD32F30x_Demo_Suites_V2.0.0/GD32F30x_Firmware_Library/GD32F30x_standard_peripheral/Source\gd32f30x_fmc.c ****     \param[in]  address: address to program
 373:C:/Users/49542/Desktop/GD32F30x_Demo_Suites_V2.0.0/GD32F30x_Demo_Suites_V2.0.0/GD32F30x_Firmware_Library/GD32F30x_standard_peripheral/Source\gd32f30x_fmc.c ****     \param[in]  data: halfword to program
 374:C:/Users/49542/Desktop/GD32F30x_Demo_Suites_V2.0.0/GD32F30x_Demo_Suites_V2.0.0/GD32F30x_Firmware_Library/GD32F30x_standard_peripheral/Source\gd32f30x_fmc.c ****     \param[out] none
 375:C:/Users/49542/Desktop/GD32F30x_Demo_Suites_V2.0.0/GD32F30x_Demo_Suites_V2.0.0/GD32F30x_Firmware_Library/GD32F30x_standard_peripheral/Source\gd32f30x_fmc.c ****     \retval     state of FMC, refer to fmc_state_enum
 376:C:/Users/49542/Desktop/GD32F30x_Demo_Suites_V2.0.0/GD32F30x_Demo_Suites_V2.0.0/GD32F30x_Firmware_Library/GD32F30x_standard_peripheral/Source\gd32f30x_fmc.c **** */
 377:C:/Users/49542/Desktop/GD32F30x_Demo_Suites_V2.0.0/GD32F30x_Demo_Suites_V2.0.0/GD32F30x_Firmware_Library/GD32F30x_standard_peripheral/Source\gd32f30x_fmc.c **** fmc_state_enum fmc_halfword_program(uint32_t address, uint16_t data)
 378:C:/Users/49542/Desktop/GD32F30x_Demo_Suites_V2.0.0/GD32F30x_Demo_Suites_V2.0.0/GD32F30x_Firmware_Library/GD32F30x_standard_peripheral/Source\gd32f30x_fmc.c **** {
 1091              		.loc 1 378 0
 1092              		.cfi_startproc
 1093              		@ args = 0, pretend = 0, frame = 16
 1094              		@ frame_needed = 1, uses_anonymous_args = 0
 1095 0000 80B5     		push	{r7, lr}
 1096              	.LCFI55:
 1097              		.cfi_def_cfa_offset 8
 1098              		.cfi_offset 7, -8
 1099              		.cfi_offset 14, -4
 1100 0002 84B0     		sub	sp, sp, #16
 1101              	.LCFI56:
 1102              		.cfi_def_cfa_offset 24
 1103 0004 00AF     		add	r7, sp, #0
 1104              	.LCFI57:
 1105              		.cfi_def_cfa_register 7
 1106 0006 7860     		str	r0, [r7, #4]
 1107 0008 0B46     		mov	r3, r1
 1108 000a 7B80     		strh	r3, [r7, #2]	@ movhi
 379:C:/Users/49542/Desktop/GD32F30x_Demo_Suites_V2.0.0/GD32F30x_Demo_Suites_V2.0.0/GD32F30x_Firmware_Library/GD32F30x_standard_peripheral/Source\gd32f30x_fmc.c ****     fmc_state_enum fmc_state = FMC_READY;
 1109              		.loc 1 379 0
 1110 000c 0023     		movs	r3, #0
 1111 000e FB73     		strb	r3, [r7, #15]
 380:C:/Users/49542/Desktop/GD32F30x_Demo_Suites_V2.0.0/GD32F30x_Demo_Suites_V2.0.0/GD32F30x_Firmware_Library/GD32F30x_standard_peripheral/Source\gd32f30x_fmc.c ****     if(FMC_BANK0_SIZE < FMC_SIZE){
 1112              		.loc 1 380 0
 1113 0010 344B     		ldr	r3, .L75
 1114 0012 1B88     		ldrh	r3, [r3]
 1115 0014 B3F5007F 		cmp	r3, #512
 1116 0018 41D9     		bls	.L69
 381:C:/Users/49542/Desktop/GD32F30x_Demo_Suites_V2.0.0/GD32F30x_Demo_Suites_V2.0.0/GD32F30x_Firmware_Library/GD32F30x_standard_peripheral/Source\gd32f30x_fmc.c ****         if(FMC_BANK0_END_ADDRESS > address){
 1117              		.loc 1 381 0
 1118 001a 7B68     		ldr	r3, [r7, #4]
 1119 001c 324A     		ldr	r2, .L75+4
 1120 001e 9342     		cmp	r3, r2
 1121 0020 1ED8     		bhi	.L70
 382:C:/Users/49542/Desktop/GD32F30x_Demo_Suites_V2.0.0/GD32F30x_Demo_Suites_V2.0.0/GD32F30x_Firmware_Library/GD32F30x_standard_peripheral/Source\gd32f30x_fmc.c ****             fmc_state = fmc_bank0_ready_wait(FMC_TIMEOUT_COUNT); 
 1122              		.loc 1 382 0
 1123 0022 4FF47020 		mov	r0, #983040
 1124 0026 FFF7FEFF 		bl	fmc_bank0_ready_wait
 1125 002a 0346     		mov	r3, r0
ARM GAS  C:\Users\49542\AppData\Local\Temp\ccEPk6Rd.s 			page 27


 1126 002c FB73     		strb	r3, [r7, #15]
 383:C:/Users/49542/Desktop/GD32F30x_Demo_Suites_V2.0.0/GD32F30x_Demo_Suites_V2.0.0/GD32F30x_Firmware_Library/GD32F30x_standard_peripheral/Source\gd32f30x_fmc.c ****   
 384:C:/Users/49542/Desktop/GD32F30x_Demo_Suites_V2.0.0/GD32F30x_Demo_Suites_V2.0.0/GD32F30x_Firmware_Library/GD32F30x_standard_peripheral/Source\gd32f30x_fmc.c ****             if(FMC_READY == fmc_state){
 1127              		.loc 1 384 0
 1128 002e FB7B     		ldrb	r3, [r7, #15]	@ zero_extendqisi2
 1129 0030 002B     		cmp	r3, #0
 1130 0032 52D1     		bne	.L73
 385:C:/Users/49542/Desktop/GD32F30x_Demo_Suites_V2.0.0/GD32F30x_Demo_Suites_V2.0.0/GD32F30x_Firmware_Library/GD32F30x_standard_peripheral/Source\gd32f30x_fmc.c ****                 /* set the PG bit to start program */
 386:C:/Users/49542/Desktop/GD32F30x_Demo_Suites_V2.0.0/GD32F30x_Demo_Suites_V2.0.0/GD32F30x_Firmware_Library/GD32F30x_standard_peripheral/Source\gd32f30x_fmc.c ****                 FMC_CTL0 |= FMC_CTL0_PG;
 1131              		.loc 1 386 0
 1132 0034 2D4B     		ldr	r3, .L75+8
 1133 0036 1B68     		ldr	r3, [r3]
 1134 0038 2C4A     		ldr	r2, .L75+8
 1135 003a 43F00103 		orr	r3, r3, #1
 1136 003e 1360     		str	r3, [r2]
 387:C:/Users/49542/Desktop/GD32F30x_Demo_Suites_V2.0.0/GD32F30x_Demo_Suites_V2.0.0/GD32F30x_Firmware_Library/GD32F30x_standard_peripheral/Source\gd32f30x_fmc.c ****                 REG16(address) = data;
 1137              		.loc 1 387 0
 1138 0040 7B68     		ldr	r3, [r7, #4]
 1139 0042 7A88     		ldrh	r2, [r7, #2]	@ movhi
 1140 0044 1A80     		strh	r2, [r3]	@ movhi
 388:C:/Users/49542/Desktop/GD32F30x_Demo_Suites_V2.0.0/GD32F30x_Demo_Suites_V2.0.0/GD32F30x_Firmware_Library/GD32F30x_standard_peripheral/Source\gd32f30x_fmc.c ****                 /* wait for the FMC ready */
 389:C:/Users/49542/Desktop/GD32F30x_Demo_Suites_V2.0.0/GD32F30x_Demo_Suites_V2.0.0/GD32F30x_Firmware_Library/GD32F30x_standard_peripheral/Source\gd32f30x_fmc.c ****                 fmc_state = fmc_bank0_ready_wait(FMC_TIMEOUT_COUNT);
 1141              		.loc 1 389 0
 1142 0046 4FF47020 		mov	r0, #983040
 1143 004a FFF7FEFF 		bl	fmc_bank0_ready_wait
 1144 004e 0346     		mov	r3, r0
 1145 0050 FB73     		strb	r3, [r7, #15]
 390:C:/Users/49542/Desktop/GD32F30x_Demo_Suites_V2.0.0/GD32F30x_Demo_Suites_V2.0.0/GD32F30x_Firmware_Library/GD32F30x_standard_peripheral/Source\gd32f30x_fmc.c ****                 /* reset the PG bit */
 391:C:/Users/49542/Desktop/GD32F30x_Demo_Suites_V2.0.0/GD32F30x_Demo_Suites_V2.0.0/GD32F30x_Firmware_Library/GD32F30x_standard_peripheral/Source\gd32f30x_fmc.c ****                 FMC_CTL0 &= ~FMC_CTL0_PG;
 1146              		.loc 1 391 0
 1147 0052 264B     		ldr	r3, .L75+8
 1148 0054 1B68     		ldr	r3, [r3]
 1149 0056 254A     		ldr	r2, .L75+8
 1150 0058 23F00103 		bic	r3, r3, #1
 1151 005c 1360     		str	r3, [r2]
 1152 005e 3CE0     		b	.L73
 1153              	.L70:
 392:C:/Users/49542/Desktop/GD32F30x_Demo_Suites_V2.0.0/GD32F30x_Demo_Suites_V2.0.0/GD32F30x_Firmware_Library/GD32F30x_standard_peripheral/Source\gd32f30x_fmc.c ****             }
 393:C:/Users/49542/Desktop/GD32F30x_Demo_Suites_V2.0.0/GD32F30x_Demo_Suites_V2.0.0/GD32F30x_Firmware_Library/GD32F30x_standard_peripheral/Source\gd32f30x_fmc.c ****         }else{
 394:C:/Users/49542/Desktop/GD32F30x_Demo_Suites_V2.0.0/GD32F30x_Demo_Suites_V2.0.0/GD32F30x_Firmware_Library/GD32F30x_standard_peripheral/Source\gd32f30x_fmc.c ****             fmc_state = fmc_bank1_ready_wait(FMC_TIMEOUT_COUNT); 
 1154              		.loc 1 394 0
 1155 0060 4FF47020 		mov	r0, #983040
 1156 0064 FFF7FEFF 		bl	fmc_bank1_ready_wait
 1157 0068 0346     		mov	r3, r0
 1158 006a FB73     		strb	r3, [r7, #15]
 395:C:/Users/49542/Desktop/GD32F30x_Demo_Suites_V2.0.0/GD32F30x_Demo_Suites_V2.0.0/GD32F30x_Firmware_Library/GD32F30x_standard_peripheral/Source\gd32f30x_fmc.c ****   
 396:C:/Users/49542/Desktop/GD32F30x_Demo_Suites_V2.0.0/GD32F30x_Demo_Suites_V2.0.0/GD32F30x_Firmware_Library/GD32F30x_standard_peripheral/Source\gd32f30x_fmc.c ****             if(FMC_READY == fmc_state){
 1159              		.loc 1 396 0
 1160 006c FB7B     		ldrb	r3, [r7, #15]	@ zero_extendqisi2
 1161 006e 002B     		cmp	r3, #0
 1162 0070 33D1     		bne	.L73
 397:C:/Users/49542/Desktop/GD32F30x_Demo_Suites_V2.0.0/GD32F30x_Demo_Suites_V2.0.0/GD32F30x_Firmware_Library/GD32F30x_standard_peripheral/Source\gd32f30x_fmc.c ****                 /* set the PG bit to start program */
 398:C:/Users/49542/Desktop/GD32F30x_Demo_Suites_V2.0.0/GD32F30x_Demo_Suites_V2.0.0/GD32F30x_Firmware_Library/GD32F30x_standard_peripheral/Source\gd32f30x_fmc.c ****                 FMC_CTL1 |= FMC_CTL1_PG;
 1163              		.loc 1 398 0
 1164 0072 1F4B     		ldr	r3, .L75+12
 1165 0074 1B68     		ldr	r3, [r3]
 1166 0076 1E4A     		ldr	r2, .L75+12
ARM GAS  C:\Users\49542\AppData\Local\Temp\ccEPk6Rd.s 			page 28


 1167 0078 43F00103 		orr	r3, r3, #1
 1168 007c 1360     		str	r3, [r2]
 399:C:/Users/49542/Desktop/GD32F30x_Demo_Suites_V2.0.0/GD32F30x_Demo_Suites_V2.0.0/GD32F30x_Firmware_Library/GD32F30x_standard_peripheral/Source\gd32f30x_fmc.c ****                 REG16(address) = data;
 1169              		.loc 1 399 0
 1170 007e 7B68     		ldr	r3, [r7, #4]
 1171 0080 7A88     		ldrh	r2, [r7, #2]	@ movhi
 1172 0082 1A80     		strh	r2, [r3]	@ movhi
 400:C:/Users/49542/Desktop/GD32F30x_Demo_Suites_V2.0.0/GD32F30x_Demo_Suites_V2.0.0/GD32F30x_Firmware_Library/GD32F30x_standard_peripheral/Source\gd32f30x_fmc.c ****                 /* wait for the FMC ready */
 401:C:/Users/49542/Desktop/GD32F30x_Demo_Suites_V2.0.0/GD32F30x_Demo_Suites_V2.0.0/GD32F30x_Firmware_Library/GD32F30x_standard_peripheral/Source\gd32f30x_fmc.c ****                 fmc_state = fmc_bank1_ready_wait(FMC_TIMEOUT_COUNT);
 1173              		.loc 1 401 0
 1174 0084 4FF47020 		mov	r0, #983040
 1175 0088 FFF7FEFF 		bl	fmc_bank1_ready_wait
 1176 008c 0346     		mov	r3, r0
 1177 008e FB73     		strb	r3, [r7, #15]
 402:C:/Users/49542/Desktop/GD32F30x_Demo_Suites_V2.0.0/GD32F30x_Demo_Suites_V2.0.0/GD32F30x_Firmware_Library/GD32F30x_standard_peripheral/Source\gd32f30x_fmc.c ****                 /* reset the PG bit */
 403:C:/Users/49542/Desktop/GD32F30x_Demo_Suites_V2.0.0/GD32F30x_Demo_Suites_V2.0.0/GD32F30x_Firmware_Library/GD32F30x_standard_peripheral/Source\gd32f30x_fmc.c ****                 FMC_CTL1 &= ~FMC_CTL1_PG;
 1178              		.loc 1 403 0
 1179 0090 174B     		ldr	r3, .L75+12
 1180 0092 1B68     		ldr	r3, [r3]
 1181 0094 164A     		ldr	r2, .L75+12
 1182 0096 23F00103 		bic	r3, r3, #1
 1183 009a 1360     		str	r3, [r2]
 1184 009c 1DE0     		b	.L73
 1185              	.L69:
 404:C:/Users/49542/Desktop/GD32F30x_Demo_Suites_V2.0.0/GD32F30x_Demo_Suites_V2.0.0/GD32F30x_Firmware_Library/GD32F30x_standard_peripheral/Source\gd32f30x_fmc.c ****             }
 405:C:/Users/49542/Desktop/GD32F30x_Demo_Suites_V2.0.0/GD32F30x_Demo_Suites_V2.0.0/GD32F30x_Firmware_Library/GD32F30x_standard_peripheral/Source\gd32f30x_fmc.c ****         }
 406:C:/Users/49542/Desktop/GD32F30x_Demo_Suites_V2.0.0/GD32F30x_Demo_Suites_V2.0.0/GD32F30x_Firmware_Library/GD32F30x_standard_peripheral/Source\gd32f30x_fmc.c ****     }else{
 407:C:/Users/49542/Desktop/GD32F30x_Demo_Suites_V2.0.0/GD32F30x_Demo_Suites_V2.0.0/GD32F30x_Firmware_Library/GD32F30x_standard_peripheral/Source\gd32f30x_fmc.c ****         fmc_state = fmc_bank0_ready_wait(FMC_TIMEOUT_COUNT);
 1186              		.loc 1 407 0
 1187 009e 4FF47020 		mov	r0, #983040
 1188 00a2 FFF7FEFF 		bl	fmc_bank0_ready_wait
 1189 00a6 0346     		mov	r3, r0
 1190 00a8 FB73     		strb	r3, [r7, #15]
 408:C:/Users/49542/Desktop/GD32F30x_Demo_Suites_V2.0.0/GD32F30x_Demo_Suites_V2.0.0/GD32F30x_Firmware_Library/GD32F30x_standard_peripheral/Source\gd32f30x_fmc.c ****   
 409:C:/Users/49542/Desktop/GD32F30x_Demo_Suites_V2.0.0/GD32F30x_Demo_Suites_V2.0.0/GD32F30x_Firmware_Library/GD32F30x_standard_peripheral/Source\gd32f30x_fmc.c ****         if(FMC_READY == fmc_state){
 1191              		.loc 1 409 0
 1192 00aa FB7B     		ldrb	r3, [r7, #15]	@ zero_extendqisi2
 1193 00ac 002B     		cmp	r3, #0
 1194 00ae 14D1     		bne	.L73
 410:C:/Users/49542/Desktop/GD32F30x_Demo_Suites_V2.0.0/GD32F30x_Demo_Suites_V2.0.0/GD32F30x_Firmware_Library/GD32F30x_standard_peripheral/Source\gd32f30x_fmc.c ****             /* set the PG bit to start program */
 411:C:/Users/49542/Desktop/GD32F30x_Demo_Suites_V2.0.0/GD32F30x_Demo_Suites_V2.0.0/GD32F30x_Firmware_Library/GD32F30x_standard_peripheral/Source\gd32f30x_fmc.c ****             FMC_CTL0 |= FMC_CTL0_PG;
 1195              		.loc 1 411 0
 1196 00b0 0E4B     		ldr	r3, .L75+8
 1197 00b2 1B68     		ldr	r3, [r3]
 1198 00b4 0D4A     		ldr	r2, .L75+8
 1199 00b6 43F00103 		orr	r3, r3, #1
 1200 00ba 1360     		str	r3, [r2]
 412:C:/Users/49542/Desktop/GD32F30x_Demo_Suites_V2.0.0/GD32F30x_Demo_Suites_V2.0.0/GD32F30x_Firmware_Library/GD32F30x_standard_peripheral/Source\gd32f30x_fmc.c ****             REG16(address) = data;
 1201              		.loc 1 412 0
 1202 00bc 7B68     		ldr	r3, [r7, #4]
 1203 00be 7A88     		ldrh	r2, [r7, #2]	@ movhi
 1204 00c0 1A80     		strh	r2, [r3]	@ movhi
 413:C:/Users/49542/Desktop/GD32F30x_Demo_Suites_V2.0.0/GD32F30x_Demo_Suites_V2.0.0/GD32F30x_Firmware_Library/GD32F30x_standard_peripheral/Source\gd32f30x_fmc.c ****             /* wait for the FMC ready */
 414:C:/Users/49542/Desktop/GD32F30x_Demo_Suites_V2.0.0/GD32F30x_Demo_Suites_V2.0.0/GD32F30x_Firmware_Library/GD32F30x_standard_peripheral/Source\gd32f30x_fmc.c ****             fmc_state = fmc_bank0_ready_wait(FMC_TIMEOUT_COUNT);
 1205              		.loc 1 414 0
 1206 00c2 4FF47020 		mov	r0, #983040
 1207 00c6 FFF7FEFF 		bl	fmc_bank0_ready_wait
ARM GAS  C:\Users\49542\AppData\Local\Temp\ccEPk6Rd.s 			page 29


 1208 00ca 0346     		mov	r3, r0
 1209 00cc FB73     		strb	r3, [r7, #15]
 415:C:/Users/49542/Desktop/GD32F30x_Demo_Suites_V2.0.0/GD32F30x_Demo_Suites_V2.0.0/GD32F30x_Firmware_Library/GD32F30x_standard_peripheral/Source\gd32f30x_fmc.c ****             /* reset the PG bit */
 416:C:/Users/49542/Desktop/GD32F30x_Demo_Suites_V2.0.0/GD32F30x_Demo_Suites_V2.0.0/GD32F30x_Firmware_Library/GD32F30x_standard_peripheral/Source\gd32f30x_fmc.c ****             FMC_CTL0 &= ~FMC_CTL0_PG;
 1210              		.loc 1 416 0
 1211 00ce 074B     		ldr	r3, .L75+8
 1212 00d0 1B68     		ldr	r3, [r3]
 1213 00d2 064A     		ldr	r2, .L75+8
 1214 00d4 23F00103 		bic	r3, r3, #1
 1215 00d8 1360     		str	r3, [r2]
 1216              	.L73:
 417:C:/Users/49542/Desktop/GD32F30x_Demo_Suites_V2.0.0/GD32F30x_Demo_Suites_V2.0.0/GD32F30x_Firmware_Library/GD32F30x_standard_peripheral/Source\gd32f30x_fmc.c ****         } 
 418:C:/Users/49542/Desktop/GD32F30x_Demo_Suites_V2.0.0/GD32F30x_Demo_Suites_V2.0.0/GD32F30x_Firmware_Library/GD32F30x_standard_peripheral/Source\gd32f30x_fmc.c ****     }
 419:C:/Users/49542/Desktop/GD32F30x_Demo_Suites_V2.0.0/GD32F30x_Demo_Suites_V2.0.0/GD32F30x_Firmware_Library/GD32F30x_standard_peripheral/Source\gd32f30x_fmc.c ****     /* return the FMC state */
 420:C:/Users/49542/Desktop/GD32F30x_Demo_Suites_V2.0.0/GD32F30x_Demo_Suites_V2.0.0/GD32F30x_Firmware_Library/GD32F30x_standard_peripheral/Source\gd32f30x_fmc.c ****     return fmc_state;
 1217              		.loc 1 420 0
 1218 00da FB7B     		ldrb	r3, [r7, #15]	@ zero_extendqisi2
 421:C:/Users/49542/Desktop/GD32F30x_Demo_Suites_V2.0.0/GD32F30x_Demo_Suites_V2.0.0/GD32F30x_Firmware_Library/GD32F30x_standard_peripheral/Source\gd32f30x_fmc.c **** }
 1219              		.loc 1 421 0
 1220 00dc 1846     		mov	r0, r3
 1221 00de 1037     		adds	r7, r7, #16
 1222              	.LCFI58:
 1223              		.cfi_def_cfa_offset 8
 1224 00e0 BD46     		mov	sp, r7
 1225              	.LCFI59:
 1226              		.cfi_def_cfa_register 13
 1227              		@ sp needed
 1228 00e2 80BD     		pop	{r7, pc}
 1229              	.L76:
 1230              		.align	2
 1231              	.L75:
 1232 00e4 E0F7FF1F 		.word	536868832
 1233 00e8 FEFF0708 		.word	134742014
 1234 00ec 10200240 		.word	1073881104
 1235 00f0 50200240 		.word	1073881168
 1236              		.cfi_endproc
 1237              	.LFE128:
 1239              		.section	.text.fmc_word_reprogram,"ax",%progbits
 1240              		.align	1
 1241              		.global	fmc_word_reprogram
 1242              		.syntax unified
 1243              		.thumb
 1244              		.thumb_func
 1245              		.fpu fpv4-sp-d16
 1247              	fmc_word_reprogram:
 1248              	.LFB129:
 422:C:/Users/49542/Desktop/GD32F30x_Demo_Suites_V2.0.0/GD32F30x_Demo_Suites_V2.0.0/GD32F30x_Firmware_Library/GD32F30x_standard_peripheral/Source\gd32f30x_fmc.c **** 
 423:C:/Users/49542/Desktop/GD32F30x_Demo_Suites_V2.0.0/GD32F30x_Demo_Suites_V2.0.0/GD32F30x_Firmware_Library/GD32F30x_standard_peripheral/Source\gd32f30x_fmc.c **** /*!
 424:C:/Users/49542/Desktop/GD32F30x_Demo_Suites_V2.0.0/GD32F30x_Demo_Suites_V2.0.0/GD32F30x_Firmware_Library/GD32F30x_standard_peripheral/Source\gd32f30x_fmc.c ****     \brief      program a word at the corresponding address without erasing
 425:C:/Users/49542/Desktop/GD32F30x_Demo_Suites_V2.0.0/GD32F30x_Demo_Suites_V2.0.0/GD32F30x_Firmware_Library/GD32F30x_standard_peripheral/Source\gd32f30x_fmc.c ****     \param[in]  address: address to program
 426:C:/Users/49542/Desktop/GD32F30x_Demo_Suites_V2.0.0/GD32F30x_Demo_Suites_V2.0.0/GD32F30x_Firmware_Library/GD32F30x_standard_peripheral/Source\gd32f30x_fmc.c ****     \param[in]  data: word to program
 427:C:/Users/49542/Desktop/GD32F30x_Demo_Suites_V2.0.0/GD32F30x_Demo_Suites_V2.0.0/GD32F30x_Firmware_Library/GD32F30x_standard_peripheral/Source\gd32f30x_fmc.c ****     \param[out] none
 428:C:/Users/49542/Desktop/GD32F30x_Demo_Suites_V2.0.0/GD32F30x_Demo_Suites_V2.0.0/GD32F30x_Firmware_Library/GD32F30x_standard_peripheral/Source\gd32f30x_fmc.c ****     \retval     fmc_state
 429:C:/Users/49542/Desktop/GD32F30x_Demo_Suites_V2.0.0/GD32F30x_Demo_Suites_V2.0.0/GD32F30x_Firmware_Library/GD32F30x_standard_peripheral/Source\gd32f30x_fmc.c **** */
 430:C:/Users/49542/Desktop/GD32F30x_Demo_Suites_V2.0.0/GD32F30x_Demo_Suites_V2.0.0/GD32F30x_Firmware_Library/GD32F30x_standard_peripheral/Source\gd32f30x_fmc.c **** fmc_state_enum fmc_word_reprogram(uint32_t address, uint32_t data)
 431:C:/Users/49542/Desktop/GD32F30x_Demo_Suites_V2.0.0/GD32F30x_Demo_Suites_V2.0.0/GD32F30x_Firmware_Library/GD32F30x_standard_peripheral/Source\gd32f30x_fmc.c **** {
 1249              		.loc 1 431 0
ARM GAS  C:\Users\49542\AppData\Local\Temp\ccEPk6Rd.s 			page 30


 1250              		.cfi_startproc
 1251              		@ args = 0, pretend = 0, frame = 16
 1252              		@ frame_needed = 1, uses_anonymous_args = 0
 1253 0000 80B5     		push	{r7, lr}
 1254              	.LCFI60:
 1255              		.cfi_def_cfa_offset 8
 1256              		.cfi_offset 7, -8
 1257              		.cfi_offset 14, -4
 1258 0002 84B0     		sub	sp, sp, #16
 1259              	.LCFI61:
 1260              		.cfi_def_cfa_offset 24
 1261 0004 00AF     		add	r7, sp, #0
 1262              	.LCFI62:
 1263              		.cfi_def_cfa_register 7
 1264 0006 7860     		str	r0, [r7, #4]
 1265 0008 3960     		str	r1, [r7]
 432:C:/Users/49542/Desktop/GD32F30x_Demo_Suites_V2.0.0/GD32F30x_Demo_Suites_V2.0.0/GD32F30x_Firmware_Library/GD32F30x_standard_peripheral/Source\gd32f30x_fmc.c ****     fmc_state_enum fmc_state = FMC_READY;
 1266              		.loc 1 432 0
 1267 000a 0023     		movs	r3, #0
 1268 000c FB73     		strb	r3, [r7, #15]
 433:C:/Users/49542/Desktop/GD32F30x_Demo_Suites_V2.0.0/GD32F30x_Demo_Suites_V2.0.0/GD32F30x_Firmware_Library/GD32F30x_standard_peripheral/Source\gd32f30x_fmc.c ****     if(FMC_BANK0_SIZE < FMC_SIZE){
 1269              		.loc 1 433 0
 1270 000e 3E4B     		ldr	r3, .L84
 1271 0010 1B88     		ldrh	r3, [r3]
 1272 0012 B3F5007F 		cmp	r3, #512
 1273 0016 4DD9     		bls	.L78
 434:C:/Users/49542/Desktop/GD32F30x_Demo_Suites_V2.0.0/GD32F30x_Demo_Suites_V2.0.0/GD32F30x_Firmware_Library/GD32F30x_standard_peripheral/Source\gd32f30x_fmc.c ****         if(FMC_BANK0_END_ADDRESS > address){
 1274              		.loc 1 434 0
 1275 0018 7B68     		ldr	r3, [r7, #4]
 1276 001a 3C4A     		ldr	r2, .L84+4
 1277 001c 9342     		cmp	r3, r2
 1278 001e 24D8     		bhi	.L79
 435:C:/Users/49542/Desktop/GD32F30x_Demo_Suites_V2.0.0/GD32F30x_Demo_Suites_V2.0.0/GD32F30x_Firmware_Library/GD32F30x_standard_peripheral/Source\gd32f30x_fmc.c ****             fmc_state = fmc_bank0_ready_wait(FMC_TIMEOUT_COUNT); 
 1279              		.loc 1 435 0
 1280 0020 4FF47020 		mov	r0, #983040
 1281 0024 FFF7FEFF 		bl	fmc_bank0_ready_wait
 1282 0028 0346     		mov	r3, r0
 1283 002a FB73     		strb	r3, [r7, #15]
 436:C:/Users/49542/Desktop/GD32F30x_Demo_Suites_V2.0.0/GD32F30x_Demo_Suites_V2.0.0/GD32F30x_Firmware_Library/GD32F30x_standard_peripheral/Source\gd32f30x_fmc.c ****             FMC_WSEN |= FMC_WSEN_BPEN;
 1284              		.loc 1 436 0
 1285 002c 384B     		ldr	r3, .L84+8
 1286 002e 1B68     		ldr	r3, [r3]
 1287 0030 374A     		ldr	r2, .L84+8
 1288 0032 43F00203 		orr	r3, r3, #2
 1289 0036 1360     		str	r3, [r2]
 437:C:/Users/49542/Desktop/GD32F30x_Demo_Suites_V2.0.0/GD32F30x_Demo_Suites_V2.0.0/GD32F30x_Firmware_Library/GD32F30x_standard_peripheral/Source\gd32f30x_fmc.c ****             if(FMC_READY == fmc_state){
 1290              		.loc 1 437 0
 1291 0038 FB7B     		ldrb	r3, [r7, #15]	@ zero_extendqisi2
 1292 003a 002B     		cmp	r3, #0
 1293 003c 5ED1     		bne	.L82
 438:C:/Users/49542/Desktop/GD32F30x_Demo_Suites_V2.0.0/GD32F30x_Demo_Suites_V2.0.0/GD32F30x_Firmware_Library/GD32F30x_standard_peripheral/Source\gd32f30x_fmc.c ****                 /* set the PG bit to start program */
 439:C:/Users/49542/Desktop/GD32F30x_Demo_Suites_V2.0.0/GD32F30x_Demo_Suites_V2.0.0/GD32F30x_Firmware_Library/GD32F30x_standard_peripheral/Source\gd32f30x_fmc.c ****                 FMC_CTL0 |= FMC_CTL0_PG;
 1294              		.loc 1 439 0
 1295 003e 354B     		ldr	r3, .L84+12
 1296 0040 1B68     		ldr	r3, [r3]
 1297 0042 344A     		ldr	r2, .L84+12
 1298 0044 43F00103 		orr	r3, r3, #1
ARM GAS  C:\Users\49542\AppData\Local\Temp\ccEPk6Rd.s 			page 31


 1299 0048 1360     		str	r3, [r2]
 440:C:/Users/49542/Desktop/GD32F30x_Demo_Suites_V2.0.0/GD32F30x_Demo_Suites_V2.0.0/GD32F30x_Firmware_Library/GD32F30x_standard_peripheral/Source\gd32f30x_fmc.c ****                 REG32(address) = data;
 1300              		.loc 1 440 0
 1301 004a 7B68     		ldr	r3, [r7, #4]
 1302 004c 3A68     		ldr	r2, [r7]
 1303 004e 1A60     		str	r2, [r3]
 441:C:/Users/49542/Desktop/GD32F30x_Demo_Suites_V2.0.0/GD32F30x_Demo_Suites_V2.0.0/GD32F30x_Firmware_Library/GD32F30x_standard_peripheral/Source\gd32f30x_fmc.c ****                 /* wait for the FMC ready */
 442:C:/Users/49542/Desktop/GD32F30x_Demo_Suites_V2.0.0/GD32F30x_Demo_Suites_V2.0.0/GD32F30x_Firmware_Library/GD32F30x_standard_peripheral/Source\gd32f30x_fmc.c ****                 fmc_state = fmc_bank0_ready_wait(FMC_TIMEOUT_COUNT);
 1304              		.loc 1 442 0
 1305 0050 4FF47020 		mov	r0, #983040
 1306 0054 FFF7FEFF 		bl	fmc_bank0_ready_wait
 1307 0058 0346     		mov	r3, r0
 1308 005a FB73     		strb	r3, [r7, #15]
 443:C:/Users/49542/Desktop/GD32F30x_Demo_Suites_V2.0.0/GD32F30x_Demo_Suites_V2.0.0/GD32F30x_Firmware_Library/GD32F30x_standard_peripheral/Source\gd32f30x_fmc.c ****                 /* reset the PG bit */
 444:C:/Users/49542/Desktop/GD32F30x_Demo_Suites_V2.0.0/GD32F30x_Demo_Suites_V2.0.0/GD32F30x_Firmware_Library/GD32F30x_standard_peripheral/Source\gd32f30x_fmc.c ****                 FMC_CTL0 &= ~FMC_CTL0_PG;
 1309              		.loc 1 444 0
 1310 005c 2D4B     		ldr	r3, .L84+12
 1311 005e 1B68     		ldr	r3, [r3]
 1312 0060 2C4A     		ldr	r2, .L84+12
 1313 0062 23F00103 		bic	r3, r3, #1
 1314 0066 1360     		str	r3, [r2]
 1315 0068 48E0     		b	.L82
 1316              	.L79:
 445:C:/Users/49542/Desktop/GD32F30x_Demo_Suites_V2.0.0/GD32F30x_Demo_Suites_V2.0.0/GD32F30x_Firmware_Library/GD32F30x_standard_peripheral/Source\gd32f30x_fmc.c ****             }
 446:C:/Users/49542/Desktop/GD32F30x_Demo_Suites_V2.0.0/GD32F30x_Demo_Suites_V2.0.0/GD32F30x_Firmware_Library/GD32F30x_standard_peripheral/Source\gd32f30x_fmc.c ****         }else{
 447:C:/Users/49542/Desktop/GD32F30x_Demo_Suites_V2.0.0/GD32F30x_Demo_Suites_V2.0.0/GD32F30x_Firmware_Library/GD32F30x_standard_peripheral/Source\gd32f30x_fmc.c ****             fmc_state = fmc_bank1_ready_wait(FMC_TIMEOUT_COUNT); 
 1317              		.loc 1 447 0
 1318 006a 4FF47020 		mov	r0, #983040
 1319 006e FFF7FEFF 		bl	fmc_bank1_ready_wait
 1320 0072 0346     		mov	r3, r0
 1321 0074 FB73     		strb	r3, [r7, #15]
 448:C:/Users/49542/Desktop/GD32F30x_Demo_Suites_V2.0.0/GD32F30x_Demo_Suites_V2.0.0/GD32F30x_Firmware_Library/GD32F30x_standard_peripheral/Source\gd32f30x_fmc.c ****             FMC_WSEN |= FMC_WSEN_BPEN;
 1322              		.loc 1 448 0
 1323 0076 264B     		ldr	r3, .L84+8
 1324 0078 1B68     		ldr	r3, [r3]
 1325 007a 254A     		ldr	r2, .L84+8
 1326 007c 43F00203 		orr	r3, r3, #2
 1327 0080 1360     		str	r3, [r2]
 449:C:/Users/49542/Desktop/GD32F30x_Demo_Suites_V2.0.0/GD32F30x_Demo_Suites_V2.0.0/GD32F30x_Firmware_Library/GD32F30x_standard_peripheral/Source\gd32f30x_fmc.c ****             if(FMC_READY == fmc_state){
 1328              		.loc 1 449 0
 1329 0082 FB7B     		ldrb	r3, [r7, #15]	@ zero_extendqisi2
 1330 0084 002B     		cmp	r3, #0
 1331 0086 39D1     		bne	.L82
 450:C:/Users/49542/Desktop/GD32F30x_Demo_Suites_V2.0.0/GD32F30x_Demo_Suites_V2.0.0/GD32F30x_Firmware_Library/GD32F30x_standard_peripheral/Source\gd32f30x_fmc.c ****                 /* set the PG bit to start program */
 451:C:/Users/49542/Desktop/GD32F30x_Demo_Suites_V2.0.0/GD32F30x_Demo_Suites_V2.0.0/GD32F30x_Firmware_Library/GD32F30x_standard_peripheral/Source\gd32f30x_fmc.c ****                 FMC_CTL1 |= FMC_CTL1_PG;
 1332              		.loc 1 451 0
 1333 0088 234B     		ldr	r3, .L84+16
 1334 008a 1B68     		ldr	r3, [r3]
 1335 008c 224A     		ldr	r2, .L84+16
 1336 008e 43F00103 		orr	r3, r3, #1
 1337 0092 1360     		str	r3, [r2]
 452:C:/Users/49542/Desktop/GD32F30x_Demo_Suites_V2.0.0/GD32F30x_Demo_Suites_V2.0.0/GD32F30x_Firmware_Library/GD32F30x_standard_peripheral/Source\gd32f30x_fmc.c ****                 REG32(address) = data;
 1338              		.loc 1 452 0
 1339 0094 7B68     		ldr	r3, [r7, #4]
 1340 0096 3A68     		ldr	r2, [r7]
 1341 0098 1A60     		str	r2, [r3]
 453:C:/Users/49542/Desktop/GD32F30x_Demo_Suites_V2.0.0/GD32F30x_Demo_Suites_V2.0.0/GD32F30x_Firmware_Library/GD32F30x_standard_peripheral/Source\gd32f30x_fmc.c ****                 /* wait for the FMC ready */
ARM GAS  C:\Users\49542\AppData\Local\Temp\ccEPk6Rd.s 			page 32


 454:C:/Users/49542/Desktop/GD32F30x_Demo_Suites_V2.0.0/GD32F30x_Demo_Suites_V2.0.0/GD32F30x_Firmware_Library/GD32F30x_standard_peripheral/Source\gd32f30x_fmc.c ****                 fmc_state = fmc_bank1_ready_wait(FMC_TIMEOUT_COUNT);
 1342              		.loc 1 454 0
 1343 009a 4FF47020 		mov	r0, #983040
 1344 009e FFF7FEFF 		bl	fmc_bank1_ready_wait
 1345 00a2 0346     		mov	r3, r0
 1346 00a4 FB73     		strb	r3, [r7, #15]
 455:C:/Users/49542/Desktop/GD32F30x_Demo_Suites_V2.0.0/GD32F30x_Demo_Suites_V2.0.0/GD32F30x_Firmware_Library/GD32F30x_standard_peripheral/Source\gd32f30x_fmc.c ****                 /* reset the PG bit */
 456:C:/Users/49542/Desktop/GD32F30x_Demo_Suites_V2.0.0/GD32F30x_Demo_Suites_V2.0.0/GD32F30x_Firmware_Library/GD32F30x_standard_peripheral/Source\gd32f30x_fmc.c ****                 FMC_CTL1 &= ~FMC_CTL1_PG;
 1347              		.loc 1 456 0
 1348 00a6 1C4B     		ldr	r3, .L84+16
 1349 00a8 1B68     		ldr	r3, [r3]
 1350 00aa 1B4A     		ldr	r2, .L84+16
 1351 00ac 23F00103 		bic	r3, r3, #1
 1352 00b0 1360     		str	r3, [r2]
 1353 00b2 23E0     		b	.L82
 1354              	.L78:
 457:C:/Users/49542/Desktop/GD32F30x_Demo_Suites_V2.0.0/GD32F30x_Demo_Suites_V2.0.0/GD32F30x_Firmware_Library/GD32F30x_standard_peripheral/Source\gd32f30x_fmc.c ****             }
 458:C:/Users/49542/Desktop/GD32F30x_Demo_Suites_V2.0.0/GD32F30x_Demo_Suites_V2.0.0/GD32F30x_Firmware_Library/GD32F30x_standard_peripheral/Source\gd32f30x_fmc.c ****         }
 459:C:/Users/49542/Desktop/GD32F30x_Demo_Suites_V2.0.0/GD32F30x_Demo_Suites_V2.0.0/GD32F30x_Firmware_Library/GD32F30x_standard_peripheral/Source\gd32f30x_fmc.c ****     }else{
 460:C:/Users/49542/Desktop/GD32F30x_Demo_Suites_V2.0.0/GD32F30x_Demo_Suites_V2.0.0/GD32F30x_Firmware_Library/GD32F30x_standard_peripheral/Source\gd32f30x_fmc.c ****         fmc_state = fmc_bank0_ready_wait(FMC_TIMEOUT_COUNT);
 1355              		.loc 1 460 0
 1356 00b4 4FF47020 		mov	r0, #983040
 1357 00b8 FFF7FEFF 		bl	fmc_bank0_ready_wait
 1358 00bc 0346     		mov	r3, r0
 1359 00be FB73     		strb	r3, [r7, #15]
 461:C:/Users/49542/Desktop/GD32F30x_Demo_Suites_V2.0.0/GD32F30x_Demo_Suites_V2.0.0/GD32F30x_Firmware_Library/GD32F30x_standard_peripheral/Source\gd32f30x_fmc.c ****         FMC_WSEN |= FMC_WSEN_BPEN;
 1360              		.loc 1 461 0
 1361 00c0 134B     		ldr	r3, .L84+8
 1362 00c2 1B68     		ldr	r3, [r3]
 1363 00c4 124A     		ldr	r2, .L84+8
 1364 00c6 43F00203 		orr	r3, r3, #2
 1365 00ca 1360     		str	r3, [r2]
 462:C:/Users/49542/Desktop/GD32F30x_Demo_Suites_V2.0.0/GD32F30x_Demo_Suites_V2.0.0/GD32F30x_Firmware_Library/GD32F30x_standard_peripheral/Source\gd32f30x_fmc.c ****         if(FMC_READY == fmc_state){
 1366              		.loc 1 462 0
 1367 00cc FB7B     		ldrb	r3, [r7, #15]	@ zero_extendqisi2
 1368 00ce 002B     		cmp	r3, #0
 1369 00d0 14D1     		bne	.L82
 463:C:/Users/49542/Desktop/GD32F30x_Demo_Suites_V2.0.0/GD32F30x_Demo_Suites_V2.0.0/GD32F30x_Firmware_Library/GD32F30x_standard_peripheral/Source\gd32f30x_fmc.c ****             /* set the PG bit to start program */
 464:C:/Users/49542/Desktop/GD32F30x_Demo_Suites_V2.0.0/GD32F30x_Demo_Suites_V2.0.0/GD32F30x_Firmware_Library/GD32F30x_standard_peripheral/Source\gd32f30x_fmc.c ****             FMC_CTL0 |= FMC_CTL0_PG;
 1370              		.loc 1 464 0
 1371 00d2 104B     		ldr	r3, .L84+12
 1372 00d4 1B68     		ldr	r3, [r3]
 1373 00d6 0F4A     		ldr	r2, .L84+12
 1374 00d8 43F00103 		orr	r3, r3, #1
 1375 00dc 1360     		str	r3, [r2]
 465:C:/Users/49542/Desktop/GD32F30x_Demo_Suites_V2.0.0/GD32F30x_Demo_Suites_V2.0.0/GD32F30x_Firmware_Library/GD32F30x_standard_peripheral/Source\gd32f30x_fmc.c ****             REG32(address) = data;
 1376              		.loc 1 465 0
 1377 00de 7B68     		ldr	r3, [r7, #4]
 1378 00e0 3A68     		ldr	r2, [r7]
 1379 00e2 1A60     		str	r2, [r3]
 466:C:/Users/49542/Desktop/GD32F30x_Demo_Suites_V2.0.0/GD32F30x_Demo_Suites_V2.0.0/GD32F30x_Firmware_Library/GD32F30x_standard_peripheral/Source\gd32f30x_fmc.c ****             /* wait for the FMC ready */
 467:C:/Users/49542/Desktop/GD32F30x_Demo_Suites_V2.0.0/GD32F30x_Demo_Suites_V2.0.0/GD32F30x_Firmware_Library/GD32F30x_standard_peripheral/Source\gd32f30x_fmc.c ****             fmc_state = fmc_bank0_ready_wait(FMC_TIMEOUT_COUNT);
 1380              		.loc 1 467 0
 1381 00e4 4FF47020 		mov	r0, #983040
 1382 00e8 FFF7FEFF 		bl	fmc_bank0_ready_wait
 1383 00ec 0346     		mov	r3, r0
 1384 00ee FB73     		strb	r3, [r7, #15]
ARM GAS  C:\Users\49542\AppData\Local\Temp\ccEPk6Rd.s 			page 33


 468:C:/Users/49542/Desktop/GD32F30x_Demo_Suites_V2.0.0/GD32F30x_Demo_Suites_V2.0.0/GD32F30x_Firmware_Library/GD32F30x_standard_peripheral/Source\gd32f30x_fmc.c ****             /* reset the PG bit */
 469:C:/Users/49542/Desktop/GD32F30x_Demo_Suites_V2.0.0/GD32F30x_Demo_Suites_V2.0.0/GD32F30x_Firmware_Library/GD32F30x_standard_peripheral/Source\gd32f30x_fmc.c ****             FMC_CTL0 &= ~FMC_CTL0_PG;
 1385              		.loc 1 469 0
 1386 00f0 084B     		ldr	r3, .L84+12
 1387 00f2 1B68     		ldr	r3, [r3]
 1388 00f4 074A     		ldr	r2, .L84+12
 1389 00f6 23F00103 		bic	r3, r3, #1
 1390 00fa 1360     		str	r3, [r2]
 1391              	.L82:
 470:C:/Users/49542/Desktop/GD32F30x_Demo_Suites_V2.0.0/GD32F30x_Demo_Suites_V2.0.0/GD32F30x_Firmware_Library/GD32F30x_standard_peripheral/Source\gd32f30x_fmc.c ****         } 
 471:C:/Users/49542/Desktop/GD32F30x_Demo_Suites_V2.0.0/GD32F30x_Demo_Suites_V2.0.0/GD32F30x_Firmware_Library/GD32F30x_standard_peripheral/Source\gd32f30x_fmc.c ****     }
 472:C:/Users/49542/Desktop/GD32F30x_Demo_Suites_V2.0.0/GD32F30x_Demo_Suites_V2.0.0/GD32F30x_Firmware_Library/GD32F30x_standard_peripheral/Source\gd32f30x_fmc.c ****     /* return the FMC state */
 473:C:/Users/49542/Desktop/GD32F30x_Demo_Suites_V2.0.0/GD32F30x_Demo_Suites_V2.0.0/GD32F30x_Firmware_Library/GD32F30x_standard_peripheral/Source\gd32f30x_fmc.c ****     return fmc_state;
 1392              		.loc 1 473 0
 1393 00fc FB7B     		ldrb	r3, [r7, #15]	@ zero_extendqisi2
 474:C:/Users/49542/Desktop/GD32F30x_Demo_Suites_V2.0.0/GD32F30x_Demo_Suites_V2.0.0/GD32F30x_Firmware_Library/GD32F30x_standard_peripheral/Source\gd32f30x_fmc.c **** }
 1394              		.loc 1 474 0
 1395 00fe 1846     		mov	r0, r3
 1396 0100 1037     		adds	r7, r7, #16
 1397              	.LCFI63:
 1398              		.cfi_def_cfa_offset 8
 1399 0102 BD46     		mov	sp, r7
 1400              	.LCFI64:
 1401              		.cfi_def_cfa_register 13
 1402              		@ sp needed
 1403 0104 80BD     		pop	{r7, pc}
 1404              	.L85:
 1405 0106 00BF     		.align	2
 1406              	.L84:
 1407 0108 E0F7FF1F 		.word	536868832
 1408 010c FEFF0708 		.word	134742014
 1409 0110 FC200240 		.word	1073881340
 1410 0114 10200240 		.word	1073881104
 1411 0118 50200240 		.word	1073881168
 1412              		.cfi_endproc
 1413              	.LFE129:
 1415              		.section	.text.ob_unlock,"ax",%progbits
 1416              		.align	1
 1417              		.global	ob_unlock
 1418              		.syntax unified
 1419              		.thumb
 1420              		.thumb_func
 1421              		.fpu fpv4-sp-d16
 1423              	ob_unlock:
 1424              	.LFB130:
 475:C:/Users/49542/Desktop/GD32F30x_Demo_Suites_V2.0.0/GD32F30x_Demo_Suites_V2.0.0/GD32F30x_Firmware_Library/GD32F30x_standard_peripheral/Source\gd32f30x_fmc.c **** 
 476:C:/Users/49542/Desktop/GD32F30x_Demo_Suites_V2.0.0/GD32F30x_Demo_Suites_V2.0.0/GD32F30x_Firmware_Library/GD32F30x_standard_peripheral/Source\gd32f30x_fmc.c **** /*!
 477:C:/Users/49542/Desktop/GD32F30x_Demo_Suites_V2.0.0/GD32F30x_Demo_Suites_V2.0.0/GD32F30x_Firmware_Library/GD32F30x_standard_peripheral/Source\gd32f30x_fmc.c ****     \brief      unlock the option byte operation
 478:C:/Users/49542/Desktop/GD32F30x_Demo_Suites_V2.0.0/GD32F30x_Demo_Suites_V2.0.0/GD32F30x_Firmware_Library/GD32F30x_standard_peripheral/Source\gd32f30x_fmc.c ****     \param[in]  none
 479:C:/Users/49542/Desktop/GD32F30x_Demo_Suites_V2.0.0/GD32F30x_Demo_Suites_V2.0.0/GD32F30x_Firmware_Library/GD32F30x_standard_peripheral/Source\gd32f30x_fmc.c ****     \param[out] none
 480:C:/Users/49542/Desktop/GD32F30x_Demo_Suites_V2.0.0/GD32F30x_Demo_Suites_V2.0.0/GD32F30x_Firmware_Library/GD32F30x_standard_peripheral/Source\gd32f30x_fmc.c ****     \retval     none
 481:C:/Users/49542/Desktop/GD32F30x_Demo_Suites_V2.0.0/GD32F30x_Demo_Suites_V2.0.0/GD32F30x_Firmware_Library/GD32F30x_standard_peripheral/Source\gd32f30x_fmc.c **** */
 482:C:/Users/49542/Desktop/GD32F30x_Demo_Suites_V2.0.0/GD32F30x_Demo_Suites_V2.0.0/GD32F30x_Firmware_Library/GD32F30x_standard_peripheral/Source\gd32f30x_fmc.c **** void ob_unlock(void)
 483:C:/Users/49542/Desktop/GD32F30x_Demo_Suites_V2.0.0/GD32F30x_Demo_Suites_V2.0.0/GD32F30x_Firmware_Library/GD32F30x_standard_peripheral/Source\gd32f30x_fmc.c **** {
 1425              		.loc 1 483 0
 1426              		.cfi_startproc
 1427              		@ args = 0, pretend = 0, frame = 0
ARM GAS  C:\Users\49542\AppData\Local\Temp\ccEPk6Rd.s 			page 34


 1428              		@ frame_needed = 1, uses_anonymous_args = 0
 1429              		@ link register save eliminated.
 1430 0000 80B4     		push	{r7}
 1431              	.LCFI65:
 1432              		.cfi_def_cfa_offset 4
 1433              		.cfi_offset 7, -4
 1434 0002 00AF     		add	r7, sp, #0
 1435              	.LCFI66:
 1436              		.cfi_def_cfa_register 7
 484:C:/Users/49542/Desktop/GD32F30x_Demo_Suites_V2.0.0/GD32F30x_Demo_Suites_V2.0.0/GD32F30x_Firmware_Library/GD32F30x_standard_peripheral/Source\gd32f30x_fmc.c ****     if(RESET == (FMC_CTL0 & FMC_CTL0_OBWEN)){
 1437              		.loc 1 484 0
 1438 0004 084B     		ldr	r3, .L89
 1439 0006 1B68     		ldr	r3, [r3]
 1440 0008 03F40073 		and	r3, r3, #512
 1441 000c 002B     		cmp	r3, #0
 1442 000e 05D1     		bne	.L88
 485:C:/Users/49542/Desktop/GD32F30x_Demo_Suites_V2.0.0/GD32F30x_Demo_Suites_V2.0.0/GD32F30x_Firmware_Library/GD32F30x_standard_peripheral/Source\gd32f30x_fmc.c ****         /* write the FMC key */
 486:C:/Users/49542/Desktop/GD32F30x_Demo_Suites_V2.0.0/GD32F30x_Demo_Suites_V2.0.0/GD32F30x_Firmware_Library/GD32F30x_standard_peripheral/Source\gd32f30x_fmc.c ****         FMC_OBKEY = UNLOCK_KEY0;
 1443              		.loc 1 486 0
 1444 0010 064B     		ldr	r3, .L89+4
 1445 0012 074A     		ldr	r2, .L89+8
 1446 0014 1A60     		str	r2, [r3]
 487:C:/Users/49542/Desktop/GD32F30x_Demo_Suites_V2.0.0/GD32F30x_Demo_Suites_V2.0.0/GD32F30x_Firmware_Library/GD32F30x_standard_peripheral/Source\gd32f30x_fmc.c ****         FMC_OBKEY = UNLOCK_KEY1;
 1447              		.loc 1 487 0
 1448 0016 054B     		ldr	r3, .L89+4
 1449 0018 064A     		ldr	r2, .L89+12
 1450 001a 1A60     		str	r2, [r3]
 1451              	.L88:
 488:C:/Users/49542/Desktop/GD32F30x_Demo_Suites_V2.0.0/GD32F30x_Demo_Suites_V2.0.0/GD32F30x_Firmware_Library/GD32F30x_standard_peripheral/Source\gd32f30x_fmc.c ****     }
 489:C:/Users/49542/Desktop/GD32F30x_Demo_Suites_V2.0.0/GD32F30x_Demo_Suites_V2.0.0/GD32F30x_Firmware_Library/GD32F30x_standard_peripheral/Source\gd32f30x_fmc.c **** }
 1452              		.loc 1 489 0
 1453 001c 00BF     		nop
 1454 001e BD46     		mov	sp, r7
 1455              	.LCFI67:
 1456              		.cfi_def_cfa_register 13
 1457              		@ sp needed
 1458 0020 5DF8047B 		ldr	r7, [sp], #4
 1459              	.LCFI68:
 1460              		.cfi_restore 7
 1461              		.cfi_def_cfa_offset 0
 1462 0024 7047     		bx	lr
 1463              	.L90:
 1464 0026 00BF     		.align	2
 1465              	.L89:
 1466 0028 10200240 		.word	1073881104
 1467 002c 08200240 		.word	1073881096
 1468 0030 23016745 		.word	1164378403
 1469 0034 AB89EFCD 		.word	-839939669
 1470              		.cfi_endproc
 1471              	.LFE130:
 1473              		.section	.text.ob_lock,"ax",%progbits
 1474              		.align	1
 1475              		.global	ob_lock
 1476              		.syntax unified
 1477              		.thumb
 1478              		.thumb_func
 1479              		.fpu fpv4-sp-d16
ARM GAS  C:\Users\49542\AppData\Local\Temp\ccEPk6Rd.s 			page 35


 1481              	ob_lock:
 1482              	.LFB131:
 490:C:/Users/49542/Desktop/GD32F30x_Demo_Suites_V2.0.0/GD32F30x_Demo_Suites_V2.0.0/GD32F30x_Firmware_Library/GD32F30x_standard_peripheral/Source\gd32f30x_fmc.c **** 
 491:C:/Users/49542/Desktop/GD32F30x_Demo_Suites_V2.0.0/GD32F30x_Demo_Suites_V2.0.0/GD32F30x_Firmware_Library/GD32F30x_standard_peripheral/Source\gd32f30x_fmc.c **** /*!
 492:C:/Users/49542/Desktop/GD32F30x_Demo_Suites_V2.0.0/GD32F30x_Demo_Suites_V2.0.0/GD32F30x_Firmware_Library/GD32F30x_standard_peripheral/Source\gd32f30x_fmc.c ****     \brief      lock the option byte operation
 493:C:/Users/49542/Desktop/GD32F30x_Demo_Suites_V2.0.0/GD32F30x_Demo_Suites_V2.0.0/GD32F30x_Firmware_Library/GD32F30x_standard_peripheral/Source\gd32f30x_fmc.c ****     \param[in]  none
 494:C:/Users/49542/Desktop/GD32F30x_Demo_Suites_V2.0.0/GD32F30x_Demo_Suites_V2.0.0/GD32F30x_Firmware_Library/GD32F30x_standard_peripheral/Source\gd32f30x_fmc.c ****     \param[out] none
 495:C:/Users/49542/Desktop/GD32F30x_Demo_Suites_V2.0.0/GD32F30x_Demo_Suites_V2.0.0/GD32F30x_Firmware_Library/GD32F30x_standard_peripheral/Source\gd32f30x_fmc.c ****     \retval     none
 496:C:/Users/49542/Desktop/GD32F30x_Demo_Suites_V2.0.0/GD32F30x_Demo_Suites_V2.0.0/GD32F30x_Firmware_Library/GD32F30x_standard_peripheral/Source\gd32f30x_fmc.c **** */
 497:C:/Users/49542/Desktop/GD32F30x_Demo_Suites_V2.0.0/GD32F30x_Demo_Suites_V2.0.0/GD32F30x_Firmware_Library/GD32F30x_standard_peripheral/Source\gd32f30x_fmc.c **** void ob_lock(void)
 498:C:/Users/49542/Desktop/GD32F30x_Demo_Suites_V2.0.0/GD32F30x_Demo_Suites_V2.0.0/GD32F30x_Firmware_Library/GD32F30x_standard_peripheral/Source\gd32f30x_fmc.c **** {
 1483              		.loc 1 498 0
 1484              		.cfi_startproc
 1485              		@ args = 0, pretend = 0, frame = 0
 1486              		@ frame_needed = 1, uses_anonymous_args = 0
 1487              		@ link register save eliminated.
 1488 0000 80B4     		push	{r7}
 1489              	.LCFI69:
 1490              		.cfi_def_cfa_offset 4
 1491              		.cfi_offset 7, -4
 1492 0002 00AF     		add	r7, sp, #0
 1493              	.LCFI70:
 1494              		.cfi_def_cfa_register 7
 499:C:/Users/49542/Desktop/GD32F30x_Demo_Suites_V2.0.0/GD32F30x_Demo_Suites_V2.0.0/GD32F30x_Firmware_Library/GD32F30x_standard_peripheral/Source\gd32f30x_fmc.c ****     /* reset the OBWEN bit */
 500:C:/Users/49542/Desktop/GD32F30x_Demo_Suites_V2.0.0/GD32F30x_Demo_Suites_V2.0.0/GD32F30x_Firmware_Library/GD32F30x_standard_peripheral/Source\gd32f30x_fmc.c ****     FMC_CTL0 &= ~FMC_CTL0_OBWEN;
 1495              		.loc 1 500 0
 1496 0004 054B     		ldr	r3, .L92
 1497 0006 1B68     		ldr	r3, [r3]
 1498 0008 044A     		ldr	r2, .L92
 1499 000a 23F40073 		bic	r3, r3, #512
 1500 000e 1360     		str	r3, [r2]
 501:C:/Users/49542/Desktop/GD32F30x_Demo_Suites_V2.0.0/GD32F30x_Demo_Suites_V2.0.0/GD32F30x_Firmware_Library/GD32F30x_standard_peripheral/Source\gd32f30x_fmc.c **** }
 1501              		.loc 1 501 0
 1502 0010 00BF     		nop
 1503 0012 BD46     		mov	sp, r7
 1504              	.LCFI71:
 1505              		.cfi_def_cfa_register 13
 1506              		@ sp needed
 1507 0014 5DF8047B 		ldr	r7, [sp], #4
 1508              	.LCFI72:
 1509              		.cfi_restore 7
 1510              		.cfi_def_cfa_offset 0
 1511 0018 7047     		bx	lr
 1512              	.L93:
 1513 001a 00BF     		.align	2
 1514              	.L92:
 1515 001c 10200240 		.word	1073881104
 1516              		.cfi_endproc
 1517              	.LFE131:
 1519              		.section	.text.ob_erase,"ax",%progbits
 1520              		.align	1
 1521              		.global	ob_erase
 1522              		.syntax unified
 1523              		.thumb
 1524              		.thumb_func
 1525              		.fpu fpv4-sp-d16
 1527              	ob_erase:
ARM GAS  C:\Users\49542\AppData\Local\Temp\ccEPk6Rd.s 			page 36


 1528              	.LFB132:
 502:C:/Users/49542/Desktop/GD32F30x_Demo_Suites_V2.0.0/GD32F30x_Demo_Suites_V2.0.0/GD32F30x_Firmware_Library/GD32F30x_standard_peripheral/Source\gd32f30x_fmc.c **** 
 503:C:/Users/49542/Desktop/GD32F30x_Demo_Suites_V2.0.0/GD32F30x_Demo_Suites_V2.0.0/GD32F30x_Firmware_Library/GD32F30x_standard_peripheral/Source\gd32f30x_fmc.c **** /*!
 504:C:/Users/49542/Desktop/GD32F30x_Demo_Suites_V2.0.0/GD32F30x_Demo_Suites_V2.0.0/GD32F30x_Firmware_Library/GD32F30x_standard_peripheral/Source\gd32f30x_fmc.c ****     \brief      erase the FMC option byte
 505:C:/Users/49542/Desktop/GD32F30x_Demo_Suites_V2.0.0/GD32F30x_Demo_Suites_V2.0.0/GD32F30x_Firmware_Library/GD32F30x_standard_peripheral/Source\gd32f30x_fmc.c ****                 unlock the FMC_CTL0 and option byte before calling this function
 506:C:/Users/49542/Desktop/GD32F30x_Demo_Suites_V2.0.0/GD32F30x_Demo_Suites_V2.0.0/GD32F30x_Firmware_Library/GD32F30x_standard_peripheral/Source\gd32f30x_fmc.c ****     \param[in]  none
 507:C:/Users/49542/Desktop/GD32F30x_Demo_Suites_V2.0.0/GD32F30x_Demo_Suites_V2.0.0/GD32F30x_Firmware_Library/GD32F30x_standard_peripheral/Source\gd32f30x_fmc.c ****     \param[out] none
 508:C:/Users/49542/Desktop/GD32F30x_Demo_Suites_V2.0.0/GD32F30x_Demo_Suites_V2.0.0/GD32F30x_Firmware_Library/GD32F30x_standard_peripheral/Source\gd32f30x_fmc.c ****     \retval     state of FMC, refer to fmc_state_enum
 509:C:/Users/49542/Desktop/GD32F30x_Demo_Suites_V2.0.0/GD32F30x_Demo_Suites_V2.0.0/GD32F30x_Firmware_Library/GD32F30x_standard_peripheral/Source\gd32f30x_fmc.c **** */
 510:C:/Users/49542/Desktop/GD32F30x_Demo_Suites_V2.0.0/GD32F30x_Demo_Suites_V2.0.0/GD32F30x_Firmware_Library/GD32F30x_standard_peripheral/Source\gd32f30x_fmc.c **** fmc_state_enum ob_erase(void)
 511:C:/Users/49542/Desktop/GD32F30x_Demo_Suites_V2.0.0/GD32F30x_Demo_Suites_V2.0.0/GD32F30x_Firmware_Library/GD32F30x_standard_peripheral/Source\gd32f30x_fmc.c **** {
 1529              		.loc 1 511 0
 1530              		.cfi_startproc
 1531              		@ args = 0, pretend = 0, frame = 8
 1532              		@ frame_needed = 1, uses_anonymous_args = 0
 1533 0000 80B5     		push	{r7, lr}
 1534              	.LCFI73:
 1535              		.cfi_def_cfa_offset 8
 1536              		.cfi_offset 7, -8
 1537              		.cfi_offset 14, -4
 1538 0002 82B0     		sub	sp, sp, #8
 1539              	.LCFI74:
 1540              		.cfi_def_cfa_offset 16
 1541 0004 00AF     		add	r7, sp, #0
 1542              	.LCFI75:
 1543              		.cfi_def_cfa_register 7
 512:C:/Users/49542/Desktop/GD32F30x_Demo_Suites_V2.0.0/GD32F30x_Demo_Suites_V2.0.0/GD32F30x_Firmware_Library/GD32F30x_standard_peripheral/Source\gd32f30x_fmc.c ****     uint16_t temp_spc = FMC_NSPC;
 1544              		.loc 1 512 0
 1545 0006 A523     		movs	r3, #165
 1546 0008 FB80     		strh	r3, [r7, #6]	@ movhi
 513:C:/Users/49542/Desktop/GD32F30x_Demo_Suites_V2.0.0/GD32F30x_Demo_Suites_V2.0.0/GD32F30x_Firmware_Library/GD32F30x_standard_peripheral/Source\gd32f30x_fmc.c **** 
 514:C:/Users/49542/Desktop/GD32F30x_Demo_Suites_V2.0.0/GD32F30x_Demo_Suites_V2.0.0/GD32F30x_Firmware_Library/GD32F30x_standard_peripheral/Source\gd32f30x_fmc.c ****     fmc_state_enum fmc_state = fmc_bank0_ready_wait(FMC_TIMEOUT_COUNT);
 1547              		.loc 1 514 0
 1548 000a 4FF47020 		mov	r0, #983040
 1549 000e FFF7FEFF 		bl	fmc_bank0_ready_wait
 1550 0012 0346     		mov	r3, r0
 1551 0014 7B71     		strb	r3, [r7, #5]
 515:C:/Users/49542/Desktop/GD32F30x_Demo_Suites_V2.0.0/GD32F30x_Demo_Suites_V2.0.0/GD32F30x_Firmware_Library/GD32F30x_standard_peripheral/Source\gd32f30x_fmc.c **** 
 516:C:/Users/49542/Desktop/GD32F30x_Demo_Suites_V2.0.0/GD32F30x_Demo_Suites_V2.0.0/GD32F30x_Firmware_Library/GD32F30x_standard_peripheral/Source\gd32f30x_fmc.c ****     /* check the option byte security protection value */
 517:C:/Users/49542/Desktop/GD32F30x_Demo_Suites_V2.0.0/GD32F30x_Demo_Suites_V2.0.0/GD32F30x_Firmware_Library/GD32F30x_standard_peripheral/Source\gd32f30x_fmc.c ****     if(RESET != ob_spc_get()){
 1552              		.loc 1 517 0
 1553 0016 FFF7FEFF 		bl	ob_spc_get
 1554 001a 0346     		mov	r3, r0
 1555 001c 002B     		cmp	r3, #0
 1556 001e 01D0     		beq	.L95
 518:C:/Users/49542/Desktop/GD32F30x_Demo_Suites_V2.0.0/GD32F30x_Demo_Suites_V2.0.0/GD32F30x_Firmware_Library/GD32F30x_standard_peripheral/Source\gd32f30x_fmc.c ****         temp_spc = FMC_USPC;  
 1557              		.loc 1 518 0
 1558 0020 BB23     		movs	r3, #187
 1559 0022 FB80     		strh	r3, [r7, #6]	@ movhi
 1560              	.L95:
 519:C:/Users/49542/Desktop/GD32F30x_Demo_Suites_V2.0.0/GD32F30x_Demo_Suites_V2.0.0/GD32F30x_Firmware_Library/GD32F30x_standard_peripheral/Source\gd32f30x_fmc.c ****     }
 520:C:/Users/49542/Desktop/GD32F30x_Demo_Suites_V2.0.0/GD32F30x_Demo_Suites_V2.0.0/GD32F30x_Firmware_Library/GD32F30x_standard_peripheral/Source\gd32f30x_fmc.c **** 
 521:C:/Users/49542/Desktop/GD32F30x_Demo_Suites_V2.0.0/GD32F30x_Demo_Suites_V2.0.0/GD32F30x_Firmware_Library/GD32F30x_standard_peripheral/Source\gd32f30x_fmc.c ****     if(FMC_READY == fmc_state){
 1561              		.loc 1 521 0
 1562 0024 7B79     		ldrb	r3, [r7, #5]	@ zero_extendqisi2
 1563 0026 002B     		cmp	r3, #0
 1564 0028 3CD1     		bne	.L96
ARM GAS  C:\Users\49542\AppData\Local\Temp\ccEPk6Rd.s 			page 37


 522:C:/Users/49542/Desktop/GD32F30x_Demo_Suites_V2.0.0/GD32F30x_Demo_Suites_V2.0.0/GD32F30x_Firmware_Library/GD32F30x_standard_peripheral/Source\gd32f30x_fmc.c **** 
 523:C:/Users/49542/Desktop/GD32F30x_Demo_Suites_V2.0.0/GD32F30x_Demo_Suites_V2.0.0/GD32F30x_Firmware_Library/GD32F30x_standard_peripheral/Source\gd32f30x_fmc.c ****         /* start erase the option byte */
 524:C:/Users/49542/Desktop/GD32F30x_Demo_Suites_V2.0.0/GD32F30x_Demo_Suites_V2.0.0/GD32F30x_Firmware_Library/GD32F30x_standard_peripheral/Source\gd32f30x_fmc.c ****         FMC_CTL0 |= FMC_CTL0_OBER;
 1565              		.loc 1 524 0
 1566 002a 214B     		ldr	r3, .L100
 1567 002c 1B68     		ldr	r3, [r3]
 1568 002e 204A     		ldr	r2, .L100
 1569 0030 43F02003 		orr	r3, r3, #32
 1570 0034 1360     		str	r3, [r2]
 525:C:/Users/49542/Desktop/GD32F30x_Demo_Suites_V2.0.0/GD32F30x_Demo_Suites_V2.0.0/GD32F30x_Firmware_Library/GD32F30x_standard_peripheral/Source\gd32f30x_fmc.c ****         FMC_CTL0 |= FMC_CTL0_START;
 1571              		.loc 1 525 0
 1572 0036 1E4B     		ldr	r3, .L100
 1573 0038 1B68     		ldr	r3, [r3]
 1574 003a 1D4A     		ldr	r2, .L100
 1575 003c 43F04003 		orr	r3, r3, #64
 1576 0040 1360     		str	r3, [r2]
 526:C:/Users/49542/Desktop/GD32F30x_Demo_Suites_V2.0.0/GD32F30x_Demo_Suites_V2.0.0/GD32F30x_Firmware_Library/GD32F30x_standard_peripheral/Source\gd32f30x_fmc.c **** 
 527:C:/Users/49542/Desktop/GD32F30x_Demo_Suites_V2.0.0/GD32F30x_Demo_Suites_V2.0.0/GD32F30x_Firmware_Library/GD32F30x_standard_peripheral/Source\gd32f30x_fmc.c ****         /* wait for the FMC ready */
 528:C:/Users/49542/Desktop/GD32F30x_Demo_Suites_V2.0.0/GD32F30x_Demo_Suites_V2.0.0/GD32F30x_Firmware_Library/GD32F30x_standard_peripheral/Source\gd32f30x_fmc.c ****         fmc_state = fmc_bank0_ready_wait(FMC_TIMEOUT_COUNT);
 1577              		.loc 1 528 0
 1578 0042 4FF47020 		mov	r0, #983040
 1579 0046 FFF7FEFF 		bl	fmc_bank0_ready_wait
 1580 004a 0346     		mov	r3, r0
 1581 004c 7B71     		strb	r3, [r7, #5]
 529:C:/Users/49542/Desktop/GD32F30x_Demo_Suites_V2.0.0/GD32F30x_Demo_Suites_V2.0.0/GD32F30x_Firmware_Library/GD32F30x_standard_peripheral/Source\gd32f30x_fmc.c ****     
 530:C:/Users/49542/Desktop/GD32F30x_Demo_Suites_V2.0.0/GD32F30x_Demo_Suites_V2.0.0/GD32F30x_Firmware_Library/GD32F30x_standard_peripheral/Source\gd32f30x_fmc.c ****         if(FMC_READY == fmc_state){
 1582              		.loc 1 530 0
 1583 004e 7B79     		ldrb	r3, [r7, #5]	@ zero_extendqisi2
 1584 0050 002B     		cmp	r3, #0
 1585 0052 1ED1     		bne	.L97
 531:C:/Users/49542/Desktop/GD32F30x_Demo_Suites_V2.0.0/GD32F30x_Demo_Suites_V2.0.0/GD32F30x_Firmware_Library/GD32F30x_standard_peripheral/Source\gd32f30x_fmc.c ****             /* reset the OBER bit */
 532:C:/Users/49542/Desktop/GD32F30x_Demo_Suites_V2.0.0/GD32F30x_Demo_Suites_V2.0.0/GD32F30x_Firmware_Library/GD32F30x_standard_peripheral/Source\gd32f30x_fmc.c ****             FMC_CTL0 &= ~FMC_CTL0_OBER;
 1586              		.loc 1 532 0
 1587 0054 164B     		ldr	r3, .L100
 1588 0056 1B68     		ldr	r3, [r3]
 1589 0058 154A     		ldr	r2, .L100
 1590 005a 23F02003 		bic	r3, r3, #32
 1591 005e 1360     		str	r3, [r2]
 533:C:/Users/49542/Desktop/GD32F30x_Demo_Suites_V2.0.0/GD32F30x_Demo_Suites_V2.0.0/GD32F30x_Firmware_Library/GD32F30x_standard_peripheral/Source\gd32f30x_fmc.c ****             /* set the OBPG bit */
 534:C:/Users/49542/Desktop/GD32F30x_Demo_Suites_V2.0.0/GD32F30x_Demo_Suites_V2.0.0/GD32F30x_Firmware_Library/GD32F30x_standard_peripheral/Source\gd32f30x_fmc.c ****             FMC_CTL0 |= FMC_CTL0_OBPG;
 1592              		.loc 1 534 0
 1593 0060 134B     		ldr	r3, .L100
 1594 0062 1B68     		ldr	r3, [r3]
 1595 0064 124A     		ldr	r2, .L100
 1596 0066 43F01003 		orr	r3, r3, #16
 1597 006a 1360     		str	r3, [r2]
 535:C:/Users/49542/Desktop/GD32F30x_Demo_Suites_V2.0.0/GD32F30x_Demo_Suites_V2.0.0/GD32F30x_Firmware_Library/GD32F30x_standard_peripheral/Source\gd32f30x_fmc.c ****             /* no security protection */
 536:C:/Users/49542/Desktop/GD32F30x_Demo_Suites_V2.0.0/GD32F30x_Demo_Suites_V2.0.0/GD32F30x_Firmware_Library/GD32F30x_standard_peripheral/Source\gd32f30x_fmc.c ****             OB_SPC = (uint16_t)temp_spc; 
 1598              		.loc 1 536 0
 1599 006c 114A     		ldr	r2, .L100+4
 1600 006e FB88     		ldrh	r3, [r7, #6]	@ movhi
 1601 0070 1380     		strh	r3, [r2]	@ movhi
 537:C:/Users/49542/Desktop/GD32F30x_Demo_Suites_V2.0.0/GD32F30x_Demo_Suites_V2.0.0/GD32F30x_Firmware_Library/GD32F30x_standard_peripheral/Source\gd32f30x_fmc.c ****             /* wait for the FMC ready */
 538:C:/Users/49542/Desktop/GD32F30x_Demo_Suites_V2.0.0/GD32F30x_Demo_Suites_V2.0.0/GD32F30x_Firmware_Library/GD32F30x_standard_peripheral/Source\gd32f30x_fmc.c ****             fmc_state = fmc_bank0_ready_wait(FMC_TIMEOUT_COUNT); 
 1602              		.loc 1 538 0
 1603 0072 4FF47020 		mov	r0, #983040
 1604 0076 FFF7FEFF 		bl	fmc_bank0_ready_wait
ARM GAS  C:\Users\49542\AppData\Local\Temp\ccEPk6Rd.s 			page 38


 1605 007a 0346     		mov	r3, r0
 1606 007c 7B71     		strb	r3, [r7, #5]
 539:C:/Users/49542/Desktop/GD32F30x_Demo_Suites_V2.0.0/GD32F30x_Demo_Suites_V2.0.0/GD32F30x_Firmware_Library/GD32F30x_standard_peripheral/Source\gd32f30x_fmc.c ****             if(FMC_TOERR != fmc_state){
 1607              		.loc 1 539 0
 1608 007e 7B79     		ldrb	r3, [r7, #5]	@ zero_extendqisi2
 1609 0080 042B     		cmp	r3, #4
 1610 0082 0FD0     		beq	.L96
 540:C:/Users/49542/Desktop/GD32F30x_Demo_Suites_V2.0.0/GD32F30x_Demo_Suites_V2.0.0/GD32F30x_Firmware_Library/GD32F30x_standard_peripheral/Source\gd32f30x_fmc.c ****                 /* reset the OBPG bit */
 541:C:/Users/49542/Desktop/GD32F30x_Demo_Suites_V2.0.0/GD32F30x_Demo_Suites_V2.0.0/GD32F30x_Firmware_Library/GD32F30x_standard_peripheral/Source\gd32f30x_fmc.c ****                 FMC_CTL0 &= ~FMC_CTL0_OBPG;
 1611              		.loc 1 541 0
 1612 0084 0A4B     		ldr	r3, .L100
 1613 0086 1B68     		ldr	r3, [r3]
 1614 0088 094A     		ldr	r2, .L100
 1615 008a 23F01003 		bic	r3, r3, #16
 1616 008e 1360     		str	r3, [r2]
 1617 0090 08E0     		b	.L96
 1618              	.L97:
 542:C:/Users/49542/Desktop/GD32F30x_Demo_Suites_V2.0.0/GD32F30x_Demo_Suites_V2.0.0/GD32F30x_Firmware_Library/GD32F30x_standard_peripheral/Source\gd32f30x_fmc.c ****             }
 543:C:/Users/49542/Desktop/GD32F30x_Demo_Suites_V2.0.0/GD32F30x_Demo_Suites_V2.0.0/GD32F30x_Firmware_Library/GD32F30x_standard_peripheral/Source\gd32f30x_fmc.c ****         }else{
 544:C:/Users/49542/Desktop/GD32F30x_Demo_Suites_V2.0.0/GD32F30x_Demo_Suites_V2.0.0/GD32F30x_Firmware_Library/GD32F30x_standard_peripheral/Source\gd32f30x_fmc.c ****             if(FMC_TOERR != fmc_state){
 1619              		.loc 1 544 0
 1620 0092 7B79     		ldrb	r3, [r7, #5]	@ zero_extendqisi2
 1621 0094 042B     		cmp	r3, #4
 1622 0096 05D0     		beq	.L96
 545:C:/Users/49542/Desktop/GD32F30x_Demo_Suites_V2.0.0/GD32F30x_Demo_Suites_V2.0.0/GD32F30x_Firmware_Library/GD32F30x_standard_peripheral/Source\gd32f30x_fmc.c ****                 /* reset the OBPG bit */
 546:C:/Users/49542/Desktop/GD32F30x_Demo_Suites_V2.0.0/GD32F30x_Demo_Suites_V2.0.0/GD32F30x_Firmware_Library/GD32F30x_standard_peripheral/Source\gd32f30x_fmc.c ****                 FMC_CTL0 &= ~FMC_CTL0_OBPG;
 1623              		.loc 1 546 0
 1624 0098 054B     		ldr	r3, .L100
 1625 009a 1B68     		ldr	r3, [r3]
 1626 009c 044A     		ldr	r2, .L100
 1627 009e 23F01003 		bic	r3, r3, #16
 1628 00a2 1360     		str	r3, [r2]
 1629              	.L96:
 547:C:/Users/49542/Desktop/GD32F30x_Demo_Suites_V2.0.0/GD32F30x_Demo_Suites_V2.0.0/GD32F30x_Firmware_Library/GD32F30x_standard_peripheral/Source\gd32f30x_fmc.c ****             }
 548:C:/Users/49542/Desktop/GD32F30x_Demo_Suites_V2.0.0/GD32F30x_Demo_Suites_V2.0.0/GD32F30x_Firmware_Library/GD32F30x_standard_peripheral/Source\gd32f30x_fmc.c ****         }
 549:C:/Users/49542/Desktop/GD32F30x_Demo_Suites_V2.0.0/GD32F30x_Demo_Suites_V2.0.0/GD32F30x_Firmware_Library/GD32F30x_standard_peripheral/Source\gd32f30x_fmc.c ****     }
 550:C:/Users/49542/Desktop/GD32F30x_Demo_Suites_V2.0.0/GD32F30x_Demo_Suites_V2.0.0/GD32F30x_Firmware_Library/GD32F30x_standard_peripheral/Source\gd32f30x_fmc.c ****     /* return the FMC state */
 551:C:/Users/49542/Desktop/GD32F30x_Demo_Suites_V2.0.0/GD32F30x_Demo_Suites_V2.0.0/GD32F30x_Firmware_Library/GD32F30x_standard_peripheral/Source\gd32f30x_fmc.c ****     return fmc_state;
 1630              		.loc 1 551 0
 1631 00a4 7B79     		ldrb	r3, [r7, #5]	@ zero_extendqisi2
 552:C:/Users/49542/Desktop/GD32F30x_Demo_Suites_V2.0.0/GD32F30x_Demo_Suites_V2.0.0/GD32F30x_Firmware_Library/GD32F30x_standard_peripheral/Source\gd32f30x_fmc.c **** }
 1632              		.loc 1 552 0
 1633 00a6 1846     		mov	r0, r3
 1634 00a8 0837     		adds	r7, r7, #8
 1635              	.LCFI76:
 1636              		.cfi_def_cfa_offset 8
 1637 00aa BD46     		mov	sp, r7
 1638              	.LCFI77:
 1639              		.cfi_def_cfa_register 13
 1640              		@ sp needed
 1641 00ac 80BD     		pop	{r7, pc}
 1642              	.L101:
 1643 00ae 00BF     		.align	2
 1644              	.L100:
 1645 00b0 10200240 		.word	1073881104
 1646 00b4 00F8FF1F 		.word	536868864
 1647              		.cfi_endproc
ARM GAS  C:\Users\49542\AppData\Local\Temp\ccEPk6Rd.s 			page 39


 1648              	.LFE132:
 1650              		.section	.text.ob_write_protection_enable,"ax",%progbits
 1651              		.align	1
 1652              		.global	ob_write_protection_enable
 1653              		.syntax unified
 1654              		.thumb
 1655              		.thumb_func
 1656              		.fpu fpv4-sp-d16
 1658              	ob_write_protection_enable:
 1659              	.LFB133:
 553:C:/Users/49542/Desktop/GD32F30x_Demo_Suites_V2.0.0/GD32F30x_Demo_Suites_V2.0.0/GD32F30x_Firmware_Library/GD32F30x_standard_peripheral/Source\gd32f30x_fmc.c **** 
 554:C:/Users/49542/Desktop/GD32F30x_Demo_Suites_V2.0.0/GD32F30x_Demo_Suites_V2.0.0/GD32F30x_Firmware_Library/GD32F30x_standard_peripheral/Source\gd32f30x_fmc.c **** /*!
 555:C:/Users/49542/Desktop/GD32F30x_Demo_Suites_V2.0.0/GD32F30x_Demo_Suites_V2.0.0/GD32F30x_Firmware_Library/GD32F30x_standard_peripheral/Source\gd32f30x_fmc.c ****     \brief      enable write protection
 556:C:/Users/49542/Desktop/GD32F30x_Demo_Suites_V2.0.0/GD32F30x_Demo_Suites_V2.0.0/GD32F30x_Firmware_Library/GD32F30x_standard_peripheral/Source\gd32f30x_fmc.c ****     \param[in]  ob_wp: specify sector to be write protected
 557:C:/Users/49542/Desktop/GD32F30x_Demo_Suites_V2.0.0/GD32F30x_Demo_Suites_V2.0.0/GD32F30x_Firmware_Library/GD32F30x_standard_peripheral/Source\gd32f30x_fmc.c ****       \arg        OB_WPx(x=0..31): write protect specify sector
 558:C:/Users/49542/Desktop/GD32F30x_Demo_Suites_V2.0.0/GD32F30x_Demo_Suites_V2.0.0/GD32F30x_Firmware_Library/GD32F30x_standard_peripheral/Source\gd32f30x_fmc.c ****       \arg        OB_WP_ALL: write protect all sector
 559:C:/Users/49542/Desktop/GD32F30x_Demo_Suites_V2.0.0/GD32F30x_Demo_Suites_V2.0.0/GD32F30x_Firmware_Library/GD32F30x_standard_peripheral/Source\gd32f30x_fmc.c ****     \param[out] none
 560:C:/Users/49542/Desktop/GD32F30x_Demo_Suites_V2.0.0/GD32F30x_Demo_Suites_V2.0.0/GD32F30x_Firmware_Library/GD32F30x_standard_peripheral/Source\gd32f30x_fmc.c ****     \retval     state of FMC, refer to fmc_state_enum
 561:C:/Users/49542/Desktop/GD32F30x_Demo_Suites_V2.0.0/GD32F30x_Demo_Suites_V2.0.0/GD32F30x_Firmware_Library/GD32F30x_standard_peripheral/Source\gd32f30x_fmc.c **** */
 562:C:/Users/49542/Desktop/GD32F30x_Demo_Suites_V2.0.0/GD32F30x_Demo_Suites_V2.0.0/GD32F30x_Firmware_Library/GD32F30x_standard_peripheral/Source\gd32f30x_fmc.c **** fmc_state_enum ob_write_protection_enable(uint32_t ob_wp)
 563:C:/Users/49542/Desktop/GD32F30x_Demo_Suites_V2.0.0/GD32F30x_Demo_Suites_V2.0.0/GD32F30x_Firmware_Library/GD32F30x_standard_peripheral/Source\gd32f30x_fmc.c **** {
 1660              		.loc 1 563 0
 1661              		.cfi_startproc
 1662              		@ args = 0, pretend = 0, frame = 24
 1663              		@ frame_needed = 1, uses_anonymous_args = 0
 1664 0000 80B5     		push	{r7, lr}
 1665              	.LCFI78:
 1666              		.cfi_def_cfa_offset 8
 1667              		.cfi_offset 7, -8
 1668              		.cfi_offset 14, -4
 1669 0002 86B0     		sub	sp, sp, #24
 1670              	.LCFI79:
 1671              		.cfi_def_cfa_offset 32
 1672 0004 00AF     		add	r7, sp, #0
 1673              	.LCFI80:
 1674              		.cfi_def_cfa_register 7
 1675 0006 7860     		str	r0, [r7, #4]
 564:C:/Users/49542/Desktop/GD32F30x_Demo_Suites_V2.0.0/GD32F30x_Demo_Suites_V2.0.0/GD32F30x_Firmware_Library/GD32F30x_standard_peripheral/Source\gd32f30x_fmc.c ****     uint16_t temp_wp0, temp_wp1, temp_wp2, temp_wp3;
 565:C:/Users/49542/Desktop/GD32F30x_Demo_Suites_V2.0.0/GD32F30x_Demo_Suites_V2.0.0/GD32F30x_Firmware_Library/GD32F30x_standard_peripheral/Source\gd32f30x_fmc.c **** 
 566:C:/Users/49542/Desktop/GD32F30x_Demo_Suites_V2.0.0/GD32F30x_Demo_Suites_V2.0.0/GD32F30x_Firmware_Library/GD32F30x_standard_peripheral/Source\gd32f30x_fmc.c ****     fmc_state_enum fmc_state = fmc_bank0_ready_wait(FMC_TIMEOUT_COUNT);
 1676              		.loc 1 566 0
 1677 0008 4FF47020 		mov	r0, #983040
 1678 000c FFF7FEFF 		bl	fmc_bank0_ready_wait
 1679 0010 0346     		mov	r3, r0
 1680 0012 FB75     		strb	r3, [r7, #23]
 567:C:/Users/49542/Desktop/GD32F30x_Demo_Suites_V2.0.0/GD32F30x_Demo_Suites_V2.0.0/GD32F30x_Firmware_Library/GD32F30x_standard_peripheral/Source\gd32f30x_fmc.c **** 
 568:C:/Users/49542/Desktop/GD32F30x_Demo_Suites_V2.0.0/GD32F30x_Demo_Suites_V2.0.0/GD32F30x_Firmware_Library/GD32F30x_standard_peripheral/Source\gd32f30x_fmc.c ****     ob_wp = (uint32_t)(~ob_wp);
 1681              		.loc 1 568 0
 1682 0014 7B68     		ldr	r3, [r7, #4]
 1683 0016 DB43     		mvns	r3, r3
 1684 0018 7B60     		str	r3, [r7, #4]
 569:C:/Users/49542/Desktop/GD32F30x_Demo_Suites_V2.0.0/GD32F30x_Demo_Suites_V2.0.0/GD32F30x_Firmware_Library/GD32F30x_standard_peripheral/Source\gd32f30x_fmc.c ****     temp_wp0 = (uint16_t)(ob_wp & OB_WP0_WP0);
 1685              		.loc 1 569 0
 1686 001a 7B68     		ldr	r3, [r7, #4]
 1687 001c 9BB2     		uxth	r3, r3
 1688 001e DBB2     		uxtb	r3, r3
 1689 0020 BB82     		strh	r3, [r7, #20]	@ movhi
ARM GAS  C:\Users\49542\AppData\Local\Temp\ccEPk6Rd.s 			page 40


 570:C:/Users/49542/Desktop/GD32F30x_Demo_Suites_V2.0.0/GD32F30x_Demo_Suites_V2.0.0/GD32F30x_Firmware_Library/GD32F30x_standard_peripheral/Source\gd32f30x_fmc.c ****     temp_wp1 = (uint16_t)((ob_wp & OB_WP1_WP1) >> 8U);
 1690              		.loc 1 570 0
 1691 0022 7B68     		ldr	r3, [r7, #4]
 1692 0024 1B0A     		lsrs	r3, r3, #8
 1693 0026 9BB2     		uxth	r3, r3
 1694 0028 DBB2     		uxtb	r3, r3
 1695 002a 7B82     		strh	r3, [r7, #18]	@ movhi
 571:C:/Users/49542/Desktop/GD32F30x_Demo_Suites_V2.0.0/GD32F30x_Demo_Suites_V2.0.0/GD32F30x_Firmware_Library/GD32F30x_standard_peripheral/Source\gd32f30x_fmc.c ****     temp_wp2 = (uint16_t)((ob_wp & OB_WP2_WP2) >> 16U);
 1696              		.loc 1 571 0
 1697 002c 7B68     		ldr	r3, [r7, #4]
 1698 002e 1B0C     		lsrs	r3, r3, #16
 1699 0030 9BB2     		uxth	r3, r3
 1700 0032 DBB2     		uxtb	r3, r3
 1701 0034 3B82     		strh	r3, [r7, #16]	@ movhi
 572:C:/Users/49542/Desktop/GD32F30x_Demo_Suites_V2.0.0/GD32F30x_Demo_Suites_V2.0.0/GD32F30x_Firmware_Library/GD32F30x_standard_peripheral/Source\gd32f30x_fmc.c ****     temp_wp3 = (uint16_t)((ob_wp & OB_WP3_WP3) >> 24U);
 1702              		.loc 1 572 0
 1703 0036 7B68     		ldr	r3, [r7, #4]
 1704 0038 1B0E     		lsrs	r3, r3, #24
 1705 003a FB81     		strh	r3, [r7, #14]	@ movhi
 573:C:/Users/49542/Desktop/GD32F30x_Demo_Suites_V2.0.0/GD32F30x_Demo_Suites_V2.0.0/GD32F30x_Firmware_Library/GD32F30x_standard_peripheral/Source\gd32f30x_fmc.c **** 
 574:C:/Users/49542/Desktop/GD32F30x_Demo_Suites_V2.0.0/GD32F30x_Demo_Suites_V2.0.0/GD32F30x_Firmware_Library/GD32F30x_standard_peripheral/Source\gd32f30x_fmc.c ****     if(FMC_READY == fmc_state){
 1706              		.loc 1 574 0
 1707 003c FB7D     		ldrb	r3, [r7, #23]	@ zero_extendqisi2
 1708 003e 002B     		cmp	r3, #0
 1709 0040 47D1     		bne	.L103
 575:C:/Users/49542/Desktop/GD32F30x_Demo_Suites_V2.0.0/GD32F30x_Demo_Suites_V2.0.0/GD32F30x_Firmware_Library/GD32F30x_standard_peripheral/Source\gd32f30x_fmc.c ****     
 576:C:/Users/49542/Desktop/GD32F30x_Demo_Suites_V2.0.0/GD32F30x_Demo_Suites_V2.0.0/GD32F30x_Firmware_Library/GD32F30x_standard_peripheral/Source\gd32f30x_fmc.c ****         /* set the OBPG bit*/
 577:C:/Users/49542/Desktop/GD32F30x_Demo_Suites_V2.0.0/GD32F30x_Demo_Suites_V2.0.0/GD32F30x_Firmware_Library/GD32F30x_standard_peripheral/Source\gd32f30x_fmc.c ****         FMC_CTL0 |= FMC_CTL0_OBPG;
 1710              		.loc 1 577 0
 1711 0042 264B     		ldr	r3, .L109
 1712 0044 1B68     		ldr	r3, [r3]
 1713 0046 254A     		ldr	r2, .L109
 1714 0048 43F01003 		orr	r3, r3, #16
 1715 004c 1360     		str	r3, [r2]
 578:C:/Users/49542/Desktop/GD32F30x_Demo_Suites_V2.0.0/GD32F30x_Demo_Suites_V2.0.0/GD32F30x_Firmware_Library/GD32F30x_standard_peripheral/Source\gd32f30x_fmc.c **** 
 579:C:/Users/49542/Desktop/GD32F30x_Demo_Suites_V2.0.0/GD32F30x_Demo_Suites_V2.0.0/GD32F30x_Firmware_Library/GD32F30x_standard_peripheral/Source\gd32f30x_fmc.c ****         if(0xFFU != temp_wp0){
 1716              		.loc 1 579 0
 1717 004e BB8A     		ldrh	r3, [r7, #20]
 1718 0050 FF2B     		cmp	r3, #255
 1719 0052 08D0     		beq	.L104
 580:C:/Users/49542/Desktop/GD32F30x_Demo_Suites_V2.0.0/GD32F30x_Demo_Suites_V2.0.0/GD32F30x_Firmware_Library/GD32F30x_standard_peripheral/Source\gd32f30x_fmc.c ****             OB_WP0 = temp_wp0;
 1720              		.loc 1 580 0
 1721 0054 224A     		ldr	r2, .L109+4
 1722 0056 BB8A     		ldrh	r3, [r7, #20]	@ movhi
 1723 0058 1380     		strh	r3, [r2]	@ movhi
 581:C:/Users/49542/Desktop/GD32F30x_Demo_Suites_V2.0.0/GD32F30x_Demo_Suites_V2.0.0/GD32F30x_Firmware_Library/GD32F30x_standard_peripheral/Source\gd32f30x_fmc.c ****       
 582:C:/Users/49542/Desktop/GD32F30x_Demo_Suites_V2.0.0/GD32F30x_Demo_Suites_V2.0.0/GD32F30x_Firmware_Library/GD32F30x_standard_peripheral/Source\gd32f30x_fmc.c ****             /* wait for the FMC ready */
 583:C:/Users/49542/Desktop/GD32F30x_Demo_Suites_V2.0.0/GD32F30x_Demo_Suites_V2.0.0/GD32F30x_Firmware_Library/GD32F30x_standard_peripheral/Source\gd32f30x_fmc.c ****             fmc_state = fmc_bank0_ready_wait(FMC_TIMEOUT_COUNT);
 1724              		.loc 1 583 0
 1725 005a 4FF47020 		mov	r0, #983040
 1726 005e FFF7FEFF 		bl	fmc_bank0_ready_wait
 1727 0062 0346     		mov	r3, r0
 1728 0064 FB75     		strb	r3, [r7, #23]
 1729              	.L104:
 584:C:/Users/49542/Desktop/GD32F30x_Demo_Suites_V2.0.0/GD32F30x_Demo_Suites_V2.0.0/GD32F30x_Firmware_Library/GD32F30x_standard_peripheral/Source\gd32f30x_fmc.c ****         }
 585:C:/Users/49542/Desktop/GD32F30x_Demo_Suites_V2.0.0/GD32F30x_Demo_Suites_V2.0.0/GD32F30x_Firmware_Library/GD32F30x_standard_peripheral/Source\gd32f30x_fmc.c ****         if((FMC_READY == fmc_state) && (0xFFU != temp_wp1)){
 1730              		.loc 1 585 0
ARM GAS  C:\Users\49542\AppData\Local\Temp\ccEPk6Rd.s 			page 41


 1731 0066 FB7D     		ldrb	r3, [r7, #23]	@ zero_extendqisi2
 1732 0068 002B     		cmp	r3, #0
 1733 006a 0BD1     		bne	.L105
 1734              		.loc 1 585 0 is_stmt 0 discriminator 1
 1735 006c 7B8A     		ldrh	r3, [r7, #18]
 1736 006e FF2B     		cmp	r3, #255
 1737 0070 08D0     		beq	.L105
 586:C:/Users/49542/Desktop/GD32F30x_Demo_Suites_V2.0.0/GD32F30x_Demo_Suites_V2.0.0/GD32F30x_Firmware_Library/GD32F30x_standard_peripheral/Source\gd32f30x_fmc.c ****             OB_WP1 = temp_wp1;
 1738              		.loc 1 586 0 is_stmt 1
 1739 0072 1C4A     		ldr	r2, .L109+8
 1740 0074 7B8A     		ldrh	r3, [r7, #18]	@ movhi
 1741 0076 1380     		strh	r3, [r2]	@ movhi
 587:C:/Users/49542/Desktop/GD32F30x_Demo_Suites_V2.0.0/GD32F30x_Demo_Suites_V2.0.0/GD32F30x_Firmware_Library/GD32F30x_standard_peripheral/Source\gd32f30x_fmc.c ****       
 588:C:/Users/49542/Desktop/GD32F30x_Demo_Suites_V2.0.0/GD32F30x_Demo_Suites_V2.0.0/GD32F30x_Firmware_Library/GD32F30x_standard_peripheral/Source\gd32f30x_fmc.c ****             /* wait for the FMC ready */
 589:C:/Users/49542/Desktop/GD32F30x_Demo_Suites_V2.0.0/GD32F30x_Demo_Suites_V2.0.0/GD32F30x_Firmware_Library/GD32F30x_standard_peripheral/Source\gd32f30x_fmc.c ****             fmc_state = fmc_bank0_ready_wait(FMC_TIMEOUT_COUNT);
 1742              		.loc 1 589 0
 1743 0078 4FF47020 		mov	r0, #983040
 1744 007c FFF7FEFF 		bl	fmc_bank0_ready_wait
 1745 0080 0346     		mov	r3, r0
 1746 0082 FB75     		strb	r3, [r7, #23]
 1747              	.L105:
 590:C:/Users/49542/Desktop/GD32F30x_Demo_Suites_V2.0.0/GD32F30x_Demo_Suites_V2.0.0/GD32F30x_Firmware_Library/GD32F30x_standard_peripheral/Source\gd32f30x_fmc.c ****         }
 591:C:/Users/49542/Desktop/GD32F30x_Demo_Suites_V2.0.0/GD32F30x_Demo_Suites_V2.0.0/GD32F30x_Firmware_Library/GD32F30x_standard_peripheral/Source\gd32f30x_fmc.c ****         if((FMC_READY == fmc_state) && (0xFFU != temp_wp2)){
 1748              		.loc 1 591 0
 1749 0084 FB7D     		ldrb	r3, [r7, #23]	@ zero_extendqisi2
 1750 0086 002B     		cmp	r3, #0
 1751 0088 0BD1     		bne	.L106
 1752              		.loc 1 591 0 is_stmt 0 discriminator 1
 1753 008a 3B8A     		ldrh	r3, [r7, #16]
 1754 008c FF2B     		cmp	r3, #255
 1755 008e 08D0     		beq	.L106
 592:C:/Users/49542/Desktop/GD32F30x_Demo_Suites_V2.0.0/GD32F30x_Demo_Suites_V2.0.0/GD32F30x_Firmware_Library/GD32F30x_standard_peripheral/Source\gd32f30x_fmc.c ****             OB_WP2 = temp_wp2;
 1756              		.loc 1 592 0 is_stmt 1
 1757 0090 154A     		ldr	r2, .L109+12
 1758 0092 3B8A     		ldrh	r3, [r7, #16]	@ movhi
 1759 0094 1380     		strh	r3, [r2]	@ movhi
 593:C:/Users/49542/Desktop/GD32F30x_Demo_Suites_V2.0.0/GD32F30x_Demo_Suites_V2.0.0/GD32F30x_Firmware_Library/GD32F30x_standard_peripheral/Source\gd32f30x_fmc.c ****       
 594:C:/Users/49542/Desktop/GD32F30x_Demo_Suites_V2.0.0/GD32F30x_Demo_Suites_V2.0.0/GD32F30x_Firmware_Library/GD32F30x_standard_peripheral/Source\gd32f30x_fmc.c ****             /* wait for the FMC ready */
 595:C:/Users/49542/Desktop/GD32F30x_Demo_Suites_V2.0.0/GD32F30x_Demo_Suites_V2.0.0/GD32F30x_Firmware_Library/GD32F30x_standard_peripheral/Source\gd32f30x_fmc.c ****             fmc_state = fmc_bank0_ready_wait(FMC_TIMEOUT_COUNT);
 1760              		.loc 1 595 0
 1761 0096 4FF47020 		mov	r0, #983040
 1762 009a FFF7FEFF 		bl	fmc_bank0_ready_wait
 1763 009e 0346     		mov	r3, r0
 1764 00a0 FB75     		strb	r3, [r7, #23]
 1765              	.L106:
 596:C:/Users/49542/Desktop/GD32F30x_Demo_Suites_V2.0.0/GD32F30x_Demo_Suites_V2.0.0/GD32F30x_Firmware_Library/GD32F30x_standard_peripheral/Source\gd32f30x_fmc.c ****         }
 597:C:/Users/49542/Desktop/GD32F30x_Demo_Suites_V2.0.0/GD32F30x_Demo_Suites_V2.0.0/GD32F30x_Firmware_Library/GD32F30x_standard_peripheral/Source\gd32f30x_fmc.c ****         if((FMC_READY == fmc_state) && (0xFFU != temp_wp3)){
 1766              		.loc 1 597 0
 1767 00a2 FB7D     		ldrb	r3, [r7, #23]	@ zero_extendqisi2
 1768 00a4 002B     		cmp	r3, #0
 1769 00a6 0BD1     		bne	.L107
 1770              		.loc 1 597 0 is_stmt 0 discriminator 1
 1771 00a8 FB89     		ldrh	r3, [r7, #14]
 1772 00aa FF2B     		cmp	r3, #255
 1773 00ac 08D0     		beq	.L107
 598:C:/Users/49542/Desktop/GD32F30x_Demo_Suites_V2.0.0/GD32F30x_Demo_Suites_V2.0.0/GD32F30x_Firmware_Library/GD32F30x_standard_peripheral/Source\gd32f30x_fmc.c ****             OB_WP3 = temp_wp3;
 1774              		.loc 1 598 0 is_stmt 1
ARM GAS  C:\Users\49542\AppData\Local\Temp\ccEPk6Rd.s 			page 42


 1775 00ae 0F4A     		ldr	r2, .L109+16
 1776 00b0 FB89     		ldrh	r3, [r7, #14]	@ movhi
 1777 00b2 1380     		strh	r3, [r2]	@ movhi
 599:C:/Users/49542/Desktop/GD32F30x_Demo_Suites_V2.0.0/GD32F30x_Demo_Suites_V2.0.0/GD32F30x_Firmware_Library/GD32F30x_standard_peripheral/Source\gd32f30x_fmc.c ****       
 600:C:/Users/49542/Desktop/GD32F30x_Demo_Suites_V2.0.0/GD32F30x_Demo_Suites_V2.0.0/GD32F30x_Firmware_Library/GD32F30x_standard_peripheral/Source\gd32f30x_fmc.c ****             /* wait for the FMC ready */
 601:C:/Users/49542/Desktop/GD32F30x_Demo_Suites_V2.0.0/GD32F30x_Demo_Suites_V2.0.0/GD32F30x_Firmware_Library/GD32F30x_standard_peripheral/Source\gd32f30x_fmc.c ****             fmc_state = fmc_bank0_ready_wait(FMC_TIMEOUT_COUNT);
 1778              		.loc 1 601 0
 1779 00b4 4FF47020 		mov	r0, #983040
 1780 00b8 FFF7FEFF 		bl	fmc_bank0_ready_wait
 1781 00bc 0346     		mov	r3, r0
 1782 00be FB75     		strb	r3, [r7, #23]
 1783              	.L107:
 602:C:/Users/49542/Desktop/GD32F30x_Demo_Suites_V2.0.0/GD32F30x_Demo_Suites_V2.0.0/GD32F30x_Firmware_Library/GD32F30x_standard_peripheral/Source\gd32f30x_fmc.c ****         }
 603:C:/Users/49542/Desktop/GD32F30x_Demo_Suites_V2.0.0/GD32F30x_Demo_Suites_V2.0.0/GD32F30x_Firmware_Library/GD32F30x_standard_peripheral/Source\gd32f30x_fmc.c ****         if(FMC_TOERR != fmc_state){
 1784              		.loc 1 603 0
 1785 00c0 FB7D     		ldrb	r3, [r7, #23]	@ zero_extendqisi2
 1786 00c2 042B     		cmp	r3, #4
 1787 00c4 05D0     		beq	.L103
 604:C:/Users/49542/Desktop/GD32F30x_Demo_Suites_V2.0.0/GD32F30x_Demo_Suites_V2.0.0/GD32F30x_Firmware_Library/GD32F30x_standard_peripheral/Source\gd32f30x_fmc.c ****             /* reset the OBPG bit */
 605:C:/Users/49542/Desktop/GD32F30x_Demo_Suites_V2.0.0/GD32F30x_Demo_Suites_V2.0.0/GD32F30x_Firmware_Library/GD32F30x_standard_peripheral/Source\gd32f30x_fmc.c ****             FMC_CTL0 &= ~FMC_CTL0_OBPG;
 1788              		.loc 1 605 0
 1789 00c6 054B     		ldr	r3, .L109
 1790 00c8 1B68     		ldr	r3, [r3]
 1791 00ca 044A     		ldr	r2, .L109
 1792 00cc 23F01003 		bic	r3, r3, #16
 1793 00d0 1360     		str	r3, [r2]
 1794              	.L103:
 606:C:/Users/49542/Desktop/GD32F30x_Demo_Suites_V2.0.0/GD32F30x_Demo_Suites_V2.0.0/GD32F30x_Firmware_Library/GD32F30x_standard_peripheral/Source\gd32f30x_fmc.c ****         }
 607:C:/Users/49542/Desktop/GD32F30x_Demo_Suites_V2.0.0/GD32F30x_Demo_Suites_V2.0.0/GD32F30x_Firmware_Library/GD32F30x_standard_peripheral/Source\gd32f30x_fmc.c ****     } 
 608:C:/Users/49542/Desktop/GD32F30x_Demo_Suites_V2.0.0/GD32F30x_Demo_Suites_V2.0.0/GD32F30x_Firmware_Library/GD32F30x_standard_peripheral/Source\gd32f30x_fmc.c ****     /* return the FMC state */
 609:C:/Users/49542/Desktop/GD32F30x_Demo_Suites_V2.0.0/GD32F30x_Demo_Suites_V2.0.0/GD32F30x_Firmware_Library/GD32F30x_standard_peripheral/Source\gd32f30x_fmc.c ****     return fmc_state;
 1795              		.loc 1 609 0
 1796 00d2 FB7D     		ldrb	r3, [r7, #23]	@ zero_extendqisi2
 610:C:/Users/49542/Desktop/GD32F30x_Demo_Suites_V2.0.0/GD32F30x_Demo_Suites_V2.0.0/GD32F30x_Firmware_Library/GD32F30x_standard_peripheral/Source\gd32f30x_fmc.c **** }
 1797              		.loc 1 610 0
 1798 00d4 1846     		mov	r0, r3
 1799 00d6 1837     		adds	r7, r7, #24
 1800              	.LCFI81:
 1801              		.cfi_def_cfa_offset 8
 1802 00d8 BD46     		mov	sp, r7
 1803              	.LCFI82:
 1804              		.cfi_def_cfa_register 13
 1805              		@ sp needed
 1806 00da 80BD     		pop	{r7, pc}
 1807              	.L110:
 1808              		.align	2
 1809              	.L109:
 1810 00dc 10200240 		.word	1073881104
 1811 00e0 08F8FF1F 		.word	536868872
 1812 00e4 0AF8FF1F 		.word	536868874
 1813 00e8 0CF8FF1F 		.word	536868876
 1814 00ec 0EF8FF1F 		.word	536868878
 1815              		.cfi_endproc
 1816              	.LFE133:
 1818              		.section	.text.ob_security_protection_config,"ax",%progbits
 1819              		.align	1
 1820              		.global	ob_security_protection_config
ARM GAS  C:\Users\49542\AppData\Local\Temp\ccEPk6Rd.s 			page 43


 1821              		.syntax unified
 1822              		.thumb
 1823              		.thumb_func
 1824              		.fpu fpv4-sp-d16
 1826              	ob_security_protection_config:
 1827              	.LFB134:
 611:C:/Users/49542/Desktop/GD32F30x_Demo_Suites_V2.0.0/GD32F30x_Demo_Suites_V2.0.0/GD32F30x_Firmware_Library/GD32F30x_standard_peripheral/Source\gd32f30x_fmc.c **** 
 612:C:/Users/49542/Desktop/GD32F30x_Demo_Suites_V2.0.0/GD32F30x_Demo_Suites_V2.0.0/GD32F30x_Firmware_Library/GD32F30x_standard_peripheral/Source\gd32f30x_fmc.c **** /*!
 613:C:/Users/49542/Desktop/GD32F30x_Demo_Suites_V2.0.0/GD32F30x_Demo_Suites_V2.0.0/GD32F30x_Firmware_Library/GD32F30x_standard_peripheral/Source\gd32f30x_fmc.c ****     \brief      configure security protection
 614:C:/Users/49542/Desktop/GD32F30x_Demo_Suites_V2.0.0/GD32F30x_Demo_Suites_V2.0.0/GD32F30x_Firmware_Library/GD32F30x_standard_peripheral/Source\gd32f30x_fmc.c ****     \param[in]  ob_spc: specify security protection
 615:C:/Users/49542/Desktop/GD32F30x_Demo_Suites_V2.0.0/GD32F30x_Demo_Suites_V2.0.0/GD32F30x_Firmware_Library/GD32F30x_standard_peripheral/Source\gd32f30x_fmc.c ****       \arg        FMC_NSPC: no security protection
 616:C:/Users/49542/Desktop/GD32F30x_Demo_Suites_V2.0.0/GD32F30x_Demo_Suites_V2.0.0/GD32F30x_Firmware_Library/GD32F30x_standard_peripheral/Source\gd32f30x_fmc.c ****       \arg        FMC_USPC: under security protection
 617:C:/Users/49542/Desktop/GD32F30x_Demo_Suites_V2.0.0/GD32F30x_Demo_Suites_V2.0.0/GD32F30x_Firmware_Library/GD32F30x_standard_peripheral/Source\gd32f30x_fmc.c ****     \param[out] none
 618:C:/Users/49542/Desktop/GD32F30x_Demo_Suites_V2.0.0/GD32F30x_Demo_Suites_V2.0.0/GD32F30x_Firmware_Library/GD32F30x_standard_peripheral/Source\gd32f30x_fmc.c ****     \retval     state of FMC, refer to fmc_state_enum
 619:C:/Users/49542/Desktop/GD32F30x_Demo_Suites_V2.0.0/GD32F30x_Demo_Suites_V2.0.0/GD32F30x_Firmware_Library/GD32F30x_standard_peripheral/Source\gd32f30x_fmc.c **** */
 620:C:/Users/49542/Desktop/GD32F30x_Demo_Suites_V2.0.0/GD32F30x_Demo_Suites_V2.0.0/GD32F30x_Firmware_Library/GD32F30x_standard_peripheral/Source\gd32f30x_fmc.c **** fmc_state_enum ob_security_protection_config(uint8_t ob_spc)
 621:C:/Users/49542/Desktop/GD32F30x_Demo_Suites_V2.0.0/GD32F30x_Demo_Suites_V2.0.0/GD32F30x_Firmware_Library/GD32F30x_standard_peripheral/Source\gd32f30x_fmc.c **** {
 1828              		.loc 1 621 0
 1829              		.cfi_startproc
 1830              		@ args = 0, pretend = 0, frame = 16
 1831              		@ frame_needed = 1, uses_anonymous_args = 0
 1832 0000 80B5     		push	{r7, lr}
 1833              	.LCFI83:
 1834              		.cfi_def_cfa_offset 8
 1835              		.cfi_offset 7, -8
 1836              		.cfi_offset 14, -4
 1837 0002 84B0     		sub	sp, sp, #16
 1838              	.LCFI84:
 1839              		.cfi_def_cfa_offset 24
 1840 0004 00AF     		add	r7, sp, #0
 1841              	.LCFI85:
 1842              		.cfi_def_cfa_register 7
 1843 0006 0346     		mov	r3, r0
 1844 0008 FB71     		strb	r3, [r7, #7]
 622:C:/Users/49542/Desktop/GD32F30x_Demo_Suites_V2.0.0/GD32F30x_Demo_Suites_V2.0.0/GD32F30x_Firmware_Library/GD32F30x_standard_peripheral/Source\gd32f30x_fmc.c ****     fmc_state_enum fmc_state = fmc_bank0_ready_wait(FMC_TIMEOUT_COUNT);
 1845              		.loc 1 622 0
 1846 000a 4FF47020 		mov	r0, #983040
 1847 000e FFF7FEFF 		bl	fmc_bank0_ready_wait
 1848 0012 0346     		mov	r3, r0
 1849 0014 FB73     		strb	r3, [r7, #15]
 623:C:/Users/49542/Desktop/GD32F30x_Demo_Suites_V2.0.0/GD32F30x_Demo_Suites_V2.0.0/GD32F30x_Firmware_Library/GD32F30x_standard_peripheral/Source\gd32f30x_fmc.c **** 
 624:C:/Users/49542/Desktop/GD32F30x_Demo_Suites_V2.0.0/GD32F30x_Demo_Suites_V2.0.0/GD32F30x_Firmware_Library/GD32F30x_standard_peripheral/Source\gd32f30x_fmc.c ****     if(FMC_READY == fmc_state){
 1850              		.loc 1 624 0
 1851 0016 FB7B     		ldrb	r3, [r7, #15]	@ zero_extendqisi2
 1852 0018 002B     		cmp	r3, #0
 1853 001a 3DD1     		bne	.L112
 625:C:/Users/49542/Desktop/GD32F30x_Demo_Suites_V2.0.0/GD32F30x_Demo_Suites_V2.0.0/GD32F30x_Firmware_Library/GD32F30x_standard_peripheral/Source\gd32f30x_fmc.c ****         FMC_CTL0 |= FMC_CTL0_OBER;
 1854              		.loc 1 625 0
 1855 001c 214B     		ldr	r3, .L116
 1856 001e 1B68     		ldr	r3, [r3]
 1857 0020 204A     		ldr	r2, .L116
 1858 0022 43F02003 		orr	r3, r3, #32
 1859 0026 1360     		str	r3, [r2]
 626:C:/Users/49542/Desktop/GD32F30x_Demo_Suites_V2.0.0/GD32F30x_Demo_Suites_V2.0.0/GD32F30x_Firmware_Library/GD32F30x_standard_peripheral/Source\gd32f30x_fmc.c ****         FMC_CTL0 |= FMC_CTL0_START;
 1860              		.loc 1 626 0
 1861 0028 1E4B     		ldr	r3, .L116
 1862 002a 1B68     		ldr	r3, [r3]
ARM GAS  C:\Users\49542\AppData\Local\Temp\ccEPk6Rd.s 			page 44


 1863 002c 1D4A     		ldr	r2, .L116
 1864 002e 43F04003 		orr	r3, r3, #64
 1865 0032 1360     		str	r3, [r2]
 627:C:/Users/49542/Desktop/GD32F30x_Demo_Suites_V2.0.0/GD32F30x_Demo_Suites_V2.0.0/GD32F30x_Firmware_Library/GD32F30x_standard_peripheral/Source\gd32f30x_fmc.c ****     
 628:C:/Users/49542/Desktop/GD32F30x_Demo_Suites_V2.0.0/GD32F30x_Demo_Suites_V2.0.0/GD32F30x_Firmware_Library/GD32F30x_standard_peripheral/Source\gd32f30x_fmc.c ****         /* wait for the FMC ready */
 629:C:/Users/49542/Desktop/GD32F30x_Demo_Suites_V2.0.0/GD32F30x_Demo_Suites_V2.0.0/GD32F30x_Firmware_Library/GD32F30x_standard_peripheral/Source\gd32f30x_fmc.c ****         fmc_state = fmc_bank0_ready_wait(FMC_TIMEOUT_COUNT);
 1866              		.loc 1 629 0
 1867 0034 4FF47020 		mov	r0, #983040
 1868 0038 FFF7FEFF 		bl	fmc_bank0_ready_wait
 1869 003c 0346     		mov	r3, r0
 1870 003e FB73     		strb	r3, [r7, #15]
 630:C:/Users/49542/Desktop/GD32F30x_Demo_Suites_V2.0.0/GD32F30x_Demo_Suites_V2.0.0/GD32F30x_Firmware_Library/GD32F30x_standard_peripheral/Source\gd32f30x_fmc.c ****     
 631:C:/Users/49542/Desktop/GD32F30x_Demo_Suites_V2.0.0/GD32F30x_Demo_Suites_V2.0.0/GD32F30x_Firmware_Library/GD32F30x_standard_peripheral/Source\gd32f30x_fmc.c ****         if(FMC_READY == fmc_state){
 1871              		.loc 1 631 0
 1872 0040 FB7B     		ldrb	r3, [r7, #15]	@ zero_extendqisi2
 1873 0042 002B     		cmp	r3, #0
 1874 0044 1FD1     		bne	.L113
 632:C:/Users/49542/Desktop/GD32F30x_Demo_Suites_V2.0.0/GD32F30x_Demo_Suites_V2.0.0/GD32F30x_Firmware_Library/GD32F30x_standard_peripheral/Source\gd32f30x_fmc.c ****             /* reset the OBER bit */
 633:C:/Users/49542/Desktop/GD32F30x_Demo_Suites_V2.0.0/GD32F30x_Demo_Suites_V2.0.0/GD32F30x_Firmware_Library/GD32F30x_standard_peripheral/Source\gd32f30x_fmc.c ****             FMC_CTL0 &= ~FMC_CTL0_OBER;
 1875              		.loc 1 633 0
 1876 0046 174B     		ldr	r3, .L116
 1877 0048 1B68     		ldr	r3, [r3]
 1878 004a 164A     		ldr	r2, .L116
 1879 004c 23F02003 		bic	r3, r3, #32
 1880 0050 1360     		str	r3, [r2]
 634:C:/Users/49542/Desktop/GD32F30x_Demo_Suites_V2.0.0/GD32F30x_Demo_Suites_V2.0.0/GD32F30x_Firmware_Library/GD32F30x_standard_peripheral/Source\gd32f30x_fmc.c ****       
 635:C:/Users/49542/Desktop/GD32F30x_Demo_Suites_V2.0.0/GD32F30x_Demo_Suites_V2.0.0/GD32F30x_Firmware_Library/GD32F30x_standard_peripheral/Source\gd32f30x_fmc.c ****             /* start the option byte program */
 636:C:/Users/49542/Desktop/GD32F30x_Demo_Suites_V2.0.0/GD32F30x_Demo_Suites_V2.0.0/GD32F30x_Firmware_Library/GD32F30x_standard_peripheral/Source\gd32f30x_fmc.c ****             FMC_CTL0 |= FMC_CTL0_OBPG;
 1881              		.loc 1 636 0
 1882 0052 144B     		ldr	r3, .L116
 1883 0054 1B68     		ldr	r3, [r3]
 1884 0056 134A     		ldr	r2, .L116
 1885 0058 43F01003 		orr	r3, r3, #16
 1886 005c 1360     		str	r3, [r2]
 637:C:/Users/49542/Desktop/GD32F30x_Demo_Suites_V2.0.0/GD32F30x_Demo_Suites_V2.0.0/GD32F30x_Firmware_Library/GD32F30x_standard_peripheral/Source\gd32f30x_fmc.c ****        
 638:C:/Users/49542/Desktop/GD32F30x_Demo_Suites_V2.0.0/GD32F30x_Demo_Suites_V2.0.0/GD32F30x_Firmware_Library/GD32F30x_standard_peripheral/Source\gd32f30x_fmc.c ****             OB_SPC = (uint16_t)ob_spc;
 1887              		.loc 1 638 0
 1888 005e 124B     		ldr	r3, .L116+4
 1889 0060 FA79     		ldrb	r2, [r7, #7]	@ zero_extendqisi2
 1890 0062 92B2     		uxth	r2, r2
 1891 0064 1A80     		strh	r2, [r3]	@ movhi
 639:C:/Users/49542/Desktop/GD32F30x_Demo_Suites_V2.0.0/GD32F30x_Demo_Suites_V2.0.0/GD32F30x_Firmware_Library/GD32F30x_standard_peripheral/Source\gd32f30x_fmc.c **** 
 640:C:/Users/49542/Desktop/GD32F30x_Demo_Suites_V2.0.0/GD32F30x_Demo_Suites_V2.0.0/GD32F30x_Firmware_Library/GD32F30x_standard_peripheral/Source\gd32f30x_fmc.c ****             /* wait for the FMC ready */
 641:C:/Users/49542/Desktop/GD32F30x_Demo_Suites_V2.0.0/GD32F30x_Demo_Suites_V2.0.0/GD32F30x_Firmware_Library/GD32F30x_standard_peripheral/Source\gd32f30x_fmc.c ****             fmc_state = fmc_bank0_ready_wait(FMC_TIMEOUT_COUNT); 
 1892              		.loc 1 641 0
 1893 0066 4FF47020 		mov	r0, #983040
 1894 006a FFF7FEFF 		bl	fmc_bank0_ready_wait
 1895 006e 0346     		mov	r3, r0
 1896 0070 FB73     		strb	r3, [r7, #15]
 642:C:/Users/49542/Desktop/GD32F30x_Demo_Suites_V2.0.0/GD32F30x_Demo_Suites_V2.0.0/GD32F30x_Firmware_Library/GD32F30x_standard_peripheral/Source\gd32f30x_fmc.c ****     
 643:C:/Users/49542/Desktop/GD32F30x_Demo_Suites_V2.0.0/GD32F30x_Demo_Suites_V2.0.0/GD32F30x_Firmware_Library/GD32F30x_standard_peripheral/Source\gd32f30x_fmc.c ****             if(FMC_TOERR != fmc_state){
 1897              		.loc 1 643 0
 1898 0072 FB7B     		ldrb	r3, [r7, #15]	@ zero_extendqisi2
 1899 0074 042B     		cmp	r3, #4
 1900 0076 0FD0     		beq	.L112
 644:C:/Users/49542/Desktop/GD32F30x_Demo_Suites_V2.0.0/GD32F30x_Demo_Suites_V2.0.0/GD32F30x_Firmware_Library/GD32F30x_standard_peripheral/Source\gd32f30x_fmc.c ****                 /* reset the OBPG bit */
 645:C:/Users/49542/Desktop/GD32F30x_Demo_Suites_V2.0.0/GD32F30x_Demo_Suites_V2.0.0/GD32F30x_Firmware_Library/GD32F30x_standard_peripheral/Source\gd32f30x_fmc.c ****                 FMC_CTL0 &= ~FMC_CTL0_OBPG;
ARM GAS  C:\Users\49542\AppData\Local\Temp\ccEPk6Rd.s 			page 45


 1901              		.loc 1 645 0
 1902 0078 0A4B     		ldr	r3, .L116
 1903 007a 1B68     		ldr	r3, [r3]
 1904 007c 094A     		ldr	r2, .L116
 1905 007e 23F01003 		bic	r3, r3, #16
 1906 0082 1360     		str	r3, [r2]
 1907 0084 08E0     		b	.L112
 1908              	.L113:
 646:C:/Users/49542/Desktop/GD32F30x_Demo_Suites_V2.0.0/GD32F30x_Demo_Suites_V2.0.0/GD32F30x_Firmware_Library/GD32F30x_standard_peripheral/Source\gd32f30x_fmc.c ****             }
 647:C:/Users/49542/Desktop/GD32F30x_Demo_Suites_V2.0.0/GD32F30x_Demo_Suites_V2.0.0/GD32F30x_Firmware_Library/GD32F30x_standard_peripheral/Source\gd32f30x_fmc.c ****         }else{
 648:C:/Users/49542/Desktop/GD32F30x_Demo_Suites_V2.0.0/GD32F30x_Demo_Suites_V2.0.0/GD32F30x_Firmware_Library/GD32F30x_standard_peripheral/Source\gd32f30x_fmc.c ****             if(FMC_TOERR != fmc_state){
 1909              		.loc 1 648 0
 1910 0086 FB7B     		ldrb	r3, [r7, #15]	@ zero_extendqisi2
 1911 0088 042B     		cmp	r3, #4
 1912 008a 05D0     		beq	.L112
 649:C:/Users/49542/Desktop/GD32F30x_Demo_Suites_V2.0.0/GD32F30x_Demo_Suites_V2.0.0/GD32F30x_Firmware_Library/GD32F30x_standard_peripheral/Source\gd32f30x_fmc.c ****                 /* reset the OBER bit */
 650:C:/Users/49542/Desktop/GD32F30x_Demo_Suites_V2.0.0/GD32F30x_Demo_Suites_V2.0.0/GD32F30x_Firmware_Library/GD32F30x_standard_peripheral/Source\gd32f30x_fmc.c ****                 FMC_CTL0 &= ~FMC_CTL0_OBER;
 1913              		.loc 1 650 0
 1914 008c 054B     		ldr	r3, .L116
 1915 008e 1B68     		ldr	r3, [r3]
 1916 0090 044A     		ldr	r2, .L116
 1917 0092 23F02003 		bic	r3, r3, #32
 1918 0096 1360     		str	r3, [r2]
 1919              	.L112:
 651:C:/Users/49542/Desktop/GD32F30x_Demo_Suites_V2.0.0/GD32F30x_Demo_Suites_V2.0.0/GD32F30x_Firmware_Library/GD32F30x_standard_peripheral/Source\gd32f30x_fmc.c ****             }
 652:C:/Users/49542/Desktop/GD32F30x_Demo_Suites_V2.0.0/GD32F30x_Demo_Suites_V2.0.0/GD32F30x_Firmware_Library/GD32F30x_standard_peripheral/Source\gd32f30x_fmc.c ****         }
 653:C:/Users/49542/Desktop/GD32F30x_Demo_Suites_V2.0.0/GD32F30x_Demo_Suites_V2.0.0/GD32F30x_Firmware_Library/GD32F30x_standard_peripheral/Source\gd32f30x_fmc.c ****     }
 654:C:/Users/49542/Desktop/GD32F30x_Demo_Suites_V2.0.0/GD32F30x_Demo_Suites_V2.0.0/GD32F30x_Firmware_Library/GD32F30x_standard_peripheral/Source\gd32f30x_fmc.c ****     /* return the FMC state */
 655:C:/Users/49542/Desktop/GD32F30x_Demo_Suites_V2.0.0/GD32F30x_Demo_Suites_V2.0.0/GD32F30x_Firmware_Library/GD32F30x_standard_peripheral/Source\gd32f30x_fmc.c ****     return fmc_state;
 1920              		.loc 1 655 0
 1921 0098 FB7B     		ldrb	r3, [r7, #15]	@ zero_extendqisi2
 656:C:/Users/49542/Desktop/GD32F30x_Demo_Suites_V2.0.0/GD32F30x_Demo_Suites_V2.0.0/GD32F30x_Firmware_Library/GD32F30x_standard_peripheral/Source\gd32f30x_fmc.c **** }
 1922              		.loc 1 656 0
 1923 009a 1846     		mov	r0, r3
 1924 009c 1037     		adds	r7, r7, #16
 1925              	.LCFI86:
 1926              		.cfi_def_cfa_offset 8
 1927 009e BD46     		mov	sp, r7
 1928              	.LCFI87:
 1929              		.cfi_def_cfa_register 13
 1930              		@ sp needed
 1931 00a0 80BD     		pop	{r7, pc}
 1932              	.L117:
 1933 00a2 00BF     		.align	2
 1934              	.L116:
 1935 00a4 10200240 		.word	1073881104
 1936 00a8 00F8FF1F 		.word	536868864
 1937              		.cfi_endproc
 1938              	.LFE134:
 1940              		.section	.text.ob_user_write,"ax",%progbits
 1941              		.align	1
 1942              		.global	ob_user_write
 1943              		.syntax unified
 1944              		.thumb
 1945              		.thumb_func
 1946              		.fpu fpv4-sp-d16
 1948              	ob_user_write:
ARM GAS  C:\Users\49542\AppData\Local\Temp\ccEPk6Rd.s 			page 46


 1949              	.LFB135:
 657:C:/Users/49542/Desktop/GD32F30x_Demo_Suites_V2.0.0/GD32F30x_Demo_Suites_V2.0.0/GD32F30x_Firmware_Library/GD32F30x_standard_peripheral/Source\gd32f30x_fmc.c **** 
 658:C:/Users/49542/Desktop/GD32F30x_Demo_Suites_V2.0.0/GD32F30x_Demo_Suites_V2.0.0/GD32F30x_Firmware_Library/GD32F30x_standard_peripheral/Source\gd32f30x_fmc.c **** /*!
 659:C:/Users/49542/Desktop/GD32F30x_Demo_Suites_V2.0.0/GD32F30x_Demo_Suites_V2.0.0/GD32F30x_Firmware_Library/GD32F30x_standard_peripheral/Source\gd32f30x_fmc.c ****     \brief      program the FMC user option byte 
 660:C:/Users/49542/Desktop/GD32F30x_Demo_Suites_V2.0.0/GD32F30x_Demo_Suites_V2.0.0/GD32F30x_Firmware_Library/GD32F30x_standard_peripheral/Source\gd32f30x_fmc.c ****     \param[in]  ob_fwdgt: option byte watchdog value
 661:C:/Users/49542/Desktop/GD32F30x_Demo_Suites_V2.0.0/GD32F30x_Demo_Suites_V2.0.0/GD32F30x_Firmware_Library/GD32F30x_standard_peripheral/Source\gd32f30x_fmc.c ****       \arg        OB_FWDGT_SW: software free watchdog
 662:C:/Users/49542/Desktop/GD32F30x_Demo_Suites_V2.0.0/GD32F30x_Demo_Suites_V2.0.0/GD32F30x_Firmware_Library/GD32F30x_standard_peripheral/Source\gd32f30x_fmc.c ****       \arg        OB_FWDGT_HW: hardware free watchdog
 663:C:/Users/49542/Desktop/GD32F30x_Demo_Suites_V2.0.0/GD32F30x_Demo_Suites_V2.0.0/GD32F30x_Firmware_Library/GD32F30x_standard_peripheral/Source\gd32f30x_fmc.c ****     \param[in]  ob_deepsleep: option byte deepsleep reset value
 664:C:/Users/49542/Desktop/GD32F30x_Demo_Suites_V2.0.0/GD32F30x_Demo_Suites_V2.0.0/GD32F30x_Firmware_Library/GD32F30x_standard_peripheral/Source\gd32f30x_fmc.c ****       \arg        OB_DEEPSLEEP_NRST: no reset when entering deepsleep mode
 665:C:/Users/49542/Desktop/GD32F30x_Demo_Suites_V2.0.0/GD32F30x_Demo_Suites_V2.0.0/GD32F30x_Firmware_Library/GD32F30x_standard_peripheral/Source\gd32f30x_fmc.c ****       \arg        OB_DEEPSLEEP_RST: generate a reset instead of entering deepsleep mode 
 666:C:/Users/49542/Desktop/GD32F30x_Demo_Suites_V2.0.0/GD32F30x_Demo_Suites_V2.0.0/GD32F30x_Firmware_Library/GD32F30x_standard_peripheral/Source\gd32f30x_fmc.c ****     \param[in]  ob_stdby:option byte standby reset value
 667:C:/Users/49542/Desktop/GD32F30x_Demo_Suites_V2.0.0/GD32F30x_Demo_Suites_V2.0.0/GD32F30x_Firmware_Library/GD32F30x_standard_peripheral/Source\gd32f30x_fmc.c ****       \arg        OB_STDBY_NRST: no reset when entering standby mode
 668:C:/Users/49542/Desktop/GD32F30x_Demo_Suites_V2.0.0/GD32F30x_Demo_Suites_V2.0.0/GD32F30x_Firmware_Library/GD32F30x_standard_peripheral/Source\gd32f30x_fmc.c ****       \arg        OB_STDBY_RST: generate a reset instead of entering standby mode
 669:C:/Users/49542/Desktop/GD32F30x_Demo_Suites_V2.0.0/GD32F30x_Demo_Suites_V2.0.0/GD32F30x_Firmware_Library/GD32F30x_standard_peripheral/Source\gd32f30x_fmc.c ****     \param[in]  ob_boot: specifies the option byte boot bank value
 670:C:/Users/49542/Desktop/GD32F30x_Demo_Suites_V2.0.0/GD32F30x_Demo_Suites_V2.0.0/GD32F30x_Firmware_Library/GD32F30x_standard_peripheral/Source\gd32f30x_fmc.c ****       \arg        OB_BOOT_B0: boot from bank0
 671:C:/Users/49542/Desktop/GD32F30x_Demo_Suites_V2.0.0/GD32F30x_Demo_Suites_V2.0.0/GD32F30x_Firmware_Library/GD32F30x_standard_peripheral/Source\gd32f30x_fmc.c ****       \arg        OB_BOOT_B1: boot from bank1 or bank0 if bank1 is void
 672:C:/Users/49542/Desktop/GD32F30x_Demo_Suites_V2.0.0/GD32F30x_Demo_Suites_V2.0.0/GD32F30x_Firmware_Library/GD32F30x_standard_peripheral/Source\gd32f30x_fmc.c ****     \param[out] none
 673:C:/Users/49542/Desktop/GD32F30x_Demo_Suites_V2.0.0/GD32F30x_Demo_Suites_V2.0.0/GD32F30x_Firmware_Library/GD32F30x_standard_peripheral/Source\gd32f30x_fmc.c ****     \retval     state of FMC, refer to fmc_state_enum
 674:C:/Users/49542/Desktop/GD32F30x_Demo_Suites_V2.0.0/GD32F30x_Demo_Suites_V2.0.0/GD32F30x_Firmware_Library/GD32F30x_standard_peripheral/Source\gd32f30x_fmc.c **** */
 675:C:/Users/49542/Desktop/GD32F30x_Demo_Suites_V2.0.0/GD32F30x_Demo_Suites_V2.0.0/GD32F30x_Firmware_Library/GD32F30x_standard_peripheral/Source\gd32f30x_fmc.c **** fmc_state_enum ob_user_write(uint8_t ob_fwdgt, uint8_t ob_deepsleep, uint8_t ob_stdby, uint8_t ob_b
 676:C:/Users/49542/Desktop/GD32F30x_Demo_Suites_V2.0.0/GD32F30x_Demo_Suites_V2.0.0/GD32F30x_Firmware_Library/GD32F30x_standard_peripheral/Source\gd32f30x_fmc.c **** {
 1950              		.loc 1 676 0
 1951              		.cfi_startproc
 1952              		@ args = 0, pretend = 0, frame = 16
 1953              		@ frame_needed = 1, uses_anonymous_args = 0
 1954 0000 90B5     		push	{r4, r7, lr}
 1955              	.LCFI88:
 1956              		.cfi_def_cfa_offset 12
 1957              		.cfi_offset 4, -12
 1958              		.cfi_offset 7, -8
 1959              		.cfi_offset 14, -4
 1960 0002 85B0     		sub	sp, sp, #20
 1961              	.LCFI89:
 1962              		.cfi_def_cfa_offset 32
 1963 0004 00AF     		add	r7, sp, #0
 1964              	.LCFI90:
 1965              		.cfi_def_cfa_register 7
 1966 0006 0446     		mov	r4, r0
 1967 0008 0846     		mov	r0, r1
 1968 000a 1146     		mov	r1, r2
 1969 000c 1A46     		mov	r2, r3
 1970 000e 2346     		mov	r3, r4
 1971 0010 FB71     		strb	r3, [r7, #7]
 1972 0012 0346     		mov	r3, r0
 1973 0014 BB71     		strb	r3, [r7, #6]
 1974 0016 0B46     		mov	r3, r1
 1975 0018 7B71     		strb	r3, [r7, #5]
 1976 001a 1346     		mov	r3, r2
 1977 001c 3B71     		strb	r3, [r7, #4]
 677:C:/Users/49542/Desktop/GD32F30x_Demo_Suites_V2.0.0/GD32F30x_Demo_Suites_V2.0.0/GD32F30x_Firmware_Library/GD32F30x_standard_peripheral/Source\gd32f30x_fmc.c ****     fmc_state_enum fmc_state = FMC_READY;
 1978              		.loc 1 677 0
 1979 001e 0023     		movs	r3, #0
 1980 0020 FB73     		strb	r3, [r7, #15]
 678:C:/Users/49542/Desktop/GD32F30x_Demo_Suites_V2.0.0/GD32F30x_Demo_Suites_V2.0.0/GD32F30x_Firmware_Library/GD32F30x_standard_peripheral/Source\gd32f30x_fmc.c ****     uint8_t temp;
 679:C:/Users/49542/Desktop/GD32F30x_Demo_Suites_V2.0.0/GD32F30x_Demo_Suites_V2.0.0/GD32F30x_Firmware_Library/GD32F30x_standard_peripheral/Source\gd32f30x_fmc.c **** 
 680:C:/Users/49542/Desktop/GD32F30x_Demo_Suites_V2.0.0/GD32F30x_Demo_Suites_V2.0.0/GD32F30x_Firmware_Library/GD32F30x_standard_peripheral/Source\gd32f30x_fmc.c ****     /* wait for the FMC ready */
 681:C:/Users/49542/Desktop/GD32F30x_Demo_Suites_V2.0.0/GD32F30x_Demo_Suites_V2.0.0/GD32F30x_Firmware_Library/GD32F30x_standard_peripheral/Source\gd32f30x_fmc.c ****     fmc_state = fmc_bank0_ready_wait(FMC_TIMEOUT_COUNT);
ARM GAS  C:\Users\49542\AppData\Local\Temp\ccEPk6Rd.s 			page 47


 1981              		.loc 1 681 0
 1982 0022 4FF47020 		mov	r0, #983040
 1983 0026 FFF7FEFF 		bl	fmc_bank0_ready_wait
 1984 002a 0346     		mov	r3, r0
 1985 002c FB73     		strb	r3, [r7, #15]
 682:C:/Users/49542/Desktop/GD32F30x_Demo_Suites_V2.0.0/GD32F30x_Demo_Suites_V2.0.0/GD32F30x_Firmware_Library/GD32F30x_standard_peripheral/Source\gd32f30x_fmc.c ****   
 683:C:/Users/49542/Desktop/GD32F30x_Demo_Suites_V2.0.0/GD32F30x_Demo_Suites_V2.0.0/GD32F30x_Firmware_Library/GD32F30x_standard_peripheral/Source\gd32f30x_fmc.c ****     if(FMC_READY == fmc_state){
 1986              		.loc 1 683 0
 1987 002e FB7B     		ldrb	r3, [r7, #15]	@ zero_extendqisi2
 1988 0030 002B     		cmp	r3, #0
 1989 0032 25D1     		bne	.L119
 684:C:/Users/49542/Desktop/GD32F30x_Demo_Suites_V2.0.0/GD32F30x_Demo_Suites_V2.0.0/GD32F30x_Firmware_Library/GD32F30x_standard_peripheral/Source\gd32f30x_fmc.c ****         /* set the OBPG bit*/
 685:C:/Users/49542/Desktop/GD32F30x_Demo_Suites_V2.0.0/GD32F30x_Demo_Suites_V2.0.0/GD32F30x_Firmware_Library/GD32F30x_standard_peripheral/Source\gd32f30x_fmc.c ****         FMC_CTL0 |= FMC_CTL0_OBPG; 
 1990              		.loc 1 685 0
 1991 0034 154B     		ldr	r3, .L121
 1992 0036 1B68     		ldr	r3, [r3]
 1993 0038 144A     		ldr	r2, .L121
 1994 003a 43F01003 		orr	r3, r3, #16
 1995 003e 1360     		str	r3, [r2]
 686:C:/Users/49542/Desktop/GD32F30x_Demo_Suites_V2.0.0/GD32F30x_Demo_Suites_V2.0.0/GD32F30x_Firmware_Library/GD32F30x_standard_peripheral/Source\gd32f30x_fmc.c **** 
 687:C:/Users/49542/Desktop/GD32F30x_Demo_Suites_V2.0.0/GD32F30x_Demo_Suites_V2.0.0/GD32F30x_Firmware_Library/GD32F30x_standard_peripheral/Source\gd32f30x_fmc.c ****         temp = ((uint8_t)((uint8_t)((uint8_t)(ob_boot | ob_fwdgt) | ob_deepsleep) | ob_stdby) | OB_
 1996              		.loc 1 687 0
 1997 0040 3A79     		ldrb	r2, [r7, #4]
 1998 0042 FB79     		ldrb	r3, [r7, #7]
 1999 0044 1343     		orrs	r3, r3, r2
 2000 0046 DAB2     		uxtb	r2, r3
 2001 0048 BB79     		ldrb	r3, [r7, #6]
 2002 004a 1343     		orrs	r3, r3, r2
 2003 004c DAB2     		uxtb	r2, r3
 2004 004e 7B79     		ldrb	r3, [r7, #5]
 2005 0050 1343     		orrs	r3, r3, r2
 2006 0052 DBB2     		uxtb	r3, r3
 2007 0054 63F00F03 		orn	r3, r3, #15
 2008 0058 BB73     		strb	r3, [r7, #14]
 688:C:/Users/49542/Desktop/GD32F30x_Demo_Suites_V2.0.0/GD32F30x_Demo_Suites_V2.0.0/GD32F30x_Firmware_Library/GD32F30x_standard_peripheral/Source\gd32f30x_fmc.c ****         OB_USER = (uint16_t)temp;
 2009              		.loc 1 688 0
 2010 005a 0D4B     		ldr	r3, .L121+4
 2011 005c BA7B     		ldrb	r2, [r7, #14]	@ zero_extendqisi2
 2012 005e 92B2     		uxth	r2, r2
 2013 0060 1A80     		strh	r2, [r3]	@ movhi
 689:C:/Users/49542/Desktop/GD32F30x_Demo_Suites_V2.0.0/GD32F30x_Demo_Suites_V2.0.0/GD32F30x_Firmware_Library/GD32F30x_standard_peripheral/Source\gd32f30x_fmc.c ****     
 690:C:/Users/49542/Desktop/GD32F30x_Demo_Suites_V2.0.0/GD32F30x_Demo_Suites_V2.0.0/GD32F30x_Firmware_Library/GD32F30x_standard_peripheral/Source\gd32f30x_fmc.c ****         /* wait for the FMC ready */
 691:C:/Users/49542/Desktop/GD32F30x_Demo_Suites_V2.0.0/GD32F30x_Demo_Suites_V2.0.0/GD32F30x_Firmware_Library/GD32F30x_standard_peripheral/Source\gd32f30x_fmc.c ****         fmc_state = fmc_bank0_ready_wait(FMC_TIMEOUT_COUNT);
 2014              		.loc 1 691 0
 2015 0062 4FF47020 		mov	r0, #983040
 2016 0066 FFF7FEFF 		bl	fmc_bank0_ready_wait
 2017 006a 0346     		mov	r3, r0
 2018 006c FB73     		strb	r3, [r7, #15]
 692:C:/Users/49542/Desktop/GD32F30x_Demo_Suites_V2.0.0/GD32F30x_Demo_Suites_V2.0.0/GD32F30x_Firmware_Library/GD32F30x_standard_peripheral/Source\gd32f30x_fmc.c **** 
 693:C:/Users/49542/Desktop/GD32F30x_Demo_Suites_V2.0.0/GD32F30x_Demo_Suites_V2.0.0/GD32F30x_Firmware_Library/GD32F30x_standard_peripheral/Source\gd32f30x_fmc.c ****         if(FMC_TOERR != fmc_state){
 2019              		.loc 1 693 0
 2020 006e FB7B     		ldrb	r3, [r7, #15]	@ zero_extendqisi2
 2021 0070 042B     		cmp	r3, #4
 2022 0072 05D0     		beq	.L119
 694:C:/Users/49542/Desktop/GD32F30x_Demo_Suites_V2.0.0/GD32F30x_Demo_Suites_V2.0.0/GD32F30x_Firmware_Library/GD32F30x_standard_peripheral/Source\gd32f30x_fmc.c ****             /* reset the OBPG bit */
 695:C:/Users/49542/Desktop/GD32F30x_Demo_Suites_V2.0.0/GD32F30x_Demo_Suites_V2.0.0/GD32F30x_Firmware_Library/GD32F30x_standard_peripheral/Source\gd32f30x_fmc.c ****             FMC_CTL0 &= ~FMC_CTL0_OBPG;
 2023              		.loc 1 695 0
ARM GAS  C:\Users\49542\AppData\Local\Temp\ccEPk6Rd.s 			page 48


 2024 0074 054B     		ldr	r3, .L121
 2025 0076 1B68     		ldr	r3, [r3]
 2026 0078 044A     		ldr	r2, .L121
 2027 007a 23F01003 		bic	r3, r3, #16
 2028 007e 1360     		str	r3, [r2]
 2029              	.L119:
 696:C:/Users/49542/Desktop/GD32F30x_Demo_Suites_V2.0.0/GD32F30x_Demo_Suites_V2.0.0/GD32F30x_Firmware_Library/GD32F30x_standard_peripheral/Source\gd32f30x_fmc.c ****         }
 697:C:/Users/49542/Desktop/GD32F30x_Demo_Suites_V2.0.0/GD32F30x_Demo_Suites_V2.0.0/GD32F30x_Firmware_Library/GD32F30x_standard_peripheral/Source\gd32f30x_fmc.c ****     }
 698:C:/Users/49542/Desktop/GD32F30x_Demo_Suites_V2.0.0/GD32F30x_Demo_Suites_V2.0.0/GD32F30x_Firmware_Library/GD32F30x_standard_peripheral/Source\gd32f30x_fmc.c ****     /* return the FMC state */
 699:C:/Users/49542/Desktop/GD32F30x_Demo_Suites_V2.0.0/GD32F30x_Demo_Suites_V2.0.0/GD32F30x_Firmware_Library/GD32F30x_standard_peripheral/Source\gd32f30x_fmc.c ****     return fmc_state;
 2030              		.loc 1 699 0
 2031 0080 FB7B     		ldrb	r3, [r7, #15]	@ zero_extendqisi2
 700:C:/Users/49542/Desktop/GD32F30x_Demo_Suites_V2.0.0/GD32F30x_Demo_Suites_V2.0.0/GD32F30x_Firmware_Library/GD32F30x_standard_peripheral/Source\gd32f30x_fmc.c **** }
 2032              		.loc 1 700 0
 2033 0082 1846     		mov	r0, r3
 2034 0084 1437     		adds	r7, r7, #20
 2035              	.LCFI91:
 2036              		.cfi_def_cfa_offset 12
 2037 0086 BD46     		mov	sp, r7
 2038              	.LCFI92:
 2039              		.cfi_def_cfa_register 13
 2040              		@ sp needed
 2041 0088 90BD     		pop	{r4, r7, pc}
 2042              	.L122:
 2043 008a 00BF     		.align	2
 2044              	.L121:
 2045 008c 10200240 		.word	1073881104
 2046 0090 02F8FF1F 		.word	536868866
 2047              		.cfi_endproc
 2048              	.LFE135:
 2050              		.section	.text.ob_data_program,"ax",%progbits
 2051              		.align	1
 2052              		.global	ob_data_program
 2053              		.syntax unified
 2054              		.thumb
 2055              		.thumb_func
 2056              		.fpu fpv4-sp-d16
 2058              	ob_data_program:
 2059              	.LFB136:
 701:C:/Users/49542/Desktop/GD32F30x_Demo_Suites_V2.0.0/GD32F30x_Demo_Suites_V2.0.0/GD32F30x_Firmware_Library/GD32F30x_standard_peripheral/Source\gd32f30x_fmc.c **** 
 702:C:/Users/49542/Desktop/GD32F30x_Demo_Suites_V2.0.0/GD32F30x_Demo_Suites_V2.0.0/GD32F30x_Firmware_Library/GD32F30x_standard_peripheral/Source\gd32f30x_fmc.c **** /*!
 703:C:/Users/49542/Desktop/GD32F30x_Demo_Suites_V2.0.0/GD32F30x_Demo_Suites_V2.0.0/GD32F30x_Firmware_Library/GD32F30x_standard_peripheral/Source\gd32f30x_fmc.c ****     \brief      program option bytes data
 704:C:/Users/49542/Desktop/GD32F30x_Demo_Suites_V2.0.0/GD32F30x_Demo_Suites_V2.0.0/GD32F30x_Firmware_Library/GD32F30x_standard_peripheral/Source\gd32f30x_fmc.c ****     \param[in]  address: the option bytes address to be programmed
 705:C:/Users/49542/Desktop/GD32F30x_Demo_Suites_V2.0.0/GD32F30x_Demo_Suites_V2.0.0/GD32F30x_Firmware_Library/GD32F30x_standard_peripheral/Source\gd32f30x_fmc.c ****     \param[in]  data: the byte to be programmed
 706:C:/Users/49542/Desktop/GD32F30x_Demo_Suites_V2.0.0/GD32F30x_Demo_Suites_V2.0.0/GD32F30x_Firmware_Library/GD32F30x_standard_peripheral/Source\gd32f30x_fmc.c ****     \param[out] none
 707:C:/Users/49542/Desktop/GD32F30x_Demo_Suites_V2.0.0/GD32F30x_Demo_Suites_V2.0.0/GD32F30x_Firmware_Library/GD32F30x_standard_peripheral/Source\gd32f30x_fmc.c ****     \retval     state of FMC, refer to fmc_state_enum
 708:C:/Users/49542/Desktop/GD32F30x_Demo_Suites_V2.0.0/GD32F30x_Demo_Suites_V2.0.0/GD32F30x_Firmware_Library/GD32F30x_standard_peripheral/Source\gd32f30x_fmc.c **** */
 709:C:/Users/49542/Desktop/GD32F30x_Demo_Suites_V2.0.0/GD32F30x_Demo_Suites_V2.0.0/GD32F30x_Firmware_Library/GD32F30x_standard_peripheral/Source\gd32f30x_fmc.c **** fmc_state_enum ob_data_program(uint32_t address, uint8_t data)
 710:C:/Users/49542/Desktop/GD32F30x_Demo_Suites_V2.0.0/GD32F30x_Demo_Suites_V2.0.0/GD32F30x_Firmware_Library/GD32F30x_standard_peripheral/Source\gd32f30x_fmc.c **** {
 2060              		.loc 1 710 0
 2061              		.cfi_startproc
 2062              		@ args = 0, pretend = 0, frame = 16
 2063              		@ frame_needed = 1, uses_anonymous_args = 0
 2064 0000 80B5     		push	{r7, lr}
 2065              	.LCFI93:
 2066              		.cfi_def_cfa_offset 8
 2067              		.cfi_offset 7, -8
ARM GAS  C:\Users\49542\AppData\Local\Temp\ccEPk6Rd.s 			page 49


 2068              		.cfi_offset 14, -4
 2069 0002 84B0     		sub	sp, sp, #16
 2070              	.LCFI94:
 2071              		.cfi_def_cfa_offset 24
 2072 0004 00AF     		add	r7, sp, #0
 2073              	.LCFI95:
 2074              		.cfi_def_cfa_register 7
 2075 0006 7860     		str	r0, [r7, #4]
 2076 0008 0B46     		mov	r3, r1
 2077 000a FB70     		strb	r3, [r7, #3]
 711:C:/Users/49542/Desktop/GD32F30x_Demo_Suites_V2.0.0/GD32F30x_Demo_Suites_V2.0.0/GD32F30x_Firmware_Library/GD32F30x_standard_peripheral/Source\gd32f30x_fmc.c ****     fmc_state_enum fmc_state = fmc_bank0_ready_wait(FMC_TIMEOUT_COUNT);
 2078              		.loc 1 711 0
 2079 000c 4FF47020 		mov	r0, #983040
 2080 0010 FFF7FEFF 		bl	fmc_bank0_ready_wait
 2081 0014 0346     		mov	r3, r0
 2082 0016 FB73     		strb	r3, [r7, #15]
 712:C:/Users/49542/Desktop/GD32F30x_Demo_Suites_V2.0.0/GD32F30x_Demo_Suites_V2.0.0/GD32F30x_Firmware_Library/GD32F30x_standard_peripheral/Source\gd32f30x_fmc.c **** 
 713:C:/Users/49542/Desktop/GD32F30x_Demo_Suites_V2.0.0/GD32F30x_Demo_Suites_V2.0.0/GD32F30x_Firmware_Library/GD32F30x_standard_peripheral/Source\gd32f30x_fmc.c ****     if(FMC_READY == fmc_state){
 2083              		.loc 1 713 0
 2084 0018 FB7B     		ldrb	r3, [r7, #15]	@ zero_extendqisi2
 2085 001a 002B     		cmp	r3, #0
 2086 001c 18D1     		bne	.L124
 714:C:/Users/49542/Desktop/GD32F30x_Demo_Suites_V2.0.0/GD32F30x_Demo_Suites_V2.0.0/GD32F30x_Firmware_Library/GD32F30x_standard_peripheral/Source\gd32f30x_fmc.c ****         /* set the OBPG bit */
 715:C:/Users/49542/Desktop/GD32F30x_Demo_Suites_V2.0.0/GD32F30x_Demo_Suites_V2.0.0/GD32F30x_Firmware_Library/GD32F30x_standard_peripheral/Source\gd32f30x_fmc.c ****         FMC_CTL0 |= FMC_CTL0_OBPG; 
 2087              		.loc 1 715 0
 2088 001e 0F4B     		ldr	r3, .L126
 2089 0020 1B68     		ldr	r3, [r3]
 2090 0022 0E4A     		ldr	r2, .L126
 2091 0024 43F01003 		orr	r3, r3, #16
 2092 0028 1360     		str	r3, [r2]
 716:C:/Users/49542/Desktop/GD32F30x_Demo_Suites_V2.0.0/GD32F30x_Demo_Suites_V2.0.0/GD32F30x_Firmware_Library/GD32F30x_standard_peripheral/Source\gd32f30x_fmc.c ****         REG16(address) = data;
 2093              		.loc 1 716 0
 2094 002a 7B68     		ldr	r3, [r7, #4]
 2095 002c FA78     		ldrb	r2, [r7, #3]	@ zero_extendqisi2
 2096 002e 92B2     		uxth	r2, r2
 2097 0030 1A80     		strh	r2, [r3]	@ movhi
 717:C:/Users/49542/Desktop/GD32F30x_Demo_Suites_V2.0.0/GD32F30x_Demo_Suites_V2.0.0/GD32F30x_Firmware_Library/GD32F30x_standard_peripheral/Source\gd32f30x_fmc.c ****     
 718:C:/Users/49542/Desktop/GD32F30x_Demo_Suites_V2.0.0/GD32F30x_Demo_Suites_V2.0.0/GD32F30x_Firmware_Library/GD32F30x_standard_peripheral/Source\gd32f30x_fmc.c ****         /* wait for the FMC ready */
 719:C:/Users/49542/Desktop/GD32F30x_Demo_Suites_V2.0.0/GD32F30x_Demo_Suites_V2.0.0/GD32F30x_Firmware_Library/GD32F30x_standard_peripheral/Source\gd32f30x_fmc.c ****         fmc_state = fmc_bank0_ready_wait(FMC_TIMEOUT_COUNT);
 2098              		.loc 1 719 0
 2099 0032 4FF47020 		mov	r0, #983040
 2100 0036 FFF7FEFF 		bl	fmc_bank0_ready_wait
 2101 003a 0346     		mov	r3, r0
 2102 003c FB73     		strb	r3, [r7, #15]
 720:C:/Users/49542/Desktop/GD32F30x_Demo_Suites_V2.0.0/GD32F30x_Demo_Suites_V2.0.0/GD32F30x_Firmware_Library/GD32F30x_standard_peripheral/Source\gd32f30x_fmc.c ****     
 721:C:/Users/49542/Desktop/GD32F30x_Demo_Suites_V2.0.0/GD32F30x_Demo_Suites_V2.0.0/GD32F30x_Firmware_Library/GD32F30x_standard_peripheral/Source\gd32f30x_fmc.c ****         if(FMC_TOERR != fmc_state){
 2103              		.loc 1 721 0
 2104 003e FB7B     		ldrb	r3, [r7, #15]	@ zero_extendqisi2
 2105 0040 042B     		cmp	r3, #4
 2106 0042 05D0     		beq	.L124
 722:C:/Users/49542/Desktop/GD32F30x_Demo_Suites_V2.0.0/GD32F30x_Demo_Suites_V2.0.0/GD32F30x_Firmware_Library/GD32F30x_standard_peripheral/Source\gd32f30x_fmc.c ****             /* reset the OBPG bit */
 723:C:/Users/49542/Desktop/GD32F30x_Demo_Suites_V2.0.0/GD32F30x_Demo_Suites_V2.0.0/GD32F30x_Firmware_Library/GD32F30x_standard_peripheral/Source\gd32f30x_fmc.c ****             FMC_CTL0 &= ~FMC_CTL0_OBPG;
 2107              		.loc 1 723 0
 2108 0044 054B     		ldr	r3, .L126
 2109 0046 1B68     		ldr	r3, [r3]
 2110 0048 044A     		ldr	r2, .L126
 2111 004a 23F01003 		bic	r3, r3, #16
ARM GAS  C:\Users\49542\AppData\Local\Temp\ccEPk6Rd.s 			page 50


 2112 004e 1360     		str	r3, [r2]
 2113              	.L124:
 724:C:/Users/49542/Desktop/GD32F30x_Demo_Suites_V2.0.0/GD32F30x_Demo_Suites_V2.0.0/GD32F30x_Firmware_Library/GD32F30x_standard_peripheral/Source\gd32f30x_fmc.c ****         }
 725:C:/Users/49542/Desktop/GD32F30x_Demo_Suites_V2.0.0/GD32F30x_Demo_Suites_V2.0.0/GD32F30x_Firmware_Library/GD32F30x_standard_peripheral/Source\gd32f30x_fmc.c ****     }
 726:C:/Users/49542/Desktop/GD32F30x_Demo_Suites_V2.0.0/GD32F30x_Demo_Suites_V2.0.0/GD32F30x_Firmware_Library/GD32F30x_standard_peripheral/Source\gd32f30x_fmc.c ****     /* return the FMC state */
 727:C:/Users/49542/Desktop/GD32F30x_Demo_Suites_V2.0.0/GD32F30x_Demo_Suites_V2.0.0/GD32F30x_Firmware_Library/GD32F30x_standard_peripheral/Source\gd32f30x_fmc.c ****     return fmc_state;
 2114              		.loc 1 727 0
 2115 0050 FB7B     		ldrb	r3, [r7, #15]	@ zero_extendqisi2
 728:C:/Users/49542/Desktop/GD32F30x_Demo_Suites_V2.0.0/GD32F30x_Demo_Suites_V2.0.0/GD32F30x_Firmware_Library/GD32F30x_standard_peripheral/Source\gd32f30x_fmc.c **** }
 2116              		.loc 1 728 0
 2117 0052 1846     		mov	r0, r3
 2118 0054 1037     		adds	r7, r7, #16
 2119              	.LCFI96:
 2120              		.cfi_def_cfa_offset 8
 2121 0056 BD46     		mov	sp, r7
 2122              	.LCFI97:
 2123              		.cfi_def_cfa_register 13
 2124              		@ sp needed
 2125 0058 80BD     		pop	{r7, pc}
 2126              	.L127:
 2127 005a 00BF     		.align	2
 2128              	.L126:
 2129 005c 10200240 		.word	1073881104
 2130              		.cfi_endproc
 2131              	.LFE136:
 2133              		.section	.text.ob_user_get,"ax",%progbits
 2134              		.align	1
 2135              		.global	ob_user_get
 2136              		.syntax unified
 2137              		.thumb
 2138              		.thumb_func
 2139              		.fpu fpv4-sp-d16
 2141              	ob_user_get:
 2142              	.LFB137:
 729:C:/Users/49542/Desktop/GD32F30x_Demo_Suites_V2.0.0/GD32F30x_Demo_Suites_V2.0.0/GD32F30x_Firmware_Library/GD32F30x_standard_peripheral/Source\gd32f30x_fmc.c **** 
 730:C:/Users/49542/Desktop/GD32F30x_Demo_Suites_V2.0.0/GD32F30x_Demo_Suites_V2.0.0/GD32F30x_Firmware_Library/GD32F30x_standard_peripheral/Source\gd32f30x_fmc.c **** /*!
 731:C:/Users/49542/Desktop/GD32F30x_Demo_Suites_V2.0.0/GD32F30x_Demo_Suites_V2.0.0/GD32F30x_Firmware_Library/GD32F30x_standard_peripheral/Source\gd32f30x_fmc.c ****     \brief      get the FMC user option byte
 732:C:/Users/49542/Desktop/GD32F30x_Demo_Suites_V2.0.0/GD32F30x_Demo_Suites_V2.0.0/GD32F30x_Firmware_Library/GD32F30x_standard_peripheral/Source\gd32f30x_fmc.c ****     \param[in]  none
 733:C:/Users/49542/Desktop/GD32F30x_Demo_Suites_V2.0.0/GD32F30x_Demo_Suites_V2.0.0/GD32F30x_Firmware_Library/GD32F30x_standard_peripheral/Source\gd32f30x_fmc.c ****     \param[out] none
 734:C:/Users/49542/Desktop/GD32F30x_Demo_Suites_V2.0.0/GD32F30x_Demo_Suites_V2.0.0/GD32F30x_Firmware_Library/GD32F30x_standard_peripheral/Source\gd32f30x_fmc.c ****     \retval     the FMC user option byte values
 735:C:/Users/49542/Desktop/GD32F30x_Demo_Suites_V2.0.0/GD32F30x_Demo_Suites_V2.0.0/GD32F30x_Firmware_Library/GD32F30x_standard_peripheral/Source\gd32f30x_fmc.c **** */
 736:C:/Users/49542/Desktop/GD32F30x_Demo_Suites_V2.0.0/GD32F30x_Demo_Suites_V2.0.0/GD32F30x_Firmware_Library/GD32F30x_standard_peripheral/Source\gd32f30x_fmc.c **** uint8_t ob_user_get(void)
 737:C:/Users/49542/Desktop/GD32F30x_Demo_Suites_V2.0.0/GD32F30x_Demo_Suites_V2.0.0/GD32F30x_Firmware_Library/GD32F30x_standard_peripheral/Source\gd32f30x_fmc.c **** {
 2143              		.loc 1 737 0
 2144              		.cfi_startproc
 2145              		@ args = 0, pretend = 0, frame = 0
 2146              		@ frame_needed = 1, uses_anonymous_args = 0
 2147              		@ link register save eliminated.
 2148 0000 80B4     		push	{r7}
 2149              	.LCFI98:
 2150              		.cfi_def_cfa_offset 4
 2151              		.cfi_offset 7, -4
 2152 0002 00AF     		add	r7, sp, #0
 2153              	.LCFI99:
 2154              		.cfi_def_cfa_register 7
 738:C:/Users/49542/Desktop/GD32F30x_Demo_Suites_V2.0.0/GD32F30x_Demo_Suites_V2.0.0/GD32F30x_Firmware_Library/GD32F30x_standard_peripheral/Source\gd32f30x_fmc.c ****     /* return the FMC user option byte value */
 739:C:/Users/49542/Desktop/GD32F30x_Demo_Suites_V2.0.0/GD32F30x_Demo_Suites_V2.0.0/GD32F30x_Firmware_Library/GD32F30x_standard_peripheral/Source\gd32f30x_fmc.c ****     return (uint8_t)(FMC_OBSTAT >> 2U);
ARM GAS  C:\Users\49542\AppData\Local\Temp\ccEPk6Rd.s 			page 51


 2155              		.loc 1 739 0
 2156 0004 044B     		ldr	r3, .L130
 2157 0006 1B68     		ldr	r3, [r3]
 2158 0008 9B08     		lsrs	r3, r3, #2
 2159 000a DBB2     		uxtb	r3, r3
 740:C:/Users/49542/Desktop/GD32F30x_Demo_Suites_V2.0.0/GD32F30x_Demo_Suites_V2.0.0/GD32F30x_Firmware_Library/GD32F30x_standard_peripheral/Source\gd32f30x_fmc.c **** }
 2160              		.loc 1 740 0
 2161 000c 1846     		mov	r0, r3
 2162 000e BD46     		mov	sp, r7
 2163              	.LCFI100:
 2164              		.cfi_def_cfa_register 13
 2165              		@ sp needed
 2166 0010 5DF8047B 		ldr	r7, [sp], #4
 2167              	.LCFI101:
 2168              		.cfi_restore 7
 2169              		.cfi_def_cfa_offset 0
 2170 0014 7047     		bx	lr
 2171              	.L131:
 2172 0016 00BF     		.align	2
 2173              	.L130:
 2174 0018 1C200240 		.word	1073881116
 2175              		.cfi_endproc
 2176              	.LFE137:
 2178              		.section	.text.ob_data_get,"ax",%progbits
 2179              		.align	1
 2180              		.global	ob_data_get
 2181              		.syntax unified
 2182              		.thumb
 2183              		.thumb_func
 2184              		.fpu fpv4-sp-d16
 2186              	ob_data_get:
 2187              	.LFB138:
 741:C:/Users/49542/Desktop/GD32F30x_Demo_Suites_V2.0.0/GD32F30x_Demo_Suites_V2.0.0/GD32F30x_Firmware_Library/GD32F30x_standard_peripheral/Source\gd32f30x_fmc.c **** 
 742:C:/Users/49542/Desktop/GD32F30x_Demo_Suites_V2.0.0/GD32F30x_Demo_Suites_V2.0.0/GD32F30x_Firmware_Library/GD32F30x_standard_peripheral/Source\gd32f30x_fmc.c **** /*!
 743:C:/Users/49542/Desktop/GD32F30x_Demo_Suites_V2.0.0/GD32F30x_Demo_Suites_V2.0.0/GD32F30x_Firmware_Library/GD32F30x_standard_peripheral/Source\gd32f30x_fmc.c ****     \brief      get OB_DATA in register FMC_OBSTAT
 744:C:/Users/49542/Desktop/GD32F30x_Demo_Suites_V2.0.0/GD32F30x_Demo_Suites_V2.0.0/GD32F30x_Firmware_Library/GD32F30x_standard_peripheral/Source\gd32f30x_fmc.c ****     \param[in]  none
 745:C:/Users/49542/Desktop/GD32F30x_Demo_Suites_V2.0.0/GD32F30x_Demo_Suites_V2.0.0/GD32F30x_Firmware_Library/GD32F30x_standard_peripheral/Source\gd32f30x_fmc.c ****     \param[out] none
 746:C:/Users/49542/Desktop/GD32F30x_Demo_Suites_V2.0.0/GD32F30x_Demo_Suites_V2.0.0/GD32F30x_Firmware_Library/GD32F30x_standard_peripheral/Source\gd32f30x_fmc.c ****     \retval     ob_data
 747:C:/Users/49542/Desktop/GD32F30x_Demo_Suites_V2.0.0/GD32F30x_Demo_Suites_V2.0.0/GD32F30x_Firmware_Library/GD32F30x_standard_peripheral/Source\gd32f30x_fmc.c **** */
 748:C:/Users/49542/Desktop/GD32F30x_Demo_Suites_V2.0.0/GD32F30x_Demo_Suites_V2.0.0/GD32F30x_Firmware_Library/GD32F30x_standard_peripheral/Source\gd32f30x_fmc.c **** uint16_t ob_data_get(void)
 749:C:/Users/49542/Desktop/GD32F30x_Demo_Suites_V2.0.0/GD32F30x_Demo_Suites_V2.0.0/GD32F30x_Firmware_Library/GD32F30x_standard_peripheral/Source\gd32f30x_fmc.c **** {
 2188              		.loc 1 749 0
 2189              		.cfi_startproc
 2190              		@ args = 0, pretend = 0, frame = 0
 2191              		@ frame_needed = 1, uses_anonymous_args = 0
 2192              		@ link register save eliminated.
 2193 0000 80B4     		push	{r7}
 2194              	.LCFI102:
 2195              		.cfi_def_cfa_offset 4
 2196              		.cfi_offset 7, -4
 2197 0002 00AF     		add	r7, sp, #0
 2198              	.LCFI103:
 2199              		.cfi_def_cfa_register 7
 750:C:/Users/49542/Desktop/GD32F30x_Demo_Suites_V2.0.0/GD32F30x_Demo_Suites_V2.0.0/GD32F30x_Firmware_Library/GD32F30x_standard_peripheral/Source\gd32f30x_fmc.c ****     return (uint16_t)(FMC_OBSTAT >> 10U);
 2200              		.loc 1 750 0
 2201 0004 044B     		ldr	r3, .L134
 2202 0006 1B68     		ldr	r3, [r3]
ARM GAS  C:\Users\49542\AppData\Local\Temp\ccEPk6Rd.s 			page 52


 2203 0008 9B0A     		lsrs	r3, r3, #10
 2204 000a 9BB2     		uxth	r3, r3
 751:C:/Users/49542/Desktop/GD32F30x_Demo_Suites_V2.0.0/GD32F30x_Demo_Suites_V2.0.0/GD32F30x_Firmware_Library/GD32F30x_standard_peripheral/Source\gd32f30x_fmc.c **** }
 2205              		.loc 1 751 0
 2206 000c 1846     		mov	r0, r3
 2207 000e BD46     		mov	sp, r7
 2208              	.LCFI104:
 2209              		.cfi_def_cfa_register 13
 2210              		@ sp needed
 2211 0010 5DF8047B 		ldr	r7, [sp], #4
 2212              	.LCFI105:
 2213              		.cfi_restore 7
 2214              		.cfi_def_cfa_offset 0
 2215 0014 7047     		bx	lr
 2216              	.L135:
 2217 0016 00BF     		.align	2
 2218              	.L134:
 2219 0018 1C200240 		.word	1073881116
 2220              		.cfi_endproc
 2221              	.LFE138:
 2223              		.section	.text.ob_write_protection_get,"ax",%progbits
 2224              		.align	1
 2225              		.global	ob_write_protection_get
 2226              		.syntax unified
 2227              		.thumb
 2228              		.thumb_func
 2229              		.fpu fpv4-sp-d16
 2231              	ob_write_protection_get:
 2232              	.LFB139:
 752:C:/Users/49542/Desktop/GD32F30x_Demo_Suites_V2.0.0/GD32F30x_Demo_Suites_V2.0.0/GD32F30x_Firmware_Library/GD32F30x_standard_peripheral/Source\gd32f30x_fmc.c **** 
 753:C:/Users/49542/Desktop/GD32F30x_Demo_Suites_V2.0.0/GD32F30x_Demo_Suites_V2.0.0/GD32F30x_Firmware_Library/GD32F30x_standard_peripheral/Source\gd32f30x_fmc.c **** /*!
 754:C:/Users/49542/Desktop/GD32F30x_Demo_Suites_V2.0.0/GD32F30x_Demo_Suites_V2.0.0/GD32F30x_Firmware_Library/GD32F30x_standard_peripheral/Source\gd32f30x_fmc.c ****     \brief      get the FMC option byte write protection
 755:C:/Users/49542/Desktop/GD32F30x_Demo_Suites_V2.0.0/GD32F30x_Demo_Suites_V2.0.0/GD32F30x_Firmware_Library/GD32F30x_standard_peripheral/Source\gd32f30x_fmc.c ****     \param[in]  none
 756:C:/Users/49542/Desktop/GD32F30x_Demo_Suites_V2.0.0/GD32F30x_Demo_Suites_V2.0.0/GD32F30x_Firmware_Library/GD32F30x_standard_peripheral/Source\gd32f30x_fmc.c ****     \param[out] none
 757:C:/Users/49542/Desktop/GD32F30x_Demo_Suites_V2.0.0/GD32F30x_Demo_Suites_V2.0.0/GD32F30x_Firmware_Library/GD32F30x_standard_peripheral/Source\gd32f30x_fmc.c ****     \retval     the FMC write protection option byte value
 758:C:/Users/49542/Desktop/GD32F30x_Demo_Suites_V2.0.0/GD32F30x_Demo_Suites_V2.0.0/GD32F30x_Firmware_Library/GD32F30x_standard_peripheral/Source\gd32f30x_fmc.c **** */
 759:C:/Users/49542/Desktop/GD32F30x_Demo_Suites_V2.0.0/GD32F30x_Demo_Suites_V2.0.0/GD32F30x_Firmware_Library/GD32F30x_standard_peripheral/Source\gd32f30x_fmc.c **** uint32_t ob_write_protection_get(void)
 760:C:/Users/49542/Desktop/GD32F30x_Demo_Suites_V2.0.0/GD32F30x_Demo_Suites_V2.0.0/GD32F30x_Firmware_Library/GD32F30x_standard_peripheral/Source\gd32f30x_fmc.c **** {
 2233              		.loc 1 760 0
 2234              		.cfi_startproc
 2235              		@ args = 0, pretend = 0, frame = 0
 2236              		@ frame_needed = 1, uses_anonymous_args = 0
 2237              		@ link register save eliminated.
 2238 0000 80B4     		push	{r7}
 2239              	.LCFI106:
 2240              		.cfi_def_cfa_offset 4
 2241              		.cfi_offset 7, -4
 2242 0002 00AF     		add	r7, sp, #0
 2243              	.LCFI107:
 2244              		.cfi_def_cfa_register 7
 761:C:/Users/49542/Desktop/GD32F30x_Demo_Suites_V2.0.0/GD32F30x_Demo_Suites_V2.0.0/GD32F30x_Firmware_Library/GD32F30x_standard_peripheral/Source\gd32f30x_fmc.c ****     /* return the FMC write protection option byte value */
 762:C:/Users/49542/Desktop/GD32F30x_Demo_Suites_V2.0.0/GD32F30x_Demo_Suites_V2.0.0/GD32F30x_Firmware_Library/GD32F30x_standard_peripheral/Source\gd32f30x_fmc.c ****     return FMC_WP;
 2245              		.loc 1 762 0
 2246 0004 034B     		ldr	r3, .L138
 2247 0006 1B68     		ldr	r3, [r3]
 763:C:/Users/49542/Desktop/GD32F30x_Demo_Suites_V2.0.0/GD32F30x_Demo_Suites_V2.0.0/GD32F30x_Firmware_Library/GD32F30x_standard_peripheral/Source\gd32f30x_fmc.c **** }
 2248              		.loc 1 763 0
ARM GAS  C:\Users\49542\AppData\Local\Temp\ccEPk6Rd.s 			page 53


 2249 0008 1846     		mov	r0, r3
 2250 000a BD46     		mov	sp, r7
 2251              	.LCFI108:
 2252              		.cfi_def_cfa_register 13
 2253              		@ sp needed
 2254 000c 5DF8047B 		ldr	r7, [sp], #4
 2255              	.LCFI109:
 2256              		.cfi_restore 7
 2257              		.cfi_def_cfa_offset 0
 2258 0010 7047     		bx	lr
 2259              	.L139:
 2260 0012 00BF     		.align	2
 2261              	.L138:
 2262 0014 20200240 		.word	1073881120
 2263              		.cfi_endproc
 2264              	.LFE139:
 2266              		.section	.text.ob_spc_get,"ax",%progbits
 2267              		.align	1
 2268              		.global	ob_spc_get
 2269              		.syntax unified
 2270              		.thumb
 2271              		.thumb_func
 2272              		.fpu fpv4-sp-d16
 2274              	ob_spc_get:
 2275              	.LFB140:
 764:C:/Users/49542/Desktop/GD32F30x_Demo_Suites_V2.0.0/GD32F30x_Demo_Suites_V2.0.0/GD32F30x_Firmware_Library/GD32F30x_standard_peripheral/Source\gd32f30x_fmc.c **** 
 765:C:/Users/49542/Desktop/GD32F30x_Demo_Suites_V2.0.0/GD32F30x_Demo_Suites_V2.0.0/GD32F30x_Firmware_Library/GD32F30x_standard_peripheral/Source\gd32f30x_fmc.c **** /*!
 766:C:/Users/49542/Desktop/GD32F30x_Demo_Suites_V2.0.0/GD32F30x_Demo_Suites_V2.0.0/GD32F30x_Firmware_Library/GD32F30x_standard_peripheral/Source\gd32f30x_fmc.c ****     \brief      get the FMC option byte security protection
 767:C:/Users/49542/Desktop/GD32F30x_Demo_Suites_V2.0.0/GD32F30x_Demo_Suites_V2.0.0/GD32F30x_Firmware_Library/GD32F30x_standard_peripheral/Source\gd32f30x_fmc.c ****     \param[in]  none
 768:C:/Users/49542/Desktop/GD32F30x_Demo_Suites_V2.0.0/GD32F30x_Demo_Suites_V2.0.0/GD32F30x_Firmware_Library/GD32F30x_standard_peripheral/Source\gd32f30x_fmc.c ****     \param[out] none
 769:C:/Users/49542/Desktop/GD32F30x_Demo_Suites_V2.0.0/GD32F30x_Demo_Suites_V2.0.0/GD32F30x_Firmware_Library/GD32F30x_standard_peripheral/Source\gd32f30x_fmc.c ****     \retval     FlagStatus: SET or RESET
 770:C:/Users/49542/Desktop/GD32F30x_Demo_Suites_V2.0.0/GD32F30x_Demo_Suites_V2.0.0/GD32F30x_Firmware_Library/GD32F30x_standard_peripheral/Source\gd32f30x_fmc.c **** */
 771:C:/Users/49542/Desktop/GD32F30x_Demo_Suites_V2.0.0/GD32F30x_Demo_Suites_V2.0.0/GD32F30x_Firmware_Library/GD32F30x_standard_peripheral/Source\gd32f30x_fmc.c **** FlagStatus ob_spc_get(void)
 772:C:/Users/49542/Desktop/GD32F30x_Demo_Suites_V2.0.0/GD32F30x_Demo_Suites_V2.0.0/GD32F30x_Firmware_Library/GD32F30x_standard_peripheral/Source\gd32f30x_fmc.c **** {
 2276              		.loc 1 772 0
 2277              		.cfi_startproc
 2278              		@ args = 0, pretend = 0, frame = 8
 2279              		@ frame_needed = 1, uses_anonymous_args = 0
 2280              		@ link register save eliminated.
 2281 0000 80B4     		push	{r7}
 2282              	.LCFI110:
 2283              		.cfi_def_cfa_offset 4
 2284              		.cfi_offset 7, -4
 2285 0002 83B0     		sub	sp, sp, #12
 2286              	.LCFI111:
 2287              		.cfi_def_cfa_offset 16
 2288 0004 00AF     		add	r7, sp, #0
 2289              	.LCFI112:
 2290              		.cfi_def_cfa_register 7
 773:C:/Users/49542/Desktop/GD32F30x_Demo_Suites_V2.0.0/GD32F30x_Demo_Suites_V2.0.0/GD32F30x_Firmware_Library/GD32F30x_standard_peripheral/Source\gd32f30x_fmc.c ****     FlagStatus spc_state = RESET;
 2291              		.loc 1 773 0
 2292 0006 0023     		movs	r3, #0
 2293 0008 FB71     		strb	r3, [r7, #7]
 774:C:/Users/49542/Desktop/GD32F30x_Demo_Suites_V2.0.0/GD32F30x_Demo_Suites_V2.0.0/GD32F30x_Firmware_Library/GD32F30x_standard_peripheral/Source\gd32f30x_fmc.c **** 
 775:C:/Users/49542/Desktop/GD32F30x_Demo_Suites_V2.0.0/GD32F30x_Demo_Suites_V2.0.0/GD32F30x_Firmware_Library/GD32F30x_standard_peripheral/Source\gd32f30x_fmc.c ****     if(RESET != (FMC_OBSTAT & FMC_OBSTAT_SPC)){
 2294              		.loc 1 775 0
 2295 000a 094B     		ldr	r3, .L144
ARM GAS  C:\Users\49542\AppData\Local\Temp\ccEPk6Rd.s 			page 54


 2296 000c 1B68     		ldr	r3, [r3]
 2297 000e 03F00203 		and	r3, r3, #2
 2298 0012 002B     		cmp	r3, #0
 2299 0014 02D0     		beq	.L141
 776:C:/Users/49542/Desktop/GD32F30x_Demo_Suites_V2.0.0/GD32F30x_Demo_Suites_V2.0.0/GD32F30x_Firmware_Library/GD32F30x_standard_peripheral/Source\gd32f30x_fmc.c ****         spc_state = SET;
 2300              		.loc 1 776 0
 2301 0016 0123     		movs	r3, #1
 2302 0018 FB71     		strb	r3, [r7, #7]
 2303 001a 01E0     		b	.L142
 2304              	.L141:
 777:C:/Users/49542/Desktop/GD32F30x_Demo_Suites_V2.0.0/GD32F30x_Demo_Suites_V2.0.0/GD32F30x_Firmware_Library/GD32F30x_standard_peripheral/Source\gd32f30x_fmc.c ****     }else{
 778:C:/Users/49542/Desktop/GD32F30x_Demo_Suites_V2.0.0/GD32F30x_Demo_Suites_V2.0.0/GD32F30x_Firmware_Library/GD32F30x_standard_peripheral/Source\gd32f30x_fmc.c ****         spc_state = RESET;
 2305              		.loc 1 778 0
 2306 001c 0023     		movs	r3, #0
 2307 001e FB71     		strb	r3, [r7, #7]
 2308              	.L142:
 779:C:/Users/49542/Desktop/GD32F30x_Demo_Suites_V2.0.0/GD32F30x_Demo_Suites_V2.0.0/GD32F30x_Firmware_Library/GD32F30x_standard_peripheral/Source\gd32f30x_fmc.c ****     }
 780:C:/Users/49542/Desktop/GD32F30x_Demo_Suites_V2.0.0/GD32F30x_Demo_Suites_V2.0.0/GD32F30x_Firmware_Library/GD32F30x_standard_peripheral/Source\gd32f30x_fmc.c ****     return spc_state;
 2309              		.loc 1 780 0
 2310 0020 FB79     		ldrb	r3, [r7, #7]	@ zero_extendqisi2
 781:C:/Users/49542/Desktop/GD32F30x_Demo_Suites_V2.0.0/GD32F30x_Demo_Suites_V2.0.0/GD32F30x_Firmware_Library/GD32F30x_standard_peripheral/Source\gd32f30x_fmc.c **** }
 2311              		.loc 1 781 0
 2312 0022 1846     		mov	r0, r3
 2313 0024 0C37     		adds	r7, r7, #12
 2314              	.LCFI113:
 2315              		.cfi_def_cfa_offset 4
 2316 0026 BD46     		mov	sp, r7
 2317              	.LCFI114:
 2318              		.cfi_def_cfa_register 13
 2319              		@ sp needed
 2320 0028 5DF8047B 		ldr	r7, [sp], #4
 2321              	.LCFI115:
 2322              		.cfi_restore 7
 2323              		.cfi_def_cfa_offset 0
 2324 002c 7047     		bx	lr
 2325              	.L145:
 2326 002e 00BF     		.align	2
 2327              	.L144:
 2328 0030 1C200240 		.word	1073881116
 2329              		.cfi_endproc
 2330              	.LFE140:
 2332              		.section	.text.fmc_interrupt_enable,"ax",%progbits
 2333              		.align	1
 2334              		.global	fmc_interrupt_enable
 2335              		.syntax unified
 2336              		.thumb
 2337              		.thumb_func
 2338              		.fpu fpv4-sp-d16
 2340              	fmc_interrupt_enable:
 2341              	.LFB141:
 782:C:/Users/49542/Desktop/GD32F30x_Demo_Suites_V2.0.0/GD32F30x_Demo_Suites_V2.0.0/GD32F30x_Firmware_Library/GD32F30x_standard_peripheral/Source\gd32f30x_fmc.c **** 
 783:C:/Users/49542/Desktop/GD32F30x_Demo_Suites_V2.0.0/GD32F30x_Demo_Suites_V2.0.0/GD32F30x_Firmware_Library/GD32F30x_standard_peripheral/Source\gd32f30x_fmc.c **** /*!
 784:C:/Users/49542/Desktop/GD32F30x_Demo_Suites_V2.0.0/GD32F30x_Demo_Suites_V2.0.0/GD32F30x_Firmware_Library/GD32F30x_standard_peripheral/Source\gd32f30x_fmc.c ****     \brief      enable FMC interrupt
 785:C:/Users/49542/Desktop/GD32F30x_Demo_Suites_V2.0.0/GD32F30x_Demo_Suites_V2.0.0/GD32F30x_Firmware_Library/GD32F30x_standard_peripheral/Source\gd32f30x_fmc.c ****     \param[in]  interrupt: the FMC interrupt source
 786:C:/Users/49542/Desktop/GD32F30x_Demo_Suites_V2.0.0/GD32F30x_Demo_Suites_V2.0.0/GD32F30x_Firmware_Library/GD32F30x_standard_peripheral/Source\gd32f30x_fmc.c ****       \arg        FMC_INT_BANK0_END: FMC bank0 end of program interrupt
 787:C:/Users/49542/Desktop/GD32F30x_Demo_Suites_V2.0.0/GD32F30x_Demo_Suites_V2.0.0/GD32F30x_Firmware_Library/GD32F30x_standard_peripheral/Source\gd32f30x_fmc.c ****       \arg        FMC_INT_BANK0_ERR: FMC bank0 error interrupt
 788:C:/Users/49542/Desktop/GD32F30x_Demo_Suites_V2.0.0/GD32F30x_Demo_Suites_V2.0.0/GD32F30x_Firmware_Library/GD32F30x_standard_peripheral/Source\gd32f30x_fmc.c ****       \arg        FMC_INT_BANK1_END: FMC bank1 end of program interrupt
ARM GAS  C:\Users\49542\AppData\Local\Temp\ccEPk6Rd.s 			page 55


 789:C:/Users/49542/Desktop/GD32F30x_Demo_Suites_V2.0.0/GD32F30x_Demo_Suites_V2.0.0/GD32F30x_Firmware_Library/GD32F30x_standard_peripheral/Source\gd32f30x_fmc.c ****       \arg        FMC_INT_BANK1_ERR: FMC bank1 error interrupt
 790:C:/Users/49542/Desktop/GD32F30x_Demo_Suites_V2.0.0/GD32F30x_Demo_Suites_V2.0.0/GD32F30x_Firmware_Library/GD32F30x_standard_peripheral/Source\gd32f30x_fmc.c ****     \param[out] none
 791:C:/Users/49542/Desktop/GD32F30x_Demo_Suites_V2.0.0/GD32F30x_Demo_Suites_V2.0.0/GD32F30x_Firmware_Library/GD32F30x_standard_peripheral/Source\gd32f30x_fmc.c ****     \retval     none
 792:C:/Users/49542/Desktop/GD32F30x_Demo_Suites_V2.0.0/GD32F30x_Demo_Suites_V2.0.0/GD32F30x_Firmware_Library/GD32F30x_standard_peripheral/Source\gd32f30x_fmc.c **** */
 793:C:/Users/49542/Desktop/GD32F30x_Demo_Suites_V2.0.0/GD32F30x_Demo_Suites_V2.0.0/GD32F30x_Firmware_Library/GD32F30x_standard_peripheral/Source\gd32f30x_fmc.c **** void fmc_interrupt_enable(uint32_t interrupt)
 794:C:/Users/49542/Desktop/GD32F30x_Demo_Suites_V2.0.0/GD32F30x_Demo_Suites_V2.0.0/GD32F30x_Firmware_Library/GD32F30x_standard_peripheral/Source\gd32f30x_fmc.c **** {
 2342              		.loc 1 794 0
 2343              		.cfi_startproc
 2344              		@ args = 0, pretend = 0, frame = 8
 2345              		@ frame_needed = 1, uses_anonymous_args = 0
 2346              		@ link register save eliminated.
 2347 0000 80B4     		push	{r7}
 2348              	.LCFI116:
 2349              		.cfi_def_cfa_offset 4
 2350              		.cfi_offset 7, -4
 2351 0002 83B0     		sub	sp, sp, #12
 2352              	.LCFI117:
 2353              		.cfi_def_cfa_offset 16
 2354 0004 00AF     		add	r7, sp, #0
 2355              	.LCFI118:
 2356              		.cfi_def_cfa_register 7
 2357 0006 7860     		str	r0, [r7, #4]
 795:C:/Users/49542/Desktop/GD32F30x_Demo_Suites_V2.0.0/GD32F30x_Demo_Suites_V2.0.0/GD32F30x_Firmware_Library/GD32F30x_standard_peripheral/Source\gd32f30x_fmc.c ****     FMC_REG_VAL(interrupt) |= BIT(FMC_BIT_POS(interrupt));
 2358              		.loc 1 795 0
 2359 0008 7B68     		ldr	r3, [r7, #4]
 2360 000a 9B09     		lsrs	r3, r3, #6
 2361 000c 03F18043 		add	r3, r3, #1073741824
 2362 0010 03F50833 		add	r3, r3, #139264
 2363 0014 1968     		ldr	r1, [r3]
 2364 0016 7B68     		ldr	r3, [r7, #4]
 2365 0018 03F01F03 		and	r3, r3, #31
 2366 001c 0122     		movs	r2, #1
 2367 001e 9A40     		lsls	r2, r2, r3
 2368 0020 7B68     		ldr	r3, [r7, #4]
 2369 0022 9B09     		lsrs	r3, r3, #6
 2370 0024 03F18043 		add	r3, r3, #1073741824
 2371 0028 03F50833 		add	r3, r3, #139264
 2372 002c 1846     		mov	r0, r3
 2373 002e 41EA0203 		orr	r3, r1, r2
 2374 0032 0360     		str	r3, [r0]
 796:C:/Users/49542/Desktop/GD32F30x_Demo_Suites_V2.0.0/GD32F30x_Demo_Suites_V2.0.0/GD32F30x_Firmware_Library/GD32F30x_standard_peripheral/Source\gd32f30x_fmc.c **** }
 2375              		.loc 1 796 0
 2376 0034 00BF     		nop
 2377 0036 0C37     		adds	r7, r7, #12
 2378              	.LCFI119:
 2379              		.cfi_def_cfa_offset 4
 2380 0038 BD46     		mov	sp, r7
 2381              	.LCFI120:
 2382              		.cfi_def_cfa_register 13
 2383              		@ sp needed
 2384 003a 5DF8047B 		ldr	r7, [sp], #4
 2385              	.LCFI121:
 2386              		.cfi_restore 7
 2387              		.cfi_def_cfa_offset 0
 2388 003e 7047     		bx	lr
 2389              		.cfi_endproc
 2390              	.LFE141:
ARM GAS  C:\Users\49542\AppData\Local\Temp\ccEPk6Rd.s 			page 56


 2392              		.section	.text.fmc_interrupt_disable,"ax",%progbits
 2393              		.align	1
 2394              		.global	fmc_interrupt_disable
 2395              		.syntax unified
 2396              		.thumb
 2397              		.thumb_func
 2398              		.fpu fpv4-sp-d16
 2400              	fmc_interrupt_disable:
 2401              	.LFB142:
 797:C:/Users/49542/Desktop/GD32F30x_Demo_Suites_V2.0.0/GD32F30x_Demo_Suites_V2.0.0/GD32F30x_Firmware_Library/GD32F30x_standard_peripheral/Source\gd32f30x_fmc.c **** 
 798:C:/Users/49542/Desktop/GD32F30x_Demo_Suites_V2.0.0/GD32F30x_Demo_Suites_V2.0.0/GD32F30x_Firmware_Library/GD32F30x_standard_peripheral/Source\gd32f30x_fmc.c **** /*!
 799:C:/Users/49542/Desktop/GD32F30x_Demo_Suites_V2.0.0/GD32F30x_Demo_Suites_V2.0.0/GD32F30x_Firmware_Library/GD32F30x_standard_peripheral/Source\gd32f30x_fmc.c ****     \brief      disable FMC interrupt
 800:C:/Users/49542/Desktop/GD32F30x_Demo_Suites_V2.0.0/GD32F30x_Demo_Suites_V2.0.0/GD32F30x_Firmware_Library/GD32F30x_standard_peripheral/Source\gd32f30x_fmc.c ****     \param[in]  interrupt: the FMC interrupt source
 801:C:/Users/49542/Desktop/GD32F30x_Demo_Suites_V2.0.0/GD32F30x_Demo_Suites_V2.0.0/GD32F30x_Firmware_Library/GD32F30x_standard_peripheral/Source\gd32f30x_fmc.c ****       \arg        FMC_INT_BANK0_END: FMC bank0 end of program interrupt
 802:C:/Users/49542/Desktop/GD32F30x_Demo_Suites_V2.0.0/GD32F30x_Demo_Suites_V2.0.0/GD32F30x_Firmware_Library/GD32F30x_standard_peripheral/Source\gd32f30x_fmc.c ****       \arg        FMC_INT_BANK0_ERR: FMC bank0 error interrupt
 803:C:/Users/49542/Desktop/GD32F30x_Demo_Suites_V2.0.0/GD32F30x_Demo_Suites_V2.0.0/GD32F30x_Firmware_Library/GD32F30x_standard_peripheral/Source\gd32f30x_fmc.c ****       \arg        FMC_INT_BANK1_END: FMC bank1 end of program interrupt
 804:C:/Users/49542/Desktop/GD32F30x_Demo_Suites_V2.0.0/GD32F30x_Demo_Suites_V2.0.0/GD32F30x_Firmware_Library/GD32F30x_standard_peripheral/Source\gd32f30x_fmc.c ****       \arg        FMC_INT_BANK1_ERR: FMC bank1 error interrupt
 805:C:/Users/49542/Desktop/GD32F30x_Demo_Suites_V2.0.0/GD32F30x_Demo_Suites_V2.0.0/GD32F30x_Firmware_Library/GD32F30x_standard_peripheral/Source\gd32f30x_fmc.c ****     \param[out] none
 806:C:/Users/49542/Desktop/GD32F30x_Demo_Suites_V2.0.0/GD32F30x_Demo_Suites_V2.0.0/GD32F30x_Firmware_Library/GD32F30x_standard_peripheral/Source\gd32f30x_fmc.c ****     \retval     none
 807:C:/Users/49542/Desktop/GD32F30x_Demo_Suites_V2.0.0/GD32F30x_Demo_Suites_V2.0.0/GD32F30x_Firmware_Library/GD32F30x_standard_peripheral/Source\gd32f30x_fmc.c **** */
 808:C:/Users/49542/Desktop/GD32F30x_Demo_Suites_V2.0.0/GD32F30x_Demo_Suites_V2.0.0/GD32F30x_Firmware_Library/GD32F30x_standard_peripheral/Source\gd32f30x_fmc.c **** void fmc_interrupt_disable(uint32_t interrupt)
 809:C:/Users/49542/Desktop/GD32F30x_Demo_Suites_V2.0.0/GD32F30x_Demo_Suites_V2.0.0/GD32F30x_Firmware_Library/GD32F30x_standard_peripheral/Source\gd32f30x_fmc.c **** {
 2402              		.loc 1 809 0
 2403              		.cfi_startproc
 2404              		@ args = 0, pretend = 0, frame = 8
 2405              		@ frame_needed = 1, uses_anonymous_args = 0
 2406              		@ link register save eliminated.
 2407 0000 80B4     		push	{r7}
 2408              	.LCFI122:
 2409              		.cfi_def_cfa_offset 4
 2410              		.cfi_offset 7, -4
 2411 0002 83B0     		sub	sp, sp, #12
 2412              	.LCFI123:
 2413              		.cfi_def_cfa_offset 16
 2414 0004 00AF     		add	r7, sp, #0
 2415              	.LCFI124:
 2416              		.cfi_def_cfa_register 7
 2417 0006 7860     		str	r0, [r7, #4]
