ARM GAS  C:\Users\49542\AppData\Local\Temp\ccx6VnNU.s 			page 1


   1              		.cpu cortex-m4
   2              		.eabi_attribute 27, 1
   3              		.eabi_attribute 28, 1
   4              		.eabi_attribute 20, 1
   5              		.eabi_attribute 21, 1
   6              		.eabi_attribute 23, 3
   7              		.eabi_attribute 24, 1
   8              		.eabi_attribute 25, 1
   9              		.eabi_attribute 26, 1
  10              		.eabi_attribute 30, 6
  11              		.eabi_attribute 34, 1
  12              		.eabi_attribute 18, 4
  13              		.file	"gd32f30x_timer.c"
  14              		.text
  15              	.Ltext0:
  16              		.cfi_sections	.debug_frame
  17              		.section	.text.timer_deinit,"ax",%progbits
  18              		.align	1
  19              		.global	timer_deinit
  20              		.syntax unified
  21              		.thumb
  22              		.thumb_func
  23              		.fpu fpv4-sp-d16
  25              	timer_deinit:
  26              	.LFB116:
  27              		.file 1 "C:/Users/49542/Desktop/GD32F30x_Demo_Suites_V2.0.0/GD32F30x_Demo_Suites_V2.0.0/GD32F30x_F
   1:C:/Users/49542/Desktop/GD32F30x_Demo_Suites_V2.0.0/GD32F30x_Demo_Suites_V2.0.0/GD32F30x_Firmware_Library/GD32F30x_standard_peripheral/Source\gd32f30x_timer.c **** /*!
   2:C:/Users/49542/Desktop/GD32F30x_Demo_Suites_V2.0.0/GD32F30x_Demo_Suites_V2.0.0/GD32F30x_Firmware_Library/GD32F30x_standard_peripheral/Source\gd32f30x_timer.c ****     \file  gd32f30x_timer.c
   3:C:/Users/49542/Desktop/GD32F30x_Demo_Suites_V2.0.0/GD32F30x_Demo_Suites_V2.0.0/GD32F30x_Firmware_Library/GD32F30x_standard_peripheral/Source\gd32f30x_timer.c ****     \brief TIMER driver
   4:C:/Users/49542/Desktop/GD32F30x_Demo_Suites_V2.0.0/GD32F30x_Demo_Suites_V2.0.0/GD32F30x_Firmware_Library/GD32F30x_standard_peripheral/Source\gd32f30x_timer.c **** 
   5:C:/Users/49542/Desktop/GD32F30x_Demo_Suites_V2.0.0/GD32F30x_Demo_Suites_V2.0.0/GD32F30x_Firmware_Library/GD32F30x_standard_peripheral/Source\gd32f30x_timer.c ****     \version 2017-02-10, V1.0.0, firmware for GD32F30x
   6:C:/Users/49542/Desktop/GD32F30x_Demo_Suites_V2.0.0/GD32F30x_Demo_Suites_V2.0.0/GD32F30x_Firmware_Library/GD32F30x_standard_peripheral/Source\gd32f30x_timer.c ****     \version 2018-10-10, V1.1.0, firmware for GD32F30x
   7:C:/Users/49542/Desktop/GD32F30x_Demo_Suites_V2.0.0/GD32F30x_Demo_Suites_V2.0.0/GD32F30x_Firmware_Library/GD32F30x_standard_peripheral/Source\gd32f30x_timer.c ****     \version 2018-12-25, V2.0.0, firmware for GD32F30x
   8:C:/Users/49542/Desktop/GD32F30x_Demo_Suites_V2.0.0/GD32F30x_Demo_Suites_V2.0.0/GD32F30x_Firmware_Library/GD32F30x_standard_peripheral/Source\gd32f30x_timer.c **** */
   9:C:/Users/49542/Desktop/GD32F30x_Demo_Suites_V2.0.0/GD32F30x_Demo_Suites_V2.0.0/GD32F30x_Firmware_Library/GD32F30x_standard_peripheral/Source\gd32f30x_timer.c **** 
  10:C:/Users/49542/Desktop/GD32F30x_Demo_Suites_V2.0.0/GD32F30x_Demo_Suites_V2.0.0/GD32F30x_Firmware_Library/GD32F30x_standard_peripheral/Source\gd32f30x_timer.c **** /*
  11:C:/Users/49542/Desktop/GD32F30x_Demo_Suites_V2.0.0/GD32F30x_Demo_Suites_V2.0.0/GD32F30x_Firmware_Library/GD32F30x_standard_peripheral/Source\gd32f30x_timer.c ****     Copyright (c) 2018, GigaDevice Semiconductor Inc.
  12:C:/Users/49542/Desktop/GD32F30x_Demo_Suites_V2.0.0/GD32F30x_Demo_Suites_V2.0.0/GD32F30x_Firmware_Library/GD32F30x_standard_peripheral/Source\gd32f30x_timer.c **** 
  13:C:/Users/49542/Desktop/GD32F30x_Demo_Suites_V2.0.0/GD32F30x_Demo_Suites_V2.0.0/GD32F30x_Firmware_Library/GD32F30x_standard_peripheral/Source\gd32f30x_timer.c ****     All rights reserved.
  14:C:/Users/49542/Desktop/GD32F30x_Demo_Suites_V2.0.0/GD32F30x_Demo_Suites_V2.0.0/GD32F30x_Firmware_Library/GD32F30x_standard_peripheral/Source\gd32f30x_timer.c **** 
  15:C:/Users/49542/Desktop/GD32F30x_Demo_Suites_V2.0.0/GD32F30x_Demo_Suites_V2.0.0/GD32F30x_Firmware_Library/GD32F30x_standard_peripheral/Source\gd32f30x_timer.c ****     Redistribution and use in source and binary forms, with or without modification, 
  16:C:/Users/49542/Desktop/GD32F30x_Demo_Suites_V2.0.0/GD32F30x_Demo_Suites_V2.0.0/GD32F30x_Firmware_Library/GD32F30x_standard_peripheral/Source\gd32f30x_timer.c **** are permitted provided that the following conditions are met:
  17:C:/Users/49542/Desktop/GD32F30x_Demo_Suites_V2.0.0/GD32F30x_Demo_Suites_V2.0.0/GD32F30x_Firmware_Library/GD32F30x_standard_peripheral/Source\gd32f30x_timer.c **** 
  18:C:/Users/49542/Desktop/GD32F30x_Demo_Suites_V2.0.0/GD32F30x_Demo_Suites_V2.0.0/GD32F30x_Firmware_Library/GD32F30x_standard_peripheral/Source\gd32f30x_timer.c ****     1. Redistributions of source code must retain the above copyright notice, this 
  19:C:/Users/49542/Desktop/GD32F30x_Demo_Suites_V2.0.0/GD32F30x_Demo_Suites_V2.0.0/GD32F30x_Firmware_Library/GD32F30x_standard_peripheral/Source\gd32f30x_timer.c ****        list of conditions and the following disclaimer.
  20:C:/Users/49542/Desktop/GD32F30x_Demo_Suites_V2.0.0/GD32F30x_Demo_Suites_V2.0.0/GD32F30x_Firmware_Library/GD32F30x_standard_peripheral/Source\gd32f30x_timer.c ****     2. Redistributions in binary form must reproduce the above copyright notice, 
  21:C:/Users/49542/Desktop/GD32F30x_Demo_Suites_V2.0.0/GD32F30x_Demo_Suites_V2.0.0/GD32F30x_Firmware_Library/GD32F30x_standard_peripheral/Source\gd32f30x_timer.c ****        this list of conditions and the following disclaimer in the documentation 
  22:C:/Users/49542/Desktop/GD32F30x_Demo_Suites_V2.0.0/GD32F30x_Demo_Suites_V2.0.0/GD32F30x_Firmware_Library/GD32F30x_standard_peripheral/Source\gd32f30x_timer.c ****        and/or other materials provided with the distribution.
  23:C:/Users/49542/Desktop/GD32F30x_Demo_Suites_V2.0.0/GD32F30x_Demo_Suites_V2.0.0/GD32F30x_Firmware_Library/GD32F30x_standard_peripheral/Source\gd32f30x_timer.c ****     3. Neither the name of the copyright holder nor the names of its contributors 
  24:C:/Users/49542/Desktop/GD32F30x_Demo_Suites_V2.0.0/GD32F30x_Demo_Suites_V2.0.0/GD32F30x_Firmware_Library/GD32F30x_standard_peripheral/Source\gd32f30x_timer.c ****        may be used to endorse or promote products derived from this software without 
  25:C:/Users/49542/Desktop/GD32F30x_Demo_Suites_V2.0.0/GD32F30x_Demo_Suites_V2.0.0/GD32F30x_Firmware_Library/GD32F30x_standard_peripheral/Source\gd32f30x_timer.c ****        specific prior written permission.
  26:C:/Users/49542/Desktop/GD32F30x_Demo_Suites_V2.0.0/GD32F30x_Demo_Suites_V2.0.0/GD32F30x_Firmware_Library/GD32F30x_standard_peripheral/Source\gd32f30x_timer.c **** 
  27:C:/Users/49542/Desktop/GD32F30x_Demo_Suites_V2.0.0/GD32F30x_Demo_Suites_V2.0.0/GD32F30x_Firmware_Library/GD32F30x_standard_peripheral/Source\gd32f30x_timer.c ****     THIS SOFTWARE IS PROVIDED BY THE COPYRIGHT HOLDERS AND CONTRIBUTORS "AS IS" 
  28:C:/Users/49542/Desktop/GD32F30x_Demo_Suites_V2.0.0/GD32F30x_Demo_Suites_V2.0.0/GD32F30x_Firmware_Library/GD32F30x_standard_peripheral/Source\gd32f30x_timer.c **** AND ANY EXPRESS OR IMPLIED WARRANTIES, INCLUDING, BUT NOT LIMITED TO, THE IMPLIED 
  29:C:/Users/49542/Desktop/GD32F30x_Demo_Suites_V2.0.0/GD32F30x_Demo_Suites_V2.0.0/GD32F30x_Firmware_Library/GD32F30x_standard_peripheral/Source\gd32f30x_timer.c **** WARRANTIES OF MERCHANTABILITY AND FITNESS FOR A PARTICULAR PURPOSE ARE DISCLAIMED. 
  30:C:/Users/49542/Desktop/GD32F30x_Demo_Suites_V2.0.0/GD32F30x_Demo_Suites_V2.0.0/GD32F30x_Firmware_Library/GD32F30x_standard_peripheral/Source\gd32f30x_timer.c **** IN NO EVENT SHALL THE COPYRIGHT HOLDER OR CONTRIBUTORS BE LIABLE FOR ANY DIRECT, 
  31:C:/Users/49542/Desktop/GD32F30x_Demo_Suites_V2.0.0/GD32F30x_Demo_Suites_V2.0.0/GD32F30x_Firmware_Library/GD32F30x_standard_peripheral/Source\gd32f30x_timer.c **** INDIRECT, INCIDENTAL, SPECIAL, EXEMPLARY, OR CONSEQUENTIAL DAMAGES (INCLUDING, BUT 
ARM GAS  C:\Users\49542\AppData\Local\Temp\ccx6VnNU.s 			page 2


  32:C:/Users/49542/Desktop/GD32F30x_Demo_Suites_V2.0.0/GD32F30x_Demo_Suites_V2.0.0/GD32F30x_Firmware_Library/GD32F30x_standard_peripheral/Source\gd32f30x_timer.c **** NOT LIMITED TO, PROCUREMENT OF SUBSTITUTE GOODS OR SERVICES; LOSS OF USE, DATA, OR 
  33:C:/Users/49542/Desktop/GD32F30x_Demo_Suites_V2.0.0/GD32F30x_Demo_Suites_V2.0.0/GD32F30x_Firmware_Library/GD32F30x_standard_peripheral/Source\gd32f30x_timer.c **** PROFITS; OR BUSINESS INTERRUPTION) HOWEVER CAUSED AND ON ANY THEORY OF LIABILITY, 
  34:C:/Users/49542/Desktop/GD32F30x_Demo_Suites_V2.0.0/GD32F30x_Demo_Suites_V2.0.0/GD32F30x_Firmware_Library/GD32F30x_standard_peripheral/Source\gd32f30x_timer.c **** WHETHER IN CONTRACT, STRICT LIABILITY, OR TORT (INCLUDING NEGLIGENCE OR OTHERWISE) 
  35:C:/Users/49542/Desktop/GD32F30x_Demo_Suites_V2.0.0/GD32F30x_Demo_Suites_V2.0.0/GD32F30x_Firmware_Library/GD32F30x_standard_peripheral/Source\gd32f30x_timer.c **** ARISING IN ANY WAY OUT OF THE USE OF THIS SOFTWARE, EVEN IF ADVISED OF THE POSSIBILITY 
  36:C:/Users/49542/Desktop/GD32F30x_Demo_Suites_V2.0.0/GD32F30x_Demo_Suites_V2.0.0/GD32F30x_Firmware_Library/GD32F30x_standard_peripheral/Source\gd32f30x_timer.c **** OF SUCH DAMAGE.
  37:C:/Users/49542/Desktop/GD32F30x_Demo_Suites_V2.0.0/GD32F30x_Demo_Suites_V2.0.0/GD32F30x_Firmware_Library/GD32F30x_standard_peripheral/Source\gd32f30x_timer.c **** */
  38:C:/Users/49542/Desktop/GD32F30x_Demo_Suites_V2.0.0/GD32F30x_Demo_Suites_V2.0.0/GD32F30x_Firmware_Library/GD32F30x_standard_peripheral/Source\gd32f30x_timer.c **** 
  39:C:/Users/49542/Desktop/GD32F30x_Demo_Suites_V2.0.0/GD32F30x_Demo_Suites_V2.0.0/GD32F30x_Firmware_Library/GD32F30x_standard_peripheral/Source\gd32f30x_timer.c **** #include "gd32f30x_timer.h"
  40:C:/Users/49542/Desktop/GD32F30x_Demo_Suites_V2.0.0/GD32F30x_Demo_Suites_V2.0.0/GD32F30x_Firmware_Library/GD32F30x_standard_peripheral/Source\gd32f30x_timer.c **** 
  41:C:/Users/49542/Desktop/GD32F30x_Demo_Suites_V2.0.0/GD32F30x_Demo_Suites_V2.0.0/GD32F30x_Firmware_Library/GD32F30x_standard_peripheral/Source\gd32f30x_timer.c **** /*!
  42:C:/Users/49542/Desktop/GD32F30x_Demo_Suites_V2.0.0/GD32F30x_Demo_Suites_V2.0.0/GD32F30x_Firmware_Library/GD32F30x_standard_peripheral/Source\gd32f30x_timer.c ****     \brief      deinit a TIMER
  43:C:/Users/49542/Desktop/GD32F30x_Demo_Suites_V2.0.0/GD32F30x_Demo_Suites_V2.0.0/GD32F30x_Firmware_Library/GD32F30x_standard_peripheral/Source\gd32f30x_timer.c ****     \param[in]  timer_periph: TIMERx(x=0..13)
  44:C:/Users/49542/Desktop/GD32F30x_Demo_Suites_V2.0.0/GD32F30x_Demo_Suites_V2.0.0/GD32F30x_Firmware_Library/GD32F30x_standard_peripheral/Source\gd32f30x_timer.c ****     \param[out] none
  45:C:/Users/49542/Desktop/GD32F30x_Demo_Suites_V2.0.0/GD32F30x_Demo_Suites_V2.0.0/GD32F30x_Firmware_Library/GD32F30x_standard_peripheral/Source\gd32f30x_timer.c ****     \retval     none
  46:C:/Users/49542/Desktop/GD32F30x_Demo_Suites_V2.0.0/GD32F30x_Demo_Suites_V2.0.0/GD32F30x_Firmware_Library/GD32F30x_standard_peripheral/Source\gd32f30x_timer.c **** */
  47:C:/Users/49542/Desktop/GD32F30x_Demo_Suites_V2.0.0/GD32F30x_Demo_Suites_V2.0.0/GD32F30x_Firmware_Library/GD32F30x_standard_peripheral/Source\gd32f30x_timer.c **** void timer_deinit(uint32_t timer_periph)
  48:C:/Users/49542/Desktop/GD32F30x_Demo_Suites_V2.0.0/GD32F30x_Demo_Suites_V2.0.0/GD32F30x_Firmware_Library/GD32F30x_standard_peripheral/Source\gd32f30x_timer.c **** {
  28              		.loc 1 48 0
  29              		.cfi_startproc
  30              		@ args = 0, pretend = 0, frame = 8
  31              		@ frame_needed = 1, uses_anonymous_args = 0
  32 0000 80B5     		push	{r7, lr}
  33              	.LCFI0:
  34              		.cfi_def_cfa_offset 8
  35              		.cfi_offset 7, -8
  36              		.cfi_offset 14, -4
  37 0002 82B0     		sub	sp, sp, #8
  38              	.LCFI1:
  39              		.cfi_def_cfa_offset 16
  40 0004 00AF     		add	r7, sp, #0
  41              	.LCFI2:
  42              		.cfi_def_cfa_register 7
  43 0006 7860     		str	r0, [r7, #4]
  49:C:/Users/49542/Desktop/GD32F30x_Demo_Suites_V2.0.0/GD32F30x_Demo_Suites_V2.0.0/GD32F30x_Firmware_Library/GD32F30x_standard_peripheral/Source\gd32f30x_timer.c ****     switch(timer_periph){
  44              		.loc 1 49 0
  45 0008 7B68     		ldr	r3, [r7, #4]
  46 000a 5D4A     		ldr	r2, .L21
  47 000c 9342     		cmp	r3, r2
  48 000e 00F09880 		beq	.L3
  49 0012 5B4A     		ldr	r2, .L21
  50 0014 9342     		cmp	r3, r2
  51 0016 16D8     		bhi	.L4
  52 0018 5A4A     		ldr	r2, .L21+4
  53 001a 9342     		cmp	r3, r2
  54 001c 49D0     		beq	.L5
  55 001e 594A     		ldr	r2, .L21+4
  56 0020 9342     		cmp	r3, r2
  57 0022 06D8     		bhi	.L6
  58 0024 B3F1804F 		cmp	r3, #1073741824
  59 0028 31D0     		beq	.L7
  60 002a 574A     		ldr	r2, .L21+8
  61 002c 9342     		cmp	r3, r2
  62 002e 37D0     		beq	.L8
  50:C:/Users/49542/Desktop/GD32F30x_Demo_Suites_V2.0.0/GD32F30x_Demo_Suites_V2.0.0/GD32F30x_Firmware_Library/GD32F30x_standard_peripheral/Source\gd32f30x_timer.c ****     case TIMER0:
  51:C:/Users/49542/Desktop/GD32F30x_Demo_Suites_V2.0.0/GD32F30x_Demo_Suites_V2.0.0/GD32F30x_Firmware_Library/GD32F30x_standard_peripheral/Source\gd32f30x_timer.c ****         /* reset TIMER0 */
  52:C:/Users/49542/Desktop/GD32F30x_Demo_Suites_V2.0.0/GD32F30x_Demo_Suites_V2.0.0/GD32F30x_Firmware_Library/GD32F30x_standard_peripheral/Source\gd32f30x_timer.c ****         rcu_periph_reset_enable(RCU_TIMER0RST);
  53:C:/Users/49542/Desktop/GD32F30x_Demo_Suites_V2.0.0/GD32F30x_Demo_Suites_V2.0.0/GD32F30x_Firmware_Library/GD32F30x_standard_peripheral/Source\gd32f30x_timer.c ****         rcu_periph_reset_disable(RCU_TIMER0RST);
ARM GAS  C:\Users\49542\AppData\Local\Temp\ccx6VnNU.s 			page 3


  54:C:/Users/49542/Desktop/GD32F30x_Demo_Suites_V2.0.0/GD32F30x_Demo_Suites_V2.0.0/GD32F30x_Firmware_Library/GD32F30x_standard_peripheral/Source\gd32f30x_timer.c ****         break;
  55:C:/Users/49542/Desktop/GD32F30x_Demo_Suites_V2.0.0/GD32F30x_Demo_Suites_V2.0.0/GD32F30x_Firmware_Library/GD32F30x_standard_peripheral/Source\gd32f30x_timer.c ****     case TIMER1:
  56:C:/Users/49542/Desktop/GD32F30x_Demo_Suites_V2.0.0/GD32F30x_Demo_Suites_V2.0.0/GD32F30x_Firmware_Library/GD32F30x_standard_peripheral/Source\gd32f30x_timer.c ****         /* reset TIMER1 */
  57:C:/Users/49542/Desktop/GD32F30x_Demo_Suites_V2.0.0/GD32F30x_Demo_Suites_V2.0.0/GD32F30x_Firmware_Library/GD32F30x_standard_peripheral/Source\gd32f30x_timer.c ****         rcu_periph_reset_enable(RCU_TIMER1RST);
  58:C:/Users/49542/Desktop/GD32F30x_Demo_Suites_V2.0.0/GD32F30x_Demo_Suites_V2.0.0/GD32F30x_Firmware_Library/GD32F30x_standard_peripheral/Source\gd32f30x_timer.c ****         rcu_periph_reset_disable(RCU_TIMER1RST);
  59:C:/Users/49542/Desktop/GD32F30x_Demo_Suites_V2.0.0/GD32F30x_Demo_Suites_V2.0.0/GD32F30x_Firmware_Library/GD32F30x_standard_peripheral/Source\gd32f30x_timer.c ****         break;
  60:C:/Users/49542/Desktop/GD32F30x_Demo_Suites_V2.0.0/GD32F30x_Demo_Suites_V2.0.0/GD32F30x_Firmware_Library/GD32F30x_standard_peripheral/Source\gd32f30x_timer.c ****     case TIMER2:
  61:C:/Users/49542/Desktop/GD32F30x_Demo_Suites_V2.0.0/GD32F30x_Demo_Suites_V2.0.0/GD32F30x_Firmware_Library/GD32F30x_standard_peripheral/Source\gd32f30x_timer.c ****         /* reset TIMER2 */
  62:C:/Users/49542/Desktop/GD32F30x_Demo_Suites_V2.0.0/GD32F30x_Demo_Suites_V2.0.0/GD32F30x_Firmware_Library/GD32F30x_standard_peripheral/Source\gd32f30x_timer.c ****         rcu_periph_reset_enable(RCU_TIMER2RST);
  63:C:/Users/49542/Desktop/GD32F30x_Demo_Suites_V2.0.0/GD32F30x_Demo_Suites_V2.0.0/GD32F30x_Firmware_Library/GD32F30x_standard_peripheral/Source\gd32f30x_timer.c ****         rcu_periph_reset_disable(RCU_TIMER2RST);
  64:C:/Users/49542/Desktop/GD32F30x_Demo_Suites_V2.0.0/GD32F30x_Demo_Suites_V2.0.0/GD32F30x_Firmware_Library/GD32F30x_standard_peripheral/Source\gd32f30x_timer.c ****         break;
  65:C:/Users/49542/Desktop/GD32F30x_Demo_Suites_V2.0.0/GD32F30x_Demo_Suites_V2.0.0/GD32F30x_Firmware_Library/GD32F30x_standard_peripheral/Source\gd32f30x_timer.c ****     case TIMER3:
  66:C:/Users/49542/Desktop/GD32F30x_Demo_Suites_V2.0.0/GD32F30x_Demo_Suites_V2.0.0/GD32F30x_Firmware_Library/GD32F30x_standard_peripheral/Source\gd32f30x_timer.c ****         /* reset TIMER3 */
  67:C:/Users/49542/Desktop/GD32F30x_Demo_Suites_V2.0.0/GD32F30x_Demo_Suites_V2.0.0/GD32F30x_Firmware_Library/GD32F30x_standard_peripheral/Source\gd32f30x_timer.c ****         rcu_periph_reset_enable(RCU_TIMER3RST);
  68:C:/Users/49542/Desktop/GD32F30x_Demo_Suites_V2.0.0/GD32F30x_Demo_Suites_V2.0.0/GD32F30x_Firmware_Library/GD32F30x_standard_peripheral/Source\gd32f30x_timer.c ****         rcu_periph_reset_disable(RCU_TIMER3RST);
  69:C:/Users/49542/Desktop/GD32F30x_Demo_Suites_V2.0.0/GD32F30x_Demo_Suites_V2.0.0/GD32F30x_Firmware_Library/GD32F30x_standard_peripheral/Source\gd32f30x_timer.c ****         break;
  70:C:/Users/49542/Desktop/GD32F30x_Demo_Suites_V2.0.0/GD32F30x_Demo_Suites_V2.0.0/GD32F30x_Firmware_Library/GD32F30x_standard_peripheral/Source\gd32f30x_timer.c ****     case TIMER4:
  71:C:/Users/49542/Desktop/GD32F30x_Demo_Suites_V2.0.0/GD32F30x_Demo_Suites_V2.0.0/GD32F30x_Firmware_Library/GD32F30x_standard_peripheral/Source\gd32f30x_timer.c ****         /* reset TIMER4 */
  72:C:/Users/49542/Desktop/GD32F30x_Demo_Suites_V2.0.0/GD32F30x_Demo_Suites_V2.0.0/GD32F30x_Firmware_Library/GD32F30x_standard_peripheral/Source\gd32f30x_timer.c ****         rcu_periph_reset_enable(RCU_TIMER4RST);
  73:C:/Users/49542/Desktop/GD32F30x_Demo_Suites_V2.0.0/GD32F30x_Demo_Suites_V2.0.0/GD32F30x_Firmware_Library/GD32F30x_standard_peripheral/Source\gd32f30x_timer.c ****         rcu_periph_reset_disable(RCU_TIMER4RST);
  74:C:/Users/49542/Desktop/GD32F30x_Demo_Suites_V2.0.0/GD32F30x_Demo_Suites_V2.0.0/GD32F30x_Firmware_Library/GD32F30x_standard_peripheral/Source\gd32f30x_timer.c ****         break;
  75:C:/Users/49542/Desktop/GD32F30x_Demo_Suites_V2.0.0/GD32F30x_Demo_Suites_V2.0.0/GD32F30x_Firmware_Library/GD32F30x_standard_peripheral/Source\gd32f30x_timer.c ****     case TIMER5:
  76:C:/Users/49542/Desktop/GD32F30x_Demo_Suites_V2.0.0/GD32F30x_Demo_Suites_V2.0.0/GD32F30x_Firmware_Library/GD32F30x_standard_peripheral/Source\gd32f30x_timer.c ****         /* reset TIMER5 */
  77:C:/Users/49542/Desktop/GD32F30x_Demo_Suites_V2.0.0/GD32F30x_Demo_Suites_V2.0.0/GD32F30x_Firmware_Library/GD32F30x_standard_peripheral/Source\gd32f30x_timer.c ****         rcu_periph_reset_enable(RCU_TIMER5RST);
  78:C:/Users/49542/Desktop/GD32F30x_Demo_Suites_V2.0.0/GD32F30x_Demo_Suites_V2.0.0/GD32F30x_Firmware_Library/GD32F30x_standard_peripheral/Source\gd32f30x_timer.c ****         rcu_periph_reset_disable(RCU_TIMER5RST);
  79:C:/Users/49542/Desktop/GD32F30x_Demo_Suites_V2.0.0/GD32F30x_Demo_Suites_V2.0.0/GD32F30x_Firmware_Library/GD32F30x_standard_peripheral/Source\gd32f30x_timer.c ****         break;
  80:C:/Users/49542/Desktop/GD32F30x_Demo_Suites_V2.0.0/GD32F30x_Demo_Suites_V2.0.0/GD32F30x_Firmware_Library/GD32F30x_standard_peripheral/Source\gd32f30x_timer.c ****     case TIMER6:
  81:C:/Users/49542/Desktop/GD32F30x_Demo_Suites_V2.0.0/GD32F30x_Demo_Suites_V2.0.0/GD32F30x_Firmware_Library/GD32F30x_standard_peripheral/Source\gd32f30x_timer.c ****         /* reset TIMER6 */
  82:C:/Users/49542/Desktop/GD32F30x_Demo_Suites_V2.0.0/GD32F30x_Demo_Suites_V2.0.0/GD32F30x_Firmware_Library/GD32F30x_standard_peripheral/Source\gd32f30x_timer.c ****         rcu_periph_reset_enable(RCU_TIMER6RST);
  83:C:/Users/49542/Desktop/GD32F30x_Demo_Suites_V2.0.0/GD32F30x_Demo_Suites_V2.0.0/GD32F30x_Firmware_Library/GD32F30x_standard_peripheral/Source\gd32f30x_timer.c ****         rcu_periph_reset_disable(RCU_TIMER6RST);
  84:C:/Users/49542/Desktop/GD32F30x_Demo_Suites_V2.0.0/GD32F30x_Demo_Suites_V2.0.0/GD32F30x_Firmware_Library/GD32F30x_standard_peripheral/Source\gd32f30x_timer.c ****         break;
  85:C:/Users/49542/Desktop/GD32F30x_Demo_Suites_V2.0.0/GD32F30x_Demo_Suites_V2.0.0/GD32F30x_Firmware_Library/GD32F30x_standard_peripheral/Source\gd32f30x_timer.c ****     case TIMER7:
  86:C:/Users/49542/Desktop/GD32F30x_Demo_Suites_V2.0.0/GD32F30x_Demo_Suites_V2.0.0/GD32F30x_Firmware_Library/GD32F30x_standard_peripheral/Source\gd32f30x_timer.c ****         /* reset TIMER7 */
  87:C:/Users/49542/Desktop/GD32F30x_Demo_Suites_V2.0.0/GD32F30x_Demo_Suites_V2.0.0/GD32F30x_Firmware_Library/GD32F30x_standard_peripheral/Source\gd32f30x_timer.c ****         rcu_periph_reset_enable(RCU_TIMER7RST);
  88:C:/Users/49542/Desktop/GD32F30x_Demo_Suites_V2.0.0/GD32F30x_Demo_Suites_V2.0.0/GD32F30x_Firmware_Library/GD32F30x_standard_peripheral/Source\gd32f30x_timer.c ****         rcu_periph_reset_disable(RCU_TIMER7RST);
  89:C:/Users/49542/Desktop/GD32F30x_Demo_Suites_V2.0.0/GD32F30x_Demo_Suites_V2.0.0/GD32F30x_Firmware_Library/GD32F30x_standard_peripheral/Source\gd32f30x_timer.c ****         break;
  90:C:/Users/49542/Desktop/GD32F30x_Demo_Suites_V2.0.0/GD32F30x_Demo_Suites_V2.0.0/GD32F30x_Firmware_Library/GD32F30x_standard_peripheral/Source\gd32f30x_timer.c **** #ifndef GD32F30X_HD
  91:C:/Users/49542/Desktop/GD32F30x_Demo_Suites_V2.0.0/GD32F30x_Demo_Suites_V2.0.0/GD32F30x_Firmware_Library/GD32F30x_standard_peripheral/Source\gd32f30x_timer.c ****     case TIMER8:
  92:C:/Users/49542/Desktop/GD32F30x_Demo_Suites_V2.0.0/GD32F30x_Demo_Suites_V2.0.0/GD32F30x_Firmware_Library/GD32F30x_standard_peripheral/Source\gd32f30x_timer.c ****         /* reset TIMER8 */
  93:C:/Users/49542/Desktop/GD32F30x_Demo_Suites_V2.0.0/GD32F30x_Demo_Suites_V2.0.0/GD32F30x_Firmware_Library/GD32F30x_standard_peripheral/Source\gd32f30x_timer.c ****         rcu_periph_reset_enable(RCU_TIMER8RST);
  94:C:/Users/49542/Desktop/GD32F30x_Demo_Suites_V2.0.0/GD32F30x_Demo_Suites_V2.0.0/GD32F30x_Firmware_Library/GD32F30x_standard_peripheral/Source\gd32f30x_timer.c ****         rcu_periph_reset_disable(RCU_TIMER8RST);
  95:C:/Users/49542/Desktop/GD32F30x_Demo_Suites_V2.0.0/GD32F30x_Demo_Suites_V2.0.0/GD32F30x_Firmware_Library/GD32F30x_standard_peripheral/Source\gd32f30x_timer.c ****         break;
  96:C:/Users/49542/Desktop/GD32F30x_Demo_Suites_V2.0.0/GD32F30x_Demo_Suites_V2.0.0/GD32F30x_Firmware_Library/GD32F30x_standard_peripheral/Source\gd32f30x_timer.c ****     case TIMER9:
  97:C:/Users/49542/Desktop/GD32F30x_Demo_Suites_V2.0.0/GD32F30x_Demo_Suites_V2.0.0/GD32F30x_Firmware_Library/GD32F30x_standard_peripheral/Source\gd32f30x_timer.c ****         /* reset TIMER9 */
  98:C:/Users/49542/Desktop/GD32F30x_Demo_Suites_V2.0.0/GD32F30x_Demo_Suites_V2.0.0/GD32F30x_Firmware_Library/GD32F30x_standard_peripheral/Source\gd32f30x_timer.c ****         rcu_periph_reset_enable(RCU_TIMER9RST);
  99:C:/Users/49542/Desktop/GD32F30x_Demo_Suites_V2.0.0/GD32F30x_Demo_Suites_V2.0.0/GD32F30x_Firmware_Library/GD32F30x_standard_peripheral/Source\gd32f30x_timer.c ****         rcu_periph_reset_disable(RCU_TIMER9RST);
 100:C:/Users/49542/Desktop/GD32F30x_Demo_Suites_V2.0.0/GD32F30x_Demo_Suites_V2.0.0/GD32F30x_Firmware_Library/GD32F30x_standard_peripheral/Source\gd32f30x_timer.c ****         break;
 101:C:/Users/49542/Desktop/GD32F30x_Demo_Suites_V2.0.0/GD32F30x_Demo_Suites_V2.0.0/GD32F30x_Firmware_Library/GD32F30x_standard_peripheral/Source\gd32f30x_timer.c ****     case TIMER10:
 102:C:/Users/49542/Desktop/GD32F30x_Demo_Suites_V2.0.0/GD32F30x_Demo_Suites_V2.0.0/GD32F30x_Firmware_Library/GD32F30x_standard_peripheral/Source\gd32f30x_timer.c ****         /* reset TIMER10 */
 103:C:/Users/49542/Desktop/GD32F30x_Demo_Suites_V2.0.0/GD32F30x_Demo_Suites_V2.0.0/GD32F30x_Firmware_Library/GD32F30x_standard_peripheral/Source\gd32f30x_timer.c ****         rcu_periph_reset_enable(RCU_TIMER10RST);
 104:C:/Users/49542/Desktop/GD32F30x_Demo_Suites_V2.0.0/GD32F30x_Demo_Suites_V2.0.0/GD32F30x_Firmware_Library/GD32F30x_standard_peripheral/Source\gd32f30x_timer.c ****         rcu_periph_reset_disable(RCU_TIMER10RST);
 105:C:/Users/49542/Desktop/GD32F30x_Demo_Suites_V2.0.0/GD32F30x_Demo_Suites_V2.0.0/GD32F30x_Firmware_Library/GD32F30x_standard_peripheral/Source\gd32f30x_timer.c ****         break;
 106:C:/Users/49542/Desktop/GD32F30x_Demo_Suites_V2.0.0/GD32F30x_Demo_Suites_V2.0.0/GD32F30x_Firmware_Library/GD32F30x_standard_peripheral/Source\gd32f30x_timer.c ****     case TIMER11:
 107:C:/Users/49542/Desktop/GD32F30x_Demo_Suites_V2.0.0/GD32F30x_Demo_Suites_V2.0.0/GD32F30x_Firmware_Library/GD32F30x_standard_peripheral/Source\gd32f30x_timer.c ****         /* reset TIMER11 */
 108:C:/Users/49542/Desktop/GD32F30x_Demo_Suites_V2.0.0/GD32F30x_Demo_Suites_V2.0.0/GD32F30x_Firmware_Library/GD32F30x_standard_peripheral/Source\gd32f30x_timer.c ****         rcu_periph_reset_enable(RCU_TIMER11RST);
 109:C:/Users/49542/Desktop/GD32F30x_Demo_Suites_V2.0.0/GD32F30x_Demo_Suites_V2.0.0/GD32F30x_Firmware_Library/GD32F30x_standard_peripheral/Source\gd32f30x_timer.c ****         rcu_periph_reset_disable(RCU_TIMER11RST);
 110:C:/Users/49542/Desktop/GD32F30x_Demo_Suites_V2.0.0/GD32F30x_Demo_Suites_V2.0.0/GD32F30x_Firmware_Library/GD32F30x_standard_peripheral/Source\gd32f30x_timer.c ****         break;
ARM GAS  C:\Users\49542\AppData\Local\Temp\ccx6VnNU.s 			page 4


 111:C:/Users/49542/Desktop/GD32F30x_Demo_Suites_V2.0.0/GD32F30x_Demo_Suites_V2.0.0/GD32F30x_Firmware_Library/GD32F30x_standard_peripheral/Source\gd32f30x_timer.c ****     case TIMER12:
 112:C:/Users/49542/Desktop/GD32F30x_Demo_Suites_V2.0.0/GD32F30x_Demo_Suites_V2.0.0/GD32F30x_Firmware_Library/GD32F30x_standard_peripheral/Source\gd32f30x_timer.c ****         /* reset TIMER12 */
 113:C:/Users/49542/Desktop/GD32F30x_Demo_Suites_V2.0.0/GD32F30x_Demo_Suites_V2.0.0/GD32F30x_Firmware_Library/GD32F30x_standard_peripheral/Source\gd32f30x_timer.c ****         rcu_periph_reset_enable(RCU_TIMER12RST);
 114:C:/Users/49542/Desktop/GD32F30x_Demo_Suites_V2.0.0/GD32F30x_Demo_Suites_V2.0.0/GD32F30x_Firmware_Library/GD32F30x_standard_peripheral/Source\gd32f30x_timer.c ****         rcu_periph_reset_disable(RCU_TIMER12RST);
 115:C:/Users/49542/Desktop/GD32F30x_Demo_Suites_V2.0.0/GD32F30x_Demo_Suites_V2.0.0/GD32F30x_Firmware_Library/GD32F30x_standard_peripheral/Source\gd32f30x_timer.c ****         break;
 116:C:/Users/49542/Desktop/GD32F30x_Demo_Suites_V2.0.0/GD32F30x_Demo_Suites_V2.0.0/GD32F30x_Firmware_Library/GD32F30x_standard_peripheral/Source\gd32f30x_timer.c ****     case TIMER13:
 117:C:/Users/49542/Desktop/GD32F30x_Demo_Suites_V2.0.0/GD32F30x_Demo_Suites_V2.0.0/GD32F30x_Firmware_Library/GD32F30x_standard_peripheral/Source\gd32f30x_timer.c ****         /* reset TIMER13 */
 118:C:/Users/49542/Desktop/GD32F30x_Demo_Suites_V2.0.0/GD32F30x_Demo_Suites_V2.0.0/GD32F30x_Firmware_Library/GD32F30x_standard_peripheral/Source\gd32f30x_timer.c ****         rcu_periph_reset_enable(RCU_TIMER13RST);
 119:C:/Users/49542/Desktop/GD32F30x_Demo_Suites_V2.0.0/GD32F30x_Demo_Suites_V2.0.0/GD32F30x_Firmware_Library/GD32F30x_standard_peripheral/Source\gd32f30x_timer.c ****         rcu_periph_reset_disable(RCU_TIMER13RST);
 120:C:/Users/49542/Desktop/GD32F30x_Demo_Suites_V2.0.0/GD32F30x_Demo_Suites_V2.0.0/GD32F30x_Firmware_Library/GD32F30x_standard_peripheral/Source\gd32f30x_timer.c ****         break;
 121:C:/Users/49542/Desktop/GD32F30x_Demo_Suites_V2.0.0/GD32F30x_Demo_Suites_V2.0.0/GD32F30x_Firmware_Library/GD32F30x_standard_peripheral/Source\gd32f30x_timer.c **** #endif /* GD32F30X_HD */
 122:C:/Users/49542/Desktop/GD32F30x_Demo_Suites_V2.0.0/GD32F30x_Demo_Suites_V2.0.0/GD32F30x_Firmware_Library/GD32F30x_standard_peripheral/Source\gd32f30x_timer.c ****     default:
 123:C:/Users/49542/Desktop/GD32F30x_Demo_Suites_V2.0.0/GD32F30x_Demo_Suites_V2.0.0/GD32F30x_Firmware_Library/GD32F30x_standard_peripheral/Source\gd32f30x_timer.c ****         break;
  63              		.loc 1 123 0
  64 0030 A2E0     		b	.L20
  65              	.L6:
  49:C:/Users/49542/Desktop/GD32F30x_Demo_Suites_V2.0.0/GD32F30x_Demo_Suites_V2.0.0/GD32F30x_Firmware_Library/GD32F30x_standard_peripheral/Source\gd32f30x_timer.c ****     switch(timer_periph){
  66              		.loc 1 49 0
  67 0032 564A     		ldr	r2, .L21+12
  68 0034 9342     		cmp	r3, r2
  69 0036 4ED0     		beq	.L9
  70 0038 554A     		ldr	r2, .L21+16
  71 003a 9342     		cmp	r3, r2
  72 003c 54D0     		beq	.L10
  73 003e 554A     		ldr	r2, .L21+20
  74 0040 9342     		cmp	r3, r2
  75 0042 3FD0     		beq	.L11
  76              		.loc 1 123 0
  77 0044 98E0     		b	.L20
  78              	.L4:
  49:C:/Users/49542/Desktop/GD32F30x_Demo_Suites_V2.0.0/GD32F30x_Demo_Suites_V2.0.0/GD32F30x_Firmware_Library/GD32F30x_standard_peripheral/Source\gd32f30x_timer.c ****     switch(timer_periph){
  79              		.loc 1 49 0
  80 0046 544A     		ldr	r2, .L21+24
  81 0048 9342     		cmp	r3, r2
  82 004a 56D0     		beq	.L12
  83 004c 524A     		ldr	r2, .L21+24
  84 004e 9342     		cmp	r3, r2
  85 0050 0AD8     		bhi	.L13
  86 0052 524A     		ldr	r2, .L21+28
  87 0054 9342     		cmp	r3, r2
  88 0056 00F08680 		beq	.L14
  89 005a 514A     		ldr	r2, .L21+32
  90 005c 9342     		cmp	r3, r2
  91 005e 0DD0     		beq	.L15
  92 0060 504A     		ldr	r2, .L21+36
  93 0062 9342     		cmp	r3, r2
  94 0064 76D0     		beq	.L16
  95              		.loc 1 123 0
  96 0066 87E0     		b	.L20
  97              	.L13:
  49:C:/Users/49542/Desktop/GD32F30x_Demo_Suites_V2.0.0/GD32F30x_Demo_Suites_V2.0.0/GD32F30x_Firmware_Library/GD32F30x_standard_peripheral/Source\gd32f30x_timer.c ****     switch(timer_periph){
  98              		.loc 1 49 0
  99 0068 4F4A     		ldr	r2, .L21+40
 100 006a 9342     		cmp	r3, r2
 101 006c 57D0     		beq	.L17
 102 006e 4F4A     		ldr	r2, .L21+44
 103 0070 9342     		cmp	r3, r2
ARM GAS  C:\Users\49542\AppData\Local\Temp\ccx6VnNU.s 			page 5


 104 0072 5DD0     		beq	.L18
 105 0074 4E4A     		ldr	r2, .L21+48
 106 0076 9342     		cmp	r3, r2
 107 0078 48D0     		beq	.L19
 108              		.loc 1 123 0
 109 007a 7DE0     		b	.L20
 110              	.L15:
  52:C:/Users/49542/Desktop/GD32F30x_Demo_Suites_V2.0.0/GD32F30x_Demo_Suites_V2.0.0/GD32F30x_Firmware_Library/GD32F30x_standard_peripheral/Source\gd32f30x_timer.c ****         rcu_periph_reset_disable(RCU_TIMER0RST);
 111              		.loc 1 52 0
 112 007c 40F20B30 		movw	r0, #779
 113 0080 FFF7FEFF 		bl	rcu_periph_reset_enable
  53:C:/Users/49542/Desktop/GD32F30x_Demo_Suites_V2.0.0/GD32F30x_Demo_Suites_V2.0.0/GD32F30x_Firmware_Library/GD32F30x_standard_peripheral/Source\gd32f30x_timer.c ****         break;
 114              		.loc 1 53 0
 115 0084 40F20B30 		movw	r0, #779
 116 0088 FFF7FEFF 		bl	rcu_periph_reset_disable
  54:C:/Users/49542/Desktop/GD32F30x_Demo_Suites_V2.0.0/GD32F30x_Demo_Suites_V2.0.0/GD32F30x_Firmware_Library/GD32F30x_standard_peripheral/Source\gd32f30x_timer.c ****     case TIMER1:
 117              		.loc 1 54 0
 118 008c 74E0     		b	.L20
 119              	.L7:
  57:C:/Users/49542/Desktop/GD32F30x_Demo_Suites_V2.0.0/GD32F30x_Demo_Suites_V2.0.0/GD32F30x_Firmware_Library/GD32F30x_standard_peripheral/Source\gd32f30x_timer.c ****         rcu_periph_reset_disable(RCU_TIMER1RST);
 120              		.loc 1 57 0
 121 008e 4FF48060 		mov	r0, #1024
 122 0092 FFF7FEFF 		bl	rcu_periph_reset_enable
  58:C:/Users/49542/Desktop/GD32F30x_Demo_Suites_V2.0.0/GD32F30x_Demo_Suites_V2.0.0/GD32F30x_Firmware_Library/GD32F30x_standard_peripheral/Source\gd32f30x_timer.c ****         break;
 123              		.loc 1 58 0
 124 0096 4FF48060 		mov	r0, #1024
 125 009a FFF7FEFF 		bl	rcu_periph_reset_disable
  59:C:/Users/49542/Desktop/GD32F30x_Demo_Suites_V2.0.0/GD32F30x_Demo_Suites_V2.0.0/GD32F30x_Firmware_Library/GD32F30x_standard_peripheral/Source\gd32f30x_timer.c ****     case TIMER2:
 126              		.loc 1 59 0
 127 009e 6BE0     		b	.L20
 128              	.L8:
  62:C:/Users/49542/Desktop/GD32F30x_Demo_Suites_V2.0.0/GD32F30x_Demo_Suites_V2.0.0/GD32F30x_Firmware_Library/GD32F30x_standard_peripheral/Source\gd32f30x_timer.c ****         rcu_periph_reset_disable(RCU_TIMER2RST);
 129              		.loc 1 62 0
 130 00a0 40F20140 		movw	r0, #1025
 131 00a4 FFF7FEFF 		bl	rcu_periph_reset_enable
  63:C:/Users/49542/Desktop/GD32F30x_Demo_Suites_V2.0.0/GD32F30x_Demo_Suites_V2.0.0/GD32F30x_Firmware_Library/GD32F30x_standard_peripheral/Source\gd32f30x_timer.c ****         break;
 132              		.loc 1 63 0
 133 00a8 40F20140 		movw	r0, #1025
 134 00ac FFF7FEFF 		bl	rcu_periph_reset_disable
  64:C:/Users/49542/Desktop/GD32F30x_Demo_Suites_V2.0.0/GD32F30x_Demo_Suites_V2.0.0/GD32F30x_Firmware_Library/GD32F30x_standard_peripheral/Source\gd32f30x_timer.c ****     case TIMER3:
 135              		.loc 1 64 0
 136 00b0 62E0     		b	.L20
 137              	.L5:
  67:C:/Users/49542/Desktop/GD32F30x_Demo_Suites_V2.0.0/GD32F30x_Demo_Suites_V2.0.0/GD32F30x_Firmware_Library/GD32F30x_standard_peripheral/Source\gd32f30x_timer.c ****         rcu_periph_reset_disable(RCU_TIMER3RST);
 138              		.loc 1 67 0
 139 00b2 40F20240 		movw	r0, #1026
 140 00b6 FFF7FEFF 		bl	rcu_periph_reset_enable
  68:C:/Users/49542/Desktop/GD32F30x_Demo_Suites_V2.0.0/GD32F30x_Demo_Suites_V2.0.0/GD32F30x_Firmware_Library/GD32F30x_standard_peripheral/Source\gd32f30x_timer.c ****         break;
 141              		.loc 1 68 0
 142 00ba 40F20240 		movw	r0, #1026
 143 00be FFF7FEFF 		bl	rcu_periph_reset_disable
  69:C:/Users/49542/Desktop/GD32F30x_Demo_Suites_V2.0.0/GD32F30x_Demo_Suites_V2.0.0/GD32F30x_Firmware_Library/GD32F30x_standard_peripheral/Source\gd32f30x_timer.c ****     case TIMER4:
 144              		.loc 1 69 0
 145 00c2 59E0     		b	.L20
 146              	.L11:
  72:C:/Users/49542/Desktop/GD32F30x_Demo_Suites_V2.0.0/GD32F30x_Demo_Suites_V2.0.0/GD32F30x_Firmware_Library/GD32F30x_standard_peripheral/Source\gd32f30x_timer.c ****         rcu_periph_reset_disable(RCU_TIMER4RST);
 147              		.loc 1 72 0
ARM GAS  C:\Users\49542\AppData\Local\Temp\ccx6VnNU.s 			page 6


 148 00c4 40F20340 		movw	r0, #1027
 149 00c8 FFF7FEFF 		bl	rcu_periph_reset_enable
  73:C:/Users/49542/Desktop/GD32F30x_Demo_Suites_V2.0.0/GD32F30x_Demo_Suites_V2.0.0/GD32F30x_Firmware_Library/GD32F30x_standard_peripheral/Source\gd32f30x_timer.c ****         break;
 150              		.loc 1 73 0
 151 00cc 40F20340 		movw	r0, #1027
 152 00d0 FFF7FEFF 		bl	rcu_periph_reset_disable
  74:C:/Users/49542/Desktop/GD32F30x_Demo_Suites_V2.0.0/GD32F30x_Demo_Suites_V2.0.0/GD32F30x_Firmware_Library/GD32F30x_standard_peripheral/Source\gd32f30x_timer.c ****     case TIMER5:
 153              		.loc 1 74 0
 154 00d4 50E0     		b	.L20
 155              	.L9:
  77:C:/Users/49542/Desktop/GD32F30x_Demo_Suites_V2.0.0/GD32F30x_Demo_Suites_V2.0.0/GD32F30x_Firmware_Library/GD32F30x_standard_peripheral/Source\gd32f30x_timer.c ****         rcu_periph_reset_disable(RCU_TIMER5RST);
 156              		.loc 1 77 0
 157 00d6 40F20440 		movw	r0, #1028
 158 00da FFF7FEFF 		bl	rcu_periph_reset_enable
  78:C:/Users/49542/Desktop/GD32F30x_Demo_Suites_V2.0.0/GD32F30x_Demo_Suites_V2.0.0/GD32F30x_Firmware_Library/GD32F30x_standard_peripheral/Source\gd32f30x_timer.c ****         break;
 159              		.loc 1 78 0
 160 00de 40F20440 		movw	r0, #1028
 161 00e2 FFF7FEFF 		bl	rcu_periph_reset_disable
  79:C:/Users/49542/Desktop/GD32F30x_Demo_Suites_V2.0.0/GD32F30x_Demo_Suites_V2.0.0/GD32F30x_Firmware_Library/GD32F30x_standard_peripheral/Source\gd32f30x_timer.c ****     case TIMER6:
 162              		.loc 1 79 0
 163 00e6 47E0     		b	.L20
 164              	.L10:
  82:C:/Users/49542/Desktop/GD32F30x_Demo_Suites_V2.0.0/GD32F30x_Demo_Suites_V2.0.0/GD32F30x_Firmware_Library/GD32F30x_standard_peripheral/Source\gd32f30x_timer.c ****         rcu_periph_reset_disable(RCU_TIMER6RST);
 165              		.loc 1 82 0
 166 00e8 40F20540 		movw	r0, #1029
 167 00ec FFF7FEFF 		bl	rcu_periph_reset_enable
  83:C:/Users/49542/Desktop/GD32F30x_Demo_Suites_V2.0.0/GD32F30x_Demo_Suites_V2.0.0/GD32F30x_Firmware_Library/GD32F30x_standard_peripheral/Source\gd32f30x_timer.c ****         break;
 168              		.loc 1 83 0
 169 00f0 40F20540 		movw	r0, #1029
 170 00f4 FFF7FEFF 		bl	rcu_periph_reset_disable
  84:C:/Users/49542/Desktop/GD32F30x_Demo_Suites_V2.0.0/GD32F30x_Demo_Suites_V2.0.0/GD32F30x_Firmware_Library/GD32F30x_standard_peripheral/Source\gd32f30x_timer.c ****     case TIMER7:
 171              		.loc 1 84 0
 172 00f8 3EE0     		b	.L20
 173              	.L12:
  87:C:/Users/49542/Desktop/GD32F30x_Demo_Suites_V2.0.0/GD32F30x_Demo_Suites_V2.0.0/GD32F30x_Firmware_Library/GD32F30x_standard_peripheral/Source\gd32f30x_timer.c ****         rcu_periph_reset_disable(RCU_TIMER7RST);
 174              		.loc 1 87 0
 175 00fa 40F20D30 		movw	r0, #781
 176 00fe FFF7FEFF 		bl	rcu_periph_reset_enable
  88:C:/Users/49542/Desktop/GD32F30x_Demo_Suites_V2.0.0/GD32F30x_Demo_Suites_V2.0.0/GD32F30x_Firmware_Library/GD32F30x_standard_peripheral/Source\gd32f30x_timer.c ****         break;
 177              		.loc 1 88 0
 178 0102 40F20D30 		movw	r0, #781
 179 0106 FFF7FEFF 		bl	rcu_periph_reset_disable
  89:C:/Users/49542/Desktop/GD32F30x_Demo_Suites_V2.0.0/GD32F30x_Demo_Suites_V2.0.0/GD32F30x_Firmware_Library/GD32F30x_standard_peripheral/Source\gd32f30x_timer.c **** #ifndef GD32F30X_HD
 180              		.loc 1 89 0
 181 010a 35E0     		b	.L20
 182              	.L19:
  93:C:/Users/49542/Desktop/GD32F30x_Demo_Suites_V2.0.0/GD32F30x_Demo_Suites_V2.0.0/GD32F30x_Firmware_Library/GD32F30x_standard_peripheral/Source\gd32f30x_timer.c ****         rcu_periph_reset_disable(RCU_TIMER8RST);
 183              		.loc 1 93 0
 184 010c 40F21330 		movw	r0, #787
 185 0110 FFF7FEFF 		bl	rcu_periph_reset_enable
  94:C:/Users/49542/Desktop/GD32F30x_Demo_Suites_V2.0.0/GD32F30x_Demo_Suites_V2.0.0/GD32F30x_Firmware_Library/GD32F30x_standard_peripheral/Source\gd32f30x_timer.c ****         break;
 186              		.loc 1 94 0
 187 0114 40F21330 		movw	r0, #787
 188 0118 FFF7FEFF 		bl	rcu_periph_reset_disable
  95:C:/Users/49542/Desktop/GD32F30x_Demo_Suites_V2.0.0/GD32F30x_Demo_Suites_V2.0.0/GD32F30x_Firmware_Library/GD32F30x_standard_peripheral/Source\gd32f30x_timer.c ****     case TIMER9:
 189              		.loc 1 95 0
 190 011c 2CE0     		b	.L20
ARM GAS  C:\Users\49542\AppData\Local\Temp\ccx6VnNU.s 			page 7


 191              	.L17:
  98:C:/Users/49542/Desktop/GD32F30x_Demo_Suites_V2.0.0/GD32F30x_Demo_Suites_V2.0.0/GD32F30x_Firmware_Library/GD32F30x_standard_peripheral/Source\gd32f30x_timer.c ****         rcu_periph_reset_disable(RCU_TIMER9RST);
 192              		.loc 1 98 0
 193 011e 4FF44570 		mov	r0, #788
 194 0122 FFF7FEFF 		bl	rcu_periph_reset_enable
  99:C:/Users/49542/Desktop/GD32F30x_Demo_Suites_V2.0.0/GD32F30x_Demo_Suites_V2.0.0/GD32F30x_Firmware_Library/GD32F30x_standard_peripheral/Source\gd32f30x_timer.c ****         break;
 195              		.loc 1 99 0
 196 0126 4FF44570 		mov	r0, #788
 197 012a FFF7FEFF 		bl	rcu_periph_reset_disable
 100:C:/Users/49542/Desktop/GD32F30x_Demo_Suites_V2.0.0/GD32F30x_Demo_Suites_V2.0.0/GD32F30x_Firmware_Library/GD32F30x_standard_peripheral/Source\gd32f30x_timer.c ****     case TIMER10:
 198              		.loc 1 100 0
 199 012e 23E0     		b	.L20
 200              	.L18:
 103:C:/Users/49542/Desktop/GD32F30x_Demo_Suites_V2.0.0/GD32F30x_Demo_Suites_V2.0.0/GD32F30x_Firmware_Library/GD32F30x_standard_peripheral/Source\gd32f30x_timer.c ****         rcu_periph_reset_disable(RCU_TIMER10RST);
 201              		.loc 1 103 0
 202 0130 40F21530 		movw	r0, #789
 203 0134 FFF7FEFF 		bl	rcu_periph_reset_enable
 104:C:/Users/49542/Desktop/GD32F30x_Demo_Suites_V2.0.0/GD32F30x_Demo_Suites_V2.0.0/GD32F30x_Firmware_Library/GD32F30x_standard_peripheral/Source\gd32f30x_timer.c ****         break;
 204              		.loc 1 104 0
 205 0138 40F21530 		movw	r0, #789
 206 013c FFF7FEFF 		bl	rcu_periph_reset_disable
 105:C:/Users/49542/Desktop/GD32F30x_Demo_Suites_V2.0.0/GD32F30x_Demo_Suites_V2.0.0/GD32F30x_Firmware_Library/GD32F30x_standard_peripheral/Source\gd32f30x_timer.c ****     case TIMER11:
 207              		.loc 1 105 0
 208 0140 1AE0     		b	.L20
 209              	.L3:
 108:C:/Users/49542/Desktop/GD32F30x_Demo_Suites_V2.0.0/GD32F30x_Demo_Suites_V2.0.0/GD32F30x_Firmware_Library/GD32F30x_standard_peripheral/Source\gd32f30x_timer.c ****         rcu_periph_reset_disable(RCU_TIMER11RST);
 210              		.loc 1 108 0
 211 0142 40F20640 		movw	r0, #1030
 212 0146 FFF7FEFF 		bl	rcu_periph_reset_enable
 109:C:/Users/49542/Desktop/GD32F30x_Demo_Suites_V2.0.0/GD32F30x_Demo_Suites_V2.0.0/GD32F30x_Firmware_Library/GD32F30x_standard_peripheral/Source\gd32f30x_timer.c ****         break;
 213              		.loc 1 109 0
 214 014a 40F20640 		movw	r0, #1030
 215 014e FFF7FEFF 		bl	rcu_periph_reset_disable
 110:C:/Users/49542/Desktop/GD32F30x_Demo_Suites_V2.0.0/GD32F30x_Demo_Suites_V2.0.0/GD32F30x_Firmware_Library/GD32F30x_standard_peripheral/Source\gd32f30x_timer.c ****     case TIMER12:
 216              		.loc 1 110 0
 217 0152 11E0     		b	.L20
 218              	.L16:
 113:C:/Users/49542/Desktop/GD32F30x_Demo_Suites_V2.0.0/GD32F30x_Demo_Suites_V2.0.0/GD32F30x_Firmware_Library/GD32F30x_standard_peripheral/Source\gd32f30x_timer.c ****         rcu_periph_reset_disable(RCU_TIMER12RST);
 219              		.loc 1 113 0
 220 0154 40F20740 		movw	r0, #1031
 221 0158 FFF7FEFF 		bl	rcu_periph_reset_enable
 114:C:/Users/49542/Desktop/GD32F30x_Demo_Suites_V2.0.0/GD32F30x_Demo_Suites_V2.0.0/GD32F30x_Firmware_Library/GD32F30x_standard_peripheral/Source\gd32f30x_timer.c ****         break;
 222              		.loc 1 114 0
 223 015c 40F20740 		movw	r0, #1031
 224 0160 FFF7FEFF 		bl	rcu_periph_reset_disable
 115:C:/Users/49542/Desktop/GD32F30x_Demo_Suites_V2.0.0/GD32F30x_Demo_Suites_V2.0.0/GD32F30x_Firmware_Library/GD32F30x_standard_peripheral/Source\gd32f30x_timer.c ****     case TIMER13:
 225              		.loc 1 115 0
 226 0164 08E0     		b	.L20
 227              	.L14:
 118:C:/Users/49542/Desktop/GD32F30x_Demo_Suites_V2.0.0/GD32F30x_Demo_Suites_V2.0.0/GD32F30x_Firmware_Library/GD32F30x_standard_peripheral/Source\gd32f30x_timer.c ****         rcu_periph_reset_disable(RCU_TIMER13RST);
 228              		.loc 1 118 0
 229 0166 4FF48160 		mov	r0, #1032
 230 016a FFF7FEFF 		bl	rcu_periph_reset_enable
 119:C:/Users/49542/Desktop/GD32F30x_Demo_Suites_V2.0.0/GD32F30x_Demo_Suites_V2.0.0/GD32F30x_Firmware_Library/GD32F30x_standard_peripheral/Source\gd32f30x_timer.c ****         break;
 231              		.loc 1 119 0
 232 016e 4FF48160 		mov	r0, #1032
 233 0172 FFF7FEFF 		bl	rcu_periph_reset_disable
ARM GAS  C:\Users\49542\AppData\Local\Temp\ccx6VnNU.s 			page 8


 120:C:/Users/49542/Desktop/GD32F30x_Demo_Suites_V2.0.0/GD32F30x_Demo_Suites_V2.0.0/GD32F30x_Firmware_Library/GD32F30x_standard_peripheral/Source\gd32f30x_timer.c **** #endif /* GD32F30X_HD */
 234              		.loc 1 120 0
 235 0176 00BF     		nop
 236              	.L20:
 124:C:/Users/49542/Desktop/GD32F30x_Demo_Suites_V2.0.0/GD32F30x_Demo_Suites_V2.0.0/GD32F30x_Firmware_Library/GD32F30x_standard_peripheral/Source\gd32f30x_timer.c ****     }
 125:C:/Users/49542/Desktop/GD32F30x_Demo_Suites_V2.0.0/GD32F30x_Demo_Suites_V2.0.0/GD32F30x_Firmware_Library/GD32F30x_standard_peripheral/Source\gd32f30x_timer.c **** }
 237              		.loc 1 125 0
 238 0178 00BF     		nop
 239 017a 0837     		adds	r7, r7, #8
 240              	.LCFI3:
 241              		.cfi_def_cfa_offset 8
 242 017c BD46     		mov	sp, r7
 243              	.LCFI4:
 244              		.cfi_def_cfa_register 13
 245              		@ sp needed
 246 017e 80BD     		pop	{r7, pc}
 247              	.L22:
 248              		.align	2
 249              	.L21:
 250 0180 00180040 		.word	1073747968
 251 0184 00080040 		.word	1073743872
 252 0188 00040040 		.word	1073742848
 253 018c 00100040 		.word	1073745920
 254 0190 00140040 		.word	1073746944
 255 0194 000C0040 		.word	1073744896
 256 0198 00340140 		.word	1073820672
 257 019c 00200040 		.word	1073750016
 258 01a0 002C0140 		.word	1073818624
 259 01a4 001C0040 		.word	1073748992
 260 01a8 00500140 		.word	1073827840
 261 01ac 00540140 		.word	1073828864
 262 01b0 004C0140 		.word	1073826816
 263              		.cfi_endproc
 264              	.LFE116:
 266              		.section	.text.timer_struct_para_init,"ax",%progbits
 267              		.align	1
 268              		.global	timer_struct_para_init
 269              		.syntax unified
 270              		.thumb
 271              		.thumb_func
 272              		.fpu fpv4-sp-d16
 274              	timer_struct_para_init:
 275              	.LFB117:
 126:C:/Users/49542/Desktop/GD32F30x_Demo_Suites_V2.0.0/GD32F30x_Demo_Suites_V2.0.0/GD32F30x_Firmware_Library/GD32F30x_standard_peripheral/Source\gd32f30x_timer.c **** 
 127:C:/Users/49542/Desktop/GD32F30x_Demo_Suites_V2.0.0/GD32F30x_Demo_Suites_V2.0.0/GD32F30x_Firmware_Library/GD32F30x_standard_peripheral/Source\gd32f30x_timer.c **** /*!
 128:C:/Users/49542/Desktop/GD32F30x_Demo_Suites_V2.0.0/GD32F30x_Demo_Suites_V2.0.0/GD32F30x_Firmware_Library/GD32F30x_standard_peripheral/Source\gd32f30x_timer.c ****     \brief      initialize TIMER init parameter struct with a default value
 129:C:/Users/49542/Desktop/GD32F30x_Demo_Suites_V2.0.0/GD32F30x_Demo_Suites_V2.0.0/GD32F30x_Firmware_Library/GD32F30x_standard_peripheral/Source\gd32f30x_timer.c ****     \param[in]  initpara: init parameter struct
 130:C:/Users/49542/Desktop/GD32F30x_Demo_Suites_V2.0.0/GD32F30x_Demo_Suites_V2.0.0/GD32F30x_Firmware_Library/GD32F30x_standard_peripheral/Source\gd32f30x_timer.c ****     \param[out] none
 131:C:/Users/49542/Desktop/GD32F30x_Demo_Suites_V2.0.0/GD32F30x_Demo_Suites_V2.0.0/GD32F30x_Firmware_Library/GD32F30x_standard_peripheral/Source\gd32f30x_timer.c ****     \retval     none
 132:C:/Users/49542/Desktop/GD32F30x_Demo_Suites_V2.0.0/GD32F30x_Demo_Suites_V2.0.0/GD32F30x_Firmware_Library/GD32F30x_standard_peripheral/Source\gd32f30x_timer.c **** */
 133:C:/Users/49542/Desktop/GD32F30x_Demo_Suites_V2.0.0/GD32F30x_Demo_Suites_V2.0.0/GD32F30x_Firmware_Library/GD32F30x_standard_peripheral/Source\gd32f30x_timer.c **** void timer_struct_para_init(timer_parameter_struct* initpara)
 134:C:/Users/49542/Desktop/GD32F30x_Demo_Suites_V2.0.0/GD32F30x_Demo_Suites_V2.0.0/GD32F30x_Firmware_Library/GD32F30x_standard_peripheral/Source\gd32f30x_timer.c **** {
 276              		.loc 1 134 0
 277              		.cfi_startproc
 278              		@ args = 0, pretend = 0, frame = 8
 279              		@ frame_needed = 1, uses_anonymous_args = 0
 280              		@ link register save eliminated.
ARM GAS  C:\Users\49542\AppData\Local\Temp\ccx6VnNU.s 			page 9


 281 0000 80B4     		push	{r7}
 282              	.LCFI5:
 283              		.cfi_def_cfa_offset 4
 284              		.cfi_offset 7, -4
 285 0002 83B0     		sub	sp, sp, #12
 286              	.LCFI6:
 287              		.cfi_def_cfa_offset 16
 288 0004 00AF     		add	r7, sp, #0
 289              	.LCFI7:
 290              		.cfi_def_cfa_register 7
 291 0006 7860     		str	r0, [r7, #4]
 135:C:/Users/49542/Desktop/GD32F30x_Demo_Suites_V2.0.0/GD32F30x_Demo_Suites_V2.0.0/GD32F30x_Firmware_Library/GD32F30x_standard_peripheral/Source\gd32f30x_timer.c ****     /* initialize the init parameter struct member with the default value */
 136:C:/Users/49542/Desktop/GD32F30x_Demo_Suites_V2.0.0/GD32F30x_Demo_Suites_V2.0.0/GD32F30x_Firmware_Library/GD32F30x_standard_peripheral/Source\gd32f30x_timer.c ****     initpara->prescaler         = 0U;
 292              		.loc 1 136 0
 293 0008 7B68     		ldr	r3, [r7, #4]
 294 000a 0022     		movs	r2, #0
 295 000c 1A80     		strh	r2, [r3]	@ movhi
 137:C:/Users/49542/Desktop/GD32F30x_Demo_Suites_V2.0.0/GD32F30x_Demo_Suites_V2.0.0/GD32F30x_Firmware_Library/GD32F30x_standard_peripheral/Source\gd32f30x_timer.c ****     initpara->alignedmode       = TIMER_COUNTER_EDGE;
 296              		.loc 1 137 0
 297 000e 7B68     		ldr	r3, [r7, #4]
 298 0010 0022     		movs	r2, #0
 299 0012 5A80     		strh	r2, [r3, #2]	@ movhi
 138:C:/Users/49542/Desktop/GD32F30x_Demo_Suites_V2.0.0/GD32F30x_Demo_Suites_V2.0.0/GD32F30x_Firmware_Library/GD32F30x_standard_peripheral/Source\gd32f30x_timer.c ****     initpara->counterdirection  = TIMER_COUNTER_UP;
 300              		.loc 1 138 0
 301 0014 7B68     		ldr	r3, [r7, #4]
 302 0016 0022     		movs	r2, #0
 303 0018 9A80     		strh	r2, [r3, #4]	@ movhi
 139:C:/Users/49542/Desktop/GD32F30x_Demo_Suites_V2.0.0/GD32F30x_Demo_Suites_V2.0.0/GD32F30x_Firmware_Library/GD32F30x_standard_peripheral/Source\gd32f30x_timer.c ****     initpara->period            = 65535U;
 304              		.loc 1 139 0
 305 001a 7B68     		ldr	r3, [r7, #4]
 306 001c 4FF6FF72 		movw	r2, #65535
 307 0020 9A60     		str	r2, [r3, #8]
 140:C:/Users/49542/Desktop/GD32F30x_Demo_Suites_V2.0.0/GD32F30x_Demo_Suites_V2.0.0/GD32F30x_Firmware_Library/GD32F30x_standard_peripheral/Source\gd32f30x_timer.c ****     initpara->clockdivision     = TIMER_CKDIV_DIV1;
 308              		.loc 1 140 0
 309 0022 7B68     		ldr	r3, [r7, #4]
 310 0024 0022     		movs	r2, #0
 311 0026 DA80     		strh	r2, [r3, #6]	@ movhi
 141:C:/Users/49542/Desktop/GD32F30x_Demo_Suites_V2.0.0/GD32F30x_Demo_Suites_V2.0.0/GD32F30x_Firmware_Library/GD32F30x_standard_peripheral/Source\gd32f30x_timer.c ****     initpara->repetitioncounter = 0U;
 312              		.loc 1 141 0
 313 0028 7B68     		ldr	r3, [r7, #4]
 314 002a 0022     		movs	r2, #0
 315 002c 1A73     		strb	r2, [r3, #12]
 142:C:/Users/49542/Desktop/GD32F30x_Demo_Suites_V2.0.0/GD32F30x_Demo_Suites_V2.0.0/GD32F30x_Firmware_Library/GD32F30x_standard_peripheral/Source\gd32f30x_timer.c **** }
 316              		.loc 1 142 0
 317 002e 00BF     		nop
 318 0030 0C37     		adds	r7, r7, #12
 319              	.LCFI8:
 320              		.cfi_def_cfa_offset 4
 321 0032 BD46     		mov	sp, r7
 322              	.LCFI9:
 323              		.cfi_def_cfa_register 13
 324              		@ sp needed
 325 0034 5DF8047B 		ldr	r7, [sp], #4
 326              	.LCFI10:
 327              		.cfi_restore 7
 328              		.cfi_def_cfa_offset 0
 329 0038 7047     		bx	lr
ARM GAS  C:\Users\49542\AppData\Local\Temp\ccx6VnNU.s 			page 10


 330              		.cfi_endproc
 331              	.LFE117:
 333              		.section	.text.timer_init,"ax",%progbits
 334              		.align	1
 335              		.global	timer_init
 336              		.syntax unified
 337              		.thumb
 338              		.thumb_func
 339              		.fpu fpv4-sp-d16
 341              	timer_init:
 342              	.LFB118:
 143:C:/Users/49542/Desktop/GD32F30x_Demo_Suites_V2.0.0/GD32F30x_Demo_Suites_V2.0.0/GD32F30x_Firmware_Library/GD32F30x_standard_peripheral/Source\gd32f30x_timer.c **** 
 144:C:/Users/49542/Desktop/GD32F30x_Demo_Suites_V2.0.0/GD32F30x_Demo_Suites_V2.0.0/GD32F30x_Firmware_Library/GD32F30x_standard_peripheral/Source\gd32f30x_timer.c **** /*!
 145:C:/Users/49542/Desktop/GD32F30x_Demo_Suites_V2.0.0/GD32F30x_Demo_Suites_V2.0.0/GD32F30x_Firmware_Library/GD32F30x_standard_peripheral/Source\gd32f30x_timer.c ****     \brief      initialize TIMER counter
 146:C:/Users/49542/Desktop/GD32F30x_Demo_Suites_V2.0.0/GD32F30x_Demo_Suites_V2.0.0/GD32F30x_Firmware_Library/GD32F30x_standard_peripheral/Source\gd32f30x_timer.c ****     \param[in]  timer_periph: TIMERx(x=0..13)
 147:C:/Users/49542/Desktop/GD32F30x_Demo_Suites_V2.0.0/GD32F30x_Demo_Suites_V2.0.0/GD32F30x_Firmware_Library/GD32F30x_standard_peripheral/Source\gd32f30x_timer.c ****     \param[in]  initpara: init parameter struct
 148:C:/Users/49542/Desktop/GD32F30x_Demo_Suites_V2.0.0/GD32F30x_Demo_Suites_V2.0.0/GD32F30x_Firmware_Library/GD32F30x_standard_peripheral/Source\gd32f30x_timer.c ****                   prescaler: prescaler value of the counter clock, 0~65535
 149:C:/Users/49542/Desktop/GD32F30x_Demo_Suites_V2.0.0/GD32F30x_Demo_Suites_V2.0.0/GD32F30x_Firmware_Library/GD32F30x_standard_peripheral/Source\gd32f30x_timer.c ****                   alignedmode: TIMER_COUNTER_EDGE, TIMER_COUNTER_CENTER_DOWN, TIMER_COUNTER_CENTER_
 150:C:/Users/49542/Desktop/GD32F30x_Demo_Suites_V2.0.0/GD32F30x_Demo_Suites_V2.0.0/GD32F30x_Firmware_Library/GD32F30x_standard_peripheral/Source\gd32f30x_timer.c ****                   counterdirection: TIMER_COUNTER_UP, TIMER_COUNTER_DOWN
 151:C:/Users/49542/Desktop/GD32F30x_Demo_Suites_V2.0.0/GD32F30x_Demo_Suites_V2.0.0/GD32F30x_Firmware_Library/GD32F30x_standard_peripheral/Source\gd32f30x_timer.c ****                   period: counter auto reload value, 0~65535
 152:C:/Users/49542/Desktop/GD32F30x_Demo_Suites_V2.0.0/GD32F30x_Demo_Suites_V2.0.0/GD32F30x_Firmware_Library/GD32F30x_standard_peripheral/Source\gd32f30x_timer.c ****                   clockdivision: TIMER_CKDIV_DIV1, TIMER_CKDIV_DIV2, TIMER_CKDIV_DIV4
 153:C:/Users/49542/Desktop/GD32F30x_Demo_Suites_V2.0.0/GD32F30x_Demo_Suites_V2.0.0/GD32F30x_Firmware_Library/GD32F30x_standard_peripheral/Source\gd32f30x_timer.c ****                   repetitioncounter: counter repetition value, 0~255
 154:C:/Users/49542/Desktop/GD32F30x_Demo_Suites_V2.0.0/GD32F30x_Demo_Suites_V2.0.0/GD32F30x_Firmware_Library/GD32F30x_standard_peripheral/Source\gd32f30x_timer.c ****     \param[out] none
 155:C:/Users/49542/Desktop/GD32F30x_Demo_Suites_V2.0.0/GD32F30x_Demo_Suites_V2.0.0/GD32F30x_Firmware_Library/GD32F30x_standard_peripheral/Source\gd32f30x_timer.c ****     \retval     none
 156:C:/Users/49542/Desktop/GD32F30x_Demo_Suites_V2.0.0/GD32F30x_Demo_Suites_V2.0.0/GD32F30x_Firmware_Library/GD32F30x_standard_peripheral/Source\gd32f30x_timer.c **** */
 157:C:/Users/49542/Desktop/GD32F30x_Demo_Suites_V2.0.0/GD32F30x_Demo_Suites_V2.0.0/GD32F30x_Firmware_Library/GD32F30x_standard_peripheral/Source\gd32f30x_timer.c **** void timer_init(uint32_t timer_periph, timer_parameter_struct* initpara)
 158:C:/Users/49542/Desktop/GD32F30x_Demo_Suites_V2.0.0/GD32F30x_Demo_Suites_V2.0.0/GD32F30x_Firmware_Library/GD32F30x_standard_peripheral/Source\gd32f30x_timer.c **** {
 343              		.loc 1 158 0
 344              		.cfi_startproc
 345              		@ args = 0, pretend = 0, frame = 8
 346              		@ frame_needed = 1, uses_anonymous_args = 0
 347              		@ link register save eliminated.
 348 0000 80B4     		push	{r7}
 349              	.LCFI11:
 350              		.cfi_def_cfa_offset 4
 351              		.cfi_offset 7, -4
 352 0002 83B0     		sub	sp, sp, #12
 353              	.LCFI12:
 354              		.cfi_def_cfa_offset 16
 355 0004 00AF     		add	r7, sp, #0
 356              	.LCFI13:
 357              		.cfi_def_cfa_register 7
 358 0006 7860     		str	r0, [r7, #4]
 359 0008 3960     		str	r1, [r7]
 159:C:/Users/49542/Desktop/GD32F30x_Demo_Suites_V2.0.0/GD32F30x_Demo_Suites_V2.0.0/GD32F30x_Firmware_Library/GD32F30x_standard_peripheral/Source\gd32f30x_timer.c ****     /* configure the counter prescaler value */
 160:C:/Users/49542/Desktop/GD32F30x_Demo_Suites_V2.0.0/GD32F30x_Demo_Suites_V2.0.0/GD32F30x_Firmware_Library/GD32F30x_standard_peripheral/Source\gd32f30x_timer.c ****     TIMER_PSC(timer_periph) = (uint16_t)initpara->prescaler;
 360              		.loc 1 160 0
 361 000a 3B68     		ldr	r3, [r7]
 362 000c 1A88     		ldrh	r2, [r3]
 363 000e 7B68     		ldr	r3, [r7, #4]
 364 0010 2833     		adds	r3, r3, #40
 365 0012 1A60     		str	r2, [r3]
 161:C:/Users/49542/Desktop/GD32F30x_Demo_Suites_V2.0.0/GD32F30x_Demo_Suites_V2.0.0/GD32F30x_Firmware_Library/GD32F30x_standard_peripheral/Source\gd32f30x_timer.c **** 
 162:C:/Users/49542/Desktop/GD32F30x_Demo_Suites_V2.0.0/GD32F30x_Demo_Suites_V2.0.0/GD32F30x_Firmware_Library/GD32F30x_standard_peripheral/Source\gd32f30x_timer.c ****     /* configure the counter direction and aligned mode */
 163:C:/Users/49542/Desktop/GD32F30x_Demo_Suites_V2.0.0/GD32F30x_Demo_Suites_V2.0.0/GD32F30x_Firmware_Library/GD32F30x_standard_peripheral/Source\gd32f30x_timer.c ****     if((TIMER0 == timer_periph) || (TIMER1 == timer_periph) || (TIMER2 == timer_periph)
 366              		.loc 1 163 0
 367 0014 7B68     		ldr	r3, [r7, #4]
ARM GAS  C:\Users\49542\AppData\Local\Temp\ccx6VnNU.s 			page 11


 368 0016 324A     		ldr	r2, .L30
 369 0018 9342     		cmp	r3, r2
 370 001a 13D0     		beq	.L25
 371              		.loc 1 163 0 is_stmt 0 discriminator 1
 372 001c 7B68     		ldr	r3, [r7, #4]
 373 001e B3F1804F 		cmp	r3, #1073741824
 374 0022 0FD0     		beq	.L25
 375              		.loc 1 163 0 discriminator 2
 376 0024 7B68     		ldr	r3, [r7, #4]
 377 0026 2F4A     		ldr	r2, .L30+4
 378 0028 9342     		cmp	r3, r2
 379 002a 0BD0     		beq	.L25
 164:C:/Users/49542/Desktop/GD32F30x_Demo_Suites_V2.0.0/GD32F30x_Demo_Suites_V2.0.0/GD32F30x_Firmware_Library/GD32F30x_standard_peripheral/Source\gd32f30x_timer.c ****         || (TIMER3 == timer_periph) || (TIMER4 == timer_periph) || (TIMER7 == timer_periph)){
 380              		.loc 1 164 0 is_stmt 1
 381 002c 7B68     		ldr	r3, [r7, #4]
 382 002e 2E4A     		ldr	r2, .L30+8
 383 0030 9342     		cmp	r3, r2
 384 0032 07D0     		beq	.L25
 385              		.loc 1 164 0 is_stmt 0 discriminator 1
 386 0034 7B68     		ldr	r3, [r7, #4]
 387 0036 2D4A     		ldr	r2, .L30+12
 388 0038 9342     		cmp	r3, r2
 389 003a 03D0     		beq	.L25
 390              		.loc 1 164 0 discriminator 2
 391 003c 7B68     		ldr	r3, [r7, #4]
 392 003e 2C4A     		ldr	r2, .L30+16
 393 0040 9342     		cmp	r3, r2
 394 0042 15D1     		bne	.L26
 395              	.L25:
 165:C:/Users/49542/Desktop/GD32F30x_Demo_Suites_V2.0.0/GD32F30x_Demo_Suites_V2.0.0/GD32F30x_Firmware_Library/GD32F30x_standard_peripheral/Source\gd32f30x_timer.c ****         TIMER_CTL0(timer_periph) &= ~(uint32_t)(TIMER_CTL0_DIR|TIMER_CTL0_CAM);
 396              		.loc 1 165 0 is_stmt 1
 397 0044 7B68     		ldr	r3, [r7, #4]
 398 0046 1A68     		ldr	r2, [r3]
 399 0048 7B68     		ldr	r3, [r7, #4]
 400 004a 22F07002 		bic	r2, r2, #112
 401 004e 1A60     		str	r2, [r3]
 166:C:/Users/49542/Desktop/GD32F30x_Demo_Suites_V2.0.0/GD32F30x_Demo_Suites_V2.0.0/GD32F30x_Firmware_Library/GD32F30x_standard_peripheral/Source\gd32f30x_timer.c ****         TIMER_CTL0(timer_periph) |= (uint32_t)initpara->alignedmode;
 402              		.loc 1 166 0
 403 0050 7B68     		ldr	r3, [r7, #4]
 404 0052 1A68     		ldr	r2, [r3]
 405 0054 3B68     		ldr	r3, [r7]
 406 0056 5B88     		ldrh	r3, [r3, #2]
 407 0058 1946     		mov	r1, r3
 408 005a 7B68     		ldr	r3, [r7, #4]
 409 005c 0A43     		orrs	r2, r2, r1
 410 005e 1A60     		str	r2, [r3]
 167:C:/Users/49542/Desktop/GD32F30x_Demo_Suites_V2.0.0/GD32F30x_Demo_Suites_V2.0.0/GD32F30x_Firmware_Library/GD32F30x_standard_peripheral/Source\gd32f30x_timer.c ****         TIMER_CTL0(timer_periph) |= (uint32_t)initpara->counterdirection;
 411              		.loc 1 167 0
 412 0060 7B68     		ldr	r3, [r7, #4]
 413 0062 1A68     		ldr	r2, [r3]
 414 0064 3B68     		ldr	r3, [r7]
 415 0066 9B88     		ldrh	r3, [r3, #4]
 416 0068 1946     		mov	r1, r3
 417 006a 7B68     		ldr	r3, [r7, #4]
 418 006c 0A43     		orrs	r2, r2, r1
 419 006e 1A60     		str	r2, [r3]
 420              	.L26:
ARM GAS  C:\Users\49542\AppData\Local\Temp\ccx6VnNU.s 			page 12


 168:C:/Users/49542/Desktop/GD32F30x_Demo_Suites_V2.0.0/GD32F30x_Demo_Suites_V2.0.0/GD32F30x_Firmware_Library/GD32F30x_standard_peripheral/Source\gd32f30x_timer.c ****     }
 169:C:/Users/49542/Desktop/GD32F30x_Demo_Suites_V2.0.0/GD32F30x_Demo_Suites_V2.0.0/GD32F30x_Firmware_Library/GD32F30x_standard_peripheral/Source\gd32f30x_timer.c **** 
 170:C:/Users/49542/Desktop/GD32F30x_Demo_Suites_V2.0.0/GD32F30x_Demo_Suites_V2.0.0/GD32F30x_Firmware_Library/GD32F30x_standard_peripheral/Source\gd32f30x_timer.c ****     /* configure the autoreload value */
 171:C:/Users/49542/Desktop/GD32F30x_Demo_Suites_V2.0.0/GD32F30x_Demo_Suites_V2.0.0/GD32F30x_Firmware_Library/GD32F30x_standard_peripheral/Source\gd32f30x_timer.c ****     TIMER_CAR(timer_periph) = (uint32_t)initpara->period;
 421              		.loc 1 171 0
 422 0070 7B68     		ldr	r3, [r7, #4]
 423 0072 2C33     		adds	r3, r3, #44
 424 0074 1A46     		mov	r2, r3
 425 0076 3B68     		ldr	r3, [r7]
 426 0078 9B68     		ldr	r3, [r3, #8]
 427 007a 1360     		str	r3, [r2]
 172:C:/Users/49542/Desktop/GD32F30x_Demo_Suites_V2.0.0/GD32F30x_Demo_Suites_V2.0.0/GD32F30x_Firmware_Library/GD32F30x_standard_peripheral/Source\gd32f30x_timer.c **** 
 173:C:/Users/49542/Desktop/GD32F30x_Demo_Suites_V2.0.0/GD32F30x_Demo_Suites_V2.0.0/GD32F30x_Firmware_Library/GD32F30x_standard_peripheral/Source\gd32f30x_timer.c ****     if((TIMER5 != timer_periph) && (TIMER6 != timer_periph)){
 428              		.loc 1 173 0
 429 007c 7B68     		ldr	r3, [r7, #4]
 430 007e 1D4A     		ldr	r2, .L30+20
 431 0080 9342     		cmp	r3, r2
 432 0082 11D0     		beq	.L27
 433              		.loc 1 173 0 is_stmt 0 discriminator 1
 434 0084 7B68     		ldr	r3, [r7, #4]
 435 0086 1C4A     		ldr	r2, .L30+24
 436 0088 9342     		cmp	r3, r2
 437 008a 0DD0     		beq	.L27
 174:C:/Users/49542/Desktop/GD32F30x_Demo_Suites_V2.0.0/GD32F30x_Demo_Suites_V2.0.0/GD32F30x_Firmware_Library/GD32F30x_standard_peripheral/Source\gd32f30x_timer.c ****         /* reset the CKDIV bit */
 175:C:/Users/49542/Desktop/GD32F30x_Demo_Suites_V2.0.0/GD32F30x_Demo_Suites_V2.0.0/GD32F30x_Firmware_Library/GD32F30x_standard_peripheral/Source\gd32f30x_timer.c ****         TIMER_CTL0(timer_periph) &= ~(uint32_t)TIMER_CTL0_CKDIV;
 438              		.loc 1 175 0 is_stmt 1
 439 008c 7B68     		ldr	r3, [r7, #4]
 440 008e 1A68     		ldr	r2, [r3]
 441 0090 7B68     		ldr	r3, [r7, #4]
 442 0092 22F44072 		bic	r2, r2, #768
 443 0096 1A60     		str	r2, [r3]
 176:C:/Users/49542/Desktop/GD32F30x_Demo_Suites_V2.0.0/GD32F30x_Demo_Suites_V2.0.0/GD32F30x_Firmware_Library/GD32F30x_standard_peripheral/Source\gd32f30x_timer.c ****         TIMER_CTL0(timer_periph) |= (uint32_t)initpara->clockdivision;
 444              		.loc 1 176 0
 445 0098 7B68     		ldr	r3, [r7, #4]
 446 009a 1A68     		ldr	r2, [r3]
 447 009c 3B68     		ldr	r3, [r7]
 448 009e DB88     		ldrh	r3, [r3, #6]
 449 00a0 1946     		mov	r1, r3
 450 00a2 7B68     		ldr	r3, [r7, #4]
 451 00a4 0A43     		orrs	r2, r2, r1
 452 00a6 1A60     		str	r2, [r3]
 453              	.L27:
 177:C:/Users/49542/Desktop/GD32F30x_Demo_Suites_V2.0.0/GD32F30x_Demo_Suites_V2.0.0/GD32F30x_Firmware_Library/GD32F30x_standard_peripheral/Source\gd32f30x_timer.c ****     }
 178:C:/Users/49542/Desktop/GD32F30x_Demo_Suites_V2.0.0/GD32F30x_Demo_Suites_V2.0.0/GD32F30x_Firmware_Library/GD32F30x_standard_peripheral/Source\gd32f30x_timer.c **** 
 179:C:/Users/49542/Desktop/GD32F30x_Demo_Suites_V2.0.0/GD32F30x_Demo_Suites_V2.0.0/GD32F30x_Firmware_Library/GD32F30x_standard_peripheral/Source\gd32f30x_timer.c ****     if((TIMER0 == timer_periph) || (TIMER7 == timer_periph)){
 454              		.loc 1 179 0
 455 00a8 7B68     		ldr	r3, [r7, #4]
 456 00aa 0D4A     		ldr	r2, .L30
 457 00ac 9342     		cmp	r3, r2
 458 00ae 03D0     		beq	.L28
 459              		.loc 1 179 0 is_stmt 0 discriminator 1
 460 00b0 7B68     		ldr	r3, [r7, #4]
 461 00b2 0F4A     		ldr	r2, .L30+16
 462 00b4 9342     		cmp	r3, r2
 463 00b6 04D1     		bne	.L29
 464              	.L28:
 180:C:/Users/49542/Desktop/GD32F30x_Demo_Suites_V2.0.0/GD32F30x_Demo_Suites_V2.0.0/GD32F30x_Firmware_Library/GD32F30x_standard_peripheral/Source\gd32f30x_timer.c ****         /* configure the repetition counter value */
ARM GAS  C:\Users\49542\AppData\Local\Temp\ccx6VnNU.s 			page 13


 181:C:/Users/49542/Desktop/GD32F30x_Demo_Suites_V2.0.0/GD32F30x_Demo_Suites_V2.0.0/GD32F30x_Firmware_Library/GD32F30x_standard_peripheral/Source\gd32f30x_timer.c ****         TIMER_CREP(timer_periph) = (uint32_t)initpara->repetitioncounter;
 465              		.loc 1 181 0 is_stmt 1
 466 00b8 3B68     		ldr	r3, [r7]
 467 00ba 1A7B     		ldrb	r2, [r3, #12]	@ zero_extendqisi2
 468 00bc 7B68     		ldr	r3, [r7, #4]
 469 00be 3033     		adds	r3, r3, #48
 470 00c0 1A60     		str	r2, [r3]
 471              	.L29:
 182:C:/Users/49542/Desktop/GD32F30x_Demo_Suites_V2.0.0/GD32F30x_Demo_Suites_V2.0.0/GD32F30x_Firmware_Library/GD32F30x_standard_peripheral/Source\gd32f30x_timer.c ****     }
 183:C:/Users/49542/Desktop/GD32F30x_Demo_Suites_V2.0.0/GD32F30x_Demo_Suites_V2.0.0/GD32F30x_Firmware_Library/GD32F30x_standard_peripheral/Source\gd32f30x_timer.c **** 
 184:C:/Users/49542/Desktop/GD32F30x_Demo_Suites_V2.0.0/GD32F30x_Demo_Suites_V2.0.0/GD32F30x_Firmware_Library/GD32F30x_standard_peripheral/Source\gd32f30x_timer.c ****     /* generate an update event */
 185:C:/Users/49542/Desktop/GD32F30x_Demo_Suites_V2.0.0/GD32F30x_Demo_Suites_V2.0.0/GD32F30x_Firmware_Library/GD32F30x_standard_peripheral/Source\gd32f30x_timer.c ****     TIMER_SWEVG(timer_periph) |= (uint32_t)TIMER_SWEVG_UPG;
 472              		.loc 1 185 0
 473 00c2 7B68     		ldr	r3, [r7, #4]
 474 00c4 1433     		adds	r3, r3, #20
 475 00c6 1B68     		ldr	r3, [r3]
 476 00c8 7A68     		ldr	r2, [r7, #4]
 477 00ca 1432     		adds	r2, r2, #20
 478 00cc 43F00103 		orr	r3, r3, #1
 479 00d0 1360     		str	r3, [r2]
 186:C:/Users/49542/Desktop/GD32F30x_Demo_Suites_V2.0.0/GD32F30x_Demo_Suites_V2.0.0/GD32F30x_Firmware_Library/GD32F30x_standard_peripheral/Source\gd32f30x_timer.c **** }
 480              		.loc 1 186 0
 481 00d2 00BF     		nop
 482 00d4 0C37     		adds	r7, r7, #12
 483              	.LCFI14:
 484              		.cfi_def_cfa_offset 4
 485 00d6 BD46     		mov	sp, r7
 486              	.LCFI15:
 487              		.cfi_def_cfa_register 13
 488              		@ sp needed
 489 00d8 5DF8047B 		ldr	r7, [sp], #4
 490              	.LCFI16:
 491              		.cfi_restore 7
 492              		.cfi_def_cfa_offset 0
 493 00dc 7047     		bx	lr
 494              	.L31:
 495 00de 00BF     		.align	2
 496              	.L30:
 497 00e0 002C0140 		.word	1073818624
 498 00e4 00040040 		.word	1073742848
 499 00e8 00080040 		.word	1073743872
 500 00ec 000C0040 		.word	1073744896
 501 00f0 00340140 		.word	1073820672
 502 00f4 00100040 		.word	1073745920
 503 00f8 00140040 		.word	1073746944
 504              		.cfi_endproc
 505              	.LFE118:
 507              		.section	.text.timer_enable,"ax",%progbits
 508              		.align	1
 509              		.global	timer_enable
 510              		.syntax unified
 511              		.thumb
 512              		.thumb_func
 513              		.fpu fpv4-sp-d16
 515              	timer_enable:
 516              	.LFB119:
 187:C:/Users/49542/Desktop/GD32F30x_Demo_Suites_V2.0.0/GD32F30x_Demo_Suites_V2.0.0/GD32F30x_Firmware_Library/GD32F30x_standard_peripheral/Source\gd32f30x_timer.c **** 
ARM GAS  C:\Users\49542\AppData\Local\Temp\ccx6VnNU.s 			page 14


 188:C:/Users/49542/Desktop/GD32F30x_Demo_Suites_V2.0.0/GD32F30x_Demo_Suites_V2.0.0/GD32F30x_Firmware_Library/GD32F30x_standard_peripheral/Source\gd32f30x_timer.c **** /*!
 189:C:/Users/49542/Desktop/GD32F30x_Demo_Suites_V2.0.0/GD32F30x_Demo_Suites_V2.0.0/GD32F30x_Firmware_Library/GD32F30x_standard_peripheral/Source\gd32f30x_timer.c ****     \brief      enable a TIMER
 190:C:/Users/49542/Desktop/GD32F30x_Demo_Suites_V2.0.0/GD32F30x_Demo_Suites_V2.0.0/GD32F30x_Firmware_Library/GD32F30x_standard_peripheral/Source\gd32f30x_timer.c ****     \param[in]  timer_periph: TIMERx(x=0..13)
 191:C:/Users/49542/Desktop/GD32F30x_Demo_Suites_V2.0.0/GD32F30x_Demo_Suites_V2.0.0/GD32F30x_Firmware_Library/GD32F30x_standard_peripheral/Source\gd32f30x_timer.c ****     \param[out] none
 192:C:/Users/49542/Desktop/GD32F30x_Demo_Suites_V2.0.0/GD32F30x_Demo_Suites_V2.0.0/GD32F30x_Firmware_Library/GD32F30x_standard_peripheral/Source\gd32f30x_timer.c ****     \retval     none
 193:C:/Users/49542/Desktop/GD32F30x_Demo_Suites_V2.0.0/GD32F30x_Demo_Suites_V2.0.0/GD32F30x_Firmware_Library/GD32F30x_standard_peripheral/Source\gd32f30x_timer.c **** */
 194:C:/Users/49542/Desktop/GD32F30x_Demo_Suites_V2.0.0/GD32F30x_Demo_Suites_V2.0.0/GD32F30x_Firmware_Library/GD32F30x_standard_peripheral/Source\gd32f30x_timer.c **** void timer_enable(uint32_t timer_periph)
 195:C:/Users/49542/Desktop/GD32F30x_Demo_Suites_V2.0.0/GD32F30x_Demo_Suites_V2.0.0/GD32F30x_Firmware_Library/GD32F30x_standard_peripheral/Source\gd32f30x_timer.c **** {
 517              		.loc 1 195 0
 518              		.cfi_startproc
 519              		@ args = 0, pretend = 0, frame = 8
 520              		@ frame_needed = 1, uses_anonymous_args = 0
 521              		@ link register save eliminated.
 522 0000 80B4     		push	{r7}
 523              	.LCFI17:
 524              		.cfi_def_cfa_offset 4
 525              		.cfi_offset 7, -4
 526 0002 83B0     		sub	sp, sp, #12
 527              	.LCFI18:
 528              		.cfi_def_cfa_offset 16
 529 0004 00AF     		add	r7, sp, #0
 530              	.LCFI19:
 531              		.cfi_def_cfa_register 7
 532 0006 7860     		str	r0, [r7, #4]
 196:C:/Users/49542/Desktop/GD32F30x_Demo_Suites_V2.0.0/GD32F30x_Demo_Suites_V2.0.0/GD32F30x_Firmware_Library/GD32F30x_standard_peripheral/Source\gd32f30x_timer.c ****     TIMER_CTL0(timer_periph) |= (uint32_t)TIMER_CTL0_CEN;
 533              		.loc 1 196 0
 534 0008 7B68     		ldr	r3, [r7, #4]
 535 000a 1A68     		ldr	r2, [r3]
 536 000c 7B68     		ldr	r3, [r7, #4]
 537 000e 42F00102 		orr	r2, r2, #1
 538 0012 1A60     		str	r2, [r3]
 197:C:/Users/49542/Desktop/GD32F30x_Demo_Suites_V2.0.0/GD32F30x_Demo_Suites_V2.0.0/GD32F30x_Firmware_Library/GD32F30x_standard_peripheral/Source\gd32f30x_timer.c **** }
 539              		.loc 1 197 0
 540 0014 00BF     		nop
 541 0016 0C37     		adds	r7, r7, #12
 542              	.LCFI20:
 543              		.cfi_def_cfa_offset 4
 544 0018 BD46     		mov	sp, r7
 545              	.LCFI21:
 546              		.cfi_def_cfa_register 13
 547              		@ sp needed
 548 001a 5DF8047B 		ldr	r7, [sp], #4
 549              	.LCFI22:
 550              		.cfi_restore 7
 551              		.cfi_def_cfa_offset 0
 552 001e 7047     		bx	lr
 553              		.cfi_endproc
 554              	.LFE119:
 556              		.section	.text.timer_disable,"ax",%progbits
 557              		.align	1
 558              		.global	timer_disable
 559              		.syntax unified
 560              		.thumb
 561              		.thumb_func
 562              		.fpu fpv4-sp-d16
 564              	timer_disable:
 565              	.LFB120:
ARM GAS  C:\Users\49542\AppData\Local\Temp\ccx6VnNU.s 			page 15


 198:C:/Users/49542/Desktop/GD32F30x_Demo_Suites_V2.0.0/GD32F30x_Demo_Suites_V2.0.0/GD32F30x_Firmware_Library/GD32F30x_standard_peripheral/Source\gd32f30x_timer.c **** 
 199:C:/Users/49542/Desktop/GD32F30x_Demo_Suites_V2.0.0/GD32F30x_Demo_Suites_V2.0.0/GD32F30x_Firmware_Library/GD32F30x_standard_peripheral/Source\gd32f30x_timer.c **** /*!
 200:C:/Users/49542/Desktop/GD32F30x_Demo_Suites_V2.0.0/GD32F30x_Demo_Suites_V2.0.0/GD32F30x_Firmware_Library/GD32F30x_standard_peripheral/Source\gd32f30x_timer.c ****     \brief      disable a TIMER
 201:C:/Users/49542/Desktop/GD32F30x_Demo_Suites_V2.0.0/GD32F30x_Demo_Suites_V2.0.0/GD32F30x_Firmware_Library/GD32F30x_standard_peripheral/Source\gd32f30x_timer.c ****     \param[in]  timer_periph: TIMERx(x=0..13)
 202:C:/Users/49542/Desktop/GD32F30x_Demo_Suites_V2.0.0/GD32F30x_Demo_Suites_V2.0.0/GD32F30x_Firmware_Library/GD32F30x_standard_peripheral/Source\gd32f30x_timer.c ****     \param[out] none
 203:C:/Users/49542/Desktop/GD32F30x_Demo_Suites_V2.0.0/GD32F30x_Demo_Suites_V2.0.0/GD32F30x_Firmware_Library/GD32F30x_standard_peripheral/Source\gd32f30x_timer.c ****     \retval     none
 204:C:/Users/49542/Desktop/GD32F30x_Demo_Suites_V2.0.0/GD32F30x_Demo_Suites_V2.0.0/GD32F30x_Firmware_Library/GD32F30x_standard_peripheral/Source\gd32f30x_timer.c **** */
 205:C:/Users/49542/Desktop/GD32F30x_Demo_Suites_V2.0.0/GD32F30x_Demo_Suites_V2.0.0/GD32F30x_Firmware_Library/GD32F30x_standard_peripheral/Source\gd32f30x_timer.c **** void timer_disable(uint32_t timer_periph)
 206:C:/Users/49542/Desktop/GD32F30x_Demo_Suites_V2.0.0/GD32F30x_Demo_Suites_V2.0.0/GD32F30x_Firmware_Library/GD32F30x_standard_peripheral/Source\gd32f30x_timer.c **** {
 566              		.loc 1 206 0
 567              		.cfi_startproc
 568              		@ args = 0, pretend = 0, frame = 8
 569              		@ frame_needed = 1, uses_anonymous_args = 0
 570              		@ link register save eliminated.
 571 0000 80B4     		push	{r7}
 572              	.LCFI23:
 573              		.cfi_def_cfa_offset 4
 574              		.cfi_offset 7, -4
 575 0002 83B0     		sub	sp, sp, #12
 576              	.LCFI24:
 577              		.cfi_def_cfa_offset 16
 578 0004 00AF     		add	r7, sp, #0
 579              	.LCFI25:
 580              		.cfi_def_cfa_register 7
 581 0006 7860     		str	r0, [r7, #4]
 207:C:/Users/49542/Desktop/GD32F30x_Demo_Suites_V2.0.0/GD32F30x_Demo_Suites_V2.0.0/GD32F30x_Firmware_Library/GD32F30x_standard_peripheral/Source\gd32f30x_timer.c ****     TIMER_CTL0(timer_periph) &= ~(uint32_t)TIMER_CTL0_CEN;
 582              		.loc 1 207 0
 583 0008 7B68     		ldr	r3, [r7, #4]
 584 000a 1A68     		ldr	r2, [r3]
 585 000c 7B68     		ldr	r3, [r7, #4]
 586 000e 22F00102 		bic	r2, r2, #1
 587 0012 1A60     		str	r2, [r3]
 208:C:/Users/49542/Desktop/GD32F30x_Demo_Suites_V2.0.0/GD32F30x_Demo_Suites_V2.0.0/GD32F30x_Firmware_Library/GD32F30x_standard_peripheral/Source\gd32f30x_timer.c **** }
 588              		.loc 1 208 0
 589 0014 00BF     		nop
 590 0016 0C37     		adds	r7, r7, #12
 591              	.LCFI26:
 592              		.cfi_def_cfa_offset 4
 593 0018 BD46     		mov	sp, r7
 594              	.LCFI27:
 595              		.cfi_def_cfa_register 13
 596              		@ sp needed
 597 001a 5DF8047B 		ldr	r7, [sp], #4
 598              	.LCFI28:
 599              		.cfi_restore 7
 600              		.cfi_def_cfa_offset 0
 601 001e 7047     		bx	lr
 602              		.cfi_endproc
 603              	.LFE120:
 605              		.section	.text.timer_auto_reload_shadow_enable,"ax",%progbits
 606              		.align	1
 607              		.global	timer_auto_reload_shadow_enable
 608              		.syntax unified
 609              		.thumb
 610              		.thumb_func
 611              		.fpu fpv4-sp-d16
 613              	timer_auto_reload_shadow_enable:
ARM GAS  C:\Users\49542\AppData\Local\Temp\ccx6VnNU.s 			page 16


 614              	.LFB121:
 209:C:/Users/49542/Desktop/GD32F30x_Demo_Suites_V2.0.0/GD32F30x_Demo_Suites_V2.0.0/GD32F30x_Firmware_Library/GD32F30x_standard_peripheral/Source\gd32f30x_timer.c **** 
 210:C:/Users/49542/Desktop/GD32F30x_Demo_Suites_V2.0.0/GD32F30x_Demo_Suites_V2.0.0/GD32F30x_Firmware_Library/GD32F30x_standard_peripheral/Source\gd32f30x_timer.c **** /*!
 211:C:/Users/49542/Desktop/GD32F30x_Demo_Suites_V2.0.0/GD32F30x_Demo_Suites_V2.0.0/GD32F30x_Firmware_Library/GD32F30x_standard_peripheral/Source\gd32f30x_timer.c ****     \brief      enable the auto reload shadow function
 212:C:/Users/49542/Desktop/GD32F30x_Demo_Suites_V2.0.0/GD32F30x_Demo_Suites_V2.0.0/GD32F30x_Firmware_Library/GD32F30x_standard_peripheral/Source\gd32f30x_timer.c ****     \param[in]  timer_periph: TIMERx(x=0..13)
 213:C:/Users/49542/Desktop/GD32F30x_Demo_Suites_V2.0.0/GD32F30x_Demo_Suites_V2.0.0/GD32F30x_Firmware_Library/GD32F30x_standard_peripheral/Source\gd32f30x_timer.c ****     \param[out] none
 214:C:/Users/49542/Desktop/GD32F30x_Demo_Suites_V2.0.0/GD32F30x_Demo_Suites_V2.0.0/GD32F30x_Firmware_Library/GD32F30x_standard_peripheral/Source\gd32f30x_timer.c ****     \retval     none
 215:C:/Users/49542/Desktop/GD32F30x_Demo_Suites_V2.0.0/GD32F30x_Demo_Suites_V2.0.0/GD32F30x_Firmware_Library/GD32F30x_standard_peripheral/Source\gd32f30x_timer.c **** */
 216:C:/Users/49542/Desktop/GD32F30x_Demo_Suites_V2.0.0/GD32F30x_Demo_Suites_V2.0.0/GD32F30x_Firmware_Library/GD32F30x_standard_peripheral/Source\gd32f30x_timer.c **** void timer_auto_reload_shadow_enable(uint32_t timer_periph)
 217:C:/Users/49542/Desktop/GD32F30x_Demo_Suites_V2.0.0/GD32F30x_Demo_Suites_V2.0.0/GD32F30x_Firmware_Library/GD32F30x_standard_peripheral/Source\gd32f30x_timer.c **** {
 615              		.loc 1 217 0
 616              		.cfi_startproc
 617              		@ args = 0, pretend = 0, frame = 8
 618              		@ frame_needed = 1, uses_anonymous_args = 0
 619              		@ link register save eliminated.
 620 0000 80B4     		push	{r7}
 621              	.LCFI29:
 622              		.cfi_def_cfa_offset 4
 623              		.cfi_offset 7, -4
 624 0002 83B0     		sub	sp, sp, #12
 625              	.LCFI30:
 626              		.cfi_def_cfa_offset 16
 627 0004 00AF     		add	r7, sp, #0
 628              	.LCFI31:
 629              		.cfi_def_cfa_register 7
 630 0006 7860     		str	r0, [r7, #4]
 218:C:/Users/49542/Desktop/GD32F30x_Demo_Suites_V2.0.0/GD32F30x_Demo_Suites_V2.0.0/GD32F30x_Firmware_Library/GD32F30x_standard_peripheral/Source\gd32f30x_timer.c ****     TIMER_CTL0(timer_periph) |= (uint32_t)TIMER_CTL0_ARSE;
 631              		.loc 1 218 0
 632 0008 7B68     		ldr	r3, [r7, #4]
 633 000a 1A68     		ldr	r2, [r3]
 634 000c 7B68     		ldr	r3, [r7, #4]
 635 000e 42F08002 		orr	r2, r2, #128
 636 0012 1A60     		str	r2, [r3]
 219:C:/Users/49542/Desktop/GD32F30x_Demo_Suites_V2.0.0/GD32F30x_Demo_Suites_V2.0.0/GD32F30x_Firmware_Library/GD32F30x_standard_peripheral/Source\gd32f30x_timer.c **** }
 637              		.loc 1 219 0
 638 0014 00BF     		nop
 639 0016 0C37     		adds	r7, r7, #12
 640              	.LCFI32:
 641              		.cfi_def_cfa_offset 4
 642 0018 BD46     		mov	sp, r7
 643              	.LCFI33:
 644              		.cfi_def_cfa_register 13
 645              		@ sp needed
 646 001a 5DF8047B 		ldr	r7, [sp], #4
 647              	.LCFI34:
 648              		.cfi_restore 7
 649              		.cfi_def_cfa_offset 0
 650 001e 7047     		bx	lr
 651              		.cfi_endproc
 652              	.LFE121:
 654              		.section	.text.timer_auto_reload_shadow_disable,"ax",%progbits
 655              		.align	1
 656              		.global	timer_auto_reload_shadow_disable
 657              		.syntax unified
 658              		.thumb
 659              		.thumb_func
 660              		.fpu fpv4-sp-d16
ARM GAS  C:\Users\49542\AppData\Local\Temp\ccx6VnNU.s 			page 17


 662              	timer_auto_reload_shadow_disable:
 663              	.LFB122:
 220:C:/Users/49542/Desktop/GD32F30x_Demo_Suites_V2.0.0/GD32F30x_Demo_Suites_V2.0.0/GD32F30x_Firmware_Library/GD32F30x_standard_peripheral/Source\gd32f30x_timer.c **** 
 221:C:/Users/49542/Desktop/GD32F30x_Demo_Suites_V2.0.0/GD32F30x_Demo_Suites_V2.0.0/GD32F30x_Firmware_Library/GD32F30x_standard_peripheral/Source\gd32f30x_timer.c **** /*!
 222:C:/Users/49542/Desktop/GD32F30x_Demo_Suites_V2.0.0/GD32F30x_Demo_Suites_V2.0.0/GD32F30x_Firmware_Library/GD32F30x_standard_peripheral/Source\gd32f30x_timer.c ****     \brief      disable the auto reload shadow function
 223:C:/Users/49542/Desktop/GD32F30x_Demo_Suites_V2.0.0/GD32F30x_Demo_Suites_V2.0.0/GD32F30x_Firmware_Library/GD32F30x_standard_peripheral/Source\gd32f30x_timer.c ****     \param[in]  timer_periph: TIMERx(x=0..13)
 224:C:/Users/49542/Desktop/GD32F30x_Demo_Suites_V2.0.0/GD32F30x_Demo_Suites_V2.0.0/GD32F30x_Firmware_Library/GD32F30x_standard_peripheral/Source\gd32f30x_timer.c ****     \param[out] none
 225:C:/Users/49542/Desktop/GD32F30x_Demo_Suites_V2.0.0/GD32F30x_Demo_Suites_V2.0.0/GD32F30x_Firmware_Library/GD32F30x_standard_peripheral/Source\gd32f30x_timer.c ****     \retval     none
 226:C:/Users/49542/Desktop/GD32F30x_Demo_Suites_V2.0.0/GD32F30x_Demo_Suites_V2.0.0/GD32F30x_Firmware_Library/GD32F30x_standard_peripheral/Source\gd32f30x_timer.c **** */
 227:C:/Users/49542/Desktop/GD32F30x_Demo_Suites_V2.0.0/GD32F30x_Demo_Suites_V2.0.0/GD32F30x_Firmware_Library/GD32F30x_standard_peripheral/Source\gd32f30x_timer.c **** void timer_auto_reload_shadow_disable(uint32_t timer_periph)
 228:C:/Users/49542/Desktop/GD32F30x_Demo_Suites_V2.0.0/GD32F30x_Demo_Suites_V2.0.0/GD32F30x_Firmware_Library/GD32F30x_standard_peripheral/Source\gd32f30x_timer.c **** {
 664              		.loc 1 228 0
 665              		.cfi_startproc
 666              		@ args = 0, pretend = 0, frame = 8
 667              		@ frame_needed = 1, uses_anonymous_args = 0
 668              		@ link register save eliminated.
 669 0000 80B4     		push	{r7}
 670              	.LCFI35:
 671              		.cfi_def_cfa_offset 4
 672              		.cfi_offset 7, -4
 673 0002 83B0     		sub	sp, sp, #12
 674              	.LCFI36:
 675              		.cfi_def_cfa_offset 16
 676 0004 00AF     		add	r7, sp, #0
 677              	.LCFI37:
 678              		.cfi_def_cfa_register 7
 679 0006 7860     		str	r0, [r7, #4]
 229:C:/Users/49542/Desktop/GD32F30x_Demo_Suites_V2.0.0/GD32F30x_Demo_Suites_V2.0.0/GD32F30x_Firmware_Library/GD32F30x_standard_peripheral/Source\gd32f30x_timer.c ****     TIMER_CTL0(timer_periph) &= ~(uint32_t)TIMER_CTL0_ARSE;
 680              		.loc 1 229 0
 681 0008 7B68     		ldr	r3, [r7, #4]
 682 000a 1A68     		ldr	r2, [r3]
 683 000c 7B68     		ldr	r3, [r7, #4]
 684 000e 22F08002 		bic	r2, r2, #128
 685 0012 1A60     		str	r2, [r3]
 230:C:/Users/49542/Desktop/GD32F30x_Demo_Suites_V2.0.0/GD32F30x_Demo_Suites_V2.0.0/GD32F30x_Firmware_Library/GD32F30x_standard_peripheral/Source\gd32f30x_timer.c **** }
 686              		.loc 1 230 0
 687 0014 00BF     		nop
 688 0016 0C37     		adds	r7, r7, #12
 689              	.LCFI38:
 690              		.cfi_def_cfa_offset 4
 691 0018 BD46     		mov	sp, r7
 692              	.LCFI39:
 693              		.cfi_def_cfa_register 13
 694              		@ sp needed
 695 001a 5DF8047B 		ldr	r7, [sp], #4
 696              	.LCFI40:
 697              		.cfi_restore 7
 698              		.cfi_def_cfa_offset 0
 699 001e 7047     		bx	lr
 700              		.cfi_endproc
 701              	.LFE122:
 703              		.section	.text.timer_update_event_enable,"ax",%progbits
 704              		.align	1
 705              		.global	timer_update_event_enable
 706              		.syntax unified
 707              		.thumb
 708              		.thumb_func
ARM GAS  C:\Users\49542\AppData\Local\Temp\ccx6VnNU.s 			page 18


 709              		.fpu fpv4-sp-d16
 711              	timer_update_event_enable:
 712              	.LFB123:
 231:C:/Users/49542/Desktop/GD32F30x_Demo_Suites_V2.0.0/GD32F30x_Demo_Suites_V2.0.0/GD32F30x_Firmware_Library/GD32F30x_standard_peripheral/Source\gd32f30x_timer.c **** 
 232:C:/Users/49542/Desktop/GD32F30x_Demo_Suites_V2.0.0/GD32F30x_Demo_Suites_V2.0.0/GD32F30x_Firmware_Library/GD32F30x_standard_peripheral/Source\gd32f30x_timer.c **** /*!
 233:C:/Users/49542/Desktop/GD32F30x_Demo_Suites_V2.0.0/GD32F30x_Demo_Suites_V2.0.0/GD32F30x_Firmware_Library/GD32F30x_standard_peripheral/Source\gd32f30x_timer.c ****     \brief      enable the update event
 234:C:/Users/49542/Desktop/GD32F30x_Demo_Suites_V2.0.0/GD32F30x_Demo_Suites_V2.0.0/GD32F30x_Firmware_Library/GD32F30x_standard_peripheral/Source\gd32f30x_timer.c ****     \param[in]  timer_periph: TIMERx(x=0..13)
 235:C:/Users/49542/Desktop/GD32F30x_Demo_Suites_V2.0.0/GD32F30x_Demo_Suites_V2.0.0/GD32F30x_Firmware_Library/GD32F30x_standard_peripheral/Source\gd32f30x_timer.c ****     \param[out] none
 236:C:/Users/49542/Desktop/GD32F30x_Demo_Suites_V2.0.0/GD32F30x_Demo_Suites_V2.0.0/GD32F30x_Firmware_Library/GD32F30x_standard_peripheral/Source\gd32f30x_timer.c ****     \retval     none
 237:C:/Users/49542/Desktop/GD32F30x_Demo_Suites_V2.0.0/GD32F30x_Demo_Suites_V2.0.0/GD32F30x_Firmware_Library/GD32F30x_standard_peripheral/Source\gd32f30x_timer.c **** */
 238:C:/Users/49542/Desktop/GD32F30x_Demo_Suites_V2.0.0/GD32F30x_Demo_Suites_V2.0.0/GD32F30x_Firmware_Library/GD32F30x_standard_peripheral/Source\gd32f30x_timer.c **** void timer_update_event_enable(uint32_t timer_periph)
 239:C:/Users/49542/Desktop/GD32F30x_Demo_Suites_V2.0.0/GD32F30x_Demo_Suites_V2.0.0/GD32F30x_Firmware_Library/GD32F30x_standard_peripheral/Source\gd32f30x_timer.c **** {
 713              		.loc 1 239 0
 714              		.cfi_startproc
 715              		@ args = 0, pretend = 0, frame = 8
 716              		@ frame_needed = 1, uses_anonymous_args = 0
 717              		@ link register save eliminated.
 718 0000 80B4     		push	{r7}
 719              	.LCFI41:
 720              		.cfi_def_cfa_offset 4
 721              		.cfi_offset 7, -4
 722 0002 83B0     		sub	sp, sp, #12
 723              	.LCFI42:
 724              		.cfi_def_cfa_offset 16
 725 0004 00AF     		add	r7, sp, #0
 726              	.LCFI43:
 727              		.cfi_def_cfa_register 7
 728 0006 7860     		str	r0, [r7, #4]
 240:C:/Users/49542/Desktop/GD32F30x_Demo_Suites_V2.0.0/GD32F30x_Demo_Suites_V2.0.0/GD32F30x_Firmware_Library/GD32F30x_standard_peripheral/Source\gd32f30x_timer.c ****     TIMER_CTL0(timer_periph) &= ~(uint32_t)TIMER_CTL0_UPDIS;
 729              		.loc 1 240 0
 730 0008 7B68     		ldr	r3, [r7, #4]
 731 000a 1A68     		ldr	r2, [r3]
 732 000c 7B68     		ldr	r3, [r7, #4]
 733 000e 22F00202 		bic	r2, r2, #2
 734 0012 1A60     		str	r2, [r3]
 241:C:/Users/49542/Desktop/GD32F30x_Demo_Suites_V2.0.0/GD32F30x_Demo_Suites_V2.0.0/GD32F30x_Firmware_Library/GD32F30x_standard_peripheral/Source\gd32f30x_timer.c **** }
 735              		.loc 1 241 0
 736 0014 00BF     		nop
 737 0016 0C37     		adds	r7, r7, #12
 738              	.LCFI44:
 739              		.cfi_def_cfa_offset 4
 740 0018 BD46     		mov	sp, r7
 741              	.LCFI45:
 742              		.cfi_def_cfa_register 13
 743              		@ sp needed
 744 001a 5DF8047B 		ldr	r7, [sp], #4
 745              	.LCFI46:
 746              		.cfi_restore 7
 747              		.cfi_def_cfa_offset 0
 748 001e 7047     		bx	lr
 749              		.cfi_endproc
 750              	.LFE123:
 752              		.section	.text.timer_update_event_disable,"ax",%progbits
 753              		.align	1
 754              		.global	timer_update_event_disable
 755              		.syntax unified
 756              		.thumb
ARM GAS  C:\Users\49542\AppData\Local\Temp\ccx6VnNU.s 			page 19


 757              		.thumb_func
 758              		.fpu fpv4-sp-d16
 760              	timer_update_event_disable:
 761              	.LFB124:
 242:C:/Users/49542/Desktop/GD32F30x_Demo_Suites_V2.0.0/GD32F30x_Demo_Suites_V2.0.0/GD32F30x_Firmware_Library/GD32F30x_standard_peripheral/Source\gd32f30x_timer.c **** 
 243:C:/Users/49542/Desktop/GD32F30x_Demo_Suites_V2.0.0/GD32F30x_Demo_Suites_V2.0.0/GD32F30x_Firmware_Library/GD32F30x_standard_peripheral/Source\gd32f30x_timer.c **** /*!
 244:C:/Users/49542/Desktop/GD32F30x_Demo_Suites_V2.0.0/GD32F30x_Demo_Suites_V2.0.0/GD32F30x_Firmware_Library/GD32F30x_standard_peripheral/Source\gd32f30x_timer.c ****     \brief      disable the update event
 245:C:/Users/49542/Desktop/GD32F30x_Demo_Suites_V2.0.0/GD32F30x_Demo_Suites_V2.0.0/GD32F30x_Firmware_Library/GD32F30x_standard_peripheral/Source\gd32f30x_timer.c ****     \param[in]  timer_periph: TIMERx(x=0..13)
 246:C:/Users/49542/Desktop/GD32F30x_Demo_Suites_V2.0.0/GD32F30x_Demo_Suites_V2.0.0/GD32F30x_Firmware_Library/GD32F30x_standard_peripheral/Source\gd32f30x_timer.c ****     \param[out] none
 247:C:/Users/49542/Desktop/GD32F30x_Demo_Suites_V2.0.0/GD32F30x_Demo_Suites_V2.0.0/GD32F30x_Firmware_Library/GD32F30x_standard_peripheral/Source\gd32f30x_timer.c ****     \retval     none
 248:C:/Users/49542/Desktop/GD32F30x_Demo_Suites_V2.0.0/GD32F30x_Demo_Suites_V2.0.0/GD32F30x_Firmware_Library/GD32F30x_standard_peripheral/Source\gd32f30x_timer.c **** */
 249:C:/Users/49542/Desktop/GD32F30x_Demo_Suites_V2.0.0/GD32F30x_Demo_Suites_V2.0.0/GD32F30x_Firmware_Library/GD32F30x_standard_peripheral/Source\gd32f30x_timer.c **** void timer_update_event_disable(uint32_t timer_periph)
 250:C:/Users/49542/Desktop/GD32F30x_Demo_Suites_V2.0.0/GD32F30x_Demo_Suites_V2.0.0/GD32F30x_Firmware_Library/GD32F30x_standard_peripheral/Source\gd32f30x_timer.c **** {
 762              		.loc 1 250 0
 763              		.cfi_startproc
 764              		@ args = 0, pretend = 0, frame = 8
 765              		@ frame_needed = 1, uses_anonymous_args = 0
 766              		@ link register save eliminated.
 767 0000 80B4     		push	{r7}
 768              	.LCFI47:
 769              		.cfi_def_cfa_offset 4
 770              		.cfi_offset 7, -4
 771 0002 83B0     		sub	sp, sp, #12
 772              	.LCFI48:
 773              		.cfi_def_cfa_offset 16
 774 0004 00AF     		add	r7, sp, #0
 775              	.LCFI49:
 776              		.cfi_def_cfa_register 7
 777 0006 7860     		str	r0, [r7, #4]
 251:C:/Users/49542/Desktop/GD32F30x_Demo_Suites_V2.0.0/GD32F30x_Demo_Suites_V2.0.0/GD32F30x_Firmware_Library/GD32F30x_standard_peripheral/Source\gd32f30x_timer.c ****     TIMER_CTL0(timer_periph) |= (uint32_t) TIMER_CTL0_UPDIS;
 778              		.loc 1 251 0
 779 0008 7B68     		ldr	r3, [r7, #4]
 780 000a 1A68     		ldr	r2, [r3]
 781 000c 7B68     		ldr	r3, [r7, #4]
 782 000e 42F00202 		orr	r2, r2, #2
 783 0012 1A60     		str	r2, [r3]
 252:C:/Users/49542/Desktop/GD32F30x_Demo_Suites_V2.0.0/GD32F30x_Demo_Suites_V2.0.0/GD32F30x_Firmware_Library/GD32F30x_standard_peripheral/Source\gd32f30x_timer.c **** }
 784              		.loc 1 252 0
 785 0014 00BF     		nop
 786 0016 0C37     		adds	r7, r7, #12
 787              	.LCFI50:
 788              		.cfi_def_cfa_offset 4
 789 0018 BD46     		mov	sp, r7
 790              	.LCFI51:
 791              		.cfi_def_cfa_register 13
 792              		@ sp needed
 793 001a 5DF8047B 		ldr	r7, [sp], #4
 794              	.LCFI52:
 795              		.cfi_restore 7
 796              		.cfi_def_cfa_offset 0
 797 001e 7047     		bx	lr
 798              		.cfi_endproc
 799              	.LFE124:
 801              		.section	.text.timer_counter_alignment,"ax",%progbits
 802              		.align	1
 803              		.global	timer_counter_alignment
 804              		.syntax unified
ARM GAS  C:\Users\49542\AppData\Local\Temp\ccx6VnNU.s 			page 20


 805              		.thumb
 806              		.thumb_func
 807              		.fpu fpv4-sp-d16
 809              	timer_counter_alignment:
 810              	.LFB125:
 253:C:/Users/49542/Desktop/GD32F30x_Demo_Suites_V2.0.0/GD32F30x_Demo_Suites_V2.0.0/GD32F30x_Firmware_Library/GD32F30x_standard_peripheral/Source\gd32f30x_timer.c **** 
 254:C:/Users/49542/Desktop/GD32F30x_Demo_Suites_V2.0.0/GD32F30x_Demo_Suites_V2.0.0/GD32F30x_Firmware_Library/GD32F30x_standard_peripheral/Source\gd32f30x_timer.c **** /*!
 255:C:/Users/49542/Desktop/GD32F30x_Demo_Suites_V2.0.0/GD32F30x_Demo_Suites_V2.0.0/GD32F30x_Firmware_Library/GD32F30x_standard_peripheral/Source\gd32f30x_timer.c ****     \brief      set TIMER counter alignment mode
 256:C:/Users/49542/Desktop/GD32F30x_Demo_Suites_V2.0.0/GD32F30x_Demo_Suites_V2.0.0/GD32F30x_Firmware_Library/GD32F30x_standard_peripheral/Source\gd32f30x_timer.c ****     \param[in]  timer_periph: TIMERx(x=0..4,7)
 257:C:/Users/49542/Desktop/GD32F30x_Demo_Suites_V2.0.0/GD32F30x_Demo_Suites_V2.0.0/GD32F30x_Firmware_Library/GD32F30x_standard_peripheral/Source\gd32f30x_timer.c ****     \param[in]  aligned:
 258:C:/Users/49542/Desktop/GD32F30x_Demo_Suites_V2.0.0/GD32F30x_Demo_Suites_V2.0.0/GD32F30x_Firmware_Library/GD32F30x_standard_peripheral/Source\gd32f30x_timer.c ****                 only one parameter can be selected which is shown as below:
 259:C:/Users/49542/Desktop/GD32F30x_Demo_Suites_V2.0.0/GD32F30x_Demo_Suites_V2.0.0/GD32F30x_Firmware_Library/GD32F30x_standard_peripheral/Source\gd32f30x_timer.c ****       \arg        TIMER_COUNTER_EDGE: edge-aligned mode
 260:C:/Users/49542/Desktop/GD32F30x_Demo_Suites_V2.0.0/GD32F30x_Demo_Suites_V2.0.0/GD32F30x_Firmware_Library/GD32F30x_standard_peripheral/Source\gd32f30x_timer.c ****       \arg        TIMER_COUNTER_CENTER_DOWN: center-aligned and counting down assert mode
 261:C:/Users/49542/Desktop/GD32F30x_Demo_Suites_V2.0.0/GD32F30x_Demo_Suites_V2.0.0/GD32F30x_Firmware_Library/GD32F30x_standard_peripheral/Source\gd32f30x_timer.c ****       \arg        TIMER_COUNTER_CENTER_UP: center-aligned and counting up assert mode
 262:C:/Users/49542/Desktop/GD32F30x_Demo_Suites_V2.0.0/GD32F30x_Demo_Suites_V2.0.0/GD32F30x_Firmware_Library/GD32F30x_standard_peripheral/Source\gd32f30x_timer.c ****       \arg        TIMER_COUNTER_CENTER_BOTH: center-aligned and counting up/down assert mode
 263:C:/Users/49542/Desktop/GD32F30x_Demo_Suites_V2.0.0/GD32F30x_Demo_Suites_V2.0.0/GD32F30x_Firmware_Library/GD32F30x_standard_peripheral/Source\gd32f30x_timer.c ****     \param[out] none
 264:C:/Users/49542/Desktop/GD32F30x_Demo_Suites_V2.0.0/GD32F30x_Demo_Suites_V2.0.0/GD32F30x_Firmware_Library/GD32F30x_standard_peripheral/Source\gd32f30x_timer.c ****     \retval     none
 265:C:/Users/49542/Desktop/GD32F30x_Demo_Suites_V2.0.0/GD32F30x_Demo_Suites_V2.0.0/GD32F30x_Firmware_Library/GD32F30x_standard_peripheral/Source\gd32f30x_timer.c **** */
 266:C:/Users/49542/Desktop/GD32F30x_Demo_Suites_V2.0.0/GD32F30x_Demo_Suites_V2.0.0/GD32F30x_Firmware_Library/GD32F30x_standard_peripheral/Source\gd32f30x_timer.c **** void timer_counter_alignment(uint32_t timer_periph, uint16_t aligned)
 267:C:/Users/49542/Desktop/GD32F30x_Demo_Suites_V2.0.0/GD32F30x_Demo_Suites_V2.0.0/GD32F30x_Firmware_Library/GD32F30x_standard_peripheral/Source\gd32f30x_timer.c **** {
 811              		.loc 1 267 0
 812              		.cfi_startproc
 813              		@ args = 0, pretend = 0, frame = 8
 814              		@ frame_needed = 1, uses_anonymous_args = 0
 815              		@ link register save eliminated.
 816 0000 80B4     		push	{r7}
 817              	.LCFI53:
 818              		.cfi_def_cfa_offset 4
 819              		.cfi_offset 7, -4
 820 0002 83B0     		sub	sp, sp, #12
 821              	.LCFI54:
 822              		.cfi_def_cfa_offset 16
 823 0004 00AF     		add	r7, sp, #0
 824              	.LCFI55:
 825              		.cfi_def_cfa_register 7
 826 0006 7860     		str	r0, [r7, #4]
 827 0008 0B46     		mov	r3, r1
 828 000a 7B80     		strh	r3, [r7, #2]	@ movhi
 268:C:/Users/49542/Desktop/GD32F30x_Demo_Suites_V2.0.0/GD32F30x_Demo_Suites_V2.0.0/GD32F30x_Firmware_Library/GD32F30x_standard_peripheral/Source\gd32f30x_timer.c ****     TIMER_CTL0(timer_periph) &= ~(uint32_t)TIMER_CTL0_CAM;
 829              		.loc 1 268 0
 830 000c 7B68     		ldr	r3, [r7, #4]
 831 000e 1A68     		ldr	r2, [r3]
 832 0010 7B68     		ldr	r3, [r7, #4]
 833 0012 22F06002 		bic	r2, r2, #96
 834 0016 1A60     		str	r2, [r3]
 269:C:/Users/49542/Desktop/GD32F30x_Demo_Suites_V2.0.0/GD32F30x_Demo_Suites_V2.0.0/GD32F30x_Firmware_Library/GD32F30x_standard_peripheral/Source\gd32f30x_timer.c ****     TIMER_CTL0(timer_periph) |= (uint32_t)aligned;
 835              		.loc 1 269 0
 836 0018 7B68     		ldr	r3, [r7, #4]
 837 001a 1968     		ldr	r1, [r3]
 838 001c 7A88     		ldrh	r2, [r7, #2]
 839 001e 7B68     		ldr	r3, [r7, #4]
 840 0020 0A43     		orrs	r2, r2, r1
 841 0022 1A60     		str	r2, [r3]
 270:C:/Users/49542/Desktop/GD32F30x_Demo_Suites_V2.0.0/GD32F30x_Demo_Suites_V2.0.0/GD32F30x_Firmware_Library/GD32F30x_standard_peripheral/Source\gd32f30x_timer.c **** }
 842              		.loc 1 270 0
 843 0024 00BF     		nop
 844 0026 0C37     		adds	r7, r7, #12
ARM GAS  C:\Users\49542\AppData\Local\Temp\ccx6VnNU.s 			page 21


 845              	.LCFI56:
 846              		.cfi_def_cfa_offset 4
 847 0028 BD46     		mov	sp, r7
 848              	.LCFI57:
 849              		.cfi_def_cfa_register 13
 850              		@ sp needed
 851 002a 5DF8047B 		ldr	r7, [sp], #4
 852              	.LCFI58:
 853              		.cfi_restore 7
 854              		.cfi_def_cfa_offset 0
 855 002e 7047     		bx	lr
 856              		.cfi_endproc
 857              	.LFE125:
 859              		.section	.text.timer_counter_up_direction,"ax",%progbits
 860              		.align	1
 861              		.global	timer_counter_up_direction
 862              		.syntax unified
 863              		.thumb
 864              		.thumb_func
 865              		.fpu fpv4-sp-d16
 867              	timer_counter_up_direction:
 868              	.LFB126:
 271:C:/Users/49542/Desktop/GD32F30x_Demo_Suites_V2.0.0/GD32F30x_Demo_Suites_V2.0.0/GD32F30x_Firmware_Library/GD32F30x_standard_peripheral/Source\gd32f30x_timer.c **** 
 272:C:/Users/49542/Desktop/GD32F30x_Demo_Suites_V2.0.0/GD32F30x_Demo_Suites_V2.0.0/GD32F30x_Firmware_Library/GD32F30x_standard_peripheral/Source\gd32f30x_timer.c **** /*!
 273:C:/Users/49542/Desktop/GD32F30x_Demo_Suites_V2.0.0/GD32F30x_Demo_Suites_V2.0.0/GD32F30x_Firmware_Library/GD32F30x_standard_peripheral/Source\gd32f30x_timer.c ****     \brief      set TIMER counter up direction
 274:C:/Users/49542/Desktop/GD32F30x_Demo_Suites_V2.0.0/GD32F30x_Demo_Suites_V2.0.0/GD32F30x_Firmware_Library/GD32F30x_standard_peripheral/Source\gd32f30x_timer.c ****     \param[in]  timer_periph: TIMERx(x=0..4,7)
 275:C:/Users/49542/Desktop/GD32F30x_Demo_Suites_V2.0.0/GD32F30x_Demo_Suites_V2.0.0/GD32F30x_Firmware_Library/GD32F30x_standard_peripheral/Source\gd32f30x_timer.c ****     \param[out] none
 276:C:/Users/49542/Desktop/GD32F30x_Demo_Suites_V2.0.0/GD32F30x_Demo_Suites_V2.0.0/GD32F30x_Firmware_Library/GD32F30x_standard_peripheral/Source\gd32f30x_timer.c ****     \retval     none
 277:C:/Users/49542/Desktop/GD32F30x_Demo_Suites_V2.0.0/GD32F30x_Demo_Suites_V2.0.0/GD32F30x_Firmware_Library/GD32F30x_standard_peripheral/Source\gd32f30x_timer.c **** */
 278:C:/Users/49542/Desktop/GD32F30x_Demo_Suites_V2.0.0/GD32F30x_Demo_Suites_V2.0.0/GD32F30x_Firmware_Library/GD32F30x_standard_peripheral/Source\gd32f30x_timer.c **** void timer_counter_up_direction(uint32_t timer_periph)
 279:C:/Users/49542/Desktop/GD32F30x_Demo_Suites_V2.0.0/GD32F30x_Demo_Suites_V2.0.0/GD32F30x_Firmware_Library/GD32F30x_standard_peripheral/Source\gd32f30x_timer.c **** {
 869              		.loc 1 279 0
 870              		.cfi_startproc
 871              		@ args = 0, pretend = 0, frame = 8
 872              		@ frame_needed = 1, uses_anonymous_args = 0
 873              		@ link register save eliminated.
 874 0000 80B4     		push	{r7}
 875              	.LCFI59:
 876              		.cfi_def_cfa_offset 4
 877              		.cfi_offset 7, -4
 878 0002 83B0     		sub	sp, sp, #12
 879              	.LCFI60:
 880              		.cfi_def_cfa_offset 16
 881 0004 00AF     		add	r7, sp, #0
 882              	.LCFI61:
 883              		.cfi_def_cfa_register 7
 884 0006 7860     		str	r0, [r7, #4]
 280:C:/Users/49542/Desktop/GD32F30x_Demo_Suites_V2.0.0/GD32F30x_Demo_Suites_V2.0.0/GD32F30x_Firmware_Library/GD32F30x_standard_peripheral/Source\gd32f30x_timer.c ****     TIMER_CTL0(timer_periph) &= ~(uint32_t)TIMER_CTL0_DIR;
 885              		.loc 1 280 0
 886 0008 7B68     		ldr	r3, [r7, #4]
 887 000a 1A68     		ldr	r2, [r3]
 888 000c 7B68     		ldr	r3, [r7, #4]
 889 000e 22F01002 		bic	r2, r2, #16
 890 0012 1A60     		str	r2, [r3]
 281:C:/Users/49542/Desktop/GD32F30x_Demo_Suites_V2.0.0/GD32F30x_Demo_Suites_V2.0.0/GD32F30x_Firmware_Library/GD32F30x_standard_peripheral/Source\gd32f30x_timer.c **** }
 891              		.loc 1 281 0
 892 0014 00BF     		nop
ARM GAS  C:\Users\49542\AppData\Local\Temp\ccx6VnNU.s 			page 22


 893 0016 0C37     		adds	r7, r7, #12
 894              	.LCFI62:
 895              		.cfi_def_cfa_offset 4
 896 0018 BD46     		mov	sp, r7
 897              	.LCFI63:
 898              		.cfi_def_cfa_register 13
 899              		@ sp needed
 900 001a 5DF8047B 		ldr	r7, [sp], #4
 901              	.LCFI64:
 902              		.cfi_restore 7
 903              		.cfi_def_cfa_offset 0
 904 001e 7047     		bx	lr
 905              		.cfi_endproc
 906              	.LFE126:
 908              		.section	.text.timer_counter_down_direction,"ax",%progbits
 909              		.align	1
 910              		.global	timer_counter_down_direction
 911              		.syntax unified
 912              		.thumb
 913              		.thumb_func
 914              		.fpu fpv4-sp-d16
 916              	timer_counter_down_direction:
 917              	.LFB127:
 282:C:/Users/49542/Desktop/GD32F30x_Demo_Suites_V2.0.0/GD32F30x_Demo_Suites_V2.0.0/GD32F30x_Firmware_Library/GD32F30x_standard_peripheral/Source\gd32f30x_timer.c **** 
 283:C:/Users/49542/Desktop/GD32F30x_Demo_Suites_V2.0.0/GD32F30x_Demo_Suites_V2.0.0/GD32F30x_Firmware_Library/GD32F30x_standard_peripheral/Source\gd32f30x_timer.c **** /*!
 284:C:/Users/49542/Desktop/GD32F30x_Demo_Suites_V2.0.0/GD32F30x_Demo_Suites_V2.0.0/GD32F30x_Firmware_Library/GD32F30x_standard_peripheral/Source\gd32f30x_timer.c ****     \brief      set TIMER counter down direction
 285:C:/Users/49542/Desktop/GD32F30x_Demo_Suites_V2.0.0/GD32F30x_Demo_Suites_V2.0.0/GD32F30x_Firmware_Library/GD32F30x_standard_peripheral/Source\gd32f30x_timer.c ****     \param[in]  timer_periph: TIMERx(x=0..4,7)
 286:C:/Users/49542/Desktop/GD32F30x_Demo_Suites_V2.0.0/GD32F30x_Demo_Suites_V2.0.0/GD32F30x_Firmware_Library/GD32F30x_standard_peripheral/Source\gd32f30x_timer.c ****     \param[out] none
 287:C:/Users/49542/Desktop/GD32F30x_Demo_Suites_V2.0.0/GD32F30x_Demo_Suites_V2.0.0/GD32F30x_Firmware_Library/GD32F30x_standard_peripheral/Source\gd32f30x_timer.c ****     \retval     none
 288:C:/Users/49542/Desktop/GD32F30x_Demo_Suites_V2.0.0/GD32F30x_Demo_Suites_V2.0.0/GD32F30x_Firmware_Library/GD32F30x_standard_peripheral/Source\gd32f30x_timer.c **** */
 289:C:/Users/49542/Desktop/GD32F30x_Demo_Suites_V2.0.0/GD32F30x_Demo_Suites_V2.0.0/GD32F30x_Firmware_Library/GD32F30x_standard_peripheral/Source\gd32f30x_timer.c **** void timer_counter_down_direction(uint32_t timer_periph)
 290:C:/Users/49542/Desktop/GD32F30x_Demo_Suites_V2.0.0/GD32F30x_Demo_Suites_V2.0.0/GD32F30x_Firmware_Library/GD32F30x_standard_peripheral/Source\gd32f30x_timer.c **** {
 918              		.loc 1 290 0
 919              		.cfi_startproc
 920              		@ args = 0, pretend = 0, frame = 8
 921              		@ frame_needed = 1, uses_anonymous_args = 0
 922              		@ link register save eliminated.
 923 0000 80B4     		push	{r7}
 924              	.LCFI65:
 925              		.cfi_def_cfa_offset 4
 926              		.cfi_offset 7, -4
 927 0002 83B0     		sub	sp, sp, #12
 928              	.LCFI66:
 929              		.cfi_def_cfa_offset 16
 930 0004 00AF     		add	r7, sp, #0
 931              	.LCFI67:
 932              		.cfi_def_cfa_register 7
 933 0006 7860     		str	r0, [r7, #4]
 291:C:/Users/49542/Desktop/GD32F30x_Demo_Suites_V2.0.0/GD32F30x_Demo_Suites_V2.0.0/GD32F30x_Firmware_Library/GD32F30x_standard_peripheral/Source\gd32f30x_timer.c ****     TIMER_CTL0(timer_periph) |= (uint32_t)TIMER_CTL0_DIR;
 934              		.loc 1 291 0
 935 0008 7B68     		ldr	r3, [r7, #4]
 936 000a 1A68     		ldr	r2, [r3]
 937 000c 7B68     		ldr	r3, [r7, #4]
 938 000e 42F01002 		orr	r2, r2, #16
 939 0012 1A60     		str	r2, [r3]
 292:C:/Users/49542/Desktop/GD32F30x_Demo_Suites_V2.0.0/GD32F30x_Demo_Suites_V2.0.0/GD32F30x_Firmware_Library/GD32F30x_standard_peripheral/Source\gd32f30x_timer.c **** }
 940              		.loc 1 292 0
ARM GAS  C:\Users\49542\AppData\Local\Temp\ccx6VnNU.s 			page 23


 941 0014 00BF     		nop
 942 0016 0C37     		adds	r7, r7, #12
 943              	.LCFI68:
 944              		.cfi_def_cfa_offset 4
 945 0018 BD46     		mov	sp, r7
 946              	.LCFI69:
 947              		.cfi_def_cfa_register 13
 948              		@ sp needed
 949 001a 5DF8047B 		ldr	r7, [sp], #4
 950              	.LCFI70:
 951              		.cfi_restore 7
 952              		.cfi_def_cfa_offset 0
 953 001e 7047     		bx	lr
 954              		.cfi_endproc
 955              	.LFE127:
 957              		.section	.text.timer_prescaler_config,"ax",%progbits
 958              		.align	1
 959              		.global	timer_prescaler_config
 960              		.syntax unified
 961              		.thumb
 962              		.thumb_func
 963              		.fpu fpv4-sp-d16
 965              	timer_prescaler_config:
 966              	.LFB128:
 293:C:/Users/49542/Desktop/GD32F30x_Demo_Suites_V2.0.0/GD32F30x_Demo_Suites_V2.0.0/GD32F30x_Firmware_Library/GD32F30x_standard_peripheral/Source\gd32f30x_timer.c **** 
 294:C:/Users/49542/Desktop/GD32F30x_Demo_Suites_V2.0.0/GD32F30x_Demo_Suites_V2.0.0/GD32F30x_Firmware_Library/GD32F30x_standard_peripheral/Source\gd32f30x_timer.c **** /*!
 295:C:/Users/49542/Desktop/GD32F30x_Demo_Suites_V2.0.0/GD32F30x_Demo_Suites_V2.0.0/GD32F30x_Firmware_Library/GD32F30x_standard_peripheral/Source\gd32f30x_timer.c ****     \brief      configure TIMER prescaler
 296:C:/Users/49542/Desktop/GD32F30x_Demo_Suites_V2.0.0/GD32F30x_Demo_Suites_V2.0.0/GD32F30x_Firmware_Library/GD32F30x_standard_peripheral/Source\gd32f30x_timer.c ****     \param[in]  timer_periph: TIMERx(x=0..13)
 297:C:/Users/49542/Desktop/GD32F30x_Demo_Suites_V2.0.0/GD32F30x_Demo_Suites_V2.0.0/GD32F30x_Firmware_Library/GD32F30x_standard_peripheral/Source\gd32f30x_timer.c ****     \param[in]  prescaler: prescaler value,0~65535
 298:C:/Users/49542/Desktop/GD32F30x_Demo_Suites_V2.0.0/GD32F30x_Demo_Suites_V2.0.0/GD32F30x_Firmware_Library/GD32F30x_standard_peripheral/Source\gd32f30x_timer.c ****     \param[in]  pscreload: prescaler reload mode
 299:C:/Users/49542/Desktop/GD32F30x_Demo_Suites_V2.0.0/GD32F30x_Demo_Suites_V2.0.0/GD32F30x_Firmware_Library/GD32F30x_standard_peripheral/Source\gd32f30x_timer.c ****                 only one parameter can be selected which is shown as below:
 300:C:/Users/49542/Desktop/GD32F30x_Demo_Suites_V2.0.0/GD32F30x_Demo_Suites_V2.0.0/GD32F30x_Firmware_Library/GD32F30x_standard_peripheral/Source\gd32f30x_timer.c ****       \arg        TIMER_PSC_RELOAD_NOW: the prescaler is loaded right now
 301:C:/Users/49542/Desktop/GD32F30x_Demo_Suites_V2.0.0/GD32F30x_Demo_Suites_V2.0.0/GD32F30x_Firmware_Library/GD32F30x_standard_peripheral/Source\gd32f30x_timer.c ****       \arg        TIMER_PSC_RELOAD_UPDATE: the prescaler is loaded at the next update event
 302:C:/Users/49542/Desktop/GD32F30x_Demo_Suites_V2.0.0/GD32F30x_Demo_Suites_V2.0.0/GD32F30x_Firmware_Library/GD32F30x_standard_peripheral/Source\gd32f30x_timer.c ****     \param[out] none
 303:C:/Users/49542/Desktop/GD32F30x_Demo_Suites_V2.0.0/GD32F30x_Demo_Suites_V2.0.0/GD32F30x_Firmware_Library/GD32F30x_standard_peripheral/Source\gd32f30x_timer.c ****     \retval     none
 304:C:/Users/49542/Desktop/GD32F30x_Demo_Suites_V2.0.0/GD32F30x_Demo_Suites_V2.0.0/GD32F30x_Firmware_Library/GD32F30x_standard_peripheral/Source\gd32f30x_timer.c **** */
 305:C:/Users/49542/Desktop/GD32F30x_Demo_Suites_V2.0.0/GD32F30x_Demo_Suites_V2.0.0/GD32F30x_Firmware_Library/GD32F30x_standard_peripheral/Source\gd32f30x_timer.c **** void timer_prescaler_config(uint32_t timer_periph, uint16_t prescaler, uint8_t pscreload)
 306:C:/Users/49542/Desktop/GD32F30x_Demo_Suites_V2.0.0/GD32F30x_Demo_Suites_V2.0.0/GD32F30x_Firmware_Library/GD32F30x_standard_peripheral/Source\gd32f30x_timer.c **** {
 967              		.loc 1 306 0
 968              		.cfi_startproc
 969              		@ args = 0, pretend = 0, frame = 8
 970              		@ frame_needed = 1, uses_anonymous_args = 0
 971              		@ link register save eliminated.
 972 0000 80B4     		push	{r7}
 973              	.LCFI71:
 974              		.cfi_def_cfa_offset 4
 975              		.cfi_offset 7, -4
 976 0002 83B0     		sub	sp, sp, #12
 977              	.LCFI72:
 978              		.cfi_def_cfa_offset 16
 979 0004 00AF     		add	r7, sp, #0
 980              	.LCFI73:
 981              		.cfi_def_cfa_register 7
 982 0006 7860     		str	r0, [r7, #4]
 983 0008 0B46     		mov	r3, r1
 984 000a 7B80     		strh	r3, [r7, #2]	@ movhi
 985 000c 1346     		mov	r3, r2
ARM GAS  C:\Users\49542\AppData\Local\Temp\ccx6VnNU.s 			page 24


 986 000e 7B70     		strb	r3, [r7, #1]
 307:C:/Users/49542/Desktop/GD32F30x_Demo_Suites_V2.0.0/GD32F30x_Demo_Suites_V2.0.0/GD32F30x_Firmware_Library/GD32F30x_standard_peripheral/Source\gd32f30x_timer.c ****     TIMER_PSC(timer_periph) = (uint32_t)prescaler;
 987              		.loc 1 307 0
 988 0010 7B68     		ldr	r3, [r7, #4]
 989 0012 2833     		adds	r3, r3, #40
 990 0014 1A46     		mov	r2, r3
 991 0016 7B88     		ldrh	r3, [r7, #2]
 992 0018 1360     		str	r3, [r2]
 308:C:/Users/49542/Desktop/GD32F30x_Demo_Suites_V2.0.0/GD32F30x_Demo_Suites_V2.0.0/GD32F30x_Firmware_Library/GD32F30x_standard_peripheral/Source\gd32f30x_timer.c ****     
 309:C:/Users/49542/Desktop/GD32F30x_Demo_Suites_V2.0.0/GD32F30x_Demo_Suites_V2.0.0/GD32F30x_Firmware_Library/GD32F30x_standard_peripheral/Source\gd32f30x_timer.c ****     if(TIMER_PSC_RELOAD_NOW == pscreload){
 993              		.loc 1 309 0
 994 001a 7B78     		ldrb	r3, [r7, #1]	@ zero_extendqisi2
 995 001c 002B     		cmp	r3, #0
 996 001e 07D1     		bne	.L43
 310:C:/Users/49542/Desktop/GD32F30x_Demo_Suites_V2.0.0/GD32F30x_Demo_Suites_V2.0.0/GD32F30x_Firmware_Library/GD32F30x_standard_peripheral/Source\gd32f30x_timer.c ****         TIMER_SWEVG(timer_periph) |= (uint32_t)TIMER_SWEVG_UPG;
 997              		.loc 1 310 0
 998 0020 7B68     		ldr	r3, [r7, #4]
 999 0022 1433     		adds	r3, r3, #20
 1000 0024 1B68     		ldr	r3, [r3]
 1001 0026 7A68     		ldr	r2, [r7, #4]
 1002 0028 1432     		adds	r2, r2, #20
 1003 002a 43F00103 		orr	r3, r3, #1
 1004 002e 1360     		str	r3, [r2]
 1005              	.L43:
 311:C:/Users/49542/Desktop/GD32F30x_Demo_Suites_V2.0.0/GD32F30x_Demo_Suites_V2.0.0/GD32F30x_Firmware_Library/GD32F30x_standard_peripheral/Source\gd32f30x_timer.c ****     }
 312:C:/Users/49542/Desktop/GD32F30x_Demo_Suites_V2.0.0/GD32F30x_Demo_Suites_V2.0.0/GD32F30x_Firmware_Library/GD32F30x_standard_peripheral/Source\gd32f30x_timer.c **** }
 1006              		.loc 1 312 0
 1007 0030 00BF     		nop
 1008 0032 0C37     		adds	r7, r7, #12
 1009              	.LCFI74:
 1010              		.cfi_def_cfa_offset 4
 1011 0034 BD46     		mov	sp, r7
 1012              	.LCFI75:
 1013              		.cfi_def_cfa_register 13
 1014              		@ sp needed
 1015 0036 5DF8047B 		ldr	r7, [sp], #4
 1016              	.LCFI76:
 1017              		.cfi_restore 7
 1018              		.cfi_def_cfa_offset 0
 1019 003a 7047     		bx	lr
 1020              		.cfi_endproc
 1021              	.LFE128:
 1023              		.section	.text.timer_repetition_value_config,"ax",%progbits
 1024              		.align	1
 1025              		.global	timer_repetition_value_config
 1026              		.syntax unified
 1027              		.thumb
 1028              		.thumb_func
 1029              		.fpu fpv4-sp-d16
 1031              	timer_repetition_value_config:
 1032              	.LFB129:
 313:C:/Users/49542/Desktop/GD32F30x_Demo_Suites_V2.0.0/GD32F30x_Demo_Suites_V2.0.0/GD32F30x_Firmware_Library/GD32F30x_standard_peripheral/Source\gd32f30x_timer.c **** 
 314:C:/Users/49542/Desktop/GD32F30x_Demo_Suites_V2.0.0/GD32F30x_Demo_Suites_V2.0.0/GD32F30x_Firmware_Library/GD32F30x_standard_peripheral/Source\gd32f30x_timer.c **** /*!
 315:C:/Users/49542/Desktop/GD32F30x_Demo_Suites_V2.0.0/GD32F30x_Demo_Suites_V2.0.0/GD32F30x_Firmware_Library/GD32F30x_standard_peripheral/Source\gd32f30x_timer.c ****     \brief      configure TIMER repetition register value
 316:C:/Users/49542/Desktop/GD32F30x_Demo_Suites_V2.0.0/GD32F30x_Demo_Suites_V2.0.0/GD32F30x_Firmware_Library/GD32F30x_standard_peripheral/Source\gd32f30x_timer.c ****     \param[in]  timer_periph: TIMERx(x=0,7)
 317:C:/Users/49542/Desktop/GD32F30x_Demo_Suites_V2.0.0/GD32F30x_Demo_Suites_V2.0.0/GD32F30x_Firmware_Library/GD32F30x_standard_peripheral/Source\gd32f30x_timer.c ****     \param[in]  repetition: the counter repetition value,0~255
 318:C:/Users/49542/Desktop/GD32F30x_Demo_Suites_V2.0.0/GD32F30x_Demo_Suites_V2.0.0/GD32F30x_Firmware_Library/GD32F30x_standard_peripheral/Source\gd32f30x_timer.c ****     \param[out] none
ARM GAS  C:\Users\49542\AppData\Local\Temp\ccx6VnNU.s 			page 25


 319:C:/Users/49542/Desktop/GD32F30x_Demo_Suites_V2.0.0/GD32F30x_Demo_Suites_V2.0.0/GD32F30x_Firmware_Library/GD32F30x_standard_peripheral/Source\gd32f30x_timer.c ****     \retval     none
 320:C:/Users/49542/Desktop/GD32F30x_Demo_Suites_V2.0.0/GD32F30x_Demo_Suites_V2.0.0/GD32F30x_Firmware_Library/GD32F30x_standard_peripheral/Source\gd32f30x_timer.c **** */
 321:C:/Users/49542/Desktop/GD32F30x_Demo_Suites_V2.0.0/GD32F30x_Demo_Suites_V2.0.0/GD32F30x_Firmware_Library/GD32F30x_standard_peripheral/Source\gd32f30x_timer.c **** void timer_repetition_value_config(uint32_t timer_periph, uint16_t repetition)
 322:C:/Users/49542/Desktop/GD32F30x_Demo_Suites_V2.0.0/GD32F30x_Demo_Suites_V2.0.0/GD32F30x_Firmware_Library/GD32F30x_standard_peripheral/Source\gd32f30x_timer.c **** {
 1033              		.loc 1 322 0
 1034              		.cfi_startproc
 1035              		@ args = 0, pretend = 0, frame = 8
 1036              		@ frame_needed = 1, uses_anonymous_args = 0
 1037              		@ link register save eliminated.
 1038 0000 80B4     		push	{r7}
 1039              	.LCFI77:
 1040              		.cfi_def_cfa_offset 4
 1041              		.cfi_offset 7, -4
 1042 0002 83B0     		sub	sp, sp, #12
 1043              	.LCFI78:
 1044              		.cfi_def_cfa_offset 16
 1045 0004 00AF     		add	r7, sp, #0
 1046              	.LCFI79:
 1047              		.cfi_def_cfa_register 7
 1048 0006 7860     		str	r0, [r7, #4]
 1049 0008 0B46     		mov	r3, r1
 1050 000a 7B80     		strh	r3, [r7, #2]	@ movhi
 323:C:/Users/49542/Desktop/GD32F30x_Demo_Suites_V2.0.0/GD32F30x_Demo_Suites_V2.0.0/GD32F30x_Firmware_Library/GD32F30x_standard_peripheral/Source\gd32f30x_timer.c ****     TIMER_CREP(timer_periph) = (uint32_t)repetition;
 1051              		.loc 1 323 0
 1052 000c 7B68     		ldr	r3, [r7, #4]
 1053 000e 3033     		adds	r3, r3, #48
 1054 0010 1A46     		mov	r2, r3
 1055 0012 7B88     		ldrh	r3, [r7, #2]
 1056 0014 1360     		str	r3, [r2]
 324:C:/Users/49542/Desktop/GD32F30x_Demo_Suites_V2.0.0/GD32F30x_Demo_Suites_V2.0.0/GD32F30x_Firmware_Library/GD32F30x_standard_peripheral/Source\gd32f30x_timer.c **** } 
 1057              		.loc 1 324 0
 1058 0016 00BF     		nop
 1059 0018 0C37     		adds	r7, r7, #12
 1060              	.LCFI80:
 1061              		.cfi_def_cfa_offset 4
 1062 001a BD46     		mov	sp, r7
 1063              	.LCFI81:
 1064              		.cfi_def_cfa_register 13
 1065              		@ sp needed
 1066 001c 5DF8047B 		ldr	r7, [sp], #4
 1067              	.LCFI82:
 1068              		.cfi_restore 7
 1069              		.cfi_def_cfa_offset 0
 1070 0020 7047     		bx	lr
 1071              		.cfi_endproc
 1072              	.LFE129:
 1074              		.section	.text.timer_autoreload_value_config,"ax",%progbits
 1075              		.align	1
 1076              		.global	timer_autoreload_value_config
 1077              		.syntax unified
 1078              		.thumb
 1079              		.thumb_func
 1080              		.fpu fpv4-sp-d16
 1082              	timer_autoreload_value_config:
 1083              	.LFB130:
 325:C:/Users/49542/Desktop/GD32F30x_Demo_Suites_V2.0.0/GD32F30x_Demo_Suites_V2.0.0/GD32F30x_Firmware_Library/GD32F30x_standard_peripheral/Source\gd32f30x_timer.c ****  
 326:C:/Users/49542/Desktop/GD32F30x_Demo_Suites_V2.0.0/GD32F30x_Demo_Suites_V2.0.0/GD32F30x_Firmware_Library/GD32F30x_standard_peripheral/Source\gd32f30x_timer.c **** /*!
ARM GAS  C:\Users\49542\AppData\Local\Temp\ccx6VnNU.s 			page 26


 327:C:/Users/49542/Desktop/GD32F30x_Demo_Suites_V2.0.0/GD32F30x_Demo_Suites_V2.0.0/GD32F30x_Firmware_Library/GD32F30x_standard_peripheral/Source\gd32f30x_timer.c ****     \brief      configure TIMER autoreload register value
 328:C:/Users/49542/Desktop/GD32F30x_Demo_Suites_V2.0.0/GD32F30x_Demo_Suites_V2.0.0/GD32F30x_Firmware_Library/GD32F30x_standard_peripheral/Source\gd32f30x_timer.c ****     \param[in]  timer_periph: TIMERx(x=0..13)
 329:C:/Users/49542/Desktop/GD32F30x_Demo_Suites_V2.0.0/GD32F30x_Demo_Suites_V2.0.0/GD32F30x_Firmware_Library/GD32F30x_standard_peripheral/Source\gd32f30x_timer.c ****     \param[in]  autoreload: the counter auto-reload value,0~65535
 330:C:/Users/49542/Desktop/GD32F30x_Demo_Suites_V2.0.0/GD32F30x_Demo_Suites_V2.0.0/GD32F30x_Firmware_Library/GD32F30x_standard_peripheral/Source\gd32f30x_timer.c ****     \param[out] none
 331:C:/Users/49542/Desktop/GD32F30x_Demo_Suites_V2.0.0/GD32F30x_Demo_Suites_V2.0.0/GD32F30x_Firmware_Library/GD32F30x_standard_peripheral/Source\gd32f30x_timer.c ****     \retval     none
 332:C:/Users/49542/Desktop/GD32F30x_Demo_Suites_V2.0.0/GD32F30x_Demo_Suites_V2.0.0/GD32F30x_Firmware_Library/GD32F30x_standard_peripheral/Source\gd32f30x_timer.c **** */         
 333:C:/Users/49542/Desktop/GD32F30x_Demo_Suites_V2.0.0/GD32F30x_Demo_Suites_V2.0.0/GD32F30x_Firmware_Library/GD32F30x_standard_peripheral/Source\gd32f30x_timer.c **** void timer_autoreload_value_config(uint32_t timer_periph, uint16_t autoreload)
 334:C:/Users/49542/Desktop/GD32F30x_Demo_Suites_V2.0.0/GD32F30x_Demo_Suites_V2.0.0/GD32F30x_Firmware_Library/GD32F30x_standard_peripheral/Source\gd32f30x_timer.c **** {
 1084              		.loc 1 334 0
 1085              		.cfi_startproc
 1086              		@ args = 0, pretend = 0, frame = 8
 1087              		@ frame_needed = 1, uses_anonymous_args = 0
 1088              		@ link register save eliminated.
 1089 0000 80B4     		push	{r7}
 1090              	.LCFI83:
 1091              		.cfi_def_cfa_offset 4
 1092              		.cfi_offset 7, -4
 1093 0002 83B0     		sub	sp, sp, #12
 1094              	.LCFI84:
 1095              		.cfi_def_cfa_offset 16
 1096 0004 00AF     		add	r7, sp, #0
 1097              	.LCFI85:
 1098              		.cfi_def_cfa_register 7
 1099 0006 7860     		str	r0, [r7, #4]
 1100 0008 0B46     		mov	r3, r1
 1101 000a 7B80     		strh	r3, [r7, #2]	@ movhi
 335:C:/Users/49542/Desktop/GD32F30x_Demo_Suites_V2.0.0/GD32F30x_Demo_Suites_V2.0.0/GD32F30x_Firmware_Library/GD32F30x_standard_peripheral/Source\gd32f30x_timer.c ****     TIMER_CAR(timer_periph) = (uint32_t)autoreload;
 1102              		.loc 1 335 0
 1103 000c 7B68     		ldr	r3, [r7, #4]
 1104 000e 2C33     		adds	r3, r3, #44
 1105 0010 1A46     		mov	r2, r3
 1106 0012 7B88     		ldrh	r3, [r7, #2]
 1107 0014 1360     		str	r3, [r2]
 336:C:/Users/49542/Desktop/GD32F30x_Demo_Suites_V2.0.0/GD32F30x_Demo_Suites_V2.0.0/GD32F30x_Firmware_Library/GD32F30x_standard_peripheral/Source\gd32f30x_timer.c **** }
 1108              		.loc 1 336 0
 1109 0016 00BF     		nop
 1110 0018 0C37     		adds	r7, r7, #12
 1111              	.LCFI86:
 1112              		.cfi_def_cfa_offset 4
 1113 001a BD46     		mov	sp, r7
 1114              	.LCFI87:
 1115              		.cfi_def_cfa_register 13
 1116              		@ sp needed
 1117 001c 5DF8047B 		ldr	r7, [sp], #4
 1118              	.LCFI88:
 1119              		.cfi_restore 7
 1120              		.cfi_def_cfa_offset 0
 1121 0020 7047     		bx	lr
 1122              		.cfi_endproc
 1123              	.LFE130:
 1125              		.section	.text.timer_counter_value_config,"ax",%progbits
 1126              		.align	1
 1127              		.global	timer_counter_value_config
 1128              		.syntax unified
 1129              		.thumb
 1130              		.thumb_func
 1131              		.fpu fpv4-sp-d16
ARM GAS  C:\Users\49542\AppData\Local\Temp\ccx6VnNU.s 			page 27


 1133              	timer_counter_value_config:
 1134              	.LFB131:
 337:C:/Users/49542/Desktop/GD32F30x_Demo_Suites_V2.0.0/GD32F30x_Demo_Suites_V2.0.0/GD32F30x_Firmware_Library/GD32F30x_standard_peripheral/Source\gd32f30x_timer.c **** 
 338:C:/Users/49542/Desktop/GD32F30x_Demo_Suites_V2.0.0/GD32F30x_Demo_Suites_V2.0.0/GD32F30x_Firmware_Library/GD32F30x_standard_peripheral/Source\gd32f30x_timer.c **** /*!
 339:C:/Users/49542/Desktop/GD32F30x_Demo_Suites_V2.0.0/GD32F30x_Demo_Suites_V2.0.0/GD32F30x_Firmware_Library/GD32F30x_standard_peripheral/Source\gd32f30x_timer.c ****     \brief      configure TIMER counter register value
 340:C:/Users/49542/Desktop/GD32F30x_Demo_Suites_V2.0.0/GD32F30x_Demo_Suites_V2.0.0/GD32F30x_Firmware_Library/GD32F30x_standard_peripheral/Source\gd32f30x_timer.c ****     \param[in]  timer_periph: TIMERx(x=0..13)
 341:C:/Users/49542/Desktop/GD32F30x_Demo_Suites_V2.0.0/GD32F30x_Demo_Suites_V2.0.0/GD32F30x_Firmware_Library/GD32F30x_standard_peripheral/Source\gd32f30x_timer.c ****     \param[in]  counter: the counter value,0~65535
 342:C:/Users/49542/Desktop/GD32F30x_Demo_Suites_V2.0.0/GD32F30x_Demo_Suites_V2.0.0/GD32F30x_Firmware_Library/GD32F30x_standard_peripheral/Source\gd32f30x_timer.c ****     \param[out] none
 343:C:/Users/49542/Desktop/GD32F30x_Demo_Suites_V2.0.0/GD32F30x_Demo_Suites_V2.0.0/GD32F30x_Firmware_Library/GD32F30x_standard_peripheral/Source\gd32f30x_timer.c ****     \retval     none
 344:C:/Users/49542/Desktop/GD32F30x_Demo_Suites_V2.0.0/GD32F30x_Demo_Suites_V2.0.0/GD32F30x_Firmware_Library/GD32F30x_standard_peripheral/Source\gd32f30x_timer.c **** */         
 345:C:/Users/49542/Desktop/GD32F30x_Demo_Suites_V2.0.0/GD32F30x_Demo_Suites_V2.0.0/GD32F30x_Firmware_Library/GD32F30x_standard_peripheral/Source\gd32f30x_timer.c **** void timer_counter_value_config(uint32_t timer_periph, uint16_t counter)
 346:C:/Users/49542/Desktop/GD32F30x_Demo_Suites_V2.0.0/GD32F30x_Demo_Suites_V2.0.0/GD32F30x_Firmware_Library/GD32F30x_standard_peripheral/Source\gd32f30x_timer.c **** {
 1135              		.loc 1 346 0
 1136              		.cfi_startproc
 1137              		@ args = 0, pretend = 0, frame = 8
 1138              		@ frame_needed = 1, uses_anonymous_args = 0
 1139              		@ link register save eliminated.
 1140 0000 80B4     		push	{r7}
 1141              	.LCFI89:
 1142              		.cfi_def_cfa_offset 4
 1143              		.cfi_offset 7, -4
 1144 0002 83B0     		sub	sp, sp, #12
 1145              	.LCFI90:
 1146              		.cfi_def_cfa_offset 16
 1147 0004 00AF     		add	r7, sp, #0
 1148              	.LCFI91:
 1149              		.cfi_def_cfa_register 7
 1150 0006 7860     		str	r0, [r7, #4]
 1151 0008 0B46     		mov	r3, r1
 1152 000a 7B80     		strh	r3, [r7, #2]	@ movhi
 347:C:/Users/49542/Desktop/GD32F30x_Demo_Suites_V2.0.0/GD32F30x_Demo_Suites_V2.0.0/GD32F30x_Firmware_Library/GD32F30x_standard_peripheral/Source\gd32f30x_timer.c ****     TIMER_CNT(timer_periph) = (uint32_t)counter;
 1153              		.loc 1 347 0
 1154 000c 7B68     		ldr	r3, [r7, #4]
 1155 000e 2433     		adds	r3, r3, #36
 1156 0010 1A46     		mov	r2, r3
 1157 0012 7B88     		ldrh	r3, [r7, #2]
 1158 0014 1360     		str	r3, [r2]
 348:C:/Users/49542/Desktop/GD32F30x_Demo_Suites_V2.0.0/GD32F30x_Demo_Suites_V2.0.0/GD32F30x_Firmware_Library/GD32F30x_standard_peripheral/Source\gd32f30x_timer.c **** }
 1159              		.loc 1 348 0
 1160 0016 00BF     		nop
 1161 0018 0C37     		adds	r7, r7, #12
 1162              	.LCFI92:
 1163              		.cfi_def_cfa_offset 4
 1164 001a BD46     		mov	sp, r7
 1165              	.LCFI93:
 1166              		.cfi_def_cfa_register 13
 1167              		@ sp needed
 1168 001c 5DF8047B 		ldr	r7, [sp], #4
 1169              	.LCFI94:
 1170              		.cfi_restore 7
 1171              		.cfi_def_cfa_offset 0
 1172 0020 7047     		bx	lr
 1173              		.cfi_endproc
 1174              	.LFE131:
 1176              		.section	.text.timer_counter_read,"ax",%progbits
 1177              		.align	1
 1178              		.global	timer_counter_read
ARM GAS  C:\Users\49542\AppData\Local\Temp\ccx6VnNU.s 			page 28


 1179              		.syntax unified
 1180              		.thumb
 1181              		.thumb_func
 1182              		.fpu fpv4-sp-d16
 1184              	timer_counter_read:
 1185              	.LFB132:
 349:C:/Users/49542/Desktop/GD32F30x_Demo_Suites_V2.0.0/GD32F30x_Demo_Suites_V2.0.0/GD32F30x_Firmware_Library/GD32F30x_standard_peripheral/Source\gd32f30x_timer.c **** 
 350:C:/Users/49542/Desktop/GD32F30x_Demo_Suites_V2.0.0/GD32F30x_Demo_Suites_V2.0.0/GD32F30x_Firmware_Library/GD32F30x_standard_peripheral/Source\gd32f30x_timer.c **** /*!
 351:C:/Users/49542/Desktop/GD32F30x_Demo_Suites_V2.0.0/GD32F30x_Demo_Suites_V2.0.0/GD32F30x_Firmware_Library/GD32F30x_standard_peripheral/Source\gd32f30x_timer.c ****     \brief      read TIMER counter value
 352:C:/Users/49542/Desktop/GD32F30x_Demo_Suites_V2.0.0/GD32F30x_Demo_Suites_V2.0.0/GD32F30x_Firmware_Library/GD32F30x_standard_peripheral/Source\gd32f30x_timer.c ****     \param[in]  timer_periph: TIMERx(x=0..13)
 353:C:/Users/49542/Desktop/GD32F30x_Demo_Suites_V2.0.0/GD32F30x_Demo_Suites_V2.0.0/GD32F30x_Firmware_Library/GD32F30x_standard_peripheral/Source\gd32f30x_timer.c ****     \param[out] none
 354:C:/Users/49542/Desktop/GD32F30x_Demo_Suites_V2.0.0/GD32F30x_Demo_Suites_V2.0.0/GD32F30x_Firmware_Library/GD32F30x_standard_peripheral/Source\gd32f30x_timer.c ****     \retval     counter value
 355:C:/Users/49542/Desktop/GD32F30x_Demo_Suites_V2.0.0/GD32F30x_Demo_Suites_V2.0.0/GD32F30x_Firmware_Library/GD32F30x_standard_peripheral/Source\gd32f30x_timer.c **** */         
 356:C:/Users/49542/Desktop/GD32F30x_Demo_Suites_V2.0.0/GD32F30x_Demo_Suites_V2.0.0/GD32F30x_Firmware_Library/GD32F30x_standard_peripheral/Source\gd32f30x_timer.c **** uint32_t timer_counter_read(uint32_t timer_periph)
 357:C:/Users/49542/Desktop/GD32F30x_Demo_Suites_V2.0.0/GD32F30x_Demo_Suites_V2.0.0/GD32F30x_Firmware_Library/GD32F30x_standard_peripheral/Source\gd32f30x_timer.c **** {
 1186              		.loc 1 357 0
 1187              		.cfi_startproc
 1188              		@ args = 0, pretend = 0, frame = 16
 1189              		@ frame_needed = 1, uses_anonymous_args = 0
 1190              		@ link register save eliminated.
 1191 0000 80B4     		push	{r7}
 1192              	.LCFI95:
 1193              		.cfi_def_cfa_offset 4
 1194              		.cfi_offset 7, -4
 1195 0002 85B0     		sub	sp, sp, #20
 1196              	.LCFI96:
 1197              		.cfi_def_cfa_offset 24
 1198 0004 00AF     		add	r7, sp, #0
 1199              	.LCFI97:
 1200              		.cfi_def_cfa_register 7
 1201 0006 7860     		str	r0, [r7, #4]
 358:C:/Users/49542/Desktop/GD32F30x_Demo_Suites_V2.0.0/GD32F30x_Demo_Suites_V2.0.0/GD32F30x_Firmware_Library/GD32F30x_standard_peripheral/Source\gd32f30x_timer.c ****     uint32_t count_value = 0U;
 1202              		.loc 1 358 0
 1203 0008 0023     		movs	r3, #0
 1204 000a FB60     		str	r3, [r7, #12]
 359:C:/Users/49542/Desktop/GD32F30x_Demo_Suites_V2.0.0/GD32F30x_Demo_Suites_V2.0.0/GD32F30x_Firmware_Library/GD32F30x_standard_peripheral/Source\gd32f30x_timer.c ****     count_value = TIMER_CNT(timer_periph);
 1205              		.loc 1 359 0
 1206 000c 7B68     		ldr	r3, [r7, #4]
 1207 000e 2433     		adds	r3, r3, #36
 1208 0010 1B68     		ldr	r3, [r3]
 1209 0012 FB60     		str	r3, [r7, #12]
 360:C:/Users/49542/Desktop/GD32F30x_Demo_Suites_V2.0.0/GD32F30x_Demo_Suites_V2.0.0/GD32F30x_Firmware_Library/GD32F30x_standard_peripheral/Source\gd32f30x_timer.c ****     return (count_value);
 1210              		.loc 1 360 0
 1211 0014 FB68     		ldr	r3, [r7, #12]
 361:C:/Users/49542/Desktop/GD32F30x_Demo_Suites_V2.0.0/GD32F30x_Demo_Suites_V2.0.0/GD32F30x_Firmware_Library/GD32F30x_standard_peripheral/Source\gd32f30x_timer.c **** }
 1212              		.loc 1 361 0
 1213 0016 1846     		mov	r0, r3
 1214 0018 1437     		adds	r7, r7, #20
 1215              	.LCFI98:
 1216              		.cfi_def_cfa_offset 4
 1217 001a BD46     		mov	sp, r7
 1218              	.LCFI99:
 1219              		.cfi_def_cfa_register 13
 1220              		@ sp needed
 1221 001c 5DF8047B 		ldr	r7, [sp], #4
 1222              	.LCFI100:
 1223              		.cfi_restore 7
ARM GAS  C:\Users\49542\AppData\Local\Temp\ccx6VnNU.s 			page 29


 1224              		.cfi_def_cfa_offset 0
 1225 0020 7047     		bx	lr
 1226              		.cfi_endproc
 1227              	.LFE132:
 1229              		.section	.text.timer_prescaler_read,"ax",%progbits
 1230              		.align	1
 1231              		.global	timer_prescaler_read
 1232              		.syntax unified
 1233              		.thumb
 1234              		.thumb_func
 1235              		.fpu fpv4-sp-d16
 1237              	timer_prescaler_read:
 1238              	.LFB133:
 362:C:/Users/49542/Desktop/GD32F30x_Demo_Suites_V2.0.0/GD32F30x_Demo_Suites_V2.0.0/GD32F30x_Firmware_Library/GD32F30x_standard_peripheral/Source\gd32f30x_timer.c **** 
 363:C:/Users/49542/Desktop/GD32F30x_Demo_Suites_V2.0.0/GD32F30x_Demo_Suites_V2.0.0/GD32F30x_Firmware_Library/GD32F30x_standard_peripheral/Source\gd32f30x_timer.c **** /*!
 364:C:/Users/49542/Desktop/GD32F30x_Demo_Suites_V2.0.0/GD32F30x_Demo_Suites_V2.0.0/GD32F30x_Firmware_Library/GD32F30x_standard_peripheral/Source\gd32f30x_timer.c ****     \brief      read TIMER prescaler value
 365:C:/Users/49542/Desktop/GD32F30x_Demo_Suites_V2.0.0/GD32F30x_Demo_Suites_V2.0.0/GD32F30x_Firmware_Library/GD32F30x_standard_peripheral/Source\gd32f30x_timer.c ****     \param[in]  timer_periph: TIMERx(x=0..13)
 366:C:/Users/49542/Desktop/GD32F30x_Demo_Suites_V2.0.0/GD32F30x_Demo_Suites_V2.0.0/GD32F30x_Firmware_Library/GD32F30x_standard_peripheral/Source\gd32f30x_timer.c ****     \param[out] none
 367:C:/Users/49542/Desktop/GD32F30x_Demo_Suites_V2.0.0/GD32F30x_Demo_Suites_V2.0.0/GD32F30x_Firmware_Library/GD32F30x_standard_peripheral/Source\gd32f30x_timer.c ****     \retval     prescaler register value
 368:C:/Users/49542/Desktop/GD32F30x_Demo_Suites_V2.0.0/GD32F30x_Demo_Suites_V2.0.0/GD32F30x_Firmware_Library/GD32F30x_standard_peripheral/Source\gd32f30x_timer.c **** */         
 369:C:/Users/49542/Desktop/GD32F30x_Demo_Suites_V2.0.0/GD32F30x_Demo_Suites_V2.0.0/GD32F30x_Firmware_Library/GD32F30x_standard_peripheral/Source\gd32f30x_timer.c **** uint16_t timer_prescaler_read(uint32_t timer_periph)
 370:C:/Users/49542/Desktop/GD32F30x_Demo_Suites_V2.0.0/GD32F30x_Demo_Suites_V2.0.0/GD32F30x_Firmware_Library/GD32F30x_standard_peripheral/Source\gd32f30x_timer.c **** {
 1239              		.loc 1 370 0
 1240              		.cfi_startproc
 1241              		@ args = 0, pretend = 0, frame = 16
 1242              		@ frame_needed = 1, uses_anonymous_args = 0
 1243              		@ link register save eliminated.
 1244 0000 80B4     		push	{r7}
 1245              	.LCFI101:
 1246              		.cfi_def_cfa_offset 4
 1247              		.cfi_offset 7, -4
 1248 0002 85B0     		sub	sp, sp, #20
 1249              	.LCFI102:
 1250              		.cfi_def_cfa_offset 24
 1251 0004 00AF     		add	r7, sp, #0
 1252              	.LCFI103:
 1253              		.cfi_def_cfa_register 7
 1254 0006 7860     		str	r0, [r7, #4]
 371:C:/Users/49542/Desktop/GD32F30x_Demo_Suites_V2.0.0/GD32F30x_Demo_Suites_V2.0.0/GD32F30x_Firmware_Library/GD32F30x_standard_peripheral/Source\gd32f30x_timer.c ****     uint16_t prescaler_value = 0U;
 1255              		.loc 1 371 0
 1256 0008 0023     		movs	r3, #0
 1257 000a FB81     		strh	r3, [r7, #14]	@ movhi
 372:C:/Users/49542/Desktop/GD32F30x_Demo_Suites_V2.0.0/GD32F30x_Demo_Suites_V2.0.0/GD32F30x_Firmware_Library/GD32F30x_standard_peripheral/Source\gd32f30x_timer.c ****     prescaler_value = (uint16_t)(TIMER_PSC(timer_periph));
 1258              		.loc 1 372 0
 1259 000c 7B68     		ldr	r3, [r7, #4]
 1260 000e 2833     		adds	r3, r3, #40
 1261 0010 1B68     		ldr	r3, [r3]
 1262 0012 FB81     		strh	r3, [r7, #14]	@ movhi
 373:C:/Users/49542/Desktop/GD32F30x_Demo_Suites_V2.0.0/GD32F30x_Demo_Suites_V2.0.0/GD32F30x_Firmware_Library/GD32F30x_standard_peripheral/Source\gd32f30x_timer.c ****     return (prescaler_value);
 1263              		.loc 1 373 0
 1264 0014 FB89     		ldrh	r3, [r7, #14]
 374:C:/Users/49542/Desktop/GD32F30x_Demo_Suites_V2.0.0/GD32F30x_Demo_Suites_V2.0.0/GD32F30x_Firmware_Library/GD32F30x_standard_peripheral/Source\gd32f30x_timer.c **** }
 1265              		.loc 1 374 0
 1266 0016 1846     		mov	r0, r3
 1267 0018 1437     		adds	r7, r7, #20
 1268              	.LCFI104:
 1269              		.cfi_def_cfa_offset 4
ARM GAS  C:\Users\49542\AppData\Local\Temp\ccx6VnNU.s 			page 30


 1270 001a BD46     		mov	sp, r7
 1271              	.LCFI105:
 1272              		.cfi_def_cfa_register 13
 1273              		@ sp needed
 1274 001c 5DF8047B 		ldr	r7, [sp], #4
 1275              	.LCFI106:
 1276              		.cfi_restore 7
 1277              		.cfi_def_cfa_offset 0
 1278 0020 7047     		bx	lr
 1279              		.cfi_endproc
 1280              	.LFE133:
 1282              		.section	.text.timer_single_pulse_mode_config,"ax",%progbits
 1283              		.align	1
 1284              		.global	timer_single_pulse_mode_config
 1285              		.syntax unified
 1286              		.thumb
 1287              		.thumb_func
 1288              		.fpu fpv4-sp-d16
 1290              	timer_single_pulse_mode_config:
 1291              	.LFB134:
 375:C:/Users/49542/Desktop/GD32F30x_Demo_Suites_V2.0.0/GD32F30x_Demo_Suites_V2.0.0/GD32F30x_Firmware_Library/GD32F30x_standard_peripheral/Source\gd32f30x_timer.c **** 
 376:C:/Users/49542/Desktop/GD32F30x_Demo_Suites_V2.0.0/GD32F30x_Demo_Suites_V2.0.0/GD32F30x_Firmware_Library/GD32F30x_standard_peripheral/Source\gd32f30x_timer.c **** /*!
 377:C:/Users/49542/Desktop/GD32F30x_Demo_Suites_V2.0.0/GD32F30x_Demo_Suites_V2.0.0/GD32F30x_Firmware_Library/GD32F30x_standard_peripheral/Source\gd32f30x_timer.c ****     \brief      configure TIMER single pulse mode
 378:C:/Users/49542/Desktop/GD32F30x_Demo_Suites_V2.0.0/GD32F30x_Demo_Suites_V2.0.0/GD32F30x_Firmware_Library/GD32F30x_standard_peripheral/Source\gd32f30x_timer.c ****     \param[in]  timer_periph: TIMERx(x=0..8,11)
 379:C:/Users/49542/Desktop/GD32F30x_Demo_Suites_V2.0.0/GD32F30x_Demo_Suites_V2.0.0/GD32F30x_Firmware_Library/GD32F30x_standard_peripheral/Source\gd32f30x_timer.c ****     \param[in]  spmode:
 380:C:/Users/49542/Desktop/GD32F30x_Demo_Suites_V2.0.0/GD32F30x_Demo_Suites_V2.0.0/GD32F30x_Firmware_Library/GD32F30x_standard_peripheral/Source\gd32f30x_timer.c ****                 only one parameter can be selected which is shown as below:
 381:C:/Users/49542/Desktop/GD32F30x_Demo_Suites_V2.0.0/GD32F30x_Demo_Suites_V2.0.0/GD32F30x_Firmware_Library/GD32F30x_standard_peripheral/Source\gd32f30x_timer.c ****       \arg        TIMER_SP_MODE_SINGLE: single pulse mode
 382:C:/Users/49542/Desktop/GD32F30x_Demo_Suites_V2.0.0/GD32F30x_Demo_Suites_V2.0.0/GD32F30x_Firmware_Library/GD32F30x_standard_peripheral/Source\gd32f30x_timer.c ****       \arg        TIMER_SP_MODE_REPETITIVE: repetitive pulse mode
 383:C:/Users/49542/Desktop/GD32F30x_Demo_Suites_V2.0.0/GD32F30x_Demo_Suites_V2.0.0/GD32F30x_Firmware_Library/GD32F30x_standard_peripheral/Source\gd32f30x_timer.c ****     \param[out] none
 384:C:/Users/49542/Desktop/GD32F30x_Demo_Suites_V2.0.0/GD32F30x_Demo_Suites_V2.0.0/GD32F30x_Firmware_Library/GD32F30x_standard_peripheral/Source\gd32f30x_timer.c ****     \retval     none
 385:C:/Users/49542/Desktop/GD32F30x_Demo_Suites_V2.0.0/GD32F30x_Demo_Suites_V2.0.0/GD32F30x_Firmware_Library/GD32F30x_standard_peripheral/Source\gd32f30x_timer.c **** */
 386:C:/Users/49542/Desktop/GD32F30x_Demo_Suites_V2.0.0/GD32F30x_Demo_Suites_V2.0.0/GD32F30x_Firmware_Library/GD32F30x_standard_peripheral/Source\gd32f30x_timer.c **** void timer_single_pulse_mode_config(uint32_t timer_periph, uint32_t spmode)
 387:C:/Users/49542/Desktop/GD32F30x_Demo_Suites_V2.0.0/GD32F30x_Demo_Suites_V2.0.0/GD32F30x_Firmware_Library/GD32F30x_standard_peripheral/Source\gd32f30x_timer.c **** {
 1292              		.loc 1 387 0
 1293              		.cfi_startproc
 1294              		@ args = 0, pretend = 0, frame = 8
 1295              		@ frame_needed = 1, uses_anonymous_args = 0
 1296              		@ link register save eliminated.
 1297 0000 80B4     		push	{r7}
 1298              	.LCFI107:
 1299              		.cfi_def_cfa_offset 4
 1300              		.cfi_offset 7, -4
 1301 0002 83B0     		sub	sp, sp, #12
 1302              	.LCFI108:
 1303              		.cfi_def_cfa_offset 16
 1304 0004 00AF     		add	r7, sp, #0
 1305              	.LCFI109:
 1306              		.cfi_def_cfa_register 7
 1307 0006 7860     		str	r0, [r7, #4]
 1308 0008 3960     		str	r1, [r7]
 388:C:/Users/49542/Desktop/GD32F30x_Demo_Suites_V2.0.0/GD32F30x_Demo_Suites_V2.0.0/GD32F30x_Firmware_Library/GD32F30x_standard_peripheral/Source\gd32f30x_timer.c ****     if(TIMER_SP_MODE_SINGLE == spmode){
 1309              		.loc 1 388 0
 1310 000a 3B68     		ldr	r3, [r7]
 1311 000c 002B     		cmp	r3, #0
 1312 000e 06D1     		bne	.L52
 389:C:/Users/49542/Desktop/GD32F30x_Demo_Suites_V2.0.0/GD32F30x_Demo_Suites_V2.0.0/GD32F30x_Firmware_Library/GD32F30x_standard_peripheral/Source\gd32f30x_timer.c ****         TIMER_CTL0(timer_periph) |= (uint32_t)TIMER_CTL0_SPM;
 1313              		.loc 1 389 0
ARM GAS  C:\Users\49542\AppData\Local\Temp\ccx6VnNU.s 			page 31


 1314 0010 7B68     		ldr	r3, [r7, #4]
 1315 0012 1A68     		ldr	r2, [r3]
 1316 0014 7B68     		ldr	r3, [r7, #4]
 1317 0016 42F00802 		orr	r2, r2, #8
 1318 001a 1A60     		str	r2, [r3]
 390:C:/Users/49542/Desktop/GD32F30x_Demo_Suites_V2.0.0/GD32F30x_Demo_Suites_V2.0.0/GD32F30x_Firmware_Library/GD32F30x_standard_peripheral/Source\gd32f30x_timer.c ****     }else if(TIMER_SP_MODE_REPETITIVE == spmode){
 391:C:/Users/49542/Desktop/GD32F30x_Demo_Suites_V2.0.0/GD32F30x_Demo_Suites_V2.0.0/GD32F30x_Firmware_Library/GD32F30x_standard_peripheral/Source\gd32f30x_timer.c ****         TIMER_CTL0(timer_periph) &= ~((uint32_t)TIMER_CTL0_SPM);
 392:C:/Users/49542/Desktop/GD32F30x_Demo_Suites_V2.0.0/GD32F30x_Demo_Suites_V2.0.0/GD32F30x_Firmware_Library/GD32F30x_standard_peripheral/Source\gd32f30x_timer.c ****     }else{
 393:C:/Users/49542/Desktop/GD32F30x_Demo_Suites_V2.0.0/GD32F30x_Demo_Suites_V2.0.0/GD32F30x_Firmware_Library/GD32F30x_standard_peripheral/Source\gd32f30x_timer.c ****         /* illegal parameters */
 394:C:/Users/49542/Desktop/GD32F30x_Demo_Suites_V2.0.0/GD32F30x_Demo_Suites_V2.0.0/GD32F30x_Firmware_Library/GD32F30x_standard_peripheral/Source\gd32f30x_timer.c ****     }
 395:C:/Users/49542/Desktop/GD32F30x_Demo_Suites_V2.0.0/GD32F30x_Demo_Suites_V2.0.0/GD32F30x_Firmware_Library/GD32F30x_standard_peripheral/Source\gd32f30x_timer.c **** }
 1319              		.loc 1 395 0
 1320 001c 08E0     		b	.L54
 1321              	.L52:
 390:C:/Users/49542/Desktop/GD32F30x_Demo_Suites_V2.0.0/GD32F30x_Demo_Suites_V2.0.0/GD32F30x_Firmware_Library/GD32F30x_standard_peripheral/Source\gd32f30x_timer.c ****     }else if(TIMER_SP_MODE_REPETITIVE == spmode){
 1322              		.loc 1 390 0
 1323 001e 3B68     		ldr	r3, [r7]
 1324 0020 012B     		cmp	r3, #1
 1325 0022 05D1     		bne	.L54
 391:C:/Users/49542/Desktop/GD32F30x_Demo_Suites_V2.0.0/GD32F30x_Demo_Suites_V2.0.0/GD32F30x_Firmware_Library/GD32F30x_standard_peripheral/Source\gd32f30x_timer.c ****     }else{
 1326              		.loc 1 391 0
 1327 0024 7B68     		ldr	r3, [r7, #4]
 1328 0026 1A68     		ldr	r2, [r3]
 1329 0028 7B68     		ldr	r3, [r7, #4]
 1330 002a 22F00802 		bic	r2, r2, #8
 1331 002e 1A60     		str	r2, [r3]
 1332              	.L54:
 1333              		.loc 1 395 0
 1334 0030 00BF     		nop
 1335 0032 0C37     		adds	r7, r7, #12
 1336              	.LCFI110:
 1337              		.cfi_def_cfa_offset 4
 1338 0034 BD46     		mov	sp, r7
 1339              	.LCFI111:
 1340              		.cfi_def_cfa_register 13
 1341              		@ sp needed
 1342 0036 5DF8047B 		ldr	r7, [sp], #4
 1343              	.LCFI112:
 1344              		.cfi_restore 7
 1345              		.cfi_def_cfa_offset 0
 1346 003a 7047     		bx	lr
 1347              		.cfi_endproc
 1348              	.LFE134:
 1350              		.section	.text.timer_update_source_config,"ax",%progbits
 1351              		.align	1
 1352              		.global	timer_update_source_config
 1353              		.syntax unified
 1354              		.thumb
 1355              		.thumb_func
 1356              		.fpu fpv4-sp-d16
 1358              	timer_update_source_config:
 1359              	.LFB135:
 396:C:/Users/49542/Desktop/GD32F30x_Demo_Suites_V2.0.0/GD32F30x_Demo_Suites_V2.0.0/GD32F30x_Firmware_Library/GD32F30x_standard_peripheral/Source\gd32f30x_timer.c **** 
 397:C:/Users/49542/Desktop/GD32F30x_Demo_Suites_V2.0.0/GD32F30x_Demo_Suites_V2.0.0/GD32F30x_Firmware_Library/GD32F30x_standard_peripheral/Source\gd32f30x_timer.c **** /*!
 398:C:/Users/49542/Desktop/GD32F30x_Demo_Suites_V2.0.0/GD32F30x_Demo_Suites_V2.0.0/GD32F30x_Firmware_Library/GD32F30x_standard_peripheral/Source\gd32f30x_timer.c ****     \brief      configure TIMER update source 
 399:C:/Users/49542/Desktop/GD32F30x_Demo_Suites_V2.0.0/GD32F30x_Demo_Suites_V2.0.0/GD32F30x_Firmware_Library/GD32F30x_standard_peripheral/Source\gd32f30x_timer.c ****     \param[in]  timer_periph: TIMERx(x=0..13)
 400:C:/Users/49542/Desktop/GD32F30x_Demo_Suites_V2.0.0/GD32F30x_Demo_Suites_V2.0.0/GD32F30x_Firmware_Library/GD32F30x_standard_peripheral/Source\gd32f30x_timer.c ****     \param[in]  update: 
ARM GAS  C:\Users\49542\AppData\Local\Temp\ccx6VnNU.s 			page 32


 401:C:/Users/49542/Desktop/GD32F30x_Demo_Suites_V2.0.0/GD32F30x_Demo_Suites_V2.0.0/GD32F30x_Firmware_Library/GD32F30x_standard_peripheral/Source\gd32f30x_timer.c ****                 only one parameter can be selected which is shown as below:
 402:C:/Users/49542/Desktop/GD32F30x_Demo_Suites_V2.0.0/GD32F30x_Demo_Suites_V2.0.0/GD32F30x_Firmware_Library/GD32F30x_standard_peripheral/Source\gd32f30x_timer.c ****       \arg        TIMER_UPDATE_SRC_GLOBAL: update generate by setting of UPG bit or the counter ove
 403:C:/Users/49542/Desktop/GD32F30x_Demo_Suites_V2.0.0/GD32F30x_Demo_Suites_V2.0.0/GD32F30x_Firmware_Library/GD32F30x_standard_peripheral/Source\gd32f30x_timer.c ****       \arg        TIMER_UPDATE_SRC_REGULAR: update generate only by counter overflow/underflow
 404:C:/Users/49542/Desktop/GD32F30x_Demo_Suites_V2.0.0/GD32F30x_Demo_Suites_V2.0.0/GD32F30x_Firmware_Library/GD32F30x_standard_peripheral/Source\gd32f30x_timer.c ****     \param[out] none
 405:C:/Users/49542/Desktop/GD32F30x_Demo_Suites_V2.0.0/GD32F30x_Demo_Suites_V2.0.0/GD32F30x_Firmware_Library/GD32F30x_standard_peripheral/Source\gd32f30x_timer.c ****     \retval     none
 406:C:/Users/49542/Desktop/GD32F30x_Demo_Suites_V2.0.0/GD32F30x_Demo_Suites_V2.0.0/GD32F30x_Firmware_Library/GD32F30x_standard_peripheral/Source\gd32f30x_timer.c **** */
 407:C:/Users/49542/Desktop/GD32F30x_Demo_Suites_V2.0.0/GD32F30x_Demo_Suites_V2.0.0/GD32F30x_Firmware_Library/GD32F30x_standard_peripheral/Source\gd32f30x_timer.c **** void timer_update_source_config(uint32_t timer_periph, uint32_t update)
 408:C:/Users/49542/Desktop/GD32F30x_Demo_Suites_V2.0.0/GD32F30x_Demo_Suites_V2.0.0/GD32F30x_Firmware_Library/GD32F30x_standard_peripheral/Source\gd32f30x_timer.c **** {
 1360              		.loc 1 408 0
 1361              		.cfi_startproc
 1362              		@ args = 0, pretend = 0, frame = 8
 1363              		@ frame_needed = 1, uses_anonymous_args = 0
 1364              		@ link register save eliminated.
 1365 0000 80B4     		push	{r7}
 1366              	.LCFI113:
 1367              		.cfi_def_cfa_offset 4
 1368              		.cfi_offset 7, -4
 1369 0002 83B0     		sub	sp, sp, #12
 1370              	.LCFI114:
 1371              		.cfi_def_cfa_offset 16
 1372 0004 00AF     		add	r7, sp, #0
 1373              	.LCFI115:
 1374              		.cfi_def_cfa_register 7
 1375 0006 7860     		str	r0, [r7, #4]
 1376 0008 3960     		str	r1, [r7]
 409:C:/Users/49542/Desktop/GD32F30x_Demo_Suites_V2.0.0/GD32F30x_Demo_Suites_V2.0.0/GD32F30x_Firmware_Library/GD32F30x_standard_peripheral/Source\gd32f30x_timer.c ****     if(TIMER_UPDATE_SRC_REGULAR == update){
 1377              		.loc 1 409 0
 1378 000a 3B68     		ldr	r3, [r7]
 1379 000c 002B     		cmp	r3, #0
 1380 000e 06D1     		bne	.L56
 410:C:/Users/49542/Desktop/GD32F30x_Demo_Suites_V2.0.0/GD32F30x_Demo_Suites_V2.0.0/GD32F30x_Firmware_Library/GD32F30x_standard_peripheral/Source\gd32f30x_timer.c ****         TIMER_CTL0(timer_periph) |= (uint32_t)TIMER_CTL0_UPS;
 1381              		.loc 1 410 0
 1382 0010 7B68     		ldr	r3, [r7, #4]
 1383 0012 1A68     		ldr	r2, [r3]
 1384 0014 7B68     		ldr	r3, [r7, #4]
 1385 0016 42F00402 		orr	r2, r2, #4
 1386 001a 1A60     		str	r2, [r3]
 411:C:/Users/49542/Desktop/GD32F30x_Demo_Suites_V2.0.0/GD32F30x_Demo_Suites_V2.0.0/GD32F30x_Firmware_Library/GD32F30x_standard_peripheral/Source\gd32f30x_timer.c ****     }else if(TIMER_UPDATE_SRC_GLOBAL == update){
 412:C:/Users/49542/Desktop/GD32F30x_Demo_Suites_V2.0.0/GD32F30x_Demo_Suites_V2.0.0/GD32F30x_Firmware_Library/GD32F30x_standard_peripheral/Source\gd32f30x_timer.c ****         TIMER_CTL0(timer_periph) &= ~(uint32_t)TIMER_CTL0_UPS;
 413:C:/Users/49542/Desktop/GD32F30x_Demo_Suites_V2.0.0/GD32F30x_Demo_Suites_V2.0.0/GD32F30x_Firmware_Library/GD32F30x_standard_peripheral/Source\gd32f30x_timer.c ****     }else{
 414:C:/Users/49542/Desktop/GD32F30x_Demo_Suites_V2.0.0/GD32F30x_Demo_Suites_V2.0.0/GD32F30x_Firmware_Library/GD32F30x_standard_peripheral/Source\gd32f30x_timer.c ****         /* illegal parameters */
 415:C:/Users/49542/Desktop/GD32F30x_Demo_Suites_V2.0.0/GD32F30x_Demo_Suites_V2.0.0/GD32F30x_Firmware_Library/GD32F30x_standard_peripheral/Source\gd32f30x_timer.c ****     }
 416:C:/Users/49542/Desktop/GD32F30x_Demo_Suites_V2.0.0/GD32F30x_Demo_Suites_V2.0.0/GD32F30x_Firmware_Library/GD32F30x_standard_peripheral/Source\gd32f30x_timer.c **** }
 1387              		.loc 1 416 0
 1388 001c 08E0     		b	.L58
 1389              	.L56:
 411:C:/Users/49542/Desktop/GD32F30x_Demo_Suites_V2.0.0/GD32F30x_Demo_Suites_V2.0.0/GD32F30x_Firmware_Library/GD32F30x_standard_peripheral/Source\gd32f30x_timer.c ****     }else if(TIMER_UPDATE_SRC_GLOBAL == update){
 1390              		.loc 1 411 0
 1391 001e 3B68     		ldr	r3, [r7]
 1392 0020 012B     		cmp	r3, #1
 1393 0022 05D1     		bne	.L58
 412:C:/Users/49542/Desktop/GD32F30x_Demo_Suites_V2.0.0/GD32F30x_Demo_Suites_V2.0.0/GD32F30x_Firmware_Library/GD32F30x_standard_peripheral/Source\gd32f30x_timer.c ****     }else{
 1394              		.loc 1 412 0
 1395 0024 7B68     		ldr	r3, [r7, #4]
 1396 0026 1A68     		ldr	r2, [r3]
 1397 0028 7B68     		ldr	r3, [r7, #4]
 1398 002a 22F00402 		bic	r2, r2, #4
ARM GAS  C:\Users\49542\AppData\Local\Temp\ccx6VnNU.s 			page 33


 1399 002e 1A60     		str	r2, [r3]
 1400              	.L58:
 1401              		.loc 1 416 0
 1402 0030 00BF     		nop
 1403 0032 0C37     		adds	r7, r7, #12
 1404              	.LCFI116:
 1405              		.cfi_def_cfa_offset 4
 1406 0034 BD46     		mov	sp, r7
 1407              	.LCFI117:
 1408              		.cfi_def_cfa_register 13
 1409              		@ sp needed
 1410 0036 5DF8047B 		ldr	r7, [sp], #4
 1411              	.LCFI118:
 1412              		.cfi_restore 7
 1413              		.cfi_def_cfa_offset 0
 1414 003a 7047     		bx	lr
 1415              		.cfi_endproc
 1416              	.LFE135:
 1418              		.section	.text.timer_interrupt_enable,"ax",%progbits
 1419              		.align	1
 1420              		.global	timer_interrupt_enable
 1421              		.syntax unified
 1422              		.thumb
 1423              		.thumb_func
 1424              		.fpu fpv4-sp-d16
 1426              	timer_interrupt_enable:
 1427              	.LFB136:
 417:C:/Users/49542/Desktop/GD32F30x_Demo_Suites_V2.0.0/GD32F30x_Demo_Suites_V2.0.0/GD32F30x_Firmware_Library/GD32F30x_standard_peripheral/Source\gd32f30x_timer.c **** 
 418:C:/Users/49542/Desktop/GD32F30x_Demo_Suites_V2.0.0/GD32F30x_Demo_Suites_V2.0.0/GD32F30x_Firmware_Library/GD32F30x_standard_peripheral/Source\gd32f30x_timer.c **** /*!
 419:C:/Users/49542/Desktop/GD32F30x_Demo_Suites_V2.0.0/GD32F30x_Demo_Suites_V2.0.0/GD32F30x_Firmware_Library/GD32F30x_standard_peripheral/Source\gd32f30x_timer.c ****     \brief      enable the TIMER interrupt
 420:C:/Users/49542/Desktop/GD32F30x_Demo_Suites_V2.0.0/GD32F30x_Demo_Suites_V2.0.0/GD32F30x_Firmware_Library/GD32F30x_standard_peripheral/Source\gd32f30x_timer.c ****     \param[in]  timer_periph: please refer to the following parameters 
 421:C:/Users/49542/Desktop/GD32F30x_Demo_Suites_V2.0.0/GD32F30x_Demo_Suites_V2.0.0/GD32F30x_Firmware_Library/GD32F30x_standard_peripheral/Source\gd32f30x_timer.c ****     \param[in]  interrupt: timer interrupt enable source
 422:C:/Users/49542/Desktop/GD32F30x_Demo_Suites_V2.0.0/GD32F30x_Demo_Suites_V2.0.0/GD32F30x_Firmware_Library/GD32F30x_standard_peripheral/Source\gd32f30x_timer.c ****                 only one parameter can be selected which is shown as below:
 423:C:/Users/49542/Desktop/GD32F30x_Demo_Suites_V2.0.0/GD32F30x_Demo_Suites_V2.0.0/GD32F30x_Firmware_Library/GD32F30x_standard_peripheral/Source\gd32f30x_timer.c ****       \arg        TIMER_INT_UP: update interrupt enable, TIMERx(x=0..13)
 424:C:/Users/49542/Desktop/GD32F30x_Demo_Suites_V2.0.0/GD32F30x_Demo_Suites_V2.0.0/GD32F30x_Firmware_Library/GD32F30x_standard_peripheral/Source\gd32f30x_timer.c ****       \arg        TIMER_INT_CH0: channel 0 interrupt enable, TIMERx(x=0..4,7..13)
 425:C:/Users/49542/Desktop/GD32F30x_Demo_Suites_V2.0.0/GD32F30x_Demo_Suites_V2.0.0/GD32F30x_Firmware_Library/GD32F30x_standard_peripheral/Source\gd32f30x_timer.c ****       \arg        TIMER_INT_CH1: channel 1 interrupt enable, TIMERx(x=0..4,7,8,11)
 426:C:/Users/49542/Desktop/GD32F30x_Demo_Suites_V2.0.0/GD32F30x_Demo_Suites_V2.0.0/GD32F30x_Firmware_Library/GD32F30x_standard_peripheral/Source\gd32f30x_timer.c ****       \arg        TIMER_INT_CH2: channel 2 interrupt enable, TIMERx(x=0..4,7)
 427:C:/Users/49542/Desktop/GD32F30x_Demo_Suites_V2.0.0/GD32F30x_Demo_Suites_V2.0.0/GD32F30x_Firmware_Library/GD32F30x_standard_peripheral/Source\gd32f30x_timer.c ****       \arg        TIMER_INT_CH3: channel 3 interrupt enable , TIMERx(x=0..4,7)
 428:C:/Users/49542/Desktop/GD32F30x_Demo_Suites_V2.0.0/GD32F30x_Demo_Suites_V2.0.0/GD32F30x_Firmware_Library/GD32F30x_standard_peripheral/Source\gd32f30x_timer.c ****       \arg        TIMER_INT_CMT: commutation interrupt enable, TIMERx(x=0,7)
 429:C:/Users/49542/Desktop/GD32F30x_Demo_Suites_V2.0.0/GD32F30x_Demo_Suites_V2.0.0/GD32F30x_Firmware_Library/GD32F30x_standard_peripheral/Source\gd32f30x_timer.c ****       \arg        TIMER_INT_TRG: trigger interrupt enable, TIMERx(x=0..4,7,8,11)
 430:C:/Users/49542/Desktop/GD32F30x_Demo_Suites_V2.0.0/GD32F30x_Demo_Suites_V2.0.0/GD32F30x_Firmware_Library/GD32F30x_standard_peripheral/Source\gd32f30x_timer.c ****       \arg        TIMER_INT_BRK: break interrupt enable, TIMERx(x=0,7)
 431:C:/Users/49542/Desktop/GD32F30x_Demo_Suites_V2.0.0/GD32F30x_Demo_Suites_V2.0.0/GD32F30x_Firmware_Library/GD32F30x_standard_peripheral/Source\gd32f30x_timer.c ****     \param[out] none
 432:C:/Users/49542/Desktop/GD32F30x_Demo_Suites_V2.0.0/GD32F30x_Demo_Suites_V2.0.0/GD32F30x_Firmware_Library/GD32F30x_standard_peripheral/Source\gd32f30x_timer.c ****     \retval     none
 433:C:/Users/49542/Desktop/GD32F30x_Demo_Suites_V2.0.0/GD32F30x_Demo_Suites_V2.0.0/GD32F30x_Firmware_Library/GD32F30x_standard_peripheral/Source\gd32f30x_timer.c **** */
 434:C:/Users/49542/Desktop/GD32F30x_Demo_Suites_V2.0.0/GD32F30x_Demo_Suites_V2.0.0/GD32F30x_Firmware_Library/GD32F30x_standard_peripheral/Source\gd32f30x_timer.c **** void timer_interrupt_enable(uint32_t timer_periph, uint32_t interrupt)
 435:C:/Users/49542/Desktop/GD32F30x_Demo_Suites_V2.0.0/GD32F30x_Demo_Suites_V2.0.0/GD32F30x_Firmware_Library/GD32F30x_standard_peripheral/Source\gd32f30x_timer.c **** {
 1428              		.loc 1 435 0
 1429              		.cfi_startproc
 1430              		@ args = 0, pretend = 0, frame = 8
 1431              		@ frame_needed = 1, uses_anonymous_args = 0
 1432              		@ link register save eliminated.
 1433 0000 80B4     		push	{r7}
 1434              	.LCFI119:
 1435              		.cfi_def_cfa_offset 4
 1436              		.cfi_offset 7, -4
 1437 0002 83B0     		sub	sp, sp, #12
 1438              	.LCFI120:
ARM GAS  C:\Users\49542\AppData\Local\Temp\ccx6VnNU.s 			page 34


 1439              		.cfi_def_cfa_offset 16
 1440 0004 00AF     		add	r7, sp, #0
 1441              	.LCFI121:
 1442              		.cfi_def_cfa_register 7
 1443 0006 7860     		str	r0, [r7, #4]
 1444 0008 3960     		str	r1, [r7]
 436:C:/Users/49542/Desktop/GD32F30x_Demo_Suites_V2.0.0/GD32F30x_Demo_Suites_V2.0.0/GD32F30x_Firmware_Library/GD32F30x_standard_peripheral/Source\gd32f30x_timer.c ****     TIMER_DMAINTEN(timer_periph) |= (uint32_t) interrupt; 
 1445              		.loc 1 436 0
 1446 000a 7B68     		ldr	r3, [r7, #4]
 1447 000c 0C33     		adds	r3, r3, #12
 1448 000e 1A68     		ldr	r2, [r3]
 1449 0010 7B68     		ldr	r3, [r7, #4]
 1450 0012 0C33     		adds	r3, r3, #12
 1451 0014 1946     		mov	r1, r3
 1452 0016 3B68     		ldr	r3, [r7]
 1453 0018 1343     		orrs	r3, r3, r2
 1454 001a 0B60     		str	r3, [r1]
 437:C:/Users/49542/Desktop/GD32F30x_Demo_Suites_V2.0.0/GD32F30x_Demo_Suites_V2.0.0/GD32F30x_Firmware_Library/GD32F30x_standard_peripheral/Source\gd32f30x_timer.c **** }
 1455              		.loc 1 437 0
 1456 001c 00BF     		nop
 1457 001e 0C37     		adds	r7, r7, #12
 1458              	.LCFI122:
 1459              		.cfi_def_cfa_offset 4
 1460 0020 BD46     		mov	sp, r7
 1461              	.LCFI123:
 1462              		.cfi_def_cfa_register 13
 1463              		@ sp needed
 1464 0022 5DF8047B 		ldr	r7, [sp], #4
 1465              	.LCFI124:
 1466              		.cfi_restore 7
 1467              		.cfi_def_cfa_offset 0
 1468 0026 7047     		bx	lr
 1469              		.cfi_endproc
 1470              	.LFE136:
 1472              		.section	.text.timer_interrupt_disable,"ax",%progbits
 1473              		.align	1
 1474              		.global	timer_interrupt_disable
 1475              		.syntax unified
 1476              		.thumb
 1477              		.thumb_func
 1478              		.fpu fpv4-sp-d16
 1480              	timer_interrupt_disable:
 1481              	.LFB137:
 438:C:/Users/49542/Desktop/GD32F30x_Demo_Suites_V2.0.0/GD32F30x_Demo_Suites_V2.0.0/GD32F30x_Firmware_Library/GD32F30x_standard_peripheral/Source\gd32f30x_timer.c **** 
 439:C:/Users/49542/Desktop/GD32F30x_Demo_Suites_V2.0.0/GD32F30x_Demo_Suites_V2.0.0/GD32F30x_Firmware_Library/GD32F30x_standard_peripheral/Source\gd32f30x_timer.c **** /*!
 440:C:/Users/49542/Desktop/GD32F30x_Demo_Suites_V2.0.0/GD32F30x_Demo_Suites_V2.0.0/GD32F30x_Firmware_Library/GD32F30x_standard_peripheral/Source\gd32f30x_timer.c ****     \brief      disable the TIMER interrupt
 441:C:/Users/49542/Desktop/GD32F30x_Demo_Suites_V2.0.0/GD32F30x_Demo_Suites_V2.0.0/GD32F30x_Firmware_Library/GD32F30x_standard_peripheral/Source\gd32f30x_timer.c ****     \param[in]  timer_periph: please refer to the following parameters
 442:C:/Users/49542/Desktop/GD32F30x_Demo_Suites_V2.0.0/GD32F30x_Demo_Suites_V2.0.0/GD32F30x_Firmware_Library/GD32F30x_standard_peripheral/Source\gd32f30x_timer.c ****     \param[in]  interrupt: timer interrupt source disable 
 443:C:/Users/49542/Desktop/GD32F30x_Demo_Suites_V2.0.0/GD32F30x_Demo_Suites_V2.0.0/GD32F30x_Firmware_Library/GD32F30x_standard_peripheral/Source\gd32f30x_timer.c ****                 only one parameter can be selected which is shown as below:
 444:C:/Users/49542/Desktop/GD32F30x_Demo_Suites_V2.0.0/GD32F30x_Demo_Suites_V2.0.0/GD32F30x_Firmware_Library/GD32F30x_standard_peripheral/Source\gd32f30x_timer.c ****       \arg        TIMER_INT_UP: update interrupt disable, TIMERx(x=0..13)
 445:C:/Users/49542/Desktop/GD32F30x_Demo_Suites_V2.0.0/GD32F30x_Demo_Suites_V2.0.0/GD32F30x_Firmware_Library/GD32F30x_standard_peripheral/Source\gd32f30x_timer.c ****       \arg        TIMER_INT_CH0: channel 0 interrupt disable, TIMERx(x=0..4,7..13)
 446:C:/Users/49542/Desktop/GD32F30x_Demo_Suites_V2.0.0/GD32F30x_Demo_Suites_V2.0.0/GD32F30x_Firmware_Library/GD32F30x_standard_peripheral/Source\gd32f30x_timer.c ****       \arg        TIMER_INT_CH1: channel 1 interrupt disable, TIMERx(x=0..4,7,8,11)
 447:C:/Users/49542/Desktop/GD32F30x_Demo_Suites_V2.0.0/GD32F30x_Demo_Suites_V2.0.0/GD32F30x_Firmware_Library/GD32F30x_standard_peripheral/Source\gd32f30x_timer.c ****       \arg        TIMER_INT_CH2: channel 2 interrupt disable, TIMERx(x=0..4,7)
 448:C:/Users/49542/Desktop/GD32F30x_Demo_Suites_V2.0.0/GD32F30x_Demo_Suites_V2.0.0/GD32F30x_Firmware_Library/GD32F30x_standard_peripheral/Source\gd32f30x_timer.c ****       \arg        TIMER_INT_CH3: channel 3 interrupt disable , TIMERx(x=0..4,7)
 449:C:/Users/49542/Desktop/GD32F30x_Demo_Suites_V2.0.0/GD32F30x_Demo_Suites_V2.0.0/GD32F30x_Firmware_Library/GD32F30x_standard_peripheral/Source\gd32f30x_timer.c ****       \arg        TIMER_INT_CMT: commutation interrupt disable, TIMERx(x=0,7)
 450:C:/Users/49542/Desktop/GD32F30x_Demo_Suites_V2.0.0/GD32F30x_Demo_Suites_V2.0.0/GD32F30x_Firmware_Library/GD32F30x_standard_peripheral/Source\gd32f30x_timer.c ****       \arg        TIMER_INT_TRG: trigger interrupt disable, TIMERx(x=0..4,7,8,11)
 451:C:/Users/49542/Desktop/GD32F30x_Demo_Suites_V2.0.0/GD32F30x_Demo_Suites_V2.0.0/GD32F30x_Firmware_Library/GD32F30x_standard_peripheral/Source\gd32f30x_timer.c ****       \arg        TIMER_INT_BRK: break interrupt disable, TIMERx(x=0,7)
ARM GAS  C:\Users\49542\AppData\Local\Temp\ccx6VnNU.s 			page 35


 452:C:/Users/49542/Desktop/GD32F30x_Demo_Suites_V2.0.0/GD32F30x_Demo_Suites_V2.0.0/GD32F30x_Firmware_Library/GD32F30x_standard_peripheral/Source\gd32f30x_timer.c ****     \param[out] none
 453:C:/Users/49542/Desktop/GD32F30x_Demo_Suites_V2.0.0/GD32F30x_Demo_Suites_V2.0.0/GD32F30x_Firmware_Library/GD32F30x_standard_peripheral/Source\gd32f30x_timer.c ****     \retval     none
 454:C:/Users/49542/Desktop/GD32F30x_Demo_Suites_V2.0.0/GD32F30x_Demo_Suites_V2.0.0/GD32F30x_Firmware_Library/GD32F30x_standard_peripheral/Source\gd32f30x_timer.c **** */
 455:C:/Users/49542/Desktop/GD32F30x_Demo_Suites_V2.0.0/GD32F30x_Demo_Suites_V2.0.0/GD32F30x_Firmware_Library/GD32F30x_standard_peripheral/Source\gd32f30x_timer.c **** void timer_interrupt_disable(uint32_t timer_periph, uint32_t interrupt)
 456:C:/Users/49542/Desktop/GD32F30x_Demo_Suites_V2.0.0/GD32F30x_Demo_Suites_V2.0.0/GD32F30x_Firmware_Library/GD32F30x_standard_peripheral/Source\gd32f30x_timer.c **** {
 1482              		.loc 1 456 0
 1483              		.cfi_startproc
 1484              		@ args = 0, pretend = 0, frame = 8
 1485              		@ frame_needed = 1, uses_anonymous_args = 0
 1486              		@ link register save eliminated.
 1487 0000 80B4     		push	{r7}
 1488              	.LCFI125:
 1489              		.cfi_def_cfa_offset 4
 1490              		.cfi_offset 7, -4
 1491 0002 83B0     		sub	sp, sp, #12
 1492              	.LCFI126:
 1493              		.cfi_def_cfa_offset 16
 1494 0004 00AF     		add	r7, sp, #0
 1495              	.LCFI127:
 1496              		.cfi_def_cfa_register 7
 1497 0006 7860     		str	r0, [r7, #4]
 1498 0008 3960     		str	r1, [r7]
 457:C:/Users/49542/Desktop/GD32F30x_Demo_Suites_V2.0.0/GD32F30x_Demo_Suites_V2.0.0/GD32F30x_Firmware_Library/GD32F30x_standard_peripheral/Source\gd32f30x_timer.c ****     TIMER_DMAINTEN(timer_periph) &= (~(uint32_t)interrupt); 
 1499              		.loc 1 457 0
 1500 000a 7B68     		ldr	r3, [r7, #4]
 1501 000c 0C33     		adds	r3, r3, #12
 1502 000e 1A68     		ldr	r2, [r3]
 1503 0010 3B68     		ldr	r3, [r7]
 1504 0012 DB43     		mvns	r3, r3
 1505 0014 7968     		ldr	r1, [r7, #4]
 1506 0016 0C31     		adds	r1, r1, #12
 1507 0018 1340     		ands	r3, r3, r2
 1508 001a 0B60     		str	r3, [r1]
 458:C:/Users/49542/Desktop/GD32F30x_Demo_Suites_V2.0.0/GD32F30x_Demo_Suites_V2.0.0/GD32F30x_Firmware_Library/GD32F30x_standard_peripheral/Source\gd32f30x_timer.c **** }
 1509              		.loc 1 458 0
 1510 001c 00BF     		nop
 1511 001e 0C37     		adds	r7, r7, #12
 1512              	.LCFI128:
 1513              		.cfi_def_cfa_offset 4
 1514 0020 BD46     		mov	sp, r7
 1515              	.LCFI129:
 1516              		.cfi_def_cfa_register 13
 1517              		@ sp needed
 1518 0022 5DF8047B 		ldr	r7, [sp], #4
 1519              	.LCFI130:
 1520              		.cfi_restore 7
 1521              		.cfi_def_cfa_offset 0
 1522 0026 7047     		bx	lr
 1523              		.cfi_endproc
 1524              	.LFE137:
 1526              		.section	.text.timer_interrupt_flag_get,"ax",%progbits
 1527              		.align	1
 1528              		.global	timer_interrupt_flag_get
 1529              		.syntax unified
 1530              		.thumb
 1531              		.thumb_func
 1532              		.fpu fpv4-sp-d16
ARM GAS  C:\Users\49542\AppData\Local\Temp\ccx6VnNU.s 			page 36


 1534              	timer_interrupt_flag_get:
 1535              	.LFB138:
 459:C:/Users/49542/Desktop/GD32F30x_Demo_Suites_V2.0.0/GD32F30x_Demo_Suites_V2.0.0/GD32F30x_Firmware_Library/GD32F30x_standard_peripheral/Source\gd32f30x_timer.c **** 
 460:C:/Users/49542/Desktop/GD32F30x_Demo_Suites_V2.0.0/GD32F30x_Demo_Suites_V2.0.0/GD32F30x_Firmware_Library/GD32F30x_standard_peripheral/Source\gd32f30x_timer.c **** /*!
 461:C:/Users/49542/Desktop/GD32F30x_Demo_Suites_V2.0.0/GD32F30x_Demo_Suites_V2.0.0/GD32F30x_Firmware_Library/GD32F30x_standard_peripheral/Source\gd32f30x_timer.c ****     \brief      get timer interrupt flag
 462:C:/Users/49542/Desktop/GD32F30x_Demo_Suites_V2.0.0/GD32F30x_Demo_Suites_V2.0.0/GD32F30x_Firmware_Library/GD32F30x_standard_peripheral/Source\gd32f30x_timer.c ****     \param[in]  timer_periph: please refer to the following parameters
 463:C:/Users/49542/Desktop/GD32F30x_Demo_Suites_V2.0.0/GD32F30x_Demo_Suites_V2.0.0/GD32F30x_Firmware_Library/GD32F30x_standard_peripheral/Source\gd32f30x_timer.c ****     \param[in]  interrupt: the timer interrupt bits
 464:C:/Users/49542/Desktop/GD32F30x_Demo_Suites_V2.0.0/GD32F30x_Demo_Suites_V2.0.0/GD32F30x_Firmware_Library/GD32F30x_standard_peripheral/Source\gd32f30x_timer.c ****                 only one parameter can be selected which is shown as below:
 465:C:/Users/49542/Desktop/GD32F30x_Demo_Suites_V2.0.0/GD32F30x_Demo_Suites_V2.0.0/GD32F30x_Firmware_Library/GD32F30x_standard_peripheral/Source\gd32f30x_timer.c ****       \arg        TIMER_INT_FLAG_UP: update interrupt flag,TIMERx(x=0..13)
 466:C:/Users/49542/Desktop/GD32F30x_Demo_Suites_V2.0.0/GD32F30x_Demo_Suites_V2.0.0/GD32F30x_Firmware_Library/GD32F30x_standard_peripheral/Source\gd32f30x_timer.c ****       \arg        TIMER_INT_FLAG_CH0: channel 0 interrupt flag,TIMERx(x=0..4,7..13)
 467:C:/Users/49542/Desktop/GD32F30x_Demo_Suites_V2.0.0/GD32F30x_Demo_Suites_V2.0.0/GD32F30x_Firmware_Library/GD32F30x_standard_peripheral/Source\gd32f30x_timer.c ****       \arg        TIMER_INT_FLAG_CH1: channel 1 interrupt flag,TIMERx(x=0..4,7,8,11)
 468:C:/Users/49542/Desktop/GD32F30x_Demo_Suites_V2.0.0/GD32F30x_Demo_Suites_V2.0.0/GD32F30x_Firmware_Library/GD32F30x_standard_peripheral/Source\gd32f30x_timer.c ****       \arg        TIMER_INT_FLAG_CH2: channel 2 interrupt flag,TIMERx(x=0..4,7)
 469:C:/Users/49542/Desktop/GD32F30x_Demo_Suites_V2.0.0/GD32F30x_Demo_Suites_V2.0.0/GD32F30x_Firmware_Library/GD32F30x_standard_peripheral/Source\gd32f30x_timer.c ****       \arg        TIMER_INT_FLAG_CH3: channel 3 interrupt flag,TIMERx(x=0..4,7)
 470:C:/Users/49542/Desktop/GD32F30x_Demo_Suites_V2.0.0/GD32F30x_Demo_Suites_V2.0.0/GD32F30x_Firmware_Library/GD32F30x_standard_peripheral/Source\gd32f30x_timer.c ****       \arg        TIMER_INT_FLAG_CMT: channel commutation interrupt flag,TIMERx(x=0,7) 
 471:C:/Users/49542/Desktop/GD32F30x_Demo_Suites_V2.0.0/GD32F30x_Demo_Suites_V2.0.0/GD32F30x_Firmware_Library/GD32F30x_standard_peripheral/Source\gd32f30x_timer.c ****       \arg        TIMER_INT_FLAG_TRG: trigger interrupt flag,TIMERx(x=0,7,8,11)
 472:C:/Users/49542/Desktop/GD32F30x_Demo_Suites_V2.0.0/GD32F30x_Demo_Suites_V2.0.0/GD32F30x_Firmware_Library/GD32F30x_standard_peripheral/Source\gd32f30x_timer.c ****       \arg        TIMER_INT_FLAG_BRK:  break interrupt flag,TIMERx(x=0,7)
 473:C:/Users/49542/Desktop/GD32F30x_Demo_Suites_V2.0.0/GD32F30x_Demo_Suites_V2.0.0/GD32F30x_Firmware_Library/GD32F30x_standard_peripheral/Source\gd32f30x_timer.c ****     \param[out] none
 474:C:/Users/49542/Desktop/GD32F30x_Demo_Suites_V2.0.0/GD32F30x_Demo_Suites_V2.0.0/GD32F30x_Firmware_Library/GD32F30x_standard_peripheral/Source\gd32f30x_timer.c ****     \retval     FlagStatus: SET or RESET
 475:C:/Users/49542/Desktop/GD32F30x_Demo_Suites_V2.0.0/GD32F30x_Demo_Suites_V2.0.0/GD32F30x_Firmware_Library/GD32F30x_standard_peripheral/Source\gd32f30x_timer.c **** */
 476:C:/Users/49542/Desktop/GD32F30x_Demo_Suites_V2.0.0/GD32F30x_Demo_Suites_V2.0.0/GD32F30x_Firmware_Library/GD32F30x_standard_peripheral/Source\gd32f30x_timer.c **** FlagStatus timer_interrupt_flag_get(uint32_t timer_periph, uint32_t interrupt)
 477:C:/Users/49542/Desktop/GD32F30x_Demo_Suites_V2.0.0/GD32F30x_Demo_Suites_V2.0.0/GD32F30x_Firmware_Library/GD32F30x_standard_peripheral/Source\gd32f30x_timer.c **** {
 1536              		.loc 1 477 0
 1537              		.cfi_startproc
 1538              		@ args = 0, pretend = 0, frame = 16
 1539              		@ frame_needed = 1, uses_anonymous_args = 0
 1540              		@ link register save eliminated.
 1541 0000 80B4     		push	{r7}
 1542              	.LCFI131:
 1543              		.cfi_def_cfa_offset 4
 1544              		.cfi_offset 7, -4
 1545 0002 85B0     		sub	sp, sp, #20
 1546              	.LCFI132:
 1547              		.cfi_def_cfa_offset 24
 1548 0004 00AF     		add	r7, sp, #0
 1549              	.LCFI133:
 1550              		.cfi_def_cfa_register 7
 1551 0006 7860     		str	r0, [r7, #4]
 1552 0008 3960     		str	r1, [r7]
 478:C:/Users/49542/Desktop/GD32F30x_Demo_Suites_V2.0.0/GD32F30x_Demo_Suites_V2.0.0/GD32F30x_Firmware_Library/GD32F30x_standard_peripheral/Source\gd32f30x_timer.c ****     uint32_t val;
 479:C:/Users/49542/Desktop/GD32F30x_Demo_Suites_V2.0.0/GD32F30x_Demo_Suites_V2.0.0/GD32F30x_Firmware_Library/GD32F30x_standard_peripheral/Source\gd32f30x_timer.c ****     val = (TIMER_DMAINTEN(timer_periph) & interrupt);
 1553              		.loc 1 479 0
 1554 000a 7B68     		ldr	r3, [r7, #4]
 1555 000c 0C33     		adds	r3, r3, #12
 1556 000e 1B68     		ldr	r3, [r3]
 1557 0010 3A68     		ldr	r2, [r7]
 1558 0012 1340     		ands	r3, r3, r2
 1559 0014 FB60     		str	r3, [r7, #12]
 480:C:/Users/49542/Desktop/GD32F30x_Demo_Suites_V2.0.0/GD32F30x_Demo_Suites_V2.0.0/GD32F30x_Firmware_Library/GD32F30x_standard_peripheral/Source\gd32f30x_timer.c ****     if((RESET != (TIMER_INTF(timer_periph) & interrupt) ) && (RESET != val)){
 1560              		.loc 1 480 0
 1561 0016 7B68     		ldr	r3, [r7, #4]
 1562 0018 1033     		adds	r3, r3, #16
 1563 001a 1A68     		ldr	r2, [r3]
 1564 001c 3B68     		ldr	r3, [r7]
 1565 001e 1340     		ands	r3, r3, r2
 1566 0020 002B     		cmp	r3, #0
 1567 0022 04D0     		beq	.L62
 1568              		.loc 1 480 0 is_stmt 0 discriminator 1
ARM GAS  C:\Users\49542\AppData\Local\Temp\ccx6VnNU.s 			page 37


 1569 0024 FB68     		ldr	r3, [r7, #12]
 1570 0026 002B     		cmp	r3, #0
 1571 0028 01D0     		beq	.L62
 481:C:/Users/49542/Desktop/GD32F30x_Demo_Suites_V2.0.0/GD32F30x_Demo_Suites_V2.0.0/GD32F30x_Firmware_Library/GD32F30x_standard_peripheral/Source\gd32f30x_timer.c ****         return SET;
 1572              		.loc 1 481 0 is_stmt 1
 1573 002a 0123     		movs	r3, #1
 1574 002c 00E0     		b	.L63
 1575              	.L62:
 482:C:/Users/49542/Desktop/GD32F30x_Demo_Suites_V2.0.0/GD32F30x_Demo_Suites_V2.0.0/GD32F30x_Firmware_Library/GD32F30x_standard_peripheral/Source\gd32f30x_timer.c ****     }else{
 483:C:/Users/49542/Desktop/GD32F30x_Demo_Suites_V2.0.0/GD32F30x_Demo_Suites_V2.0.0/GD32F30x_Firmware_Library/GD32F30x_standard_peripheral/Source\gd32f30x_timer.c ****         return RESET;
 1576              		.loc 1 483 0
 1577 002e 0023     		movs	r3, #0
 1578              	.L63:
 484:C:/Users/49542/Desktop/GD32F30x_Demo_Suites_V2.0.0/GD32F30x_Demo_Suites_V2.0.0/GD32F30x_Firmware_Library/GD32F30x_standard_peripheral/Source\gd32f30x_timer.c ****     }
 485:C:/Users/49542/Desktop/GD32F30x_Demo_Suites_V2.0.0/GD32F30x_Demo_Suites_V2.0.0/GD32F30x_Firmware_Library/GD32F30x_standard_peripheral/Source\gd32f30x_timer.c **** }
 1579              		.loc 1 485 0
 1580 0030 1846     		mov	r0, r3
 1581 0032 1437     		adds	r7, r7, #20
 1582              	.LCFI134:
 1583              		.cfi_def_cfa_offset 4
 1584 0034 BD46     		mov	sp, r7
 1585              	.LCFI135:
 1586              		.cfi_def_cfa_register 13
 1587              		@ sp needed
 1588 0036 5DF8047B 		ldr	r7, [sp], #4
 1589              	.LCFI136:
 1590              		.cfi_restore 7
 1591              		.cfi_def_cfa_offset 0
 1592 003a 7047     		bx	lr
 1593              		.cfi_endproc
 1594              	.LFE138:
 1596              		.section	.text.timer_interrupt_flag_clear,"ax",%progbits
 1597              		.align	1
 1598              		.global	timer_interrupt_flag_clear
 1599              		.syntax unified
 1600              		.thumb
 1601              		.thumb_func
 1602              		.fpu fpv4-sp-d16
 1604              	timer_interrupt_flag_clear:
 1605              	.LFB139:
 486:C:/Users/49542/Desktop/GD32F30x_Demo_Suites_V2.0.0/GD32F30x_Demo_Suites_V2.0.0/GD32F30x_Firmware_Library/GD32F30x_standard_peripheral/Source\gd32f30x_timer.c **** 
 487:C:/Users/49542/Desktop/GD32F30x_Demo_Suites_V2.0.0/GD32F30x_Demo_Suites_V2.0.0/GD32F30x_Firmware_Library/GD32F30x_standard_peripheral/Source\gd32f30x_timer.c **** /*!
 488:C:/Users/49542/Desktop/GD32F30x_Demo_Suites_V2.0.0/GD32F30x_Demo_Suites_V2.0.0/GD32F30x_Firmware_Library/GD32F30x_standard_peripheral/Source\gd32f30x_timer.c ****     \brief      clear TIMER interrupt flag
 489:C:/Users/49542/Desktop/GD32F30x_Demo_Suites_V2.0.0/GD32F30x_Demo_Suites_V2.0.0/GD32F30x_Firmware_Library/GD32F30x_standard_peripheral/Source\gd32f30x_timer.c ****     \param[in]  timer_periph: please refer to the following parameters
 490:C:/Users/49542/Desktop/GD32F30x_Demo_Suites_V2.0.0/GD32F30x_Demo_Suites_V2.0.0/GD32F30x_Firmware_Library/GD32F30x_standard_peripheral/Source\gd32f30x_timer.c ****     \param[in]  interrupt: the timer interrupt bits
 491:C:/Users/49542/Desktop/GD32F30x_Demo_Suites_V2.0.0/GD32F30x_Demo_Suites_V2.0.0/GD32F30x_Firmware_Library/GD32F30x_standard_peripheral/Source\gd32f30x_timer.c ****                 only one parameter can be selected which is shown as below:
 492:C:/Users/49542/Desktop/GD32F30x_Demo_Suites_V2.0.0/GD32F30x_Demo_Suites_V2.0.0/GD32F30x_Firmware_Library/GD32F30x_standard_peripheral/Source\gd32f30x_timer.c ****       \arg        TIMER_INT_FLAG_UP: update interrupt flag,TIMERx(x=0..13)
 493:C:/Users/49542/Desktop/GD32F30x_Demo_Suites_V2.0.0/GD32F30x_Demo_Suites_V2.0.0/GD32F30x_Firmware_Library/GD32F30x_standard_peripheral/Source\gd32f30x_timer.c ****       \arg        TIMER_INT_FLAG_CH0: channel 0 interrupt flag,TIMERx(x=0..4,7..13)
 494:C:/Users/49542/Desktop/GD32F30x_Demo_Suites_V2.0.0/GD32F30x_Demo_Suites_V2.0.0/GD32F30x_Firmware_Library/GD32F30x_standard_peripheral/Source\gd32f30x_timer.c ****       \arg        TIMER_INT_FLAG_CH1: channel 1 interrupt flag,TIMERx(x=0..4,7,8,11)
 495:C:/Users/49542/Desktop/GD32F30x_Demo_Suites_V2.0.0/GD32F30x_Demo_Suites_V2.0.0/GD32F30x_Firmware_Library/GD32F30x_standard_peripheral/Source\gd32f30x_timer.c ****       \arg        TIMER_INT_FLAG_CH2: channel 2 interrupt flag,TIMERx(x=0..4,7)
 496:C:/Users/49542/Desktop/GD32F30x_Demo_Suites_V2.0.0/GD32F30x_Demo_Suites_V2.0.0/GD32F30x_Firmware_Library/GD32F30x_standard_peripheral/Source\gd32f30x_timer.c ****       \arg        TIMER_INT_FLAG_CH3: channel 3 interrupt flag,TIMERx(x=0..4,7)
 497:C:/Users/49542/Desktop/GD32F30x_Demo_Suites_V2.0.0/GD32F30x_Demo_Suites_V2.0.0/GD32F30x_Firmware_Library/GD32F30x_standard_peripheral/Source\gd32f30x_timer.c ****       \arg        TIMER_INT_FLAG_CMT: channel commutation interrupt flag,TIMERx(x=0,7) 
 498:C:/Users/49542/Desktop/GD32F30x_Demo_Suites_V2.0.0/GD32F30x_Demo_Suites_V2.0.0/GD32F30x_Firmware_Library/GD32F30x_standard_peripheral/Source\gd32f30x_timer.c ****       \arg        TIMER_INT_FLAG_TRG: trigger interrupt flag,TIMERx(x=0,7,8,11)
 499:C:/Users/49542/Desktop/GD32F30x_Demo_Suites_V2.0.0/GD32F30x_Demo_Suites_V2.0.0/GD32F30x_Firmware_Library/GD32F30x_standard_peripheral/Source\gd32f30x_timer.c ****       \arg        TIMER_INT_FLAG_BRK:  break interrupt flag,TIMERx(x=0,7)
 500:C:/Users/49542/Desktop/GD32F30x_Demo_Suites_V2.0.0/GD32F30x_Demo_Suites_V2.0.0/GD32F30x_Firmware_Library/GD32F30x_standard_peripheral/Source\gd32f30x_timer.c ****     \param[out] none
 501:C:/Users/49542/Desktop/GD32F30x_Demo_Suites_V2.0.0/GD32F30x_Demo_Suites_V2.0.0/GD32F30x_Firmware_Library/GD32F30x_standard_peripheral/Source\gd32f30x_timer.c ****     \retval     none
 502:C:/Users/49542/Desktop/GD32F30x_Demo_Suites_V2.0.0/GD32F30x_Demo_Suites_V2.0.0/GD32F30x_Firmware_Library/GD32F30x_standard_peripheral/Source\gd32f30x_timer.c **** */
ARM GAS  C:\Users\49542\AppData\Local\Temp\ccx6VnNU.s 			page 38


 503:C:/Users/49542/Desktop/GD32F30x_Demo_Suites_V2.0.0/GD32F30x_Demo_Suites_V2.0.0/GD32F30x_Firmware_Library/GD32F30x_standard_peripheral/Source\gd32f30x_timer.c **** void timer_interrupt_flag_clear(uint32_t timer_periph, uint32_t interrupt)
 504:C:/Users/49542/Desktop/GD32F30x_Demo_Suites_V2.0.0/GD32F30x_Demo_Suites_V2.0.0/GD32F30x_Firmware_Library/GD32F30x_standard_peripheral/Source\gd32f30x_timer.c **** {
 1606              		.loc 1 504 0
 1607              		.cfi_startproc
 1608              		@ args = 0, pretend = 0, frame = 8
 1609              		@ frame_needed = 1, uses_anonymous_args = 0
 1610              		@ link register save eliminated.
 1611 0000 80B4     		push	{r7}
 1612              	.LCFI137:
 1613              		.cfi_def_cfa_offset 4
 1614              		.cfi_offset 7, -4
 1615 0002 83B0     		sub	sp, sp, #12
 1616              	.LCFI138:
 1617              		.cfi_def_cfa_offset 16
 1618 0004 00AF     		add	r7, sp, #0
 1619              	.LCFI139:
 1620              		.cfi_def_cfa_register 7
 1621 0006 7860     		str	r0, [r7, #4]
 1622 0008 3960     		str	r1, [r7]
 505:C:/Users/49542/Desktop/GD32F30x_Demo_Suites_V2.0.0/GD32F30x_Demo_Suites_V2.0.0/GD32F30x_Firmware_Library/GD32F30x_standard_peripheral/Source\gd32f30x_timer.c ****     TIMER_INTF(timer_periph) &= (~(uint32_t)interrupt);
 1623              		.loc 1 505 0
 1624 000a 7B68     		ldr	r3, [r7, #4]
 1625 000c 1033     		adds	r3, r3, #16
 1626 000e 1A68     		ldr	r2, [r3]
 1627 0010 3B68     		ldr	r3, [r7]
 1628 0012 DB43     		mvns	r3, r3
 1629 0014 7968     		ldr	r1, [r7, #4]
 1630 0016 1031     		adds	r1, r1, #16
 1631 0018 1340     		ands	r3, r3, r2
 1632 001a 0B60     		str	r3, [r1]
 506:C:/Users/49542/Desktop/GD32F30x_Demo_Suites_V2.0.0/GD32F30x_Demo_Suites_V2.0.0/GD32F30x_Firmware_Library/GD32F30x_standard_peripheral/Source\gd32f30x_timer.c **** }
 1633              		.loc 1 506 0
 1634 001c 00BF     		nop
 1635 001e 0C37     		adds	r7, r7, #12
 1636              	.LCFI140:
 1637              		.cfi_def_cfa_offset 4
 1638 0020 BD46     		mov	sp, r7
 1639              	.LCFI141:
 1640              		.cfi_def_cfa_register 13
 1641              		@ sp needed
 1642 0022 5DF8047B 		ldr	r7, [sp], #4
 1643              	.LCFI142:
 1644              		.cfi_restore 7
 1645              		.cfi_def_cfa_offset 0
 1646 0026 7047     		bx	lr
 1647              		.cfi_endproc
 1648              	.LFE139:
 1650              		.section	.text.timer_flag_get,"ax",%progbits
 1651              		.align	1
 1652              		.global	timer_flag_get
 1653              		.syntax unified
 1654              		.thumb
 1655              		.thumb_func
 1656              		.fpu fpv4-sp-d16
 1658              	timer_flag_get:
 1659              	.LFB140:
 507:C:/Users/49542/Desktop/GD32F30x_Demo_Suites_V2.0.0/GD32F30x_Demo_Suites_V2.0.0/GD32F30x_Firmware_Library/GD32F30x_standard_peripheral/Source\gd32f30x_timer.c **** 
ARM GAS  C:\Users\49542\AppData\Local\Temp\ccx6VnNU.s 			page 39


 508:C:/Users/49542/Desktop/GD32F30x_Demo_Suites_V2.0.0/GD32F30x_Demo_Suites_V2.0.0/GD32F30x_Firmware_Library/GD32F30x_standard_peripheral/Source\gd32f30x_timer.c **** /*!
 509:C:/Users/49542/Desktop/GD32F30x_Demo_Suites_V2.0.0/GD32F30x_Demo_Suites_V2.0.0/GD32F30x_Firmware_Library/GD32F30x_standard_peripheral/Source\gd32f30x_timer.c ****     \brief      get TIMER flags
 510:C:/Users/49542/Desktop/GD32F30x_Demo_Suites_V2.0.0/GD32F30x_Demo_Suites_V2.0.0/GD32F30x_Firmware_Library/GD32F30x_standard_peripheral/Source\gd32f30x_timer.c ****     \param[in]  timer_periph: please refer to the following parameters
 511:C:/Users/49542/Desktop/GD32F30x_Demo_Suites_V2.0.0/GD32F30x_Demo_Suites_V2.0.0/GD32F30x_Firmware_Library/GD32F30x_standard_peripheral/Source\gd32f30x_timer.c ****     \param[in]  flag: the timer interrupt flags
 512:C:/Users/49542/Desktop/GD32F30x_Demo_Suites_V2.0.0/GD32F30x_Demo_Suites_V2.0.0/GD32F30x_Firmware_Library/GD32F30x_standard_peripheral/Source\gd32f30x_timer.c ****                 only one parameter can be selected which is shown as below:
 513:C:/Users/49542/Desktop/GD32F30x_Demo_Suites_V2.0.0/GD32F30x_Demo_Suites_V2.0.0/GD32F30x_Firmware_Library/GD32F30x_standard_peripheral/Source\gd32f30x_timer.c ****       \arg        TIMER_FLAG_UP: update flag,TIMERx(x=0..13)
 514:C:/Users/49542/Desktop/GD32F30x_Demo_Suites_V2.0.0/GD32F30x_Demo_Suites_V2.0.0/GD32F30x_Firmware_Library/GD32F30x_standard_peripheral/Source\gd32f30x_timer.c ****       \arg        TIMER_FLAG_CH0: channel 0 flag,TIMERx(x=0..4,7..13)
 515:C:/Users/49542/Desktop/GD32F30x_Demo_Suites_V2.0.0/GD32F30x_Demo_Suites_V2.0.0/GD32F30x_Firmware_Library/GD32F30x_standard_peripheral/Source\gd32f30x_timer.c ****       \arg        TIMER_FLAG_CH1: channel 1 flag,TIMERx(x=0..4,7,8,11)
 516:C:/Users/49542/Desktop/GD32F30x_Demo_Suites_V2.0.0/GD32F30x_Demo_Suites_V2.0.0/GD32F30x_Firmware_Library/GD32F30x_standard_peripheral/Source\gd32f30x_timer.c ****       \arg        TIMER_FLAG_CH2: channel 2 flag,TIMERx(x=0..4,7)
 517:C:/Users/49542/Desktop/GD32F30x_Demo_Suites_V2.0.0/GD32F30x_Demo_Suites_V2.0.0/GD32F30x_Firmware_Library/GD32F30x_standard_peripheral/Source\gd32f30x_timer.c ****       \arg        TIMER_FLAG_CH3: channel 3 flag,TIMERx(x=0..4,7)
 518:C:/Users/49542/Desktop/GD32F30x_Demo_Suites_V2.0.0/GD32F30x_Demo_Suites_V2.0.0/GD32F30x_Firmware_Library/GD32F30x_standard_peripheral/Source\gd32f30x_timer.c ****       \arg        TIMER_FLAG_CMT: channel control update flag,TIMERx(x=0,7) 
 519:C:/Users/49542/Desktop/GD32F30x_Demo_Suites_V2.0.0/GD32F30x_Demo_Suites_V2.0.0/GD32F30x_Firmware_Library/GD32F30x_standard_peripheral/Source\gd32f30x_timer.c ****       \arg        TIMER_FLAG_TRG: trigger flag,TIMERx(x=0,7,8,11) 
 520:C:/Users/49542/Desktop/GD32F30x_Demo_Suites_V2.0.0/GD32F30x_Demo_Suites_V2.0.0/GD32F30x_Firmware_Library/GD32F30x_standard_peripheral/Source\gd32f30x_timer.c ****       \arg        TIMER_FLAG_BRK: break flag,TIMERx(x=0,7)
 521:C:/Users/49542/Desktop/GD32F30x_Demo_Suites_V2.0.0/GD32F30x_Demo_Suites_V2.0.0/GD32F30x_Firmware_Library/GD32F30x_standard_peripheral/Source\gd32f30x_timer.c ****       \arg        TIMER_FLAG_CH0O: channel 0 overcapture flag,TIMERx(x=0..4,7..11)
 522:C:/Users/49542/Desktop/GD32F30x_Demo_Suites_V2.0.0/GD32F30x_Demo_Suites_V2.0.0/GD32F30x_Firmware_Library/GD32F30x_standard_peripheral/Source\gd32f30x_timer.c ****       \arg        TIMER_FLAG_CH1O: channel 1 overcapture flag,TIMERx(x=0..4,7,8,11)
 523:C:/Users/49542/Desktop/GD32F30x_Demo_Suites_V2.0.0/GD32F30x_Demo_Suites_V2.0.0/GD32F30x_Firmware_Library/GD32F30x_standard_peripheral/Source\gd32f30x_timer.c ****       \arg        TIMER_FLAG_CH2O: channel 2 overcapture flag,TIMERx(x=0..4,7)
 524:C:/Users/49542/Desktop/GD32F30x_Demo_Suites_V2.0.0/GD32F30x_Demo_Suites_V2.0.0/GD32F30x_Firmware_Library/GD32F30x_standard_peripheral/Source\gd32f30x_timer.c ****       \arg        TIMER_FLAG_CH3O: channel 3 overcapture flag,TIMERx(x=0..4,7)
 525:C:/Users/49542/Desktop/GD32F30x_Demo_Suites_V2.0.0/GD32F30x_Demo_Suites_V2.0.0/GD32F30x_Firmware_Library/GD32F30x_standard_peripheral/Source\gd32f30x_timer.c ****     \param[out] none
 526:C:/Users/49542/Desktop/GD32F30x_Demo_Suites_V2.0.0/GD32F30x_Demo_Suites_V2.0.0/GD32F30x_Firmware_Library/GD32F30x_standard_peripheral/Source\gd32f30x_timer.c ****     \retval     FlagStatus: SET or RESET
 527:C:/Users/49542/Desktop/GD32F30x_Demo_Suites_V2.0.0/GD32F30x_Demo_Suites_V2.0.0/GD32F30x_Firmware_Library/GD32F30x_standard_peripheral/Source\gd32f30x_timer.c **** */
 528:C:/Users/49542/Desktop/GD32F30x_Demo_Suites_V2.0.0/GD32F30x_Demo_Suites_V2.0.0/GD32F30x_Firmware_Library/GD32F30x_standard_peripheral/Source\gd32f30x_timer.c **** FlagStatus timer_flag_get(uint32_t timer_periph, uint32_t flag)
 529:C:/Users/49542/Desktop/GD32F30x_Demo_Suites_V2.0.0/GD32F30x_Demo_Suites_V2.0.0/GD32F30x_Firmware_Library/GD32F30x_standard_peripheral/Source\gd32f30x_timer.c **** {
 1660              		.loc 1 529 0
 1661              		.cfi_startproc
 1662              		@ args = 0, pretend = 0, frame = 8
 1663              		@ frame_needed = 1, uses_anonymous_args = 0
 1664              		@ link register save eliminated.
 1665 0000 80B4     		push	{r7}
 1666              	.LCFI143:
 1667              		.cfi_def_cfa_offset 4
 1668              		.cfi_offset 7, -4
 1669 0002 83B0     		sub	sp, sp, #12
 1670              	.LCFI144:
 1671              		.cfi_def_cfa_offset 16
 1672 0004 00AF     		add	r7, sp, #0
 1673              	.LCFI145:
 1674              		.cfi_def_cfa_register 7
 1675 0006 7860     		str	r0, [r7, #4]
 1676 0008 3960     		str	r1, [r7]
 530:C:/Users/49542/Desktop/GD32F30x_Demo_Suites_V2.0.0/GD32F30x_Demo_Suites_V2.0.0/GD32F30x_Firmware_Library/GD32F30x_standard_peripheral/Source\gd32f30x_timer.c ****     if(RESET != (TIMER_INTF(timer_periph) & flag)){
 1677              		.loc 1 530 0
 1678 000a 7B68     		ldr	r3, [r7, #4]
 1679 000c 1033     		adds	r3, r3, #16
 1680 000e 1A68     		ldr	r2, [r3]
 1681 0010 3B68     		ldr	r3, [r7]
 1682 0012 1340     		ands	r3, r3, r2
 1683 0014 002B     		cmp	r3, #0
 1684 0016 01D0     		beq	.L66
 531:C:/Users/49542/Desktop/GD32F30x_Demo_Suites_V2.0.0/GD32F30x_Demo_Suites_V2.0.0/GD32F30x_Firmware_Library/GD32F30x_standard_peripheral/Source\gd32f30x_timer.c ****         return SET;
 1685              		.loc 1 531 0
 1686 0018 0123     		movs	r3, #1
 1687 001a 00E0     		b	.L67
 1688              	.L66:
 532:C:/Users/49542/Desktop/GD32F30x_Demo_Suites_V2.0.0/GD32F30x_Demo_Suites_V2.0.0/GD32F30x_Firmware_Library/GD32F30x_standard_peripheral/Source\gd32f30x_timer.c ****     }else{
 533:C:/Users/49542/Desktop/GD32F30x_Demo_Suites_V2.0.0/GD32F30x_Demo_Suites_V2.0.0/GD32F30x_Firmware_Library/GD32F30x_standard_peripheral/Source\gd32f30x_timer.c ****         return RESET;
 1689              		.loc 1 533 0
 1690 001c 0023     		movs	r3, #0
ARM GAS  C:\Users\49542\AppData\Local\Temp\ccx6VnNU.s 			page 40


 1691              	.L67:
 534:C:/Users/49542/Desktop/GD32F30x_Demo_Suites_V2.0.0/GD32F30x_Demo_Suites_V2.0.0/GD32F30x_Firmware_Library/GD32F30x_standard_peripheral/Source\gd32f30x_timer.c ****     }
 535:C:/Users/49542/Desktop/GD32F30x_Demo_Suites_V2.0.0/GD32F30x_Demo_Suites_V2.0.0/GD32F30x_Firmware_Library/GD32F30x_standard_peripheral/Source\gd32f30x_timer.c **** }
 1692              		.loc 1 535 0
 1693 001e 1846     		mov	r0, r3
 1694 0020 0C37     		adds	r7, r7, #12
 1695              	.LCFI146:
 1696              		.cfi_def_cfa_offset 4
 1697 0022 BD46     		mov	sp, r7
 1698              	.LCFI147:
 1699              		.cfi_def_cfa_register 13
 1700              		@ sp needed
 1701 0024 5DF8047B 		ldr	r7, [sp], #4
 1702              	.LCFI148:
 1703              		.cfi_restore 7
 1704              		.cfi_def_cfa_offset 0
 1705 0028 7047     		bx	lr
 1706              		.cfi_endproc
 1707              	.LFE140:
 1709              		.section	.text.timer_flag_clear,"ax",%progbits
 1710              		.align	1
 1711              		.global	timer_flag_clear
 1712              		.syntax unified
 1713              		.thumb
 1714              		.thumb_func
 1715              		.fpu fpv4-sp-d16
 1717              	timer_flag_clear:
 1718              	.LFB141:
 536:C:/Users/49542/Desktop/GD32F30x_Demo_Suites_V2.0.0/GD32F30x_Demo_Suites_V2.0.0/GD32F30x_Firmware_Library/GD32F30x_standard_peripheral/Source\gd32f30x_timer.c **** 
 537:C:/Users/49542/Desktop/GD32F30x_Demo_Suites_V2.0.0/GD32F30x_Demo_Suites_V2.0.0/GD32F30x_Firmware_Library/GD32F30x_standard_peripheral/Source\gd32f30x_timer.c **** /*!
 538:C:/Users/49542/Desktop/GD32F30x_Demo_Suites_V2.0.0/GD32F30x_Demo_Suites_V2.0.0/GD32F30x_Firmware_Library/GD32F30x_standard_peripheral/Source\gd32f30x_timer.c ****     \brief      clear TIMER flags
 539:C:/Users/49542/Desktop/GD32F30x_Demo_Suites_V2.0.0/GD32F30x_Demo_Suites_V2.0.0/GD32F30x_Firmware_Library/GD32F30x_standard_peripheral/Source\gd32f30x_timer.c ****     \param[in]  timer_periph: please refer to the following parameters
 540:C:/Users/49542/Desktop/GD32F30x_Demo_Suites_V2.0.0/GD32F30x_Demo_Suites_V2.0.0/GD32F30x_Firmware_Library/GD32F30x_standard_peripheral/Source\gd32f30x_timer.c ****     \param[in]  flag: the timer interrupt flags
 541:C:/Users/49542/Desktop/GD32F30x_Demo_Suites_V2.0.0/GD32F30x_Demo_Suites_V2.0.0/GD32F30x_Firmware_Library/GD32F30x_standard_peripheral/Source\gd32f30x_timer.c ****                 only one parameter can be selected which is shown as below:
 542:C:/Users/49542/Desktop/GD32F30x_Demo_Suites_V2.0.0/GD32F30x_Demo_Suites_V2.0.0/GD32F30x_Firmware_Library/GD32F30x_standard_peripheral/Source\gd32f30x_timer.c ****       \arg        TIMER_FLAG_UP: update flag,TIMERx(x=0..13)
 543:C:/Users/49542/Desktop/GD32F30x_Demo_Suites_V2.0.0/GD32F30x_Demo_Suites_V2.0.0/GD32F30x_Firmware_Library/GD32F30x_standard_peripheral/Source\gd32f30x_timer.c ****       \arg        TIMER_FLAG_CH0: channel 0 flag,TIMERx(x=0..4,7..13)
 544:C:/Users/49542/Desktop/GD32F30x_Demo_Suites_V2.0.0/GD32F30x_Demo_Suites_V2.0.0/GD32F30x_Firmware_Library/GD32F30x_standard_peripheral/Source\gd32f30x_timer.c ****       \arg        TIMER_FLAG_CH1: channel 1 flag,TIMERx(x=0..4,7,8,11)
 545:C:/Users/49542/Desktop/GD32F30x_Demo_Suites_V2.0.0/GD32F30x_Demo_Suites_V2.0.0/GD32F30x_Firmware_Library/GD32F30x_standard_peripheral/Source\gd32f30x_timer.c ****       \arg        TIMER_FLAG_CH2: channel 2 flag,TIMERx(x=0..4,7)
 546:C:/Users/49542/Desktop/GD32F30x_Demo_Suites_V2.0.0/GD32F30x_Demo_Suites_V2.0.0/GD32F30x_Firmware_Library/GD32F30x_standard_peripheral/Source\gd32f30x_timer.c ****       \arg        TIMER_FLAG_CH3: channel 3 flag,TIMERx(x=0..4,7)
 547:C:/Users/49542/Desktop/GD32F30x_Demo_Suites_V2.0.0/GD32F30x_Demo_Suites_V2.0.0/GD32F30x_Firmware_Library/GD32F30x_standard_peripheral/Source\gd32f30x_timer.c ****       \arg        TIMER_FLAG_CMT: channel control update flag,TIMERx(x=0,7) 
 548:C:/Users/49542/Desktop/GD32F30x_Demo_Suites_V2.0.0/GD32F30x_Demo_Suites_V2.0.0/GD32F30x_Firmware_Library/GD32F30x_standard_peripheral/Source\gd32f30x_timer.c ****       \arg        TIMER_FLAG_TRG: trigger flag,TIMERx(x=0,7,8,11) 
 549:C:/Users/49542/Desktop/GD32F30x_Demo_Suites_V2.0.0/GD32F30x_Demo_Suites_V2.0.0/GD32F30x_Firmware_Library/GD32F30x_standard_peripheral/Source\gd32f30x_timer.c ****       \arg        TIMER_FLAG_BRK: break flag,TIMERx(x=0,7)
 550:C:/Users/49542/Desktop/GD32F30x_Demo_Suites_V2.0.0/GD32F30x_Demo_Suites_V2.0.0/GD32F30x_Firmware_Library/GD32F30x_standard_peripheral/Source\gd32f30x_timer.c ****       \arg        TIMER_FLAG_CH0O: channel 0 overcapture flag,TIMERx(x=0..4,7..11)
 551:C:/Users/49542/Desktop/GD32F30x_Demo_Suites_V2.0.0/GD32F30x_Demo_Suites_V2.0.0/GD32F30x_Firmware_Library/GD32F30x_standard_peripheral/Source\gd32f30x_timer.c ****       \arg        TIMER_FLAG_CH1O: channel 1 overcapture flag,TIMERx(x=0..4,7,8,11)
 552:C:/Users/49542/Desktop/GD32F30x_Demo_Suites_V2.0.0/GD32F30x_Demo_Suites_V2.0.0/GD32F30x_Firmware_Library/GD32F30x_standard_peripheral/Source\gd32f30x_timer.c ****       \arg        TIMER_FLAG_CH2O: channel 2 overcapture flag,TIMERx(x=0..4,7)
 553:C:/Users/49542/Desktop/GD32F30x_Demo_Suites_V2.0.0/GD32F30x_Demo_Suites_V2.0.0/GD32F30x_Firmware_Library/GD32F30x_standard_peripheral/Source\gd32f30x_timer.c ****       \arg        TIMER_FLAG_CH3O: channel 3 overcapture flag,TIMERx(x=0..4,7)
 554:C:/Users/49542/Desktop/GD32F30x_Demo_Suites_V2.0.0/GD32F30x_Demo_Suites_V2.0.0/GD32F30x_Firmware_Library/GD32F30x_standard_peripheral/Source\gd32f30x_timer.c ****     \param[out] none
 555:C:/Users/49542/Desktop/GD32F30x_Demo_Suites_V2.0.0/GD32F30x_Demo_Suites_V2.0.0/GD32F30x_Firmware_Library/GD32F30x_standard_peripheral/Source\gd32f30x_timer.c ****     \retval     none
 556:C:/Users/49542/Desktop/GD32F30x_Demo_Suites_V2.0.0/GD32F30x_Demo_Suites_V2.0.0/GD32F30x_Firmware_Library/GD32F30x_standard_peripheral/Source\gd32f30x_timer.c **** */
 557:C:/Users/49542/Desktop/GD32F30x_Demo_Suites_V2.0.0/GD32F30x_Demo_Suites_V2.0.0/GD32F30x_Firmware_Library/GD32F30x_standard_peripheral/Source\gd32f30x_timer.c **** void timer_flag_clear(uint32_t timer_periph, uint32_t flag)
 558:C:/Users/49542/Desktop/GD32F30x_Demo_Suites_V2.0.0/GD32F30x_Demo_Suites_V2.0.0/GD32F30x_Firmware_Library/GD32F30x_standard_peripheral/Source\gd32f30x_timer.c **** {
 1719              		.loc 1 558 0
 1720              		.cfi_startproc
 1721              		@ args = 0, pretend = 0, frame = 8
 1722              		@ frame_needed = 1, uses_anonymous_args = 0
 1723              		@ link register save eliminated.
 1724 0000 80B4     		push	{r7}
ARM GAS  C:\Users\49542\AppData\Local\Temp\ccx6VnNU.s 			page 41


 1725              	.LCFI149:
 1726              		.cfi_def_cfa_offset 4
 1727              		.cfi_offset 7, -4
 1728 0002 83B0     		sub	sp, sp, #12
 1729              	.LCFI150:
 1730              		.cfi_def_cfa_offset 16
 1731 0004 00AF     		add	r7, sp, #0
 1732              	.LCFI151:
 1733              		.cfi_def_cfa_register 7
 1734 0006 7860     		str	r0, [r7, #4]
 1735 0008 3960     		str	r1, [r7]
 559:C:/Users/49542/Desktop/GD32F30x_Demo_Suites_V2.0.0/GD32F30x_Demo_Suites_V2.0.0/GD32F30x_Firmware_Library/GD32F30x_standard_peripheral/Source\gd32f30x_timer.c ****     TIMER_INTF(timer_periph) &= (~(uint32_t)flag);
 1736              		.loc 1 559 0
 1737 000a 7B68     		ldr	r3, [r7, #4]
 1738 000c 1033     		adds	r3, r3, #16
 1739 000e 1A68     		ldr	r2, [r3]
 1740 0010 3B68     		ldr	r3, [r7]
 1741 0012 DB43     		mvns	r3, r3
 1742 0014 7968     		ldr	r1, [r7, #4]
 1743 0016 1031     		adds	r1, r1, #16
 1744 0018 1340     		ands	r3, r3, r2
 1745 001a 0B60     		str	r3, [r1]
 560:C:/Users/49542/Desktop/GD32F30x_Demo_Suites_V2.0.0/GD32F30x_Demo_Suites_V2.0.0/GD32F30x_Firmware_Library/GD32F30x_standard_peripheral/Source\gd32f30x_timer.c **** }
 1746              		.loc 1 560 0
 1747 001c 00BF     		nop
 1748 001e 0C37     		adds	r7, r7, #12
 1749              	.LCFI152:
 1750              		.cfi_def_cfa_offset 4
 1751 0020 BD46     		mov	sp, r7
 1752              	.LCFI153:
 1753              		.cfi_def_cfa_register 13
 1754              		@ sp needed
 1755 0022 5DF8047B 		ldr	r7, [sp], #4
 1756              	.LCFI154:
 1757              		.cfi_restore 7
 1758              		.cfi_def_cfa_offset 0
 1759 0026 7047     		bx	lr
 1760              		.cfi_endproc
 1761              	.LFE141:
 1763              		.section	.text.timer_dma_enable,"ax",%progbits
 1764              		.align	1
 1765              		.global	timer_dma_enable
 1766              		.syntax unified
 1767              		.thumb
 1768              		.thumb_func
 1769              		.fpu fpv4-sp-d16
 1771              	timer_dma_enable:
 1772              	.LFB142:
 561:C:/Users/49542/Desktop/GD32F30x_Demo_Suites_V2.0.0/GD32F30x_Demo_Suites_V2.0.0/GD32F30x_Firmware_Library/GD32F30x_standard_peripheral/Source\gd32f30x_timer.c **** 
 562:C:/Users/49542/Desktop/GD32F30x_Demo_Suites_V2.0.0/GD32F30x_Demo_Suites_V2.0.0/GD32F30x_Firmware_Library/GD32F30x_standard_peripheral/Source\gd32f30x_timer.c **** /*!
 563:C:/Users/49542/Desktop/GD32F30x_Demo_Suites_V2.0.0/GD32F30x_Demo_Suites_V2.0.0/GD32F30x_Firmware_Library/GD32F30x_standard_peripheral/Source\gd32f30x_timer.c ****     \brief      enable the TIMER DMA
 564:C:/Users/49542/Desktop/GD32F30x_Demo_Suites_V2.0.0/GD32F30x_Demo_Suites_V2.0.0/GD32F30x_Firmware_Library/GD32F30x_standard_peripheral/Source\gd32f30x_timer.c ****     \param[in]  timer_periph: please refer to the following parameters
 565:C:/Users/49542/Desktop/GD32F30x_Demo_Suites_V2.0.0/GD32F30x_Demo_Suites_V2.0.0/GD32F30x_Firmware_Library/GD32F30x_standard_peripheral/Source\gd32f30x_timer.c ****     \param[in]  dma: specify which DMA to enable
 566:C:/Users/49542/Desktop/GD32F30x_Demo_Suites_V2.0.0/GD32F30x_Demo_Suites_V2.0.0/GD32F30x_Firmware_Library/GD32F30x_standard_peripheral/Source\gd32f30x_timer.c ****                 only one parameter can be selected which is shown as below:
 567:C:/Users/49542/Desktop/GD32F30x_Demo_Suites_V2.0.0/GD32F30x_Demo_Suites_V2.0.0/GD32F30x_Firmware_Library/GD32F30x_standard_peripheral/Source\gd32f30x_timer.c ****       \arg        TIMER_DMA_UPD:  update DMA enable,TIMERx(x=0..7)
 568:C:/Users/49542/Desktop/GD32F30x_Demo_Suites_V2.0.0/GD32F30x_Demo_Suites_V2.0.0/GD32F30x_Firmware_Library/GD32F30x_standard_peripheral/Source\gd32f30x_timer.c ****       \arg        TIMER_DMA_CH0D: channel 0 DMA enable,TIMERx(x=0..4,7)
 569:C:/Users/49542/Desktop/GD32F30x_Demo_Suites_V2.0.0/GD32F30x_Demo_Suites_V2.0.0/GD32F30x_Firmware_Library/GD32F30x_standard_peripheral/Source\gd32f30x_timer.c ****       \arg        TIMER_DMA_CH1D: channel 1 DMA enable,TIMERx(x=0..4,7)
ARM GAS  C:\Users\49542\AppData\Local\Temp\ccx6VnNU.s 			page 42


 570:C:/Users/49542/Desktop/GD32F30x_Demo_Suites_V2.0.0/GD32F30x_Demo_Suites_V2.0.0/GD32F30x_Firmware_Library/GD32F30x_standard_peripheral/Source\gd32f30x_timer.c ****       \arg        TIMER_DMA_CH2D: channel 2 DMA enable,TIMERx(x=0..4,7)
 571:C:/Users/49542/Desktop/GD32F30x_Demo_Suites_V2.0.0/GD32F30x_Demo_Suites_V2.0.0/GD32F30x_Firmware_Library/GD32F30x_standard_peripheral/Source\gd32f30x_timer.c ****       \arg        TIMER_DMA_CH3D: channel 3 DMA enable,TIMERx(x=0..4,7)
 572:C:/Users/49542/Desktop/GD32F30x_Demo_Suites_V2.0.0/GD32F30x_Demo_Suites_V2.0.0/GD32F30x_Firmware_Library/GD32F30x_standard_peripheral/Source\gd32f30x_timer.c ****       \arg        TIMER_DMA_CMTD: commutation DMA request enable,TIMERx(x=0,7)
 573:C:/Users/49542/Desktop/GD32F30x_Demo_Suites_V2.0.0/GD32F30x_Demo_Suites_V2.0.0/GD32F30x_Firmware_Library/GD32F30x_standard_peripheral/Source\gd32f30x_timer.c ****       \arg        TIMER_DMA_TRGD: trigger DMA enable,TIMERx(x=0..4,7)
 574:C:/Users/49542/Desktop/GD32F30x_Demo_Suites_V2.0.0/GD32F30x_Demo_Suites_V2.0.0/GD32F30x_Firmware_Library/GD32F30x_standard_peripheral/Source\gd32f30x_timer.c ****     \param[out] none
 575:C:/Users/49542/Desktop/GD32F30x_Demo_Suites_V2.0.0/GD32F30x_Demo_Suites_V2.0.0/GD32F30x_Firmware_Library/GD32F30x_standard_peripheral/Source\gd32f30x_timer.c ****     \retval     none
 576:C:/Users/49542/Desktop/GD32F30x_Demo_Suites_V2.0.0/GD32F30x_Demo_Suites_V2.0.0/GD32F30x_Firmware_Library/GD32F30x_standard_peripheral/Source\gd32f30x_timer.c **** */
 577:C:/Users/49542/Desktop/GD32F30x_Demo_Suites_V2.0.0/GD32F30x_Demo_Suites_V2.0.0/GD32F30x_Firmware_Library/GD32F30x_standard_peripheral/Source\gd32f30x_timer.c **** void timer_dma_enable(uint32_t timer_periph, uint16_t dma)
 578:C:/Users/49542/Desktop/GD32F30x_Demo_Suites_V2.0.0/GD32F30x_Demo_Suites_V2.0.0/GD32F30x_Firmware_Library/GD32F30x_standard_peripheral/Source\gd32f30x_timer.c **** {
 1773              		.loc 1 578 0
 1774              		.cfi_startproc
 1775              		@ args = 0, pretend = 0, frame = 8
 1776              		@ frame_needed = 1, uses_anonymous_args = 0
 1777              		@ link register save eliminated.
 1778 0000 80B4     		push	{r7}
 1779              	.LCFI155:
 1780              		.cfi_def_cfa_offset 4
 1781              		.cfi_offset 7, -4
 1782 0002 83B0     		sub	sp, sp, #12
 1783              	.LCFI156:
 1784              		.cfi_def_cfa_offset 16
 1785 0004 00AF     		add	r7, sp, #0
 1786              	.LCFI157:
 1787              		.cfi_def_cfa_register 7
 1788 0006 7860     		str	r0, [r7, #4]
 1789 0008 0B46     		mov	r3, r1
 1790 000a 7B80     		strh	r3, [r7, #2]	@ movhi
 579:C:/Users/49542/Desktop/GD32F30x_Demo_Suites_V2.0.0/GD32F30x_Demo_Suites_V2.0.0/GD32F30x_Firmware_Library/GD32F30x_standard_peripheral/Source\gd32f30x_timer.c ****     TIMER_DMAINTEN(timer_periph) |= (uint32_t) dma; 
 1791              		.loc 1 579 0
 1792 000c 7B68     		ldr	r3, [r7, #4]
 1793 000e 0C33     		adds	r3, r3, #12
 1794 0010 1A68     		ldr	r2, [r3]
 1795 0012 7B88     		ldrh	r3, [r7, #2]
 1796 0014 7968     		ldr	r1, [r7, #4]
 1797 0016 0C31     		adds	r1, r1, #12
 1798 0018 1343     		orrs	r3, r3, r2
 1799 001a 0B60     		str	r3, [r1]
 580:C:/Users/49542/Desktop/GD32F30x_Demo_Suites_V2.0.0/GD32F30x_Demo_Suites_V2.0.0/GD32F30x_Firmware_Library/GD32F30x_standard_peripheral/Source\gd32f30x_timer.c **** }
 1800              		.loc 1 580 0
 1801 001c 00BF     		nop
 1802 001e 0C37     		adds	r7, r7, #12
 1803              	.LCFI158:
 1804              		.cfi_def_cfa_offset 4
 1805 0020 BD46     		mov	sp, r7
 1806              	.LCFI159:
 1807              		.cfi_def_cfa_register 13
 1808              		@ sp needed
 1809 0022 5DF8047B 		ldr	r7, [sp], #4
 1810              	.LCFI160:
 1811              		.cfi_restore 7
 1812              		.cfi_def_cfa_offset 0
 1813 0026 7047     		bx	lr
 1814              		.cfi_endproc
 1815              	.LFE142:
 1817              		.section	.text.timer_dma_disable,"ax",%progbits
 1818              		.align	1
 1819              		.global	timer_dma_disable
ARM GAS  C:\Users\49542\AppData\Local\Temp\ccx6VnNU.s 			page 43


 1820              		.syntax unified
 1821              		.thumb
 1822              		.thumb_func
 1823              		.fpu fpv4-sp-d16
 1825              	timer_dma_disable:
 1826              	.LFB143:
 581:C:/Users/49542/Desktop/GD32F30x_Demo_Suites_V2.0.0/GD32F30x_Demo_Suites_V2.0.0/GD32F30x_Firmware_Library/GD32F30x_standard_peripheral/Source\gd32f30x_timer.c **** 
 582:C:/Users/49542/Desktop/GD32F30x_Demo_Suites_V2.0.0/GD32F30x_Demo_Suites_V2.0.0/GD32F30x_Firmware_Library/GD32F30x_standard_peripheral/Source\gd32f30x_timer.c **** /*!
 583:C:/Users/49542/Desktop/GD32F30x_Demo_Suites_V2.0.0/GD32F30x_Demo_Suites_V2.0.0/GD32F30x_Firmware_Library/GD32F30x_standard_peripheral/Source\gd32f30x_timer.c ****     \brief      disable the TIMER DMA
 584:C:/Users/49542/Desktop/GD32F30x_Demo_Suites_V2.0.0/GD32F30x_Demo_Suites_V2.0.0/GD32F30x_Firmware_Library/GD32F30x_standard_peripheral/Source\gd32f30x_timer.c ****     \param[in]  timer_periph: please refer to the following parameters
 585:C:/Users/49542/Desktop/GD32F30x_Demo_Suites_V2.0.0/GD32F30x_Demo_Suites_V2.0.0/GD32F30x_Firmware_Library/GD32F30x_standard_peripheral/Source\gd32f30x_timer.c ****     \param[in]  dma: specify which DMA to enable
 586:C:/Users/49542/Desktop/GD32F30x_Demo_Suites_V2.0.0/GD32F30x_Demo_Suites_V2.0.0/GD32F30x_Firmware_Library/GD32F30x_standard_peripheral/Source\gd32f30x_timer.c ****                 one or more parameters can be selected which are shown as below:
 587:C:/Users/49542/Desktop/GD32F30x_Demo_Suites_V2.0.0/GD32F30x_Demo_Suites_V2.0.0/GD32F30x_Firmware_Library/GD32F30x_standard_peripheral/Source\gd32f30x_timer.c ****       \arg        TIMER_DMA_UPD:  update DMA ,TIMERx(x=0..7)
 588:C:/Users/49542/Desktop/GD32F30x_Demo_Suites_V2.0.0/GD32F30x_Demo_Suites_V2.0.0/GD32F30x_Firmware_Library/GD32F30x_standard_peripheral/Source\gd32f30x_timer.c ****       \arg        TIMER_DMA_CH0D: channel 0 DMA request,TIMERx(x=0..4,7)
 589:C:/Users/49542/Desktop/GD32F30x_Demo_Suites_V2.0.0/GD32F30x_Demo_Suites_V2.0.0/GD32F30x_Firmware_Library/GD32F30x_standard_peripheral/Source\gd32f30x_timer.c ****       \arg        TIMER_DMA_CH1D: channel 1 DMA request,TIMERx(x=0..4,7)
 590:C:/Users/49542/Desktop/GD32F30x_Demo_Suites_V2.0.0/GD32F30x_Demo_Suites_V2.0.0/GD32F30x_Firmware_Library/GD32F30x_standard_peripheral/Source\gd32f30x_timer.c ****       \arg        TIMER_DMA_CH2D: channel 2 DMA request,TIMERx(x=0..4,7)
 591:C:/Users/49542/Desktop/GD32F30x_Demo_Suites_V2.0.0/GD32F30x_Demo_Suites_V2.0.0/GD32F30x_Firmware_Library/GD32F30x_standard_peripheral/Source\gd32f30x_timer.c ****       \arg        TIMER_DMA_CH3D: channel 3 DMA request,TIMERx(x=0..4,7)
 592:C:/Users/49542/Desktop/GD32F30x_Demo_Suites_V2.0.0/GD32F30x_Demo_Suites_V2.0.0/GD32F30x_Firmware_Library/GD32F30x_standard_peripheral/Source\gd32f30x_timer.c ****       \arg        TIMER_DMA_CMTD: commutation DMA request ,TIMERx(x=0,7)
 593:C:/Users/49542/Desktop/GD32F30x_Demo_Suites_V2.0.0/GD32F30x_Demo_Suites_V2.0.0/GD32F30x_Firmware_Library/GD32F30x_standard_peripheral/Source\gd32f30x_timer.c ****       \arg        TIMER_DMA_TRGD: trigger DMA request,TIMERx(x=0..4,7)
 594:C:/Users/49542/Desktop/GD32F30x_Demo_Suites_V2.0.0/GD32F30x_Demo_Suites_V2.0.0/GD32F30x_Firmware_Library/GD32F30x_standard_peripheral/Source\gd32f30x_timer.c ****     \param[out] none
 595:C:/Users/49542/Desktop/GD32F30x_Demo_Suites_V2.0.0/GD32F30x_Demo_Suites_V2.0.0/GD32F30x_Firmware_Library/GD32F30x_standard_peripheral/Source\gd32f30x_timer.c ****     \retval     none
 596:C:/Users/49542/Desktop/GD32F30x_Demo_Suites_V2.0.0/GD32F30x_Demo_Suites_V2.0.0/GD32F30x_Firmware_Library/GD32F30x_standard_peripheral/Source\gd32f30x_timer.c **** */
 597:C:/Users/49542/Desktop/GD32F30x_Demo_Suites_V2.0.0/GD32F30x_Demo_Suites_V2.0.0/GD32F30x_Firmware_Library/GD32F30x_standard_peripheral/Source\gd32f30x_timer.c **** void timer_dma_disable(uint32_t timer_periph, uint16_t dma)
 598:C:/Users/49542/Desktop/GD32F30x_Demo_Suites_V2.0.0/GD32F30x_Demo_Suites_V2.0.0/GD32F30x_Firmware_Library/GD32F30x_standard_peripheral/Source\gd32f30x_timer.c **** {
 1827              		.loc 1 598 0
 1828              		.cfi_startproc
 1829              		@ args = 0, pretend = 0, frame = 8
 1830              		@ frame_needed = 1, uses_anonymous_args = 0
 1831              		@ link register save eliminated.
 1832 0000 80B4     		push	{r7}
 1833              	.LCFI161:
 1834              		.cfi_def_cfa_offset 4
 1835              		.cfi_offset 7, -4
 1836 0002 83B0     		sub	sp, sp, #12
 1837              	.LCFI162:
 1838              		.cfi_def_cfa_offset 16
 1839 0004 00AF     		add	r7, sp, #0
 1840              	.LCFI163:
 1841              		.cfi_def_cfa_register 7
 1842 0006 7860     		str	r0, [r7, #4]
 1843 0008 0B46     		mov	r3, r1
 1844 000a 7B80     		strh	r3, [r7, #2]	@ movhi
 599:C:/Users/49542/Desktop/GD32F30x_Demo_Suites_V2.0.0/GD32F30x_Demo_Suites_V2.0.0/GD32F30x_Firmware_Library/GD32F30x_standard_peripheral/Source\gd32f30x_timer.c ****     TIMER_DMAINTEN(timer_periph) &= (~(uint32_t)(dma)); 
 1845              		.loc 1 599 0
 1846 000c 7B68     		ldr	r3, [r7, #4]
 1847 000e 0C33     		adds	r3, r3, #12
 1848 0010 1A68     		ldr	r2, [r3]
 1849 0012 7B88     		ldrh	r3, [r7, #2]
 1850 0014 DB43     		mvns	r3, r3
 1851 0016 7968     		ldr	r1, [r7, #4]
 1852 0018 0C31     		adds	r1, r1, #12
 1853 001a 1340     		ands	r3, r3, r2
 1854 001c 0B60     		str	r3, [r1]
 600:C:/Users/49542/Desktop/GD32F30x_Demo_Suites_V2.0.0/GD32F30x_Demo_Suites_V2.0.0/GD32F30x_Firmware_Library/GD32F30x_standard_peripheral/Source\gd32f30x_timer.c **** }
 1855              		.loc 1 600 0
 1856 001e 00BF     		nop
 1857 0020 0C37     		adds	r7, r7, #12
ARM GAS  C:\Users\49542\AppData\Local\Temp\ccx6VnNU.s 			page 44


 1858              	.LCFI164:
 1859              		.cfi_def_cfa_offset 4
 1860 0022 BD46     		mov	sp, r7
 1861              	.LCFI165:
 1862              		.cfi_def_cfa_register 13
 1863              		@ sp needed
 1864 0024 5DF8047B 		ldr	r7, [sp], #4
 1865              	.LCFI166:
 1866              		.cfi_restore 7
 1867              		.cfi_def_cfa_offset 0
 1868 0028 7047     		bx	lr
 1869              		.cfi_endproc
 1870              	.LFE143:
 1872              		.section	.text.timer_channel_dma_request_source_select,"ax",%progbits
 1873              		.align	1
 1874              		.global	timer_channel_dma_request_source_select
 1875              		.syntax unified
 1876              		.thumb
 1877              		.thumb_func
 1878              		.fpu fpv4-sp-d16
 1880              	timer_channel_dma_request_source_select:
 1881              	.LFB144:
 601:C:/Users/49542/Desktop/GD32F30x_Demo_Suites_V2.0.0/GD32F30x_Demo_Suites_V2.0.0/GD32F30x_Firmware_Library/GD32F30x_standard_peripheral/Source\gd32f30x_timer.c **** 
 602:C:/Users/49542/Desktop/GD32F30x_Demo_Suites_V2.0.0/GD32F30x_Demo_Suites_V2.0.0/GD32F30x_Firmware_Library/GD32F30x_standard_peripheral/Source\gd32f30x_timer.c **** /*!
 603:C:/Users/49542/Desktop/GD32F30x_Demo_Suites_V2.0.0/GD32F30x_Demo_Suites_V2.0.0/GD32F30x_Firmware_Library/GD32F30x_standard_peripheral/Source\gd32f30x_timer.c ****     \brief      channel DMA request source selection
 604:C:/Users/49542/Desktop/GD32F30x_Demo_Suites_V2.0.0/GD32F30x_Demo_Suites_V2.0.0/GD32F30x_Firmware_Library/GD32F30x_standard_peripheral/Source\gd32f30x_timer.c ****     \param[in]  timer_periph: TIMERx(x=0..4,7)
 605:C:/Users/49542/Desktop/GD32F30x_Demo_Suites_V2.0.0/GD32F30x_Demo_Suites_V2.0.0/GD32F30x_Firmware_Library/GD32F30x_standard_peripheral/Source\gd32f30x_timer.c ****     \param[in]  dma_request: channel DMA request source selection
 606:C:/Users/49542/Desktop/GD32F30x_Demo_Suites_V2.0.0/GD32F30x_Demo_Suites_V2.0.0/GD32F30x_Firmware_Library/GD32F30x_standard_peripheral/Source\gd32f30x_timer.c ****                 only one parameter can be selected which is shown as below:
 607:C:/Users/49542/Desktop/GD32F30x_Demo_Suites_V2.0.0/GD32F30x_Demo_Suites_V2.0.0/GD32F30x_Firmware_Library/GD32F30x_standard_peripheral/Source\gd32f30x_timer.c ****        \arg        TIMER_DMAREQUEST_CHANNELEVENT: DMA request of channel y is sent when channel y e
 608:C:/Users/49542/Desktop/GD32F30x_Demo_Suites_V2.0.0/GD32F30x_Demo_Suites_V2.0.0/GD32F30x_Firmware_Library/GD32F30x_standard_peripheral/Source\gd32f30x_timer.c ****        \arg        TIMER_DMAREQUEST_UPDATEEVENT: DMA request of channel y is sent when update event
 609:C:/Users/49542/Desktop/GD32F30x_Demo_Suites_V2.0.0/GD32F30x_Demo_Suites_V2.0.0/GD32F30x_Firmware_Library/GD32F30x_standard_peripheral/Source\gd32f30x_timer.c ****     \param[out] none
 610:C:/Users/49542/Desktop/GD32F30x_Demo_Suites_V2.0.0/GD32F30x_Demo_Suites_V2.0.0/GD32F30x_Firmware_Library/GD32F30x_standard_peripheral/Source\gd32f30x_timer.c ****     \retval     none
 611:C:/Users/49542/Desktop/GD32F30x_Demo_Suites_V2.0.0/GD32F30x_Demo_Suites_V2.0.0/GD32F30x_Firmware_Library/GD32F30x_standard_peripheral/Source\gd32f30x_timer.c **** */
 612:C:/Users/49542/Desktop/GD32F30x_Demo_Suites_V2.0.0/GD32F30x_Demo_Suites_V2.0.0/GD32F30x_Firmware_Library/GD32F30x_standard_peripheral/Source\gd32f30x_timer.c **** void timer_channel_dma_request_source_select(uint32_t timer_periph, uint8_t dma_request)
 613:C:/Users/49542/Desktop/GD32F30x_Demo_Suites_V2.0.0/GD32F30x_Demo_Suites_V2.0.0/GD32F30x_Firmware_Library/GD32F30x_standard_peripheral/Source\gd32f30x_timer.c **** {
 1882              		.loc 1 613 0
 1883              		.cfi_startproc
 1884              		@ args = 0, pretend = 0, frame = 8
 1885              		@ frame_needed = 1, uses_anonymous_args = 0
 1886              		@ link register save eliminated.
 1887 0000 80B4     		push	{r7}
 1888              	.LCFI167:
 1889              		.cfi_def_cfa_offset 4
 1890              		.cfi_offset 7, -4
 1891 0002 83B0     		sub	sp, sp, #12
 1892              	.LCFI168:
 1893              		.cfi_def_cfa_offset 16
 1894 0004 00AF     		add	r7, sp, #0
 1895              	.LCFI169:
 1896              		.cfi_def_cfa_register 7
 1897 0006 7860     		str	r0, [r7, #4]
 1898 0008 0B46     		mov	r3, r1
 1899 000a FB70     		strb	r3, [r7, #3]
 614:C:/Users/49542/Desktop/GD32F30x_Demo_Suites_V2.0.0/GD32F30x_Demo_Suites_V2.0.0/GD32F30x_Firmware_Library/GD32F30x_standard_peripheral/Source\gd32f30x_timer.c ****     if(TIMER_DMAREQUEST_UPDATEEVENT == dma_request){
 1900              		.loc 1 614 0
 1901 000c FB78     		ldrb	r3, [r7, #3]	@ zero_extendqisi2
 1902 000e 002B     		cmp	r3, #0
ARM GAS  C:\Users\49542\AppData\Local\Temp\ccx6VnNU.s 			page 45


 1903 0010 08D1     		bne	.L72
 615:C:/Users/49542/Desktop/GD32F30x_Demo_Suites_V2.0.0/GD32F30x_Demo_Suites_V2.0.0/GD32F30x_Firmware_Library/GD32F30x_standard_peripheral/Source\gd32f30x_timer.c ****         TIMER_CTL1(timer_periph) |= (uint32_t)TIMER_CTL1_DMAS;
 1904              		.loc 1 615 0
 1905 0012 7B68     		ldr	r3, [r7, #4]
 1906 0014 0433     		adds	r3, r3, #4
 1907 0016 1B68     		ldr	r3, [r3]
 1908 0018 7A68     		ldr	r2, [r7, #4]
 1909 001a 0432     		adds	r2, r2, #4
 1910 001c 43F00803 		orr	r3, r3, #8
 1911 0020 1360     		str	r3, [r2]
 616:C:/Users/49542/Desktop/GD32F30x_Demo_Suites_V2.0.0/GD32F30x_Demo_Suites_V2.0.0/GD32F30x_Firmware_Library/GD32F30x_standard_peripheral/Source\gd32f30x_timer.c ****     }else if(TIMER_DMAREQUEST_CHANNELEVENT == dma_request){
 617:C:/Users/49542/Desktop/GD32F30x_Demo_Suites_V2.0.0/GD32F30x_Demo_Suites_V2.0.0/GD32F30x_Firmware_Library/GD32F30x_standard_peripheral/Source\gd32f30x_timer.c ****         TIMER_CTL1(timer_periph) &= ~(uint32_t)TIMER_CTL1_DMAS;
 618:C:/Users/49542/Desktop/GD32F30x_Demo_Suites_V2.0.0/GD32F30x_Demo_Suites_V2.0.0/GD32F30x_Firmware_Library/GD32F30x_standard_peripheral/Source\gd32f30x_timer.c ****     }else{
 619:C:/Users/49542/Desktop/GD32F30x_Demo_Suites_V2.0.0/GD32F30x_Demo_Suites_V2.0.0/GD32F30x_Firmware_Library/GD32F30x_standard_peripheral/Source\gd32f30x_timer.c ****         /* illegal parameters */
 620:C:/Users/49542/Desktop/GD32F30x_Demo_Suites_V2.0.0/GD32F30x_Demo_Suites_V2.0.0/GD32F30x_Firmware_Library/GD32F30x_standard_peripheral/Source\gd32f30x_timer.c ****     }
 621:C:/Users/49542/Desktop/GD32F30x_Demo_Suites_V2.0.0/GD32F30x_Demo_Suites_V2.0.0/GD32F30x_Firmware_Library/GD32F30x_standard_peripheral/Source\gd32f30x_timer.c **** }
 1912              		.loc 1 621 0
 1913 0022 0AE0     		b	.L74
 1914              	.L72:
 616:C:/Users/49542/Desktop/GD32F30x_Demo_Suites_V2.0.0/GD32F30x_Demo_Suites_V2.0.0/GD32F30x_Firmware_Library/GD32F30x_standard_peripheral/Source\gd32f30x_timer.c ****     }else if(TIMER_DMAREQUEST_CHANNELEVENT == dma_request){
 1915              		.loc 1 616 0
 1916 0024 FB78     		ldrb	r3, [r7, #3]	@ zero_extendqisi2
 1917 0026 012B     		cmp	r3, #1
 1918 0028 07D1     		bne	.L74
 617:C:/Users/49542/Desktop/GD32F30x_Demo_Suites_V2.0.0/GD32F30x_Demo_Suites_V2.0.0/GD32F30x_Firmware_Library/GD32F30x_standard_peripheral/Source\gd32f30x_timer.c ****     }else{
 1919              		.loc 1 617 0
 1920 002a 7B68     		ldr	r3, [r7, #4]
 1921 002c 0433     		adds	r3, r3, #4
 1922 002e 1B68     		ldr	r3, [r3]
 1923 0030 7A68     		ldr	r2, [r7, #4]
 1924 0032 0432     		adds	r2, r2, #4
 1925 0034 23F00803 		bic	r3, r3, #8
 1926 0038 1360     		str	r3, [r2]
 1927              	.L74:
 1928              		.loc 1 621 0
 1929 003a 00BF     		nop
 1930 003c 0C37     		adds	r7, r7, #12
 1931              	.LCFI170:
 1932              		.cfi_def_cfa_offset 4
 1933 003e BD46     		mov	sp, r7
 1934              	.LCFI171:
 1935              		.cfi_def_cfa_register 13
 1936              		@ sp needed
 1937 0040 5DF8047B 		ldr	r7, [sp], #4
 1938              	.LCFI172:
 1939              		.cfi_restore 7
 1940              		.cfi_def_cfa_offset 0
 1941 0044 7047     		bx	lr
 1942              		.cfi_endproc
 1943              	.LFE144:
 1945              		.section	.text.timer_dma_transfer_config,"ax",%progbits
 1946              		.align	1
 1947              		.global	timer_dma_transfer_config
 1948              		.syntax unified
 1949              		.thumb
 1950              		.thumb_func
 1951              		.fpu fpv4-sp-d16
ARM GAS  C:\Users\49542\AppData\Local\Temp\ccx6VnNU.s 			page 46


 1953              	timer_dma_transfer_config:
 1954              	.LFB145:
 622:C:/Users/49542/Desktop/GD32F30x_Demo_Suites_V2.0.0/GD32F30x_Demo_Suites_V2.0.0/GD32F30x_Firmware_Library/GD32F30x_standard_peripheral/Source\gd32f30x_timer.c **** 
 623:C:/Users/49542/Desktop/GD32F30x_Demo_Suites_V2.0.0/GD32F30x_Demo_Suites_V2.0.0/GD32F30x_Firmware_Library/GD32F30x_standard_peripheral/Source\gd32f30x_timer.c **** /*!
 624:C:/Users/49542/Desktop/GD32F30x_Demo_Suites_V2.0.0/GD32F30x_Demo_Suites_V2.0.0/GD32F30x_Firmware_Library/GD32F30x_standard_peripheral/Source\gd32f30x_timer.c ****     \brief      configure the TIMER DMA transfer
 625:C:/Users/49542/Desktop/GD32F30x_Demo_Suites_V2.0.0/GD32F30x_Demo_Suites_V2.0.0/GD32F30x_Firmware_Library/GD32F30x_standard_peripheral/Source\gd32f30x_timer.c ****     \param[in]  timer_periph: please refer to the following parameters
 626:C:/Users/49542/Desktop/GD32F30x_Demo_Suites_V2.0.0/GD32F30x_Demo_Suites_V2.0.0/GD32F30x_Firmware_Library/GD32F30x_standard_peripheral/Source\gd32f30x_timer.c ****     \param[in]  dma_baseaddr:
 627:C:/Users/49542/Desktop/GD32F30x_Demo_Suites_V2.0.0/GD32F30x_Demo_Suites_V2.0.0/GD32F30x_Firmware_Library/GD32F30x_standard_peripheral/Source\gd32f30x_timer.c ****                 only one parameter can be selected which is shown as below:
 628:C:/Users/49542/Desktop/GD32F30x_Demo_Suites_V2.0.0/GD32F30x_Demo_Suites_V2.0.0/GD32F30x_Firmware_Library/GD32F30x_standard_peripheral/Source\gd32f30x_timer.c ****        \arg        TIMER_DMACFG_DMATA_CTL0: DMA transfer address is TIMER_CTL0,TIMERx(x=0..4,7)
 629:C:/Users/49542/Desktop/GD32F30x_Demo_Suites_V2.0.0/GD32F30x_Demo_Suites_V2.0.0/GD32F30x_Firmware_Library/GD32F30x_standard_peripheral/Source\gd32f30x_timer.c ****        \arg        TIMER_DMACFG_DMATA_CTL1: DMA transfer address is TIMER_CTL1,TIMERx(x=0..4,7)
 630:C:/Users/49542/Desktop/GD32F30x_Demo_Suites_V2.0.0/GD32F30x_Demo_Suites_V2.0.0/GD32F30x_Firmware_Library/GD32F30x_standard_peripheral/Source\gd32f30x_timer.c ****        \arg        TIMER_DMACFG_DMATA_SMCFG: DMA transfer address is TIMER_SMCFG,TIMERx(x=0..4,7)
 631:C:/Users/49542/Desktop/GD32F30x_Demo_Suites_V2.0.0/GD32F30x_Demo_Suites_V2.0.0/GD32F30x_Firmware_Library/GD32F30x_standard_peripheral/Source\gd32f30x_timer.c ****        \arg        TIMER_DMACFG_DMATA_DMAINTEN: DMA transfer address is TIMER_DMAINTEN,TIMERx(x=0..
 632:C:/Users/49542/Desktop/GD32F30x_Demo_Suites_V2.0.0/GD32F30x_Demo_Suites_V2.0.0/GD32F30x_Firmware_Library/GD32F30x_standard_peripheral/Source\gd32f30x_timer.c ****        \arg        TIMER_DMACFG_DMATA_INTF: DMA transfer address is TIMER_INTF,TIMERx(x=0..4,7)
 633:C:/Users/49542/Desktop/GD32F30x_Demo_Suites_V2.0.0/GD32F30x_Demo_Suites_V2.0.0/GD32F30x_Firmware_Library/GD32F30x_standard_peripheral/Source\gd32f30x_timer.c ****        \arg        TIMER_DMACFG_DMATA_SWEVG: DMA transfer address is TIMER_SWEVG,TIMERx(x=0..4,7)
 634:C:/Users/49542/Desktop/GD32F30x_Demo_Suites_V2.0.0/GD32F30x_Demo_Suites_V2.0.0/GD32F30x_Firmware_Library/GD32F30x_standard_peripheral/Source\gd32f30x_timer.c ****        \arg        TIMER_DMACFG_DMATA_CHCTL0: DMA transfer address is TIMER_CHCTL0,TIMERx(x=0..4,7)
 635:C:/Users/49542/Desktop/GD32F30x_Demo_Suites_V2.0.0/GD32F30x_Demo_Suites_V2.0.0/GD32F30x_Firmware_Library/GD32F30x_standard_peripheral/Source\gd32f30x_timer.c ****        \arg        TIMER_DMACFG_DMATA_CHCTL1: DMA transfer address is TIMER_CHCTL1,TIMERx(x=0..4,7)
 636:C:/Users/49542/Desktop/GD32F30x_Demo_Suites_V2.0.0/GD32F30x_Demo_Suites_V2.0.0/GD32F30x_Firmware_Library/GD32F30x_standard_peripheral/Source\gd32f30x_timer.c ****        \arg        TIMER_DMACFG_DMATA_CHCTL2: DMA transfer address is TIMER_CHCTL2,TIMERx(x=0..4,7)
 637:C:/Users/49542/Desktop/GD32F30x_Demo_Suites_V2.0.0/GD32F30x_Demo_Suites_V2.0.0/GD32F30x_Firmware_Library/GD32F30x_standard_peripheral/Source\gd32f30x_timer.c ****        \arg        TIMER_DMACFG_DMATA_CNT: DMA transfer address is TIMER_CNT,TIMERx(x=0..4,7)
 638:C:/Users/49542/Desktop/GD32F30x_Demo_Suites_V2.0.0/GD32F30x_Demo_Suites_V2.0.0/GD32F30x_Firmware_Library/GD32F30x_standard_peripheral/Source\gd32f30x_timer.c ****        \arg        TIMER_DMACFG_DMATA_PSC: DMA transfer address is TIMER_PSC,TIMERx(x=0..4,7)
 639:C:/Users/49542/Desktop/GD32F30x_Demo_Suites_V2.0.0/GD32F30x_Demo_Suites_V2.0.0/GD32F30x_Firmware_Library/GD32F30x_standard_peripheral/Source\gd32f30x_timer.c ****        \arg        TIMER_DMACFG_DMATA_CAR: DMA transfer address is TIMER_CAR,TIMERx(x=0..4,7)
 640:C:/Users/49542/Desktop/GD32F30x_Demo_Suites_V2.0.0/GD32F30x_Demo_Suites_V2.0.0/GD32F30x_Firmware_Library/GD32F30x_standard_peripheral/Source\gd32f30x_timer.c ****        \arg        TIMER_DMACFG_DMATA_CREP: DMA transfer address is TIMER_CREP,TIMERx(x=0,7)
 641:C:/Users/49542/Desktop/GD32F30x_Demo_Suites_V2.0.0/GD32F30x_Demo_Suites_V2.0.0/GD32F30x_Firmware_Library/GD32F30x_standard_peripheral/Source\gd32f30x_timer.c ****        \arg        TIMER_DMACFG_DMATA_CH0CV: DMA transfer address is TIMER_CH0CV,TIMERx(x=0..4,7)
 642:C:/Users/49542/Desktop/GD32F30x_Demo_Suites_V2.0.0/GD32F30x_Demo_Suites_V2.0.0/GD32F30x_Firmware_Library/GD32F30x_standard_peripheral/Source\gd32f30x_timer.c ****        \arg        TIMER_DMACFG_DMATA_CH1CV: DMA transfer address is TIMER_CH1CV,TIMERx(x=0..4,7)
 643:C:/Users/49542/Desktop/GD32F30x_Demo_Suites_V2.0.0/GD32F30x_Demo_Suites_V2.0.0/GD32F30x_Firmware_Library/GD32F30x_standard_peripheral/Source\gd32f30x_timer.c ****        \arg        TIMER_DMACFG_DMATA_CH2CV: DMA transfer address is TIMER_CH2CV,TIMERx(x=0..4,7)
 644:C:/Users/49542/Desktop/GD32F30x_Demo_Suites_V2.0.0/GD32F30x_Demo_Suites_V2.0.0/GD32F30x_Firmware_Library/GD32F30x_standard_peripheral/Source\gd32f30x_timer.c ****        \arg        TIMER_DMACFG_DMATA_CH3CV: DMA transfer address is TIMER_CH3CV,TIMERx(x=0..4,7)
 645:C:/Users/49542/Desktop/GD32F30x_Demo_Suites_V2.0.0/GD32F30x_Demo_Suites_V2.0.0/GD32F30x_Firmware_Library/GD32F30x_standard_peripheral/Source\gd32f30x_timer.c ****        \arg        TIMER_DMACFG_DMATA_CCHP: DMA transfer address is TIMER_CCHP,TIMERx(x=0,7)
 646:C:/Users/49542/Desktop/GD32F30x_Demo_Suites_V2.0.0/GD32F30x_Demo_Suites_V2.0.0/GD32F30x_Firmware_Library/GD32F30x_standard_peripheral/Source\gd32f30x_timer.c ****        \arg        TIMER_DMACFG_DMATA_DMACFG: DMA transfer address is TIMER_DMACFG,TIMERx(x=0..4,7)
 647:C:/Users/49542/Desktop/GD32F30x_Demo_Suites_V2.0.0/GD32F30x_Demo_Suites_V2.0.0/GD32F30x_Firmware_Library/GD32F30x_standard_peripheral/Source\gd32f30x_timer.c ****        \arg        TIMER_DMACFG_DMATA_DMATB: DMA transfer address is TIMER_DMATB,TIMERx(x=0..4,7)
 648:C:/Users/49542/Desktop/GD32F30x_Demo_Suites_V2.0.0/GD32F30x_Demo_Suites_V2.0.0/GD32F30x_Firmware_Library/GD32F30x_standard_peripheral/Source\gd32f30x_timer.c ****     \param[in]  dma_lenth:
 649:C:/Users/49542/Desktop/GD32F30x_Demo_Suites_V2.0.0/GD32F30x_Demo_Suites_V2.0.0/GD32F30x_Firmware_Library/GD32F30x_standard_peripheral/Source\gd32f30x_timer.c ****                 only one parameter can be selected which is shown as below:
 650:C:/Users/49542/Desktop/GD32F30x_Demo_Suites_V2.0.0/GD32F30x_Demo_Suites_V2.0.0/GD32F30x_Firmware_Library/GD32F30x_standard_peripheral/Source\gd32f30x_timer.c ****        \arg        TIMER_DMACFG_DMATC_xTRANSFER(x=1..18): DMA transfer x time
 651:C:/Users/49542/Desktop/GD32F30x_Demo_Suites_V2.0.0/GD32F30x_Demo_Suites_V2.0.0/GD32F30x_Firmware_Library/GD32F30x_standard_peripheral/Source\gd32f30x_timer.c ****     \param[out] none
 652:C:/Users/49542/Desktop/GD32F30x_Demo_Suites_V2.0.0/GD32F30x_Demo_Suites_V2.0.0/GD32F30x_Firmware_Library/GD32F30x_standard_peripheral/Source\gd32f30x_timer.c ****     \retval     none
 653:C:/Users/49542/Desktop/GD32F30x_Demo_Suites_V2.0.0/GD32F30x_Demo_Suites_V2.0.0/GD32F30x_Firmware_Library/GD32F30x_standard_peripheral/Source\gd32f30x_timer.c **** */
 654:C:/Users/49542/Desktop/GD32F30x_Demo_Suites_V2.0.0/GD32F30x_Demo_Suites_V2.0.0/GD32F30x_Firmware_Library/GD32F30x_standard_peripheral/Source\gd32f30x_timer.c **** void timer_dma_transfer_config(uint32_t timer_periph, uint32_t dma_baseaddr, uint32_t dma_lenth)
 655:C:/Users/49542/Desktop/GD32F30x_Demo_Suites_V2.0.0/GD32F30x_Demo_Suites_V2.0.0/GD32F30x_Firmware_Library/GD32F30x_standard_peripheral/Source\gd32f30x_timer.c **** {
 1955              		.loc 1 655 0
 1956              		.cfi_startproc
 1957              		@ args = 0, pretend = 0, frame = 16
 1958              		@ frame_needed = 1, uses_anonymous_args = 0
 1959              		@ link register save eliminated.
 1960 0000 80B4     		push	{r7}
 1961              	.LCFI173:
 1962              		.cfi_def_cfa_offset 4
 1963              		.cfi_offset 7, -4
 1964 0002 85B0     		sub	sp, sp, #20
 1965              	.LCFI174:
 1966              		.cfi_def_cfa_offset 24
 1967 0004 00AF     		add	r7, sp, #0
 1968              	.LCFI175:
 1969              		.cfi_def_cfa_register 7
 1970 0006 F860     		str	r0, [r7, #12]
 1971 0008 B960     		str	r1, [r7, #8]
 1972 000a 7A60     		str	r2, [r7, #4]
 656:C:/Users/49542/Desktop/GD32F30x_Demo_Suites_V2.0.0/GD32F30x_Demo_Suites_V2.0.0/GD32F30x_Firmware_Library/GD32F30x_standard_peripheral/Source\gd32f30x_timer.c ****     TIMER_DMACFG(timer_periph) &= (~(uint32_t)(TIMER_DMACFG_DMATA | TIMER_DMACFG_DMATC));
 1973              		.loc 1 656 0
 1974 000c FB68     		ldr	r3, [r7, #12]
ARM GAS  C:\Users\49542\AppData\Local\Temp\ccx6VnNU.s 			page 47


 1975 000e 4833     		adds	r3, r3, #72
 1976 0010 1B68     		ldr	r3, [r3]
 1977 0012 FA68     		ldr	r2, [r7, #12]
 1978 0014 4832     		adds	r2, r2, #72
 1979 0016 23F4F853 		bic	r3, r3, #7936
 1980 001a 23F01F03 		bic	r3, r3, #31
 1981 001e 1360     		str	r3, [r2]
 657:C:/Users/49542/Desktop/GD32F30x_Demo_Suites_V2.0.0/GD32F30x_Demo_Suites_V2.0.0/GD32F30x_Firmware_Library/GD32F30x_standard_peripheral/Source\gd32f30x_timer.c ****     TIMER_DMACFG(timer_periph) |= (uint32_t)(dma_baseaddr | dma_lenth);
 1982              		.loc 1 657 0
 1983 0020 FB68     		ldr	r3, [r7, #12]
 1984 0022 4833     		adds	r3, r3, #72
 1985 0024 1A68     		ldr	r2, [r3]
 1986 0026 B968     		ldr	r1, [r7, #8]
 1987 0028 7B68     		ldr	r3, [r7, #4]
 1988 002a 0B43     		orrs	r3, r3, r1
 1989 002c F968     		ldr	r1, [r7, #12]
 1990 002e 4831     		adds	r1, r1, #72
 1991 0030 1343     		orrs	r3, r3, r2
 1992 0032 0B60     		str	r3, [r1]
 658:C:/Users/49542/Desktop/GD32F30x_Demo_Suites_V2.0.0/GD32F30x_Demo_Suites_V2.0.0/GD32F30x_Firmware_Library/GD32F30x_standard_peripheral/Source\gd32f30x_timer.c **** }
 1993              		.loc 1 658 0
 1994 0034 00BF     		nop
 1995 0036 1437     		adds	r7, r7, #20
 1996              	.LCFI176:
 1997              		.cfi_def_cfa_offset 4
 1998 0038 BD46     		mov	sp, r7
 1999              	.LCFI177:
 2000              		.cfi_def_cfa_register 13
 2001              		@ sp needed
 2002 003a 5DF8047B 		ldr	r7, [sp], #4
 2003              	.LCFI178:
 2004              		.cfi_restore 7
 2005              		.cfi_def_cfa_offset 0
 2006 003e 7047     		bx	lr
 2007              		.cfi_endproc
 2008              	.LFE145:
 2010              		.section	.text.timer_event_software_generate,"ax",%progbits
 2011              		.align	1
 2012              		.global	timer_event_software_generate
 2013              		.syntax unified
 2014              		.thumb
 2015              		.thumb_func
 2016              		.fpu fpv4-sp-d16
 2018              	timer_event_software_generate:
 2019              	.LFB146:
 659:C:/Users/49542/Desktop/GD32F30x_Demo_Suites_V2.0.0/GD32F30x_Demo_Suites_V2.0.0/GD32F30x_Firmware_Library/GD32F30x_standard_peripheral/Source\gd32f30x_timer.c **** 
 660:C:/Users/49542/Desktop/GD32F30x_Demo_Suites_V2.0.0/GD32F30x_Demo_Suites_V2.0.0/GD32F30x_Firmware_Library/GD32F30x_standard_peripheral/Source\gd32f30x_timer.c **** /*!
 661:C:/Users/49542/Desktop/GD32F30x_Demo_Suites_V2.0.0/GD32F30x_Demo_Suites_V2.0.0/GD32F30x_Firmware_Library/GD32F30x_standard_peripheral/Source\gd32f30x_timer.c ****     \brief      software generate events 
 662:C:/Users/49542/Desktop/GD32F30x_Demo_Suites_V2.0.0/GD32F30x_Demo_Suites_V2.0.0/GD32F30x_Firmware_Library/GD32F30x_standard_peripheral/Source\gd32f30x_timer.c ****     \param[in]  timer_periph: please refer to the following parameters
 663:C:/Users/49542/Desktop/GD32F30x_Demo_Suites_V2.0.0/GD32F30x_Demo_Suites_V2.0.0/GD32F30x_Firmware_Library/GD32F30x_standard_peripheral/Source\gd32f30x_timer.c ****     \param[in]  event: the timer software event generation sources
 664:C:/Users/49542/Desktop/GD32F30x_Demo_Suites_V2.0.0/GD32F30x_Demo_Suites_V2.0.0/GD32F30x_Firmware_Library/GD32F30x_standard_peripheral/Source\gd32f30x_timer.c ****                 one or more parameters can be selected which are shown as below:
 665:C:/Users/49542/Desktop/GD32F30x_Demo_Suites_V2.0.0/GD32F30x_Demo_Suites_V2.0.0/GD32F30x_Firmware_Library/GD32F30x_standard_peripheral/Source\gd32f30x_timer.c ****       \arg        TIMER_EVENT_SRC_UPG: update event,TIMERx(x=0..13)
 666:C:/Users/49542/Desktop/GD32F30x_Demo_Suites_V2.0.0/GD32F30x_Demo_Suites_V2.0.0/GD32F30x_Firmware_Library/GD32F30x_standard_peripheral/Source\gd32f30x_timer.c ****       \arg        TIMER_EVENT_SRC_CH0G: channel 0 capture or compare event generation,TIMERx(x=0..4
 667:C:/Users/49542/Desktop/GD32F30x_Demo_Suites_V2.0.0/GD32F30x_Demo_Suites_V2.0.0/GD32F30x_Firmware_Library/GD32F30x_standard_peripheral/Source\gd32f30x_timer.c ****       \arg        TIMER_EVENT_SRC_CH1G: channel 1 capture or compare event generation,TIMERx(x=0..4
 668:C:/Users/49542/Desktop/GD32F30x_Demo_Suites_V2.0.0/GD32F30x_Demo_Suites_V2.0.0/GD32F30x_Firmware_Library/GD32F30x_standard_peripheral/Source\gd32f30x_timer.c ****       \arg        TIMER_EVENT_SRC_CH2G: channel 2 capture or compare event generation,TIMERx(x=0..4
 669:C:/Users/49542/Desktop/GD32F30x_Demo_Suites_V2.0.0/GD32F30x_Demo_Suites_V2.0.0/GD32F30x_Firmware_Library/GD32F30x_standard_peripheral/Source\gd32f30x_timer.c ****       \arg        TIMER_EVENT_SRC_CH3G: channel 3 capture or compare event generation,TIMERx(x=0..4
 670:C:/Users/49542/Desktop/GD32F30x_Demo_Suites_V2.0.0/GD32F30x_Demo_Suites_V2.0.0/GD32F30x_Firmware_Library/GD32F30x_standard_peripheral/Source\gd32f30x_timer.c ****       \arg        TIMER_EVENT_SRC_CMTG: channel commutation event generation,TIMERx(x=0,7) 
ARM GAS  C:\Users\49542\AppData\Local\Temp\ccx6VnNU.s 			page 48


 671:C:/Users/49542/Desktop/GD32F30x_Demo_Suites_V2.0.0/GD32F30x_Demo_Suites_V2.0.0/GD32F30x_Firmware_Library/GD32F30x_standard_peripheral/Source\gd32f30x_timer.c ****       \arg        TIMER_EVENT_SRC_TRGG: trigger event generation,TIMERx(x=0..4,7,8,11)
 672:C:/Users/49542/Desktop/GD32F30x_Demo_Suites_V2.0.0/GD32F30x_Demo_Suites_V2.0.0/GD32F30x_Firmware_Library/GD32F30x_standard_peripheral/Source\gd32f30x_timer.c ****       \arg        TIMER_EVENT_SRC_BRKG:  break event generation,TIMERx(x=0,7)
 673:C:/Users/49542/Desktop/GD32F30x_Demo_Suites_V2.0.0/GD32F30x_Demo_Suites_V2.0.0/GD32F30x_Firmware_Library/GD32F30x_standard_peripheral/Source\gd32f30x_timer.c ****     \param[out] none
 674:C:/Users/49542/Desktop/GD32F30x_Demo_Suites_V2.0.0/GD32F30x_Demo_Suites_V2.0.0/GD32F30x_Firmware_Library/GD32F30x_standard_peripheral/Source\gd32f30x_timer.c ****     \retval     none
 675:C:/Users/49542/Desktop/GD32F30x_Demo_Suites_V2.0.0/GD32F30x_Demo_Suites_V2.0.0/GD32F30x_Firmware_Library/GD32F30x_standard_peripheral/Source\gd32f30x_timer.c **** */
 676:C:/Users/49542/Desktop/GD32F30x_Demo_Suites_V2.0.0/GD32F30x_Demo_Suites_V2.0.0/GD32F30x_Firmware_Library/GD32F30x_standard_peripheral/Source\gd32f30x_timer.c **** void timer_event_software_generate(uint32_t timer_periph, uint16_t event)
 677:C:/Users/49542/Desktop/GD32F30x_Demo_Suites_V2.0.0/GD32F30x_Demo_Suites_V2.0.0/GD32F30x_Firmware_Library/GD32F30x_standard_peripheral/Source\gd32f30x_timer.c **** {
 2020              		.loc 1 677 0
 2021              		.cfi_startproc
 2022              		@ args = 0, pretend = 0, frame = 8
 2023              		@ frame_needed = 1, uses_anonymous_args = 0
 2024              		@ link register save eliminated.
 2025 0000 80B4     		push	{r7}
 2026              	.LCFI179:
 2027              		.cfi_def_cfa_offset 4
 2028              		.cfi_offset 7, -4
 2029 0002 83B0     		sub	sp, sp, #12
 2030              	.LCFI180:
 2031              		.cfi_def_cfa_offset 16
 2032 0004 00AF     		add	r7, sp, #0
 2033              	.LCFI181:
 2034              		.cfi_def_cfa_register 7
 2035 0006 7860     		str	r0, [r7, #4]
 2036 0008 0B46     		mov	r3, r1
 2037 000a 7B80     		strh	r3, [r7, #2]	@ movhi
 678:C:/Users/49542/Desktop/GD32F30x_Demo_Suites_V2.0.0/GD32F30x_Demo_Suites_V2.0.0/GD32F30x_Firmware_Library/GD32F30x_standard_peripheral/Source\gd32f30x_timer.c ****     TIMER_SWEVG(timer_periph) |= (uint32_t)event;
 2038              		.loc 1 678 0
 2039 000c 7B68     		ldr	r3, [r7, #4]
 2040 000e 1433     		adds	r3, r3, #20
 2041 0010 1A68     		ldr	r2, [r3]
 2042 0012 7B88     		ldrh	r3, [r7, #2]
 2043 0014 7968     		ldr	r1, [r7, #4]
 2044 0016 1431     		adds	r1, r1, #20
 2045 0018 1343     		orrs	r3, r3, r2
 2046 001a 0B60     		str	r3, [r1]
 679:C:/Users/49542/Desktop/GD32F30x_Demo_Suites_V2.0.0/GD32F30x_Demo_Suites_V2.0.0/GD32F30x_Firmware_Library/GD32F30x_standard_peripheral/Source\gd32f30x_timer.c **** }
 2047              		.loc 1 679 0
 2048 001c 00BF     		nop
 2049 001e 0C37     		adds	r7, r7, #12
 2050              	.LCFI182:
 2051              		.cfi_def_cfa_offset 4
 2052 0020 BD46     		mov	sp, r7
 2053              	.LCFI183:
 2054              		.cfi_def_cfa_register 13
 2055              		@ sp needed
 2056 0022 5DF8047B 		ldr	r7, [sp], #4
 2057              	.LCFI184:
 2058              		.cfi_restore 7
 2059              		.cfi_def_cfa_offset 0
 2060 0026 7047     		bx	lr
 2061              		.cfi_endproc
 2062              	.LFE146:
 2064              		.section	.text.timer_break_struct_para_init,"ax",%progbits
 2065              		.align	1
 2066              		.global	timer_break_struct_para_init
 2067              		.syntax unified
 2068              		.thumb
ARM GAS  C:\Users\49542\AppData\Local\Temp\ccx6VnNU.s 			page 49


 2069              		.thumb_func
 2070              		.fpu fpv4-sp-d16
 2072              	timer_break_struct_para_init:
 2073              	.LFB147:
 680:C:/Users/49542/Desktop/GD32F30x_Demo_Suites_V2.0.0/GD32F30x_Demo_Suites_V2.0.0/GD32F30x_Firmware_Library/GD32F30x_standard_peripheral/Source\gd32f30x_timer.c **** 
 681:C:/Users/49542/Desktop/GD32F30x_Demo_Suites_V2.0.0/GD32F30x_Demo_Suites_V2.0.0/GD32F30x_Firmware_Library/GD32F30x_standard_peripheral/Source\gd32f30x_timer.c **** /*!
 682:C:/Users/49542/Desktop/GD32F30x_Demo_Suites_V2.0.0/GD32F30x_Demo_Suites_V2.0.0/GD32F30x_Firmware_Library/GD32F30x_standard_peripheral/Source\gd32f30x_timer.c ****     \brief      initialize TIMER break parameter struct with a default value
 683:C:/Users/49542/Desktop/GD32F30x_Demo_Suites_V2.0.0/GD32F30x_Demo_Suites_V2.0.0/GD32F30x_Firmware_Library/GD32F30x_standard_peripheral/Source\gd32f30x_timer.c ****     \param[in]  breakpara: TIMER break parameter struct
 684:C:/Users/49542/Desktop/GD32F30x_Demo_Suites_V2.0.0/GD32F30x_Demo_Suites_V2.0.0/GD32F30x_Firmware_Library/GD32F30x_standard_peripheral/Source\gd32f30x_timer.c ****     \param[out] none
 685:C:/Users/49542/Desktop/GD32F30x_Demo_Suites_V2.0.0/GD32F30x_Demo_Suites_V2.0.0/GD32F30x_Firmware_Library/GD32F30x_standard_peripheral/Source\gd32f30x_timer.c ****     \retval     none
 686:C:/Users/49542/Desktop/GD32F30x_Demo_Suites_V2.0.0/GD32F30x_Demo_Suites_V2.0.0/GD32F30x_Firmware_Library/GD32F30x_standard_peripheral/Source\gd32f30x_timer.c **** */
 687:C:/Users/49542/Desktop/GD32F30x_Demo_Suites_V2.0.0/GD32F30x_Demo_Suites_V2.0.0/GD32F30x_Firmware_Library/GD32F30x_standard_peripheral/Source\gd32f30x_timer.c **** void timer_break_struct_para_init(timer_break_parameter_struct* breakpara)
 688:C:/Users/49542/Desktop/GD32F30x_Demo_Suites_V2.0.0/GD32F30x_Demo_Suites_V2.0.0/GD32F30x_Firmware_Library/GD32F30x_standard_peripheral/Source\gd32f30x_timer.c **** {
 2074              		.loc 1 688 0
 2075              		.cfi_startproc
 2076              		@ args = 0, pretend = 0, frame = 8
 2077              		@ frame_needed = 1, uses_anonymous_args = 0
 2078              		@ link register save eliminated.
 2079 0000 80B4     		push	{r7}
 2080              	.LCFI185:
 2081              		.cfi_def_cfa_offset 4
 2082              		.cfi_offset 7, -4
 2083 0002 83B0     		sub	sp, sp, #12
 2084              	.LCFI186:
 2085              		.cfi_def_cfa_offset 16
 2086 0004 00AF     		add	r7, sp, #0
 2087              	.LCFI187:
 2088              		.cfi_def_cfa_register 7
 2089 0006 7860     		str	r0, [r7, #4]
 689:C:/Users/49542/Desktop/GD32F30x_Demo_Suites_V2.0.0/GD32F30x_Demo_Suites_V2.0.0/GD32F30x_Firmware_Library/GD32F30x_standard_peripheral/Source\gd32f30x_timer.c ****     /* initialize the break parameter struct member with the default value */
 690:C:/Users/49542/Desktop/GD32F30x_Demo_Suites_V2.0.0/GD32F30x_Demo_Suites_V2.0.0/GD32F30x_Firmware_Library/GD32F30x_standard_peripheral/Source\gd32f30x_timer.c ****     breakpara->runoffstate     = TIMER_ROS_STATE_DISABLE;
 2090              		.loc 1 690 0
 2091 0008 7B68     		ldr	r3, [r7, #4]
 2092 000a 0022     		movs	r2, #0
 2093 000c 1A80     		strh	r2, [r3]	@ movhi
 691:C:/Users/49542/Desktop/GD32F30x_Demo_Suites_V2.0.0/GD32F30x_Demo_Suites_V2.0.0/GD32F30x_Firmware_Library/GD32F30x_standard_peripheral/Source\gd32f30x_timer.c ****     breakpara->ideloffstate    = TIMER_IOS_STATE_DISABLE;
 2094              		.loc 1 691 0
 2095 000e 7B68     		ldr	r3, [r7, #4]
 2096 0010 0022     		movs	r2, #0
 2097 0012 5A80     		strh	r2, [r3, #2]	@ movhi
 692:C:/Users/49542/Desktop/GD32F30x_Demo_Suites_V2.0.0/GD32F30x_Demo_Suites_V2.0.0/GD32F30x_Firmware_Library/GD32F30x_standard_peripheral/Source\gd32f30x_timer.c ****     breakpara->deadtime        = 0U;
 2098              		.loc 1 692 0
 2099 0014 7B68     		ldr	r3, [r7, #4]
 2100 0016 0022     		movs	r2, #0
 2101 0018 9A80     		strh	r2, [r3, #4]	@ movhi
 693:C:/Users/49542/Desktop/GD32F30x_Demo_Suites_V2.0.0/GD32F30x_Demo_Suites_V2.0.0/GD32F30x_Firmware_Library/GD32F30x_standard_peripheral/Source\gd32f30x_timer.c ****     breakpara->breakpolarity   = TIMER_BREAK_POLARITY_LOW;
 2102              		.loc 1 693 0
 2103 001a 7B68     		ldr	r3, [r7, #4]
 2104 001c 0022     		movs	r2, #0
 2105 001e DA80     		strh	r2, [r3, #6]	@ movhi
 694:C:/Users/49542/Desktop/GD32F30x_Demo_Suites_V2.0.0/GD32F30x_Demo_Suites_V2.0.0/GD32F30x_Firmware_Library/GD32F30x_standard_peripheral/Source\gd32f30x_timer.c ****     breakpara->outputautostate = TIMER_OUTAUTO_DISABLE;
 2106              		.loc 1 694 0
 2107 0020 7B68     		ldr	r3, [r7, #4]
 2108 0022 0022     		movs	r2, #0
 2109 0024 1A81     		strh	r2, [r3, #8]	@ movhi
 695:C:/Users/49542/Desktop/GD32F30x_Demo_Suites_V2.0.0/GD32F30x_Demo_Suites_V2.0.0/GD32F30x_Firmware_Library/GD32F30x_standard_peripheral/Source\gd32f30x_timer.c ****     breakpara->protectmode     = TIMER_CCHP_PROT_OFF;
 2110              		.loc 1 695 0
ARM GAS  C:\Users\49542\AppData\Local\Temp\ccx6VnNU.s 			page 50


 2111 0026 7B68     		ldr	r3, [r7, #4]
 2112 0028 0022     		movs	r2, #0
 2113 002a 5A81     		strh	r2, [r3, #10]	@ movhi
 696:C:/Users/49542/Desktop/GD32F30x_Demo_Suites_V2.0.0/GD32F30x_Demo_Suites_V2.0.0/GD32F30x_Firmware_Library/GD32F30x_standard_peripheral/Source\gd32f30x_timer.c ****     breakpara->breakstate      = TIMER_BREAK_DISABLE;
 2114              		.loc 1 696 0
 2115 002c 7B68     		ldr	r3, [r7, #4]
 2116 002e 0022     		movs	r2, #0
 2117 0030 9A81     		strh	r2, [r3, #12]	@ movhi
 697:C:/Users/49542/Desktop/GD32F30x_Demo_Suites_V2.0.0/GD32F30x_Demo_Suites_V2.0.0/GD32F30x_Firmware_Library/GD32F30x_standard_peripheral/Source\gd32f30x_timer.c **** }
 2118              		.loc 1 697 0
 2119 0032 00BF     		nop
 2120 0034 0C37     		adds	r7, r7, #12
 2121              	.LCFI188:
 2122              		.cfi_def_cfa_offset 4
 2123 0036 BD46     		mov	sp, r7
 2124              	.LCFI189:
 2125              		.cfi_def_cfa_register 13
 2126              		@ sp needed
 2127 0038 5DF8047B 		ldr	r7, [sp], #4
 2128              	.LCFI190:
 2129              		.cfi_restore 7
 2130              		.cfi_def_cfa_offset 0
 2131 003c 7047     		bx	lr
 2132              		.cfi_endproc
 2133              	.LFE147:
 2135              		.section	.text.timer_break_config,"ax",%progbits
 2136              		.align	1
 2137              		.global	timer_break_config
 2138              		.syntax unified
 2139              		.thumb
 2140              		.thumb_func
 2141              		.fpu fpv4-sp-d16
 2143              	timer_break_config:
 2144              	.LFB148:
 698:C:/Users/49542/Desktop/GD32F30x_Demo_Suites_V2.0.0/GD32F30x_Demo_Suites_V2.0.0/GD32F30x_Firmware_Library/GD32F30x_standard_peripheral/Source\gd32f30x_timer.c **** 
 699:C:/Users/49542/Desktop/GD32F30x_Demo_Suites_V2.0.0/GD32F30x_Demo_Suites_V2.0.0/GD32F30x_Firmware_Library/GD32F30x_standard_peripheral/Source\gd32f30x_timer.c **** /*!
 700:C:/Users/49542/Desktop/GD32F30x_Demo_Suites_V2.0.0/GD32F30x_Demo_Suites_V2.0.0/GD32F30x_Firmware_Library/GD32F30x_standard_peripheral/Source\gd32f30x_timer.c ****     \brief      configure TIMER break function 
 701:C:/Users/49542/Desktop/GD32F30x_Demo_Suites_V2.0.0/GD32F30x_Demo_Suites_V2.0.0/GD32F30x_Firmware_Library/GD32F30x_standard_peripheral/Source\gd32f30x_timer.c ****     \param[in]  timer_periph: TIMERx(x=0,7)
 702:C:/Users/49542/Desktop/GD32F30x_Demo_Suites_V2.0.0/GD32F30x_Demo_Suites_V2.0.0/GD32F30x_Firmware_Library/GD32F30x_standard_peripheral/Source\gd32f30x_timer.c ****     \param[in]  breakpara: TIMER break parameter struct
 703:C:/Users/49542/Desktop/GD32F30x_Demo_Suites_V2.0.0/GD32F30x_Demo_Suites_V2.0.0/GD32F30x_Firmware_Library/GD32F30x_standard_peripheral/Source\gd32f30x_timer.c ****                 runoffstate: TIMER_ROS_STATE_ENABLE,TIMER_ROS_STATE_DISABLE
 704:C:/Users/49542/Desktop/GD32F30x_Demo_Suites_V2.0.0/GD32F30x_Demo_Suites_V2.0.0/GD32F30x_Firmware_Library/GD32F30x_standard_peripheral/Source\gd32f30x_timer.c ****                 ideloffstate: TIMER_IOS_STATE_ENABLE,TIMER_IOS_STATE_DISABLE
 705:C:/Users/49542/Desktop/GD32F30x_Demo_Suites_V2.0.0/GD32F30x_Demo_Suites_V2.0.0/GD32F30x_Firmware_Library/GD32F30x_standard_peripheral/Source\gd32f30x_timer.c ****                 deadtime: 0~255
 706:C:/Users/49542/Desktop/GD32F30x_Demo_Suites_V2.0.0/GD32F30x_Demo_Suites_V2.0.0/GD32F30x_Firmware_Library/GD32F30x_standard_peripheral/Source\gd32f30x_timer.c ****                 breakpolarity: TIMER_BREAK_POLARITY_LOW,TIMER_BREAK_POLARITY_HIGH
 707:C:/Users/49542/Desktop/GD32F30x_Demo_Suites_V2.0.0/GD32F30x_Demo_Suites_V2.0.0/GD32F30x_Firmware_Library/GD32F30x_standard_peripheral/Source\gd32f30x_timer.c ****                 outputautostate: TIMER_OUTAUTO_ENABLE,TIMER_OUTAUTO_DISABLE
 708:C:/Users/49542/Desktop/GD32F30x_Demo_Suites_V2.0.0/GD32F30x_Demo_Suites_V2.0.0/GD32F30x_Firmware_Library/GD32F30x_standard_peripheral/Source\gd32f30x_timer.c ****                 protectmode: TIMER_CCHP_PROT_OFF,TIMER_CCHP_PROT_0,TIMER_CCHP_PROT_1,TIMER_CCHP_PRO
 709:C:/Users/49542/Desktop/GD32F30x_Demo_Suites_V2.0.0/GD32F30x_Demo_Suites_V2.0.0/GD32F30x_Firmware_Library/GD32F30x_standard_peripheral/Source\gd32f30x_timer.c ****                 breakstate: TIMER_BREAK_ENABLE,TIMER_BREAK_DISABLE
 710:C:/Users/49542/Desktop/GD32F30x_Demo_Suites_V2.0.0/GD32F30x_Demo_Suites_V2.0.0/GD32F30x_Firmware_Library/GD32F30x_standard_peripheral/Source\gd32f30x_timer.c ****     \param[out] none
 711:C:/Users/49542/Desktop/GD32F30x_Demo_Suites_V2.0.0/GD32F30x_Demo_Suites_V2.0.0/GD32F30x_Firmware_Library/GD32F30x_standard_peripheral/Source\gd32f30x_timer.c ****     \retval     none
 712:C:/Users/49542/Desktop/GD32F30x_Demo_Suites_V2.0.0/GD32F30x_Demo_Suites_V2.0.0/GD32F30x_Firmware_Library/GD32F30x_standard_peripheral/Source\gd32f30x_timer.c **** */
 713:C:/Users/49542/Desktop/GD32F30x_Demo_Suites_V2.0.0/GD32F30x_Demo_Suites_V2.0.0/GD32F30x_Firmware_Library/GD32F30x_standard_peripheral/Source\gd32f30x_timer.c **** void timer_break_config(uint32_t timer_periph, timer_break_parameter_struct* breakpara)
 714:C:/Users/49542/Desktop/GD32F30x_Demo_Suites_V2.0.0/GD32F30x_Demo_Suites_V2.0.0/GD32F30x_Firmware_Library/GD32F30x_standard_peripheral/Source\gd32f30x_timer.c **** {
 2145              		.loc 1 714 0
 2146              		.cfi_startproc
 2147              		@ args = 0, pretend = 0, frame = 8
 2148              		@ frame_needed = 1, uses_anonymous_args = 0
 2149              		@ link register save eliminated.
 2150 0000 80B4     		push	{r7}
ARM GAS  C:\Users\49542\AppData\Local\Temp\ccx6VnNU.s 			page 51


 2151              	.LCFI191:
 2152              		.cfi_def_cfa_offset 4
 2153              		.cfi_offset 7, -4
 2154 0002 83B0     		sub	sp, sp, #12
 2155              	.LCFI192:
 2156              		.cfi_def_cfa_offset 16
 2157 0004 00AF     		add	r7, sp, #0
 2158              	.LCFI193:
 2159              		.cfi_def_cfa_register 7
 2160 0006 7860     		str	r0, [r7, #4]
 2161 0008 3960     		str	r1, [r7]
 715:C:/Users/49542/Desktop/GD32F30x_Demo_Suites_V2.0.0/GD32F30x_Demo_Suites_V2.0.0/GD32F30x_Firmware_Library/GD32F30x_standard_peripheral/Source\gd32f30x_timer.c ****     TIMER_CCHP(timer_periph) = (uint32_t)(((uint32_t)(breakpara->runoffstate))|
 2162              		.loc 1 715 0
 2163 000a 3B68     		ldr	r3, [r7]
 2164 000c 1A88     		ldrh	r2, [r3]
 716:C:/Users/49542/Desktop/GD32F30x_Demo_Suites_V2.0.0/GD32F30x_Demo_Suites_V2.0.0/GD32F30x_Firmware_Library/GD32F30x_standard_peripheral/Source\gd32f30x_timer.c ****                                           ((uint32_t)(breakpara->ideloffstate))|
 2165              		.loc 1 716 0
 2166 000e 3B68     		ldr	r3, [r7]
 2167 0010 5B88     		ldrh	r3, [r3, #2]
 715:C:/Users/49542/Desktop/GD32F30x_Demo_Suites_V2.0.0/GD32F30x_Demo_Suites_V2.0.0/GD32F30x_Firmware_Library/GD32F30x_standard_peripheral/Source\gd32f30x_timer.c ****     TIMER_CCHP(timer_periph) = (uint32_t)(((uint32_t)(breakpara->runoffstate))|
 2168              		.loc 1 715 0
 2169 0012 1343     		orrs	r3, r3, r2
 2170 0014 9AB2     		uxth	r2, r3
 717:C:/Users/49542/Desktop/GD32F30x_Demo_Suites_V2.0.0/GD32F30x_Demo_Suites_V2.0.0/GD32F30x_Firmware_Library/GD32F30x_standard_peripheral/Source\gd32f30x_timer.c ****                                           ((uint32_t)(breakpara->deadtime))|
 2171              		.loc 1 717 0
 2172 0016 3B68     		ldr	r3, [r7]
 2173 0018 9B88     		ldrh	r3, [r3, #4]
 715:C:/Users/49542/Desktop/GD32F30x_Demo_Suites_V2.0.0/GD32F30x_Demo_Suites_V2.0.0/GD32F30x_Firmware_Library/GD32F30x_standard_peripheral/Source\gd32f30x_timer.c ****     TIMER_CCHP(timer_periph) = (uint32_t)(((uint32_t)(breakpara->runoffstate))|
 2174              		.loc 1 715 0
 2175 001a 1343     		orrs	r3, r3, r2
 2176 001c 9AB2     		uxth	r2, r3
 718:C:/Users/49542/Desktop/GD32F30x_Demo_Suites_V2.0.0/GD32F30x_Demo_Suites_V2.0.0/GD32F30x_Firmware_Library/GD32F30x_standard_peripheral/Source\gd32f30x_timer.c ****                                           ((uint32_t)(breakpara->breakpolarity))|
 2177              		.loc 1 718 0
 2178 001e 3B68     		ldr	r3, [r7]
 2179 0020 DB88     		ldrh	r3, [r3, #6]
 715:C:/Users/49542/Desktop/GD32F30x_Demo_Suites_V2.0.0/GD32F30x_Demo_Suites_V2.0.0/GD32F30x_Firmware_Library/GD32F30x_standard_peripheral/Source\gd32f30x_timer.c ****                                           ((uint32_t)(breakpara->ideloffstate))|
 2180              		.loc 1 715 0
 2181 0022 1343     		orrs	r3, r3, r2
 2182 0024 9AB2     		uxth	r2, r3
 719:C:/Users/49542/Desktop/GD32F30x_Demo_Suites_V2.0.0/GD32F30x_Demo_Suites_V2.0.0/GD32F30x_Firmware_Library/GD32F30x_standard_peripheral/Source\gd32f30x_timer.c ****                                           ((uint32_t)(breakpara->outputautostate)) |
 2183              		.loc 1 719 0
 2184 0026 3B68     		ldr	r3, [r7]
 2185 0028 1B89     		ldrh	r3, [r3, #8]
 715:C:/Users/49542/Desktop/GD32F30x_Demo_Suites_V2.0.0/GD32F30x_Demo_Suites_V2.0.0/GD32F30x_Firmware_Library/GD32F30x_standard_peripheral/Source\gd32f30x_timer.c ****                                           ((uint32_t)(breakpara->ideloffstate))|
 2186              		.loc 1 715 0
 2187 002a 1343     		orrs	r3, r3, r2
 2188 002c 9AB2     		uxth	r2, r3
 720:C:/Users/49542/Desktop/GD32F30x_Demo_Suites_V2.0.0/GD32F30x_Demo_Suites_V2.0.0/GD32F30x_Firmware_Library/GD32F30x_standard_peripheral/Source\gd32f30x_timer.c ****                                           ((uint32_t)(breakpara->protectmode))|
 2189              		.loc 1 720 0
 2190 002e 3B68     		ldr	r3, [r7]
 2191 0030 5B89     		ldrh	r3, [r3, #10]
 715:C:/Users/49542/Desktop/GD32F30x_Demo_Suites_V2.0.0/GD32F30x_Demo_Suites_V2.0.0/GD32F30x_Firmware_Library/GD32F30x_standard_peripheral/Source\gd32f30x_timer.c ****                                           ((uint32_t)(breakpara->ideloffstate))|
 2192              		.loc 1 715 0
 2193 0032 1343     		orrs	r3, r3, r2
 2194 0034 9AB2     		uxth	r2, r3
 721:C:/Users/49542/Desktop/GD32F30x_Demo_Suites_V2.0.0/GD32F30x_Demo_Suites_V2.0.0/GD32F30x_Firmware_Library/GD32F30x_standard_peripheral/Source\gd32f30x_timer.c ****                                           ((uint32_t)(breakpara->breakstate))) ;
 2195              		.loc 1 721 0
ARM GAS  C:\Users\49542\AppData\Local\Temp\ccx6VnNU.s 			page 52


 2196 0036 3B68     		ldr	r3, [r7]
 2197 0038 9B89     		ldrh	r3, [r3, #12]
 715:C:/Users/49542/Desktop/GD32F30x_Demo_Suites_V2.0.0/GD32F30x_Demo_Suites_V2.0.0/GD32F30x_Firmware_Library/GD32F30x_standard_peripheral/Source\gd32f30x_timer.c ****                                           ((uint32_t)(breakpara->ideloffstate))|
 2198              		.loc 1 715 0
 2199 003a 1343     		orrs	r3, r3, r2
 2200 003c 9AB2     		uxth	r2, r3
 2201 003e 7B68     		ldr	r3, [r7, #4]
 2202 0040 4433     		adds	r3, r3, #68
 2203 0042 1A60     		str	r2, [r3]
 722:C:/Users/49542/Desktop/GD32F30x_Demo_Suites_V2.0.0/GD32F30x_Demo_Suites_V2.0.0/GD32F30x_Firmware_Library/GD32F30x_standard_peripheral/Source\gd32f30x_timer.c **** }
 2204              		.loc 1 722 0
 2205 0044 00BF     		nop
 2206 0046 0C37     		adds	r7, r7, #12
 2207              	.LCFI194:
 2208              		.cfi_def_cfa_offset 4
 2209 0048 BD46     		mov	sp, r7
 2210              	.LCFI195:
 2211              		.cfi_def_cfa_register 13
 2212              		@ sp needed
 2213 004a 5DF8047B 		ldr	r7, [sp], #4
 2214              	.LCFI196:
 2215              		.cfi_restore 7
 2216              		.cfi_def_cfa_offset 0
 2217 004e 7047     		bx	lr
 2218              		.cfi_endproc
 2219              	.LFE148:
 2221              		.section	.text.timer_break_enable,"ax",%progbits
 2222              		.align	1
 2223              		.global	timer_break_enable
 2224              		.syntax unified
 2225              		.thumb
 2226              		.thumb_func
 2227              		.fpu fpv4-sp-d16
 2229              	timer_break_enable:
 2230              	.LFB149:
 723:C:/Users/49542/Desktop/GD32F30x_Demo_Suites_V2.0.0/GD32F30x_Demo_Suites_V2.0.0/GD32F30x_Firmware_Library/GD32F30x_standard_peripheral/Source\gd32f30x_timer.c **** 
 724:C:/Users/49542/Desktop/GD32F30x_Demo_Suites_V2.0.0/GD32F30x_Demo_Suites_V2.0.0/GD32F30x_Firmware_Library/GD32F30x_standard_peripheral/Source\gd32f30x_timer.c **** /*!
 725:C:/Users/49542/Desktop/GD32F30x_Demo_Suites_V2.0.0/GD32F30x_Demo_Suites_V2.0.0/GD32F30x_Firmware_Library/GD32F30x_standard_peripheral/Source\gd32f30x_timer.c ****     \brief      enable TIMER break function
 726:C:/Users/49542/Desktop/GD32F30x_Demo_Suites_V2.0.0/GD32F30x_Demo_Suites_V2.0.0/GD32F30x_Firmware_Library/GD32F30x_standard_peripheral/Source\gd32f30x_timer.c ****     \param[in]  timer_periph: TIMERx(x=0,7)
 727:C:/Users/49542/Desktop/GD32F30x_Demo_Suites_V2.0.0/GD32F30x_Demo_Suites_V2.0.0/GD32F30x_Firmware_Library/GD32F30x_standard_peripheral/Source\gd32f30x_timer.c ****     \param[out] none
 728:C:/Users/49542/Desktop/GD32F30x_Demo_Suites_V2.0.0/GD32F30x_Demo_Suites_V2.0.0/GD32F30x_Firmware_Library/GD32F30x_standard_peripheral/Source\gd32f30x_timer.c ****     \retval     none
 729:C:/Users/49542/Desktop/GD32F30x_Demo_Suites_V2.0.0/GD32F30x_Demo_Suites_V2.0.0/GD32F30x_Firmware_Library/GD32F30x_standard_peripheral/Source\gd32f30x_timer.c **** */
 730:C:/Users/49542/Desktop/GD32F30x_Demo_Suites_V2.0.0/GD32F30x_Demo_Suites_V2.0.0/GD32F30x_Firmware_Library/GD32F30x_standard_peripheral/Source\gd32f30x_timer.c **** void timer_break_enable(uint32_t timer_periph)
 731:C:/Users/49542/Desktop/GD32F30x_Demo_Suites_V2.0.0/GD32F30x_Demo_Suites_V2.0.0/GD32F30x_Firmware_Library/GD32F30x_standard_peripheral/Source\gd32f30x_timer.c **** {
 2231              		.loc 1 731 0
 2232              		.cfi_startproc
 2233              		@ args = 0, pretend = 0, frame = 8
 2234              		@ frame_needed = 1, uses_anonymous_args = 0
 2235              		@ link register save eliminated.
 2236 0000 80B4     		push	{r7}
 2237              	.LCFI197:
 2238              		.cfi_def_cfa_offset 4
 2239              		.cfi_offset 7, -4
 2240 0002 83B0     		sub	sp, sp, #12
 2241              	.LCFI198:
 2242              		.cfi_def_cfa_offset 16
 2243 0004 00AF     		add	r7, sp, #0
ARM GAS  C:\Users\49542\AppData\Local\Temp\ccx6VnNU.s 			page 53


 2244              	.LCFI199:
 2245              		.cfi_def_cfa_register 7
 2246 0006 7860     		str	r0, [r7, #4]
 732:C:/Users/49542/Desktop/GD32F30x_Demo_Suites_V2.0.0/GD32F30x_Demo_Suites_V2.0.0/GD32F30x_Firmware_Library/GD32F30x_standard_peripheral/Source\gd32f30x_timer.c ****     TIMER_CCHP(timer_periph) |= (uint32_t)TIMER_CCHP_BRKEN;
 2247              		.loc 1 732 0
 2248 0008 7B68     		ldr	r3, [r7, #4]
 2249 000a 4433     		adds	r3, r3, #68
 2250 000c 1B68     		ldr	r3, [r3]
 2251 000e 7A68     		ldr	r2, [r7, #4]
 2252 0010 4432     		adds	r2, r2, #68
 2253 0012 43F48053 		orr	r3, r3, #4096
 2254 0016 1360     		str	r3, [r2]
 733:C:/Users/49542/Desktop/GD32F30x_Demo_Suites_V2.0.0/GD32F30x_Demo_Suites_V2.0.0/GD32F30x_Firmware_Library/GD32F30x_standard_peripheral/Source\gd32f30x_timer.c **** }
 2255              		.loc 1 733 0
 2256 0018 00BF     		nop
 2257 001a 0C37     		adds	r7, r7, #12
 2258              	.LCFI200:
 2259              		.cfi_def_cfa_offset 4
 2260 001c BD46     		mov	sp, r7
 2261              	.LCFI201:
 2262              		.cfi_def_cfa_register 13
 2263              		@ sp needed
 2264 001e 5DF8047B 		ldr	r7, [sp], #4
 2265              	.LCFI202:
 2266              		.cfi_restore 7
 2267              		.cfi_def_cfa_offset 0
 2268 0022 7047     		bx	lr
 2269              		.cfi_endproc
 2270              	.LFE149:
 2272              		.section	.text.timer_break_disable,"ax",%progbits
 2273              		.align	1
 2274              		.global	timer_break_disable
 2275              		.syntax unified
 2276              		.thumb
 2277              		.thumb_func
 2278              		.fpu fpv4-sp-d16
 2280              	timer_break_disable:
 2281              	.LFB150:
 734:C:/Users/49542/Desktop/GD32F30x_Demo_Suites_V2.0.0/GD32F30x_Demo_Suites_V2.0.0/GD32F30x_Firmware_Library/GD32F30x_standard_peripheral/Source\gd32f30x_timer.c **** 
 735:C:/Users/49542/Desktop/GD32F30x_Demo_Suites_V2.0.0/GD32F30x_Demo_Suites_V2.0.0/GD32F30x_Firmware_Library/GD32F30x_standard_peripheral/Source\gd32f30x_timer.c **** /*!
 736:C:/Users/49542/Desktop/GD32F30x_Demo_Suites_V2.0.0/GD32F30x_Demo_Suites_V2.0.0/GD32F30x_Firmware_Library/GD32F30x_standard_peripheral/Source\gd32f30x_timer.c ****     \brief      disable TIMER break function
 737:C:/Users/49542/Desktop/GD32F30x_Demo_Suites_V2.0.0/GD32F30x_Demo_Suites_V2.0.0/GD32F30x_Firmware_Library/GD32F30x_standard_peripheral/Source\gd32f30x_timer.c ****     \param[in]  timer_periph: TIMERx(x=0,7)
 738:C:/Users/49542/Desktop/GD32F30x_Demo_Suites_V2.0.0/GD32F30x_Demo_Suites_V2.0.0/GD32F30x_Firmware_Library/GD32F30x_standard_peripheral/Source\gd32f30x_timer.c ****     \param[out] none
 739:C:/Users/49542/Desktop/GD32F30x_Demo_Suites_V2.0.0/GD32F30x_Demo_Suites_V2.0.0/GD32F30x_Firmware_Library/GD32F30x_standard_peripheral/Source\gd32f30x_timer.c ****     \retval     none
 740:C:/Users/49542/Desktop/GD32F30x_Demo_Suites_V2.0.0/GD32F30x_Demo_Suites_V2.0.0/GD32F30x_Firmware_Library/GD32F30x_standard_peripheral/Source\gd32f30x_timer.c **** */
 741:C:/Users/49542/Desktop/GD32F30x_Demo_Suites_V2.0.0/GD32F30x_Demo_Suites_V2.0.0/GD32F30x_Firmware_Library/GD32F30x_standard_peripheral/Source\gd32f30x_timer.c **** void timer_break_disable(uint32_t timer_periph)
 742:C:/Users/49542/Desktop/GD32F30x_Demo_Suites_V2.0.0/GD32F30x_Demo_Suites_V2.0.0/GD32F30x_Firmware_Library/GD32F30x_standard_peripheral/Source\gd32f30x_timer.c **** {
 2282              		.loc 1 742 0
 2283              		.cfi_startproc
 2284              		@ args = 0, pretend = 0, frame = 8
 2285              		@ frame_needed = 1, uses_anonymous_args = 0
 2286              		@ link register save eliminated.
 2287 0000 80B4     		push	{r7}
 2288              	.LCFI203:
 2289              		.cfi_def_cfa_offset 4
 2290              		.cfi_offset 7, -4
 2291 0002 83B0     		sub	sp, sp, #12
ARM GAS  C:\Users\49542\AppData\Local\Temp\ccx6VnNU.s 			page 54


 2292              	.LCFI204:
 2293              		.cfi_def_cfa_offset 16
 2294 0004 00AF     		add	r7, sp, #0
 2295              	.LCFI205:
 2296              		.cfi_def_cfa_register 7
 2297 0006 7860     		str	r0, [r7, #4]
 743:C:/Users/49542/Desktop/GD32F30x_Demo_Suites_V2.0.0/GD32F30x_Demo_Suites_V2.0.0/GD32F30x_Firmware_Library/GD32F30x_standard_peripheral/Source\gd32f30x_timer.c ****     TIMER_CCHP(timer_periph) &= ~(uint32_t)TIMER_CCHP_BRKEN;
 2298              		.loc 1 743 0
 2299 0008 7B68     		ldr	r3, [r7, #4]
 2300 000a 4433     		adds	r3, r3, #68
 2301 000c 1B68     		ldr	r3, [r3]
 2302 000e 7A68     		ldr	r2, [r7, #4]
 2303 0010 4432     		adds	r2, r2, #68
 2304 0012 23F48053 		bic	r3, r3, #4096
 2305 0016 1360     		str	r3, [r2]
 744:C:/Users/49542/Desktop/GD32F30x_Demo_Suites_V2.0.0/GD32F30x_Demo_Suites_V2.0.0/GD32F30x_Firmware_Library/GD32F30x_standard_peripheral/Source\gd32f30x_timer.c **** }
 2306              		.loc 1 744 0
 2307 0018 00BF     		nop
 2308 001a 0C37     		adds	r7, r7, #12
 2309              	.LCFI206:
 2310              		.cfi_def_cfa_offset 4
 2311 001c BD46     		mov	sp, r7
 2312              	.LCFI207:
 2313              		.cfi_def_cfa_register 13
 2314              		@ sp needed
 2315 001e 5DF8047B 		ldr	r7, [sp], #4
 2316              	.LCFI208:
 2317              		.cfi_restore 7
 2318              		.cfi_def_cfa_offset 0
 2319 0022 7047     		bx	lr
 2320              		.cfi_endproc
 2321              	.LFE150:
 2323              		.section	.text.timer_automatic_output_enable,"ax",%progbits
 2324              		.align	1
 2325              		.global	timer_automatic_output_enable
 2326              		.syntax unified
 2327              		.thumb
 2328              		.thumb_func
 2329              		.fpu fpv4-sp-d16
 2331              	timer_automatic_output_enable:
 2332              	.LFB151:
 745:C:/Users/49542/Desktop/GD32F30x_Demo_Suites_V2.0.0/GD32F30x_Demo_Suites_V2.0.0/GD32F30x_Firmware_Library/GD32F30x_standard_peripheral/Source\gd32f30x_timer.c **** 
 746:C:/Users/49542/Desktop/GD32F30x_Demo_Suites_V2.0.0/GD32F30x_Demo_Suites_V2.0.0/GD32F30x_Firmware_Library/GD32F30x_standard_peripheral/Source\gd32f30x_timer.c **** /*!
 747:C:/Users/49542/Desktop/GD32F30x_Demo_Suites_V2.0.0/GD32F30x_Demo_Suites_V2.0.0/GD32F30x_Firmware_Library/GD32F30x_standard_peripheral/Source\gd32f30x_timer.c ****     \brief      enable TIMER output automatic function
 748:C:/Users/49542/Desktop/GD32F30x_Demo_Suites_V2.0.0/GD32F30x_Demo_Suites_V2.0.0/GD32F30x_Firmware_Library/GD32F30x_standard_peripheral/Source\gd32f30x_timer.c ****     \param[in]  timer_periph: TIMERx(x=0,7)
 749:C:/Users/49542/Desktop/GD32F30x_Demo_Suites_V2.0.0/GD32F30x_Demo_Suites_V2.0.0/GD32F30x_Firmware_Library/GD32F30x_standard_peripheral/Source\gd32f30x_timer.c ****     \param[out] none
 750:C:/Users/49542/Desktop/GD32F30x_Demo_Suites_V2.0.0/GD32F30x_Demo_Suites_V2.0.0/GD32F30x_Firmware_Library/GD32F30x_standard_peripheral/Source\gd32f30x_timer.c ****     \retval     none
 751:C:/Users/49542/Desktop/GD32F30x_Demo_Suites_V2.0.0/GD32F30x_Demo_Suites_V2.0.0/GD32F30x_Firmware_Library/GD32F30x_standard_peripheral/Source\gd32f30x_timer.c **** */
 752:C:/Users/49542/Desktop/GD32F30x_Demo_Suites_V2.0.0/GD32F30x_Demo_Suites_V2.0.0/GD32F30x_Firmware_Library/GD32F30x_standard_peripheral/Source\gd32f30x_timer.c **** void timer_automatic_output_enable(uint32_t timer_periph)
 753:C:/Users/49542/Desktop/GD32F30x_Demo_Suites_V2.0.0/GD32F30x_Demo_Suites_V2.0.0/GD32F30x_Firmware_Library/GD32F30x_standard_peripheral/Source\gd32f30x_timer.c **** {
 2333              		.loc 1 753 0
 2334              		.cfi_startproc
 2335              		@ args = 0, pretend = 0, frame = 8
 2336              		@ frame_needed = 1, uses_anonymous_args = 0
 2337              		@ link register save eliminated.
 2338 0000 80B4     		push	{r7}
 2339              	.LCFI209:
ARM GAS  C:\Users\49542\AppData\Local\Temp\ccx6VnNU.s 			page 55


 2340              		.cfi_def_cfa_offset 4
 2341              		.cfi_offset 7, -4
 2342 0002 83B0     		sub	sp, sp, #12
 2343              	.LCFI210:
 2344              		.cfi_def_cfa_offset 16
 2345 0004 00AF     		add	r7, sp, #0
 2346              	.LCFI211:
 2347              		.cfi_def_cfa_register 7
 2348 0006 7860     		str	r0, [r7, #4]
 754:C:/Users/49542/Desktop/GD32F30x_Demo_Suites_V2.0.0/GD32F30x_Demo_Suites_V2.0.0/GD32F30x_Firmware_Library/GD32F30x_standard_peripheral/Source\gd32f30x_timer.c ****     TIMER_CCHP(timer_periph) |= (uint32_t)TIMER_CCHP_OAEN;
 2349              		.loc 1 754 0
 2350 0008 7B68     		ldr	r3, [r7, #4]
 2351 000a 4433     		adds	r3, r3, #68
 2352 000c 1B68     		ldr	r3, [r3]
 2353 000e 7A68     		ldr	r2, [r7, #4]
 2354 0010 4432     		adds	r2, r2, #68
 2355 0012 43F48043 		orr	r3, r3, #16384
 2356 0016 1360     		str	r3, [r2]
 755:C:/Users/49542/Desktop/GD32F30x_Demo_Suites_V2.0.0/GD32F30x_Demo_Suites_V2.0.0/GD32F30x_Firmware_Library/GD32F30x_standard_peripheral/Source\gd32f30x_timer.c **** }
 2357              		.loc 1 755 0
 2358 0018 00BF     		nop
 2359 001a 0C37     		adds	r7, r7, #12
 2360              	.LCFI212:
 2361              		.cfi_def_cfa_offset 4
 2362 001c BD46     		mov	sp, r7
 2363              	.LCFI213:
 2364              		.cfi_def_cfa_register 13
 2365              		@ sp needed
 2366 001e 5DF8047B 		ldr	r7, [sp], #4
 2367              	.LCFI214:
 2368              		.cfi_restore 7
 2369              		.cfi_def_cfa_offset 0
 2370 0022 7047     		bx	lr
 2371              		.cfi_endproc
 2372              	.LFE151:
 2374              		.section	.text.timer_automatic_output_disable,"ax",%progbits
 2375              		.align	1
 2376              		.global	timer_automatic_output_disable
 2377              		.syntax unified
 2378              		.thumb
 2379              		.thumb_func
 2380              		.fpu fpv4-sp-d16
 2382              	timer_automatic_output_disable:
 2383              	.LFB152:
 756:C:/Users/49542/Desktop/GD32F30x_Demo_Suites_V2.0.0/GD32F30x_Demo_Suites_V2.0.0/GD32F30x_Firmware_Library/GD32F30x_standard_peripheral/Source\gd32f30x_timer.c **** 
 757:C:/Users/49542/Desktop/GD32F30x_Demo_Suites_V2.0.0/GD32F30x_Demo_Suites_V2.0.0/GD32F30x_Firmware_Library/GD32F30x_standard_peripheral/Source\gd32f30x_timer.c **** /*!
 758:C:/Users/49542/Desktop/GD32F30x_Demo_Suites_V2.0.0/GD32F30x_Demo_Suites_V2.0.0/GD32F30x_Firmware_Library/GD32F30x_standard_peripheral/Source\gd32f30x_timer.c ****     \brief      disable TIMER output automatic function
 759:C:/Users/49542/Desktop/GD32F30x_Demo_Suites_V2.0.0/GD32F30x_Demo_Suites_V2.0.0/GD32F30x_Firmware_Library/GD32F30x_standard_peripheral/Source\gd32f30x_timer.c ****     \param[in]  timer_periph: TIMERx(x=0,7)
 760:C:/Users/49542/Desktop/GD32F30x_Demo_Suites_V2.0.0/GD32F30x_Demo_Suites_V2.0.0/GD32F30x_Firmware_Library/GD32F30x_standard_peripheral/Source\gd32f30x_timer.c ****     \param[out] none
 761:C:/Users/49542/Desktop/GD32F30x_Demo_Suites_V2.0.0/GD32F30x_Demo_Suites_V2.0.0/GD32F30x_Firmware_Library/GD32F30x_standard_peripheral/Source\gd32f30x_timer.c ****     \retval     none
 762:C:/Users/49542/Desktop/GD32F30x_Demo_Suites_V2.0.0/GD32F30x_Demo_Suites_V2.0.0/GD32F30x_Firmware_Library/GD32F30x_standard_peripheral/Source\gd32f30x_timer.c **** */
 763:C:/Users/49542/Desktop/GD32F30x_Demo_Suites_V2.0.0/GD32F30x_Demo_Suites_V2.0.0/GD32F30x_Firmware_Library/GD32F30x_standard_peripheral/Source\gd32f30x_timer.c **** void timer_automatic_output_disable(uint32_t timer_periph)
 764:C:/Users/49542/Desktop/GD32F30x_Demo_Suites_V2.0.0/GD32F30x_Demo_Suites_V2.0.0/GD32F30x_Firmware_Library/GD32F30x_standard_peripheral/Source\gd32f30x_timer.c **** {
 2384              		.loc 1 764 0
 2385              		.cfi_startproc
 2386              		@ args = 0, pretend = 0, frame = 8
 2387              		@ frame_needed = 1, uses_anonymous_args = 0
ARM GAS  C:\Users\49542\AppData\Local\Temp\ccx6VnNU.s 			page 56


 2388              		@ link register save eliminated.
 2389 0000 80B4     		push	{r7}
 2390              	.LCFI215:
 2391              		.cfi_def_cfa_offset 4
 2392              		.cfi_offset 7, -4
 2393 0002 83B0     		sub	sp, sp, #12
 2394              	.LCFI216:
 2395              		.cfi_def_cfa_offset 16
 2396 0004 00AF     		add	r7, sp, #0
 2397              	.LCFI217:
 2398              		.cfi_def_cfa_register 7
 2399 0006 7860     		str	r0, [r7, #4]
 765:C:/Users/49542/Desktop/GD32F30x_Demo_Suites_V2.0.0/GD32F30x_Demo_Suites_V2.0.0/GD32F30x_Firmware_Library/GD32F30x_standard_peripheral/Source\gd32f30x_timer.c ****     TIMER_CCHP(timer_periph) &= ~(uint32_t)TIMER_CCHP_OAEN;
 2400              		.loc 1 765 0
 2401 0008 7B68     		ldr	r3, [r7, #4]
 2402 000a 4433     		adds	r3, r3, #68
 2403 000c 1B68     		ldr	r3, [r3]
 2404 000e 7A68     		ldr	r2, [r7, #4]
 2405 0010 4432     		adds	r2, r2, #68
 2406 0012 23F48043 		bic	r3, r3, #16384
 2407 0016 1360     		str	r3, [r2]
 766:C:/Users/49542/Desktop/GD32F30x_Demo_Suites_V2.0.0/GD32F30x_Demo_Suites_V2.0.0/GD32F30x_Firmware_Library/GD32F30x_standard_peripheral/Source\gd32f30x_timer.c **** }
 2408              		.loc 1 766 0
 2409 0018 00BF     		nop
 2410 001a 0C37     		adds	r7, r7, #12
 2411              	.LCFI218:
 2412              		.cfi_def_cfa_offset 4
 2413 001c BD46     		mov	sp, r7
 2414              	.LCFI219:
 2415              		.cfi_def_cfa_register 13
 2416              		@ sp needed
 2417 001e 5DF8047B 		ldr	r7, [sp], #4
 2418              	.LCFI220:
 2419              		.cfi_restore 7
 2420              		.cfi_def_cfa_offset 0
 2421 0022 7047     		bx	lr
 2422              		.cfi_endproc
 2423              	.LFE152:
 2425              		.section	.text.timer_primary_output_config,"ax",%progbits
 2426              		.align	1
 2427              		.global	timer_primary_output_config
 2428              		.syntax unified
 2429              		.thumb
 2430              		.thumb_func
 2431              		.fpu fpv4-sp-d16
 2433              	timer_primary_output_config:
 2434              	.LFB153:
 767:C:/Users/49542/Desktop/GD32F30x_Demo_Suites_V2.0.0/GD32F30x_Demo_Suites_V2.0.0/GD32F30x_Firmware_Library/GD32F30x_standard_peripheral/Source\gd32f30x_timer.c **** 
 768:C:/Users/49542/Desktop/GD32F30x_Demo_Suites_V2.0.0/GD32F30x_Demo_Suites_V2.0.0/GD32F30x_Firmware_Library/GD32F30x_standard_peripheral/Source\gd32f30x_timer.c **** /*!
 769:C:/Users/49542/Desktop/GD32F30x_Demo_Suites_V2.0.0/GD32F30x_Demo_Suites_V2.0.0/GD32F30x_Firmware_Library/GD32F30x_standard_peripheral/Source\gd32f30x_timer.c ****     \brief      configure TIMER primary output function
 770:C:/Users/49542/Desktop/GD32F30x_Demo_Suites_V2.0.0/GD32F30x_Demo_Suites_V2.0.0/GD32F30x_Firmware_Library/GD32F30x_standard_peripheral/Source\gd32f30x_timer.c ****     \param[in]  timer_periph: TIMERx(x=0,7)
 771:C:/Users/49542/Desktop/GD32F30x_Demo_Suites_V2.0.0/GD32F30x_Demo_Suites_V2.0.0/GD32F30x_Firmware_Library/GD32F30x_standard_peripheral/Source\gd32f30x_timer.c ****     \param[in]  newvalue: ENABLE or DISABLE
 772:C:/Users/49542/Desktop/GD32F30x_Demo_Suites_V2.0.0/GD32F30x_Demo_Suites_V2.0.0/GD32F30x_Firmware_Library/GD32F30x_standard_peripheral/Source\gd32f30x_timer.c ****     \param[out] none
 773:C:/Users/49542/Desktop/GD32F30x_Demo_Suites_V2.0.0/GD32F30x_Demo_Suites_V2.0.0/GD32F30x_Firmware_Library/GD32F30x_standard_peripheral/Source\gd32f30x_timer.c ****     \retval     none
 774:C:/Users/49542/Desktop/GD32F30x_Demo_Suites_V2.0.0/GD32F30x_Demo_Suites_V2.0.0/GD32F30x_Firmware_Library/GD32F30x_standard_peripheral/Source\gd32f30x_timer.c **** */
 775:C:/Users/49542/Desktop/GD32F30x_Demo_Suites_V2.0.0/GD32F30x_Demo_Suites_V2.0.0/GD32F30x_Firmware_Library/GD32F30x_standard_peripheral/Source\gd32f30x_timer.c **** void timer_primary_output_config(uint32_t timer_periph, ControlStatus newvalue)
 776:C:/Users/49542/Desktop/GD32F30x_Demo_Suites_V2.0.0/GD32F30x_Demo_Suites_V2.0.0/GD32F30x_Firmware_Library/GD32F30x_standard_peripheral/Source\gd32f30x_timer.c **** {
ARM GAS  C:\Users\49542\AppData\Local\Temp\ccx6VnNU.s 			page 57


 2435              		.loc 1 776 0
 2436              		.cfi_startproc
 2437              		@ args = 0, pretend = 0, frame = 8
 2438              		@ frame_needed = 1, uses_anonymous_args = 0
 2439              		@ link register save eliminated.
 2440 0000 80B4     		push	{r7}
 2441              	.LCFI221:
 2442              		.cfi_def_cfa_offset 4
 2443              		.cfi_offset 7, -4
 2444 0002 83B0     		sub	sp, sp, #12
 2445              	.LCFI222:
 2446              		.cfi_def_cfa_offset 16
 2447 0004 00AF     		add	r7, sp, #0
 2448              	.LCFI223:
 2449              		.cfi_def_cfa_register 7
 2450 0006 7860     		str	r0, [r7, #4]
 2451 0008 0B46     		mov	r3, r1
 2452 000a FB70     		strb	r3, [r7, #3]
 777:C:/Users/49542/Desktop/GD32F30x_Demo_Suites_V2.0.0/GD32F30x_Demo_Suites_V2.0.0/GD32F30x_Firmware_Library/GD32F30x_standard_peripheral/Source\gd32f30x_timer.c ****     if(ENABLE == newvalue){
 2453              		.loc 1 777 0
 2454 000c FB78     		ldrb	r3, [r7, #3]	@ zero_extendqisi2
 2455 000e 012B     		cmp	r3, #1
 2456 0010 08D1     		bne	.L84
 778:C:/Users/49542/Desktop/GD32F30x_Demo_Suites_V2.0.0/GD32F30x_Demo_Suites_V2.0.0/GD32F30x_Firmware_Library/GD32F30x_standard_peripheral/Source\gd32f30x_timer.c ****         TIMER_CCHP(timer_periph) |= (uint32_t)TIMER_CCHP_POEN;
 2457              		.loc 1 778 0
 2458 0012 7B68     		ldr	r3, [r7, #4]
 2459 0014 4433     		adds	r3, r3, #68
 2460 0016 1B68     		ldr	r3, [r3]
 2461 0018 7A68     		ldr	r2, [r7, #4]
 2462 001a 4432     		adds	r2, r2, #68
 2463 001c 43F40043 		orr	r3, r3, #32768
 2464 0020 1360     		str	r3, [r2]
 779:C:/Users/49542/Desktop/GD32F30x_Demo_Suites_V2.0.0/GD32F30x_Demo_Suites_V2.0.0/GD32F30x_Firmware_Library/GD32F30x_standard_peripheral/Source\gd32f30x_timer.c ****     }else{
 780:C:/Users/49542/Desktop/GD32F30x_Demo_Suites_V2.0.0/GD32F30x_Demo_Suites_V2.0.0/GD32F30x_Firmware_Library/GD32F30x_standard_peripheral/Source\gd32f30x_timer.c ****         TIMER_CCHP(timer_periph) &= (~(uint32_t)TIMER_CCHP_POEN);
 781:C:/Users/49542/Desktop/GD32F30x_Demo_Suites_V2.0.0/GD32F30x_Demo_Suites_V2.0.0/GD32F30x_Firmware_Library/GD32F30x_standard_peripheral/Source\gd32f30x_timer.c ****     }
 782:C:/Users/49542/Desktop/GD32F30x_Demo_Suites_V2.0.0/GD32F30x_Demo_Suites_V2.0.0/GD32F30x_Firmware_Library/GD32F30x_standard_peripheral/Source\gd32f30x_timer.c **** }
 2465              		.loc 1 782 0
 2466 0022 07E0     		b	.L86
 2467              	.L84:
 780:C:/Users/49542/Desktop/GD32F30x_Demo_Suites_V2.0.0/GD32F30x_Demo_Suites_V2.0.0/GD32F30x_Firmware_Library/GD32F30x_standard_peripheral/Source\gd32f30x_timer.c ****     }
 2468              		.loc 1 780 0
 2469 0024 7B68     		ldr	r3, [r7, #4]
 2470 0026 4433     		adds	r3, r3, #68
 2471 0028 1B68     		ldr	r3, [r3]
 2472 002a 7A68     		ldr	r2, [r7, #4]
 2473 002c 4432     		adds	r2, r2, #68
 2474 002e 23F40043 		bic	r3, r3, #32768
 2475 0032 1360     		str	r3, [r2]
 2476              	.L86:
 2477              		.loc 1 782 0
 2478 0034 00BF     		nop
 2479 0036 0C37     		adds	r7, r7, #12
 2480              	.LCFI224:
 2481              		.cfi_def_cfa_offset 4
 2482 0038 BD46     		mov	sp, r7
 2483              	.LCFI225:
 2484              		.cfi_def_cfa_register 13
ARM GAS  C:\Users\49542\AppData\Local\Temp\ccx6VnNU.s 			page 58


 2485              		@ sp needed
 2486 003a 5DF8047B 		ldr	r7, [sp], #4
 2487              	.LCFI226:
 2488              		.cfi_restore 7
 2489              		.cfi_def_cfa_offset 0
 2490 003e 7047     		bx	lr
 2491              		.cfi_endproc
 2492              	.LFE153:
 2494              		.section	.text.timer_channel_control_shadow_config,"ax",%progbits
 2495              		.align	1
 2496              		.global	timer_channel_control_shadow_config
 2497              		.syntax unified
 2498              		.thumb
 2499              		.thumb_func
 2500              		.fpu fpv4-sp-d16
 2502              	timer_channel_control_shadow_config:
 2503              	.LFB154:
 783:C:/Users/49542/Desktop/GD32F30x_Demo_Suites_V2.0.0/GD32F30x_Demo_Suites_V2.0.0/GD32F30x_Firmware_Library/GD32F30x_standard_peripheral/Source\gd32f30x_timer.c **** 
 784:C:/Users/49542/Desktop/GD32F30x_Demo_Suites_V2.0.0/GD32F30x_Demo_Suites_V2.0.0/GD32F30x_Firmware_Library/GD32F30x_standard_peripheral/Source\gd32f30x_timer.c **** /*!
 785:C:/Users/49542/Desktop/GD32F30x_Demo_Suites_V2.0.0/GD32F30x_Demo_Suites_V2.0.0/GD32F30x_Firmware_Library/GD32F30x_standard_peripheral/Source\gd32f30x_timer.c ****     \brief      enable or disable channel capture/compare control shadow register
 786:C:/Users/49542/Desktop/GD32F30x_Demo_Suites_V2.0.0/GD32F30x_Demo_Suites_V2.0.0/GD32F30x_Firmware_Library/GD32F30x_standard_peripheral/Source\gd32f30x_timer.c ****     \param[in]  timer_periph: TIMERx(x=0,7)
 787:C:/Users/49542/Desktop/GD32F30x_Demo_Suites_V2.0.0/GD32F30x_Demo_Suites_V2.0.0/GD32F30x_Firmware_Library/GD32F30x_standard_peripheral/Source\gd32f30x_timer.c ****     \param[in]  newvalue: ENABLE or DISABLE 
 788:C:/Users/49542/Desktop/GD32F30x_Demo_Suites_V2.0.0/GD32F30x_Demo_Suites_V2.0.0/GD32F30x_Firmware_Library/GD32F30x_standard_peripheral/Source\gd32f30x_timer.c ****     \param[out] none
 789:C:/Users/49542/Desktop/GD32F30x_Demo_Suites_V2.0.0/GD32F30x_Demo_Suites_V2.0.0/GD32F30x_Firmware_Library/GD32F30x_standard_peripheral/Source\gd32f30x_timer.c ****     \retval     none
 790:C:/Users/49542/Desktop/GD32F30x_Demo_Suites_V2.0.0/GD32F30x_Demo_Suites_V2.0.0/GD32F30x_Firmware_Library/GD32F30x_standard_peripheral/Source\gd32f30x_timer.c **** */
 791:C:/Users/49542/Desktop/GD32F30x_Demo_Suites_V2.0.0/GD32F30x_Demo_Suites_V2.0.0/GD32F30x_Firmware_Library/GD32F30x_standard_peripheral/Source\gd32f30x_timer.c **** void timer_channel_control_shadow_config(uint32_t timer_periph, ControlStatus newvalue)
 792:C:/Users/49542/Desktop/GD32F30x_Demo_Suites_V2.0.0/GD32F30x_Demo_Suites_V2.0.0/GD32F30x_Firmware_Library/GD32F30x_standard_peripheral/Source\gd32f30x_timer.c **** {
 2504              		.loc 1 792 0
 2505              		.cfi_startproc
 2506              		@ args = 0, pretend = 0, frame = 8
 2507              		@ frame_needed = 1, uses_anonymous_args = 0
 2508              		@ link register save eliminated.
 2509 0000 80B4     		push	{r7}
 2510              	.LCFI227:
 2511              		.cfi_def_cfa_offset 4
 2512              		.cfi_offset 7, -4
 2513 0002 83B0     		sub	sp, sp, #12
 2514              	.LCFI228:
 2515              		.cfi_def_cfa_offset 16
 2516 0004 00AF     		add	r7, sp, #0
 2517              	.LCFI229:
 2518              		.cfi_def_cfa_register 7
 2519 0006 7860     		str	r0, [r7, #4]
 2520 0008 0B46     		mov	r3, r1
 2521 000a FB70     		strb	r3, [r7, #3]
 793:C:/Users/49542/Desktop/GD32F30x_Demo_Suites_V2.0.0/GD32F30x_Demo_Suites_V2.0.0/GD32F30x_Firmware_Library/GD32F30x_standard_peripheral/Source\gd32f30x_timer.c ****      if(ENABLE == newvalue){
 2522              		.loc 1 793 0
 2523 000c FB78     		ldrb	r3, [r7, #3]	@ zero_extendqisi2
 2524 000e 012B     		cmp	r3, #1
 2525 0010 08D1     		bne	.L88
 794:C:/Users/49542/Desktop/GD32F30x_Demo_Suites_V2.0.0/GD32F30x_Demo_Suites_V2.0.0/GD32F30x_Firmware_Library/GD32F30x_standard_peripheral/Source\gd32f30x_timer.c ****         TIMER_CTL1(timer_periph) |= (uint32_t)TIMER_CTL1_CCSE;
 2526              		.loc 1 794 0
 2527 0012 7B68     		ldr	r3, [r7, #4]
 2528 0014 0433     		adds	r3, r3, #4
 2529 0016 1B68     		ldr	r3, [r3]
 2530 0018 7A68     		ldr	r2, [r7, #4]
 2531 001a 0432     		adds	r2, r2, #4
ARM GAS  C:\Users\49542\AppData\Local\Temp\ccx6VnNU.s 			page 59


 2532 001c 43F00103 		orr	r3, r3, #1
 2533 0020 1360     		str	r3, [r2]
 795:C:/Users/49542/Desktop/GD32F30x_Demo_Suites_V2.0.0/GD32F30x_Demo_Suites_V2.0.0/GD32F30x_Firmware_Library/GD32F30x_standard_peripheral/Source\gd32f30x_timer.c ****     }else{
 796:C:/Users/49542/Desktop/GD32F30x_Demo_Suites_V2.0.0/GD32F30x_Demo_Suites_V2.0.0/GD32F30x_Firmware_Library/GD32F30x_standard_peripheral/Source\gd32f30x_timer.c ****         TIMER_CTL1(timer_periph) &= (~(uint32_t)TIMER_CTL1_CCSE);
 797:C:/Users/49542/Desktop/GD32F30x_Demo_Suites_V2.0.0/GD32F30x_Demo_Suites_V2.0.0/GD32F30x_Firmware_Library/GD32F30x_standard_peripheral/Source\gd32f30x_timer.c ****     }
 798:C:/Users/49542/Desktop/GD32F30x_Demo_Suites_V2.0.0/GD32F30x_Demo_Suites_V2.0.0/GD32F30x_Firmware_Library/GD32F30x_standard_peripheral/Source\gd32f30x_timer.c **** }
 2534              		.loc 1 798 0
 2535 0022 07E0     		b	.L90
 2536              	.L88:
 796:C:/Users/49542/Desktop/GD32F30x_Demo_Suites_V2.0.0/GD32F30x_Demo_Suites_V2.0.0/GD32F30x_Firmware_Library/GD32F30x_standard_peripheral/Source\gd32f30x_timer.c ****     }
 2537              		.loc 1 796 0
 2538 0024 7B68     		ldr	r3, [r7, #4]
 2539 0026 0433     		adds	r3, r3, #4
 2540 0028 1B68     		ldr	r3, [r3]
 2541 002a 7A68     		ldr	r2, [r7, #4]
 2542 002c 0432     		adds	r2, r2, #4
 2543 002e 23F00103 		bic	r3, r3, #1
 2544 0032 1360     		str	r3, [r2]
 2545              	.L90:
 2546              		.loc 1 798 0
 2547 0034 00BF     		nop
 2548 0036 0C37     		adds	r7, r7, #12
 2549              	.LCFI230:
 2550              		.cfi_def_cfa_offset 4
 2551 0038 BD46     		mov	sp, r7
 2552              	.LCFI231:
 2553              		.cfi_def_cfa_register 13
 2554              		@ sp needed
 2555 003a 5DF8047B 		ldr	r7, [sp], #4
 2556              	.LCFI232:
 2557              		.cfi_restore 7
 2558              		.cfi_def_cfa_offset 0
 2559 003e 7047     		bx	lr
 2560              		.cfi_endproc
 2561              	.LFE154:
 2563              		.section	.text.timer_channel_control_shadow_update_config,"ax",%progbits
 2564              		.align	1
 2565              		.global	timer_channel_control_shadow_update_config
 2566              		.syntax unified
 2567              		.thumb
 2568              		.thumb_func
 2569              		.fpu fpv4-sp-d16
 2571              	timer_channel_control_shadow_update_config:
 2572              	.LFB155:
 799:C:/Users/49542/Desktop/GD32F30x_Demo_Suites_V2.0.0/GD32F30x_Demo_Suites_V2.0.0/GD32F30x_Firmware_Library/GD32F30x_standard_peripheral/Source\gd32f30x_timer.c **** 
 800:C:/Users/49542/Desktop/GD32F30x_Demo_Suites_V2.0.0/GD32F30x_Demo_Suites_V2.0.0/GD32F30x_Firmware_Library/GD32F30x_standard_peripheral/Source\gd32f30x_timer.c **** /*!
 801:C:/Users/49542/Desktop/GD32F30x_Demo_Suites_V2.0.0/GD32F30x_Demo_Suites_V2.0.0/GD32F30x_Firmware_Library/GD32F30x_standard_peripheral/Source\gd32f30x_timer.c ****     \brief      configure TIMER channel control shadow register update control
 802:C:/Users/49542/Desktop/GD32F30x_Demo_Suites_V2.0.0/GD32F30x_Demo_Suites_V2.0.0/GD32F30x_Firmware_Library/GD32F30x_standard_peripheral/Source\gd32f30x_timer.c ****     \param[in]  timer_periph: TIMERx(x=0,7)
 803:C:/Users/49542/Desktop/GD32F30x_Demo_Suites_V2.0.0/GD32F30x_Demo_Suites_V2.0.0/GD32F30x_Firmware_Library/GD32F30x_standard_peripheral/Source\gd32f30x_timer.c ****     \param[in]  ccuctl: channel control shadow register update control
 804:C:/Users/49542/Desktop/GD32F30x_Demo_Suites_V2.0.0/GD32F30x_Demo_Suites_V2.0.0/GD32F30x_Firmware_Library/GD32F30x_standard_peripheral/Source\gd32f30x_timer.c ****                 only one parameter can be selected which is shown as below:
 805:C:/Users/49542/Desktop/GD32F30x_Demo_Suites_V2.0.0/GD32F30x_Demo_Suites_V2.0.0/GD32F30x_Firmware_Library/GD32F30x_standard_peripheral/Source\gd32f30x_timer.c ****       \arg        TIMER_UPDATECTL_CCU: the shadow registers update by when CMTG bit is set
 806:C:/Users/49542/Desktop/GD32F30x_Demo_Suites_V2.0.0/GD32F30x_Demo_Suites_V2.0.0/GD32F30x_Firmware_Library/GD32F30x_standard_peripheral/Source\gd32f30x_timer.c ****       \arg        TIMER_UPDATECTL_CCUTRI: the shadow registers update by when CMTG bit is set or an
 807:C:/Users/49542/Desktop/GD32F30x_Demo_Suites_V2.0.0/GD32F30x_Demo_Suites_V2.0.0/GD32F30x_Firmware_Library/GD32F30x_standard_peripheral/Source\gd32f30x_timer.c ****     \param[out] none
 808:C:/Users/49542/Desktop/GD32F30x_Demo_Suites_V2.0.0/GD32F30x_Demo_Suites_V2.0.0/GD32F30x_Firmware_Library/GD32F30x_standard_peripheral/Source\gd32f30x_timer.c ****     \retval     none
 809:C:/Users/49542/Desktop/GD32F30x_Demo_Suites_V2.0.0/GD32F30x_Demo_Suites_V2.0.0/GD32F30x_Firmware_Library/GD32F30x_standard_peripheral/Source\gd32f30x_timer.c **** */              
 810:C:/Users/49542/Desktop/GD32F30x_Demo_Suites_V2.0.0/GD32F30x_Demo_Suites_V2.0.0/GD32F30x_Firmware_Library/GD32F30x_standard_peripheral/Source\gd32f30x_timer.c **** void timer_channel_control_shadow_update_config(uint32_t timer_periph, uint8_t ccuctl)
 811:C:/Users/49542/Desktop/GD32F30x_Demo_Suites_V2.0.0/GD32F30x_Demo_Suites_V2.0.0/GD32F30x_Firmware_Library/GD32F30x_standard_peripheral/Source\gd32f30x_timer.c **** {
ARM GAS  C:\Users\49542\AppData\Local\Temp\ccx6VnNU.s 			page 60


 2573              		.loc 1 811 0
 2574              		.cfi_startproc
 2575              		@ args = 0, pretend = 0, frame = 8
 2576              		@ frame_needed = 1, uses_anonymous_args = 0
 2577              		@ link register save eliminated.
 2578 0000 80B4     		push	{r7}
 2579              	.LCFI233:
 2580              		.cfi_def_cfa_offset 4
 2581              		.cfi_offset 7, -4
 2582 0002 83B0     		sub	sp, sp, #12
 2583              	.LCFI234:
 2584              		.cfi_def_cfa_offset 16
 2585 0004 00AF     		add	r7, sp, #0
 2586              	.LCFI235:
 2587              		.cfi_def_cfa_register 7
 2588 0006 7860     		str	r0, [r7, #4]
 2589 0008 0B46     		mov	r3, r1
 2590 000a FB70     		strb	r3, [r7, #3]
 812:C:/Users/49542/Desktop/GD32F30x_Demo_Suites_V2.0.0/GD32F30x_Demo_Suites_V2.0.0/GD32F30x_Firmware_Library/GD32F30x_standard_peripheral/Source\gd32f30x_timer.c ****     if(TIMER_UPDATECTL_CCU == ccuctl){
 2591              		.loc 1 812 0
 2592 000c FB78     		ldrb	r3, [r7, #3]	@ zero_extendqisi2
 2593 000e 002B     		cmp	r3, #0
 2594 0010 08D1     		bne	.L92
 813:C:/Users/49542/Desktop/GD32F30x_Demo_Suites_V2.0.0/GD32F30x_Demo_Suites_V2.0.0/GD32F30x_Firmware_Library/GD32F30x_standard_peripheral/Source\gd32f30x_timer.c ****         TIMER_CTL1(timer_periph) &= (~(uint32_t)TIMER_CTL1_CCUC);
 2595              		.loc 1 813 0
 2596 0012 7B68     		ldr	r3, [r7, #4]
 2597 0014 0433     		adds	r3, r3, #4
 2598 0016 1B68     		ldr	r3, [r3]
 2599 0018 7A68     		ldr	r2, [r7, #4]
 2600 001a 0432     		adds	r2, r2, #4
 2601 001c 23F00403 		bic	r3, r3, #4
 2602 0020 1360     		str	r3, [r2]
 814:C:/Users/49542/Desktop/GD32F30x_Demo_Suites_V2.0.0/GD32F30x_Demo_Suites_V2.0.0/GD32F30x_Firmware_Library/GD32F30x_standard_peripheral/Source\gd32f30x_timer.c ****     }else if(TIMER_UPDATECTL_CCUTRI == ccuctl){
 815:C:/Users/49542/Desktop/GD32F30x_Demo_Suites_V2.0.0/GD32F30x_Demo_Suites_V2.0.0/GD32F30x_Firmware_Library/GD32F30x_standard_peripheral/Source\gd32f30x_timer.c ****         TIMER_CTL1(timer_periph) |= (uint32_t)TIMER_CTL1_CCUC;
 816:C:/Users/49542/Desktop/GD32F30x_Demo_Suites_V2.0.0/GD32F30x_Demo_Suites_V2.0.0/GD32F30x_Firmware_Library/GD32F30x_standard_peripheral/Source\gd32f30x_timer.c ****     }else{
 817:C:/Users/49542/Desktop/GD32F30x_Demo_Suites_V2.0.0/GD32F30x_Demo_Suites_V2.0.0/GD32F30x_Firmware_Library/GD32F30x_standard_peripheral/Source\gd32f30x_timer.c ****         /* illegal parameters */
 818:C:/Users/49542/Desktop/GD32F30x_Demo_Suites_V2.0.0/GD32F30x_Demo_Suites_V2.0.0/GD32F30x_Firmware_Library/GD32F30x_standard_peripheral/Source\gd32f30x_timer.c ****     }
 819:C:/Users/49542/Desktop/GD32F30x_Demo_Suites_V2.0.0/GD32F30x_Demo_Suites_V2.0.0/GD32F30x_Firmware_Library/GD32F30x_standard_peripheral/Source\gd32f30x_timer.c **** }
 2603              		.loc 1 819 0
 2604 0022 0AE0     		b	.L94
 2605              	.L92:
 814:C:/Users/49542/Desktop/GD32F30x_Demo_Suites_V2.0.0/GD32F30x_Demo_Suites_V2.0.0/GD32F30x_Firmware_Library/GD32F30x_standard_peripheral/Source\gd32f30x_timer.c ****     }else if(TIMER_UPDATECTL_CCUTRI == ccuctl){
 2606              		.loc 1 814 0
 2607 0024 FB78     		ldrb	r3, [r7, #3]	@ zero_extendqisi2
 2608 0026 012B     		cmp	r3, #1
 2609 0028 07D1     		bne	.L94
 815:C:/Users/49542/Desktop/GD32F30x_Demo_Suites_V2.0.0/GD32F30x_Demo_Suites_V2.0.0/GD32F30x_Firmware_Library/GD32F30x_standard_peripheral/Source\gd32f30x_timer.c ****     }else{
 2610              		.loc 1 815 0
 2611 002a 7B68     		ldr	r3, [r7, #4]
 2612 002c 0433     		adds	r3, r3, #4
 2613 002e 1B68     		ldr	r3, [r3]
 2614 0030 7A68     		ldr	r2, [r7, #4]
 2615 0032 0432     		adds	r2, r2, #4
 2616 0034 43F00403 		orr	r3, r3, #4
 2617 0038 1360     		str	r3, [r2]
 2618              	.L94:
 2619              		.loc 1 819 0
ARM GAS  C:\Users\49542\AppData\Local\Temp\ccx6VnNU.s 			page 61


 2620 003a 00BF     		nop
 2621 003c 0C37     		adds	r7, r7, #12
 2622              	.LCFI236:
 2623              		.cfi_def_cfa_offset 4
 2624 003e BD46     		mov	sp, r7
 2625              	.LCFI237:
 2626              		.cfi_def_cfa_register 13
 2627              		@ sp needed
 2628 0040 5DF8047B 		ldr	r7, [sp], #4
 2629              	.LCFI238:
 2630              		.cfi_restore 7
 2631              		.cfi_def_cfa_offset 0
 2632 0044 7047     		bx	lr
 2633              		.cfi_endproc
 2634              	.LFE155:
 2636              		.section	.text.timer_channel_output_struct_para_init,"ax",%progbits
 2637              		.align	1
 2638              		.global	timer_channel_output_struct_para_init
 2639              		.syntax unified
 2640              		.thumb
 2641              		.thumb_func
 2642              		.fpu fpv4-sp-d16
 2644              	timer_channel_output_struct_para_init:
 2645              	.LFB156:
 820:C:/Users/49542/Desktop/GD32F30x_Demo_Suites_V2.0.0/GD32F30x_Demo_Suites_V2.0.0/GD32F30x_Firmware_Library/GD32F30x_standard_peripheral/Source\gd32f30x_timer.c **** 
 821:C:/Users/49542/Desktop/GD32F30x_Demo_Suites_V2.0.0/GD32F30x_Demo_Suites_V2.0.0/GD32F30x_Firmware_Library/GD32F30x_standard_peripheral/Source\gd32f30x_timer.c **** /*!
 822:C:/Users/49542/Desktop/GD32F30x_Demo_Suites_V2.0.0/GD32F30x_Demo_Suites_V2.0.0/GD32F30x_Firmware_Library/GD32F30x_standard_peripheral/Source\gd32f30x_timer.c ****     \brief      initialize TIMER channel output parameter struct with a default value
 823:C:/Users/49542/Desktop/GD32F30x_Demo_Suites_V2.0.0/GD32F30x_Demo_Suites_V2.0.0/GD32F30x_Firmware_Library/GD32F30x_standard_peripheral/Source\gd32f30x_timer.c ****     \param[in]  ocpara: TIMER channel n output parameter struct
 824:C:/Users/49542/Desktop/GD32F30x_Demo_Suites_V2.0.0/GD32F30x_Demo_Suites_V2.0.0/GD32F30x_Firmware_Library/GD32F30x_standard_peripheral/Source\gd32f30x_timer.c ****     \param[out] none
 825:C:/Users/49542/Desktop/GD32F30x_Demo_Suites_V2.0.0/GD32F30x_Demo_Suites_V2.0.0/GD32F30x_Firmware_Library/GD32F30x_standard_peripheral/Source\gd32f30x_timer.c ****     \retval     none
 826:C:/Users/49542/Desktop/GD32F30x_Demo_Suites_V2.0.0/GD32F30x_Demo_Suites_V2.0.0/GD32F30x_Firmware_Library/GD32F30x_standard_peripheral/Source\gd32f30x_timer.c **** */
 827:C:/Users/49542/Desktop/GD32F30x_Demo_Suites_V2.0.0/GD32F30x_Demo_Suites_V2.0.0/GD32F30x_Firmware_Library/GD32F30x_standard_peripheral/Source\gd32f30x_timer.c **** void timer_channel_output_struct_para_init(timer_oc_parameter_struct* ocpara)
 828:C:/Users/49542/Desktop/GD32F30x_Demo_Suites_V2.0.0/GD32F30x_Demo_Suites_V2.0.0/GD32F30x_Firmware_Library/GD32F30x_standard_peripheral/Source\gd32f30x_timer.c **** {
 2646              		.loc 1 828 0
 2647              		.cfi_startproc
 2648              		@ args = 0, pretend = 0, frame = 8
 2649              		@ frame_needed = 1, uses_anonymous_args = 0
 2650              		@ link register save eliminated.
 2651 0000 80B4     		push	{r7}
 2652              	.LCFI239:
 2653              		.cfi_def_cfa_offset 4
 2654              		.cfi_offset 7, -4
 2655 0002 83B0     		sub	sp, sp, #12
 2656              	.LCFI240:
 2657              		.cfi_def_cfa_offset 16
 2658 0004 00AF     		add	r7, sp, #0
 2659              	.LCFI241:
 2660              		.cfi_def_cfa_register 7
 2661 0006 7860     		str	r0, [r7, #4]
 829:C:/Users/49542/Desktop/GD32F30x_Demo_Suites_V2.0.0/GD32F30x_Demo_Suites_V2.0.0/GD32F30x_Firmware_Library/GD32F30x_standard_peripheral/Source\gd32f30x_timer.c ****     /* initialize the channel output parameter struct member with the default value */
 830:C:/Users/49542/Desktop/GD32F30x_Demo_Suites_V2.0.0/GD32F30x_Demo_Suites_V2.0.0/GD32F30x_Firmware_Library/GD32F30x_standard_peripheral/Source\gd32f30x_timer.c ****     ocpara->outputstate  = (uint16_t)TIMER_CCX_DISABLE;
 2662              		.loc 1 830 0
 2663 0008 7B68     		ldr	r3, [r7, #4]
 2664 000a 0022     		movs	r2, #0
 2665 000c 1A80     		strh	r2, [r3]	@ movhi
 831:C:/Users/49542/Desktop/GD32F30x_Demo_Suites_V2.0.0/GD32F30x_Demo_Suites_V2.0.0/GD32F30x_Firmware_Library/GD32F30x_standard_peripheral/Source\gd32f30x_timer.c ****     ocpara->outputnstate = TIMER_CCXN_DISABLE;
 2666              		.loc 1 831 0
ARM GAS  C:\Users\49542\AppData\Local\Temp\ccx6VnNU.s 			page 62


 2667 000e 7B68     		ldr	r3, [r7, #4]
 2668 0010 0022     		movs	r2, #0
 2669 0012 5A80     		strh	r2, [r3, #2]	@ movhi
 832:C:/Users/49542/Desktop/GD32F30x_Demo_Suites_V2.0.0/GD32F30x_Demo_Suites_V2.0.0/GD32F30x_Firmware_Library/GD32F30x_standard_peripheral/Source\gd32f30x_timer.c ****     ocpara->ocpolarity   = TIMER_OC_POLARITY_HIGH;
 2670              		.loc 1 832 0
 2671 0014 7B68     		ldr	r3, [r7, #4]
 2672 0016 0022     		movs	r2, #0
 2673 0018 9A80     		strh	r2, [r3, #4]	@ movhi
 833:C:/Users/49542/Desktop/GD32F30x_Demo_Suites_V2.0.0/GD32F30x_Demo_Suites_V2.0.0/GD32F30x_Firmware_Library/GD32F30x_standard_peripheral/Source\gd32f30x_timer.c ****     ocpara->ocnpolarity  = TIMER_OCN_POLARITY_HIGH;
 2674              		.loc 1 833 0
 2675 001a 7B68     		ldr	r3, [r7, #4]
 2676 001c 0022     		movs	r2, #0
 2677 001e DA80     		strh	r2, [r3, #6]	@ movhi
 834:C:/Users/49542/Desktop/GD32F30x_Demo_Suites_V2.0.0/GD32F30x_Demo_Suites_V2.0.0/GD32F30x_Firmware_Library/GD32F30x_standard_peripheral/Source\gd32f30x_timer.c ****     ocpara->ocidlestate  = TIMER_OC_IDLE_STATE_LOW;
 2678              		.loc 1 834 0
 2679 0020 7B68     		ldr	r3, [r7, #4]
 2680 0022 0022     		movs	r2, #0
 2681 0024 1A81     		strh	r2, [r3, #8]	@ movhi
 835:C:/Users/49542/Desktop/GD32F30x_Demo_Suites_V2.0.0/GD32F30x_Demo_Suites_V2.0.0/GD32F30x_Firmware_Library/GD32F30x_standard_peripheral/Source\gd32f30x_timer.c ****     ocpara->ocnidlestate = TIMER_OCN_IDLE_STATE_LOW;
 2682              		.loc 1 835 0
 2683 0026 7B68     		ldr	r3, [r7, #4]
 2684 0028 0022     		movs	r2, #0
 2685 002a 5A81     		strh	r2, [r3, #10]	@ movhi
 836:C:/Users/49542/Desktop/GD32F30x_Demo_Suites_V2.0.0/GD32F30x_Demo_Suites_V2.0.0/GD32F30x_Firmware_Library/GD32F30x_standard_peripheral/Source\gd32f30x_timer.c **** }
 2686              		.loc 1 836 0
 2687 002c 00BF     		nop
 2688 002e 0C37     		adds	r7, r7, #12
 2689              	.LCFI242:
 2690              		.cfi_def_cfa_offset 4
 2691 0030 BD46     		mov	sp, r7
 2692              	.LCFI243:
 2693              		.cfi_def_cfa_register 13
 2694              		@ sp needed
 2695 0032 5DF8047B 		ldr	r7, [sp], #4
 2696              	.LCFI244:
 2697              		.cfi_restore 7
 2698              		.cfi_def_cfa_offset 0
 2699 0036 7047     		bx	lr
 2700              		.cfi_endproc
 2701              	.LFE156:
 2703              		.section	.text.timer_channel_output_config,"ax",%progbits
 2704              		.align	1
 2705              		.global	timer_channel_output_config
 2706              		.syntax unified
 2707              		.thumb
 2708              		.thumb_func
 2709              		.fpu fpv4-sp-d16
 2711              	timer_channel_output_config:
 2712              	.LFB157:
 837:C:/Users/49542/Desktop/GD32F30x_Demo_Suites_V2.0.0/GD32F30x_Demo_Suites_V2.0.0/GD32F30x_Firmware_Library/GD32F30x_standard_peripheral/Source\gd32f30x_timer.c **** 
 838:C:/Users/49542/Desktop/GD32F30x_Demo_Suites_V2.0.0/GD32F30x_Demo_Suites_V2.0.0/GD32F30x_Firmware_Library/GD32F30x_standard_peripheral/Source\gd32f30x_timer.c **** /*!
 839:C:/Users/49542/Desktop/GD32F30x_Demo_Suites_V2.0.0/GD32F30x_Demo_Suites_V2.0.0/GD32F30x_Firmware_Library/GD32F30x_standard_peripheral/Source\gd32f30x_timer.c ****     \brief      configure TIMER channel output function
 840:C:/Users/49542/Desktop/GD32F30x_Demo_Suites_V2.0.0/GD32F30x_Demo_Suites_V2.0.0/GD32F30x_Firmware_Library/GD32F30x_standard_peripheral/Source\gd32f30x_timer.c ****     \param[in]  timer_periph: please refer to the following parameters
 841:C:/Users/49542/Desktop/GD32F30x_Demo_Suites_V2.0.0/GD32F30x_Demo_Suites_V2.0.0/GD32F30x_Firmware_Library/GD32F30x_standard_peripheral/Source\gd32f30x_timer.c ****     \param[in]  channel:
 842:C:/Users/49542/Desktop/GD32F30x_Demo_Suites_V2.0.0/GD32F30x_Demo_Suites_V2.0.0/GD32F30x_Firmware_Library/GD32F30x_standard_peripheral/Source\gd32f30x_timer.c ****                 only one parameter can be selected which is shown as below:
 843:C:/Users/49542/Desktop/GD32F30x_Demo_Suites_V2.0.0/GD32F30x_Demo_Suites_V2.0.0/GD32F30x_Firmware_Library/GD32F30x_standard_peripheral/Source\gd32f30x_timer.c ****       \arg        TIMER_CH_0: TIMER channel 0(TIMERx(x=0..4,7..13))
 844:C:/Users/49542/Desktop/GD32F30x_Demo_Suites_V2.0.0/GD32F30x_Demo_Suites_V2.0.0/GD32F30x_Firmware_Library/GD32F30x_standard_peripheral/Source\gd32f30x_timer.c ****       \arg        TIMER_CH_1: TIMER channel 1(TIMERx(x=0..4,7,8,11))
ARM GAS  C:\Users\49542\AppData\Local\Temp\ccx6VnNU.s 			page 63


 845:C:/Users/49542/Desktop/GD32F30x_Demo_Suites_V2.0.0/GD32F30x_Demo_Suites_V2.0.0/GD32F30x_Firmware_Library/GD32F30x_standard_peripheral/Source\gd32f30x_timer.c ****       \arg        TIMER_CH_2: TIMER channel 2(TIMERx(x=0..4,7))
 846:C:/Users/49542/Desktop/GD32F30x_Demo_Suites_V2.0.0/GD32F30x_Demo_Suites_V2.0.0/GD32F30x_Firmware_Library/GD32F30x_standard_peripheral/Source\gd32f30x_timer.c ****       \arg        TIMER_CH_3: TIMER channel 3(TIMERx(x=0..4,7))
 847:C:/Users/49542/Desktop/GD32F30x_Demo_Suites_V2.0.0/GD32F30x_Demo_Suites_V2.0.0/GD32F30x_Firmware_Library/GD32F30x_standard_peripheral/Source\gd32f30x_timer.c ****     \param[in]  ocpara: TIMER channeln output parameter struct
 848:C:/Users/49542/Desktop/GD32F30x_Demo_Suites_V2.0.0/GD32F30x_Demo_Suites_V2.0.0/GD32F30x_Firmware_Library/GD32F30x_standard_peripheral/Source\gd32f30x_timer.c ****                 outputstate: TIMER_CCX_ENABLE,TIMER_CCX_DISABLE
 849:C:/Users/49542/Desktop/GD32F30x_Demo_Suites_V2.0.0/GD32F30x_Demo_Suites_V2.0.0/GD32F30x_Firmware_Library/GD32F30x_standard_peripheral/Source\gd32f30x_timer.c ****                 outputnstate: TIMER_CCXN_ENABLE,TIMER_CCXN_DISABLE
 850:C:/Users/49542/Desktop/GD32F30x_Demo_Suites_V2.0.0/GD32F30x_Demo_Suites_V2.0.0/GD32F30x_Firmware_Library/GD32F30x_standard_peripheral/Source\gd32f30x_timer.c ****                 ocpolarity: TIMER_OC_POLARITY_HIGH,TIMER_OC_POLARITY_LOW
 851:C:/Users/49542/Desktop/GD32F30x_Demo_Suites_V2.0.0/GD32F30x_Demo_Suites_V2.0.0/GD32F30x_Firmware_Library/GD32F30x_standard_peripheral/Source\gd32f30x_timer.c ****                 ocnpolarity: TIMER_OCN_POLARITY_HIGH,TIMER_OCN_POLARITY_LOW
 852:C:/Users/49542/Desktop/GD32F30x_Demo_Suites_V2.0.0/GD32F30x_Demo_Suites_V2.0.0/GD32F30x_Firmware_Library/GD32F30x_standard_peripheral/Source\gd32f30x_timer.c ****                 ocidlestate: TIMER_OC_IDLE_STATE_LOW,TIMER_OC_IDLE_STATE_HIGH
 853:C:/Users/49542/Desktop/GD32F30x_Demo_Suites_V2.0.0/GD32F30x_Demo_Suites_V2.0.0/GD32F30x_Firmware_Library/GD32F30x_standard_peripheral/Source\gd32f30x_timer.c ****                 ocnidlestate: TIMER_OCN_IDLE_STATE_LOW,TIMER_OCN_IDLE_STATE_HIGH
 854:C:/Users/49542/Desktop/GD32F30x_Demo_Suites_V2.0.0/GD32F30x_Demo_Suites_V2.0.0/GD32F30x_Firmware_Library/GD32F30x_standard_peripheral/Source\gd32f30x_timer.c ****     \param[out] none
 855:C:/Users/49542/Desktop/GD32F30x_Demo_Suites_V2.0.0/GD32F30x_Demo_Suites_V2.0.0/GD32F30x_Firmware_Library/GD32F30x_standard_peripheral/Source\gd32f30x_timer.c ****     \retval     none
 856:C:/Users/49542/Desktop/GD32F30x_Demo_Suites_V2.0.0/GD32F30x_Demo_Suites_V2.0.0/GD32F30x_Firmware_Library/GD32F30x_standard_peripheral/Source\gd32f30x_timer.c **** */
 857:C:/Users/49542/Desktop/GD32F30x_Demo_Suites_V2.0.0/GD32F30x_Demo_Suites_V2.0.0/GD32F30x_Firmware_Library/GD32F30x_standard_peripheral/Source\gd32f30x_timer.c **** void timer_channel_output_config(uint32_t timer_periph, uint16_t channel, timer_oc_parameter_struct
 858:C:/Users/49542/Desktop/GD32F30x_Demo_Suites_V2.0.0/GD32F30x_Demo_Suites_V2.0.0/GD32F30x_Firmware_Library/GD32F30x_standard_peripheral/Source\gd32f30x_timer.c **** {
 2713              		.loc 1 858 0
 2714              		.cfi_startproc
 2715              		@ args = 0, pretend = 0, frame = 16
 2716              		@ frame_needed = 1, uses_anonymous_args = 0
 2717              		@ link register save eliminated.
 2718 0000 80B4     		push	{r7}
 2719              	.LCFI245:
 2720              		.cfi_def_cfa_offset 4
 2721              		.cfi_offset 7, -4
 2722 0002 85B0     		sub	sp, sp, #20
 2723              	.LCFI246:
 2724              		.cfi_def_cfa_offset 24
 2725 0004 00AF     		add	r7, sp, #0
 2726              	.LCFI247:
 2727              		.cfi_def_cfa_register 7
 2728 0006 F860     		str	r0, [r7, #12]
 2729 0008 0B46     		mov	r3, r1
 2730 000a 7A60     		str	r2, [r7, #4]
 2731 000c 7B81     		strh	r3, [r7, #10]	@ movhi
 859:C:/Users/49542/Desktop/GD32F30x_Demo_Suites_V2.0.0/GD32F30x_Demo_Suites_V2.0.0/GD32F30x_Firmware_Library/GD32F30x_standard_peripheral/Source\gd32f30x_timer.c ****     switch(channel){
 2732              		.loc 1 859 0
 2733 000e 7B89     		ldrh	r3, [r7, #10]
 2734 0010 032B     		cmp	r3, #3
 2735 0012 00F2D081 		bhi	.L112
 2736 0016 01A2     		adr	r2, .L99
 2737 0018 52F823F0 		ldr	pc, [r2, r3, lsl #2]
 2738              		.p2align 2
 2739              	.L99:
 2740 001c 2D000000 		.word	.L98+1
 2741 0020 29010000 		.word	.L100+1
 2742 0024 2D020000 		.word	.L101+1
 2743 0028 29030000 		.word	.L102+1
 2744              		.p2align 1
 2745              	.L98:
 860:C:/Users/49542/Desktop/GD32F30x_Demo_Suites_V2.0.0/GD32F30x_Demo_Suites_V2.0.0/GD32F30x_Firmware_Library/GD32F30x_standard_peripheral/Source\gd32f30x_timer.c ****     /* configure TIMER_CH_0 */
 861:C:/Users/49542/Desktop/GD32F30x_Demo_Suites_V2.0.0/GD32F30x_Demo_Suites_V2.0.0/GD32F30x_Firmware_Library/GD32F30x_standard_peripheral/Source\gd32f30x_timer.c ****     case TIMER_CH_0:
 862:C:/Users/49542/Desktop/GD32F30x_Demo_Suites_V2.0.0/GD32F30x_Demo_Suites_V2.0.0/GD32F30x_Firmware_Library/GD32F30x_standard_peripheral/Source\gd32f30x_timer.c ****         /* reset the CH0EN bit */
 863:C:/Users/49542/Desktop/GD32F30x_Demo_Suites_V2.0.0/GD32F30x_Demo_Suites_V2.0.0/GD32F30x_Firmware_Library/GD32F30x_standard_peripheral/Source\gd32f30x_timer.c ****         TIMER_CHCTL2(timer_periph) &= (~(uint32_t)TIMER_CHCTL2_CH0EN);
 2746              		.loc 1 863 0
 2747 002c FB68     		ldr	r3, [r7, #12]
 2748 002e 2033     		adds	r3, r3, #32
 2749 0030 1B68     		ldr	r3, [r3]
 2750 0032 FA68     		ldr	r2, [r7, #12]
ARM GAS  C:\Users\49542\AppData\Local\Temp\ccx6VnNU.s 			page 64


 2751 0034 2032     		adds	r2, r2, #32
 2752 0036 23F00103 		bic	r3, r3, #1
 2753 003a 1360     		str	r3, [r2]
 864:C:/Users/49542/Desktop/GD32F30x_Demo_Suites_V2.0.0/GD32F30x_Demo_Suites_V2.0.0/GD32F30x_Firmware_Library/GD32F30x_standard_peripheral/Source\gd32f30x_timer.c ****         TIMER_CHCTL0(timer_periph) &= ~(uint32_t)TIMER_CHCTL0_CH0MS;
 2754              		.loc 1 864 0
 2755 003c FB68     		ldr	r3, [r7, #12]
 2756 003e 1833     		adds	r3, r3, #24
 2757 0040 1B68     		ldr	r3, [r3]
 2758 0042 FA68     		ldr	r2, [r7, #12]
 2759 0044 1832     		adds	r2, r2, #24
 2760 0046 23F00303 		bic	r3, r3, #3
 2761 004a 1360     		str	r3, [r2]
 865:C:/Users/49542/Desktop/GD32F30x_Demo_Suites_V2.0.0/GD32F30x_Demo_Suites_V2.0.0/GD32F30x_Firmware_Library/GD32F30x_standard_peripheral/Source\gd32f30x_timer.c ****         /* set the CH0EN bit */
 866:C:/Users/49542/Desktop/GD32F30x_Demo_Suites_V2.0.0/GD32F30x_Demo_Suites_V2.0.0/GD32F30x_Firmware_Library/GD32F30x_standard_peripheral/Source\gd32f30x_timer.c ****         TIMER_CHCTL2(timer_periph) |= (uint32_t)ocpara->outputstate;
 2762              		.loc 1 866 0
 2763 004c FB68     		ldr	r3, [r7, #12]
 2764 004e 2033     		adds	r3, r3, #32
 2765 0050 1B68     		ldr	r3, [r3]
 2766 0052 7A68     		ldr	r2, [r7, #4]
 2767 0054 1288     		ldrh	r2, [r2]
 2768 0056 1146     		mov	r1, r2
 2769 0058 FA68     		ldr	r2, [r7, #12]
 2770 005a 2032     		adds	r2, r2, #32
 2771 005c 0B43     		orrs	r3, r3, r1
 2772 005e 1360     		str	r3, [r2]
 867:C:/Users/49542/Desktop/GD32F30x_Demo_Suites_V2.0.0/GD32F30x_Demo_Suites_V2.0.0/GD32F30x_Firmware_Library/GD32F30x_standard_peripheral/Source\gd32f30x_timer.c ****         /* reset the CH0P bit */
 868:C:/Users/49542/Desktop/GD32F30x_Demo_Suites_V2.0.0/GD32F30x_Demo_Suites_V2.0.0/GD32F30x_Firmware_Library/GD32F30x_standard_peripheral/Source\gd32f30x_timer.c ****         TIMER_CHCTL2(timer_periph) &= (~(uint32_t)TIMER_CHCTL2_CH0P);
 2773              		.loc 1 868 0
 2774 0060 FB68     		ldr	r3, [r7, #12]
 2775 0062 2033     		adds	r3, r3, #32
 2776 0064 1B68     		ldr	r3, [r3]
 2777 0066 FA68     		ldr	r2, [r7, #12]
 2778 0068 2032     		adds	r2, r2, #32
 2779 006a 23F00203 		bic	r3, r3, #2
 2780 006e 1360     		str	r3, [r2]
 869:C:/Users/49542/Desktop/GD32F30x_Demo_Suites_V2.0.0/GD32F30x_Demo_Suites_V2.0.0/GD32F30x_Firmware_Library/GD32F30x_standard_peripheral/Source\gd32f30x_timer.c ****         /* set the CH0P bit */
 870:C:/Users/49542/Desktop/GD32F30x_Demo_Suites_V2.0.0/GD32F30x_Demo_Suites_V2.0.0/GD32F30x_Firmware_Library/GD32F30x_standard_peripheral/Source\gd32f30x_timer.c ****         TIMER_CHCTL2(timer_periph) |= (uint32_t)ocpara->ocpolarity;
 2781              		.loc 1 870 0
 2782 0070 FB68     		ldr	r3, [r7, #12]
 2783 0072 2033     		adds	r3, r3, #32
 2784 0074 1B68     		ldr	r3, [r3]
 2785 0076 7A68     		ldr	r2, [r7, #4]
 2786 0078 9288     		ldrh	r2, [r2, #4]
 2787 007a 1146     		mov	r1, r2
 2788 007c FA68     		ldr	r2, [r7, #12]
 2789 007e 2032     		adds	r2, r2, #32
 2790 0080 0B43     		orrs	r3, r3, r1
 2791 0082 1360     		str	r3, [r2]
 871:C:/Users/49542/Desktop/GD32F30x_Demo_Suites_V2.0.0/GD32F30x_Demo_Suites_V2.0.0/GD32F30x_Firmware_Library/GD32F30x_standard_peripheral/Source\gd32f30x_timer.c **** 
 872:C:/Users/49542/Desktop/GD32F30x_Demo_Suites_V2.0.0/GD32F30x_Demo_Suites_V2.0.0/GD32F30x_Firmware_Library/GD32F30x_standard_peripheral/Source\gd32f30x_timer.c ****         if((TIMER0 == timer_periph) || (TIMER7 == timer_periph)){
 2792              		.loc 1 872 0
 2793 0084 FB68     		ldr	r3, [r7, #12]
 2794 0086 674A     		ldr	r2, .L117
 2795 0088 9342     		cmp	r3, r2
 2796 008a 04D0     		beq	.L103
 2797              		.loc 1 872 0 is_stmt 0 discriminator 1
 2798 008c FB68     		ldr	r3, [r7, #12]
ARM GAS  C:\Users\49542\AppData\Local\Temp\ccx6VnNU.s 			page 65


 2799 008e 664A     		ldr	r2, .L117+4
 2800 0090 9342     		cmp	r3, r2
 2801 0092 40F09281 		bne	.L113
 2802              	.L103:
 873:C:/Users/49542/Desktop/GD32F30x_Demo_Suites_V2.0.0/GD32F30x_Demo_Suites_V2.0.0/GD32F30x_Firmware_Library/GD32F30x_standard_peripheral/Source\gd32f30x_timer.c ****             /* reset the CH0NEN bit */
 874:C:/Users/49542/Desktop/GD32F30x_Demo_Suites_V2.0.0/GD32F30x_Demo_Suites_V2.0.0/GD32F30x_Firmware_Library/GD32F30x_standard_peripheral/Source\gd32f30x_timer.c ****             TIMER_CHCTL2(timer_periph) &= (~(uint32_t)TIMER_CHCTL2_CH0NEN);
 2803              		.loc 1 874 0 is_stmt 1
 2804 0096 FB68     		ldr	r3, [r7, #12]
 2805 0098 2033     		adds	r3, r3, #32
 2806 009a 1B68     		ldr	r3, [r3]
 2807 009c FA68     		ldr	r2, [r7, #12]
 2808 009e 2032     		adds	r2, r2, #32
 2809 00a0 23F00403 		bic	r3, r3, #4
 2810 00a4 1360     		str	r3, [r2]
 875:C:/Users/49542/Desktop/GD32F30x_Demo_Suites_V2.0.0/GD32F30x_Demo_Suites_V2.0.0/GD32F30x_Firmware_Library/GD32F30x_standard_peripheral/Source\gd32f30x_timer.c ****             /* set the CH0NEN bit */
 876:C:/Users/49542/Desktop/GD32F30x_Demo_Suites_V2.0.0/GD32F30x_Demo_Suites_V2.0.0/GD32F30x_Firmware_Library/GD32F30x_standard_peripheral/Source\gd32f30x_timer.c ****             TIMER_CHCTL2(timer_periph) |= (uint32_t)ocpara->outputnstate;
 2811              		.loc 1 876 0
 2812 00a6 FB68     		ldr	r3, [r7, #12]
 2813 00a8 2033     		adds	r3, r3, #32
 2814 00aa 1B68     		ldr	r3, [r3]
 2815 00ac 7A68     		ldr	r2, [r7, #4]
 2816 00ae 5288     		ldrh	r2, [r2, #2]
 2817 00b0 1146     		mov	r1, r2
 2818 00b2 FA68     		ldr	r2, [r7, #12]
 2819 00b4 2032     		adds	r2, r2, #32
 2820 00b6 0B43     		orrs	r3, r3, r1
 2821 00b8 1360     		str	r3, [r2]
 877:C:/Users/49542/Desktop/GD32F30x_Demo_Suites_V2.0.0/GD32F30x_Demo_Suites_V2.0.0/GD32F30x_Firmware_Library/GD32F30x_standard_peripheral/Source\gd32f30x_timer.c ****             /* reset the CH0NP bit */
 878:C:/Users/49542/Desktop/GD32F30x_Demo_Suites_V2.0.0/GD32F30x_Demo_Suites_V2.0.0/GD32F30x_Firmware_Library/GD32F30x_standard_peripheral/Source\gd32f30x_timer.c ****             TIMER_CHCTL2(timer_periph) &= (~(uint32_t)TIMER_CHCTL2_CH0NP);
 2822              		.loc 1 878 0
 2823 00ba FB68     		ldr	r3, [r7, #12]
 2824 00bc 2033     		adds	r3, r3, #32
 2825 00be 1B68     		ldr	r3, [r3]
 2826 00c0 FA68     		ldr	r2, [r7, #12]
 2827 00c2 2032     		adds	r2, r2, #32
 2828 00c4 23F00803 		bic	r3, r3, #8
 2829 00c8 1360     		str	r3, [r2]
 879:C:/Users/49542/Desktop/GD32F30x_Demo_Suites_V2.0.0/GD32F30x_Demo_Suites_V2.0.0/GD32F30x_Firmware_Library/GD32F30x_standard_peripheral/Source\gd32f30x_timer.c ****             /* set the CH0NP bit */
 880:C:/Users/49542/Desktop/GD32F30x_Demo_Suites_V2.0.0/GD32F30x_Demo_Suites_V2.0.0/GD32F30x_Firmware_Library/GD32F30x_standard_peripheral/Source\gd32f30x_timer.c ****             TIMER_CHCTL2(timer_periph) |= (uint32_t)ocpara->ocnpolarity;
 2830              		.loc 1 880 0
 2831 00ca FB68     		ldr	r3, [r7, #12]
 2832 00cc 2033     		adds	r3, r3, #32
 2833 00ce 1B68     		ldr	r3, [r3]
 2834 00d0 7A68     		ldr	r2, [r7, #4]
 2835 00d2 D288     		ldrh	r2, [r2, #6]
 2836 00d4 1146     		mov	r1, r2
 2837 00d6 FA68     		ldr	r2, [r7, #12]
 2838 00d8 2032     		adds	r2, r2, #32
 2839 00da 0B43     		orrs	r3, r3, r1
 2840 00dc 1360     		str	r3, [r2]
 881:C:/Users/49542/Desktop/GD32F30x_Demo_Suites_V2.0.0/GD32F30x_Demo_Suites_V2.0.0/GD32F30x_Firmware_Library/GD32F30x_standard_peripheral/Source\gd32f30x_timer.c ****             /* reset the ISO0 bit */
 882:C:/Users/49542/Desktop/GD32F30x_Demo_Suites_V2.0.0/GD32F30x_Demo_Suites_V2.0.0/GD32F30x_Firmware_Library/GD32F30x_standard_peripheral/Source\gd32f30x_timer.c ****             TIMER_CTL1(timer_periph) &= (~(uint32_t)TIMER_CTL1_ISO0);
 2841              		.loc 1 882 0
 2842 00de FB68     		ldr	r3, [r7, #12]
 2843 00e0 0433     		adds	r3, r3, #4
 2844 00e2 1B68     		ldr	r3, [r3]
 2845 00e4 FA68     		ldr	r2, [r7, #12]
ARM GAS  C:\Users\49542\AppData\Local\Temp\ccx6VnNU.s 			page 66


 2846 00e6 0432     		adds	r2, r2, #4
 2847 00e8 23F48073 		bic	r3, r3, #256
 2848 00ec 1360     		str	r3, [r2]
 883:C:/Users/49542/Desktop/GD32F30x_Demo_Suites_V2.0.0/GD32F30x_Demo_Suites_V2.0.0/GD32F30x_Firmware_Library/GD32F30x_standard_peripheral/Source\gd32f30x_timer.c ****             /* set the ISO0 bit */
 884:C:/Users/49542/Desktop/GD32F30x_Demo_Suites_V2.0.0/GD32F30x_Demo_Suites_V2.0.0/GD32F30x_Firmware_Library/GD32F30x_standard_peripheral/Source\gd32f30x_timer.c ****             TIMER_CTL1(timer_periph) |= (uint32_t)ocpara->ocidlestate;
 2849              		.loc 1 884 0
 2850 00ee FB68     		ldr	r3, [r7, #12]
 2851 00f0 0433     		adds	r3, r3, #4
 2852 00f2 1B68     		ldr	r3, [r3]
 2853 00f4 7A68     		ldr	r2, [r7, #4]
 2854 00f6 1289     		ldrh	r2, [r2, #8]
 2855 00f8 1146     		mov	r1, r2
 2856 00fa FA68     		ldr	r2, [r7, #12]
 2857 00fc 0432     		adds	r2, r2, #4
 2858 00fe 0B43     		orrs	r3, r3, r1
 2859 0100 1360     		str	r3, [r2]
 885:C:/Users/49542/Desktop/GD32F30x_Demo_Suites_V2.0.0/GD32F30x_Demo_Suites_V2.0.0/GD32F30x_Firmware_Library/GD32F30x_standard_peripheral/Source\gd32f30x_timer.c ****             /* reset the ISO0N bit */
 886:C:/Users/49542/Desktop/GD32F30x_Demo_Suites_V2.0.0/GD32F30x_Demo_Suites_V2.0.0/GD32F30x_Firmware_Library/GD32F30x_standard_peripheral/Source\gd32f30x_timer.c ****             TIMER_CTL1(timer_periph) &= (~(uint32_t)TIMER_CTL1_ISO0N);
 2860              		.loc 1 886 0
 2861 0102 FB68     		ldr	r3, [r7, #12]
 2862 0104 0433     		adds	r3, r3, #4
 2863 0106 1B68     		ldr	r3, [r3]
 2864 0108 FA68     		ldr	r2, [r7, #12]
 2865 010a 0432     		adds	r2, r2, #4
 2866 010c 23F40073 		bic	r3, r3, #512
 2867 0110 1360     		str	r3, [r2]
 887:C:/Users/49542/Desktop/GD32F30x_Demo_Suites_V2.0.0/GD32F30x_Demo_Suites_V2.0.0/GD32F30x_Firmware_Library/GD32F30x_standard_peripheral/Source\gd32f30x_timer.c ****             /* set the ISO0N bit */
 888:C:/Users/49542/Desktop/GD32F30x_Demo_Suites_V2.0.0/GD32F30x_Demo_Suites_V2.0.0/GD32F30x_Firmware_Library/GD32F30x_standard_peripheral/Source\gd32f30x_timer.c ****             TIMER_CTL1(timer_periph) |= (uint32_t)ocpara->ocnidlestate;
 2868              		.loc 1 888 0
 2869 0112 FB68     		ldr	r3, [r7, #12]
 2870 0114 0433     		adds	r3, r3, #4
 2871 0116 1B68     		ldr	r3, [r3]
 2872 0118 7A68     		ldr	r2, [r7, #4]
 2873 011a 5289     		ldrh	r2, [r2, #10]
 2874 011c 1146     		mov	r1, r2
 2875 011e FA68     		ldr	r2, [r7, #12]
 2876 0120 0432     		adds	r2, r2, #4
 2877 0122 0B43     		orrs	r3, r3, r1
 2878 0124 1360     		str	r3, [r2]
 889:C:/Users/49542/Desktop/GD32F30x_Demo_Suites_V2.0.0/GD32F30x_Demo_Suites_V2.0.0/GD32F30x_Firmware_Library/GD32F30x_standard_peripheral/Source\gd32f30x_timer.c ****         }
 890:C:/Users/49542/Desktop/GD32F30x_Demo_Suites_V2.0.0/GD32F30x_Demo_Suites_V2.0.0/GD32F30x_Firmware_Library/GD32F30x_standard_peripheral/Source\gd32f30x_timer.c ****         break;
 2879              		.loc 1 890 0
 2880 0126 48E1     		b	.L113
 2881              	.L100:
 891:C:/Users/49542/Desktop/GD32F30x_Demo_Suites_V2.0.0/GD32F30x_Demo_Suites_V2.0.0/GD32F30x_Firmware_Library/GD32F30x_standard_peripheral/Source\gd32f30x_timer.c ****     /* configure TIMER_CH_1 */
 892:C:/Users/49542/Desktop/GD32F30x_Demo_Suites_V2.0.0/GD32F30x_Demo_Suites_V2.0.0/GD32F30x_Firmware_Library/GD32F30x_standard_peripheral/Source\gd32f30x_timer.c ****     case TIMER_CH_1:
 893:C:/Users/49542/Desktop/GD32F30x_Demo_Suites_V2.0.0/GD32F30x_Demo_Suites_V2.0.0/GD32F30x_Firmware_Library/GD32F30x_standard_peripheral/Source\gd32f30x_timer.c ****         /* reset the CH1EN bit */
 894:C:/Users/49542/Desktop/GD32F30x_Demo_Suites_V2.0.0/GD32F30x_Demo_Suites_V2.0.0/GD32F30x_Firmware_Library/GD32F30x_standard_peripheral/Source\gd32f30x_timer.c ****         TIMER_CHCTL2(timer_periph) &= (~(uint32_t)TIMER_CHCTL2_CH1EN);
 2882              		.loc 1 894 0
 2883 0128 FB68     		ldr	r3, [r7, #12]
 2884 012a 2033     		adds	r3, r3, #32
 2885 012c 1B68     		ldr	r3, [r3]
 2886 012e FA68     		ldr	r2, [r7, #12]
 2887 0130 2032     		adds	r2, r2, #32
 2888 0132 23F01003 		bic	r3, r3, #16
 2889 0136 1360     		str	r3, [r2]
 895:C:/Users/49542/Desktop/GD32F30x_Demo_Suites_V2.0.0/GD32F30x_Demo_Suites_V2.0.0/GD32F30x_Firmware_Library/GD32F30x_standard_peripheral/Source\gd32f30x_timer.c ****         TIMER_CHCTL0(timer_periph) &= ~(uint32_t)TIMER_CHCTL0_CH1MS;
ARM GAS  C:\Users\49542\AppData\Local\Temp\ccx6VnNU.s 			page 67


 2890              		.loc 1 895 0
 2891 0138 FB68     		ldr	r3, [r7, #12]
 2892 013a 1833     		adds	r3, r3, #24
 2893 013c 1B68     		ldr	r3, [r3]
 2894 013e FA68     		ldr	r2, [r7, #12]
 2895 0140 1832     		adds	r2, r2, #24
 2896 0142 23F44073 		bic	r3, r3, #768
 2897 0146 1360     		str	r3, [r2]
 896:C:/Users/49542/Desktop/GD32F30x_Demo_Suites_V2.0.0/GD32F30x_Demo_Suites_V2.0.0/GD32F30x_Firmware_Library/GD32F30x_standard_peripheral/Source\gd32f30x_timer.c ****         /* set the CH1EN bit */
 897:C:/Users/49542/Desktop/GD32F30x_Demo_Suites_V2.0.0/GD32F30x_Demo_Suites_V2.0.0/GD32F30x_Firmware_Library/GD32F30x_standard_peripheral/Source\gd32f30x_timer.c ****         TIMER_CHCTL2(timer_periph) |= (uint32_t)((uint32_t)ocpara->outputstate << 4U);
 2898              		.loc 1 897 0
 2899 0148 FB68     		ldr	r3, [r7, #12]
 2900 014a 2033     		adds	r3, r3, #32
 2901 014c 1A68     		ldr	r2, [r3]
 2902 014e 7B68     		ldr	r3, [r7, #4]
 2903 0150 1B88     		ldrh	r3, [r3]
 2904 0152 1B01     		lsls	r3, r3, #4
 2905 0154 F968     		ldr	r1, [r7, #12]
 2906 0156 2031     		adds	r1, r1, #32
 2907 0158 1343     		orrs	r3, r3, r2
 2908 015a 0B60     		str	r3, [r1]
 898:C:/Users/49542/Desktop/GD32F30x_Demo_Suites_V2.0.0/GD32F30x_Demo_Suites_V2.0.0/GD32F30x_Firmware_Library/GD32F30x_standard_peripheral/Source\gd32f30x_timer.c ****         /* reset the CH1P bit */
 899:C:/Users/49542/Desktop/GD32F30x_Demo_Suites_V2.0.0/GD32F30x_Demo_Suites_V2.0.0/GD32F30x_Firmware_Library/GD32F30x_standard_peripheral/Source\gd32f30x_timer.c ****         TIMER_CHCTL2(timer_periph) &= (~(uint32_t)TIMER_CHCTL2_CH1P);
 2909              		.loc 1 899 0
 2910 015c FB68     		ldr	r3, [r7, #12]
 2911 015e 2033     		adds	r3, r3, #32
 2912 0160 1B68     		ldr	r3, [r3]
 2913 0162 FA68     		ldr	r2, [r7, #12]
 2914 0164 2032     		adds	r2, r2, #32
 2915 0166 23F02003 		bic	r3, r3, #32
 2916 016a 1360     		str	r3, [r2]
 900:C:/Users/49542/Desktop/GD32F30x_Demo_Suites_V2.0.0/GD32F30x_Demo_Suites_V2.0.0/GD32F30x_Firmware_Library/GD32F30x_standard_peripheral/Source\gd32f30x_timer.c ****         /* set the CH1P bit */
 901:C:/Users/49542/Desktop/GD32F30x_Demo_Suites_V2.0.0/GD32F30x_Demo_Suites_V2.0.0/GD32F30x_Firmware_Library/GD32F30x_standard_peripheral/Source\gd32f30x_timer.c ****         TIMER_CHCTL2(timer_periph) |= (uint32_t)((uint32_t)(ocpara->ocpolarity) << 4U);
 2917              		.loc 1 901 0
 2918 016c FB68     		ldr	r3, [r7, #12]
 2919 016e 2033     		adds	r3, r3, #32
 2920 0170 1A68     		ldr	r2, [r3]
 2921 0172 7B68     		ldr	r3, [r7, #4]
 2922 0174 9B88     		ldrh	r3, [r3, #4]
 2923 0176 1B01     		lsls	r3, r3, #4
 2924 0178 F968     		ldr	r1, [r7, #12]
 2925 017a 2031     		adds	r1, r1, #32
 2926 017c 1343     		orrs	r3, r3, r2
 2927 017e 0B60     		str	r3, [r1]
 902:C:/Users/49542/Desktop/GD32F30x_Demo_Suites_V2.0.0/GD32F30x_Demo_Suites_V2.0.0/GD32F30x_Firmware_Library/GD32F30x_standard_peripheral/Source\gd32f30x_timer.c **** 
 903:C:/Users/49542/Desktop/GD32F30x_Demo_Suites_V2.0.0/GD32F30x_Demo_Suites_V2.0.0/GD32F30x_Firmware_Library/GD32F30x_standard_peripheral/Source\gd32f30x_timer.c ****         if((TIMER0 == timer_periph) || (TIMER7 == timer_periph)){
 2928              		.loc 1 903 0
 2929 0180 FB68     		ldr	r3, [r7, #12]
 2930 0182 284A     		ldr	r2, .L117
 2931 0184 9342     		cmp	r3, r2
 2932 0186 04D0     		beq	.L106
 2933              		.loc 1 903 0 is_stmt 0 discriminator 1
 2934 0188 FB68     		ldr	r3, [r7, #12]
 2935 018a 274A     		ldr	r2, .L117+4
 2936 018c 9342     		cmp	r3, r2
 2937 018e 40F01681 		bne	.L114
 2938              	.L106:
ARM GAS  C:\Users\49542\AppData\Local\Temp\ccx6VnNU.s 			page 68


 904:C:/Users/49542/Desktop/GD32F30x_Demo_Suites_V2.0.0/GD32F30x_Demo_Suites_V2.0.0/GD32F30x_Firmware_Library/GD32F30x_standard_peripheral/Source\gd32f30x_timer.c ****             /* reset the CH1NEN bit */
 905:C:/Users/49542/Desktop/GD32F30x_Demo_Suites_V2.0.0/GD32F30x_Demo_Suites_V2.0.0/GD32F30x_Firmware_Library/GD32F30x_standard_peripheral/Source\gd32f30x_timer.c ****             TIMER_CHCTL2(timer_periph) &= (~(uint32_t)TIMER_CHCTL2_CH1NEN);
 2939              		.loc 1 905 0 is_stmt 1
 2940 0192 FB68     		ldr	r3, [r7, #12]
 2941 0194 2033     		adds	r3, r3, #32
 2942 0196 1B68     		ldr	r3, [r3]
 2943 0198 FA68     		ldr	r2, [r7, #12]
 2944 019a 2032     		adds	r2, r2, #32
 2945 019c 23F04003 		bic	r3, r3, #64
 2946 01a0 1360     		str	r3, [r2]
 906:C:/Users/49542/Desktop/GD32F30x_Demo_Suites_V2.0.0/GD32F30x_Demo_Suites_V2.0.0/GD32F30x_Firmware_Library/GD32F30x_standard_peripheral/Source\gd32f30x_timer.c ****             /* set the CH1NEN bit */
 907:C:/Users/49542/Desktop/GD32F30x_Demo_Suites_V2.0.0/GD32F30x_Demo_Suites_V2.0.0/GD32F30x_Firmware_Library/GD32F30x_standard_peripheral/Source\gd32f30x_timer.c ****             TIMER_CHCTL2(timer_periph) |= (uint32_t)((uint32_t)(ocpara->outputnstate) << 4U);
 2947              		.loc 1 907 0
 2948 01a2 FB68     		ldr	r3, [r7, #12]
 2949 01a4 2033     		adds	r3, r3, #32
 2950 01a6 1A68     		ldr	r2, [r3]
 2951 01a8 7B68     		ldr	r3, [r7, #4]
 2952 01aa 5B88     		ldrh	r3, [r3, #2]
 2953 01ac 1B01     		lsls	r3, r3, #4
 2954 01ae F968     		ldr	r1, [r7, #12]
 2955 01b0 2031     		adds	r1, r1, #32
 2956 01b2 1343     		orrs	r3, r3, r2
 2957 01b4 0B60     		str	r3, [r1]
 908:C:/Users/49542/Desktop/GD32F30x_Demo_Suites_V2.0.0/GD32F30x_Demo_Suites_V2.0.0/GD32F30x_Firmware_Library/GD32F30x_standard_peripheral/Source\gd32f30x_timer.c ****             /* reset the CH1NP bit */
 909:C:/Users/49542/Desktop/GD32F30x_Demo_Suites_V2.0.0/GD32F30x_Demo_Suites_V2.0.0/GD32F30x_Firmware_Library/GD32F30x_standard_peripheral/Source\gd32f30x_timer.c ****             TIMER_CHCTL2(timer_periph) &= (~(uint32_t)TIMER_CHCTL2_CH1NP);
 2958              		.loc 1 909 0
 2959 01b6 FB68     		ldr	r3, [r7, #12]
 2960 01b8 2033     		adds	r3, r3, #32
 2961 01ba 1B68     		ldr	r3, [r3]
 2962 01bc FA68     		ldr	r2, [r7, #12]
 2963 01be 2032     		adds	r2, r2, #32
 2964 01c0 23F08003 		bic	r3, r3, #128
 2965 01c4 1360     		str	r3, [r2]
 910:C:/Users/49542/Desktop/GD32F30x_Demo_Suites_V2.0.0/GD32F30x_Demo_Suites_V2.0.0/GD32F30x_Firmware_Library/GD32F30x_standard_peripheral/Source\gd32f30x_timer.c ****             /* set the CH1NP bit */
 911:C:/Users/49542/Desktop/GD32F30x_Demo_Suites_V2.0.0/GD32F30x_Demo_Suites_V2.0.0/GD32F30x_Firmware_Library/GD32F30x_standard_peripheral/Source\gd32f30x_timer.c ****             TIMER_CHCTL2(timer_periph) |= (uint32_t)((uint32_t)(ocpara->ocnpolarity) << 4U);
 2966              		.loc 1 911 0
 2967 01c6 FB68     		ldr	r3, [r7, #12]
 2968 01c8 2033     		adds	r3, r3, #32
 2969 01ca 1A68     		ldr	r2, [r3]
 2970 01cc 7B68     		ldr	r3, [r7, #4]
 2971 01ce DB88     		ldrh	r3, [r3, #6]
 2972 01d0 1B01     		lsls	r3, r3, #4
 2973 01d2 F968     		ldr	r1, [r7, #12]
 2974 01d4 2031     		adds	r1, r1, #32
 2975 01d6 1343     		orrs	r3, r3, r2
 2976 01d8 0B60     		str	r3, [r1]
 912:C:/Users/49542/Desktop/GD32F30x_Demo_Suites_V2.0.0/GD32F30x_Demo_Suites_V2.0.0/GD32F30x_Firmware_Library/GD32F30x_standard_peripheral/Source\gd32f30x_timer.c ****             /* reset the ISO1 bit */
 913:C:/Users/49542/Desktop/GD32F30x_Demo_Suites_V2.0.0/GD32F30x_Demo_Suites_V2.0.0/GD32F30x_Firmware_Library/GD32F30x_standard_peripheral/Source\gd32f30x_timer.c ****             TIMER_CTL1(timer_periph) &= (~(uint32_t)TIMER_CTL1_ISO1);
 2977              		.loc 1 913 0
 2978 01da FB68     		ldr	r3, [r7, #12]
 2979 01dc 0433     		adds	r3, r3, #4
 2980 01de 1B68     		ldr	r3, [r3]
 2981 01e0 FA68     		ldr	r2, [r7, #12]
 2982 01e2 0432     		adds	r2, r2, #4
 2983 01e4 23F48063 		bic	r3, r3, #1024
 2984 01e8 1360     		str	r3, [r2]
 914:C:/Users/49542/Desktop/GD32F30x_Demo_Suites_V2.0.0/GD32F30x_Demo_Suites_V2.0.0/GD32F30x_Firmware_Library/GD32F30x_standard_peripheral/Source\gd32f30x_timer.c ****             /* set the ISO1 bit */
ARM GAS  C:\Users\49542\AppData\Local\Temp\ccx6VnNU.s 			page 69


 915:C:/Users/49542/Desktop/GD32F30x_Demo_Suites_V2.0.0/GD32F30x_Demo_Suites_V2.0.0/GD32F30x_Firmware_Library/GD32F30x_standard_peripheral/Source\gd32f30x_timer.c ****             TIMER_CTL1(timer_periph) |= (uint32_t)((uint32_t)(ocpara->ocidlestate) << 2U);
 2985              		.loc 1 915 0
 2986 01ea FB68     		ldr	r3, [r7, #12]
 2987 01ec 0433     		adds	r3, r3, #4
 2988 01ee 1A68     		ldr	r2, [r3]
 2989 01f0 7B68     		ldr	r3, [r7, #4]
 2990 01f2 1B89     		ldrh	r3, [r3, #8]
 2991 01f4 9B00     		lsls	r3, r3, #2
 2992 01f6 F968     		ldr	r1, [r7, #12]
 2993 01f8 0431     		adds	r1, r1, #4
 2994 01fa 1343     		orrs	r3, r3, r2
 2995 01fc 0B60     		str	r3, [r1]
 916:C:/Users/49542/Desktop/GD32F30x_Demo_Suites_V2.0.0/GD32F30x_Demo_Suites_V2.0.0/GD32F30x_Firmware_Library/GD32F30x_standard_peripheral/Source\gd32f30x_timer.c ****             /* reset the ISO1N bit */
 917:C:/Users/49542/Desktop/GD32F30x_Demo_Suites_V2.0.0/GD32F30x_Demo_Suites_V2.0.0/GD32F30x_Firmware_Library/GD32F30x_standard_peripheral/Source\gd32f30x_timer.c ****             TIMER_CTL1(timer_periph) &= (~(uint32_t)TIMER_CTL1_ISO1N);
 2996              		.loc 1 917 0
 2997 01fe FB68     		ldr	r3, [r7, #12]
 2998 0200 0433     		adds	r3, r3, #4
 2999 0202 1B68     		ldr	r3, [r3]
 3000 0204 FA68     		ldr	r2, [r7, #12]
 3001 0206 0432     		adds	r2, r2, #4
 3002 0208 23F40063 		bic	r3, r3, #2048
 3003 020c 1360     		str	r3, [r2]
 918:C:/Users/49542/Desktop/GD32F30x_Demo_Suites_V2.0.0/GD32F30x_Demo_Suites_V2.0.0/GD32F30x_Firmware_Library/GD32F30x_standard_peripheral/Source\gd32f30x_timer.c ****             /* set the ISO1N bit */
 919:C:/Users/49542/Desktop/GD32F30x_Demo_Suites_V2.0.0/GD32F30x_Demo_Suites_V2.0.0/GD32F30x_Firmware_Library/GD32F30x_standard_peripheral/Source\gd32f30x_timer.c ****             TIMER_CTL1(timer_periph) |= (uint32_t)((uint32_t)(ocpara->ocnidlestate) << 2U);
 3004              		.loc 1 919 0
 3005 020e FB68     		ldr	r3, [r7, #12]
 3006 0210 0433     		adds	r3, r3, #4
 3007 0212 1A68     		ldr	r2, [r3]
 3008 0214 7B68     		ldr	r3, [r7, #4]
 3009 0216 5B89     		ldrh	r3, [r3, #10]
 3010 0218 9B00     		lsls	r3, r3, #2
 3011 021a F968     		ldr	r1, [r7, #12]
 3012 021c 0431     		adds	r1, r1, #4
 3013 021e 1343     		orrs	r3, r3, r2
 3014 0220 0B60     		str	r3, [r1]
 920:C:/Users/49542/Desktop/GD32F30x_Demo_Suites_V2.0.0/GD32F30x_Demo_Suites_V2.0.0/GD32F30x_Firmware_Library/GD32F30x_standard_peripheral/Source\gd32f30x_timer.c ****         }
 921:C:/Users/49542/Desktop/GD32F30x_Demo_Suites_V2.0.0/GD32F30x_Demo_Suites_V2.0.0/GD32F30x_Firmware_Library/GD32F30x_standard_peripheral/Source\gd32f30x_timer.c ****         break;
 3015              		.loc 1 921 0
 3016 0222 CCE0     		b	.L114
 3017              	.L118:
 3018              		.align	2
 3019              	.L117:
 3020 0224 002C0140 		.word	1073818624
 3021 0228 00340140 		.word	1073820672
 3022              	.L101:
 922:C:/Users/49542/Desktop/GD32F30x_Demo_Suites_V2.0.0/GD32F30x_Demo_Suites_V2.0.0/GD32F30x_Firmware_Library/GD32F30x_standard_peripheral/Source\gd32f30x_timer.c ****     /* configure TIMER_CH_2 */
 923:C:/Users/49542/Desktop/GD32F30x_Demo_Suites_V2.0.0/GD32F30x_Demo_Suites_V2.0.0/GD32F30x_Firmware_Library/GD32F30x_standard_peripheral/Source\gd32f30x_timer.c ****     case TIMER_CH_2:
 924:C:/Users/49542/Desktop/GD32F30x_Demo_Suites_V2.0.0/GD32F30x_Demo_Suites_V2.0.0/GD32F30x_Firmware_Library/GD32F30x_standard_peripheral/Source\gd32f30x_timer.c ****         /* reset the CH2EN bit */
 925:C:/Users/49542/Desktop/GD32F30x_Demo_Suites_V2.0.0/GD32F30x_Demo_Suites_V2.0.0/GD32F30x_Firmware_Library/GD32F30x_standard_peripheral/Source\gd32f30x_timer.c ****         TIMER_CHCTL2(timer_periph) &= (~(uint32_t)TIMER_CHCTL2_CH2EN);
 3023              		.loc 1 925 0
 3024 022c FB68     		ldr	r3, [r7, #12]
 3025 022e 2033     		adds	r3, r3, #32
 3026 0230 1B68     		ldr	r3, [r3]
 3027 0232 FA68     		ldr	r2, [r7, #12]
 3028 0234 2032     		adds	r2, r2, #32
 3029 0236 23F48073 		bic	r3, r3, #256
 3030 023a 1360     		str	r3, [r2]
ARM GAS  C:\Users\49542\AppData\Local\Temp\ccx6VnNU.s 			page 70


 926:C:/Users/49542/Desktop/GD32F30x_Demo_Suites_V2.0.0/GD32F30x_Demo_Suites_V2.0.0/GD32F30x_Firmware_Library/GD32F30x_standard_peripheral/Source\gd32f30x_timer.c ****         TIMER_CHCTL1(timer_periph) &= ~(uint32_t)TIMER_CHCTL1_CH2MS;
 3031              		.loc 1 926 0
 3032 023c FB68     		ldr	r3, [r7, #12]
 3033 023e 1C33     		adds	r3, r3, #28
 3034 0240 1B68     		ldr	r3, [r3]
 3035 0242 FA68     		ldr	r2, [r7, #12]
 3036 0244 1C32     		adds	r2, r2, #28
 3037 0246 23F00303 		bic	r3, r3, #3
 3038 024a 1360     		str	r3, [r2]
 927:C:/Users/49542/Desktop/GD32F30x_Demo_Suites_V2.0.0/GD32F30x_Demo_Suites_V2.0.0/GD32F30x_Firmware_Library/GD32F30x_standard_peripheral/Source\gd32f30x_timer.c ****         /* set the CH2EN bit */
 928:C:/Users/49542/Desktop/GD32F30x_Demo_Suites_V2.0.0/GD32F30x_Demo_Suites_V2.0.0/GD32F30x_Firmware_Library/GD32F30x_standard_peripheral/Source\gd32f30x_timer.c ****         TIMER_CHCTL2(timer_periph) |= (uint32_t)((uint32_t)ocpara->outputstate << 8U);
 3039              		.loc 1 928 0
 3040 024c FB68     		ldr	r3, [r7, #12]
 3041 024e 2033     		adds	r3, r3, #32
 3042 0250 1A68     		ldr	r2, [r3]
 3043 0252 7B68     		ldr	r3, [r7, #4]
 3044 0254 1B88     		ldrh	r3, [r3]
 3045 0256 1B02     		lsls	r3, r3, #8
 3046 0258 F968     		ldr	r1, [r7, #12]
 3047 025a 2031     		adds	r1, r1, #32
 3048 025c 1343     		orrs	r3, r3, r2
 3049 025e 0B60     		str	r3, [r1]
 929:C:/Users/49542/Desktop/GD32F30x_Demo_Suites_V2.0.0/GD32F30x_Demo_Suites_V2.0.0/GD32F30x_Firmware_Library/GD32F30x_standard_peripheral/Source\gd32f30x_timer.c ****         /* reset the CH2P bit */
 930:C:/Users/49542/Desktop/GD32F30x_Demo_Suites_V2.0.0/GD32F30x_Demo_Suites_V2.0.0/GD32F30x_Firmware_Library/GD32F30x_standard_peripheral/Source\gd32f30x_timer.c ****         TIMER_CHCTL2(timer_periph) &= (~(uint32_t)TIMER_CHCTL2_CH2P);
 3050              		.loc 1 930 0
 3051 0260 FB68     		ldr	r3, [r7, #12]
 3052 0262 2033     		adds	r3, r3, #32
 3053 0264 1B68     		ldr	r3, [r3]
 3054 0266 FA68     		ldr	r2, [r7, #12]
 3055 0268 2032     		adds	r2, r2, #32
 3056 026a 23F40073 		bic	r3, r3, #512
 3057 026e 1360     		str	r3, [r2]
 931:C:/Users/49542/Desktop/GD32F30x_Demo_Suites_V2.0.0/GD32F30x_Demo_Suites_V2.0.0/GD32F30x_Firmware_Library/GD32F30x_standard_peripheral/Source\gd32f30x_timer.c ****         /* set the CH2P bit */
 932:C:/Users/49542/Desktop/GD32F30x_Demo_Suites_V2.0.0/GD32F30x_Demo_Suites_V2.0.0/GD32F30x_Firmware_Library/GD32F30x_standard_peripheral/Source\gd32f30x_timer.c ****         TIMER_CHCTL2(timer_periph) |= (uint32_t)((uint32_t)(ocpara->ocpolarity) << 8U);
 3058              		.loc 1 932 0
 3059 0270 FB68     		ldr	r3, [r7, #12]
 3060 0272 2033     		adds	r3, r3, #32
 3061 0274 1A68     		ldr	r2, [r3]
 3062 0276 7B68     		ldr	r3, [r7, #4]
 3063 0278 9B88     		ldrh	r3, [r3, #4]
 3064 027a 1B02     		lsls	r3, r3, #8
 3065 027c F968     		ldr	r1, [r7, #12]
 3066 027e 2031     		adds	r1, r1, #32
 3067 0280 1343     		orrs	r3, r3, r2
 3068 0282 0B60     		str	r3, [r1]
 933:C:/Users/49542/Desktop/GD32F30x_Demo_Suites_V2.0.0/GD32F30x_Demo_Suites_V2.0.0/GD32F30x_Firmware_Library/GD32F30x_standard_peripheral/Source\gd32f30x_timer.c **** 
 934:C:/Users/49542/Desktop/GD32F30x_Demo_Suites_V2.0.0/GD32F30x_Demo_Suites_V2.0.0/GD32F30x_Firmware_Library/GD32F30x_standard_peripheral/Source\gd32f30x_timer.c ****         if((TIMER0 == timer_periph) || (TIMER7 == timer_periph)){
 3069              		.loc 1 934 0
 3070 0284 FB68     		ldr	r3, [r7, #12]
 3071 0286 534A     		ldr	r2, .L119
 3072 0288 9342     		cmp	r3, r2
 3073 028a 04D0     		beq	.L108
 3074              		.loc 1 934 0 is_stmt 0 discriminator 1
 3075 028c FB68     		ldr	r3, [r7, #12]
 3076 028e 524A     		ldr	r2, .L119+4
 3077 0290 9342     		cmp	r3, r2
 3078 0292 40F09680 		bne	.L115
ARM GAS  C:\Users\49542\AppData\Local\Temp\ccx6VnNU.s 			page 71


 3079              	.L108:
 935:C:/Users/49542/Desktop/GD32F30x_Demo_Suites_V2.0.0/GD32F30x_Demo_Suites_V2.0.0/GD32F30x_Firmware_Library/GD32F30x_standard_peripheral/Source\gd32f30x_timer.c ****             /* reset the CH2NEN bit */
 936:C:/Users/49542/Desktop/GD32F30x_Demo_Suites_V2.0.0/GD32F30x_Demo_Suites_V2.0.0/GD32F30x_Firmware_Library/GD32F30x_standard_peripheral/Source\gd32f30x_timer.c ****             TIMER_CHCTL2(timer_periph) &= (~(uint32_t)TIMER_CHCTL2_CH2NEN);
 3080              		.loc 1 936 0 is_stmt 1
 3081 0296 FB68     		ldr	r3, [r7, #12]
 3082 0298 2033     		adds	r3, r3, #32
 3083 029a 1B68     		ldr	r3, [r3]
 3084 029c FA68     		ldr	r2, [r7, #12]
 3085 029e 2032     		adds	r2, r2, #32
 3086 02a0 23F48063 		bic	r3, r3, #1024
 3087 02a4 1360     		str	r3, [r2]
 937:C:/Users/49542/Desktop/GD32F30x_Demo_Suites_V2.0.0/GD32F30x_Demo_Suites_V2.0.0/GD32F30x_Firmware_Library/GD32F30x_standard_peripheral/Source\gd32f30x_timer.c ****             /* set the CH2NEN bit */
 938:C:/Users/49542/Desktop/GD32F30x_Demo_Suites_V2.0.0/GD32F30x_Demo_Suites_V2.0.0/GD32F30x_Firmware_Library/GD32F30x_standard_peripheral/Source\gd32f30x_timer.c ****             TIMER_CHCTL2(timer_periph) |= (uint32_t)((uint32_t)(ocpara->outputnstate) << 8U);
 3088              		.loc 1 938 0
 3089 02a6 FB68     		ldr	r3, [r7, #12]
 3090 02a8 2033     		adds	r3, r3, #32
 3091 02aa 1A68     		ldr	r2, [r3]
 3092 02ac 7B68     		ldr	r3, [r7, #4]
 3093 02ae 5B88     		ldrh	r3, [r3, #2]
 3094 02b0 1B02     		lsls	r3, r3, #8
 3095 02b2 F968     		ldr	r1, [r7, #12]
 3096 02b4 2031     		adds	r1, r1, #32
 3097 02b6 1343     		orrs	r3, r3, r2
 3098 02b8 0B60     		str	r3, [r1]
 939:C:/Users/49542/Desktop/GD32F30x_Demo_Suites_V2.0.0/GD32F30x_Demo_Suites_V2.0.0/GD32F30x_Firmware_Library/GD32F30x_standard_peripheral/Source\gd32f30x_timer.c ****             /* reset the CH2NP bit */
 940:C:/Users/49542/Desktop/GD32F30x_Demo_Suites_V2.0.0/GD32F30x_Demo_Suites_V2.0.0/GD32F30x_Firmware_Library/GD32F30x_standard_peripheral/Source\gd32f30x_timer.c ****             TIMER_CHCTL2(timer_periph) &= (~(uint32_t)TIMER_CHCTL2_CH2NP);
 3099              		.loc 1 940 0
 3100 02ba FB68     		ldr	r3, [r7, #12]
 3101 02bc 2033     		adds	r3, r3, #32
 3102 02be 1B68     		ldr	r3, [r3]
 3103 02c0 FA68     		ldr	r2, [r7, #12]
 3104 02c2 2032     		adds	r2, r2, #32
 3105 02c4 23F40063 		bic	r3, r3, #2048
 3106 02c8 1360     		str	r3, [r2]
 941:C:/Users/49542/Desktop/GD32F30x_Demo_Suites_V2.0.0/GD32F30x_Demo_Suites_V2.0.0/GD32F30x_Firmware_Library/GD32F30x_standard_peripheral/Source\gd32f30x_timer.c ****             /* set the CH2NP bit */
 942:C:/Users/49542/Desktop/GD32F30x_Demo_Suites_V2.0.0/GD32F30x_Demo_Suites_V2.0.0/GD32F30x_Firmware_Library/GD32F30x_standard_peripheral/Source\gd32f30x_timer.c ****             TIMER_CHCTL2(timer_periph) |= (uint32_t)((uint32_t)(ocpara->ocnpolarity) << 8U);
 3107              		.loc 1 942 0
 3108 02ca FB68     		ldr	r3, [r7, #12]
 3109 02cc 2033     		adds	r3, r3, #32
 3110 02ce 1A68     		ldr	r2, [r3]
 3111 02d0 7B68     		ldr	r3, [r7, #4]
 3112 02d2 DB88     		ldrh	r3, [r3, #6]
 3113 02d4 1B02     		lsls	r3, r3, #8
 3114 02d6 F968     		ldr	r1, [r7, #12]
 3115 02d8 2031     		adds	r1, r1, #32
 3116 02da 1343     		orrs	r3, r3, r2
 3117 02dc 0B60     		str	r3, [r1]
 943:C:/Users/49542/Desktop/GD32F30x_Demo_Suites_V2.0.0/GD32F30x_Demo_Suites_V2.0.0/GD32F30x_Firmware_Library/GD32F30x_standard_peripheral/Source\gd32f30x_timer.c ****             /* reset the ISO2 bit */
 944:C:/Users/49542/Desktop/GD32F30x_Demo_Suites_V2.0.0/GD32F30x_Demo_Suites_V2.0.0/GD32F30x_Firmware_Library/GD32F30x_standard_peripheral/Source\gd32f30x_timer.c ****             TIMER_CTL1(timer_periph) &= (~(uint32_t)TIMER_CTL1_ISO2);
 3118              		.loc 1 944 0
 3119 02de FB68     		ldr	r3, [r7, #12]
 3120 02e0 0433     		adds	r3, r3, #4
 3121 02e2 1B68     		ldr	r3, [r3]
 3122 02e4 FA68     		ldr	r2, [r7, #12]
 3123 02e6 0432     		adds	r2, r2, #4
 3124 02e8 23F48053 		bic	r3, r3, #4096
 3125 02ec 1360     		str	r3, [r2]
ARM GAS  C:\Users\49542\AppData\Local\Temp\ccx6VnNU.s 			page 72


 945:C:/Users/49542/Desktop/GD32F30x_Demo_Suites_V2.0.0/GD32F30x_Demo_Suites_V2.0.0/GD32F30x_Firmware_Library/GD32F30x_standard_peripheral/Source\gd32f30x_timer.c ****             /* set the ISO2 bit */
 946:C:/Users/49542/Desktop/GD32F30x_Demo_Suites_V2.0.0/GD32F30x_Demo_Suites_V2.0.0/GD32F30x_Firmware_Library/GD32F30x_standard_peripheral/Source\gd32f30x_timer.c ****             TIMER_CTL1(timer_periph) |= (uint32_t)((uint32_t)(ocpara->ocidlestate) << 4U);
 3126              		.loc 1 946 0
 3127 02ee FB68     		ldr	r3, [r7, #12]
 3128 02f0 0433     		adds	r3, r3, #4
 3129 02f2 1A68     		ldr	r2, [r3]
 3130 02f4 7B68     		ldr	r3, [r7, #4]
 3131 02f6 1B89     		ldrh	r3, [r3, #8]
 3132 02f8 1B01     		lsls	r3, r3, #4
 3133 02fa F968     		ldr	r1, [r7, #12]
 3134 02fc 0431     		adds	r1, r1, #4
 3135 02fe 1343     		orrs	r3, r3, r2
 3136 0300 0B60     		str	r3, [r1]
 947:C:/Users/49542/Desktop/GD32F30x_Demo_Suites_V2.0.0/GD32F30x_Demo_Suites_V2.0.0/GD32F30x_Firmware_Library/GD32F30x_standard_peripheral/Source\gd32f30x_timer.c ****             /* reset the ISO2N bit */
 948:C:/Users/49542/Desktop/GD32F30x_Demo_Suites_V2.0.0/GD32F30x_Demo_Suites_V2.0.0/GD32F30x_Firmware_Library/GD32F30x_standard_peripheral/Source\gd32f30x_timer.c ****             TIMER_CTL1(timer_periph) &= (~(uint32_t)TIMER_CTL1_ISO2N);
 3137              		.loc 1 948 0
 3138 0302 FB68     		ldr	r3, [r7, #12]
 3139 0304 0433     		adds	r3, r3, #4
 3140 0306 1B68     		ldr	r3, [r3]
 3141 0308 FA68     		ldr	r2, [r7, #12]
 3142 030a 0432     		adds	r2, r2, #4
 3143 030c 23F40053 		bic	r3, r3, #8192
 3144 0310 1360     		str	r3, [r2]
 949:C:/Users/49542/Desktop/GD32F30x_Demo_Suites_V2.0.0/GD32F30x_Demo_Suites_V2.0.0/GD32F30x_Firmware_Library/GD32F30x_standard_peripheral/Source\gd32f30x_timer.c ****             /* set the ISO2N bit */
 950:C:/Users/49542/Desktop/GD32F30x_Demo_Suites_V2.0.0/GD32F30x_Demo_Suites_V2.0.0/GD32F30x_Firmware_Library/GD32F30x_standard_peripheral/Source\gd32f30x_timer.c ****             TIMER_CTL1(timer_periph) |= (uint32_t)((uint32_t)(ocpara->ocnidlestate) << 4U);
 3145              		.loc 1 950 0
 3146 0312 FB68     		ldr	r3, [r7, #12]
 3147 0314 0433     		adds	r3, r3, #4
 3148 0316 1A68     		ldr	r2, [r3]
 3149 0318 7B68     		ldr	r3, [r7, #4]
 3150 031a 5B89     		ldrh	r3, [r3, #10]
 3151 031c 1B01     		lsls	r3, r3, #4
 3152 031e F968     		ldr	r1, [r7, #12]
 3153 0320 0431     		adds	r1, r1, #4
 3154 0322 1343     		orrs	r3, r3, r2
 3155 0324 0B60     		str	r3, [r1]
 951:C:/Users/49542/Desktop/GD32F30x_Demo_Suites_V2.0.0/GD32F30x_Demo_Suites_V2.0.0/GD32F30x_Firmware_Library/GD32F30x_standard_peripheral/Source\gd32f30x_timer.c ****         }
 952:C:/Users/49542/Desktop/GD32F30x_Demo_Suites_V2.0.0/GD32F30x_Demo_Suites_V2.0.0/GD32F30x_Firmware_Library/GD32F30x_standard_peripheral/Source\gd32f30x_timer.c ****         break;
 3156              		.loc 1 952 0
 3157 0326 4CE0     		b	.L115
 3158              	.L102:
 953:C:/Users/49542/Desktop/GD32F30x_Demo_Suites_V2.0.0/GD32F30x_Demo_Suites_V2.0.0/GD32F30x_Firmware_Library/GD32F30x_standard_peripheral/Source\gd32f30x_timer.c ****     /* configure TIMER_CH_3 */
 954:C:/Users/49542/Desktop/GD32F30x_Demo_Suites_V2.0.0/GD32F30x_Demo_Suites_V2.0.0/GD32F30x_Firmware_Library/GD32F30x_standard_peripheral/Source\gd32f30x_timer.c ****     case TIMER_CH_3:
 955:C:/Users/49542/Desktop/GD32F30x_Demo_Suites_V2.0.0/GD32F30x_Demo_Suites_V2.0.0/GD32F30x_Firmware_Library/GD32F30x_standard_peripheral/Source\gd32f30x_timer.c ****         /* reset the CH3EN bit */
 956:C:/Users/49542/Desktop/GD32F30x_Demo_Suites_V2.0.0/GD32F30x_Demo_Suites_V2.0.0/GD32F30x_Firmware_Library/GD32F30x_standard_peripheral/Source\gd32f30x_timer.c ****         TIMER_CHCTL2(timer_periph) &=(~(uint32_t)TIMER_CHCTL2_CH3EN);
 3159              		.loc 1 956 0
 3160 0328 FB68     		ldr	r3, [r7, #12]
 3161 032a 2033     		adds	r3, r3, #32
 3162 032c 1B68     		ldr	r3, [r3]
 3163 032e FA68     		ldr	r2, [r7, #12]
 3164 0330 2032     		adds	r2, r2, #32
 3165 0332 23F48053 		bic	r3, r3, #4096
 3166 0336 1360     		str	r3, [r2]
 957:C:/Users/49542/Desktop/GD32F30x_Demo_Suites_V2.0.0/GD32F30x_Demo_Suites_V2.0.0/GD32F30x_Firmware_Library/GD32F30x_standard_peripheral/Source\gd32f30x_timer.c ****         TIMER_CHCTL1(timer_periph) &= ~(uint32_t)TIMER_CHCTL1_CH3MS;
 3167              		.loc 1 957 0
 3168 0338 FB68     		ldr	r3, [r7, #12]
 3169 033a 1C33     		adds	r3, r3, #28
ARM GAS  C:\Users\49542\AppData\Local\Temp\ccx6VnNU.s 			page 73


 3170 033c 1B68     		ldr	r3, [r3]
 3171 033e FA68     		ldr	r2, [r7, #12]
 3172 0340 1C32     		adds	r2, r2, #28
 3173 0342 23F44073 		bic	r3, r3, #768
 3174 0346 1360     		str	r3, [r2]
 958:C:/Users/49542/Desktop/GD32F30x_Demo_Suites_V2.0.0/GD32F30x_Demo_Suites_V2.0.0/GD32F30x_Firmware_Library/GD32F30x_standard_peripheral/Source\gd32f30x_timer.c ****         /* set the CH3EN bit */
 959:C:/Users/49542/Desktop/GD32F30x_Demo_Suites_V2.0.0/GD32F30x_Demo_Suites_V2.0.0/GD32F30x_Firmware_Library/GD32F30x_standard_peripheral/Source\gd32f30x_timer.c ****         TIMER_CHCTL2(timer_periph) |= (uint32_t)((uint32_t)ocpara->outputstate << 12U);
 3175              		.loc 1 959 0
 3176 0348 FB68     		ldr	r3, [r7, #12]
 3177 034a 2033     		adds	r3, r3, #32
 3178 034c 1A68     		ldr	r2, [r3]
 3179 034e 7B68     		ldr	r3, [r7, #4]
 3180 0350 1B88     		ldrh	r3, [r3]
 3181 0352 1B03     		lsls	r3, r3, #12
 3182 0354 F968     		ldr	r1, [r7, #12]
 3183 0356 2031     		adds	r1, r1, #32
 3184 0358 1343     		orrs	r3, r3, r2
 3185 035a 0B60     		str	r3, [r1]
 960:C:/Users/49542/Desktop/GD32F30x_Demo_Suites_V2.0.0/GD32F30x_Demo_Suites_V2.0.0/GD32F30x_Firmware_Library/GD32F30x_standard_peripheral/Source\gd32f30x_timer.c ****         /* reset the CH3P bit */
 961:C:/Users/49542/Desktop/GD32F30x_Demo_Suites_V2.0.0/GD32F30x_Demo_Suites_V2.0.0/GD32F30x_Firmware_Library/GD32F30x_standard_peripheral/Source\gd32f30x_timer.c ****         TIMER_CHCTL2(timer_periph) &= (~(uint32_t)TIMER_CHCTL2_CH3P);
 3186              		.loc 1 961 0
 3187 035c FB68     		ldr	r3, [r7, #12]
 3188 035e 2033     		adds	r3, r3, #32
 3189 0360 1B68     		ldr	r3, [r3]
 3190 0362 FA68     		ldr	r2, [r7, #12]
 3191 0364 2032     		adds	r2, r2, #32
 3192 0366 23F40053 		bic	r3, r3, #8192
 3193 036a 1360     		str	r3, [r2]
 962:C:/Users/49542/Desktop/GD32F30x_Demo_Suites_V2.0.0/GD32F30x_Demo_Suites_V2.0.0/GD32F30x_Firmware_Library/GD32F30x_standard_peripheral/Source\gd32f30x_timer.c ****         /* set the CH3P bit */
 963:C:/Users/49542/Desktop/GD32F30x_Demo_Suites_V2.0.0/GD32F30x_Demo_Suites_V2.0.0/GD32F30x_Firmware_Library/GD32F30x_standard_peripheral/Source\gd32f30x_timer.c ****         TIMER_CHCTL2(timer_periph) |= (uint32_t)((uint32_t)(ocpara->ocpolarity) << 12U);
 3194              		.loc 1 963 0
 3195 036c FB68     		ldr	r3, [r7, #12]
 3196 036e 2033     		adds	r3, r3, #32
 3197 0370 1A68     		ldr	r2, [r3]
 3198 0372 7B68     		ldr	r3, [r7, #4]
 3199 0374 9B88     		ldrh	r3, [r3, #4]
 3200 0376 1B03     		lsls	r3, r3, #12
 3201 0378 F968     		ldr	r1, [r7, #12]
 3202 037a 2031     		adds	r1, r1, #32
 3203 037c 1343     		orrs	r3, r3, r2
 3204 037e 0B60     		str	r3, [r1]
 964:C:/Users/49542/Desktop/GD32F30x_Demo_Suites_V2.0.0/GD32F30x_Demo_Suites_V2.0.0/GD32F30x_Firmware_Library/GD32F30x_standard_peripheral/Source\gd32f30x_timer.c **** 
 965:C:/Users/49542/Desktop/GD32F30x_Demo_Suites_V2.0.0/GD32F30x_Demo_Suites_V2.0.0/GD32F30x_Firmware_Library/GD32F30x_standard_peripheral/Source\gd32f30x_timer.c ****         if((TIMER0 == timer_periph) || (TIMER7 == timer_periph)){
 3205              		.loc 1 965 0
 3206 0380 FB68     		ldr	r3, [r7, #12]
 3207 0382 144A     		ldr	r2, .L119
 3208 0384 9342     		cmp	r3, r2
 3209 0386 03D0     		beq	.L110
 3210              		.loc 1 965 0 is_stmt 0 discriminator 1
 3211 0388 FB68     		ldr	r3, [r7, #12]
 3212 038a 134A     		ldr	r2, .L119+4
 3213 038c 9342     		cmp	r3, r2
 3214 038e 1AD1     		bne	.L116
 3215              	.L110:
 966:C:/Users/49542/Desktop/GD32F30x_Demo_Suites_V2.0.0/GD32F30x_Demo_Suites_V2.0.0/GD32F30x_Firmware_Library/GD32F30x_standard_peripheral/Source\gd32f30x_timer.c ****             /* reset the ISO3 bit */
 967:C:/Users/49542/Desktop/GD32F30x_Demo_Suites_V2.0.0/GD32F30x_Demo_Suites_V2.0.0/GD32F30x_Firmware_Library/GD32F30x_standard_peripheral/Source\gd32f30x_timer.c ****             TIMER_CTL1(timer_periph) &= (~(uint32_t)TIMER_CTL1_ISO3);
 3216              		.loc 1 967 0 is_stmt 1
ARM GAS  C:\Users\49542\AppData\Local\Temp\ccx6VnNU.s 			page 74


 3217 0390 FB68     		ldr	r3, [r7, #12]
 3218 0392 0433     		adds	r3, r3, #4
 3219 0394 1B68     		ldr	r3, [r3]
 3220 0396 FA68     		ldr	r2, [r7, #12]
 3221 0398 0432     		adds	r2, r2, #4
 3222 039a 23F48043 		bic	r3, r3, #16384
 3223 039e 1360     		str	r3, [r2]
 968:C:/Users/49542/Desktop/GD32F30x_Demo_Suites_V2.0.0/GD32F30x_Demo_Suites_V2.0.0/GD32F30x_Firmware_Library/GD32F30x_standard_peripheral/Source\gd32f30x_timer.c ****             /* set the ISO3 bit */
 969:C:/Users/49542/Desktop/GD32F30x_Demo_Suites_V2.0.0/GD32F30x_Demo_Suites_V2.0.0/GD32F30x_Firmware_Library/GD32F30x_standard_peripheral/Source\gd32f30x_timer.c ****             TIMER_CTL1(timer_periph) |= (uint32_t)((uint32_t)(ocpara->ocidlestate) << 6U);
 3224              		.loc 1 969 0
 3225 03a0 FB68     		ldr	r3, [r7, #12]
 3226 03a2 0433     		adds	r3, r3, #4
 3227 03a4 1A68     		ldr	r2, [r3]
 3228 03a6 7B68     		ldr	r3, [r7, #4]
 3229 03a8 1B89     		ldrh	r3, [r3, #8]
 3230 03aa 9B01     		lsls	r3, r3, #6
 3231 03ac F968     		ldr	r1, [r7, #12]
 3232 03ae 0431     		adds	r1, r1, #4
 3233 03b0 1343     		orrs	r3, r3, r2
 3234 03b2 0B60     		str	r3, [r1]
 970:C:/Users/49542/Desktop/GD32F30x_Demo_Suites_V2.0.0/GD32F30x_Demo_Suites_V2.0.0/GD32F30x_Firmware_Library/GD32F30x_standard_peripheral/Source\gd32f30x_timer.c ****         }
 971:C:/Users/49542/Desktop/GD32F30x_Demo_Suites_V2.0.0/GD32F30x_Demo_Suites_V2.0.0/GD32F30x_Firmware_Library/GD32F30x_standard_peripheral/Source\gd32f30x_timer.c ****         break;
 3235              		.loc 1 971 0
 3236 03b4 07E0     		b	.L116
 3237              	.L112:
 972:C:/Users/49542/Desktop/GD32F30x_Demo_Suites_V2.0.0/GD32F30x_Demo_Suites_V2.0.0/GD32F30x_Firmware_Library/GD32F30x_standard_peripheral/Source\gd32f30x_timer.c ****     default:
 973:C:/Users/49542/Desktop/GD32F30x_Demo_Suites_V2.0.0/GD32F30x_Demo_Suites_V2.0.0/GD32F30x_Firmware_Library/GD32F30x_standard_peripheral/Source\gd32f30x_timer.c ****         break;
 3238              		.loc 1 973 0
 3239 03b6 00BF     		nop
 3240 03b8 06E0     		b	.L105
 3241              	.L113:
 890:C:/Users/49542/Desktop/GD32F30x_Demo_Suites_V2.0.0/GD32F30x_Demo_Suites_V2.0.0/GD32F30x_Firmware_Library/GD32F30x_standard_peripheral/Source\gd32f30x_timer.c ****     /* configure TIMER_CH_1 */
 3242              		.loc 1 890 0
 3243 03ba 00BF     		nop
 3244 03bc 04E0     		b	.L105
 3245              	.L114:
 921:C:/Users/49542/Desktop/GD32F30x_Demo_Suites_V2.0.0/GD32F30x_Demo_Suites_V2.0.0/GD32F30x_Firmware_Library/GD32F30x_standard_peripheral/Source\gd32f30x_timer.c ****     /* configure TIMER_CH_2 */
 3246              		.loc 1 921 0
 3247 03be 00BF     		nop
 3248 03c0 02E0     		b	.L105
 3249              	.L115:
 952:C:/Users/49542/Desktop/GD32F30x_Demo_Suites_V2.0.0/GD32F30x_Demo_Suites_V2.0.0/GD32F30x_Firmware_Library/GD32F30x_standard_peripheral/Source\gd32f30x_timer.c ****     /* configure TIMER_CH_3 */
 3250              		.loc 1 952 0
 3251 03c2 00BF     		nop
 3252 03c4 00E0     		b	.L105
 3253              	.L116:
 971:C:/Users/49542/Desktop/GD32F30x_Demo_Suites_V2.0.0/GD32F30x_Demo_Suites_V2.0.0/GD32F30x_Firmware_Library/GD32F30x_standard_peripheral/Source\gd32f30x_timer.c ****     default:
 3254              		.loc 1 971 0
 3255 03c6 00BF     		nop
 3256              	.L105:
 974:C:/Users/49542/Desktop/GD32F30x_Demo_Suites_V2.0.0/GD32F30x_Demo_Suites_V2.0.0/GD32F30x_Firmware_Library/GD32F30x_standard_peripheral/Source\gd32f30x_timer.c ****     }
 975:C:/Users/49542/Desktop/GD32F30x_Demo_Suites_V2.0.0/GD32F30x_Demo_Suites_V2.0.0/GD32F30x_Firmware_Library/GD32F30x_standard_peripheral/Source\gd32f30x_timer.c **** }
 3257              		.loc 1 975 0
 3258 03c8 00BF     		nop
 3259 03ca 1437     		adds	r7, r7, #20
 3260              	.LCFI248:
 3261              		.cfi_def_cfa_offset 4
ARM GAS  C:\Users\49542\AppData\Local\Temp\ccx6VnNU.s 			page 75


 3262 03cc BD46     		mov	sp, r7
 3263              	.LCFI249:
 3264              		.cfi_def_cfa_register 13
 3265              		@ sp needed
 3266 03ce 5DF8047B 		ldr	r7, [sp], #4
 3267              	.LCFI250:
 3268              		.cfi_restore 7
 3269              		.cfi_def_cfa_offset 0
 3270 03d2 7047     		bx	lr
 3271              	.L120:
 3272              		.align	2
 3273              	.L119:
 3274 03d4 002C0140 		.word	1073818624
 3275 03d8 00340140 		.word	1073820672
 3276              		.cfi_endproc
 3277              	.LFE157:
 3279              		.section	.text.timer_channel_output_mode_config,"ax",%progbits
 3280              		.align	1
 3281              		.global	timer_channel_output_mode_config
 3282              		.syntax unified
 3283              		.thumb
 3284              		.thumb_func
 3285              		.fpu fpv4-sp-d16
 3287              	timer_channel_output_mode_config:
 3288              	.LFB158:
 976:C:/Users/49542/Desktop/GD32F30x_Demo_Suites_V2.0.0/GD32F30x_Demo_Suites_V2.0.0/GD32F30x_Firmware_Library/GD32F30x_standard_peripheral/Source\gd32f30x_timer.c **** 
 977:C:/Users/49542/Desktop/GD32F30x_Demo_Suites_V2.0.0/GD32F30x_Demo_Suites_V2.0.0/GD32F30x_Firmware_Library/GD32F30x_standard_peripheral/Source\gd32f30x_timer.c **** /*!
 978:C:/Users/49542/Desktop/GD32F30x_Demo_Suites_V2.0.0/GD32F30x_Demo_Suites_V2.0.0/GD32F30x_Firmware_Library/GD32F30x_standard_peripheral/Source\gd32f30x_timer.c ****     \brief      configure TIMER channel output compare mode
 979:C:/Users/49542/Desktop/GD32F30x_Demo_Suites_V2.0.0/GD32F30x_Demo_Suites_V2.0.0/GD32F30x_Firmware_Library/GD32F30x_standard_peripheral/Source\gd32f30x_timer.c ****     \param[in]  timer_periph: please refer to the following parameters
 980:C:/Users/49542/Desktop/GD32F30x_Demo_Suites_V2.0.0/GD32F30x_Demo_Suites_V2.0.0/GD32F30x_Firmware_Library/GD32F30x_standard_peripheral/Source\gd32f30x_timer.c ****     \param[in]  channel: 
 981:C:/Users/49542/Desktop/GD32F30x_Demo_Suites_V2.0.0/GD32F30x_Demo_Suites_V2.0.0/GD32F30x_Firmware_Library/GD32F30x_standard_peripheral/Source\gd32f30x_timer.c ****                 only one parameter can be selected which is shown as below:
 982:C:/Users/49542/Desktop/GD32F30x_Demo_Suites_V2.0.0/GD32F30x_Demo_Suites_V2.0.0/GD32F30x_Firmware_Library/GD32F30x_standard_peripheral/Source\gd32f30x_timer.c ****       \arg        TIMER_CH_0: TIMER channel0(TIMERx(x=0..4,7..13))
 983:C:/Users/49542/Desktop/GD32F30x_Demo_Suites_V2.0.0/GD32F30x_Demo_Suites_V2.0.0/GD32F30x_Firmware_Library/GD32F30x_standard_peripheral/Source\gd32f30x_timer.c ****       \arg        TIMER_CH_1: TIMER channel1(TIMERx(x=0..4,7,8,11))
 984:C:/Users/49542/Desktop/GD32F30x_Demo_Suites_V2.0.0/GD32F30x_Demo_Suites_V2.0.0/GD32F30x_Firmware_Library/GD32F30x_standard_peripheral/Source\gd32f30x_timer.c ****       \arg        TIMER_CH_2: TIMER channel2(TIMERx(x=0..4,7))
 985:C:/Users/49542/Desktop/GD32F30x_Demo_Suites_V2.0.0/GD32F30x_Demo_Suites_V2.0.0/GD32F30x_Firmware_Library/GD32F30x_standard_peripheral/Source\gd32f30x_timer.c ****       \arg        TIMER_CH_3: TIMER channel3(TIMERx(x=0..4,7))
 986:C:/Users/49542/Desktop/GD32F30x_Demo_Suites_V2.0.0/GD32F30x_Demo_Suites_V2.0.0/GD32F30x_Firmware_Library/GD32F30x_standard_peripheral/Source\gd32f30x_timer.c ****     \param[in]  ocmode: channel output compare mode
 987:C:/Users/49542/Desktop/GD32F30x_Demo_Suites_V2.0.0/GD32F30x_Demo_Suites_V2.0.0/GD32F30x_Firmware_Library/GD32F30x_standard_peripheral/Source\gd32f30x_timer.c ****                 only one parameter can be selected which is shown as below:
 988:C:/Users/49542/Desktop/GD32F30x_Demo_Suites_V2.0.0/GD32F30x_Demo_Suites_V2.0.0/GD32F30x_Firmware_Library/GD32F30x_standard_peripheral/Source\gd32f30x_timer.c ****       \arg        TIMER_OC_MODE_TIMING: timing mode
 989:C:/Users/49542/Desktop/GD32F30x_Demo_Suites_V2.0.0/GD32F30x_Demo_Suites_V2.0.0/GD32F30x_Firmware_Library/GD32F30x_standard_peripheral/Source\gd32f30x_timer.c ****       \arg        TIMER_OC_MODE_ACTIVE: active mode
 990:C:/Users/49542/Desktop/GD32F30x_Demo_Suites_V2.0.0/GD32F30x_Demo_Suites_V2.0.0/GD32F30x_Firmware_Library/GD32F30x_standard_peripheral/Source\gd32f30x_timer.c ****       \arg        TIMER_OC_MODE_INACTIVE: inactive mode
 991:C:/Users/49542/Desktop/GD32F30x_Demo_Suites_V2.0.0/GD32F30x_Demo_Suites_V2.0.0/GD32F30x_Firmware_Library/GD32F30x_standard_peripheral/Source\gd32f30x_timer.c ****       \arg        TIMER_OC_MODE_TOGGLE: toggle mode
 992:C:/Users/49542/Desktop/GD32F30x_Demo_Suites_V2.0.0/GD32F30x_Demo_Suites_V2.0.0/GD32F30x_Firmware_Library/GD32F30x_standard_peripheral/Source\gd32f30x_timer.c ****       \arg        TIMER_OC_MODE_LOW: force low mode
 993:C:/Users/49542/Desktop/GD32F30x_Demo_Suites_V2.0.0/GD32F30x_Demo_Suites_V2.0.0/GD32F30x_Firmware_Library/GD32F30x_standard_peripheral/Source\gd32f30x_timer.c ****       \arg        TIMER_OC_MODE_HIGH: force high mode
 994:C:/Users/49542/Desktop/GD32F30x_Demo_Suites_V2.0.0/GD32F30x_Demo_Suites_V2.0.0/GD32F30x_Firmware_Library/GD32F30x_standard_peripheral/Source\gd32f30x_timer.c ****       \arg        TIMER_OC_MODE_PWM0: PWM0 mode
 995:C:/Users/49542/Desktop/GD32F30x_Demo_Suites_V2.0.0/GD32F30x_Demo_Suites_V2.0.0/GD32F30x_Firmware_Library/GD32F30x_standard_peripheral/Source\gd32f30x_timer.c ****       \arg        TIMER_OC_MODE_PWM1: PWM1 mode
 996:C:/Users/49542/Desktop/GD32F30x_Demo_Suites_V2.0.0/GD32F30x_Demo_Suites_V2.0.0/GD32F30x_Firmware_Library/GD32F30x_standard_peripheral/Source\gd32f30x_timer.c ****     \param[out] none
 997:C:/Users/49542/Desktop/GD32F30x_Demo_Suites_V2.0.0/GD32F30x_Demo_Suites_V2.0.0/GD32F30x_Firmware_Library/GD32F30x_standard_peripheral/Source\gd32f30x_timer.c ****     \retval     none
 998:C:/Users/49542/Desktop/GD32F30x_Demo_Suites_V2.0.0/GD32F30x_Demo_Suites_V2.0.0/GD32F30x_Firmware_Library/GD32F30x_standard_peripheral/Source\gd32f30x_timer.c **** */
 999:C:/Users/49542/Desktop/GD32F30x_Demo_Suites_V2.0.0/GD32F30x_Demo_Suites_V2.0.0/GD32F30x_Firmware_Library/GD32F30x_standard_peripheral/Source\gd32f30x_timer.c **** void timer_channel_output_mode_config(uint32_t timer_periph, uint16_t channel, uint16_t ocmode)
1000:C:/Users/49542/Desktop/GD32F30x_Demo_Suites_V2.0.0/GD32F30x_Demo_Suites_V2.0.0/GD32F30x_Firmware_Library/GD32F30x_standard_peripheral/Source\gd32f30x_timer.c **** {
 3289              		.loc 1 1000 0
 3290              		.cfi_startproc
 3291              		@ args = 0, pretend = 0, frame = 8
 3292              		@ frame_needed = 1, uses_anonymous_args = 0
 3293              		@ link register save eliminated.
 3294 0000 80B4     		push	{r7}
 3295              	.LCFI251:
ARM GAS  C:\Users\49542\AppData\Local\Temp\ccx6VnNU.s 			page 76


 3296              		.cfi_def_cfa_offset 4
 3297              		.cfi_offset 7, -4
 3298 0002 83B0     		sub	sp, sp, #12
 3299              	.LCFI252:
 3300              		.cfi_def_cfa_offset 16
 3301 0004 00AF     		add	r7, sp, #0
 3302              	.LCFI253:
 3303              		.cfi_def_cfa_register 7
 3304 0006 7860     		str	r0, [r7, #4]
 3305 0008 0B46     		mov	r3, r1
 3306 000a 7B80     		strh	r3, [r7, #2]	@ movhi
 3307 000c 1346     		mov	r3, r2	@ movhi
 3308 000e 3B80     		strh	r3, [r7]	@ movhi
1001:C:/Users/49542/Desktop/GD32F30x_Demo_Suites_V2.0.0/GD32F30x_Demo_Suites_V2.0.0/GD32F30x_Firmware_Library/GD32F30x_standard_peripheral/Source\gd32f30x_timer.c ****     switch(channel){
 3309              		.loc 1 1001 0
 3310 0010 7B88     		ldrh	r3, [r7, #2]
 3311 0012 032B     		cmp	r3, #3
 3312 0014 50D8     		bhi	.L129
 3313 0016 01A2     		adr	r2, .L124
 3314 0018 52F823F0 		ldr	pc, [r2, r3, lsl #2]
 3315              		.p2align 2
 3316              	.L124:
 3317 001c 2D000000 		.word	.L123+1
 3318 0020 4F000000 		.word	.L125+1
 3319 0024 73000000 		.word	.L126+1
 3320 0028 95000000 		.word	.L127+1
 3321              		.p2align 1
 3322              	.L123:
1002:C:/Users/49542/Desktop/GD32F30x_Demo_Suites_V2.0.0/GD32F30x_Demo_Suites_V2.0.0/GD32F30x_Firmware_Library/GD32F30x_standard_peripheral/Source\gd32f30x_timer.c ****     /* configure TIMER_CH_0 */
1003:C:/Users/49542/Desktop/GD32F30x_Demo_Suites_V2.0.0/GD32F30x_Demo_Suites_V2.0.0/GD32F30x_Firmware_Library/GD32F30x_standard_peripheral/Source\gd32f30x_timer.c ****     case TIMER_CH_0:
1004:C:/Users/49542/Desktop/GD32F30x_Demo_Suites_V2.0.0/GD32F30x_Demo_Suites_V2.0.0/GD32F30x_Firmware_Library/GD32F30x_standard_peripheral/Source\gd32f30x_timer.c ****         TIMER_CHCTL0(timer_periph) &= (~(uint32_t)TIMER_CHCTL0_CH0COMCTL);
 3323              		.loc 1 1004 0
 3324 002c 7B68     		ldr	r3, [r7, #4]
 3325 002e 1833     		adds	r3, r3, #24
 3326 0030 1B68     		ldr	r3, [r3]
 3327 0032 7A68     		ldr	r2, [r7, #4]
 3328 0034 1832     		adds	r2, r2, #24
 3329 0036 23F07003 		bic	r3, r3, #112
 3330 003a 1360     		str	r3, [r2]
1005:C:/Users/49542/Desktop/GD32F30x_Demo_Suites_V2.0.0/GD32F30x_Demo_Suites_V2.0.0/GD32F30x_Firmware_Library/GD32F30x_standard_peripheral/Source\gd32f30x_timer.c ****         TIMER_CHCTL0(timer_periph) |= (uint32_t)ocmode;
 3331              		.loc 1 1005 0
 3332 003c 7B68     		ldr	r3, [r7, #4]
 3333 003e 1833     		adds	r3, r3, #24
 3334 0040 1A68     		ldr	r2, [r3]
 3335 0042 3B88     		ldrh	r3, [r7]
 3336 0044 7968     		ldr	r1, [r7, #4]
 3337 0046 1831     		adds	r1, r1, #24
 3338 0048 1343     		orrs	r3, r3, r2
 3339 004a 0B60     		str	r3, [r1]
1006:C:/Users/49542/Desktop/GD32F30x_Demo_Suites_V2.0.0/GD32F30x_Demo_Suites_V2.0.0/GD32F30x_Firmware_Library/GD32F30x_standard_peripheral/Source\gd32f30x_timer.c ****         break;
 3340              		.loc 1 1006 0
 3341 004c 35E0     		b	.L128
 3342              	.L125:
1007:C:/Users/49542/Desktop/GD32F30x_Demo_Suites_V2.0.0/GD32F30x_Demo_Suites_V2.0.0/GD32F30x_Firmware_Library/GD32F30x_standard_peripheral/Source\gd32f30x_timer.c ****     /* configure TIMER_CH_1 */
1008:C:/Users/49542/Desktop/GD32F30x_Demo_Suites_V2.0.0/GD32F30x_Demo_Suites_V2.0.0/GD32F30x_Firmware_Library/GD32F30x_standard_peripheral/Source\gd32f30x_timer.c ****     case TIMER_CH_1:
1009:C:/Users/49542/Desktop/GD32F30x_Demo_Suites_V2.0.0/GD32F30x_Demo_Suites_V2.0.0/GD32F30x_Firmware_Library/GD32F30x_standard_peripheral/Source\gd32f30x_timer.c ****         TIMER_CHCTL0(timer_periph) &= (~(uint32_t)TIMER_CHCTL0_CH1COMCTL);
 3343              		.loc 1 1009 0
ARM GAS  C:\Users\49542\AppData\Local\Temp\ccx6VnNU.s 			page 77


 3344 004e 7B68     		ldr	r3, [r7, #4]
 3345 0050 1833     		adds	r3, r3, #24
 3346 0052 1B68     		ldr	r3, [r3]
 3347 0054 7A68     		ldr	r2, [r7, #4]
 3348 0056 1832     		adds	r2, r2, #24
 3349 0058 23F4E043 		bic	r3, r3, #28672
 3350 005c 1360     		str	r3, [r2]
1010:C:/Users/49542/Desktop/GD32F30x_Demo_Suites_V2.0.0/GD32F30x_Demo_Suites_V2.0.0/GD32F30x_Firmware_Library/GD32F30x_standard_peripheral/Source\gd32f30x_timer.c ****         TIMER_CHCTL0(timer_periph) |= (uint32_t)((uint32_t)(ocmode) << 8U);
 3351              		.loc 1 1010 0
 3352 005e 7B68     		ldr	r3, [r7, #4]
 3353 0060 1833     		adds	r3, r3, #24
 3354 0062 1A68     		ldr	r2, [r3]
 3355 0064 3B88     		ldrh	r3, [r7]
 3356 0066 1B02     		lsls	r3, r3, #8
 3357 0068 7968     		ldr	r1, [r7, #4]
 3358 006a 1831     		adds	r1, r1, #24
 3359 006c 1343     		orrs	r3, r3, r2
 3360 006e 0B60     		str	r3, [r1]
1011:C:/Users/49542/Desktop/GD32F30x_Demo_Suites_V2.0.0/GD32F30x_Demo_Suites_V2.0.0/GD32F30x_Firmware_Library/GD32F30x_standard_peripheral/Source\gd32f30x_timer.c ****         break;
 3361              		.loc 1 1011 0
 3362 0070 23E0     		b	.L128
 3363              	.L126:
1012:C:/Users/49542/Desktop/GD32F30x_Demo_Suites_V2.0.0/GD32F30x_Demo_Suites_V2.0.0/GD32F30x_Firmware_Library/GD32F30x_standard_peripheral/Source\gd32f30x_timer.c ****     /* configure TIMER_CH_2 */
1013:C:/Users/49542/Desktop/GD32F30x_Demo_Suites_V2.0.0/GD32F30x_Demo_Suites_V2.0.0/GD32F30x_Firmware_Library/GD32F30x_standard_peripheral/Source\gd32f30x_timer.c ****     case TIMER_CH_2:
1014:C:/Users/49542/Desktop/GD32F30x_Demo_Suites_V2.0.0/GD32F30x_Demo_Suites_V2.0.0/GD32F30x_Firmware_Library/GD32F30x_standard_peripheral/Source\gd32f30x_timer.c ****         TIMER_CHCTL1(timer_periph) &= (~(uint32_t)TIMER_CHCTL1_CH2COMCTL);
 3364              		.loc 1 1014 0
 3365 0072 7B68     		ldr	r3, [r7, #4]
 3366 0074 1C33     		adds	r3, r3, #28
 3367 0076 1B68     		ldr	r3, [r3]
 3368 0078 7A68     		ldr	r2, [r7, #4]
 3369 007a 1C32     		adds	r2, r2, #28
 3370 007c 23F07003 		bic	r3, r3, #112
 3371 0080 1360     		str	r3, [r2]
1015:C:/Users/49542/Desktop/GD32F30x_Demo_Suites_V2.0.0/GD32F30x_Demo_Suites_V2.0.0/GD32F30x_Firmware_Library/GD32F30x_standard_peripheral/Source\gd32f30x_timer.c ****         TIMER_CHCTL1(timer_periph) |= (uint32_t)ocmode;
 3372              		.loc 1 1015 0
 3373 0082 7B68     		ldr	r3, [r7, #4]
 3374 0084 1C33     		adds	r3, r3, #28
 3375 0086 1A68     		ldr	r2, [r3]
 3376 0088 3B88     		ldrh	r3, [r7]
 3377 008a 7968     		ldr	r1, [r7, #4]
 3378 008c 1C31     		adds	r1, r1, #28
 3379 008e 1343     		orrs	r3, r3, r2
 3380 0090 0B60     		str	r3, [r1]
1016:C:/Users/49542/Desktop/GD32F30x_Demo_Suites_V2.0.0/GD32F30x_Demo_Suites_V2.0.0/GD32F30x_Firmware_Library/GD32F30x_standard_peripheral/Source\gd32f30x_timer.c ****         break;
 3381              		.loc 1 1016 0
 3382 0092 12E0     		b	.L128
 3383              	.L127:
1017:C:/Users/49542/Desktop/GD32F30x_Demo_Suites_V2.0.0/GD32F30x_Demo_Suites_V2.0.0/GD32F30x_Firmware_Library/GD32F30x_standard_peripheral/Source\gd32f30x_timer.c ****     /* configure TIMER_CH_3 */
1018:C:/Users/49542/Desktop/GD32F30x_Demo_Suites_V2.0.0/GD32F30x_Demo_Suites_V2.0.0/GD32F30x_Firmware_Library/GD32F30x_standard_peripheral/Source\gd32f30x_timer.c ****     case TIMER_CH_3:
1019:C:/Users/49542/Desktop/GD32F30x_Demo_Suites_V2.0.0/GD32F30x_Demo_Suites_V2.0.0/GD32F30x_Firmware_Library/GD32F30x_standard_peripheral/Source\gd32f30x_timer.c ****         TIMER_CHCTL1(timer_periph) &= (~(uint32_t)TIMER_CHCTL1_CH3COMCTL);
 3384              		.loc 1 1019 0
 3385 0094 7B68     		ldr	r3, [r7, #4]
 3386 0096 1C33     		adds	r3, r3, #28
 3387 0098 1B68     		ldr	r3, [r3]
 3388 009a 7A68     		ldr	r2, [r7, #4]
 3389 009c 1C32     		adds	r2, r2, #28
 3390 009e 23F4E043 		bic	r3, r3, #28672
ARM GAS  C:\Users\49542\AppData\Local\Temp\ccx6VnNU.s 			page 78


 3391 00a2 1360     		str	r3, [r2]
1020:C:/Users/49542/Desktop/GD32F30x_Demo_Suites_V2.0.0/GD32F30x_Demo_Suites_V2.0.0/GD32F30x_Firmware_Library/GD32F30x_standard_peripheral/Source\gd32f30x_timer.c ****         TIMER_CHCTL1(timer_periph) |= (uint32_t)((uint32_t)(ocmode) << 8U);
 3392              		.loc 1 1020 0
 3393 00a4 7B68     		ldr	r3, [r7, #4]
 3394 00a6 1C33     		adds	r3, r3, #28
 3395 00a8 1A68     		ldr	r2, [r3]
 3396 00aa 3B88     		ldrh	r3, [r7]
 3397 00ac 1B02     		lsls	r3, r3, #8
 3398 00ae 7968     		ldr	r1, [r7, #4]
 3399 00b0 1C31     		adds	r1, r1, #28
 3400 00b2 1343     		orrs	r3, r3, r2
 3401 00b4 0B60     		str	r3, [r1]
1021:C:/Users/49542/Desktop/GD32F30x_Demo_Suites_V2.0.0/GD32F30x_Demo_Suites_V2.0.0/GD32F30x_Firmware_Library/GD32F30x_standard_peripheral/Source\gd32f30x_timer.c ****         break;
 3402              		.loc 1 1021 0
 3403 00b6 00E0     		b	.L128
 3404              	.L129:
1022:C:/Users/49542/Desktop/GD32F30x_Demo_Suites_V2.0.0/GD32F30x_Demo_Suites_V2.0.0/GD32F30x_Firmware_Library/GD32F30x_standard_peripheral/Source\gd32f30x_timer.c ****     default:
1023:C:/Users/49542/Desktop/GD32F30x_Demo_Suites_V2.0.0/GD32F30x_Demo_Suites_V2.0.0/GD32F30x_Firmware_Library/GD32F30x_standard_peripheral/Source\gd32f30x_timer.c ****         break;
 3405              		.loc 1 1023 0
 3406 00b8 00BF     		nop
 3407              	.L128:
1024:C:/Users/49542/Desktop/GD32F30x_Demo_Suites_V2.0.0/GD32F30x_Demo_Suites_V2.0.0/GD32F30x_Firmware_Library/GD32F30x_standard_peripheral/Source\gd32f30x_timer.c ****     }
1025:C:/Users/49542/Desktop/GD32F30x_Demo_Suites_V2.0.0/GD32F30x_Demo_Suites_V2.0.0/GD32F30x_Firmware_Library/GD32F30x_standard_peripheral/Source\gd32f30x_timer.c **** }
 3408              		.loc 1 1025 0
 3409 00ba 00BF     		nop
 3410 00bc 0C37     		adds	r7, r7, #12
 3411              	.LCFI254:
 3412              		.cfi_def_cfa_offset 4
 3413 00be BD46     		mov	sp, r7
 3414              	.LCFI255:
 3415              		.cfi_def_cfa_register 13
 3416              		@ sp needed
 3417 00c0 5DF8047B 		ldr	r7, [sp], #4
 3418              	.LCFI256:
 3419              		.cfi_restore 7
 3420              		.cfi_def_cfa_offset 0
 3421 00c4 7047     		bx	lr
 3422              		.cfi_endproc
 3423              	.LFE158:
 3425 00c6 00BF     		.section	.text.timer_channel_output_pulse_value_config,"ax",%progbits
 3426              		.align	1
 3427              		.global	timer_channel_output_pulse_value_config
 3428              		.syntax unified
 3429              		.thumb
 3430              		.thumb_func
 3431              		.fpu fpv4-sp-d16
 3433              	timer_channel_output_pulse_value_config:
 3434              	.LFB159:
1026:C:/Users/49542/Desktop/GD32F30x_Demo_Suites_V2.0.0/GD32F30x_Demo_Suites_V2.0.0/GD32F30x_Firmware_Library/GD32F30x_standard_peripheral/Source\gd32f30x_timer.c **** 
1027:C:/Users/49542/Desktop/GD32F30x_Demo_Suites_V2.0.0/GD32F30x_Demo_Suites_V2.0.0/GD32F30x_Firmware_Library/GD32F30x_standard_peripheral/Source\gd32f30x_timer.c **** /*!
1028:C:/Users/49542/Desktop/GD32F30x_Demo_Suites_V2.0.0/GD32F30x_Demo_Suites_V2.0.0/GD32F30x_Firmware_Library/GD32F30x_standard_peripheral/Source\gd32f30x_timer.c ****     \brief      configure TIMER channel output pulse value
1029:C:/Users/49542/Desktop/GD32F30x_Demo_Suites_V2.0.0/GD32F30x_Demo_Suites_V2.0.0/GD32F30x_Firmware_Library/GD32F30x_standard_peripheral/Source\gd32f30x_timer.c ****     \param[in]  timer_periph: please refer to the following parameters
1030:C:/Users/49542/Desktop/GD32F30x_Demo_Suites_V2.0.0/GD32F30x_Demo_Suites_V2.0.0/GD32F30x_Firmware_Library/GD32F30x_standard_peripheral/Source\gd32f30x_timer.c ****     \param[in]  channel:
1031:C:/Users/49542/Desktop/GD32F30x_Demo_Suites_V2.0.0/GD32F30x_Demo_Suites_V2.0.0/GD32F30x_Firmware_Library/GD32F30x_standard_peripheral/Source\gd32f30x_timer.c ****                 only one parameter can be selected which is shown as below:
1032:C:/Users/49542/Desktop/GD32F30x_Demo_Suites_V2.0.0/GD32F30x_Demo_Suites_V2.0.0/GD32F30x_Firmware_Library/GD32F30x_standard_peripheral/Source\gd32f30x_timer.c ****       \arg        TIMER_CH_0: TIMER channel0(TIMERx(x=0..4,7..13))
1033:C:/Users/49542/Desktop/GD32F30x_Demo_Suites_V2.0.0/GD32F30x_Demo_Suites_V2.0.0/GD32F30x_Firmware_Library/GD32F30x_standard_peripheral/Source\gd32f30x_timer.c ****       \arg        TIMER_CH_1: TIMER channel1(TIMERx(x=0..4,7,8,11))
1034:C:/Users/49542/Desktop/GD32F30x_Demo_Suites_V2.0.0/GD32F30x_Demo_Suites_V2.0.0/GD32F30x_Firmware_Library/GD32F30x_standard_peripheral/Source\gd32f30x_timer.c ****       \arg        TIMER_CH_2: TIMER channel2(TIMERx(x=0..4,7))
ARM GAS  C:\Users\49542\AppData\Local\Temp\ccx6VnNU.s 			page 79


1035:C:/Users/49542/Desktop/GD32F30x_Demo_Suites_V2.0.0/GD32F30x_Demo_Suites_V2.0.0/GD32F30x_Firmware_Library/GD32F30x_standard_peripheral/Source\gd32f30x_timer.c ****       \arg        TIMER_CH_3: TIMER channel3(TIMERx(x=0..4,7))
1036:C:/Users/49542/Desktop/GD32F30x_Demo_Suites_V2.0.0/GD32F30x_Demo_Suites_V2.0.0/GD32F30x_Firmware_Library/GD32F30x_standard_peripheral/Source\gd32f30x_timer.c ****     \param[in]  pulse: channel output pulse value,0~65535
1037:C:/Users/49542/Desktop/GD32F30x_Demo_Suites_V2.0.0/GD32F30x_Demo_Suites_V2.0.0/GD32F30x_Firmware_Library/GD32F30x_standard_peripheral/Source\gd32f30x_timer.c ****     \param[out] none
1038:C:/Users/49542/Desktop/GD32F30x_Demo_Suites_V2.0.0/GD32F30x_Demo_Suites_V2.0.0/GD32F30x_Firmware_Library/GD32F30x_standard_peripheral/Source\gd32f30x_timer.c ****     \retval     none
1039:C:/Users/49542/Desktop/GD32F30x_Demo_Suites_V2.0.0/GD32F30x_Demo_Suites_V2.0.0/GD32F30x_Firmware_Library/GD32F30x_standard_peripheral/Source\gd32f30x_timer.c **** */
1040:C:/Users/49542/Desktop/GD32F30x_Demo_Suites_V2.0.0/GD32F30x_Demo_Suites_V2.0.0/GD32F30x_Firmware_Library/GD32F30x_standard_peripheral/Source\gd32f30x_timer.c **** void timer_channel_output_pulse_value_config(uint32_t timer_periph, uint16_t channel, uint32_t puls
1041:C:/Users/49542/Desktop/GD32F30x_Demo_Suites_V2.0.0/GD32F30x_Demo_Suites_V2.0.0/GD32F30x_Firmware_Library/GD32F30x_standard_peripheral/Source\gd32f30x_timer.c **** {
 3435              		.loc 1 1041 0
 3436              		.cfi_startproc
 3437              		@ args = 0, pretend = 0, frame = 16
 3438              		@ frame_needed = 1, uses_anonymous_args = 0
 3439              		@ link register save eliminated.
 3440 0000 80B4     		push	{r7}
 3441              	.LCFI257:
 3442              		.cfi_def_cfa_offset 4
 3443              		.cfi_offset 7, -4
 3444 0002 85B0     		sub	sp, sp, #20
 3445              	.LCFI258:
 3446              		.cfi_def_cfa_offset 24
 3447 0004 00AF     		add	r7, sp, #0
 3448              	.LCFI259:
 3449              		.cfi_def_cfa_register 7
 3450 0006 F860     		str	r0, [r7, #12]
 3451 0008 0B46     		mov	r3, r1
 3452 000a 7A60     		str	r2, [r7, #4]
 3453 000c 7B81     		strh	r3, [r7, #10]	@ movhi
1042:C:/Users/49542/Desktop/GD32F30x_Demo_Suites_V2.0.0/GD32F30x_Demo_Suites_V2.0.0/GD32F30x_Firmware_Library/GD32F30x_standard_peripheral/Source\gd32f30x_timer.c ****     switch(channel){
 3454              		.loc 1 1042 0
 3455 000e 7B89     		ldrh	r3, [r7, #10]
 3456 0010 032B     		cmp	r3, #3
 3457 0012 23D8     		bhi	.L138
 3458 0014 01A2     		adr	r2, .L133
 3459 0016 52F823F0 		ldr	pc, [r2, r3, lsl #2]
 3460 001a 00BF     		.p2align 2
 3461              	.L133:
 3462 001c 2D000000 		.word	.L132+1
 3463 0020 39000000 		.word	.L134+1
 3464 0024 45000000 		.word	.L135+1
 3465 0028 51000000 		.word	.L136+1
 3466              		.p2align 1
 3467              	.L132:
1043:C:/Users/49542/Desktop/GD32F30x_Demo_Suites_V2.0.0/GD32F30x_Demo_Suites_V2.0.0/GD32F30x_Firmware_Library/GD32F30x_standard_peripheral/Source\gd32f30x_timer.c ****     /* configure TIMER_CH_0 */
1044:C:/Users/49542/Desktop/GD32F30x_Demo_Suites_V2.0.0/GD32F30x_Demo_Suites_V2.0.0/GD32F30x_Firmware_Library/GD32F30x_standard_peripheral/Source\gd32f30x_timer.c ****     case TIMER_CH_0:
1045:C:/Users/49542/Desktop/GD32F30x_Demo_Suites_V2.0.0/GD32F30x_Demo_Suites_V2.0.0/GD32F30x_Firmware_Library/GD32F30x_standard_peripheral/Source\gd32f30x_timer.c ****         TIMER_CH0CV(timer_periph) = (uint32_t)pulse;
 3468              		.loc 1 1045 0
 3469 002c FB68     		ldr	r3, [r7, #12]
 3470 002e 3433     		adds	r3, r3, #52
 3471 0030 1A46     		mov	r2, r3
 3472 0032 7B68     		ldr	r3, [r7, #4]
 3473 0034 1360     		str	r3, [r2]
1046:C:/Users/49542/Desktop/GD32F30x_Demo_Suites_V2.0.0/GD32F30x_Demo_Suites_V2.0.0/GD32F30x_Firmware_Library/GD32F30x_standard_peripheral/Source\gd32f30x_timer.c ****         break;
 3474              		.loc 1 1046 0
 3475 0036 12E0     		b	.L137
 3476              	.L134:
1047:C:/Users/49542/Desktop/GD32F30x_Demo_Suites_V2.0.0/GD32F30x_Demo_Suites_V2.0.0/GD32F30x_Firmware_Library/GD32F30x_standard_peripheral/Source\gd32f30x_timer.c ****     /* configure TIMER_CH_1 */
1048:C:/Users/49542/Desktop/GD32F30x_Demo_Suites_V2.0.0/GD32F30x_Demo_Suites_V2.0.0/GD32F30x_Firmware_Library/GD32F30x_standard_peripheral/Source\gd32f30x_timer.c ****     case TIMER_CH_1:
1049:C:/Users/49542/Desktop/GD32F30x_Demo_Suites_V2.0.0/GD32F30x_Demo_Suites_V2.0.0/GD32F30x_Firmware_Library/GD32F30x_standard_peripheral/Source\gd32f30x_timer.c ****         TIMER_CH1CV(timer_periph) = (uint32_t)pulse;
ARM GAS  C:\Users\49542\AppData\Local\Temp\ccx6VnNU.s 			page 80


 3477              		.loc 1 1049 0
 3478 0038 FB68     		ldr	r3, [r7, #12]
 3479 003a 3833     		adds	r3, r3, #56
 3480 003c 1A46     		mov	r2, r3
 3481 003e 7B68     		ldr	r3, [r7, #4]
 3482 0040 1360     		str	r3, [r2]
1050:C:/Users/49542/Desktop/GD32F30x_Demo_Suites_V2.0.0/GD32F30x_Demo_Suites_V2.0.0/GD32F30x_Firmware_Library/GD32F30x_standard_peripheral/Source\gd32f30x_timer.c ****         break;
 3483              		.loc 1 1050 0
 3484 0042 0CE0     		b	.L137
 3485              	.L135:
1051:C:/Users/49542/Desktop/GD32F30x_Demo_Suites_V2.0.0/GD32F30x_Demo_Suites_V2.0.0/GD32F30x_Firmware_Library/GD32F30x_standard_peripheral/Source\gd32f30x_timer.c ****     /* configure TIMER_CH_2 */
1052:C:/Users/49542/Desktop/GD32F30x_Demo_Suites_V2.0.0/GD32F30x_Demo_Suites_V2.0.0/GD32F30x_Firmware_Library/GD32F30x_standard_peripheral/Source\gd32f30x_timer.c ****     case TIMER_CH_2:
1053:C:/Users/49542/Desktop/GD32F30x_Demo_Suites_V2.0.0/GD32F30x_Demo_Suites_V2.0.0/GD32F30x_Firmware_Library/GD32F30x_standard_peripheral/Source\gd32f30x_timer.c ****         TIMER_CH2CV(timer_periph) = (uint32_t)pulse;
 3486              		.loc 1 1053 0
 3487 0044 FB68     		ldr	r3, [r7, #12]
 3488 0046 3C33     		adds	r3, r3, #60
 3489 0048 1A46     		mov	r2, r3
 3490 004a 7B68     		ldr	r3, [r7, #4]
 3491 004c 1360     		str	r3, [r2]
1054:C:/Users/49542/Desktop/GD32F30x_Demo_Suites_V2.0.0/GD32F30x_Demo_Suites_V2.0.0/GD32F30x_Firmware_Library/GD32F30x_standard_peripheral/Source\gd32f30x_timer.c ****         break;
 3492              		.loc 1 1054 0
 3493 004e 06E0     		b	.L137
 3494              	.L136:
1055:C:/Users/49542/Desktop/GD32F30x_Demo_Suites_V2.0.0/GD32F30x_Demo_Suites_V2.0.0/GD32F30x_Firmware_Library/GD32F30x_standard_peripheral/Source\gd32f30x_timer.c ****     /* configure TIMER_CH_3 */
1056:C:/Users/49542/Desktop/GD32F30x_Demo_Suites_V2.0.0/GD32F30x_Demo_Suites_V2.0.0/GD32F30x_Firmware_Library/GD32F30x_standard_peripheral/Source\gd32f30x_timer.c ****     case TIMER_CH_3:
1057:C:/Users/49542/Desktop/GD32F30x_Demo_Suites_V2.0.0/GD32F30x_Demo_Suites_V2.0.0/GD32F30x_Firmware_Library/GD32F30x_standard_peripheral/Source\gd32f30x_timer.c ****          TIMER_CH3CV(timer_periph) = (uint32_t)pulse;
 3495              		.loc 1 1057 0
 3496 0050 FB68     		ldr	r3, [r7, #12]
 3497 0052 4033     		adds	r3, r3, #64
 3498 0054 1A46     		mov	r2, r3
 3499 0056 7B68     		ldr	r3, [r7, #4]
 3500 0058 1360     		str	r3, [r2]
1058:C:/Users/49542/Desktop/GD32F30x_Demo_Suites_V2.0.0/GD32F30x_Demo_Suites_V2.0.0/GD32F30x_Firmware_Library/GD32F30x_standard_peripheral/Source\gd32f30x_timer.c ****         break;
 3501              		.loc 1 1058 0
 3502 005a 00E0     		b	.L137
 3503              	.L138:
1059:C:/Users/49542/Desktop/GD32F30x_Demo_Suites_V2.0.0/GD32F30x_Demo_Suites_V2.0.0/GD32F30x_Firmware_Library/GD32F30x_standard_peripheral/Source\gd32f30x_timer.c ****     default:
1060:C:/Users/49542/Desktop/GD32F30x_Demo_Suites_V2.0.0/GD32F30x_Demo_Suites_V2.0.0/GD32F30x_Firmware_Library/GD32F30x_standard_peripheral/Source\gd32f30x_timer.c ****         break;
 3504              		.loc 1 1060 0
 3505 005c 00BF     		nop
 3506              	.L137:
1061:C:/Users/49542/Desktop/GD32F30x_Demo_Suites_V2.0.0/GD32F30x_Demo_Suites_V2.0.0/GD32F30x_Firmware_Library/GD32F30x_standard_peripheral/Source\gd32f30x_timer.c ****     }
1062:C:/Users/49542/Desktop/GD32F30x_Demo_Suites_V2.0.0/GD32F30x_Demo_Suites_V2.0.0/GD32F30x_Firmware_Library/GD32F30x_standard_peripheral/Source\gd32f30x_timer.c **** }
 3507              		.loc 1 1062 0
 3508 005e 00BF     		nop
 3509 0060 1437     		adds	r7, r7, #20
 3510              	.LCFI260:
 3511              		.cfi_def_cfa_offset 4
 3512 0062 BD46     		mov	sp, r7
 3513              	.LCFI261:
 3514              		.cfi_def_cfa_register 13
 3515              		@ sp needed
 3516 0064 5DF8047B 		ldr	r7, [sp], #4
 3517              	.LCFI262:
 3518              		.cfi_restore 7
 3519              		.cfi_def_cfa_offset 0
 3520 0068 7047     		bx	lr
ARM GAS  C:\Users\49542\AppData\Local\Temp\ccx6VnNU.s 			page 81


 3521              		.cfi_endproc
 3522              	.LFE159:
 3524 006a 00BF     		.section	.text.timer_channel_output_shadow_config,"ax",%progbits
 3525              		.align	1
 3526              		.global	timer_channel_output_shadow_config
 3527              		.syntax unified
 3528              		.thumb
 3529              		.thumb_func
 3530              		.fpu fpv4-sp-d16
 3532              	timer_channel_output_shadow_config:
 3533              	.LFB160:
1063:C:/Users/49542/Desktop/GD32F30x_Demo_Suites_V2.0.0/GD32F30x_Demo_Suites_V2.0.0/GD32F30x_Firmware_Library/GD32F30x_standard_peripheral/Source\gd32f30x_timer.c **** 
1064:C:/Users/49542/Desktop/GD32F30x_Demo_Suites_V2.0.0/GD32F30x_Demo_Suites_V2.0.0/GD32F30x_Firmware_Library/GD32F30x_standard_peripheral/Source\gd32f30x_timer.c **** /*!
1065:C:/Users/49542/Desktop/GD32F30x_Demo_Suites_V2.0.0/GD32F30x_Demo_Suites_V2.0.0/GD32F30x_Firmware_Library/GD32F30x_standard_peripheral/Source\gd32f30x_timer.c ****     \brief      configure TIMER channel output shadow function
1066:C:/Users/49542/Desktop/GD32F30x_Demo_Suites_V2.0.0/GD32F30x_Demo_Suites_V2.0.0/GD32F30x_Firmware_Library/GD32F30x_standard_peripheral/Source\gd32f30x_timer.c ****     \param[in]  timer_periph: please refer to the following parameters
1067:C:/Users/49542/Desktop/GD32F30x_Demo_Suites_V2.0.0/GD32F30x_Demo_Suites_V2.0.0/GD32F30x_Firmware_Library/GD32F30x_standard_peripheral/Source\gd32f30x_timer.c ****     \param[in]  channel:
1068:C:/Users/49542/Desktop/GD32F30x_Demo_Suites_V2.0.0/GD32F30x_Demo_Suites_V2.0.0/GD32F30x_Firmware_Library/GD32F30x_standard_peripheral/Source\gd32f30x_timer.c ****                 only one parameter can be selected which is shown as below:
1069:C:/Users/49542/Desktop/GD32F30x_Demo_Suites_V2.0.0/GD32F30x_Demo_Suites_V2.0.0/GD32F30x_Firmware_Library/GD32F30x_standard_peripheral/Source\gd32f30x_timer.c ****       \arg        TIMER_CH_0: TIMER channel0(TIMERx(x=0..4,7..13))
1070:C:/Users/49542/Desktop/GD32F30x_Demo_Suites_V2.0.0/GD32F30x_Demo_Suites_V2.0.0/GD32F30x_Firmware_Library/GD32F30x_standard_peripheral/Source\gd32f30x_timer.c ****       \arg        TIMER_CH_1: TIMER channel1(TIMERx(x=0..4,7,8,11))
1071:C:/Users/49542/Desktop/GD32F30x_Demo_Suites_V2.0.0/GD32F30x_Demo_Suites_V2.0.0/GD32F30x_Firmware_Library/GD32F30x_standard_peripheral/Source\gd32f30x_timer.c ****       \arg        TIMER_CH_2: TIMER channel2(TIMERx(x=0..4,7))
1072:C:/Users/49542/Desktop/GD32F30x_Demo_Suites_V2.0.0/GD32F30x_Demo_Suites_V2.0.0/GD32F30x_Firmware_Library/GD32F30x_standard_peripheral/Source\gd32f30x_timer.c ****       \arg        TIMER_CH_3: TIMER channel3(TIMERx(x=0..4,7))
1073:C:/Users/49542/Desktop/GD32F30x_Demo_Suites_V2.0.0/GD32F30x_Demo_Suites_V2.0.0/GD32F30x_Firmware_Library/GD32F30x_standard_peripheral/Source\gd32f30x_timer.c ****     \param[in]  ocshadow: channel output shadow state
1074:C:/Users/49542/Desktop/GD32F30x_Demo_Suites_V2.0.0/GD32F30x_Demo_Suites_V2.0.0/GD32F30x_Firmware_Library/GD32F30x_standard_peripheral/Source\gd32f30x_timer.c ****                 only one parameter can be selected which is shown as below:
1075:C:/Users/49542/Desktop/GD32F30x_Demo_Suites_V2.0.0/GD32F30x_Demo_Suites_V2.0.0/GD32F30x_Firmware_Library/GD32F30x_standard_peripheral/Source\gd32f30x_timer.c ****       \arg        TIMER_OC_SHADOW_ENABLE: channel output shadow state enable
1076:C:/Users/49542/Desktop/GD32F30x_Demo_Suites_V2.0.0/GD32F30x_Demo_Suites_V2.0.0/GD32F30x_Firmware_Library/GD32F30x_standard_peripheral/Source\gd32f30x_timer.c ****       \arg        TIMER_OC_SHADOW_DISABLE: channel output shadow state disable
1077:C:/Users/49542/Desktop/GD32F30x_Demo_Suites_V2.0.0/GD32F30x_Demo_Suites_V2.0.0/GD32F30x_Firmware_Library/GD32F30x_standard_peripheral/Source\gd32f30x_timer.c ****     \param[out] none
1078:C:/Users/49542/Desktop/GD32F30x_Demo_Suites_V2.0.0/GD32F30x_Demo_Suites_V2.0.0/GD32F30x_Firmware_Library/GD32F30x_standard_peripheral/Source\gd32f30x_timer.c ****     \retval     none
1079:C:/Users/49542/Desktop/GD32F30x_Demo_Suites_V2.0.0/GD32F30x_Demo_Suites_V2.0.0/GD32F30x_Firmware_Library/GD32F30x_standard_peripheral/Source\gd32f30x_timer.c **** */
1080:C:/Users/49542/Desktop/GD32F30x_Demo_Suites_V2.0.0/GD32F30x_Demo_Suites_V2.0.0/GD32F30x_Firmware_Library/GD32F30x_standard_peripheral/Source\gd32f30x_timer.c **** void timer_channel_output_shadow_config(uint32_t timer_periph, uint16_t channel, uint16_t ocshadow)
1081:C:/Users/49542/Desktop/GD32F30x_Demo_Suites_V2.0.0/GD32F30x_Demo_Suites_V2.0.0/GD32F30x_Firmware_Library/GD32F30x_standard_peripheral/Source\gd32f30x_timer.c **** {
 3534              		.loc 1 1081 0
 3535              		.cfi_startproc
 3536              		@ args = 0, pretend = 0, frame = 8
 3537              		@ frame_needed = 1, uses_anonymous_args = 0
 3538              		@ link register save eliminated.
 3539 0000 80B4     		push	{r7}
 3540              	.LCFI263:
 3541              		.cfi_def_cfa_offset 4
 3542              		.cfi_offset 7, -4
 3543 0002 83B0     		sub	sp, sp, #12
 3544              	.LCFI264:
 3545              		.cfi_def_cfa_offset 16
 3546 0004 00AF     		add	r7, sp, #0
 3547              	.LCFI265:
 3548              		.cfi_def_cfa_register 7
 3549 0006 7860     		str	r0, [r7, #4]
 3550 0008 0B46     		mov	r3, r1
 3551 000a 7B80     		strh	r3, [r7, #2]	@ movhi
 3552 000c 1346     		mov	r3, r2	@ movhi
 3553 000e 3B80     		strh	r3, [r7]	@ movhi
1082:C:/Users/49542/Desktop/GD32F30x_Demo_Suites_V2.0.0/GD32F30x_Demo_Suites_V2.0.0/GD32F30x_Firmware_Library/GD32F30x_standard_peripheral/Source\gd32f30x_timer.c ****     switch(channel){
 3554              		.loc 1 1082 0
 3555 0010 7B88     		ldrh	r3, [r7, #2]
 3556 0012 032B     		cmp	r3, #3
 3557 0014 50D8     		bhi	.L147
 3558 0016 01A2     		adr	r2, .L142
 3559 0018 52F823F0 		ldr	pc, [r2, r3, lsl #2]
ARM GAS  C:\Users\49542\AppData\Local\Temp\ccx6VnNU.s 			page 82


 3560              		.p2align 2
 3561              	.L142:
 3562 001c 2D000000 		.word	.L141+1
 3563 0020 4F000000 		.word	.L143+1
 3564 0024 73000000 		.word	.L144+1
 3565 0028 95000000 		.word	.L145+1
 3566              		.p2align 1
 3567              	.L141:
1083:C:/Users/49542/Desktop/GD32F30x_Demo_Suites_V2.0.0/GD32F30x_Demo_Suites_V2.0.0/GD32F30x_Firmware_Library/GD32F30x_standard_peripheral/Source\gd32f30x_timer.c ****     /* configure TIMER_CH_0 */
1084:C:/Users/49542/Desktop/GD32F30x_Demo_Suites_V2.0.0/GD32F30x_Demo_Suites_V2.0.0/GD32F30x_Firmware_Library/GD32F30x_standard_peripheral/Source\gd32f30x_timer.c ****     case TIMER_CH_0:
1085:C:/Users/49542/Desktop/GD32F30x_Demo_Suites_V2.0.0/GD32F30x_Demo_Suites_V2.0.0/GD32F30x_Firmware_Library/GD32F30x_standard_peripheral/Source\gd32f30x_timer.c ****         TIMER_CHCTL0(timer_periph) &= (~(uint32_t)TIMER_CHCTL0_CH0COMSEN);
 3568              		.loc 1 1085 0
 3569 002c 7B68     		ldr	r3, [r7, #4]
 3570 002e 1833     		adds	r3, r3, #24
 3571 0030 1B68     		ldr	r3, [r3]
 3572 0032 7A68     		ldr	r2, [r7, #4]
 3573 0034 1832     		adds	r2, r2, #24
 3574 0036 23F00803 		bic	r3, r3, #8
 3575 003a 1360     		str	r3, [r2]
1086:C:/Users/49542/Desktop/GD32F30x_Demo_Suites_V2.0.0/GD32F30x_Demo_Suites_V2.0.0/GD32F30x_Firmware_Library/GD32F30x_standard_peripheral/Source\gd32f30x_timer.c ****         TIMER_CHCTL0(timer_periph) |= (uint32_t)ocshadow;
 3576              		.loc 1 1086 0
 3577 003c 7B68     		ldr	r3, [r7, #4]
 3578 003e 1833     		adds	r3, r3, #24
 3579 0040 1A68     		ldr	r2, [r3]
 3580 0042 3B88     		ldrh	r3, [r7]
 3581 0044 7968     		ldr	r1, [r7, #4]
 3582 0046 1831     		adds	r1, r1, #24
 3583 0048 1343     		orrs	r3, r3, r2
 3584 004a 0B60     		str	r3, [r1]
1087:C:/Users/49542/Desktop/GD32F30x_Demo_Suites_V2.0.0/GD32F30x_Demo_Suites_V2.0.0/GD32F30x_Firmware_Library/GD32F30x_standard_peripheral/Source\gd32f30x_timer.c ****         break;
 3585              		.loc 1 1087 0
 3586 004c 35E0     		b	.L146
 3587              	.L143:
1088:C:/Users/49542/Desktop/GD32F30x_Demo_Suites_V2.0.0/GD32F30x_Demo_Suites_V2.0.0/GD32F30x_Firmware_Library/GD32F30x_standard_peripheral/Source\gd32f30x_timer.c ****     /* configure TIMER_CH_1 */
1089:C:/Users/49542/Desktop/GD32F30x_Demo_Suites_V2.0.0/GD32F30x_Demo_Suites_V2.0.0/GD32F30x_Firmware_Library/GD32F30x_standard_peripheral/Source\gd32f30x_timer.c ****     case TIMER_CH_1:
1090:C:/Users/49542/Desktop/GD32F30x_Demo_Suites_V2.0.0/GD32F30x_Demo_Suites_V2.0.0/GD32F30x_Firmware_Library/GD32F30x_standard_peripheral/Source\gd32f30x_timer.c ****         TIMER_CHCTL0(timer_periph) &= (~(uint32_t)TIMER_CHCTL0_CH1COMSEN);
 3588              		.loc 1 1090 0
 3589 004e 7B68     		ldr	r3, [r7, #4]
 3590 0050 1833     		adds	r3, r3, #24
 3591 0052 1B68     		ldr	r3, [r3]
 3592 0054 7A68     		ldr	r2, [r7, #4]
 3593 0056 1832     		adds	r2, r2, #24
 3594 0058 23F40063 		bic	r3, r3, #2048
 3595 005c 1360     		str	r3, [r2]
1091:C:/Users/49542/Desktop/GD32F30x_Demo_Suites_V2.0.0/GD32F30x_Demo_Suites_V2.0.0/GD32F30x_Firmware_Library/GD32F30x_standard_peripheral/Source\gd32f30x_timer.c ****         TIMER_CHCTL0(timer_periph) |= (uint32_t)((uint32_t)(ocshadow) << 8U);
 3596              		.loc 1 1091 0
 3597 005e 7B68     		ldr	r3, [r7, #4]
 3598 0060 1833     		adds	r3, r3, #24
 3599 0062 1A68     		ldr	r2, [r3]
 3600 0064 3B88     		ldrh	r3, [r7]
 3601 0066 1B02     		lsls	r3, r3, #8
 3602 0068 7968     		ldr	r1, [r7, #4]
 3603 006a 1831     		adds	r1, r1, #24
 3604 006c 1343     		orrs	r3, r3, r2
 3605 006e 0B60     		str	r3, [r1]
1092:C:/Users/49542/Desktop/GD32F30x_Demo_Suites_V2.0.0/GD32F30x_Demo_Suites_V2.0.0/GD32F30x_Firmware_Library/GD32F30x_standard_peripheral/Source\gd32f30x_timer.c ****         break;
 3606              		.loc 1 1092 0
ARM GAS  C:\Users\49542\AppData\Local\Temp\ccx6VnNU.s 			page 83


 3607 0070 23E0     		b	.L146
 3608              	.L144:
1093:C:/Users/49542/Desktop/GD32F30x_Demo_Suites_V2.0.0/GD32F30x_Demo_Suites_V2.0.0/GD32F30x_Firmware_Library/GD32F30x_standard_peripheral/Source\gd32f30x_timer.c ****     /* configure TIMER_CH_2 */
1094:C:/Users/49542/Desktop/GD32F30x_Demo_Suites_V2.0.0/GD32F30x_Demo_Suites_V2.0.0/GD32F30x_Firmware_Library/GD32F30x_standard_peripheral/Source\gd32f30x_timer.c ****     case TIMER_CH_2:
1095:C:/Users/49542/Desktop/GD32F30x_Demo_Suites_V2.0.0/GD32F30x_Demo_Suites_V2.0.0/GD32F30x_Firmware_Library/GD32F30x_standard_peripheral/Source\gd32f30x_timer.c ****         TIMER_CHCTL1(timer_periph) &= (~(uint32_t)TIMER_CHCTL1_CH2COMSEN);
 3609              		.loc 1 1095 0
 3610 0072 7B68     		ldr	r3, [r7, #4]
 3611 0074 1C33     		adds	r3, r3, #28
 3612 0076 1B68     		ldr	r3, [r3]
 3613 0078 7A68     		ldr	r2, [r7, #4]
 3614 007a 1C32     		adds	r2, r2, #28
 3615 007c 23F00803 		bic	r3, r3, #8
 3616 0080 1360     		str	r3, [r2]
1096:C:/Users/49542/Desktop/GD32F30x_Demo_Suites_V2.0.0/GD32F30x_Demo_Suites_V2.0.0/GD32F30x_Firmware_Library/GD32F30x_standard_peripheral/Source\gd32f30x_timer.c ****         TIMER_CHCTL1(timer_periph) |= (uint32_t)ocshadow;
 3617              		.loc 1 1096 0
 3618 0082 7B68     		ldr	r3, [r7, #4]
 3619 0084 1C33     		adds	r3, r3, #28
 3620 0086 1A68     		ldr	r2, [r3]
 3621 0088 3B88     		ldrh	r3, [r7]
 3622 008a 7968     		ldr	r1, [r7, #4]
 3623 008c 1C31     		adds	r1, r1, #28
 3624 008e 1343     		orrs	r3, r3, r2
 3625 0090 0B60     		str	r3, [r1]
1097:C:/Users/49542/Desktop/GD32F30x_Demo_Suites_V2.0.0/GD32F30x_Demo_Suites_V2.0.0/GD32F30x_Firmware_Library/GD32F30x_standard_peripheral/Source\gd32f30x_timer.c ****         break;
 3626              		.loc 1 1097 0
 3627 0092 12E0     		b	.L146
 3628              	.L145:
1098:C:/Users/49542/Desktop/GD32F30x_Demo_Suites_V2.0.0/GD32F30x_Demo_Suites_V2.0.0/GD32F30x_Firmware_Library/GD32F30x_standard_peripheral/Source\gd32f30x_timer.c ****     /* configure TIMER_CH_3 */
1099:C:/Users/49542/Desktop/GD32F30x_Demo_Suites_V2.0.0/GD32F30x_Demo_Suites_V2.0.0/GD32F30x_Firmware_Library/GD32F30x_standard_peripheral/Source\gd32f30x_timer.c ****     case TIMER_CH_3:
1100:C:/Users/49542/Desktop/GD32F30x_Demo_Suites_V2.0.0/GD32F30x_Demo_Suites_V2.0.0/GD32F30x_Firmware_Library/GD32F30x_standard_peripheral/Source\gd32f30x_timer.c ****         TIMER_CHCTL1(timer_periph) &= (~(uint32_t)TIMER_CHCTL1_CH3COMSEN);
 3629              		.loc 1 1100 0
 3630 0094 7B68     		ldr	r3, [r7, #4]
 3631 0096 1C33     		adds	r3, r3, #28
 3632 0098 1B68     		ldr	r3, [r3]
 3633 009a 7A68     		ldr	r2, [r7, #4]
 3634 009c 1C32     		adds	r2, r2, #28
 3635 009e 23F40063 		bic	r3, r3, #2048
 3636 00a2 1360     		str	r3, [r2]
1101:C:/Users/49542/Desktop/GD32F30x_Demo_Suites_V2.0.0/GD32F30x_Demo_Suites_V2.0.0/GD32F30x_Firmware_Library/GD32F30x_standard_peripheral/Source\gd32f30x_timer.c ****         TIMER_CHCTL1(timer_periph) |= (uint32_t)((uint32_t)(ocshadow) << 8U);
 3637              		.loc 1 1101 0
 3638 00a4 7B68     		ldr	r3, [r7, #4]
 3639 00a6 1C33     		adds	r3, r3, #28
 3640 00a8 1A68     		ldr	r2, [r3]
 3641 00aa 3B88     		ldrh	r3, [r7]
 3642 00ac 1B02     		lsls	r3, r3, #8
 3643 00ae 7968     		ldr	r1, [r7, #4]
 3644 00b0 1C31     		adds	r1, r1, #28
 3645 00b2 1343     		orrs	r3, r3, r2
 3646 00b4 0B60     		str	r3, [r1]
1102:C:/Users/49542/Desktop/GD32F30x_Demo_Suites_V2.0.0/GD32F30x_Demo_Suites_V2.0.0/GD32F30x_Firmware_Library/GD32F30x_standard_peripheral/Source\gd32f30x_timer.c ****         break;
 3647              		.loc 1 1102 0
 3648 00b6 00E0     		b	.L146
 3649              	.L147:
1103:C:/Users/49542/Desktop/GD32F30x_Demo_Suites_V2.0.0/GD32F30x_Demo_Suites_V2.0.0/GD32F30x_Firmware_Library/GD32F30x_standard_peripheral/Source\gd32f30x_timer.c ****     default:
1104:C:/Users/49542/Desktop/GD32F30x_Demo_Suites_V2.0.0/GD32F30x_Demo_Suites_V2.0.0/GD32F30x_Firmware_Library/GD32F30x_standard_peripheral/Source\gd32f30x_timer.c ****         break;
 3650              		.loc 1 1104 0
 3651 00b8 00BF     		nop
ARM GAS  C:\Users\49542\AppData\Local\Temp\ccx6VnNU.s 			page 84


 3652              	.L146:
1105:C:/Users/49542/Desktop/GD32F30x_Demo_Suites_V2.0.0/GD32F30x_Demo_Suites_V2.0.0/GD32F30x_Firmware_Library/GD32F30x_standard_peripheral/Source\gd32f30x_timer.c ****     }
1106:C:/Users/49542/Desktop/GD32F30x_Demo_Suites_V2.0.0/GD32F30x_Demo_Suites_V2.0.0/GD32F30x_Firmware_Library/GD32F30x_standard_peripheral/Source\gd32f30x_timer.c **** }
 3653              		.loc 1 1106 0
 3654 00ba 00BF     		nop
 3655 00bc 0C37     		adds	r7, r7, #12
 3656              	.LCFI266:
 3657              		.cfi_def_cfa_offset 4
 3658 00be BD46     		mov	sp, r7
 3659              	.LCFI267:
 3660              		.cfi_def_cfa_register 13
 3661              		@ sp needed
 3662 00c0 5DF8047B 		ldr	r7, [sp], #4
 3663              	.LCFI268:
 3664              		.cfi_restore 7
 3665              		.cfi_def_cfa_offset 0
 3666 00c4 7047     		bx	lr
 3667              		.cfi_endproc
 3668              	.LFE160:
 3670 00c6 00BF     		.section	.text.timer_channel_output_fast_config,"ax",%progbits
 3671              		.align	1
 3672              		.global	timer_channel_output_fast_config
 3673              		.syntax unified
 3674              		.thumb
 3675              		.thumb_func
 3676              		.fpu fpv4-sp-d16
 3678              	timer_channel_output_fast_config:
 3679              	.LFB161:
1107:C:/Users/49542/Desktop/GD32F30x_Demo_Suites_V2.0.0/GD32F30x_Demo_Suites_V2.0.0/GD32F30x_Firmware_Library/GD32F30x_standard_peripheral/Source\gd32f30x_timer.c **** 
1108:C:/Users/49542/Desktop/GD32F30x_Demo_Suites_V2.0.0/GD32F30x_Demo_Suites_V2.0.0/GD32F30x_Firmware_Library/GD32F30x_standard_peripheral/Source\gd32f30x_timer.c **** /*!
1109:C:/Users/49542/Desktop/GD32F30x_Demo_Suites_V2.0.0/GD32F30x_Demo_Suites_V2.0.0/GD32F30x_Firmware_Library/GD32F30x_standard_peripheral/Source\gd32f30x_timer.c ****     \brief      configure TIMER channel output fast function
1110:C:/Users/49542/Desktop/GD32F30x_Demo_Suites_V2.0.0/GD32F30x_Demo_Suites_V2.0.0/GD32F30x_Firmware_Library/GD32F30x_standard_peripheral/Source\gd32f30x_timer.c ****     \param[in]  timer_periph: please refer to the following parameters
1111:C:/Users/49542/Desktop/GD32F30x_Demo_Suites_V2.0.0/GD32F30x_Demo_Suites_V2.0.0/GD32F30x_Firmware_Library/GD32F30x_standard_peripheral/Source\gd32f30x_timer.c ****     \param[in]  channel:
1112:C:/Users/49542/Desktop/GD32F30x_Demo_Suites_V2.0.0/GD32F30x_Demo_Suites_V2.0.0/GD32F30x_Firmware_Library/GD32F30x_standard_peripheral/Source\gd32f30x_timer.c ****                 only one parameter can be selected which is shown as below:
1113:C:/Users/49542/Desktop/GD32F30x_Demo_Suites_V2.0.0/GD32F30x_Demo_Suites_V2.0.0/GD32F30x_Firmware_Library/GD32F30x_standard_peripheral/Source\gd32f30x_timer.c ****       \arg        TIMER_CH_0: TIMER channel0(TIMERx(x=0..4,7..13))
1114:C:/Users/49542/Desktop/GD32F30x_Demo_Suites_V2.0.0/GD32F30x_Demo_Suites_V2.0.0/GD32F30x_Firmware_Library/GD32F30x_standard_peripheral/Source\gd32f30x_timer.c ****       \arg        TIMER_CH_1: TIMER channel1(TIMERx(x=0..4,7,8,11))
1115:C:/Users/49542/Desktop/GD32F30x_Demo_Suites_V2.0.0/GD32F30x_Demo_Suites_V2.0.0/GD32F30x_Firmware_Library/GD32F30x_standard_peripheral/Source\gd32f30x_timer.c ****       \arg        TIMER_CH_2: TIMER channel2(TIMERx(x=0..4,7))
1116:C:/Users/49542/Desktop/GD32F30x_Demo_Suites_V2.0.0/GD32F30x_Demo_Suites_V2.0.0/GD32F30x_Firmware_Library/GD32F30x_standard_peripheral/Source\gd32f30x_timer.c ****       \arg        TIMER_CH_3: TIMER channel3(TIMERx(x=0..4,7))
1117:C:/Users/49542/Desktop/GD32F30x_Demo_Suites_V2.0.0/GD32F30x_Demo_Suites_V2.0.0/GD32F30x_Firmware_Library/GD32F30x_standard_peripheral/Source\gd32f30x_timer.c ****     \param[in]  ocfast: channel output fast function
1118:C:/Users/49542/Desktop/GD32F30x_Demo_Suites_V2.0.0/GD32F30x_Demo_Suites_V2.0.0/GD32F30x_Firmware_Library/GD32F30x_standard_peripheral/Source\gd32f30x_timer.c ****                 only one parameter can be selected which is shown as below:
1119:C:/Users/49542/Desktop/GD32F30x_Demo_Suites_V2.0.0/GD32F30x_Demo_Suites_V2.0.0/GD32F30x_Firmware_Library/GD32F30x_standard_peripheral/Source\gd32f30x_timer.c ****       \arg        TIMER_OC_FAST_ENABLE: channel output fast function enable
1120:C:/Users/49542/Desktop/GD32F30x_Demo_Suites_V2.0.0/GD32F30x_Demo_Suites_V2.0.0/GD32F30x_Firmware_Library/GD32F30x_standard_peripheral/Source\gd32f30x_timer.c ****       \arg        TIMER_OC_FAST_DISABLE: channel output fast function disable
1121:C:/Users/49542/Desktop/GD32F30x_Demo_Suites_V2.0.0/GD32F30x_Demo_Suites_V2.0.0/GD32F30x_Firmware_Library/GD32F30x_standard_peripheral/Source\gd32f30x_timer.c ****     \param[out] none
1122:C:/Users/49542/Desktop/GD32F30x_Demo_Suites_V2.0.0/GD32F30x_Demo_Suites_V2.0.0/GD32F30x_Firmware_Library/GD32F30x_standard_peripheral/Source\gd32f30x_timer.c ****     \retval     none
1123:C:/Users/49542/Desktop/GD32F30x_Demo_Suites_V2.0.0/GD32F30x_Demo_Suites_V2.0.0/GD32F30x_Firmware_Library/GD32F30x_standard_peripheral/Source\gd32f30x_timer.c **** */
1124:C:/Users/49542/Desktop/GD32F30x_Demo_Suites_V2.0.0/GD32F30x_Demo_Suites_V2.0.0/GD32F30x_Firmware_Library/GD32F30x_standard_peripheral/Source\gd32f30x_timer.c **** void timer_channel_output_fast_config(uint32_t timer_periph, uint16_t channel, uint16_t ocfast)
1125:C:/Users/49542/Desktop/GD32F30x_Demo_Suites_V2.0.0/GD32F30x_Demo_Suites_V2.0.0/GD32F30x_Firmware_Library/GD32F30x_standard_peripheral/Source\gd32f30x_timer.c **** {
 3680              		.loc 1 1125 0
 3681              		.cfi_startproc
 3682              		@ args = 0, pretend = 0, frame = 8
 3683              		@ frame_needed = 1, uses_anonymous_args = 0
 3684              		@ link register save eliminated.
 3685 0000 80B4     		push	{r7}
 3686              	.LCFI269:
 3687              		.cfi_def_cfa_offset 4
 3688              		.cfi_offset 7, -4
 3689 0002 83B0     		sub	sp, sp, #12
ARM GAS  C:\Users\49542\AppData\Local\Temp\ccx6VnNU.s 			page 85


 3690              	.LCFI270:
 3691              		.cfi_def_cfa_offset 16
 3692 0004 00AF     		add	r7, sp, #0
 3693              	.LCFI271:
 3694              		.cfi_def_cfa_register 7
 3695 0006 7860     		str	r0, [r7, #4]
 3696 0008 0B46     		mov	r3, r1
 3697 000a 7B80     		strh	r3, [r7, #2]	@ movhi
 3698 000c 1346     		mov	r3, r2	@ movhi
 3699 000e 3B80     		strh	r3, [r7]	@ movhi
1126:C:/Users/49542/Desktop/GD32F30x_Demo_Suites_V2.0.0/GD32F30x_Demo_Suites_V2.0.0/GD32F30x_Firmware_Library/GD32F30x_standard_peripheral/Source\gd32f30x_timer.c ****     switch(channel){
 3700              		.loc 1 1126 0
 3701 0010 7B88     		ldrh	r3, [r7, #2]
 3702 0012 032B     		cmp	r3, #3
 3703 0014 50D8     		bhi	.L156
 3704 0016 01A2     		adr	r2, .L151
 3705 0018 52F823F0 		ldr	pc, [r2, r3, lsl #2]
 3706              		.p2align 2
 3707              	.L151:
 3708 001c 2D000000 		.word	.L150+1
 3709 0020 4F000000 		.word	.L152+1
 3710 0024 73000000 		.word	.L153+1
 3711 0028 95000000 		.word	.L154+1
 3712              		.p2align 1
 3713              	.L150:
1127:C:/Users/49542/Desktop/GD32F30x_Demo_Suites_V2.0.0/GD32F30x_Demo_Suites_V2.0.0/GD32F30x_Firmware_Library/GD32F30x_standard_peripheral/Source\gd32f30x_timer.c ****     /* configure TIMER_CH_0 */
1128:C:/Users/49542/Desktop/GD32F30x_Demo_Suites_V2.0.0/GD32F30x_Demo_Suites_V2.0.0/GD32F30x_Firmware_Library/GD32F30x_standard_peripheral/Source\gd32f30x_timer.c ****     case TIMER_CH_0:
1129:C:/Users/49542/Desktop/GD32F30x_Demo_Suites_V2.0.0/GD32F30x_Demo_Suites_V2.0.0/GD32F30x_Firmware_Library/GD32F30x_standard_peripheral/Source\gd32f30x_timer.c ****         TIMER_CHCTL0(timer_periph) &= (~(uint32_t)TIMER_CHCTL0_CH0COMFEN);
 3714              		.loc 1 1129 0
 3715 002c 7B68     		ldr	r3, [r7, #4]
 3716 002e 1833     		adds	r3, r3, #24
 3717 0030 1B68     		ldr	r3, [r3]
 3718 0032 7A68     		ldr	r2, [r7, #4]
 3719 0034 1832     		adds	r2, r2, #24
 3720 0036 23F00403 		bic	r3, r3, #4
 3721 003a 1360     		str	r3, [r2]
1130:C:/Users/49542/Desktop/GD32F30x_Demo_Suites_V2.0.0/GD32F30x_Demo_Suites_V2.0.0/GD32F30x_Firmware_Library/GD32F30x_standard_peripheral/Source\gd32f30x_timer.c ****         TIMER_CHCTL0(timer_periph) |= (uint32_t)ocfast;
 3722              		.loc 1 1130 0
 3723 003c 7B68     		ldr	r3, [r7, #4]
 3724 003e 1833     		adds	r3, r3, #24
 3725 0040 1A68     		ldr	r2, [r3]
 3726 0042 3B88     		ldrh	r3, [r7]
 3727 0044 7968     		ldr	r1, [r7, #4]
 3728 0046 1831     		adds	r1, r1, #24
 3729 0048 1343     		orrs	r3, r3, r2
 3730 004a 0B60     		str	r3, [r1]
1131:C:/Users/49542/Desktop/GD32F30x_Demo_Suites_V2.0.0/GD32F30x_Demo_Suites_V2.0.0/GD32F30x_Firmware_Library/GD32F30x_standard_peripheral/Source\gd32f30x_timer.c ****         break;
 3731              		.loc 1 1131 0
 3732 004c 35E0     		b	.L155
 3733              	.L152:
1132:C:/Users/49542/Desktop/GD32F30x_Demo_Suites_V2.0.0/GD32F30x_Demo_Suites_V2.0.0/GD32F30x_Firmware_Library/GD32F30x_standard_peripheral/Source\gd32f30x_timer.c ****     /* configure TIMER_CH_1 */
1133:C:/Users/49542/Desktop/GD32F30x_Demo_Suites_V2.0.0/GD32F30x_Demo_Suites_V2.0.0/GD32F30x_Firmware_Library/GD32F30x_standard_peripheral/Source\gd32f30x_timer.c ****     case TIMER_CH_1:
1134:C:/Users/49542/Desktop/GD32F30x_Demo_Suites_V2.0.0/GD32F30x_Demo_Suites_V2.0.0/GD32F30x_Firmware_Library/GD32F30x_standard_peripheral/Source\gd32f30x_timer.c ****         TIMER_CHCTL0(timer_periph) &= (~(uint32_t)TIMER_CHCTL0_CH1COMFEN);
 3734              		.loc 1 1134 0
 3735 004e 7B68     		ldr	r3, [r7, #4]
 3736 0050 1833     		adds	r3, r3, #24
 3737 0052 1B68     		ldr	r3, [r3]
ARM GAS  C:\Users\49542\AppData\Local\Temp\ccx6VnNU.s 			page 86


 3738 0054 7A68     		ldr	r2, [r7, #4]
 3739 0056 1832     		adds	r2, r2, #24
 3740 0058 23F48063 		bic	r3, r3, #1024
 3741 005c 1360     		str	r3, [r2]
1135:C:/Users/49542/Desktop/GD32F30x_Demo_Suites_V2.0.0/GD32F30x_Demo_Suites_V2.0.0/GD32F30x_Firmware_Library/GD32F30x_standard_peripheral/Source\gd32f30x_timer.c ****         TIMER_CHCTL0(timer_periph) |= (uint32_t)((uint32_t)ocfast << 8U);
 3742              		.loc 1 1135 0
 3743 005e 7B68     		ldr	r3, [r7, #4]
 3744 0060 1833     		adds	r3, r3, #24
 3745 0062 1A68     		ldr	r2, [r3]
 3746 0064 3B88     		ldrh	r3, [r7]
 3747 0066 1B02     		lsls	r3, r3, #8
 3748 0068 7968     		ldr	r1, [r7, #4]
 3749 006a 1831     		adds	r1, r1, #24
 3750 006c 1343     		orrs	r3, r3, r2
 3751 006e 0B60     		str	r3, [r1]
1136:C:/Users/49542/Desktop/GD32F30x_Demo_Suites_V2.0.0/GD32F30x_Demo_Suites_V2.0.0/GD32F30x_Firmware_Library/GD32F30x_standard_peripheral/Source\gd32f30x_timer.c ****         break;
 3752              		.loc 1 1136 0
 3753 0070 23E0     		b	.L155
 3754              	.L153:
1137:C:/Users/49542/Desktop/GD32F30x_Demo_Suites_V2.0.0/GD32F30x_Demo_Suites_V2.0.0/GD32F30x_Firmware_Library/GD32F30x_standard_peripheral/Source\gd32f30x_timer.c ****     /* configure TIMER_CH_2 */
1138:C:/Users/49542/Desktop/GD32F30x_Demo_Suites_V2.0.0/GD32F30x_Demo_Suites_V2.0.0/GD32F30x_Firmware_Library/GD32F30x_standard_peripheral/Source\gd32f30x_timer.c ****     case TIMER_CH_2:
1139:C:/Users/49542/Desktop/GD32F30x_Demo_Suites_V2.0.0/GD32F30x_Demo_Suites_V2.0.0/GD32F30x_Firmware_Library/GD32F30x_standard_peripheral/Source\gd32f30x_timer.c ****         TIMER_CHCTL1(timer_periph) &= (~(uint32_t)TIMER_CHCTL1_CH2COMFEN);
 3755              		.loc 1 1139 0
 3756 0072 7B68     		ldr	r3, [r7, #4]
 3757 0074 1C33     		adds	r3, r3, #28
 3758 0076 1B68     		ldr	r3, [r3]
 3759 0078 7A68     		ldr	r2, [r7, #4]
 3760 007a 1C32     		adds	r2, r2, #28
 3761 007c 23F00403 		bic	r3, r3, #4
 3762 0080 1360     		str	r3, [r2]
1140:C:/Users/49542/Desktop/GD32F30x_Demo_Suites_V2.0.0/GD32F30x_Demo_Suites_V2.0.0/GD32F30x_Firmware_Library/GD32F30x_standard_peripheral/Source\gd32f30x_timer.c ****         TIMER_CHCTL1(timer_periph) |= (uint32_t)ocfast;
 3763              		.loc 1 1140 0
 3764 0082 7B68     		ldr	r3, [r7, #4]
 3765 0084 1C33     		adds	r3, r3, #28
 3766 0086 1A68     		ldr	r2, [r3]
 3767 0088 3B88     		ldrh	r3, [r7]
 3768 008a 7968     		ldr	r1, [r7, #4]
 3769 008c 1C31     		adds	r1, r1, #28
 3770 008e 1343     		orrs	r3, r3, r2
 3771 0090 0B60     		str	r3, [r1]
1141:C:/Users/49542/Desktop/GD32F30x_Demo_Suites_V2.0.0/GD32F30x_Demo_Suites_V2.0.0/GD32F30x_Firmware_Library/GD32F30x_standard_peripheral/Source\gd32f30x_timer.c ****         break;
 3772              		.loc 1 1141 0
 3773 0092 12E0     		b	.L155
 3774              	.L154:
1142:C:/Users/49542/Desktop/GD32F30x_Demo_Suites_V2.0.0/GD32F30x_Demo_Suites_V2.0.0/GD32F30x_Firmware_Library/GD32F30x_standard_peripheral/Source\gd32f30x_timer.c ****     /* configure TIMER_CH_3 */
1143:C:/Users/49542/Desktop/GD32F30x_Demo_Suites_V2.0.0/GD32F30x_Demo_Suites_V2.0.0/GD32F30x_Firmware_Library/GD32F30x_standard_peripheral/Source\gd32f30x_timer.c ****     case TIMER_CH_3:
1144:C:/Users/49542/Desktop/GD32F30x_Demo_Suites_V2.0.0/GD32F30x_Demo_Suites_V2.0.0/GD32F30x_Firmware_Library/GD32F30x_standard_peripheral/Source\gd32f30x_timer.c ****         TIMER_CHCTL1(timer_periph) &= (~(uint32_t)TIMER_CHCTL1_CH3COMFEN);
 3775              		.loc 1 1144 0
 3776 0094 7B68     		ldr	r3, [r7, #4]
 3777 0096 1C33     		adds	r3, r3, #28
 3778 0098 1B68     		ldr	r3, [r3]
 3779 009a 7A68     		ldr	r2, [r7, #4]
 3780 009c 1C32     		adds	r2, r2, #28
 3781 009e 23F48063 		bic	r3, r3, #1024
 3782 00a2 1360     		str	r3, [r2]
1145:C:/Users/49542/Desktop/GD32F30x_Demo_Suites_V2.0.0/GD32F30x_Demo_Suites_V2.0.0/GD32F30x_Firmware_Library/GD32F30x_standard_peripheral/Source\gd32f30x_timer.c ****         TIMER_CHCTL1(timer_periph) |= (uint32_t)((uint32_t)ocfast << 8U);
 3783              		.loc 1 1145 0
ARM GAS  C:\Users\49542\AppData\Local\Temp\ccx6VnNU.s 			page 87


 3784 00a4 7B68     		ldr	r3, [r7, #4]
 3785 00a6 1C33     		adds	r3, r3, #28
 3786 00a8 1A68     		ldr	r2, [r3]
 3787 00aa 3B88     		ldrh	r3, [r7]
 3788 00ac 1B02     		lsls	r3, r3, #8
 3789 00ae 7968     		ldr	r1, [r7, #4]
 3790 00b0 1C31     		adds	r1, r1, #28
 3791 00b2 1343     		orrs	r3, r3, r2
 3792 00b4 0B60     		str	r3, [r1]
1146:C:/Users/49542/Desktop/GD32F30x_Demo_Suites_V2.0.0/GD32F30x_Demo_Suites_V2.0.0/GD32F30x_Firmware_Library/GD32F30x_standard_peripheral/Source\gd32f30x_timer.c ****         break;
 3793              		.loc 1 1146 0
 3794 00b6 00E0     		b	.L155
 3795              	.L156:
1147:C:/Users/49542/Desktop/GD32F30x_Demo_Suites_V2.0.0/GD32F30x_Demo_Suites_V2.0.0/GD32F30x_Firmware_Library/GD32F30x_standard_peripheral/Source\gd32f30x_timer.c ****     default:
1148:C:/Users/49542/Desktop/GD32F30x_Demo_Suites_V2.0.0/GD32F30x_Demo_Suites_V2.0.0/GD32F30x_Firmware_Library/GD32F30x_standard_peripheral/Source\gd32f30x_timer.c ****         break;
 3796              		.loc 1 1148 0
 3797 00b8 00BF     		nop
 3798              	.L155:
1149:C:/Users/49542/Desktop/GD32F30x_Demo_Suites_V2.0.0/GD32F30x_Demo_Suites_V2.0.0/GD32F30x_Firmware_Library/GD32F30x_standard_peripheral/Source\gd32f30x_timer.c ****     }
1150:C:/Users/49542/Desktop/GD32F30x_Demo_Suites_V2.0.0/GD32F30x_Demo_Suites_V2.0.0/GD32F30x_Firmware_Library/GD32F30x_standard_peripheral/Source\gd32f30x_timer.c **** }
 3799              		.loc 1 1150 0
 3800 00ba 00BF     		nop
 3801 00bc 0C37     		adds	r7, r7, #12
 3802              	.LCFI272:
 3803              		.cfi_def_cfa_offset 4
 3804 00be BD46     		mov	sp, r7
 3805              	.LCFI273:
 3806              		.cfi_def_cfa_register 13
 3807              		@ sp needed
 3808 00c0 5DF8047B 		ldr	r7, [sp], #4
 3809              	.LCFI274:
 3810              		.cfi_restore 7
 3811              		.cfi_def_cfa_offset 0
 3812 00c4 7047     		bx	lr
 3813              		.cfi_endproc
 3814              	.LFE161:
 3816 00c6 00BF     		.section	.text.timer_channel_output_clear_config,"ax",%progbits
 3817              		.align	1
 3818              		.global	timer_channel_output_clear_config
 3819              		.syntax unified
 3820              		.thumb
 3821              		.thumb_func
 3822              		.fpu fpv4-sp-d16
 3824              	timer_channel_output_clear_config:
 3825              	.LFB162:
1151:C:/Users/49542/Desktop/GD32F30x_Demo_Suites_V2.0.0/GD32F30x_Demo_Suites_V2.0.0/GD32F30x_Firmware_Library/GD32F30x_standard_peripheral/Source\gd32f30x_timer.c **** 
1152:C:/Users/49542/Desktop/GD32F30x_Demo_Suites_V2.0.0/GD32F30x_Demo_Suites_V2.0.0/GD32F30x_Firmware_Library/GD32F30x_standard_peripheral/Source\gd32f30x_timer.c **** /*!
1153:C:/Users/49542/Desktop/GD32F30x_Demo_Suites_V2.0.0/GD32F30x_Demo_Suites_V2.0.0/GD32F30x_Firmware_Library/GD32F30x_standard_peripheral/Source\gd32f30x_timer.c ****     \brief      configure TIMER channel output clear function
1154:C:/Users/49542/Desktop/GD32F30x_Demo_Suites_V2.0.0/GD32F30x_Demo_Suites_V2.0.0/GD32F30x_Firmware_Library/GD32F30x_standard_peripheral/Source\gd32f30x_timer.c ****     \param[in]  timer_periph: TIMERx(x=0..4,7)
1155:C:/Users/49542/Desktop/GD32F30x_Demo_Suites_V2.0.0/GD32F30x_Demo_Suites_V2.0.0/GD32F30x_Firmware_Library/GD32F30x_standard_peripheral/Source\gd32f30x_timer.c ****     \param[in]  channel: 
1156:C:/Users/49542/Desktop/GD32F30x_Demo_Suites_V2.0.0/GD32F30x_Demo_Suites_V2.0.0/GD32F30x_Firmware_Library/GD32F30x_standard_peripheral/Source\gd32f30x_timer.c ****                 only one parameter can be selected which is shown as below:
1157:C:/Users/49542/Desktop/GD32F30x_Demo_Suites_V2.0.0/GD32F30x_Demo_Suites_V2.0.0/GD32F30x_Firmware_Library/GD32F30x_standard_peripheral/Source\gd32f30x_timer.c ****       \arg        TIMER_CH_0: TIMER channel0
1158:C:/Users/49542/Desktop/GD32F30x_Demo_Suites_V2.0.0/GD32F30x_Demo_Suites_V2.0.0/GD32F30x_Firmware_Library/GD32F30x_standard_peripheral/Source\gd32f30x_timer.c ****       \arg        TIMER_CH_1: TIMER channel1
1159:C:/Users/49542/Desktop/GD32F30x_Demo_Suites_V2.0.0/GD32F30x_Demo_Suites_V2.0.0/GD32F30x_Firmware_Library/GD32F30x_standard_peripheral/Source\gd32f30x_timer.c ****       \arg        TIMER_CH_2: TIMER channel2
1160:C:/Users/49542/Desktop/GD32F30x_Demo_Suites_V2.0.0/GD32F30x_Demo_Suites_V2.0.0/GD32F30x_Firmware_Library/GD32F30x_standard_peripheral/Source\gd32f30x_timer.c ****       \arg        TIMER_CH_3: TIMER channel3
1161:C:/Users/49542/Desktop/GD32F30x_Demo_Suites_V2.0.0/GD32F30x_Demo_Suites_V2.0.0/GD32F30x_Firmware_Library/GD32F30x_standard_peripheral/Source\gd32f30x_timer.c ****     \param[in]  occlear: channel output clear function
1162:C:/Users/49542/Desktop/GD32F30x_Demo_Suites_V2.0.0/GD32F30x_Demo_Suites_V2.0.0/GD32F30x_Firmware_Library/GD32F30x_standard_peripheral/Source\gd32f30x_timer.c ****                 only one parameter can be selected which is shown as below:
ARM GAS  C:\Users\49542\AppData\Local\Temp\ccx6VnNU.s 			page 88


1163:C:/Users/49542/Desktop/GD32F30x_Demo_Suites_V2.0.0/GD32F30x_Demo_Suites_V2.0.0/GD32F30x_Firmware_Library/GD32F30x_standard_peripheral/Source\gd32f30x_timer.c ****       \arg        TIMER_OC_CLEAR_ENABLE: channel output clear function enable
1164:C:/Users/49542/Desktop/GD32F30x_Demo_Suites_V2.0.0/GD32F30x_Demo_Suites_V2.0.0/GD32F30x_Firmware_Library/GD32F30x_standard_peripheral/Source\gd32f30x_timer.c ****       \arg        TIMER_OC_CLEAR_DISABLE: channel output clear function disable
1165:C:/Users/49542/Desktop/GD32F30x_Demo_Suites_V2.0.0/GD32F30x_Demo_Suites_V2.0.0/GD32F30x_Firmware_Library/GD32F30x_standard_peripheral/Source\gd32f30x_timer.c ****     \param[out] none
1166:C:/Users/49542/Desktop/GD32F30x_Demo_Suites_V2.0.0/GD32F30x_Demo_Suites_V2.0.0/GD32F30x_Firmware_Library/GD32F30x_standard_peripheral/Source\gd32f30x_timer.c ****     \retval     none
1167:C:/Users/49542/Desktop/GD32F30x_Demo_Suites_V2.0.0/GD32F30x_Demo_Suites_V2.0.0/GD32F30x_Firmware_Library/GD32F30x_standard_peripheral/Source\gd32f30x_timer.c **** */
1168:C:/Users/49542/Desktop/GD32F30x_Demo_Suites_V2.0.0/GD32F30x_Demo_Suites_V2.0.0/GD32F30x_Firmware_Library/GD32F30x_standard_peripheral/Source\gd32f30x_timer.c **** void timer_channel_output_clear_config(uint32_t timer_periph, uint16_t channel, uint16_t occlear)
1169:C:/Users/49542/Desktop/GD32F30x_Demo_Suites_V2.0.0/GD32F30x_Demo_Suites_V2.0.0/GD32F30x_Firmware_Library/GD32F30x_standard_peripheral/Source\gd32f30x_timer.c **** {
 3826              		.loc 1 1169 0
 3827              		.cfi_startproc
 3828              		@ args = 0, pretend = 0, frame = 8
 3829              		@ frame_needed = 1, uses_anonymous_args = 0
 3830              		@ link register save eliminated.
 3831 0000 80B4     		push	{r7}
 3832              	.LCFI275:
 3833              		.cfi_def_cfa_offset 4
 3834              		.cfi_offset 7, -4
 3835 0002 83B0     		sub	sp, sp, #12
 3836              	.LCFI276:
 3837              		.cfi_def_cfa_offset 16
 3838 0004 00AF     		add	r7, sp, #0
 3839              	.LCFI277:
 3840              		.cfi_def_cfa_register 7
 3841 0006 7860     		str	r0, [r7, #4]
 3842 0008 0B46     		mov	r3, r1
 3843 000a 7B80     		strh	r3, [r7, #2]	@ movhi
 3844 000c 1346     		mov	r3, r2	@ movhi
 3845 000e 3B80     		strh	r3, [r7]	@ movhi
1170:C:/Users/49542/Desktop/GD32F30x_Demo_Suites_V2.0.0/GD32F30x_Demo_Suites_V2.0.0/GD32F30x_Firmware_Library/GD32F30x_standard_peripheral/Source\gd32f30x_timer.c ****     switch(channel){
 3846              		.loc 1 1170 0
 3847 0010 7B88     		ldrh	r3, [r7, #2]
 3848 0012 032B     		cmp	r3, #3
 3849 0014 50D8     		bhi	.L165
 3850 0016 01A2     		adr	r2, .L160
 3851 0018 52F823F0 		ldr	pc, [r2, r3, lsl #2]
 3852              		.p2align 2
 3853              	.L160:
 3854 001c 2D000000 		.word	.L159+1
 3855 0020 4F000000 		.word	.L161+1
 3856 0024 73000000 		.word	.L162+1
 3857 0028 95000000 		.word	.L163+1
 3858              		.p2align 1
 3859              	.L159:
1171:C:/Users/49542/Desktop/GD32F30x_Demo_Suites_V2.0.0/GD32F30x_Demo_Suites_V2.0.0/GD32F30x_Firmware_Library/GD32F30x_standard_peripheral/Source\gd32f30x_timer.c ****     /* configure TIMER_CH_0 */
1172:C:/Users/49542/Desktop/GD32F30x_Demo_Suites_V2.0.0/GD32F30x_Demo_Suites_V2.0.0/GD32F30x_Firmware_Library/GD32F30x_standard_peripheral/Source\gd32f30x_timer.c ****     case TIMER_CH_0:
1173:C:/Users/49542/Desktop/GD32F30x_Demo_Suites_V2.0.0/GD32F30x_Demo_Suites_V2.0.0/GD32F30x_Firmware_Library/GD32F30x_standard_peripheral/Source\gd32f30x_timer.c ****         TIMER_CHCTL0(timer_periph) &= (~(uint32_t)TIMER_CHCTL0_CH0COMCEN);
 3860              		.loc 1 1173 0
 3861 002c 7B68     		ldr	r3, [r7, #4]
 3862 002e 1833     		adds	r3, r3, #24
 3863 0030 1B68     		ldr	r3, [r3]
 3864 0032 7A68     		ldr	r2, [r7, #4]
 3865 0034 1832     		adds	r2, r2, #24
 3866 0036 23F08003 		bic	r3, r3, #128
 3867 003a 1360     		str	r3, [r2]
1174:C:/Users/49542/Desktop/GD32F30x_Demo_Suites_V2.0.0/GD32F30x_Demo_Suites_V2.0.0/GD32F30x_Firmware_Library/GD32F30x_standard_peripheral/Source\gd32f30x_timer.c ****         TIMER_CHCTL0(timer_periph) |= (uint32_t)occlear;
 3868              		.loc 1 1174 0
 3869 003c 7B68     		ldr	r3, [r7, #4]
 3870 003e 1833     		adds	r3, r3, #24
ARM GAS  C:\Users\49542\AppData\Local\Temp\ccx6VnNU.s 			page 89


 3871 0040 1A68     		ldr	r2, [r3]
 3872 0042 3B88     		ldrh	r3, [r7]
 3873 0044 7968     		ldr	r1, [r7, #4]
 3874 0046 1831     		adds	r1, r1, #24
 3875 0048 1343     		orrs	r3, r3, r2
 3876 004a 0B60     		str	r3, [r1]
1175:C:/Users/49542/Desktop/GD32F30x_Demo_Suites_V2.0.0/GD32F30x_Demo_Suites_V2.0.0/GD32F30x_Firmware_Library/GD32F30x_standard_peripheral/Source\gd32f30x_timer.c ****         break;
 3877              		.loc 1 1175 0
 3878 004c 35E0     		b	.L164
 3879              	.L161:
1176:C:/Users/49542/Desktop/GD32F30x_Demo_Suites_V2.0.0/GD32F30x_Demo_Suites_V2.0.0/GD32F30x_Firmware_Library/GD32F30x_standard_peripheral/Source\gd32f30x_timer.c ****     /* configure TIMER_CH_1 */
1177:C:/Users/49542/Desktop/GD32F30x_Demo_Suites_V2.0.0/GD32F30x_Demo_Suites_V2.0.0/GD32F30x_Firmware_Library/GD32F30x_standard_peripheral/Source\gd32f30x_timer.c ****     case TIMER_CH_1:
1178:C:/Users/49542/Desktop/GD32F30x_Demo_Suites_V2.0.0/GD32F30x_Demo_Suites_V2.0.0/GD32F30x_Firmware_Library/GD32F30x_standard_peripheral/Source\gd32f30x_timer.c ****         TIMER_CHCTL0(timer_periph) &= (~(uint32_t)TIMER_CHCTL0_CH1COMCEN);
 3880              		.loc 1 1178 0
 3881 004e 7B68     		ldr	r3, [r7, #4]
 3882 0050 1833     		adds	r3, r3, #24
 3883 0052 1B68     		ldr	r3, [r3]
 3884 0054 7A68     		ldr	r2, [r7, #4]
 3885 0056 1832     		adds	r2, r2, #24
 3886 0058 23F40043 		bic	r3, r3, #32768
 3887 005c 1360     		str	r3, [r2]
1179:C:/Users/49542/Desktop/GD32F30x_Demo_Suites_V2.0.0/GD32F30x_Demo_Suites_V2.0.0/GD32F30x_Firmware_Library/GD32F30x_standard_peripheral/Source\gd32f30x_timer.c ****         TIMER_CHCTL0(timer_periph) |= (uint32_t)((uint32_t)occlear << 8U);
 3888              		.loc 1 1179 0
 3889 005e 7B68     		ldr	r3, [r7, #4]
 3890 0060 1833     		adds	r3, r3, #24
 3891 0062 1A68     		ldr	r2, [r3]
 3892 0064 3B88     		ldrh	r3, [r7]
 3893 0066 1B02     		lsls	r3, r3, #8
 3894 0068 7968     		ldr	r1, [r7, #4]
 3895 006a 1831     		adds	r1, r1, #24
 3896 006c 1343     		orrs	r3, r3, r2
 3897 006e 0B60     		str	r3, [r1]
1180:C:/Users/49542/Desktop/GD32F30x_Demo_Suites_V2.0.0/GD32F30x_Demo_Suites_V2.0.0/GD32F30x_Firmware_Library/GD32F30x_standard_peripheral/Source\gd32f30x_timer.c ****         break;
 3898              		.loc 1 1180 0
 3899 0070 23E0     		b	.L164
 3900              	.L162:
1181:C:/Users/49542/Desktop/GD32F30x_Demo_Suites_V2.0.0/GD32F30x_Demo_Suites_V2.0.0/GD32F30x_Firmware_Library/GD32F30x_standard_peripheral/Source\gd32f30x_timer.c ****     /* configure TIMER_CH_2 */
1182:C:/Users/49542/Desktop/GD32F30x_Demo_Suites_V2.0.0/GD32F30x_Demo_Suites_V2.0.0/GD32F30x_Firmware_Library/GD32F30x_standard_peripheral/Source\gd32f30x_timer.c ****     case TIMER_CH_2:
1183:C:/Users/49542/Desktop/GD32F30x_Demo_Suites_V2.0.0/GD32F30x_Demo_Suites_V2.0.0/GD32F30x_Firmware_Library/GD32F30x_standard_peripheral/Source\gd32f30x_timer.c ****         TIMER_CHCTL1(timer_periph) &= (~(uint32_t)TIMER_CHCTL1_CH2COMCEN);
 3901              		.loc 1 1183 0
 3902 0072 7B68     		ldr	r3, [r7, #4]
 3903 0074 1C33     		adds	r3, r3, #28
 3904 0076 1B68     		ldr	r3, [r3]
 3905 0078 7A68     		ldr	r2, [r7, #4]
 3906 007a 1C32     		adds	r2, r2, #28
 3907 007c 23F08003 		bic	r3, r3, #128
 3908 0080 1360     		str	r3, [r2]
1184:C:/Users/49542/Desktop/GD32F30x_Demo_Suites_V2.0.0/GD32F30x_Demo_Suites_V2.0.0/GD32F30x_Firmware_Library/GD32F30x_standard_peripheral/Source\gd32f30x_timer.c ****         TIMER_CHCTL1(timer_periph) |= (uint32_t)occlear;
 3909              		.loc 1 1184 0
 3910 0082 7B68     		ldr	r3, [r7, #4]
 3911 0084 1C33     		adds	r3, r3, #28
 3912 0086 1A68     		ldr	r2, [r3]
 3913 0088 3B88     		ldrh	r3, [r7]
 3914 008a 7968     		ldr	r1, [r7, #4]
 3915 008c 1C31     		adds	r1, r1, #28
 3916 008e 1343     		orrs	r3, r3, r2
 3917 0090 0B60     		str	r3, [r1]
ARM GAS  C:\Users\49542\AppData\Local\Temp\ccx6VnNU.s 			page 90


1185:C:/Users/49542/Desktop/GD32F30x_Demo_Suites_V2.0.0/GD32F30x_Demo_Suites_V2.0.0/GD32F30x_Firmware_Library/GD32F30x_standard_peripheral/Source\gd32f30x_timer.c ****         break;
 3918              		.loc 1 1185 0
 3919 0092 12E0     		b	.L164
 3920              	.L163:
1186:C:/Users/49542/Desktop/GD32F30x_Demo_Suites_V2.0.0/GD32F30x_Demo_Suites_V2.0.0/GD32F30x_Firmware_Library/GD32F30x_standard_peripheral/Source\gd32f30x_timer.c ****     /* configure TIMER_CH_3 */
1187:C:/Users/49542/Desktop/GD32F30x_Demo_Suites_V2.0.0/GD32F30x_Demo_Suites_V2.0.0/GD32F30x_Firmware_Library/GD32F30x_standard_peripheral/Source\gd32f30x_timer.c ****     case TIMER_CH_3:
1188:C:/Users/49542/Desktop/GD32F30x_Demo_Suites_V2.0.0/GD32F30x_Demo_Suites_V2.0.0/GD32F30x_Firmware_Library/GD32F30x_standard_peripheral/Source\gd32f30x_timer.c ****         TIMER_CHCTL1(timer_periph) &= (~(uint32_t)TIMER_CHCTL1_CH3COMCEN);
 3921              		.loc 1 1188 0
 3922 0094 7B68     		ldr	r3, [r7, #4]
 3923 0096 1C33     		adds	r3, r3, #28
 3924 0098 1B68     		ldr	r3, [r3]
 3925 009a 7A68     		ldr	r2, [r7, #4]
 3926 009c 1C32     		adds	r2, r2, #28
 3927 009e 23F40043 		bic	r3, r3, #32768
 3928 00a2 1360     		str	r3, [r2]
1189:C:/Users/49542/Desktop/GD32F30x_Demo_Suites_V2.0.0/GD32F30x_Demo_Suites_V2.0.0/GD32F30x_Firmware_Library/GD32F30x_standard_peripheral/Source\gd32f30x_timer.c ****         TIMER_CHCTL1(timer_periph) |= (uint32_t)((uint32_t)occlear << 8U);
 3929              		.loc 1 1189 0
 3930 00a4 7B68     		ldr	r3, [r7, #4]
 3931 00a6 1C33     		adds	r3, r3, #28
 3932 00a8 1A68     		ldr	r2, [r3]
 3933 00aa 3B88     		ldrh	r3, [r7]
 3934 00ac 1B02     		lsls	r3, r3, #8
 3935 00ae 7968     		ldr	r1, [r7, #4]
 3936 00b0 1C31     		adds	r1, r1, #28
 3937 00b2 1343     		orrs	r3, r3, r2
 3938 00b4 0B60     		str	r3, [r1]
1190:C:/Users/49542/Desktop/GD32F30x_Demo_Suites_V2.0.0/GD32F30x_Demo_Suites_V2.0.0/GD32F30x_Firmware_Library/GD32F30x_standard_peripheral/Source\gd32f30x_timer.c ****         break;
 3939              		.loc 1 1190 0
 3940 00b6 00E0     		b	.L164
 3941              	.L165:
1191:C:/Users/49542/Desktop/GD32F30x_Demo_Suites_V2.0.0/GD32F30x_Demo_Suites_V2.0.0/GD32F30x_Firmware_Library/GD32F30x_standard_peripheral/Source\gd32f30x_timer.c ****     default:
1192:C:/Users/49542/Desktop/GD32F30x_Demo_Suites_V2.0.0/GD32F30x_Demo_Suites_V2.0.0/GD32F30x_Firmware_Library/GD32F30x_standard_peripheral/Source\gd32f30x_timer.c ****         break;
 3942              		.loc 1 1192 0
 3943 00b8 00BF     		nop
 3944              	.L164:
1193:C:/Users/49542/Desktop/GD32F30x_Demo_Suites_V2.0.0/GD32F30x_Demo_Suites_V2.0.0/GD32F30x_Firmware_Library/GD32F30x_standard_peripheral/Source\gd32f30x_timer.c ****     }
1194:C:/Users/49542/Desktop/GD32F30x_Demo_Suites_V2.0.0/GD32F30x_Demo_Suites_V2.0.0/GD32F30x_Firmware_Library/GD32F30x_standard_peripheral/Source\gd32f30x_timer.c **** }
 3945              		.loc 1 1194 0
 3946 00ba 00BF     		nop
 3947 00bc 0C37     		adds	r7, r7, #12
 3948              	.LCFI278:
 3949              		.cfi_def_cfa_offset 4
 3950 00be BD46     		mov	sp, r7
 3951              	.LCFI279:
 3952              		.cfi_def_cfa_register 13
 3953              		@ sp needed
 3954 00c0 5DF8047B 		ldr	r7, [sp], #4
 3955              	.LCFI280:
 3956              		.cfi_restore 7
 3957              		.cfi_def_cfa_offset 0
 3958 00c4 7047     		bx	lr
 3959              		.cfi_endproc
 3960              	.LFE162:
 3962 00c6 00BF     		.section	.text.timer_channel_output_polarity_config,"ax",%progbits
 3963              		.align	1
 3964              		.global	timer_channel_output_polarity_config
 3965              		.syntax unified
ARM GAS  C:\Users\49542\AppData\Local\Temp\ccx6VnNU.s 			page 91


 3966              		.thumb
 3967              		.thumb_func
 3968              		.fpu fpv4-sp-d16
 3970              	timer_channel_output_polarity_config:
 3971              	.LFB163:
1195:C:/Users/49542/Desktop/GD32F30x_Demo_Suites_V2.0.0/GD32F30x_Demo_Suites_V2.0.0/GD32F30x_Firmware_Library/GD32F30x_standard_peripheral/Source\gd32f30x_timer.c **** 
1196:C:/Users/49542/Desktop/GD32F30x_Demo_Suites_V2.0.0/GD32F30x_Demo_Suites_V2.0.0/GD32F30x_Firmware_Library/GD32F30x_standard_peripheral/Source\gd32f30x_timer.c **** /*!
1197:C:/Users/49542/Desktop/GD32F30x_Demo_Suites_V2.0.0/GD32F30x_Demo_Suites_V2.0.0/GD32F30x_Firmware_Library/GD32F30x_standard_peripheral/Source\gd32f30x_timer.c ****     \brief      configure TIMER channel output polarity 
1198:C:/Users/49542/Desktop/GD32F30x_Demo_Suites_V2.0.0/GD32F30x_Demo_Suites_V2.0.0/GD32F30x_Firmware_Library/GD32F30x_standard_peripheral/Source\gd32f30x_timer.c ****     \param[in]  timer_periph: please refer to the following parameters
1199:C:/Users/49542/Desktop/GD32F30x_Demo_Suites_V2.0.0/GD32F30x_Demo_Suites_V2.0.0/GD32F30x_Firmware_Library/GD32F30x_standard_peripheral/Source\gd32f30x_timer.c ****     \param[in]  channel: 
1200:C:/Users/49542/Desktop/GD32F30x_Demo_Suites_V2.0.0/GD32F30x_Demo_Suites_V2.0.0/GD32F30x_Firmware_Library/GD32F30x_standard_peripheral/Source\gd32f30x_timer.c ****                 only one parameter can be selected which is shown as below:
1201:C:/Users/49542/Desktop/GD32F30x_Demo_Suites_V2.0.0/GD32F30x_Demo_Suites_V2.0.0/GD32F30x_Firmware_Library/GD32F30x_standard_peripheral/Source\gd32f30x_timer.c ****       \arg        TIMER_CH_0: TIMER channel0(TIMERx(x=0..4,7..13))
1202:C:/Users/49542/Desktop/GD32F30x_Demo_Suites_V2.0.0/GD32F30x_Demo_Suites_V2.0.0/GD32F30x_Firmware_Library/GD32F30x_standard_peripheral/Source\gd32f30x_timer.c ****       \arg        TIMER_CH_1: TIMER channel1(TIMERx(x=0..4,7,8,11))
1203:C:/Users/49542/Desktop/GD32F30x_Demo_Suites_V2.0.0/GD32F30x_Demo_Suites_V2.0.0/GD32F30x_Firmware_Library/GD32F30x_standard_peripheral/Source\gd32f30x_timer.c ****       \arg        TIMER_CH_2: TIMER channel2(TIMERx(x=0..4,7))
1204:C:/Users/49542/Desktop/GD32F30x_Demo_Suites_V2.0.0/GD32F30x_Demo_Suites_V2.0.0/GD32F30x_Firmware_Library/GD32F30x_standard_peripheral/Source\gd32f30x_timer.c ****       \arg        TIMER_CH_3: TIMER channel3(TIMERx(x=0..4,7))
1205:C:/Users/49542/Desktop/GD32F30x_Demo_Suites_V2.0.0/GD32F30x_Demo_Suites_V2.0.0/GD32F30x_Firmware_Library/GD32F30x_standard_peripheral/Source\gd32f30x_timer.c ****     \param[in]  ocpolarity: channel output polarity 
1206:C:/Users/49542/Desktop/GD32F30x_Demo_Suites_V2.0.0/GD32F30x_Demo_Suites_V2.0.0/GD32F30x_Firmware_Library/GD32F30x_standard_peripheral/Source\gd32f30x_timer.c ****                 only one parameter can be selected which is shown as below:
1207:C:/Users/49542/Desktop/GD32F30x_Demo_Suites_V2.0.0/GD32F30x_Demo_Suites_V2.0.0/GD32F30x_Firmware_Library/GD32F30x_standard_peripheral/Source\gd32f30x_timer.c ****       \arg        TIMER_OC_POLARITY_HIGH: channel output polarity is high
1208:C:/Users/49542/Desktop/GD32F30x_Demo_Suites_V2.0.0/GD32F30x_Demo_Suites_V2.0.0/GD32F30x_Firmware_Library/GD32F30x_standard_peripheral/Source\gd32f30x_timer.c ****       \arg        TIMER_OC_POLARITY_LOW: channel output polarity is low
1209:C:/Users/49542/Desktop/GD32F30x_Demo_Suites_V2.0.0/GD32F30x_Demo_Suites_V2.0.0/GD32F30x_Firmware_Library/GD32F30x_standard_peripheral/Source\gd32f30x_timer.c ****     \param[out] none
1210:C:/Users/49542/Desktop/GD32F30x_Demo_Suites_V2.0.0/GD32F30x_Demo_Suites_V2.0.0/GD32F30x_Firmware_Library/GD32F30x_standard_peripheral/Source\gd32f30x_timer.c ****     \retval     none
1211:C:/Users/49542/Desktop/GD32F30x_Demo_Suites_V2.0.0/GD32F30x_Demo_Suites_V2.0.0/GD32F30x_Firmware_Library/GD32F30x_standard_peripheral/Source\gd32f30x_timer.c **** */
1212:C:/Users/49542/Desktop/GD32F30x_Demo_Suites_V2.0.0/GD32F30x_Demo_Suites_V2.0.0/GD32F30x_Firmware_Library/GD32F30x_standard_peripheral/Source\gd32f30x_timer.c **** void timer_channel_output_polarity_config(uint32_t timer_periph, uint16_t channel, uint16_t ocpolar
1213:C:/Users/49542/Desktop/GD32F30x_Demo_Suites_V2.0.0/GD32F30x_Demo_Suites_V2.0.0/GD32F30x_Firmware_Library/GD32F30x_standard_peripheral/Source\gd32f30x_timer.c **** {
 3972              		.loc 1 1213 0
 3973              		.cfi_startproc
 3974              		@ args = 0, pretend = 0, frame = 8
 3975              		@ frame_needed = 1, uses_anonymous_args = 0
 3976              		@ link register save eliminated.
 3977 0000 80B4     		push	{r7}
 3978              	.LCFI281:
 3979              		.cfi_def_cfa_offset 4
 3980              		.cfi_offset 7, -4
 3981 0002 83B0     		sub	sp, sp, #12
 3982              	.LCFI282:
 3983              		.cfi_def_cfa_offset 16
 3984 0004 00AF     		add	r7, sp, #0
 3985              	.LCFI283:
 3986              		.cfi_def_cfa_register 7
 3987 0006 7860     		str	r0, [r7, #4]
 3988 0008 0B46     		mov	r3, r1
 3989 000a 7B80     		strh	r3, [r7, #2]	@ movhi
 3990 000c 1346     		mov	r3, r2	@ movhi
 3991 000e 3B80     		strh	r3, [r7]	@ movhi
1214:C:/Users/49542/Desktop/GD32F30x_Demo_Suites_V2.0.0/GD32F30x_Demo_Suites_V2.0.0/GD32F30x_Firmware_Library/GD32F30x_standard_peripheral/Source\gd32f30x_timer.c ****     switch(channel){
 3992              		.loc 1 1214 0
 3993 0010 7B88     		ldrh	r3, [r7, #2]
 3994 0012 032B     		cmp	r3, #3
 3995 0014 51D8     		bhi	.L174
 3996 0016 01A2     		adr	r2, .L169
 3997 0018 52F823F0 		ldr	pc, [r2, r3, lsl #2]
 3998              		.p2align 2
 3999              	.L169:
 4000 001c 2D000000 		.word	.L168+1
 4001 0020 4F000000 		.word	.L170+1
 4002 0024 73000000 		.word	.L171+1
 4003 0028 97000000 		.word	.L172+1
ARM GAS  C:\Users\49542\AppData\Local\Temp\ccx6VnNU.s 			page 92


 4004              		.p2align 1
 4005              	.L168:
1215:C:/Users/49542/Desktop/GD32F30x_Demo_Suites_V2.0.0/GD32F30x_Demo_Suites_V2.0.0/GD32F30x_Firmware_Library/GD32F30x_standard_peripheral/Source\gd32f30x_timer.c ****     /* configure TIMER_CH_0 */
1216:C:/Users/49542/Desktop/GD32F30x_Demo_Suites_V2.0.0/GD32F30x_Demo_Suites_V2.0.0/GD32F30x_Firmware_Library/GD32F30x_standard_peripheral/Source\gd32f30x_timer.c ****     case TIMER_CH_0:
1217:C:/Users/49542/Desktop/GD32F30x_Demo_Suites_V2.0.0/GD32F30x_Demo_Suites_V2.0.0/GD32F30x_Firmware_Library/GD32F30x_standard_peripheral/Source\gd32f30x_timer.c ****         TIMER_CHCTL2(timer_periph) &= (~(uint32_t)TIMER_CHCTL2_CH0P);
 4006              		.loc 1 1217 0
 4007 002c 7B68     		ldr	r3, [r7, #4]
 4008 002e 2033     		adds	r3, r3, #32
 4009 0030 1B68     		ldr	r3, [r3]
 4010 0032 7A68     		ldr	r2, [r7, #4]
 4011 0034 2032     		adds	r2, r2, #32
 4012 0036 23F00203 		bic	r3, r3, #2
 4013 003a 1360     		str	r3, [r2]
1218:C:/Users/49542/Desktop/GD32F30x_Demo_Suites_V2.0.0/GD32F30x_Demo_Suites_V2.0.0/GD32F30x_Firmware_Library/GD32F30x_standard_peripheral/Source\gd32f30x_timer.c ****         TIMER_CHCTL2(timer_periph) |= (uint32_t)ocpolarity;
 4014              		.loc 1 1218 0
 4015 003c 7B68     		ldr	r3, [r7, #4]
 4016 003e 2033     		adds	r3, r3, #32
 4017 0040 1A68     		ldr	r2, [r3]
 4018 0042 3B88     		ldrh	r3, [r7]
 4019 0044 7968     		ldr	r1, [r7, #4]
 4020 0046 2031     		adds	r1, r1, #32
 4021 0048 1343     		orrs	r3, r3, r2
 4022 004a 0B60     		str	r3, [r1]
1219:C:/Users/49542/Desktop/GD32F30x_Demo_Suites_V2.0.0/GD32F30x_Demo_Suites_V2.0.0/GD32F30x_Firmware_Library/GD32F30x_standard_peripheral/Source\gd32f30x_timer.c ****         break;
 4023              		.loc 1 1219 0
 4024 004c 36E0     		b	.L173
 4025              	.L170:
1220:C:/Users/49542/Desktop/GD32F30x_Demo_Suites_V2.0.0/GD32F30x_Demo_Suites_V2.0.0/GD32F30x_Firmware_Library/GD32F30x_standard_peripheral/Source\gd32f30x_timer.c ****     /* configure TIMER_CH_1 */
1221:C:/Users/49542/Desktop/GD32F30x_Demo_Suites_V2.0.0/GD32F30x_Demo_Suites_V2.0.0/GD32F30x_Firmware_Library/GD32F30x_standard_peripheral/Source\gd32f30x_timer.c ****     case TIMER_CH_1:
1222:C:/Users/49542/Desktop/GD32F30x_Demo_Suites_V2.0.0/GD32F30x_Demo_Suites_V2.0.0/GD32F30x_Firmware_Library/GD32F30x_standard_peripheral/Source\gd32f30x_timer.c ****         TIMER_CHCTL2(timer_periph) &= (~(uint32_t)TIMER_CHCTL2_CH1P);
 4026              		.loc 1 1222 0
 4027 004e 7B68     		ldr	r3, [r7, #4]
 4028 0050 2033     		adds	r3, r3, #32
 4029 0052 1B68     		ldr	r3, [r3]
 4030 0054 7A68     		ldr	r2, [r7, #4]
 4031 0056 2032     		adds	r2, r2, #32
 4032 0058 23F02003 		bic	r3, r3, #32
 4033 005c 1360     		str	r3, [r2]
1223:C:/Users/49542/Desktop/GD32F30x_Demo_Suites_V2.0.0/GD32F30x_Demo_Suites_V2.0.0/GD32F30x_Firmware_Library/GD32F30x_standard_peripheral/Source\gd32f30x_timer.c ****         TIMER_CHCTL2(timer_periph) |= (uint32_t)((uint32_t)ocpolarity << 4U);
 4034              		.loc 1 1223 0
 4035 005e 7B68     		ldr	r3, [r7, #4]
 4036 0060 2033     		adds	r3, r3, #32
 4037 0062 1A68     		ldr	r2, [r3]
 4038 0064 3B88     		ldrh	r3, [r7]
 4039 0066 1B01     		lsls	r3, r3, #4
 4040 0068 7968     		ldr	r1, [r7, #4]
 4041 006a 2031     		adds	r1, r1, #32
 4042 006c 1343     		orrs	r3, r3, r2
 4043 006e 0B60     		str	r3, [r1]
1224:C:/Users/49542/Desktop/GD32F30x_Demo_Suites_V2.0.0/GD32F30x_Demo_Suites_V2.0.0/GD32F30x_Firmware_Library/GD32F30x_standard_peripheral/Source\gd32f30x_timer.c ****         break;
 4044              		.loc 1 1224 0
 4045 0070 24E0     		b	.L173
 4046              	.L171:
1225:C:/Users/49542/Desktop/GD32F30x_Demo_Suites_V2.0.0/GD32F30x_Demo_Suites_V2.0.0/GD32F30x_Firmware_Library/GD32F30x_standard_peripheral/Source\gd32f30x_timer.c ****     /* configure TIMER_CH_2 */
1226:C:/Users/49542/Desktop/GD32F30x_Demo_Suites_V2.0.0/GD32F30x_Demo_Suites_V2.0.0/GD32F30x_Firmware_Library/GD32F30x_standard_peripheral/Source\gd32f30x_timer.c ****     case TIMER_CH_2:
1227:C:/Users/49542/Desktop/GD32F30x_Demo_Suites_V2.0.0/GD32F30x_Demo_Suites_V2.0.0/GD32F30x_Firmware_Library/GD32F30x_standard_peripheral/Source\gd32f30x_timer.c ****         TIMER_CHCTL2(timer_periph) &= (~(uint32_t)TIMER_CHCTL2_CH2P);
 4047              		.loc 1 1227 0
ARM GAS  C:\Users\49542\AppData\Local\Temp\ccx6VnNU.s 			page 93


 4048 0072 7B68     		ldr	r3, [r7, #4]
 4049 0074 2033     		adds	r3, r3, #32
 4050 0076 1B68     		ldr	r3, [r3]
 4051 0078 7A68     		ldr	r2, [r7, #4]
 4052 007a 2032     		adds	r2, r2, #32
 4053 007c 23F40073 		bic	r3, r3, #512
 4054 0080 1360     		str	r3, [r2]
1228:C:/Users/49542/Desktop/GD32F30x_Demo_Suites_V2.0.0/GD32F30x_Demo_Suites_V2.0.0/GD32F30x_Firmware_Library/GD32F30x_standard_peripheral/Source\gd32f30x_timer.c ****         TIMER_CHCTL2(timer_periph) |= (uint32_t)((uint32_t)ocpolarity << 8U);
 4055              		.loc 1 1228 0
 4056 0082 7B68     		ldr	r3, [r7, #4]
 4057 0084 2033     		adds	r3, r3, #32
 4058 0086 1A68     		ldr	r2, [r3]
 4059 0088 3B88     		ldrh	r3, [r7]
 4060 008a 1B02     		lsls	r3, r3, #8
 4061 008c 7968     		ldr	r1, [r7, #4]
 4062 008e 2031     		adds	r1, r1, #32
 4063 0090 1343     		orrs	r3, r3, r2
 4064 0092 0B60     		str	r3, [r1]
1229:C:/Users/49542/Desktop/GD32F30x_Demo_Suites_V2.0.0/GD32F30x_Demo_Suites_V2.0.0/GD32F30x_Firmware_Library/GD32F30x_standard_peripheral/Source\gd32f30x_timer.c ****         break;
 4065              		.loc 1 1229 0
 4066 0094 12E0     		b	.L173
 4067              	.L172:
1230:C:/Users/49542/Desktop/GD32F30x_Demo_Suites_V2.0.0/GD32F30x_Demo_Suites_V2.0.0/GD32F30x_Firmware_Library/GD32F30x_standard_peripheral/Source\gd32f30x_timer.c ****     /* configure TIMER_CH_3 */
1231:C:/Users/49542/Desktop/GD32F30x_Demo_Suites_V2.0.0/GD32F30x_Demo_Suites_V2.0.0/GD32F30x_Firmware_Library/GD32F30x_standard_peripheral/Source\gd32f30x_timer.c ****     case TIMER_CH_3:
1232:C:/Users/49542/Desktop/GD32F30x_Demo_Suites_V2.0.0/GD32F30x_Demo_Suites_V2.0.0/GD32F30x_Firmware_Library/GD32F30x_standard_peripheral/Source\gd32f30x_timer.c ****         TIMER_CHCTL2(timer_periph) &= (~(uint32_t)TIMER_CHCTL2_CH3P);
 4068              		.loc 1 1232 0
 4069 0096 7B68     		ldr	r3, [r7, #4]
 4070 0098 2033     		adds	r3, r3, #32
 4071 009a 1B68     		ldr	r3, [r3]
 4072 009c 7A68     		ldr	r2, [r7, #4]
 4073 009e 2032     		adds	r2, r2, #32
 4074 00a0 23F40053 		bic	r3, r3, #8192
 4075 00a4 1360     		str	r3, [r2]
1233:C:/Users/49542/Desktop/GD32F30x_Demo_Suites_V2.0.0/GD32F30x_Demo_Suites_V2.0.0/GD32F30x_Firmware_Library/GD32F30x_standard_peripheral/Source\gd32f30x_timer.c ****         TIMER_CHCTL2(timer_periph) |= (uint32_t)((uint32_t)ocpolarity << 12U);
 4076              		.loc 1 1233 0
 4077 00a6 7B68     		ldr	r3, [r7, #4]
 4078 00a8 2033     		adds	r3, r3, #32
 4079 00aa 1A68     		ldr	r2, [r3]
 4080 00ac 3B88     		ldrh	r3, [r7]
 4081 00ae 1B03     		lsls	r3, r3, #12
 4082 00b0 7968     		ldr	r1, [r7, #4]
 4083 00b2 2031     		adds	r1, r1, #32
 4084 00b4 1343     		orrs	r3, r3, r2
 4085 00b6 0B60     		str	r3, [r1]
1234:C:/Users/49542/Desktop/GD32F30x_Demo_Suites_V2.0.0/GD32F30x_Demo_Suites_V2.0.0/GD32F30x_Firmware_Library/GD32F30x_standard_peripheral/Source\gd32f30x_timer.c ****         break;
 4086              		.loc 1 1234 0
 4087 00b8 00E0     		b	.L173
 4088              	.L174:
1235:C:/Users/49542/Desktop/GD32F30x_Demo_Suites_V2.0.0/GD32F30x_Demo_Suites_V2.0.0/GD32F30x_Firmware_Library/GD32F30x_standard_peripheral/Source\gd32f30x_timer.c ****     default:
1236:C:/Users/49542/Desktop/GD32F30x_Demo_Suites_V2.0.0/GD32F30x_Demo_Suites_V2.0.0/GD32F30x_Firmware_Library/GD32F30x_standard_peripheral/Source\gd32f30x_timer.c ****         break;
 4089              		.loc 1 1236 0
 4090 00ba 00BF     		nop
 4091              	.L173:
1237:C:/Users/49542/Desktop/GD32F30x_Demo_Suites_V2.0.0/GD32F30x_Demo_Suites_V2.0.0/GD32F30x_Firmware_Library/GD32F30x_standard_peripheral/Source\gd32f30x_timer.c ****     }
1238:C:/Users/49542/Desktop/GD32F30x_Demo_Suites_V2.0.0/GD32F30x_Demo_Suites_V2.0.0/GD32F30x_Firmware_Library/GD32F30x_standard_peripheral/Source\gd32f30x_timer.c **** }
 4092              		.loc 1 1238 0
 4093 00bc 00BF     		nop
ARM GAS  C:\Users\49542\AppData\Local\Temp\ccx6VnNU.s 			page 94


 4094 00be 0C37     		adds	r7, r7, #12
 4095              	.LCFI284:
 4096              		.cfi_def_cfa_offset 4
 4097 00c0 BD46     		mov	sp, r7
 4098              	.LCFI285:
 4099              		.cfi_def_cfa_register 13
 4100              		@ sp needed
 4101 00c2 5DF8047B 		ldr	r7, [sp], #4
 4102              	.LCFI286:
 4103              		.cfi_restore 7
 4104              		.cfi_def_cfa_offset 0
 4105 00c6 7047     		bx	lr
 4106              		.cfi_endproc
 4107              	.LFE163:
 4109              		.section	.text.timer_channel_complementary_output_polarity_config,"ax",%progbits
 4110              		.align	1
 4111              		.global	timer_channel_complementary_output_polarity_config
 4112              		.syntax unified
 4113              		.thumb
 4114              		.thumb_func
 4115              		.fpu fpv4-sp-d16
 4117              	timer_channel_complementary_output_polarity_config:
 4118              	.LFB164:
1239:C:/Users/49542/Desktop/GD32F30x_Demo_Suites_V2.0.0/GD32F30x_Demo_Suites_V2.0.0/GD32F30x_Firmware_Library/GD32F30x_standard_peripheral/Source\gd32f30x_timer.c **** 
1240:C:/Users/49542/Desktop/GD32F30x_Demo_Suites_V2.0.0/GD32F30x_Demo_Suites_V2.0.0/GD32F30x_Firmware_Library/GD32F30x_standard_peripheral/Source\gd32f30x_timer.c **** /*!
1241:C:/Users/49542/Desktop/GD32F30x_Demo_Suites_V2.0.0/GD32F30x_Demo_Suites_V2.0.0/GD32F30x_Firmware_Library/GD32F30x_standard_peripheral/Source\gd32f30x_timer.c ****     \brief      configure TIMER channel complementary output polarity 
1242:C:/Users/49542/Desktop/GD32F30x_Demo_Suites_V2.0.0/GD32F30x_Demo_Suites_V2.0.0/GD32F30x_Firmware_Library/GD32F30x_standard_peripheral/Source\gd32f30x_timer.c ****     \param[in]  timer_periph: please refer to the following parameters
1243:C:/Users/49542/Desktop/GD32F30x_Demo_Suites_V2.0.0/GD32F30x_Demo_Suites_V2.0.0/GD32F30x_Firmware_Library/GD32F30x_standard_peripheral/Source\gd32f30x_timer.c ****     \param[in]  channel:
1244:C:/Users/49542/Desktop/GD32F30x_Demo_Suites_V2.0.0/GD32F30x_Demo_Suites_V2.0.0/GD32F30x_Firmware_Library/GD32F30x_standard_peripheral/Source\gd32f30x_timer.c ****                 only one parameter can be selected which is shown as below:
1245:C:/Users/49542/Desktop/GD32F30x_Demo_Suites_V2.0.0/GD32F30x_Demo_Suites_V2.0.0/GD32F30x_Firmware_Library/GD32F30x_standard_peripheral/Source\gd32f30x_timer.c ****       \arg        TIMER_CH_0: TIMER channel0(TIMERx(x=0,7..13))
1246:C:/Users/49542/Desktop/GD32F30x_Demo_Suites_V2.0.0/GD32F30x_Demo_Suites_V2.0.0/GD32F30x_Firmware_Library/GD32F30x_standard_peripheral/Source\gd32f30x_timer.c ****       \arg        TIMER_CH_1: TIMER channel1(TIMERx(x=0,7,8,11))
1247:C:/Users/49542/Desktop/GD32F30x_Demo_Suites_V2.0.0/GD32F30x_Demo_Suites_V2.0.0/GD32F30x_Firmware_Library/GD32F30x_standard_peripheral/Source\gd32f30x_timer.c ****       \arg        TIMER_CH_2: TIMER channel2(TIMERx(x=0,7))
1248:C:/Users/49542/Desktop/GD32F30x_Demo_Suites_V2.0.0/GD32F30x_Demo_Suites_V2.0.0/GD32F30x_Firmware_Library/GD32F30x_standard_peripheral/Source\gd32f30x_timer.c ****     \param[in]  ocnpolarity: channel complementary output polarity 
1249:C:/Users/49542/Desktop/GD32F30x_Demo_Suites_V2.0.0/GD32F30x_Demo_Suites_V2.0.0/GD32F30x_Firmware_Library/GD32F30x_standard_peripheral/Source\gd32f30x_timer.c ****                 only one parameter can be selected which is shown as below:
1250:C:/Users/49542/Desktop/GD32F30x_Demo_Suites_V2.0.0/GD32F30x_Demo_Suites_V2.0.0/GD32F30x_Firmware_Library/GD32F30x_standard_peripheral/Source\gd32f30x_timer.c ****       \arg        TIMER_OCN_POLARITY_HIGH: channel complementary output polarity is high
1251:C:/Users/49542/Desktop/GD32F30x_Demo_Suites_V2.0.0/GD32F30x_Demo_Suites_V2.0.0/GD32F30x_Firmware_Library/GD32F30x_standard_peripheral/Source\gd32f30x_timer.c ****       \arg        TIMER_OCN_POLARITY_LOW: channel complementary output polarity is low
1252:C:/Users/49542/Desktop/GD32F30x_Demo_Suites_V2.0.0/GD32F30x_Demo_Suites_V2.0.0/GD32F30x_Firmware_Library/GD32F30x_standard_peripheral/Source\gd32f30x_timer.c ****     \param[out] none
1253:C:/Users/49542/Desktop/GD32F30x_Demo_Suites_V2.0.0/GD32F30x_Demo_Suites_V2.0.0/GD32F30x_Firmware_Library/GD32F30x_standard_peripheral/Source\gd32f30x_timer.c ****     \retval     none
1254:C:/Users/49542/Desktop/GD32F30x_Demo_Suites_V2.0.0/GD32F30x_Demo_Suites_V2.0.0/GD32F30x_Firmware_Library/GD32F30x_standard_peripheral/Source\gd32f30x_timer.c **** */
1255:C:/Users/49542/Desktop/GD32F30x_Demo_Suites_V2.0.0/GD32F30x_Demo_Suites_V2.0.0/GD32F30x_Firmware_Library/GD32F30x_standard_peripheral/Source\gd32f30x_timer.c **** void timer_channel_complementary_output_polarity_config(uint32_t timer_periph, uint16_t channel, ui
1256:C:/Users/49542/Desktop/GD32F30x_Demo_Suites_V2.0.0/GD32F30x_Demo_Suites_V2.0.0/GD32F30x_Firmware_Library/GD32F30x_standard_peripheral/Source\gd32f30x_timer.c **** {
 4119              		.loc 1 1256 0
 4120              		.cfi_startproc
 4121              		@ args = 0, pretend = 0, frame = 8
 4122              		@ frame_needed = 1, uses_anonymous_args = 0
 4123              		@ link register save eliminated.
 4124 0000 80B4     		push	{r7}
 4125              	.LCFI287:
 4126              		.cfi_def_cfa_offset 4
 4127              		.cfi_offset 7, -4
 4128 0002 83B0     		sub	sp, sp, #12
 4129              	.LCFI288:
 4130              		.cfi_def_cfa_offset 16
 4131 0004 00AF     		add	r7, sp, #0
 4132              	.LCFI289:
 4133              		.cfi_def_cfa_register 7
 4134 0006 7860     		str	r0, [r7, #4]
ARM GAS  C:\Users\49542\AppData\Local\Temp\ccx6VnNU.s 			page 95


 4135 0008 0B46     		mov	r3, r1
 4136 000a 7B80     		strh	r3, [r7, #2]	@ movhi
 4137 000c 1346     		mov	r3, r2	@ movhi
 4138 000e 3B80     		strh	r3, [r7]	@ movhi
1257:C:/Users/49542/Desktop/GD32F30x_Demo_Suites_V2.0.0/GD32F30x_Demo_Suites_V2.0.0/GD32F30x_Firmware_Library/GD32F30x_standard_peripheral/Source\gd32f30x_timer.c ****     switch(channel){
 4139              		.loc 1 1257 0
 4140 0010 7B88     		ldrh	r3, [r7, #2]
 4141 0012 012B     		cmp	r3, #1
 4142 0014 15D0     		beq	.L177
 4143 0016 022B     		cmp	r3, #2
 4144 0018 25D0     		beq	.L178
 4145 001a 002B     		cmp	r3, #0
 4146 001c 00D0     		beq	.L179
1258:C:/Users/49542/Desktop/GD32F30x_Demo_Suites_V2.0.0/GD32F30x_Demo_Suites_V2.0.0/GD32F30x_Firmware_Library/GD32F30x_standard_peripheral/Source\gd32f30x_timer.c ****     /* configure TIMER_CH_0 */
1259:C:/Users/49542/Desktop/GD32F30x_Demo_Suites_V2.0.0/GD32F30x_Demo_Suites_V2.0.0/GD32F30x_Firmware_Library/GD32F30x_standard_peripheral/Source\gd32f30x_timer.c ****     case TIMER_CH_0:
1260:C:/Users/49542/Desktop/GD32F30x_Demo_Suites_V2.0.0/GD32F30x_Demo_Suites_V2.0.0/GD32F30x_Firmware_Library/GD32F30x_standard_peripheral/Source\gd32f30x_timer.c ****         TIMER_CHCTL2(timer_periph) &= (~(uint32_t)TIMER_CHCTL2_CH0NP);
1261:C:/Users/49542/Desktop/GD32F30x_Demo_Suites_V2.0.0/GD32F30x_Demo_Suites_V2.0.0/GD32F30x_Firmware_Library/GD32F30x_standard_peripheral/Source\gd32f30x_timer.c ****         TIMER_CHCTL2(timer_periph) |= (uint32_t)ocnpolarity;
1262:C:/Users/49542/Desktop/GD32F30x_Demo_Suites_V2.0.0/GD32F30x_Demo_Suites_V2.0.0/GD32F30x_Firmware_Library/GD32F30x_standard_peripheral/Source\gd32f30x_timer.c ****         break;
1263:C:/Users/49542/Desktop/GD32F30x_Demo_Suites_V2.0.0/GD32F30x_Demo_Suites_V2.0.0/GD32F30x_Firmware_Library/GD32F30x_standard_peripheral/Source\gd32f30x_timer.c ****     /* configure TIMER_CH_1 */
1264:C:/Users/49542/Desktop/GD32F30x_Demo_Suites_V2.0.0/GD32F30x_Demo_Suites_V2.0.0/GD32F30x_Firmware_Library/GD32F30x_standard_peripheral/Source\gd32f30x_timer.c ****     case TIMER_CH_1:
1265:C:/Users/49542/Desktop/GD32F30x_Demo_Suites_V2.0.0/GD32F30x_Demo_Suites_V2.0.0/GD32F30x_Firmware_Library/GD32F30x_standard_peripheral/Source\gd32f30x_timer.c ****         TIMER_CHCTL2(timer_periph) &= (~(uint32_t)TIMER_CHCTL2_CH1NP);
1266:C:/Users/49542/Desktop/GD32F30x_Demo_Suites_V2.0.0/GD32F30x_Demo_Suites_V2.0.0/GD32F30x_Firmware_Library/GD32F30x_standard_peripheral/Source\gd32f30x_timer.c ****         TIMER_CHCTL2(timer_periph) |= (uint32_t)((uint32_t)ocnpolarity << 4U);
1267:C:/Users/49542/Desktop/GD32F30x_Demo_Suites_V2.0.0/GD32F30x_Demo_Suites_V2.0.0/GD32F30x_Firmware_Library/GD32F30x_standard_peripheral/Source\gd32f30x_timer.c ****         break;
1268:C:/Users/49542/Desktop/GD32F30x_Demo_Suites_V2.0.0/GD32F30x_Demo_Suites_V2.0.0/GD32F30x_Firmware_Library/GD32F30x_standard_peripheral/Source\gd32f30x_timer.c ****     /* configure TIMER_CH_2 */
1269:C:/Users/49542/Desktop/GD32F30x_Demo_Suites_V2.0.0/GD32F30x_Demo_Suites_V2.0.0/GD32F30x_Firmware_Library/GD32F30x_standard_peripheral/Source\gd32f30x_timer.c ****     case TIMER_CH_2:
1270:C:/Users/49542/Desktop/GD32F30x_Demo_Suites_V2.0.0/GD32F30x_Demo_Suites_V2.0.0/GD32F30x_Firmware_Library/GD32F30x_standard_peripheral/Source\gd32f30x_timer.c ****         TIMER_CHCTL2(timer_periph) &= (~(uint32_t)TIMER_CHCTL2_CH2NP);
1271:C:/Users/49542/Desktop/GD32F30x_Demo_Suites_V2.0.0/GD32F30x_Demo_Suites_V2.0.0/GD32F30x_Firmware_Library/GD32F30x_standard_peripheral/Source\gd32f30x_timer.c ****         TIMER_CHCTL2(timer_periph) |= (uint32_t)((uint32_t)ocnpolarity << 8U);
1272:C:/Users/49542/Desktop/GD32F30x_Demo_Suites_V2.0.0/GD32F30x_Demo_Suites_V2.0.0/GD32F30x_Firmware_Library/GD32F30x_standard_peripheral/Source\gd32f30x_timer.c ****         break;
1273:C:/Users/49542/Desktop/GD32F30x_Demo_Suites_V2.0.0/GD32F30x_Demo_Suites_V2.0.0/GD32F30x_Firmware_Library/GD32F30x_standard_peripheral/Source\gd32f30x_timer.c ****     default:
1274:C:/Users/49542/Desktop/GD32F30x_Demo_Suites_V2.0.0/GD32F30x_Demo_Suites_V2.0.0/GD32F30x_Firmware_Library/GD32F30x_standard_peripheral/Source\gd32f30x_timer.c ****         break;
 4147              		.loc 1 1274 0
 4148 001e 34E0     		b	.L180
 4149              	.L179:
1260:C:/Users/49542/Desktop/GD32F30x_Demo_Suites_V2.0.0/GD32F30x_Demo_Suites_V2.0.0/GD32F30x_Firmware_Library/GD32F30x_standard_peripheral/Source\gd32f30x_timer.c ****         TIMER_CHCTL2(timer_periph) |= (uint32_t)ocnpolarity;
 4150              		.loc 1 1260 0
 4151 0020 7B68     		ldr	r3, [r7, #4]
 4152 0022 2033     		adds	r3, r3, #32
 4153 0024 1B68     		ldr	r3, [r3]
 4154 0026 7A68     		ldr	r2, [r7, #4]
 4155 0028 2032     		adds	r2, r2, #32
 4156 002a 23F00803 		bic	r3, r3, #8
 4157 002e 1360     		str	r3, [r2]
1261:C:/Users/49542/Desktop/GD32F30x_Demo_Suites_V2.0.0/GD32F30x_Demo_Suites_V2.0.0/GD32F30x_Firmware_Library/GD32F30x_standard_peripheral/Source\gd32f30x_timer.c ****         break;
 4158              		.loc 1 1261 0
 4159 0030 7B68     		ldr	r3, [r7, #4]
 4160 0032 2033     		adds	r3, r3, #32
 4161 0034 1A68     		ldr	r2, [r3]
 4162 0036 3B88     		ldrh	r3, [r7]
 4163 0038 7968     		ldr	r1, [r7, #4]
 4164 003a 2031     		adds	r1, r1, #32
 4165 003c 1343     		orrs	r3, r3, r2
 4166 003e 0B60     		str	r3, [r1]
1262:C:/Users/49542/Desktop/GD32F30x_Demo_Suites_V2.0.0/GD32F30x_Demo_Suites_V2.0.0/GD32F30x_Firmware_Library/GD32F30x_standard_peripheral/Source\gd32f30x_timer.c ****     /* configure TIMER_CH_1 */
 4167              		.loc 1 1262 0
 4168 0040 23E0     		b	.L180
 4169              	.L177:
1265:C:/Users/49542/Desktop/GD32F30x_Demo_Suites_V2.0.0/GD32F30x_Demo_Suites_V2.0.0/GD32F30x_Firmware_Library/GD32F30x_standard_peripheral/Source\gd32f30x_timer.c ****         TIMER_CHCTL2(timer_periph) |= (uint32_t)((uint32_t)ocnpolarity << 4U);
ARM GAS  C:\Users\49542\AppData\Local\Temp\ccx6VnNU.s 			page 96


 4170              		.loc 1 1265 0
 4171 0042 7B68     		ldr	r3, [r7, #4]
 4172 0044 2033     		adds	r3, r3, #32
 4173 0046 1B68     		ldr	r3, [r3]
 4174 0048 7A68     		ldr	r2, [r7, #4]
 4175 004a 2032     		adds	r2, r2, #32
 4176 004c 23F08003 		bic	r3, r3, #128
 4177 0050 1360     		str	r3, [r2]
1266:C:/Users/49542/Desktop/GD32F30x_Demo_Suites_V2.0.0/GD32F30x_Demo_Suites_V2.0.0/GD32F30x_Firmware_Library/GD32F30x_standard_peripheral/Source\gd32f30x_timer.c ****         break;
 4178              		.loc 1 1266 0
 4179 0052 7B68     		ldr	r3, [r7, #4]
 4180 0054 2033     		adds	r3, r3, #32
 4181 0056 1A68     		ldr	r2, [r3]
 4182 0058 3B88     		ldrh	r3, [r7]
 4183 005a 1B01     		lsls	r3, r3, #4
 4184 005c 7968     		ldr	r1, [r7, #4]
 4185 005e 2031     		adds	r1, r1, #32
 4186 0060 1343     		orrs	r3, r3, r2
 4187 0062 0B60     		str	r3, [r1]
1267:C:/Users/49542/Desktop/GD32F30x_Demo_Suites_V2.0.0/GD32F30x_Demo_Suites_V2.0.0/GD32F30x_Firmware_Library/GD32F30x_standard_peripheral/Source\gd32f30x_timer.c ****     /* configure TIMER_CH_2 */
 4188              		.loc 1 1267 0
 4189 0064 11E0     		b	.L180
 4190              	.L178:
1270:C:/Users/49542/Desktop/GD32F30x_Demo_Suites_V2.0.0/GD32F30x_Demo_Suites_V2.0.0/GD32F30x_Firmware_Library/GD32F30x_standard_peripheral/Source\gd32f30x_timer.c ****         TIMER_CHCTL2(timer_periph) |= (uint32_t)((uint32_t)ocnpolarity << 8U);
 4191              		.loc 1 1270 0
 4192 0066 7B68     		ldr	r3, [r7, #4]
 4193 0068 2033     		adds	r3, r3, #32
 4194 006a 1B68     		ldr	r3, [r3]
 4195 006c 7A68     		ldr	r2, [r7, #4]
 4196 006e 2032     		adds	r2, r2, #32
 4197 0070 23F40063 		bic	r3, r3, #2048
 4198 0074 1360     		str	r3, [r2]
1271:C:/Users/49542/Desktop/GD32F30x_Demo_Suites_V2.0.0/GD32F30x_Demo_Suites_V2.0.0/GD32F30x_Firmware_Library/GD32F30x_standard_peripheral/Source\gd32f30x_timer.c ****         break;
 4199              		.loc 1 1271 0
 4200 0076 7B68     		ldr	r3, [r7, #4]
 4201 0078 2033     		adds	r3, r3, #32
 4202 007a 1A68     		ldr	r2, [r3]
 4203 007c 3B88     		ldrh	r3, [r7]
 4204 007e 1B02     		lsls	r3, r3, #8
 4205 0080 7968     		ldr	r1, [r7, #4]
 4206 0082 2031     		adds	r1, r1, #32
 4207 0084 1343     		orrs	r3, r3, r2
 4208 0086 0B60     		str	r3, [r1]
1272:C:/Users/49542/Desktop/GD32F30x_Demo_Suites_V2.0.0/GD32F30x_Demo_Suites_V2.0.0/GD32F30x_Firmware_Library/GD32F30x_standard_peripheral/Source\gd32f30x_timer.c ****     default:
 4209              		.loc 1 1272 0
 4210 0088 00BF     		nop
 4211              	.L180:
1275:C:/Users/49542/Desktop/GD32F30x_Demo_Suites_V2.0.0/GD32F30x_Demo_Suites_V2.0.0/GD32F30x_Firmware_Library/GD32F30x_standard_peripheral/Source\gd32f30x_timer.c ****     }
1276:C:/Users/49542/Desktop/GD32F30x_Demo_Suites_V2.0.0/GD32F30x_Demo_Suites_V2.0.0/GD32F30x_Firmware_Library/GD32F30x_standard_peripheral/Source\gd32f30x_timer.c **** }
 4212              		.loc 1 1276 0
 4213 008a 00BF     		nop
 4214 008c 0C37     		adds	r7, r7, #12
 4215              	.LCFI290:
 4216              		.cfi_def_cfa_offset 4
 4217 008e BD46     		mov	sp, r7
 4218              	.LCFI291:
 4219              		.cfi_def_cfa_register 13
ARM GAS  C:\Users\49542\AppData\Local\Temp\ccx6VnNU.s 			page 97


 4220              		@ sp needed
 4221 0090 5DF8047B 		ldr	r7, [sp], #4
 4222              	.LCFI292:
 4223              		.cfi_restore 7
 4224              		.cfi_def_cfa_offset 0
 4225 0094 7047     		bx	lr
 4226              		.cfi_endproc
 4227              	.LFE164:
 4229              		.section	.text.timer_channel_output_state_config,"ax",%progbits
 4230              		.align	1
 4231              		.global	timer_channel_output_state_config
 4232              		.syntax unified
 4233              		.thumb
 4234              		.thumb_func
 4235              		.fpu fpv4-sp-d16
 4237              	timer_channel_output_state_config:
 4238              	.LFB165:
1277:C:/Users/49542/Desktop/GD32F30x_Demo_Suites_V2.0.0/GD32F30x_Demo_Suites_V2.0.0/GD32F30x_Firmware_Library/GD32F30x_standard_peripheral/Source\gd32f30x_timer.c **** 
1278:C:/Users/49542/Desktop/GD32F30x_Demo_Suites_V2.0.0/GD32F30x_Demo_Suites_V2.0.0/GD32F30x_Firmware_Library/GD32F30x_standard_peripheral/Source\gd32f30x_timer.c **** /*!
1279:C:/Users/49542/Desktop/GD32F30x_Demo_Suites_V2.0.0/GD32F30x_Demo_Suites_V2.0.0/GD32F30x_Firmware_Library/GD32F30x_standard_peripheral/Source\gd32f30x_timer.c ****     \brief      configure TIMER channel enable state
1280:C:/Users/49542/Desktop/GD32F30x_Demo_Suites_V2.0.0/GD32F30x_Demo_Suites_V2.0.0/GD32F30x_Firmware_Library/GD32F30x_standard_peripheral/Source\gd32f30x_timer.c ****     \param[in]  timer_periph: please refer to the following parameters
1281:C:/Users/49542/Desktop/GD32F30x_Demo_Suites_V2.0.0/GD32F30x_Demo_Suites_V2.0.0/GD32F30x_Firmware_Library/GD32F30x_standard_peripheral/Source\gd32f30x_timer.c ****     \param[in]  channel: 
1282:C:/Users/49542/Desktop/GD32F30x_Demo_Suites_V2.0.0/GD32F30x_Demo_Suites_V2.0.0/GD32F30x_Firmware_Library/GD32F30x_standard_peripheral/Source\gd32f30x_timer.c ****                 only one parameter can be selected which is shown as below:
1283:C:/Users/49542/Desktop/GD32F30x_Demo_Suites_V2.0.0/GD32F30x_Demo_Suites_V2.0.0/GD32F30x_Firmware_Library/GD32F30x_standard_peripheral/Source\gd32f30x_timer.c ****       \arg        TIMER_CH_0: TIMER channel0(TIMERx(x=0..4,7..13))
1284:C:/Users/49542/Desktop/GD32F30x_Demo_Suites_V2.0.0/GD32F30x_Demo_Suites_V2.0.0/GD32F30x_Firmware_Library/GD32F30x_standard_peripheral/Source\gd32f30x_timer.c ****       \arg        TIMER_CH_1: TIMER channel1(TIMERx(x=0..4,7,8,11))
1285:C:/Users/49542/Desktop/GD32F30x_Demo_Suites_V2.0.0/GD32F30x_Demo_Suites_V2.0.0/GD32F30x_Firmware_Library/GD32F30x_standard_peripheral/Source\gd32f30x_timer.c ****       \arg        TIMER_CH_2: TIMER channel2(TIMERx(x=0..4,7))
1286:C:/Users/49542/Desktop/GD32F30x_Demo_Suites_V2.0.0/GD32F30x_Demo_Suites_V2.0.0/GD32F30x_Firmware_Library/GD32F30x_standard_peripheral/Source\gd32f30x_timer.c ****       \arg        TIMER_CH_3: TIMER channel3(TIMERx(x=0..4,7))
1287:C:/Users/49542/Desktop/GD32F30x_Demo_Suites_V2.0.0/GD32F30x_Demo_Suites_V2.0.0/GD32F30x_Firmware_Library/GD32F30x_standard_peripheral/Source\gd32f30x_timer.c ****     \param[in]  state: TIMER channel enable state
1288:C:/Users/49542/Desktop/GD32F30x_Demo_Suites_V2.0.0/GD32F30x_Demo_Suites_V2.0.0/GD32F30x_Firmware_Library/GD32F30x_standard_peripheral/Source\gd32f30x_timer.c ****                 only one parameter can be selected which is shown as below:
1289:C:/Users/49542/Desktop/GD32F30x_Demo_Suites_V2.0.0/GD32F30x_Demo_Suites_V2.0.0/GD32F30x_Firmware_Library/GD32F30x_standard_peripheral/Source\gd32f30x_timer.c ****       \arg        TIMER_CCX_ENABLE: channel enable 
1290:C:/Users/49542/Desktop/GD32F30x_Demo_Suites_V2.0.0/GD32F30x_Demo_Suites_V2.0.0/GD32F30x_Firmware_Library/GD32F30x_standard_peripheral/Source\gd32f30x_timer.c ****       \arg        TIMER_CCX_DISABLE: channel disable 
1291:C:/Users/49542/Desktop/GD32F30x_Demo_Suites_V2.0.0/GD32F30x_Demo_Suites_V2.0.0/GD32F30x_Firmware_Library/GD32F30x_standard_peripheral/Source\gd32f30x_timer.c ****     \param[out] none
1292:C:/Users/49542/Desktop/GD32F30x_Demo_Suites_V2.0.0/GD32F30x_Demo_Suites_V2.0.0/GD32F30x_Firmware_Library/GD32F30x_standard_peripheral/Source\gd32f30x_timer.c ****     \retval     none
1293:C:/Users/49542/Desktop/GD32F30x_Demo_Suites_V2.0.0/GD32F30x_Demo_Suites_V2.0.0/GD32F30x_Firmware_Library/GD32F30x_standard_peripheral/Source\gd32f30x_timer.c **** */
1294:C:/Users/49542/Desktop/GD32F30x_Demo_Suites_V2.0.0/GD32F30x_Demo_Suites_V2.0.0/GD32F30x_Firmware_Library/GD32F30x_standard_peripheral/Source\gd32f30x_timer.c **** void timer_channel_output_state_config(uint32_t timer_periph, uint16_t channel, uint32_t state)
1295:C:/Users/49542/Desktop/GD32F30x_Demo_Suites_V2.0.0/GD32F30x_Demo_Suites_V2.0.0/GD32F30x_Firmware_Library/GD32F30x_standard_peripheral/Source\gd32f30x_timer.c **** {
 4239              		.loc 1 1295 0
 4240              		.cfi_startproc
 4241              		@ args = 0, pretend = 0, frame = 16
 4242              		@ frame_needed = 1, uses_anonymous_args = 0
 4243              		@ link register save eliminated.
 4244 0000 80B4     		push	{r7}
 4245              	.LCFI293:
 4246              		.cfi_def_cfa_offset 4
 4247              		.cfi_offset 7, -4
 4248 0002 85B0     		sub	sp, sp, #20
 4249              	.LCFI294:
 4250              		.cfi_def_cfa_offset 24
 4251 0004 00AF     		add	r7, sp, #0
 4252              	.LCFI295:
 4253              		.cfi_def_cfa_register 7
 4254 0006 F860     		str	r0, [r7, #12]
 4255 0008 0B46     		mov	r3, r1
 4256 000a 7A60     		str	r2, [r7, #4]
 4257 000c 7B81     		strh	r3, [r7, #10]	@ movhi
1296:C:/Users/49542/Desktop/GD32F30x_Demo_Suites_V2.0.0/GD32F30x_Demo_Suites_V2.0.0/GD32F30x_Firmware_Library/GD32F30x_standard_peripheral/Source\gd32f30x_timer.c ****     switch(channel){
 4258              		.loc 1 1296 0
ARM GAS  C:\Users\49542\AppData\Local\Temp\ccx6VnNU.s 			page 98


 4259 000e 7B89     		ldrh	r3, [r7, #10]
 4260 0010 032B     		cmp	r3, #3
 4261 0012 53D8     		bhi	.L189
 4262 0014 01A2     		adr	r2, .L184
 4263 0016 52F823F0 		ldr	pc, [r2, r3, lsl #2]
 4264 001a 00BF     		.p2align 2
 4265              	.L184:
 4266 001c 2D000000 		.word	.L183+1
 4267 0020 51000000 		.word	.L185+1
 4268 0024 75000000 		.word	.L186+1
 4269 0028 99000000 		.word	.L187+1
 4270              		.p2align 1
 4271              	.L183:
1297:C:/Users/49542/Desktop/GD32F30x_Demo_Suites_V2.0.0/GD32F30x_Demo_Suites_V2.0.0/GD32F30x_Firmware_Library/GD32F30x_standard_peripheral/Source\gd32f30x_timer.c ****     /* configure TIMER_CH_0 */
1298:C:/Users/49542/Desktop/GD32F30x_Demo_Suites_V2.0.0/GD32F30x_Demo_Suites_V2.0.0/GD32F30x_Firmware_Library/GD32F30x_standard_peripheral/Source\gd32f30x_timer.c ****     case TIMER_CH_0:
1299:C:/Users/49542/Desktop/GD32F30x_Demo_Suites_V2.0.0/GD32F30x_Demo_Suites_V2.0.0/GD32F30x_Firmware_Library/GD32F30x_standard_peripheral/Source\gd32f30x_timer.c ****         TIMER_CHCTL2(timer_periph) &= (~(uint32_t)TIMER_CHCTL2_CH0EN);
 4272              		.loc 1 1299 0
 4273 002c FB68     		ldr	r3, [r7, #12]
 4274 002e 2033     		adds	r3, r3, #32
 4275 0030 1B68     		ldr	r3, [r3]
 4276 0032 FA68     		ldr	r2, [r7, #12]
 4277 0034 2032     		adds	r2, r2, #32
 4278 0036 23F00103 		bic	r3, r3, #1
 4279 003a 1360     		str	r3, [r2]
1300:C:/Users/49542/Desktop/GD32F30x_Demo_Suites_V2.0.0/GD32F30x_Demo_Suites_V2.0.0/GD32F30x_Firmware_Library/GD32F30x_standard_peripheral/Source\gd32f30x_timer.c ****         TIMER_CHCTL2(timer_periph) |= (uint32_t)state;
 4280              		.loc 1 1300 0
 4281 003c FB68     		ldr	r3, [r7, #12]
 4282 003e 2033     		adds	r3, r3, #32
 4283 0040 1A68     		ldr	r2, [r3]
 4284 0042 FB68     		ldr	r3, [r7, #12]
 4285 0044 2033     		adds	r3, r3, #32
 4286 0046 1946     		mov	r1, r3
 4287 0048 7B68     		ldr	r3, [r7, #4]
 4288 004a 1343     		orrs	r3, r3, r2
 4289 004c 0B60     		str	r3, [r1]
1301:C:/Users/49542/Desktop/GD32F30x_Demo_Suites_V2.0.0/GD32F30x_Demo_Suites_V2.0.0/GD32F30x_Firmware_Library/GD32F30x_standard_peripheral/Source\gd32f30x_timer.c ****         break;
 4290              		.loc 1 1301 0
 4291 004e 36E0     		b	.L188
 4292              	.L185:
1302:C:/Users/49542/Desktop/GD32F30x_Demo_Suites_V2.0.0/GD32F30x_Demo_Suites_V2.0.0/GD32F30x_Firmware_Library/GD32F30x_standard_peripheral/Source\gd32f30x_timer.c ****     /* configure TIMER_CH_1 */
1303:C:/Users/49542/Desktop/GD32F30x_Demo_Suites_V2.0.0/GD32F30x_Demo_Suites_V2.0.0/GD32F30x_Firmware_Library/GD32F30x_standard_peripheral/Source\gd32f30x_timer.c ****     case TIMER_CH_1:
1304:C:/Users/49542/Desktop/GD32F30x_Demo_Suites_V2.0.0/GD32F30x_Demo_Suites_V2.0.0/GD32F30x_Firmware_Library/GD32F30x_standard_peripheral/Source\gd32f30x_timer.c ****         TIMER_CHCTL2(timer_periph) &= (~(uint32_t)TIMER_CHCTL2_CH1EN);
 4293              		.loc 1 1304 0
 4294 0050 FB68     		ldr	r3, [r7, #12]
 4295 0052 2033     		adds	r3, r3, #32
 4296 0054 1B68     		ldr	r3, [r3]
 4297 0056 FA68     		ldr	r2, [r7, #12]
 4298 0058 2032     		adds	r2, r2, #32
 4299 005a 23F01003 		bic	r3, r3, #16
 4300 005e 1360     		str	r3, [r2]
1305:C:/Users/49542/Desktop/GD32F30x_Demo_Suites_V2.0.0/GD32F30x_Demo_Suites_V2.0.0/GD32F30x_Firmware_Library/GD32F30x_standard_peripheral/Source\gd32f30x_timer.c ****         TIMER_CHCTL2(timer_periph) |= (uint32_t)((uint32_t)state << 4U);
 4301              		.loc 1 1305 0
 4302 0060 FB68     		ldr	r3, [r7, #12]
 4303 0062 2033     		adds	r3, r3, #32
 4304 0064 1A68     		ldr	r2, [r3]
 4305 0066 7B68     		ldr	r3, [r7, #4]
 4306 0068 1B01     		lsls	r3, r3, #4
ARM GAS  C:\Users\49542\AppData\Local\Temp\ccx6VnNU.s 			page 99


 4307 006a F968     		ldr	r1, [r7, #12]
 4308 006c 2031     		adds	r1, r1, #32
 4309 006e 1343     		orrs	r3, r3, r2
 4310 0070 0B60     		str	r3, [r1]
1306:C:/Users/49542/Desktop/GD32F30x_Demo_Suites_V2.0.0/GD32F30x_Demo_Suites_V2.0.0/GD32F30x_Firmware_Library/GD32F30x_standard_peripheral/Source\gd32f30x_timer.c ****         break;
 4311              		.loc 1 1306 0
 4312 0072 24E0     		b	.L188
 4313              	.L186:
1307:C:/Users/49542/Desktop/GD32F30x_Demo_Suites_V2.0.0/GD32F30x_Demo_Suites_V2.0.0/GD32F30x_Firmware_Library/GD32F30x_standard_peripheral/Source\gd32f30x_timer.c ****     /* configure TIMER_CH_2 */
1308:C:/Users/49542/Desktop/GD32F30x_Demo_Suites_V2.0.0/GD32F30x_Demo_Suites_V2.0.0/GD32F30x_Firmware_Library/GD32F30x_standard_peripheral/Source\gd32f30x_timer.c ****     case TIMER_CH_2:
1309:C:/Users/49542/Desktop/GD32F30x_Demo_Suites_V2.0.0/GD32F30x_Demo_Suites_V2.0.0/GD32F30x_Firmware_Library/GD32F30x_standard_peripheral/Source\gd32f30x_timer.c ****         TIMER_CHCTL2(timer_periph) &= (~(uint32_t)TIMER_CHCTL2_CH2EN);
 4314              		.loc 1 1309 0
 4315 0074 FB68     		ldr	r3, [r7, #12]
 4316 0076 2033     		adds	r3, r3, #32
 4317 0078 1B68     		ldr	r3, [r3]
 4318 007a FA68     		ldr	r2, [r7, #12]
 4319 007c 2032     		adds	r2, r2, #32
 4320 007e 23F48073 		bic	r3, r3, #256
 4321 0082 1360     		str	r3, [r2]
1310:C:/Users/49542/Desktop/GD32F30x_Demo_Suites_V2.0.0/GD32F30x_Demo_Suites_V2.0.0/GD32F30x_Firmware_Library/GD32F30x_standard_peripheral/Source\gd32f30x_timer.c ****         TIMER_CHCTL2(timer_periph) |= (uint32_t)((uint32_t)state << 8U);
 4322              		.loc 1 1310 0
 4323 0084 FB68     		ldr	r3, [r7, #12]
 4324 0086 2033     		adds	r3, r3, #32
 4325 0088 1A68     		ldr	r2, [r3]
 4326 008a 7B68     		ldr	r3, [r7, #4]
 4327 008c 1B02     		lsls	r3, r3, #8
 4328 008e F968     		ldr	r1, [r7, #12]
 4329 0090 2031     		adds	r1, r1, #32
 4330 0092 1343     		orrs	r3, r3, r2
 4331 0094 0B60     		str	r3, [r1]
1311:C:/Users/49542/Desktop/GD32F30x_Demo_Suites_V2.0.0/GD32F30x_Demo_Suites_V2.0.0/GD32F30x_Firmware_Library/GD32F30x_standard_peripheral/Source\gd32f30x_timer.c ****         break;
 4332              		.loc 1 1311 0
 4333 0096 12E0     		b	.L188
 4334              	.L187:
1312:C:/Users/49542/Desktop/GD32F30x_Demo_Suites_V2.0.0/GD32F30x_Demo_Suites_V2.0.0/GD32F30x_Firmware_Library/GD32F30x_standard_peripheral/Source\gd32f30x_timer.c ****     /* configure TIMER_CH_3 */
1313:C:/Users/49542/Desktop/GD32F30x_Demo_Suites_V2.0.0/GD32F30x_Demo_Suites_V2.0.0/GD32F30x_Firmware_Library/GD32F30x_standard_peripheral/Source\gd32f30x_timer.c ****     case TIMER_CH_3:
1314:C:/Users/49542/Desktop/GD32F30x_Demo_Suites_V2.0.0/GD32F30x_Demo_Suites_V2.0.0/GD32F30x_Firmware_Library/GD32F30x_standard_peripheral/Source\gd32f30x_timer.c ****         TIMER_CHCTL2(timer_periph) &= (~(uint32_t)TIMER_CHCTL2_CH3EN);
 4335              		.loc 1 1314 0
 4336 0098 FB68     		ldr	r3, [r7, #12]
 4337 009a 2033     		adds	r3, r3, #32
 4338 009c 1B68     		ldr	r3, [r3]
 4339 009e FA68     		ldr	r2, [r7, #12]
 4340 00a0 2032     		adds	r2, r2, #32
 4341 00a2 23F48053 		bic	r3, r3, #4096
 4342 00a6 1360     		str	r3, [r2]
1315:C:/Users/49542/Desktop/GD32F30x_Demo_Suites_V2.0.0/GD32F30x_Demo_Suites_V2.0.0/GD32F30x_Firmware_Library/GD32F30x_standard_peripheral/Source\gd32f30x_timer.c ****         TIMER_CHCTL2(timer_periph) |= (uint32_t)((uint32_t)state << 12U);
 4343              		.loc 1 1315 0
 4344 00a8 FB68     		ldr	r3, [r7, #12]
 4345 00aa 2033     		adds	r3, r3, #32
 4346 00ac 1A68     		ldr	r2, [r3]
 4347 00ae 7B68     		ldr	r3, [r7, #4]
 4348 00b0 1B03     		lsls	r3, r3, #12
 4349 00b2 F968     		ldr	r1, [r7, #12]
 4350 00b4 2031     		adds	r1, r1, #32
 4351 00b6 1343     		orrs	r3, r3, r2
 4352 00b8 0B60     		str	r3, [r1]
1316:C:/Users/49542/Desktop/GD32F30x_Demo_Suites_V2.0.0/GD32F30x_Demo_Suites_V2.0.0/GD32F30x_Firmware_Library/GD32F30x_standard_peripheral/Source\gd32f30x_timer.c ****         break;
ARM GAS  C:\Users\49542\AppData\Local\Temp\ccx6VnNU.s 			page 100


 4353              		.loc 1 1316 0
 4354 00ba 00E0     		b	.L188
 4355              	.L189:
1317:C:/Users/49542/Desktop/GD32F30x_Demo_Suites_V2.0.0/GD32F30x_Demo_Suites_V2.0.0/GD32F30x_Firmware_Library/GD32F30x_standard_peripheral/Source\gd32f30x_timer.c ****     default:
1318:C:/Users/49542/Desktop/GD32F30x_Demo_Suites_V2.0.0/GD32F30x_Demo_Suites_V2.0.0/GD32F30x_Firmware_Library/GD32F30x_standard_peripheral/Source\gd32f30x_timer.c ****         break;
 4356              		.loc 1 1318 0
 4357 00bc 00BF     		nop
 4358              	.L188:
1319:C:/Users/49542/Desktop/GD32F30x_Demo_Suites_V2.0.0/GD32F30x_Demo_Suites_V2.0.0/GD32F30x_Firmware_Library/GD32F30x_standard_peripheral/Source\gd32f30x_timer.c ****     }
1320:C:/Users/49542/Desktop/GD32F30x_Demo_Suites_V2.0.0/GD32F30x_Demo_Suites_V2.0.0/GD32F30x_Firmware_Library/GD32F30x_standard_peripheral/Source\gd32f30x_timer.c **** }
 4359              		.loc 1 1320 0
 4360 00be 00BF     		nop
 4361 00c0 1437     		adds	r7, r7, #20
 4362              	.LCFI296:
 4363              		.cfi_def_cfa_offset 4
 4364 00c2 BD46     		mov	sp, r7
 4365              	.LCFI297:
 4366              		.cfi_def_cfa_register 13
 4367              		@ sp needed
 4368 00c4 5DF8047B 		ldr	r7, [sp], #4
 4369              	.LCFI298:
 4370              		.cfi_restore 7
 4371              		.cfi_def_cfa_offset 0
 4372 00c8 7047     		bx	lr
 4373              		.cfi_endproc
 4374              	.LFE165:
 4376 00ca 00BF     		.section	.text.timer_channel_complementary_output_state_config,"ax",%progbits
 4377              		.align	1
 4378              		.global	timer_channel_complementary_output_state_config
 4379              		.syntax unified
 4380              		.thumb
 4381              		.thumb_func
 4382              		.fpu fpv4-sp-d16
 4384              	timer_channel_complementary_output_state_config:
 4385              	.LFB166:
1321:C:/Users/49542/Desktop/GD32F30x_Demo_Suites_V2.0.0/GD32F30x_Demo_Suites_V2.0.0/GD32F30x_Firmware_Library/GD32F30x_standard_peripheral/Source\gd32f30x_timer.c **** 
1322:C:/Users/49542/Desktop/GD32F30x_Demo_Suites_V2.0.0/GD32F30x_Demo_Suites_V2.0.0/GD32F30x_Firmware_Library/GD32F30x_standard_peripheral/Source\gd32f30x_timer.c **** /*!
1323:C:/Users/49542/Desktop/GD32F30x_Demo_Suites_V2.0.0/GD32F30x_Demo_Suites_V2.0.0/GD32F30x_Firmware_Library/GD32F30x_standard_peripheral/Source\gd32f30x_timer.c ****     \brief      configure TIMER channel complementary output enable state
1324:C:/Users/49542/Desktop/GD32F30x_Demo_Suites_V2.0.0/GD32F30x_Demo_Suites_V2.0.0/GD32F30x_Firmware_Library/GD32F30x_standard_peripheral/Source\gd32f30x_timer.c ****     \param[in]  timer_periph: please refer to the following parameters
1325:C:/Users/49542/Desktop/GD32F30x_Demo_Suites_V2.0.0/GD32F30x_Demo_Suites_V2.0.0/GD32F30x_Firmware_Library/GD32F30x_standard_peripheral/Source\gd32f30x_timer.c ****     \param[in]  channel: 
1326:C:/Users/49542/Desktop/GD32F30x_Demo_Suites_V2.0.0/GD32F30x_Demo_Suites_V2.0.0/GD32F30x_Firmware_Library/GD32F30x_standard_peripheral/Source\gd32f30x_timer.c ****                 only one parameter can be selected which is shown as below:
1327:C:/Users/49542/Desktop/GD32F30x_Demo_Suites_V2.0.0/GD32F30x_Demo_Suites_V2.0.0/GD32F30x_Firmware_Library/GD32F30x_standard_peripheral/Source\gd32f30x_timer.c ****       \arg        TIMER_CH_0: TIMER channel0(TIMERx(x=0,7))
1328:C:/Users/49542/Desktop/GD32F30x_Demo_Suites_V2.0.0/GD32F30x_Demo_Suites_V2.0.0/GD32F30x_Firmware_Library/GD32F30x_standard_peripheral/Source\gd32f30x_timer.c ****       \arg        TIMER_CH_1: TIMER channel1(TIMERx(x=0,7))
1329:C:/Users/49542/Desktop/GD32F30x_Demo_Suites_V2.0.0/GD32F30x_Demo_Suites_V2.0.0/GD32F30x_Firmware_Library/GD32F30x_standard_peripheral/Source\gd32f30x_timer.c ****       \arg        TIMER_CH_2: TIMER channel2(TIMERx(x=0,7))
1330:C:/Users/49542/Desktop/GD32F30x_Demo_Suites_V2.0.0/GD32F30x_Demo_Suites_V2.0.0/GD32F30x_Firmware_Library/GD32F30x_standard_peripheral/Source\gd32f30x_timer.c ****     \param[in]  ocnstate: TIMER channel complementary output enable state
1331:C:/Users/49542/Desktop/GD32F30x_Demo_Suites_V2.0.0/GD32F30x_Demo_Suites_V2.0.0/GD32F30x_Firmware_Library/GD32F30x_standard_peripheral/Source\gd32f30x_timer.c ****                 only one parameter can be selected which is shown as below:
1332:C:/Users/49542/Desktop/GD32F30x_Demo_Suites_V2.0.0/GD32F30x_Demo_Suites_V2.0.0/GD32F30x_Firmware_Library/GD32F30x_standard_peripheral/Source\gd32f30x_timer.c ****       \arg        TIMER_CCXN_ENABLE: channel complementary enable 
1333:C:/Users/49542/Desktop/GD32F30x_Demo_Suites_V2.0.0/GD32F30x_Demo_Suites_V2.0.0/GD32F30x_Firmware_Library/GD32F30x_standard_peripheral/Source\gd32f30x_timer.c ****       \arg        TIMER_CCXN_DISABLE: channel complementary disable 
1334:C:/Users/49542/Desktop/GD32F30x_Demo_Suites_V2.0.0/GD32F30x_Demo_Suites_V2.0.0/GD32F30x_Firmware_Library/GD32F30x_standard_peripheral/Source\gd32f30x_timer.c ****     \param[out] none
1335:C:/Users/49542/Desktop/GD32F30x_Demo_Suites_V2.0.0/GD32F30x_Demo_Suites_V2.0.0/GD32F30x_Firmware_Library/GD32F30x_standard_peripheral/Source\gd32f30x_timer.c ****     \retval     none
1336:C:/Users/49542/Desktop/GD32F30x_Demo_Suites_V2.0.0/GD32F30x_Demo_Suites_V2.0.0/GD32F30x_Firmware_Library/GD32F30x_standard_peripheral/Source\gd32f30x_timer.c **** */
1337:C:/Users/49542/Desktop/GD32F30x_Demo_Suites_V2.0.0/GD32F30x_Demo_Suites_V2.0.0/GD32F30x_Firmware_Library/GD32F30x_standard_peripheral/Source\gd32f30x_timer.c **** void timer_channel_complementary_output_state_config(uint32_t timer_periph, uint16_t channel, uint1
1338:C:/Users/49542/Desktop/GD32F30x_Demo_Suites_V2.0.0/GD32F30x_Demo_Suites_V2.0.0/GD32F30x_Firmware_Library/GD32F30x_standard_peripheral/Source\gd32f30x_timer.c **** {
 4386              		.loc 1 1338 0
 4387              		.cfi_startproc
 4388              		@ args = 0, pretend = 0, frame = 8
 4389              		@ frame_needed = 1, uses_anonymous_args = 0
ARM GAS  C:\Users\49542\AppData\Local\Temp\ccx6VnNU.s 			page 101


 4390              		@ link register save eliminated.
 4391 0000 80B4     		push	{r7}
 4392              	.LCFI299:
 4393              		.cfi_def_cfa_offset 4
 4394              		.cfi_offset 7, -4
 4395 0002 83B0     		sub	sp, sp, #12
 4396              	.LCFI300:
 4397              		.cfi_def_cfa_offset 16
 4398 0004 00AF     		add	r7, sp, #0
 4399              	.LCFI301:
 4400              		.cfi_def_cfa_register 7
 4401 0006 7860     		str	r0, [r7, #4]
 4402 0008 0B46     		mov	r3, r1
 4403 000a 7B80     		strh	r3, [r7, #2]	@ movhi
 4404 000c 1346     		mov	r3, r2	@ movhi
 4405 000e 3B80     		strh	r3, [r7]	@ movhi
1339:C:/Users/49542/Desktop/GD32F30x_Demo_Suites_V2.0.0/GD32F30x_Demo_Suites_V2.0.0/GD32F30x_Firmware_Library/GD32F30x_standard_peripheral/Source\gd32f30x_timer.c ****     switch(channel){
 4406              		.loc 1 1339 0
 4407 0010 7B88     		ldrh	r3, [r7, #2]
 4408 0012 012B     		cmp	r3, #1
 4409 0014 15D0     		beq	.L192
 4410 0016 022B     		cmp	r3, #2
 4411 0018 25D0     		beq	.L193
 4412 001a 002B     		cmp	r3, #0
 4413 001c 00D0     		beq	.L194
1340:C:/Users/49542/Desktop/GD32F30x_Demo_Suites_V2.0.0/GD32F30x_Demo_Suites_V2.0.0/GD32F30x_Firmware_Library/GD32F30x_standard_peripheral/Source\gd32f30x_timer.c ****     /* configure TIMER_CH_0 */
1341:C:/Users/49542/Desktop/GD32F30x_Demo_Suites_V2.0.0/GD32F30x_Demo_Suites_V2.0.0/GD32F30x_Firmware_Library/GD32F30x_standard_peripheral/Source\gd32f30x_timer.c ****     case TIMER_CH_0:
1342:C:/Users/49542/Desktop/GD32F30x_Demo_Suites_V2.0.0/GD32F30x_Demo_Suites_V2.0.0/GD32F30x_Firmware_Library/GD32F30x_standard_peripheral/Source\gd32f30x_timer.c ****         TIMER_CHCTL2(timer_periph) &= (~(uint32_t)TIMER_CHCTL2_CH0NEN);
1343:C:/Users/49542/Desktop/GD32F30x_Demo_Suites_V2.0.0/GD32F30x_Demo_Suites_V2.0.0/GD32F30x_Firmware_Library/GD32F30x_standard_peripheral/Source\gd32f30x_timer.c ****         TIMER_CHCTL2(timer_periph) |= (uint32_t)ocnstate;
1344:C:/Users/49542/Desktop/GD32F30x_Demo_Suites_V2.0.0/GD32F30x_Demo_Suites_V2.0.0/GD32F30x_Firmware_Library/GD32F30x_standard_peripheral/Source\gd32f30x_timer.c ****         break;
1345:C:/Users/49542/Desktop/GD32F30x_Demo_Suites_V2.0.0/GD32F30x_Demo_Suites_V2.0.0/GD32F30x_Firmware_Library/GD32F30x_standard_peripheral/Source\gd32f30x_timer.c ****     /* configure TIMER_CH_1 */
1346:C:/Users/49542/Desktop/GD32F30x_Demo_Suites_V2.0.0/GD32F30x_Demo_Suites_V2.0.0/GD32F30x_Firmware_Library/GD32F30x_standard_peripheral/Source\gd32f30x_timer.c ****     case TIMER_CH_1:
1347:C:/Users/49542/Desktop/GD32F30x_Demo_Suites_V2.0.0/GD32F30x_Demo_Suites_V2.0.0/GD32F30x_Firmware_Library/GD32F30x_standard_peripheral/Source\gd32f30x_timer.c ****         TIMER_CHCTL2(timer_periph) &= (~(uint32_t)TIMER_CHCTL2_CH1NEN);
1348:C:/Users/49542/Desktop/GD32F30x_Demo_Suites_V2.0.0/GD32F30x_Demo_Suites_V2.0.0/GD32F30x_Firmware_Library/GD32F30x_standard_peripheral/Source\gd32f30x_timer.c ****         TIMER_CHCTL2(timer_periph) |= (uint32_t)((uint32_t)ocnstate << 4U);
1349:C:/Users/49542/Desktop/GD32F30x_Demo_Suites_V2.0.0/GD32F30x_Demo_Suites_V2.0.0/GD32F30x_Firmware_Library/GD32F30x_standard_peripheral/Source\gd32f30x_timer.c ****         break;
1350:C:/Users/49542/Desktop/GD32F30x_Demo_Suites_V2.0.0/GD32F30x_Demo_Suites_V2.0.0/GD32F30x_Firmware_Library/GD32F30x_standard_peripheral/Source\gd32f30x_timer.c ****     /* configure TIMER_CH_2 */
1351:C:/Users/49542/Desktop/GD32F30x_Demo_Suites_V2.0.0/GD32F30x_Demo_Suites_V2.0.0/GD32F30x_Firmware_Library/GD32F30x_standard_peripheral/Source\gd32f30x_timer.c ****     case TIMER_CH_2:
1352:C:/Users/49542/Desktop/GD32F30x_Demo_Suites_V2.0.0/GD32F30x_Demo_Suites_V2.0.0/GD32F30x_Firmware_Library/GD32F30x_standard_peripheral/Source\gd32f30x_timer.c ****         TIMER_CHCTL2(timer_periph) &= (~(uint32_t)TIMER_CHCTL2_CH2NEN);
1353:C:/Users/49542/Desktop/GD32F30x_Demo_Suites_V2.0.0/GD32F30x_Demo_Suites_V2.0.0/GD32F30x_Firmware_Library/GD32F30x_standard_peripheral/Source\gd32f30x_timer.c ****         TIMER_CHCTL2(timer_periph) |= (uint32_t)((uint32_t)ocnstate << 8U);
1354:C:/Users/49542/Desktop/GD32F30x_Demo_Suites_V2.0.0/GD32F30x_Demo_Suites_V2.0.0/GD32F30x_Firmware_Library/GD32F30x_standard_peripheral/Source\gd32f30x_timer.c ****         break;
1355:C:/Users/49542/Desktop/GD32F30x_Demo_Suites_V2.0.0/GD32F30x_Demo_Suites_V2.0.0/GD32F30x_Firmware_Library/GD32F30x_standard_peripheral/Source\gd32f30x_timer.c ****     default:
1356:C:/Users/49542/Desktop/GD32F30x_Demo_Suites_V2.0.0/GD32F30x_Demo_Suites_V2.0.0/GD32F30x_Firmware_Library/GD32F30x_standard_peripheral/Source\gd32f30x_timer.c ****         break;
 4414              		.loc 1 1356 0
 4415 001e 34E0     		b	.L195
 4416              	.L194:
1342:C:/Users/49542/Desktop/GD32F30x_Demo_Suites_V2.0.0/GD32F30x_Demo_Suites_V2.0.0/GD32F30x_Firmware_Library/GD32F30x_standard_peripheral/Source\gd32f30x_timer.c ****         TIMER_CHCTL2(timer_periph) |= (uint32_t)ocnstate;
 4417              		.loc 1 1342 0
 4418 0020 7B68     		ldr	r3, [r7, #4]
 4419 0022 2033     		adds	r3, r3, #32
 4420 0024 1B68     		ldr	r3, [r3]
 4421 0026 7A68     		ldr	r2, [r7, #4]
 4422 0028 2032     		adds	r2, r2, #32
 4423 002a 23F00403 		bic	r3, r3, #4
 4424 002e 1360     		str	r3, [r2]
1343:C:/Users/49542/Desktop/GD32F30x_Demo_Suites_V2.0.0/GD32F30x_Demo_Suites_V2.0.0/GD32F30x_Firmware_Library/GD32F30x_standard_peripheral/Source\gd32f30x_timer.c ****         break;
 4425              		.loc 1 1343 0
 4426 0030 7B68     		ldr	r3, [r7, #4]
ARM GAS  C:\Users\49542\AppData\Local\Temp\ccx6VnNU.s 			page 102


 4427 0032 2033     		adds	r3, r3, #32
 4428 0034 1A68     		ldr	r2, [r3]
 4429 0036 3B88     		ldrh	r3, [r7]
 4430 0038 7968     		ldr	r1, [r7, #4]
 4431 003a 2031     		adds	r1, r1, #32
 4432 003c 1343     		orrs	r3, r3, r2
 4433 003e 0B60     		str	r3, [r1]
1344:C:/Users/49542/Desktop/GD32F30x_Demo_Suites_V2.0.0/GD32F30x_Demo_Suites_V2.0.0/GD32F30x_Firmware_Library/GD32F30x_standard_peripheral/Source\gd32f30x_timer.c ****     /* configure TIMER_CH_1 */
 4434              		.loc 1 1344 0
 4435 0040 23E0     		b	.L195
 4436              	.L192:
1347:C:/Users/49542/Desktop/GD32F30x_Demo_Suites_V2.0.0/GD32F30x_Demo_Suites_V2.0.0/GD32F30x_Firmware_Library/GD32F30x_standard_peripheral/Source\gd32f30x_timer.c ****         TIMER_CHCTL2(timer_periph) |= (uint32_t)((uint32_t)ocnstate << 4U);
 4437              		.loc 1 1347 0
 4438 0042 7B68     		ldr	r3, [r7, #4]
 4439 0044 2033     		adds	r3, r3, #32
 4440 0046 1B68     		ldr	r3, [r3]
 4441 0048 7A68     		ldr	r2, [r7, #4]
 4442 004a 2032     		adds	r2, r2, #32
 4443 004c 23F04003 		bic	r3, r3, #64
 4444 0050 1360     		str	r3, [r2]
1348:C:/Users/49542/Desktop/GD32F30x_Demo_Suites_V2.0.0/GD32F30x_Demo_Suites_V2.0.0/GD32F30x_Firmware_Library/GD32F30x_standard_peripheral/Source\gd32f30x_timer.c ****         break;
 4445              		.loc 1 1348 0
 4446 0052 7B68     		ldr	r3, [r7, #4]
 4447 0054 2033     		adds	r3, r3, #32
 4448 0056 1A68     		ldr	r2, [r3]
 4449 0058 3B88     		ldrh	r3, [r7]
 4450 005a 1B01     		lsls	r3, r3, #4
 4451 005c 7968     		ldr	r1, [r7, #4]
 4452 005e 2031     		adds	r1, r1, #32
 4453 0060 1343     		orrs	r3, r3, r2
 4454 0062 0B60     		str	r3, [r1]
1349:C:/Users/49542/Desktop/GD32F30x_Demo_Suites_V2.0.0/GD32F30x_Demo_Suites_V2.0.0/GD32F30x_Firmware_Library/GD32F30x_standard_peripheral/Source\gd32f30x_timer.c ****     /* configure TIMER_CH_2 */
 4455              		.loc 1 1349 0
 4456 0064 11E0     		b	.L195
 4457              	.L193:
1352:C:/Users/49542/Desktop/GD32F30x_Demo_Suites_V2.0.0/GD32F30x_Demo_Suites_V2.0.0/GD32F30x_Firmware_Library/GD32F30x_standard_peripheral/Source\gd32f30x_timer.c ****         TIMER_CHCTL2(timer_periph) |= (uint32_t)((uint32_t)ocnstate << 8U);
 4458              		.loc 1 1352 0
 4459 0066 7B68     		ldr	r3, [r7, #4]
 4460 0068 2033     		adds	r3, r3, #32
 4461 006a 1B68     		ldr	r3, [r3]
 4462 006c 7A68     		ldr	r2, [r7, #4]
 4463 006e 2032     		adds	r2, r2, #32
 4464 0070 23F48063 		bic	r3, r3, #1024
 4465 0074 1360     		str	r3, [r2]
1353:C:/Users/49542/Desktop/GD32F30x_Demo_Suites_V2.0.0/GD32F30x_Demo_Suites_V2.0.0/GD32F30x_Firmware_Library/GD32F30x_standard_peripheral/Source\gd32f30x_timer.c ****         break;
 4466              		.loc 1 1353 0
 4467 0076 7B68     		ldr	r3, [r7, #4]
 4468 0078 2033     		adds	r3, r3, #32
 4469 007a 1A68     		ldr	r2, [r3]
 4470 007c 3B88     		ldrh	r3, [r7]
 4471 007e 1B02     		lsls	r3, r3, #8
 4472 0080 7968     		ldr	r1, [r7, #4]
 4473 0082 2031     		adds	r1, r1, #32
 4474 0084 1343     		orrs	r3, r3, r2
 4475 0086 0B60     		str	r3, [r1]
1354:C:/Users/49542/Desktop/GD32F30x_Demo_Suites_V2.0.0/GD32F30x_Demo_Suites_V2.0.0/GD32F30x_Firmware_Library/GD32F30x_standard_peripheral/Source\gd32f30x_timer.c ****     default:
 4476              		.loc 1 1354 0
ARM GAS  C:\Users\49542\AppData\Local\Temp\ccx6VnNU.s 			page 103


 4477 0088 00BF     		nop
 4478              	.L195:
1357:C:/Users/49542/Desktop/GD32F30x_Demo_Suites_V2.0.0/GD32F30x_Demo_Suites_V2.0.0/GD32F30x_Firmware_Library/GD32F30x_standard_peripheral/Source\gd32f30x_timer.c ****     }
1358:C:/Users/49542/Desktop/GD32F30x_Demo_Suites_V2.0.0/GD32F30x_Demo_Suites_V2.0.0/GD32F30x_Firmware_Library/GD32F30x_standard_peripheral/Source\gd32f30x_timer.c **** }
 4479              		.loc 1 1358 0
 4480 008a 00BF     		nop
 4481 008c 0C37     		adds	r7, r7, #12
 4482              	.LCFI302:
 4483              		.cfi_def_cfa_offset 4
 4484 008e BD46     		mov	sp, r7
 4485              	.LCFI303:
 4486              		.cfi_def_cfa_register 13
 4487              		@ sp needed
 4488 0090 5DF8047B 		ldr	r7, [sp], #4
 4489              	.LCFI304:
 4490              		.cfi_restore 7
 4491              		.cfi_def_cfa_offset 0
 4492 0094 7047     		bx	lr
 4493              		.cfi_endproc
 4494              	.LFE166:
 4496              		.section	.text.timer_channel_input_struct_para_init,"ax",%progbits
 4497              		.align	1
 4498              		.global	timer_channel_input_struct_para_init
 4499              		.syntax unified
 4500              		.thumb
 4501              		.thumb_func
 4502              		.fpu fpv4-sp-d16
 4504              	timer_channel_input_struct_para_init:
 4505              	.LFB167:
1359:C:/Users/49542/Desktop/GD32F30x_Demo_Suites_V2.0.0/GD32F30x_Demo_Suites_V2.0.0/GD32F30x_Firmware_Library/GD32F30x_standard_peripheral/Source\gd32f30x_timer.c **** 
1360:C:/Users/49542/Desktop/GD32F30x_Demo_Suites_V2.0.0/GD32F30x_Demo_Suites_V2.0.0/GD32F30x_Firmware_Library/GD32F30x_standard_peripheral/Source\gd32f30x_timer.c **** /*!
1361:C:/Users/49542/Desktop/GD32F30x_Demo_Suites_V2.0.0/GD32F30x_Demo_Suites_V2.0.0/GD32F30x_Firmware_Library/GD32F30x_standard_peripheral/Source\gd32f30x_timer.c ****     \brief      initialize TIMER channel input parameter struct with a default value
1362:C:/Users/49542/Desktop/GD32F30x_Demo_Suites_V2.0.0/GD32F30x_Demo_Suites_V2.0.0/GD32F30x_Firmware_Library/GD32F30x_standard_peripheral/Source\gd32f30x_timer.c ****     \param[in]  icpara: TIMER channel intput parameter struct
1363:C:/Users/49542/Desktop/GD32F30x_Demo_Suites_V2.0.0/GD32F30x_Demo_Suites_V2.0.0/GD32F30x_Firmware_Library/GD32F30x_standard_peripheral/Source\gd32f30x_timer.c ****     \param[out] none
1364:C:/Users/49542/Desktop/GD32F30x_Demo_Suites_V2.0.0/GD32F30x_Demo_Suites_V2.0.0/GD32F30x_Firmware_Library/GD32F30x_standard_peripheral/Source\gd32f30x_timer.c ****     \retval     none
1365:C:/Users/49542/Desktop/GD32F30x_Demo_Suites_V2.0.0/GD32F30x_Demo_Suites_V2.0.0/GD32F30x_Firmware_Library/GD32F30x_standard_peripheral/Source\gd32f30x_timer.c **** */
1366:C:/Users/49542/Desktop/GD32F30x_Demo_Suites_V2.0.0/GD32F30x_Demo_Suites_V2.0.0/GD32F30x_Firmware_Library/GD32F30x_standard_peripheral/Source\gd32f30x_timer.c **** void timer_channel_input_struct_para_init(timer_ic_parameter_struct* icpara)
1367:C:/Users/49542/Desktop/GD32F30x_Demo_Suites_V2.0.0/GD32F30x_Demo_Suites_V2.0.0/GD32F30x_Firmware_Library/GD32F30x_standard_peripheral/Source\gd32f30x_timer.c **** {
 4506              		.loc 1 1367 0
 4507              		.cfi_startproc
 4508              		@ args = 0, pretend = 0, frame = 8
 4509              		@ frame_needed = 1, uses_anonymous_args = 0
 4510              		@ link register save eliminated.
 4511 0000 80B4     		push	{r7}
 4512              	.LCFI305:
 4513              		.cfi_def_cfa_offset 4
 4514              		.cfi_offset 7, -4
 4515 0002 83B0     		sub	sp, sp, #12
 4516              	.LCFI306:
 4517              		.cfi_def_cfa_offset 16
 4518 0004 00AF     		add	r7, sp, #0
 4519              	.LCFI307:
 4520              		.cfi_def_cfa_register 7
 4521 0006 7860     		str	r0, [r7, #4]
1368:C:/Users/49542/Desktop/GD32F30x_Demo_Suites_V2.0.0/GD32F30x_Demo_Suites_V2.0.0/GD32F30x_Firmware_Library/GD32F30x_standard_peripheral/Source\gd32f30x_timer.c ****     /* initialize the channel input parameter struct member with the default value */
1369:C:/Users/49542/Desktop/GD32F30x_Demo_Suites_V2.0.0/GD32F30x_Demo_Suites_V2.0.0/GD32F30x_Firmware_Library/GD32F30x_standard_peripheral/Source\gd32f30x_timer.c ****     icpara->icpolarity  = TIMER_IC_POLARITY_RISING;
 4522              		.loc 1 1369 0
ARM GAS  C:\Users\49542\AppData\Local\Temp\ccx6VnNU.s 			page 104


 4523 0008 7B68     		ldr	r3, [r7, #4]
 4524 000a 0022     		movs	r2, #0
 4525 000c 1A80     		strh	r2, [r3]	@ movhi
1370:C:/Users/49542/Desktop/GD32F30x_Demo_Suites_V2.0.0/GD32F30x_Demo_Suites_V2.0.0/GD32F30x_Firmware_Library/GD32F30x_standard_peripheral/Source\gd32f30x_timer.c ****     icpara->icselection = TIMER_IC_SELECTION_DIRECTTI;
 4526              		.loc 1 1370 0
 4527 000e 7B68     		ldr	r3, [r7, #4]
 4528 0010 0122     		movs	r2, #1
 4529 0012 5A80     		strh	r2, [r3, #2]	@ movhi
1371:C:/Users/49542/Desktop/GD32F30x_Demo_Suites_V2.0.0/GD32F30x_Demo_Suites_V2.0.0/GD32F30x_Firmware_Library/GD32F30x_standard_peripheral/Source\gd32f30x_timer.c ****     icpara->icprescaler = TIMER_IC_PSC_DIV1;
 4530              		.loc 1 1371 0
 4531 0014 7B68     		ldr	r3, [r7, #4]
 4532 0016 0022     		movs	r2, #0
 4533 0018 9A80     		strh	r2, [r3, #4]	@ movhi
1372:C:/Users/49542/Desktop/GD32F30x_Demo_Suites_V2.0.0/GD32F30x_Demo_Suites_V2.0.0/GD32F30x_Firmware_Library/GD32F30x_standard_peripheral/Source\gd32f30x_timer.c ****     icpara->icfilter    = 0U;
 4534              		.loc 1 1372 0
 4535 001a 7B68     		ldr	r3, [r7, #4]
 4536 001c 0022     		movs	r2, #0
 4537 001e DA80     		strh	r2, [r3, #6]	@ movhi
1373:C:/Users/49542/Desktop/GD32F30x_Demo_Suites_V2.0.0/GD32F30x_Demo_Suites_V2.0.0/GD32F30x_Firmware_Library/GD32F30x_standard_peripheral/Source\gd32f30x_timer.c **** }
 4538              		.loc 1 1373 0
 4539 0020 00BF     		nop
 4540 0022 0C37     		adds	r7, r7, #12
 4541              	.LCFI308:
 4542              		.cfi_def_cfa_offset 4
 4543 0024 BD46     		mov	sp, r7
 4544              	.LCFI309:
 4545              		.cfi_def_cfa_register 13
 4546              		@ sp needed
 4547 0026 5DF8047B 		ldr	r7, [sp], #4
 4548              	.LCFI310:
 4549              		.cfi_restore 7
 4550              		.cfi_def_cfa_offset 0
 4551 002a 7047     		bx	lr
 4552              		.cfi_endproc
 4553              	.LFE167:
 4555              		.section	.text.timer_input_capture_config,"ax",%progbits
 4556              		.align	1
 4557              		.global	timer_input_capture_config
 4558              		.syntax unified
 4559              		.thumb
 4560              		.thumb_func
 4561              		.fpu fpv4-sp-d16
 4563              	timer_input_capture_config:
 4564              	.LFB168:
1374:C:/Users/49542/Desktop/GD32F30x_Demo_Suites_V2.0.0/GD32F30x_Demo_Suites_V2.0.0/GD32F30x_Firmware_Library/GD32F30x_standard_peripheral/Source\gd32f30x_timer.c **** 
1375:C:/Users/49542/Desktop/GD32F30x_Demo_Suites_V2.0.0/GD32F30x_Demo_Suites_V2.0.0/GD32F30x_Firmware_Library/GD32F30x_standard_peripheral/Source\gd32f30x_timer.c **** /*!
1376:C:/Users/49542/Desktop/GD32F30x_Demo_Suites_V2.0.0/GD32F30x_Demo_Suites_V2.0.0/GD32F30x_Firmware_Library/GD32F30x_standard_peripheral/Source\gd32f30x_timer.c ****     \brief      configure TIMER input capture parameter 
1377:C:/Users/49542/Desktop/GD32F30x_Demo_Suites_V2.0.0/GD32F30x_Demo_Suites_V2.0.0/GD32F30x_Firmware_Library/GD32F30x_standard_peripheral/Source\gd32f30x_timer.c ****     \param[in]  timer_periph: please refer to the following parameters
1378:C:/Users/49542/Desktop/GD32F30x_Demo_Suites_V2.0.0/GD32F30x_Demo_Suites_V2.0.0/GD32F30x_Firmware_Library/GD32F30x_standard_peripheral/Source\gd32f30x_timer.c ****     \param[in]  channel: 
1379:C:/Users/49542/Desktop/GD32F30x_Demo_Suites_V2.0.0/GD32F30x_Demo_Suites_V2.0.0/GD32F30x_Firmware_Library/GD32F30x_standard_peripheral/Source\gd32f30x_timer.c ****                 only one parameter can be selected which is shown as below:
1380:C:/Users/49542/Desktop/GD32F30x_Demo_Suites_V2.0.0/GD32F30x_Demo_Suites_V2.0.0/GD32F30x_Firmware_Library/GD32F30x_standard_peripheral/Source\gd32f30x_timer.c ****       \arg        TIMER_CH_0: TIMER channel0(TIMERx(x=0..4,7..13))
1381:C:/Users/49542/Desktop/GD32F30x_Demo_Suites_V2.0.0/GD32F30x_Demo_Suites_V2.0.0/GD32F30x_Firmware_Library/GD32F30x_standard_peripheral/Source\gd32f30x_timer.c ****       \arg        TIMER_CH_1: TIMER channel1(TIMERx(x=0..4,7,8,11))
1382:C:/Users/49542/Desktop/GD32F30x_Demo_Suites_V2.0.0/GD32F30x_Demo_Suites_V2.0.0/GD32F30x_Firmware_Library/GD32F30x_standard_peripheral/Source\gd32f30x_timer.c ****       \arg        TIMER_CH_2: TIMER channel2(TIMERx(x=0..4,7))
1383:C:/Users/49542/Desktop/GD32F30x_Demo_Suites_V2.0.0/GD32F30x_Demo_Suites_V2.0.0/GD32F30x_Firmware_Library/GD32F30x_standard_peripheral/Source\gd32f30x_timer.c ****       \arg        TIMER_CH_3: TIMER channel3(TIMERx(x=0..4,7))
1384:C:/Users/49542/Desktop/GD32F30x_Demo_Suites_V2.0.0/GD32F30x_Demo_Suites_V2.0.0/GD32F30x_Firmware_Library/GD32F30x_standard_peripheral/Source\gd32f30x_timer.c ****      \param[in]  icpara: TIMER channel intput parameter struct
1385:C:/Users/49542/Desktop/GD32F30x_Demo_Suites_V2.0.0/GD32F30x_Demo_Suites_V2.0.0/GD32F30x_Firmware_Library/GD32F30x_standard_peripheral/Source\gd32f30x_timer.c ****                  icpolarity: TIMER_IC_POLARITY_RISING,TIMER_IC_POLARITY_FALLING,TIMER_IC_POLARITY_B
1386:C:/Users/49542/Desktop/GD32F30x_Demo_Suites_V2.0.0/GD32F30x_Demo_Suites_V2.0.0/GD32F30x_Firmware_Library/GD32F30x_standard_peripheral/Source\gd32f30x_timer.c ****                  icselection: TIMER_IC_SELECTION_DIRECTTI,TIMER_IC_SELECTION_INDIRECTTI,TIMER_IC_SE
ARM GAS  C:\Users\49542\AppData\Local\Temp\ccx6VnNU.s 			page 105


1387:C:/Users/49542/Desktop/GD32F30x_Demo_Suites_V2.0.0/GD32F30x_Demo_Suites_V2.0.0/GD32F30x_Firmware_Library/GD32F30x_standard_peripheral/Source\gd32f30x_timer.c ****                  icprescaler: TIMER_IC_PSC_DIV1,TIMER_IC_PSC_DIV2,TIMER_IC_PSC_DIV4,TIMER_IC_PSC_DI
1388:C:/Users/49542/Desktop/GD32F30x_Demo_Suites_V2.0.0/GD32F30x_Demo_Suites_V2.0.0/GD32F30x_Firmware_Library/GD32F30x_standard_peripheral/Source\gd32f30x_timer.c ****                  icfilter: 0~15
1389:C:/Users/49542/Desktop/GD32F30x_Demo_Suites_V2.0.0/GD32F30x_Demo_Suites_V2.0.0/GD32F30x_Firmware_Library/GD32F30x_standard_peripheral/Source\gd32f30x_timer.c ****     \param[out]  none
1390:C:/Users/49542/Desktop/GD32F30x_Demo_Suites_V2.0.0/GD32F30x_Demo_Suites_V2.0.0/GD32F30x_Firmware_Library/GD32F30x_standard_peripheral/Source\gd32f30x_timer.c ****     \retval      none
1391:C:/Users/49542/Desktop/GD32F30x_Demo_Suites_V2.0.0/GD32F30x_Demo_Suites_V2.0.0/GD32F30x_Firmware_Library/GD32F30x_standard_peripheral/Source\gd32f30x_timer.c **** */
1392:C:/Users/49542/Desktop/GD32F30x_Demo_Suites_V2.0.0/GD32F30x_Demo_Suites_V2.0.0/GD32F30x_Firmware_Library/GD32F30x_standard_peripheral/Source\gd32f30x_timer.c **** void timer_input_capture_config(uint32_t timer_periph,uint16_t channel, timer_ic_parameter_struct* 
1393:C:/Users/49542/Desktop/GD32F30x_Demo_Suites_V2.0.0/GD32F30x_Demo_Suites_V2.0.0/GD32F30x_Firmware_Library/GD32F30x_standard_peripheral/Source\gd32f30x_timer.c **** {
 4565              		.loc 1 1393 0
 4566              		.cfi_startproc
 4567              		@ args = 0, pretend = 0, frame = 16
 4568              		@ frame_needed = 1, uses_anonymous_args = 0
 4569 0000 80B5     		push	{r7, lr}
 4570              	.LCFI311:
 4571              		.cfi_def_cfa_offset 8
 4572              		.cfi_offset 7, -8
 4573              		.cfi_offset 14, -4
 4574 0002 84B0     		sub	sp, sp, #16
 4575              	.LCFI312:
 4576              		.cfi_def_cfa_offset 24
 4577 0004 00AF     		add	r7, sp, #0
 4578              	.LCFI313:
 4579              		.cfi_def_cfa_register 7
 4580 0006 F860     		str	r0, [r7, #12]
 4581 0008 0B46     		mov	r3, r1
 4582 000a 7A60     		str	r2, [r7, #4]
 4583 000c 7B81     		strh	r3, [r7, #10]	@ movhi
1394:C:/Users/49542/Desktop/GD32F30x_Demo_Suites_V2.0.0/GD32F30x_Demo_Suites_V2.0.0/GD32F30x_Firmware_Library/GD32F30x_standard_peripheral/Source\gd32f30x_timer.c ****     switch(channel){
 4584              		.loc 1 1394 0
 4585 000e 7B89     		ldrh	r3, [r7, #10]
 4586 0010 032B     		cmp	r3, #3
 4587 0012 00F22781 		bhi	.L205
 4588 0016 01A2     		adr	r2, .L200
 4589 0018 52F823F0 		ldr	pc, [r2, r3, lsl #2]
 4590              		.p2align 2
 4591              	.L200:
 4592 001c 2D000000 		.word	.L199+1
 4593 0020 BB000000 		.word	.L201+1
 4594 0024 49010000 		.word	.L202+1
 4595 0028 D7010000 		.word	.L203+1
 4596              		.p2align 1
 4597              	.L199:
1395:C:/Users/49542/Desktop/GD32F30x_Demo_Suites_V2.0.0/GD32F30x_Demo_Suites_V2.0.0/GD32F30x_Firmware_Library/GD32F30x_standard_peripheral/Source\gd32f30x_timer.c ****     /* configure TIMER_CH_0 */
1396:C:/Users/49542/Desktop/GD32F30x_Demo_Suites_V2.0.0/GD32F30x_Demo_Suites_V2.0.0/GD32F30x_Firmware_Library/GD32F30x_standard_peripheral/Source\gd32f30x_timer.c ****     case TIMER_CH_0:
1397:C:/Users/49542/Desktop/GD32F30x_Demo_Suites_V2.0.0/GD32F30x_Demo_Suites_V2.0.0/GD32F30x_Firmware_Library/GD32F30x_standard_peripheral/Source\gd32f30x_timer.c ****         /* reset the CH0EN bit */
1398:C:/Users/49542/Desktop/GD32F30x_Demo_Suites_V2.0.0/GD32F30x_Demo_Suites_V2.0.0/GD32F30x_Firmware_Library/GD32F30x_standard_peripheral/Source\gd32f30x_timer.c ****         TIMER_CHCTL2(timer_periph) &= (~(uint32_t)TIMER_CHCTL2_CH0EN);
 4598              		.loc 1 1398 0
 4599 002c FB68     		ldr	r3, [r7, #12]
 4600 002e 2033     		adds	r3, r3, #32
 4601 0030 1B68     		ldr	r3, [r3]
 4602 0032 FA68     		ldr	r2, [r7, #12]
 4603 0034 2032     		adds	r2, r2, #32
 4604 0036 23F00103 		bic	r3, r3, #1
 4605 003a 1360     		str	r3, [r2]
1399:C:/Users/49542/Desktop/GD32F30x_Demo_Suites_V2.0.0/GD32F30x_Demo_Suites_V2.0.0/GD32F30x_Firmware_Library/GD32F30x_standard_peripheral/Source\gd32f30x_timer.c **** 
1400:C:/Users/49542/Desktop/GD32F30x_Demo_Suites_V2.0.0/GD32F30x_Demo_Suites_V2.0.0/GD32F30x_Firmware_Library/GD32F30x_standard_peripheral/Source\gd32f30x_timer.c ****         /* reset the CH0P and CH0NP bits */
1401:C:/Users/49542/Desktop/GD32F30x_Demo_Suites_V2.0.0/GD32F30x_Demo_Suites_V2.0.0/GD32F30x_Firmware_Library/GD32F30x_standard_peripheral/Source\gd32f30x_timer.c ****         TIMER_CHCTL2(timer_periph) &= (~(uint32_t)(TIMER_CHCTL2_CH0P | TIMER_CHCTL2_CH0NP));
 4606              		.loc 1 1401 0
ARM GAS  C:\Users\49542\AppData\Local\Temp\ccx6VnNU.s 			page 106


 4607 003c FB68     		ldr	r3, [r7, #12]
 4608 003e 2033     		adds	r3, r3, #32
 4609 0040 1B68     		ldr	r3, [r3]
 4610 0042 FA68     		ldr	r2, [r7, #12]
 4611 0044 2032     		adds	r2, r2, #32
 4612 0046 23F00A03 		bic	r3, r3, #10
 4613 004a 1360     		str	r3, [r2]
1402:C:/Users/49542/Desktop/GD32F30x_Demo_Suites_V2.0.0/GD32F30x_Demo_Suites_V2.0.0/GD32F30x_Firmware_Library/GD32F30x_standard_peripheral/Source\gd32f30x_timer.c ****         TIMER_CHCTL2(timer_periph) |= (uint32_t)(icpara->icpolarity);
 4614              		.loc 1 1402 0
 4615 004c FB68     		ldr	r3, [r7, #12]
 4616 004e 2033     		adds	r3, r3, #32
 4617 0050 1B68     		ldr	r3, [r3]
 4618 0052 7A68     		ldr	r2, [r7, #4]
 4619 0054 1288     		ldrh	r2, [r2]
 4620 0056 1146     		mov	r1, r2
 4621 0058 FA68     		ldr	r2, [r7, #12]
 4622 005a 2032     		adds	r2, r2, #32
 4623 005c 0B43     		orrs	r3, r3, r1
 4624 005e 1360     		str	r3, [r2]
1403:C:/Users/49542/Desktop/GD32F30x_Demo_Suites_V2.0.0/GD32F30x_Demo_Suites_V2.0.0/GD32F30x_Firmware_Library/GD32F30x_standard_peripheral/Source\gd32f30x_timer.c ****         /* reset the CH0MS bit */
1404:C:/Users/49542/Desktop/GD32F30x_Demo_Suites_V2.0.0/GD32F30x_Demo_Suites_V2.0.0/GD32F30x_Firmware_Library/GD32F30x_standard_peripheral/Source\gd32f30x_timer.c ****         TIMER_CHCTL0(timer_periph) &= (~(uint32_t)TIMER_CHCTL0_CH0MS);
 4625              		.loc 1 1404 0
 4626 0060 FB68     		ldr	r3, [r7, #12]
 4627 0062 1833     		adds	r3, r3, #24
 4628 0064 1B68     		ldr	r3, [r3]
 4629 0066 FA68     		ldr	r2, [r7, #12]
 4630 0068 1832     		adds	r2, r2, #24
 4631 006a 23F00303 		bic	r3, r3, #3
 4632 006e 1360     		str	r3, [r2]
1405:C:/Users/49542/Desktop/GD32F30x_Demo_Suites_V2.0.0/GD32F30x_Demo_Suites_V2.0.0/GD32F30x_Firmware_Library/GD32F30x_standard_peripheral/Source\gd32f30x_timer.c ****         TIMER_CHCTL0(timer_periph) |= (uint32_t)(icpara->icselection);
 4633              		.loc 1 1405 0
 4634 0070 FB68     		ldr	r3, [r7, #12]
 4635 0072 1833     		adds	r3, r3, #24
 4636 0074 1B68     		ldr	r3, [r3]
 4637 0076 7A68     		ldr	r2, [r7, #4]
 4638 0078 5288     		ldrh	r2, [r2, #2]
 4639 007a 1146     		mov	r1, r2
 4640 007c FA68     		ldr	r2, [r7, #12]
 4641 007e 1832     		adds	r2, r2, #24
 4642 0080 0B43     		orrs	r3, r3, r1
 4643 0082 1360     		str	r3, [r2]
1406:C:/Users/49542/Desktop/GD32F30x_Demo_Suites_V2.0.0/GD32F30x_Demo_Suites_V2.0.0/GD32F30x_Firmware_Library/GD32F30x_standard_peripheral/Source\gd32f30x_timer.c ****         /* reset the CH0CAPFLT bit */
1407:C:/Users/49542/Desktop/GD32F30x_Demo_Suites_V2.0.0/GD32F30x_Demo_Suites_V2.0.0/GD32F30x_Firmware_Library/GD32F30x_standard_peripheral/Source\gd32f30x_timer.c ****         TIMER_CHCTL0(timer_periph) &= (~(uint32_t)TIMER_CHCTL0_CH0CAPFLT);
 4644              		.loc 1 1407 0
 4645 0084 FB68     		ldr	r3, [r7, #12]
 4646 0086 1833     		adds	r3, r3, #24
 4647 0088 1B68     		ldr	r3, [r3]
 4648 008a FA68     		ldr	r2, [r7, #12]
 4649 008c 1832     		adds	r2, r2, #24
 4650 008e 23F0F003 		bic	r3, r3, #240
 4651 0092 1360     		str	r3, [r2]
1408:C:/Users/49542/Desktop/GD32F30x_Demo_Suites_V2.0.0/GD32F30x_Demo_Suites_V2.0.0/GD32F30x_Firmware_Library/GD32F30x_standard_peripheral/Source\gd32f30x_timer.c ****         TIMER_CHCTL0(timer_periph) |= (uint32_t)((uint32_t)(icpara->icfilter) << 4U);
 4652              		.loc 1 1408 0
 4653 0094 FB68     		ldr	r3, [r7, #12]
 4654 0096 1833     		adds	r3, r3, #24
 4655 0098 1A68     		ldr	r2, [r3]
 4656 009a 7B68     		ldr	r3, [r7, #4]
ARM GAS  C:\Users\49542\AppData\Local\Temp\ccx6VnNU.s 			page 107


 4657 009c DB88     		ldrh	r3, [r3, #6]
 4658 009e 1B01     		lsls	r3, r3, #4
 4659 00a0 F968     		ldr	r1, [r7, #12]
 4660 00a2 1831     		adds	r1, r1, #24
 4661 00a4 1343     		orrs	r3, r3, r2
 4662 00a6 0B60     		str	r3, [r1]
1409:C:/Users/49542/Desktop/GD32F30x_Demo_Suites_V2.0.0/GD32F30x_Demo_Suites_V2.0.0/GD32F30x_Firmware_Library/GD32F30x_standard_peripheral/Source\gd32f30x_timer.c **** 
1410:C:/Users/49542/Desktop/GD32F30x_Demo_Suites_V2.0.0/GD32F30x_Demo_Suites_V2.0.0/GD32F30x_Firmware_Library/GD32F30x_standard_peripheral/Source\gd32f30x_timer.c ****         /* set the CH0EN bit */
1411:C:/Users/49542/Desktop/GD32F30x_Demo_Suites_V2.0.0/GD32F30x_Demo_Suites_V2.0.0/GD32F30x_Firmware_Library/GD32F30x_standard_peripheral/Source\gd32f30x_timer.c ****         TIMER_CHCTL2(timer_periph) |= (uint32_t)TIMER_CHCTL2_CH0EN;
 4663              		.loc 1 1411 0
 4664 00a8 FB68     		ldr	r3, [r7, #12]
 4665 00aa 2033     		adds	r3, r3, #32
 4666 00ac 1B68     		ldr	r3, [r3]
 4667 00ae FA68     		ldr	r2, [r7, #12]
 4668 00b0 2032     		adds	r2, r2, #32
 4669 00b2 43F00103 		orr	r3, r3, #1
 4670 00b6 1360     		str	r3, [r2]
1412:C:/Users/49542/Desktop/GD32F30x_Demo_Suites_V2.0.0/GD32F30x_Demo_Suites_V2.0.0/GD32F30x_Firmware_Library/GD32F30x_standard_peripheral/Source\gd32f30x_timer.c ****         break;
 4671              		.loc 1 1412 0
 4672 00b8 D5E0     		b	.L204
 4673              	.L201:
1413:C:/Users/49542/Desktop/GD32F30x_Demo_Suites_V2.0.0/GD32F30x_Demo_Suites_V2.0.0/GD32F30x_Firmware_Library/GD32F30x_standard_peripheral/Source\gd32f30x_timer.c ****     
1414:C:/Users/49542/Desktop/GD32F30x_Demo_Suites_V2.0.0/GD32F30x_Demo_Suites_V2.0.0/GD32F30x_Firmware_Library/GD32F30x_standard_peripheral/Source\gd32f30x_timer.c ****     /* configure TIMER_CH_1 */
1415:C:/Users/49542/Desktop/GD32F30x_Demo_Suites_V2.0.0/GD32F30x_Demo_Suites_V2.0.0/GD32F30x_Firmware_Library/GD32F30x_standard_peripheral/Source\gd32f30x_timer.c ****     case TIMER_CH_1:
1416:C:/Users/49542/Desktop/GD32F30x_Demo_Suites_V2.0.0/GD32F30x_Demo_Suites_V2.0.0/GD32F30x_Firmware_Library/GD32F30x_standard_peripheral/Source\gd32f30x_timer.c ****         /* reset the CH1EN bit */
1417:C:/Users/49542/Desktop/GD32F30x_Demo_Suites_V2.0.0/GD32F30x_Demo_Suites_V2.0.0/GD32F30x_Firmware_Library/GD32F30x_standard_peripheral/Source\gd32f30x_timer.c ****         TIMER_CHCTL2(timer_periph) &= (~(uint32_t)TIMER_CHCTL2_CH1EN);
 4674              		.loc 1 1417 0
 4675 00ba FB68     		ldr	r3, [r7, #12]
 4676 00bc 2033     		adds	r3, r3, #32
 4677 00be 1B68     		ldr	r3, [r3]
 4678 00c0 FA68     		ldr	r2, [r7, #12]
 4679 00c2 2032     		adds	r2, r2, #32
 4680 00c4 23F01003 		bic	r3, r3, #16
 4681 00c8 1360     		str	r3, [r2]
1418:C:/Users/49542/Desktop/GD32F30x_Demo_Suites_V2.0.0/GD32F30x_Demo_Suites_V2.0.0/GD32F30x_Firmware_Library/GD32F30x_standard_peripheral/Source\gd32f30x_timer.c **** 
1419:C:/Users/49542/Desktop/GD32F30x_Demo_Suites_V2.0.0/GD32F30x_Demo_Suites_V2.0.0/GD32F30x_Firmware_Library/GD32F30x_standard_peripheral/Source\gd32f30x_timer.c ****         /* reset the CH1P and CH1NP bits */
1420:C:/Users/49542/Desktop/GD32F30x_Demo_Suites_V2.0.0/GD32F30x_Demo_Suites_V2.0.0/GD32F30x_Firmware_Library/GD32F30x_standard_peripheral/Source\gd32f30x_timer.c ****         TIMER_CHCTL2(timer_periph) &= (~(uint32_t)(TIMER_CHCTL2_CH1P | TIMER_CHCTL2_CH1NP));
 4682              		.loc 1 1420 0
 4683 00ca FB68     		ldr	r3, [r7, #12]
 4684 00cc 2033     		adds	r3, r3, #32
 4685 00ce 1B68     		ldr	r3, [r3]
 4686 00d0 FA68     		ldr	r2, [r7, #12]
 4687 00d2 2032     		adds	r2, r2, #32
 4688 00d4 23F0A003 		bic	r3, r3, #160
 4689 00d8 1360     		str	r3, [r2]
1421:C:/Users/49542/Desktop/GD32F30x_Demo_Suites_V2.0.0/GD32F30x_Demo_Suites_V2.0.0/GD32F30x_Firmware_Library/GD32F30x_standard_peripheral/Source\gd32f30x_timer.c ****         TIMER_CHCTL2(timer_periph) |= (uint32_t)((uint32_t)(icpara->icpolarity) << 4U);
 4690              		.loc 1 1421 0
 4691 00da FB68     		ldr	r3, [r7, #12]
 4692 00dc 2033     		adds	r3, r3, #32
 4693 00de 1A68     		ldr	r2, [r3]
 4694 00e0 7B68     		ldr	r3, [r7, #4]
 4695 00e2 1B88     		ldrh	r3, [r3]
 4696 00e4 1B01     		lsls	r3, r3, #4
 4697 00e6 F968     		ldr	r1, [r7, #12]
 4698 00e8 2031     		adds	r1, r1, #32
 4699 00ea 1343     		orrs	r3, r3, r2
 4700 00ec 0B60     		str	r3, [r1]
ARM GAS  C:\Users\49542\AppData\Local\Temp\ccx6VnNU.s 			page 108


1422:C:/Users/49542/Desktop/GD32F30x_Demo_Suites_V2.0.0/GD32F30x_Demo_Suites_V2.0.0/GD32F30x_Firmware_Library/GD32F30x_standard_peripheral/Source\gd32f30x_timer.c ****         /* reset the CH1MS bit */
1423:C:/Users/49542/Desktop/GD32F30x_Demo_Suites_V2.0.0/GD32F30x_Demo_Suites_V2.0.0/GD32F30x_Firmware_Library/GD32F30x_standard_peripheral/Source\gd32f30x_timer.c ****         TIMER_CHCTL0(timer_periph) &= (~(uint32_t)TIMER_CHCTL0_CH1MS);
 4701              		.loc 1 1423 0
 4702 00ee FB68     		ldr	r3, [r7, #12]
 4703 00f0 1833     		adds	r3, r3, #24
 4704 00f2 1B68     		ldr	r3, [r3]
 4705 00f4 FA68     		ldr	r2, [r7, #12]
 4706 00f6 1832     		adds	r2, r2, #24
 4707 00f8 23F44073 		bic	r3, r3, #768
 4708 00fc 1360     		str	r3, [r2]
1424:C:/Users/49542/Desktop/GD32F30x_Demo_Suites_V2.0.0/GD32F30x_Demo_Suites_V2.0.0/GD32F30x_Firmware_Library/GD32F30x_standard_peripheral/Source\gd32f30x_timer.c ****         TIMER_CHCTL0(timer_periph) |= (uint32_t)((uint32_t)(icpara->icselection) << 8U);
 4709              		.loc 1 1424 0
 4710 00fe FB68     		ldr	r3, [r7, #12]
 4711 0100 1833     		adds	r3, r3, #24
 4712 0102 1A68     		ldr	r2, [r3]
 4713 0104 7B68     		ldr	r3, [r7, #4]
 4714 0106 5B88     		ldrh	r3, [r3, #2]
 4715 0108 1B02     		lsls	r3, r3, #8
 4716 010a F968     		ldr	r1, [r7, #12]
 4717 010c 1831     		adds	r1, r1, #24
 4718 010e 1343     		orrs	r3, r3, r2
 4719 0110 0B60     		str	r3, [r1]
1425:C:/Users/49542/Desktop/GD32F30x_Demo_Suites_V2.0.0/GD32F30x_Demo_Suites_V2.0.0/GD32F30x_Firmware_Library/GD32F30x_standard_peripheral/Source\gd32f30x_timer.c ****         /* reset the CH1CAPFLT bit */
1426:C:/Users/49542/Desktop/GD32F30x_Demo_Suites_V2.0.0/GD32F30x_Demo_Suites_V2.0.0/GD32F30x_Firmware_Library/GD32F30x_standard_peripheral/Source\gd32f30x_timer.c ****         TIMER_CHCTL0(timer_periph) &= (~(uint32_t)TIMER_CHCTL0_CH1CAPFLT);
 4720              		.loc 1 1426 0
 4721 0112 FB68     		ldr	r3, [r7, #12]
 4722 0114 1833     		adds	r3, r3, #24
 4723 0116 1B68     		ldr	r3, [r3]
 4724 0118 FA68     		ldr	r2, [r7, #12]
 4725 011a 1832     		adds	r2, r2, #24
 4726 011c 23F47043 		bic	r3, r3, #61440
 4727 0120 1360     		str	r3, [r2]
1427:C:/Users/49542/Desktop/GD32F30x_Demo_Suites_V2.0.0/GD32F30x_Demo_Suites_V2.0.0/GD32F30x_Firmware_Library/GD32F30x_standard_peripheral/Source\gd32f30x_timer.c ****         TIMER_CHCTL0(timer_periph) |= (uint32_t)((uint32_t)(icpara->icfilter) << 12U);
 4728              		.loc 1 1427 0
 4729 0122 FB68     		ldr	r3, [r7, #12]
 4730 0124 1833     		adds	r3, r3, #24
 4731 0126 1A68     		ldr	r2, [r3]
 4732 0128 7B68     		ldr	r3, [r7, #4]
 4733 012a DB88     		ldrh	r3, [r3, #6]
 4734 012c 1B03     		lsls	r3, r3, #12
 4735 012e F968     		ldr	r1, [r7, #12]
 4736 0130 1831     		adds	r1, r1, #24
 4737 0132 1343     		orrs	r3, r3, r2
 4738 0134 0B60     		str	r3, [r1]
1428:C:/Users/49542/Desktop/GD32F30x_Demo_Suites_V2.0.0/GD32F30x_Demo_Suites_V2.0.0/GD32F30x_Firmware_Library/GD32F30x_standard_peripheral/Source\gd32f30x_timer.c **** 
1429:C:/Users/49542/Desktop/GD32F30x_Demo_Suites_V2.0.0/GD32F30x_Demo_Suites_V2.0.0/GD32F30x_Firmware_Library/GD32F30x_standard_peripheral/Source\gd32f30x_timer.c ****         /* set the CH1EN bit */
1430:C:/Users/49542/Desktop/GD32F30x_Demo_Suites_V2.0.0/GD32F30x_Demo_Suites_V2.0.0/GD32F30x_Firmware_Library/GD32F30x_standard_peripheral/Source\gd32f30x_timer.c ****         TIMER_CHCTL2(timer_periph) |= (uint32_t)TIMER_CHCTL2_CH1EN;
 4739              		.loc 1 1430 0
 4740 0136 FB68     		ldr	r3, [r7, #12]
 4741 0138 2033     		adds	r3, r3, #32
 4742 013a 1B68     		ldr	r3, [r3]
 4743 013c FA68     		ldr	r2, [r7, #12]
 4744 013e 2032     		adds	r2, r2, #32
 4745 0140 43F01003 		orr	r3, r3, #16
 4746 0144 1360     		str	r3, [r2]
1431:C:/Users/49542/Desktop/GD32F30x_Demo_Suites_V2.0.0/GD32F30x_Demo_Suites_V2.0.0/GD32F30x_Firmware_Library/GD32F30x_standard_peripheral/Source\gd32f30x_timer.c ****         break;
 4747              		.loc 1 1431 0
ARM GAS  C:\Users\49542\AppData\Local\Temp\ccx6VnNU.s 			page 109


 4748 0146 8EE0     		b	.L204
 4749              	.L202:
1432:C:/Users/49542/Desktop/GD32F30x_Demo_Suites_V2.0.0/GD32F30x_Demo_Suites_V2.0.0/GD32F30x_Firmware_Library/GD32F30x_standard_peripheral/Source\gd32f30x_timer.c ****     /* configure TIMER_CH_2 */
1433:C:/Users/49542/Desktop/GD32F30x_Demo_Suites_V2.0.0/GD32F30x_Demo_Suites_V2.0.0/GD32F30x_Firmware_Library/GD32F30x_standard_peripheral/Source\gd32f30x_timer.c ****     case TIMER_CH_2:
1434:C:/Users/49542/Desktop/GD32F30x_Demo_Suites_V2.0.0/GD32F30x_Demo_Suites_V2.0.0/GD32F30x_Firmware_Library/GD32F30x_standard_peripheral/Source\gd32f30x_timer.c ****         /* reset the CH2EN bit */
1435:C:/Users/49542/Desktop/GD32F30x_Demo_Suites_V2.0.0/GD32F30x_Demo_Suites_V2.0.0/GD32F30x_Firmware_Library/GD32F30x_standard_peripheral/Source\gd32f30x_timer.c ****         TIMER_CHCTL2(timer_periph) &= (~(uint32_t)TIMER_CHCTL2_CH2EN);
 4750              		.loc 1 1435 0
 4751 0148 FB68     		ldr	r3, [r7, #12]
 4752 014a 2033     		adds	r3, r3, #32
 4753 014c 1B68     		ldr	r3, [r3]
 4754 014e FA68     		ldr	r2, [r7, #12]
 4755 0150 2032     		adds	r2, r2, #32
 4756 0152 23F48073 		bic	r3, r3, #256
 4757 0156 1360     		str	r3, [r2]
1436:C:/Users/49542/Desktop/GD32F30x_Demo_Suites_V2.0.0/GD32F30x_Demo_Suites_V2.0.0/GD32F30x_Firmware_Library/GD32F30x_standard_peripheral/Source\gd32f30x_timer.c **** 
1437:C:/Users/49542/Desktop/GD32F30x_Demo_Suites_V2.0.0/GD32F30x_Demo_Suites_V2.0.0/GD32F30x_Firmware_Library/GD32F30x_standard_peripheral/Source\gd32f30x_timer.c ****         /* reset the CH2P and CH2NP bits */
1438:C:/Users/49542/Desktop/GD32F30x_Demo_Suites_V2.0.0/GD32F30x_Demo_Suites_V2.0.0/GD32F30x_Firmware_Library/GD32F30x_standard_peripheral/Source\gd32f30x_timer.c ****         TIMER_CHCTL2(timer_periph) &= (~(uint32_t)(TIMER_CHCTL2_CH2P|TIMER_CHCTL2_CH2NP));
 4758              		.loc 1 1438 0
 4759 0158 FB68     		ldr	r3, [r7, #12]
 4760 015a 2033     		adds	r3, r3, #32
 4761 015c 1B68     		ldr	r3, [r3]
 4762 015e FA68     		ldr	r2, [r7, #12]
 4763 0160 2032     		adds	r2, r2, #32
 4764 0162 23F42063 		bic	r3, r3, #2560
 4765 0166 1360     		str	r3, [r2]
1439:C:/Users/49542/Desktop/GD32F30x_Demo_Suites_V2.0.0/GD32F30x_Demo_Suites_V2.0.0/GD32F30x_Firmware_Library/GD32F30x_standard_peripheral/Source\gd32f30x_timer.c ****         TIMER_CHCTL2(timer_periph) |= (uint32_t)((uint32_t)(icpara->icpolarity) << 8U);
 4766              		.loc 1 1439 0
 4767 0168 FB68     		ldr	r3, [r7, #12]
 4768 016a 2033     		adds	r3, r3, #32
 4769 016c 1A68     		ldr	r2, [r3]
 4770 016e 7B68     		ldr	r3, [r7, #4]
 4771 0170 1B88     		ldrh	r3, [r3]
 4772 0172 1B02     		lsls	r3, r3, #8
 4773 0174 F968     		ldr	r1, [r7, #12]
 4774 0176 2031     		adds	r1, r1, #32
 4775 0178 1343     		orrs	r3, r3, r2
 4776 017a 0B60     		str	r3, [r1]
1440:C:/Users/49542/Desktop/GD32F30x_Demo_Suites_V2.0.0/GD32F30x_Demo_Suites_V2.0.0/GD32F30x_Firmware_Library/GD32F30x_standard_peripheral/Source\gd32f30x_timer.c **** 
1441:C:/Users/49542/Desktop/GD32F30x_Demo_Suites_V2.0.0/GD32F30x_Demo_Suites_V2.0.0/GD32F30x_Firmware_Library/GD32F30x_standard_peripheral/Source\gd32f30x_timer.c ****         /* reset the CH2MS bit */
1442:C:/Users/49542/Desktop/GD32F30x_Demo_Suites_V2.0.0/GD32F30x_Demo_Suites_V2.0.0/GD32F30x_Firmware_Library/GD32F30x_standard_peripheral/Source\gd32f30x_timer.c ****         TIMER_CHCTL1(timer_periph) &= (~(uint32_t)TIMER_CHCTL1_CH2MS);
 4777              		.loc 1 1442 0
 4778 017c FB68     		ldr	r3, [r7, #12]
 4779 017e 1C33     		adds	r3, r3, #28
 4780 0180 1B68     		ldr	r3, [r3]
 4781 0182 FA68     		ldr	r2, [r7, #12]
 4782 0184 1C32     		adds	r2, r2, #28
 4783 0186 23F00303 		bic	r3, r3, #3
 4784 018a 1360     		str	r3, [r2]
1443:C:/Users/49542/Desktop/GD32F30x_Demo_Suites_V2.0.0/GD32F30x_Demo_Suites_V2.0.0/GD32F30x_Firmware_Library/GD32F30x_standard_peripheral/Source\gd32f30x_timer.c ****         TIMER_CHCTL1(timer_periph) |= (uint32_t)((uint32_t)(icpara->icselection));
 4785              		.loc 1 1443 0
 4786 018c FB68     		ldr	r3, [r7, #12]
 4787 018e 1C33     		adds	r3, r3, #28
 4788 0190 1B68     		ldr	r3, [r3]
 4789 0192 7A68     		ldr	r2, [r7, #4]
 4790 0194 5288     		ldrh	r2, [r2, #2]
 4791 0196 1146     		mov	r1, r2
 4792 0198 FA68     		ldr	r2, [r7, #12]
ARM GAS  C:\Users\49542\AppData\Local\Temp\ccx6VnNU.s 			page 110


 4793 019a 1C32     		adds	r2, r2, #28
 4794 019c 0B43     		orrs	r3, r3, r1
 4795 019e 1360     		str	r3, [r2]
1444:C:/Users/49542/Desktop/GD32F30x_Demo_Suites_V2.0.0/GD32F30x_Demo_Suites_V2.0.0/GD32F30x_Firmware_Library/GD32F30x_standard_peripheral/Source\gd32f30x_timer.c **** 
1445:C:/Users/49542/Desktop/GD32F30x_Demo_Suites_V2.0.0/GD32F30x_Demo_Suites_V2.0.0/GD32F30x_Firmware_Library/GD32F30x_standard_peripheral/Source\gd32f30x_timer.c ****         /* reset the CH2CAPFLT bit */
1446:C:/Users/49542/Desktop/GD32F30x_Demo_Suites_V2.0.0/GD32F30x_Demo_Suites_V2.0.0/GD32F30x_Firmware_Library/GD32F30x_standard_peripheral/Source\gd32f30x_timer.c ****         TIMER_CHCTL1(timer_periph) &= (~(uint32_t)TIMER_CHCTL1_CH2CAPFLT);
 4796              		.loc 1 1446 0
 4797 01a0 FB68     		ldr	r3, [r7, #12]
 4798 01a2 1C33     		adds	r3, r3, #28
 4799 01a4 1B68     		ldr	r3, [r3]
 4800 01a6 FA68     		ldr	r2, [r7, #12]
 4801 01a8 1C32     		adds	r2, r2, #28
 4802 01aa 23F0F003 		bic	r3, r3, #240
 4803 01ae 1360     		str	r3, [r2]
1447:C:/Users/49542/Desktop/GD32F30x_Demo_Suites_V2.0.0/GD32F30x_Demo_Suites_V2.0.0/GD32F30x_Firmware_Library/GD32F30x_standard_peripheral/Source\gd32f30x_timer.c ****         TIMER_CHCTL1(timer_periph) |= (uint32_t)((uint32_t)(icpara->icfilter) << 4U);
 4804              		.loc 1 1447 0
 4805 01b0 FB68     		ldr	r3, [r7, #12]
 4806 01b2 1C33     		adds	r3, r3, #28
 4807 01b4 1A68     		ldr	r2, [r3]
 4808 01b6 7B68     		ldr	r3, [r7, #4]
 4809 01b8 DB88     		ldrh	r3, [r3, #6]
 4810 01ba 1B01     		lsls	r3, r3, #4
 4811 01bc F968     		ldr	r1, [r7, #12]
 4812 01be 1C31     		adds	r1, r1, #28
 4813 01c0 1343     		orrs	r3, r3, r2
 4814 01c2 0B60     		str	r3, [r1]
1448:C:/Users/49542/Desktop/GD32F30x_Demo_Suites_V2.0.0/GD32F30x_Demo_Suites_V2.0.0/GD32F30x_Firmware_Library/GD32F30x_standard_peripheral/Source\gd32f30x_timer.c **** 
1449:C:/Users/49542/Desktop/GD32F30x_Demo_Suites_V2.0.0/GD32F30x_Demo_Suites_V2.0.0/GD32F30x_Firmware_Library/GD32F30x_standard_peripheral/Source\gd32f30x_timer.c ****         /* set the CH2EN bit */
1450:C:/Users/49542/Desktop/GD32F30x_Demo_Suites_V2.0.0/GD32F30x_Demo_Suites_V2.0.0/GD32F30x_Firmware_Library/GD32F30x_standard_peripheral/Source\gd32f30x_timer.c ****         TIMER_CHCTL2(timer_periph) |= (uint32_t)TIMER_CHCTL2_CH2EN;
 4815              		.loc 1 1450 0
 4816 01c4 FB68     		ldr	r3, [r7, #12]
 4817 01c6 2033     		adds	r3, r3, #32
 4818 01c8 1B68     		ldr	r3, [r3]
 4819 01ca FA68     		ldr	r2, [r7, #12]
 4820 01cc 2032     		adds	r2, r2, #32
 4821 01ce 43F48073 		orr	r3, r3, #256
 4822 01d2 1360     		str	r3, [r2]
1451:C:/Users/49542/Desktop/GD32F30x_Demo_Suites_V2.0.0/GD32F30x_Demo_Suites_V2.0.0/GD32F30x_Firmware_Library/GD32F30x_standard_peripheral/Source\gd32f30x_timer.c ****         break;
 4823              		.loc 1 1451 0
 4824 01d4 47E0     		b	.L204
 4825              	.L203:
1452:C:/Users/49542/Desktop/GD32F30x_Demo_Suites_V2.0.0/GD32F30x_Demo_Suites_V2.0.0/GD32F30x_Firmware_Library/GD32F30x_standard_peripheral/Source\gd32f30x_timer.c ****     /* configure TIMER_CH_3 */
1453:C:/Users/49542/Desktop/GD32F30x_Demo_Suites_V2.0.0/GD32F30x_Demo_Suites_V2.0.0/GD32F30x_Firmware_Library/GD32F30x_standard_peripheral/Source\gd32f30x_timer.c ****     case TIMER_CH_3:
1454:C:/Users/49542/Desktop/GD32F30x_Demo_Suites_V2.0.0/GD32F30x_Demo_Suites_V2.0.0/GD32F30x_Firmware_Library/GD32F30x_standard_peripheral/Source\gd32f30x_timer.c ****         /* reset the CH3EN bit */
1455:C:/Users/49542/Desktop/GD32F30x_Demo_Suites_V2.0.0/GD32F30x_Demo_Suites_V2.0.0/GD32F30x_Firmware_Library/GD32F30x_standard_peripheral/Source\gd32f30x_timer.c ****         TIMER_CHCTL2(timer_periph) &= (~(uint32_t)TIMER_CHCTL2_CH3EN);
 4826              		.loc 1 1455 0
 4827 01d6 FB68     		ldr	r3, [r7, #12]
 4828 01d8 2033     		adds	r3, r3, #32
 4829 01da 1B68     		ldr	r3, [r3]
 4830 01dc FA68     		ldr	r2, [r7, #12]
 4831 01de 2032     		adds	r2, r2, #32
 4832 01e0 23F48053 		bic	r3, r3, #4096
 4833 01e4 1360     		str	r3, [r2]
1456:C:/Users/49542/Desktop/GD32F30x_Demo_Suites_V2.0.0/GD32F30x_Demo_Suites_V2.0.0/GD32F30x_Firmware_Library/GD32F30x_standard_peripheral/Source\gd32f30x_timer.c **** 
1457:C:/Users/49542/Desktop/GD32F30x_Demo_Suites_V2.0.0/GD32F30x_Demo_Suites_V2.0.0/GD32F30x_Firmware_Library/GD32F30x_standard_peripheral/Source\gd32f30x_timer.c ****         /* reset the CH3P bits */
1458:C:/Users/49542/Desktop/GD32F30x_Demo_Suites_V2.0.0/GD32F30x_Demo_Suites_V2.0.0/GD32F30x_Firmware_Library/GD32F30x_standard_peripheral/Source\gd32f30x_timer.c ****         TIMER_CHCTL2(timer_periph) &= (~(uint32_t)(TIMER_CHCTL2_CH3P));
 4834              		.loc 1 1458 0
ARM GAS  C:\Users\49542\AppData\Local\Temp\ccx6VnNU.s 			page 111


 4835 01e6 FB68     		ldr	r3, [r7, #12]
 4836 01e8 2033     		adds	r3, r3, #32
 4837 01ea 1B68     		ldr	r3, [r3]
 4838 01ec FA68     		ldr	r2, [r7, #12]
 4839 01ee 2032     		adds	r2, r2, #32
 4840 01f0 23F40053 		bic	r3, r3, #8192
 4841 01f4 1360     		str	r3, [r2]
1459:C:/Users/49542/Desktop/GD32F30x_Demo_Suites_V2.0.0/GD32F30x_Demo_Suites_V2.0.0/GD32F30x_Firmware_Library/GD32F30x_standard_peripheral/Source\gd32f30x_timer.c ****         TIMER_CHCTL2(timer_periph) |= (uint32_t)((uint32_t)(icpara->icpolarity) << 12U);
 4842              		.loc 1 1459 0
 4843 01f6 FB68     		ldr	r3, [r7, #12]
 4844 01f8 2033     		adds	r3, r3, #32
 4845 01fa 1A68     		ldr	r2, [r3]
 4846 01fc 7B68     		ldr	r3, [r7, #4]
 4847 01fe 1B88     		ldrh	r3, [r3]
 4848 0200 1B03     		lsls	r3, r3, #12
 4849 0202 F968     		ldr	r1, [r7, #12]
 4850 0204 2031     		adds	r1, r1, #32
 4851 0206 1343     		orrs	r3, r3, r2
 4852 0208 0B60     		str	r3, [r1]
1460:C:/Users/49542/Desktop/GD32F30x_Demo_Suites_V2.0.0/GD32F30x_Demo_Suites_V2.0.0/GD32F30x_Firmware_Library/GD32F30x_standard_peripheral/Source\gd32f30x_timer.c **** 
1461:C:/Users/49542/Desktop/GD32F30x_Demo_Suites_V2.0.0/GD32F30x_Demo_Suites_V2.0.0/GD32F30x_Firmware_Library/GD32F30x_standard_peripheral/Source\gd32f30x_timer.c ****         /* reset the CH3MS bit */
1462:C:/Users/49542/Desktop/GD32F30x_Demo_Suites_V2.0.0/GD32F30x_Demo_Suites_V2.0.0/GD32F30x_Firmware_Library/GD32F30x_standard_peripheral/Source\gd32f30x_timer.c ****         TIMER_CHCTL1(timer_periph) &= (~(uint32_t)TIMER_CHCTL1_CH3MS);
 4853              		.loc 1 1462 0
 4854 020a FB68     		ldr	r3, [r7, #12]
 4855 020c 1C33     		adds	r3, r3, #28
 4856 020e 1B68     		ldr	r3, [r3]
 4857 0210 FA68     		ldr	r2, [r7, #12]
 4858 0212 1C32     		adds	r2, r2, #28
 4859 0214 23F44073 		bic	r3, r3, #768
 4860 0218 1360     		str	r3, [r2]
1463:C:/Users/49542/Desktop/GD32F30x_Demo_Suites_V2.0.0/GD32F30x_Demo_Suites_V2.0.0/GD32F30x_Firmware_Library/GD32F30x_standard_peripheral/Source\gd32f30x_timer.c ****         TIMER_CHCTL1(timer_periph) |= (uint32_t)((uint32_t)(icpara->icselection) << 8U);
 4861              		.loc 1 1463 0
 4862 021a FB68     		ldr	r3, [r7, #12]
 4863 021c 1C33     		adds	r3, r3, #28
 4864 021e 1A68     		ldr	r2, [r3]
 4865 0220 7B68     		ldr	r3, [r7, #4]
 4866 0222 5B88     		ldrh	r3, [r3, #2]
 4867 0224 1B02     		lsls	r3, r3, #8
 4868 0226 F968     		ldr	r1, [r7, #12]
 4869 0228 1C31     		adds	r1, r1, #28
 4870 022a 1343     		orrs	r3, r3, r2
 4871 022c 0B60     		str	r3, [r1]
1464:C:/Users/49542/Desktop/GD32F30x_Demo_Suites_V2.0.0/GD32F30x_Demo_Suites_V2.0.0/GD32F30x_Firmware_Library/GD32F30x_standard_peripheral/Source\gd32f30x_timer.c **** 
1465:C:/Users/49542/Desktop/GD32F30x_Demo_Suites_V2.0.0/GD32F30x_Demo_Suites_V2.0.0/GD32F30x_Firmware_Library/GD32F30x_standard_peripheral/Source\gd32f30x_timer.c ****         /* reset the CH3CAPFLT bit */
1466:C:/Users/49542/Desktop/GD32F30x_Demo_Suites_V2.0.0/GD32F30x_Demo_Suites_V2.0.0/GD32F30x_Firmware_Library/GD32F30x_standard_peripheral/Source\gd32f30x_timer.c ****         TIMER_CHCTL1(timer_periph) &= (~(uint32_t)TIMER_CHCTL1_CH3CAPFLT);
 4872              		.loc 1 1466 0
 4873 022e FB68     		ldr	r3, [r7, #12]
 4874 0230 1C33     		adds	r3, r3, #28
 4875 0232 1B68     		ldr	r3, [r3]
 4876 0234 FA68     		ldr	r2, [r7, #12]
 4877 0236 1C32     		adds	r2, r2, #28
 4878 0238 23F47043 		bic	r3, r3, #61440
 4879 023c 1360     		str	r3, [r2]
1467:C:/Users/49542/Desktop/GD32F30x_Demo_Suites_V2.0.0/GD32F30x_Demo_Suites_V2.0.0/GD32F30x_Firmware_Library/GD32F30x_standard_peripheral/Source\gd32f30x_timer.c ****         TIMER_CHCTL1(timer_periph) |= (uint32_t)((uint32_t)(icpara->icfilter) << 12U);
 4880              		.loc 1 1467 0
 4881 023e FB68     		ldr	r3, [r7, #12]
 4882 0240 1C33     		adds	r3, r3, #28
ARM GAS  C:\Users\49542\AppData\Local\Temp\ccx6VnNU.s 			page 112


 4883 0242 1A68     		ldr	r2, [r3]
 4884 0244 7B68     		ldr	r3, [r7, #4]
 4885 0246 DB88     		ldrh	r3, [r3, #6]
 4886 0248 1B03     		lsls	r3, r3, #12
 4887 024a F968     		ldr	r1, [r7, #12]
 4888 024c 1C31     		adds	r1, r1, #28
 4889 024e 1343     		orrs	r3, r3, r2
 4890 0250 0B60     		str	r3, [r1]
1468:C:/Users/49542/Desktop/GD32F30x_Demo_Suites_V2.0.0/GD32F30x_Demo_Suites_V2.0.0/GD32F30x_Firmware_Library/GD32F30x_standard_peripheral/Source\gd32f30x_timer.c **** 
1469:C:/Users/49542/Desktop/GD32F30x_Demo_Suites_V2.0.0/GD32F30x_Demo_Suites_V2.0.0/GD32F30x_Firmware_Library/GD32F30x_standard_peripheral/Source\gd32f30x_timer.c ****         /* set the CH3EN bit */
1470:C:/Users/49542/Desktop/GD32F30x_Demo_Suites_V2.0.0/GD32F30x_Demo_Suites_V2.0.0/GD32F30x_Firmware_Library/GD32F30x_standard_peripheral/Source\gd32f30x_timer.c ****         TIMER_CHCTL2(timer_periph) |= (uint32_t)TIMER_CHCTL2_CH3EN;
 4891              		.loc 1 1470 0
 4892 0252 FB68     		ldr	r3, [r7, #12]
 4893 0254 2033     		adds	r3, r3, #32
 4894 0256 1B68     		ldr	r3, [r3]
 4895 0258 FA68     		ldr	r2, [r7, #12]
 4896 025a 2032     		adds	r2, r2, #32
 4897 025c 43F48053 		orr	r3, r3, #4096
 4898 0260 1360     		str	r3, [r2]
1471:C:/Users/49542/Desktop/GD32F30x_Demo_Suites_V2.0.0/GD32F30x_Demo_Suites_V2.0.0/GD32F30x_Firmware_Library/GD32F30x_standard_peripheral/Source\gd32f30x_timer.c ****         break;
 4899              		.loc 1 1471 0
 4900 0262 00E0     		b	.L204
 4901              	.L205:
1472:C:/Users/49542/Desktop/GD32F30x_Demo_Suites_V2.0.0/GD32F30x_Demo_Suites_V2.0.0/GD32F30x_Firmware_Library/GD32F30x_standard_peripheral/Source\gd32f30x_timer.c ****     default:
1473:C:/Users/49542/Desktop/GD32F30x_Demo_Suites_V2.0.0/GD32F30x_Demo_Suites_V2.0.0/GD32F30x_Firmware_Library/GD32F30x_standard_peripheral/Source\gd32f30x_timer.c ****         break;
 4902              		.loc 1 1473 0
 4903 0264 00BF     		nop
 4904              	.L204:
1474:C:/Users/49542/Desktop/GD32F30x_Demo_Suites_V2.0.0/GD32F30x_Demo_Suites_V2.0.0/GD32F30x_Firmware_Library/GD32F30x_standard_peripheral/Source\gd32f30x_timer.c ****     }
1475:C:/Users/49542/Desktop/GD32F30x_Demo_Suites_V2.0.0/GD32F30x_Demo_Suites_V2.0.0/GD32F30x_Firmware_Library/GD32F30x_standard_peripheral/Source\gd32f30x_timer.c ****     /* configure TIMER channel input capture prescaler value */
1476:C:/Users/49542/Desktop/GD32F30x_Demo_Suites_V2.0.0/GD32F30x_Demo_Suites_V2.0.0/GD32F30x_Firmware_Library/GD32F30x_standard_peripheral/Source\gd32f30x_timer.c ****     timer_channel_input_capture_prescaler_config(timer_periph, channel, (uint16_t)(icpara->icpresca
 4905              		.loc 1 1476 0
 4906 0266 7B68     		ldr	r3, [r7, #4]
 4907 0268 9A88     		ldrh	r2, [r3, #4]
 4908 026a 7B89     		ldrh	r3, [r7, #10]
 4909 026c 1946     		mov	r1, r3
 4910 026e F868     		ldr	r0, [r7, #12]
 4911 0270 FFF7FEFF 		bl	timer_channel_input_capture_prescaler_config
1477:C:/Users/49542/Desktop/GD32F30x_Demo_Suites_V2.0.0/GD32F30x_Demo_Suites_V2.0.0/GD32F30x_Firmware_Library/GD32F30x_standard_peripheral/Source\gd32f30x_timer.c **** }
 4912              		.loc 1 1477 0
 4913 0274 00BF     		nop
 4914 0276 1037     		adds	r7, r7, #16
 4915              	.LCFI314:
 4916              		.cfi_def_cfa_offset 8
 4917 0278 BD46     		mov	sp, r7
 4918              	.LCFI315:
 4919              		.cfi_def_cfa_register 13
 4920              		@ sp needed
 4921 027a 80BD     		pop	{r7, pc}
 4922              		.cfi_endproc
 4923              	.LFE168:
 4925              		.section	.text.timer_channel_input_capture_prescaler_config,"ax",%progbits
 4926              		.align	1
 4927              		.global	timer_channel_input_capture_prescaler_config
 4928              		.syntax unified
 4929              		.thumb
 4930              		.thumb_func
ARM GAS  C:\Users\49542\AppData\Local\Temp\ccx6VnNU.s 			page 113


 4931              		.fpu fpv4-sp-d16
 4933              	timer_channel_input_capture_prescaler_config:
 4934              	.LFB169:
1478:C:/Users/49542/Desktop/GD32F30x_Demo_Suites_V2.0.0/GD32F30x_Demo_Suites_V2.0.0/GD32F30x_Firmware_Library/GD32F30x_standard_peripheral/Source\gd32f30x_timer.c **** 
1479:C:/Users/49542/Desktop/GD32F30x_Demo_Suites_V2.0.0/GD32F30x_Demo_Suites_V2.0.0/GD32F30x_Firmware_Library/GD32F30x_standard_peripheral/Source\gd32f30x_timer.c **** /*!
1480:C:/Users/49542/Desktop/GD32F30x_Demo_Suites_V2.0.0/GD32F30x_Demo_Suites_V2.0.0/GD32F30x_Firmware_Library/GD32F30x_standard_peripheral/Source\gd32f30x_timer.c ****     \brief      configure TIMER channel input capture prescaler value
1481:C:/Users/49542/Desktop/GD32F30x_Demo_Suites_V2.0.0/GD32F30x_Demo_Suites_V2.0.0/GD32F30x_Firmware_Library/GD32F30x_standard_peripheral/Source\gd32f30x_timer.c ****     \param[in]  timer_periph: please refer to the following parameters
1482:C:/Users/49542/Desktop/GD32F30x_Demo_Suites_V2.0.0/GD32F30x_Demo_Suites_V2.0.0/GD32F30x_Firmware_Library/GD32F30x_standard_peripheral/Source\gd32f30x_timer.c ****     \param[in]  channel: 
1483:C:/Users/49542/Desktop/GD32F30x_Demo_Suites_V2.0.0/GD32F30x_Demo_Suites_V2.0.0/GD32F30x_Firmware_Library/GD32F30x_standard_peripheral/Source\gd32f30x_timer.c ****                 only one parameter can be selected which is shown as below:
1484:C:/Users/49542/Desktop/GD32F30x_Demo_Suites_V2.0.0/GD32F30x_Demo_Suites_V2.0.0/GD32F30x_Firmware_Library/GD32F30x_standard_peripheral/Source\gd32f30x_timer.c ****       \arg        TIMER_CH_0: TIMER channel0(TIMERx(x=0..4,7..13))
1485:C:/Users/49542/Desktop/GD32F30x_Demo_Suites_V2.0.0/GD32F30x_Demo_Suites_V2.0.0/GD32F30x_Firmware_Library/GD32F30x_standard_peripheral/Source\gd32f30x_timer.c ****       \arg        TIMER_CH_1: TIMER channel1(TIMERx(x=0..4,7,8,11))
1486:C:/Users/49542/Desktop/GD32F30x_Demo_Suites_V2.0.0/GD32F30x_Demo_Suites_V2.0.0/GD32F30x_Firmware_Library/GD32F30x_standard_peripheral/Source\gd32f30x_timer.c ****       \arg        TIMER_CH_2: TIMER channel2(TIMERx(x=0..4,7))
1487:C:/Users/49542/Desktop/GD32F30x_Demo_Suites_V2.0.0/GD32F30x_Demo_Suites_V2.0.0/GD32F30x_Firmware_Library/GD32F30x_standard_peripheral/Source\gd32f30x_timer.c ****       \arg        TIMER_CH_3: TIMER channel3(TIMERx(x=0..4,7))
1488:C:/Users/49542/Desktop/GD32F30x_Demo_Suites_V2.0.0/GD32F30x_Demo_Suites_V2.0.0/GD32F30x_Firmware_Library/GD32F30x_standard_peripheral/Source\gd32f30x_timer.c ****     \param[in]  prescaler: channel input capture prescaler value
1489:C:/Users/49542/Desktop/GD32F30x_Demo_Suites_V2.0.0/GD32F30x_Demo_Suites_V2.0.0/GD32F30x_Firmware_Library/GD32F30x_standard_peripheral/Source\gd32f30x_timer.c ****                 only one parameter can be selected which is shown as below:
1490:C:/Users/49542/Desktop/GD32F30x_Demo_Suites_V2.0.0/GD32F30x_Demo_Suites_V2.0.0/GD32F30x_Firmware_Library/GD32F30x_standard_peripheral/Source\gd32f30x_timer.c ****       \arg        TIMER_IC_PSC_DIV1: no prescaler
1491:C:/Users/49542/Desktop/GD32F30x_Demo_Suites_V2.0.0/GD32F30x_Demo_Suites_V2.0.0/GD32F30x_Firmware_Library/GD32F30x_standard_peripheral/Source\gd32f30x_timer.c ****       \arg        TIMER_IC_PSC_DIV2: divided by 2
1492:C:/Users/49542/Desktop/GD32F30x_Demo_Suites_V2.0.0/GD32F30x_Demo_Suites_V2.0.0/GD32F30x_Firmware_Library/GD32F30x_standard_peripheral/Source\gd32f30x_timer.c ****       \arg        TIMER_IC_PSC_DIV4: divided by 4
1493:C:/Users/49542/Desktop/GD32F30x_Demo_Suites_V2.0.0/GD32F30x_Demo_Suites_V2.0.0/GD32F30x_Firmware_Library/GD32F30x_standard_peripheral/Source\gd32f30x_timer.c ****       \arg        TIMER_IC_PSC_DIV8: divided by 8
1494:C:/Users/49542/Desktop/GD32F30x_Demo_Suites_V2.0.0/GD32F30x_Demo_Suites_V2.0.0/GD32F30x_Firmware_Library/GD32F30x_standard_peripheral/Source\gd32f30x_timer.c ****     \param[out] none
1495:C:/Users/49542/Desktop/GD32F30x_Demo_Suites_V2.0.0/GD32F30x_Demo_Suites_V2.0.0/GD32F30x_Firmware_Library/GD32F30x_standard_peripheral/Source\gd32f30x_timer.c ****     \retval     none
1496:C:/Users/49542/Desktop/GD32F30x_Demo_Suites_V2.0.0/GD32F30x_Demo_Suites_V2.0.0/GD32F30x_Firmware_Library/GD32F30x_standard_peripheral/Source\gd32f30x_timer.c **** */
1497:C:/Users/49542/Desktop/GD32F30x_Demo_Suites_V2.0.0/GD32F30x_Demo_Suites_V2.0.0/GD32F30x_Firmware_Library/GD32F30x_standard_peripheral/Source\gd32f30x_timer.c **** void timer_channel_input_capture_prescaler_config(uint32_t timer_periph, uint16_t channel, uint16_t
1498:C:/Users/49542/Desktop/GD32F30x_Demo_Suites_V2.0.0/GD32F30x_Demo_Suites_V2.0.0/GD32F30x_Firmware_Library/GD32F30x_standard_peripheral/Source\gd32f30x_timer.c **** {
 4935              		.loc 1 1498 0
 4936              		.cfi_startproc
 4937              		@ args = 0, pretend = 0, frame = 8
 4938              		@ frame_needed = 1, uses_anonymous_args = 0
 4939              		@ link register save eliminated.
 4940 0000 80B4     		push	{r7}
 4941              	.LCFI316:
 4942              		.cfi_def_cfa_offset 4
 4943              		.cfi_offset 7, -4
 4944 0002 83B0     		sub	sp, sp, #12
 4945              	.LCFI317:
 4946              		.cfi_def_cfa_offset 16
 4947 0004 00AF     		add	r7, sp, #0
 4948              	.LCFI318:
 4949              		.cfi_def_cfa_register 7
 4950 0006 7860     		str	r0, [r7, #4]
 4951 0008 0B46     		mov	r3, r1
 4952 000a 7B80     		strh	r3, [r7, #2]	@ movhi
 4953 000c 1346     		mov	r3, r2	@ movhi
 4954 000e 3B80     		strh	r3, [r7]	@ movhi
1499:C:/Users/49542/Desktop/GD32F30x_Demo_Suites_V2.0.0/GD32F30x_Demo_Suites_V2.0.0/GD32F30x_Firmware_Library/GD32F30x_standard_peripheral/Source\gd32f30x_timer.c ****     switch(channel){
 4955              		.loc 1 1499 0
 4956 0010 7B88     		ldrh	r3, [r7, #2]
 4957 0012 032B     		cmp	r3, #3
 4958 0014 50D8     		bhi	.L214
 4959 0016 01A2     		adr	r2, .L209
 4960 0018 52F823F0 		ldr	pc, [r2, r3, lsl #2]
 4961              		.p2align 2
 4962              	.L209:
 4963 001c 2D000000 		.word	.L208+1
 4964 0020 4F000000 		.word	.L210+1
 4965 0024 73000000 		.word	.L211+1
 4966 0028 95000000 		.word	.L212+1
ARM GAS  C:\Users\49542\AppData\Local\Temp\ccx6VnNU.s 			page 114


 4967              		.p2align 1
 4968              	.L208:
1500:C:/Users/49542/Desktop/GD32F30x_Demo_Suites_V2.0.0/GD32F30x_Demo_Suites_V2.0.0/GD32F30x_Firmware_Library/GD32F30x_standard_peripheral/Source\gd32f30x_timer.c ****     /* configure TIMER_CH_0 */
1501:C:/Users/49542/Desktop/GD32F30x_Demo_Suites_V2.0.0/GD32F30x_Demo_Suites_V2.0.0/GD32F30x_Firmware_Library/GD32F30x_standard_peripheral/Source\gd32f30x_timer.c ****     case TIMER_CH_0:
1502:C:/Users/49542/Desktop/GD32F30x_Demo_Suites_V2.0.0/GD32F30x_Demo_Suites_V2.0.0/GD32F30x_Firmware_Library/GD32F30x_standard_peripheral/Source\gd32f30x_timer.c ****         TIMER_CHCTL0(timer_periph) &= (~(uint32_t)TIMER_CHCTL0_CH0CAPPSC);
 4969              		.loc 1 1502 0
 4970 002c 7B68     		ldr	r3, [r7, #4]
 4971 002e 1833     		adds	r3, r3, #24
 4972 0030 1B68     		ldr	r3, [r3]
 4973 0032 7A68     		ldr	r2, [r7, #4]
 4974 0034 1832     		adds	r2, r2, #24
 4975 0036 23F00C03 		bic	r3, r3, #12
 4976 003a 1360     		str	r3, [r2]
1503:C:/Users/49542/Desktop/GD32F30x_Demo_Suites_V2.0.0/GD32F30x_Demo_Suites_V2.0.0/GD32F30x_Firmware_Library/GD32F30x_standard_peripheral/Source\gd32f30x_timer.c ****         TIMER_CHCTL0(timer_periph) |= (uint32_t)prescaler;
 4977              		.loc 1 1503 0
 4978 003c 7B68     		ldr	r3, [r7, #4]
 4979 003e 1833     		adds	r3, r3, #24
 4980 0040 1A68     		ldr	r2, [r3]
 4981 0042 3B88     		ldrh	r3, [r7]
 4982 0044 7968     		ldr	r1, [r7, #4]
 4983 0046 1831     		adds	r1, r1, #24
 4984 0048 1343     		orrs	r3, r3, r2
 4985 004a 0B60     		str	r3, [r1]
1504:C:/Users/49542/Desktop/GD32F30x_Demo_Suites_V2.0.0/GD32F30x_Demo_Suites_V2.0.0/GD32F30x_Firmware_Library/GD32F30x_standard_peripheral/Source\gd32f30x_timer.c ****         break;
 4986              		.loc 1 1504 0
 4987 004c 35E0     		b	.L213
 4988              	.L210:
1505:C:/Users/49542/Desktop/GD32F30x_Demo_Suites_V2.0.0/GD32F30x_Demo_Suites_V2.0.0/GD32F30x_Firmware_Library/GD32F30x_standard_peripheral/Source\gd32f30x_timer.c ****     /* configure TIMER_CH_1 */
1506:C:/Users/49542/Desktop/GD32F30x_Demo_Suites_V2.0.0/GD32F30x_Demo_Suites_V2.0.0/GD32F30x_Firmware_Library/GD32F30x_standard_peripheral/Source\gd32f30x_timer.c ****     case TIMER_CH_1:
1507:C:/Users/49542/Desktop/GD32F30x_Demo_Suites_V2.0.0/GD32F30x_Demo_Suites_V2.0.0/GD32F30x_Firmware_Library/GD32F30x_standard_peripheral/Source\gd32f30x_timer.c ****         TIMER_CHCTL0(timer_periph) &= (~(uint32_t)TIMER_CHCTL0_CH1CAPPSC);
 4989              		.loc 1 1507 0
 4990 004e 7B68     		ldr	r3, [r7, #4]
 4991 0050 1833     		adds	r3, r3, #24
 4992 0052 1B68     		ldr	r3, [r3]
 4993 0054 7A68     		ldr	r2, [r7, #4]
 4994 0056 1832     		adds	r2, r2, #24
 4995 0058 23F44063 		bic	r3, r3, #3072
 4996 005c 1360     		str	r3, [r2]
1508:C:/Users/49542/Desktop/GD32F30x_Demo_Suites_V2.0.0/GD32F30x_Demo_Suites_V2.0.0/GD32F30x_Firmware_Library/GD32F30x_standard_peripheral/Source\gd32f30x_timer.c ****         TIMER_CHCTL0(timer_periph) |= ((uint32_t)prescaler << 8U);
 4997              		.loc 1 1508 0
 4998 005e 7B68     		ldr	r3, [r7, #4]
 4999 0060 1833     		adds	r3, r3, #24
 5000 0062 1A68     		ldr	r2, [r3]
 5001 0064 3B88     		ldrh	r3, [r7]
 5002 0066 1B02     		lsls	r3, r3, #8
 5003 0068 7968     		ldr	r1, [r7, #4]
 5004 006a 1831     		adds	r1, r1, #24
 5005 006c 1343     		orrs	r3, r3, r2
 5006 006e 0B60     		str	r3, [r1]
1509:C:/Users/49542/Desktop/GD32F30x_Demo_Suites_V2.0.0/GD32F30x_Demo_Suites_V2.0.0/GD32F30x_Firmware_Library/GD32F30x_standard_peripheral/Source\gd32f30x_timer.c ****         break;
 5007              		.loc 1 1509 0
 5008 0070 23E0     		b	.L213
 5009              	.L211:
1510:C:/Users/49542/Desktop/GD32F30x_Demo_Suites_V2.0.0/GD32F30x_Demo_Suites_V2.0.0/GD32F30x_Firmware_Library/GD32F30x_standard_peripheral/Source\gd32f30x_timer.c ****     /* configure TIMER_CH_2 */
1511:C:/Users/49542/Desktop/GD32F30x_Demo_Suites_V2.0.0/GD32F30x_Demo_Suites_V2.0.0/GD32F30x_Firmware_Library/GD32F30x_standard_peripheral/Source\gd32f30x_timer.c ****     case TIMER_CH_2:
1512:C:/Users/49542/Desktop/GD32F30x_Demo_Suites_V2.0.0/GD32F30x_Demo_Suites_V2.0.0/GD32F30x_Firmware_Library/GD32F30x_standard_peripheral/Source\gd32f30x_timer.c ****         TIMER_CHCTL1(timer_periph) &= (~(uint32_t)TIMER_CHCTL1_CH2CAPPSC);
 5010              		.loc 1 1512 0
ARM GAS  C:\Users\49542\AppData\Local\Temp\ccx6VnNU.s 			page 115


 5011 0072 7B68     		ldr	r3, [r7, #4]
 5012 0074 1C33     		adds	r3, r3, #28
 5013 0076 1B68     		ldr	r3, [r3]
 5014 0078 7A68     		ldr	r2, [r7, #4]
 5015 007a 1C32     		adds	r2, r2, #28
 5016 007c 23F00C03 		bic	r3, r3, #12
 5017 0080 1360     		str	r3, [r2]
1513:C:/Users/49542/Desktop/GD32F30x_Demo_Suites_V2.0.0/GD32F30x_Demo_Suites_V2.0.0/GD32F30x_Firmware_Library/GD32F30x_standard_peripheral/Source\gd32f30x_timer.c ****         TIMER_CHCTL1(timer_periph) |= (uint32_t)prescaler;
 5018              		.loc 1 1513 0
 5019 0082 7B68     		ldr	r3, [r7, #4]
 5020 0084 1C33     		adds	r3, r3, #28
 5021 0086 1A68     		ldr	r2, [r3]
 5022 0088 3B88     		ldrh	r3, [r7]
 5023 008a 7968     		ldr	r1, [r7, #4]
 5024 008c 1C31     		adds	r1, r1, #28
 5025 008e 1343     		orrs	r3, r3, r2
 5026 0090 0B60     		str	r3, [r1]
1514:C:/Users/49542/Desktop/GD32F30x_Demo_Suites_V2.0.0/GD32F30x_Demo_Suites_V2.0.0/GD32F30x_Firmware_Library/GD32F30x_standard_peripheral/Source\gd32f30x_timer.c ****         break;
 5027              		.loc 1 1514 0
 5028 0092 12E0     		b	.L213
 5029              	.L212:
1515:C:/Users/49542/Desktop/GD32F30x_Demo_Suites_V2.0.0/GD32F30x_Demo_Suites_V2.0.0/GD32F30x_Firmware_Library/GD32F30x_standard_peripheral/Source\gd32f30x_timer.c ****     /* configure TIMER_CH_3 */
1516:C:/Users/49542/Desktop/GD32F30x_Demo_Suites_V2.0.0/GD32F30x_Demo_Suites_V2.0.0/GD32F30x_Firmware_Library/GD32F30x_standard_peripheral/Source\gd32f30x_timer.c ****     case TIMER_CH_3:
1517:C:/Users/49542/Desktop/GD32F30x_Demo_Suites_V2.0.0/GD32F30x_Demo_Suites_V2.0.0/GD32F30x_Firmware_Library/GD32F30x_standard_peripheral/Source\gd32f30x_timer.c ****         TIMER_CHCTL1(timer_periph) &= (~(uint32_t)TIMER_CHCTL1_CH3CAPPSC);
 5030              		.loc 1 1517 0
 5031 0094 7B68     		ldr	r3, [r7, #4]
 5032 0096 1C33     		adds	r3, r3, #28
 5033 0098 1B68     		ldr	r3, [r3]
 5034 009a 7A68     		ldr	r2, [r7, #4]
 5035 009c 1C32     		adds	r2, r2, #28
 5036 009e 23F44063 		bic	r3, r3, #3072
 5037 00a2 1360     		str	r3, [r2]
1518:C:/Users/49542/Desktop/GD32F30x_Demo_Suites_V2.0.0/GD32F30x_Demo_Suites_V2.0.0/GD32F30x_Firmware_Library/GD32F30x_standard_peripheral/Source\gd32f30x_timer.c ****         TIMER_CHCTL1(timer_periph) |= ((uint32_t)prescaler << 8U);
 5038              		.loc 1 1518 0
 5039 00a4 7B68     		ldr	r3, [r7, #4]
 5040 00a6 1C33     		adds	r3, r3, #28
 5041 00a8 1A68     		ldr	r2, [r3]
 5042 00aa 3B88     		ldrh	r3, [r7]
 5043 00ac 1B02     		lsls	r3, r3, #8
 5044 00ae 7968     		ldr	r1, [r7, #4]
 5045 00b0 1C31     		adds	r1, r1, #28
 5046 00b2 1343     		orrs	r3, r3, r2
 5047 00b4 0B60     		str	r3, [r1]
1519:C:/Users/49542/Desktop/GD32F30x_Demo_Suites_V2.0.0/GD32F30x_Demo_Suites_V2.0.0/GD32F30x_Firmware_Library/GD32F30x_standard_peripheral/Source\gd32f30x_timer.c ****         break;
 5048              		.loc 1 1519 0
 5049 00b6 00E0     		b	.L213
 5050              	.L214:
1520:C:/Users/49542/Desktop/GD32F30x_Demo_Suites_V2.0.0/GD32F30x_Demo_Suites_V2.0.0/GD32F30x_Firmware_Library/GD32F30x_standard_peripheral/Source\gd32f30x_timer.c ****     default:
1521:C:/Users/49542/Desktop/GD32F30x_Demo_Suites_V2.0.0/GD32F30x_Demo_Suites_V2.0.0/GD32F30x_Firmware_Library/GD32F30x_standard_peripheral/Source\gd32f30x_timer.c ****         break;
 5051              		.loc 1 1521 0
 5052 00b8 00BF     		nop
 5053              	.L213:
1522:C:/Users/49542/Desktop/GD32F30x_Demo_Suites_V2.0.0/GD32F30x_Demo_Suites_V2.0.0/GD32F30x_Firmware_Library/GD32F30x_standard_peripheral/Source\gd32f30x_timer.c ****     }
1523:C:/Users/49542/Desktop/GD32F30x_Demo_Suites_V2.0.0/GD32F30x_Demo_Suites_V2.0.0/GD32F30x_Firmware_Library/GD32F30x_standard_peripheral/Source\gd32f30x_timer.c **** }
 5054              		.loc 1 1523 0
 5055 00ba 00BF     		nop
 5056 00bc 0C37     		adds	r7, r7, #12
ARM GAS  C:\Users\49542\AppData\Local\Temp\ccx6VnNU.s 			page 116


 5057              	.LCFI319:
 5058              		.cfi_def_cfa_offset 4
 5059 00be BD46     		mov	sp, r7
 5060              	.LCFI320:
 5061              		.cfi_def_cfa_register 13
 5062              		@ sp needed
 5063 00c0 5DF8047B 		ldr	r7, [sp], #4
 5064              	.LCFI321:
 5065              		.cfi_restore 7
 5066              		.cfi_def_cfa_offset 0
 5067 00c4 7047     		bx	lr
 5068              		.cfi_endproc
 5069              	.LFE169:
 5071 00c6 00BF     		.section	.text.timer_channel_capture_value_register_read,"ax",%progbits
 5072              		.align	1
 5073              		.global	timer_channel_capture_value_register_read
 5074              		.syntax unified
 5075              		.thumb
 5076              		.thumb_func
 5077              		.fpu fpv4-sp-d16
 5079              	timer_channel_capture_value_register_read:
 5080              	.LFB170:
1524:C:/Users/49542/Desktop/GD32F30x_Demo_Suites_V2.0.0/GD32F30x_Demo_Suites_V2.0.0/GD32F30x_Firmware_Library/GD32F30x_standard_peripheral/Source\gd32f30x_timer.c **** 
1525:C:/Users/49542/Desktop/GD32F30x_Demo_Suites_V2.0.0/GD32F30x_Demo_Suites_V2.0.0/GD32F30x_Firmware_Library/GD32F30x_standard_peripheral/Source\gd32f30x_timer.c **** /*!
1526:C:/Users/49542/Desktop/GD32F30x_Demo_Suites_V2.0.0/GD32F30x_Demo_Suites_V2.0.0/GD32F30x_Firmware_Library/GD32F30x_standard_peripheral/Source\gd32f30x_timer.c ****     \brief      read TIMER channel capture compare register value
1527:C:/Users/49542/Desktop/GD32F30x_Demo_Suites_V2.0.0/GD32F30x_Demo_Suites_V2.0.0/GD32F30x_Firmware_Library/GD32F30x_standard_peripheral/Source\gd32f30x_timer.c ****     \param[in]  timer_periph: please refer to the following parameters
1528:C:/Users/49542/Desktop/GD32F30x_Demo_Suites_V2.0.0/GD32F30x_Demo_Suites_V2.0.0/GD32F30x_Firmware_Library/GD32F30x_standard_peripheral/Source\gd32f30x_timer.c ****     \param[in]  channel: 
1529:C:/Users/49542/Desktop/GD32F30x_Demo_Suites_V2.0.0/GD32F30x_Demo_Suites_V2.0.0/GD32F30x_Firmware_Library/GD32F30x_standard_peripheral/Source\gd32f30x_timer.c ****                 only one parameter can be selected which is shown as below:
1530:C:/Users/49542/Desktop/GD32F30x_Demo_Suites_V2.0.0/GD32F30x_Demo_Suites_V2.0.0/GD32F30x_Firmware_Library/GD32F30x_standard_peripheral/Source\gd32f30x_timer.c ****       \arg        TIMER_CH_0: TIMER channel0(TIMERx(x=0..4,7..13))
1531:C:/Users/49542/Desktop/GD32F30x_Demo_Suites_V2.0.0/GD32F30x_Demo_Suites_V2.0.0/GD32F30x_Firmware_Library/GD32F30x_standard_peripheral/Source\gd32f30x_timer.c ****       \arg        TIMER_CH_1: TIMER channel1(TIMERx(x=0..4,7,8,11))
1532:C:/Users/49542/Desktop/GD32F30x_Demo_Suites_V2.0.0/GD32F30x_Demo_Suites_V2.0.0/GD32F30x_Firmware_Library/GD32F30x_standard_peripheral/Source\gd32f30x_timer.c ****       \arg        TIMER_CH_2: TIMER channel2(TIMERx(x=0..4,7))
1533:C:/Users/49542/Desktop/GD32F30x_Demo_Suites_V2.0.0/GD32F30x_Demo_Suites_V2.0.0/GD32F30x_Firmware_Library/GD32F30x_standard_peripheral/Source\gd32f30x_timer.c ****       \arg        TIMER_CH_3: TIMER channel3(TIMERx(x=0..4,7))
1534:C:/Users/49542/Desktop/GD32F30x_Demo_Suites_V2.0.0/GD32F30x_Demo_Suites_V2.0.0/GD32F30x_Firmware_Library/GD32F30x_standard_peripheral/Source\gd32f30x_timer.c ****     \param[out] none
1535:C:/Users/49542/Desktop/GD32F30x_Demo_Suites_V2.0.0/GD32F30x_Demo_Suites_V2.0.0/GD32F30x_Firmware_Library/GD32F30x_standard_peripheral/Source\gd32f30x_timer.c ****     \retval     channel capture compare register value
1536:C:/Users/49542/Desktop/GD32F30x_Demo_Suites_V2.0.0/GD32F30x_Demo_Suites_V2.0.0/GD32F30x_Firmware_Library/GD32F30x_standard_peripheral/Source\gd32f30x_timer.c **** */
1537:C:/Users/49542/Desktop/GD32F30x_Demo_Suites_V2.0.0/GD32F30x_Demo_Suites_V2.0.0/GD32F30x_Firmware_Library/GD32F30x_standard_peripheral/Source\gd32f30x_timer.c **** uint32_t timer_channel_capture_value_register_read(uint32_t timer_periph, uint16_t channel)
1538:C:/Users/49542/Desktop/GD32F30x_Demo_Suites_V2.0.0/GD32F30x_Demo_Suites_V2.0.0/GD32F30x_Firmware_Library/GD32F30x_standard_peripheral/Source\gd32f30x_timer.c **** {
 5081              		.loc 1 1538 0
 5082              		.cfi_startproc
 5083              		@ args = 0, pretend = 0, frame = 16
 5084              		@ frame_needed = 1, uses_anonymous_args = 0
 5085              		@ link register save eliminated.
 5086 0000 80B4     		push	{r7}
 5087              	.LCFI322:
 5088              		.cfi_def_cfa_offset 4
 5089              		.cfi_offset 7, -4
 5090 0002 85B0     		sub	sp, sp, #20
 5091              	.LCFI323:
 5092              		.cfi_def_cfa_offset 24
 5093 0004 00AF     		add	r7, sp, #0
 5094              	.LCFI324:
 5095              		.cfi_def_cfa_register 7
 5096 0006 7860     		str	r0, [r7, #4]
 5097 0008 0B46     		mov	r3, r1
 5098 000a 7B80     		strh	r3, [r7, #2]	@ movhi
1539:C:/Users/49542/Desktop/GD32F30x_Demo_Suites_V2.0.0/GD32F30x_Demo_Suites_V2.0.0/GD32F30x_Firmware_Library/GD32F30x_standard_peripheral/Source\gd32f30x_timer.c ****     uint32_t count_value = 0U;
 5099              		.loc 1 1539 0
ARM GAS  C:\Users\49542\AppData\Local\Temp\ccx6VnNU.s 			page 117


 5100 000c 0023     		movs	r3, #0
 5101 000e FB60     		str	r3, [r7, #12]
1540:C:/Users/49542/Desktop/GD32F30x_Demo_Suites_V2.0.0/GD32F30x_Demo_Suites_V2.0.0/GD32F30x_Firmware_Library/GD32F30x_standard_peripheral/Source\gd32f30x_timer.c **** 
1541:C:/Users/49542/Desktop/GD32F30x_Demo_Suites_V2.0.0/GD32F30x_Demo_Suites_V2.0.0/GD32F30x_Firmware_Library/GD32F30x_standard_peripheral/Source\gd32f30x_timer.c ****     switch(channel){
 5102              		.loc 1 1541 0
 5103 0010 7B88     		ldrh	r3, [r7, #2]
 5104 0012 032B     		cmp	r3, #3
 5105 0014 1ED8     		bhi	.L224
 5106 0016 01A2     		adr	r2, .L218
 5107 0018 52F823F0 		ldr	pc, [r2, r3, lsl #2]
 5108              		.p2align 2
 5109              	.L218:
 5110 001c 2D000000 		.word	.L217+1
 5111 0020 37000000 		.word	.L219+1
 5112 0024 41000000 		.word	.L220+1
 5113 0028 4B000000 		.word	.L221+1
 5114              		.p2align 1
 5115              	.L217:
1542:C:/Users/49542/Desktop/GD32F30x_Demo_Suites_V2.0.0/GD32F30x_Demo_Suites_V2.0.0/GD32F30x_Firmware_Library/GD32F30x_standard_peripheral/Source\gd32f30x_timer.c ****     /* read TIMER channel 0 capture compare register value */
1543:C:/Users/49542/Desktop/GD32F30x_Demo_Suites_V2.0.0/GD32F30x_Demo_Suites_V2.0.0/GD32F30x_Firmware_Library/GD32F30x_standard_peripheral/Source\gd32f30x_timer.c ****     case TIMER_CH_0:
1544:C:/Users/49542/Desktop/GD32F30x_Demo_Suites_V2.0.0/GD32F30x_Demo_Suites_V2.0.0/GD32F30x_Firmware_Library/GD32F30x_standard_peripheral/Source\gd32f30x_timer.c ****         count_value = TIMER_CH0CV(timer_periph);
 5116              		.loc 1 1544 0
 5117 002c 7B68     		ldr	r3, [r7, #4]
 5118 002e 3433     		adds	r3, r3, #52
 5119 0030 1B68     		ldr	r3, [r3]
 5120 0032 FB60     		str	r3, [r7, #12]
1545:C:/Users/49542/Desktop/GD32F30x_Demo_Suites_V2.0.0/GD32F30x_Demo_Suites_V2.0.0/GD32F30x_Firmware_Library/GD32F30x_standard_peripheral/Source\gd32f30x_timer.c ****         break;
 5121              		.loc 1 1545 0
 5122 0034 0FE0     		b	.L222
 5123              	.L219:
1546:C:/Users/49542/Desktop/GD32F30x_Demo_Suites_V2.0.0/GD32F30x_Demo_Suites_V2.0.0/GD32F30x_Firmware_Library/GD32F30x_standard_peripheral/Source\gd32f30x_timer.c ****     /* read TIMER channel 1 capture compare register value */
1547:C:/Users/49542/Desktop/GD32F30x_Demo_Suites_V2.0.0/GD32F30x_Demo_Suites_V2.0.0/GD32F30x_Firmware_Library/GD32F30x_standard_peripheral/Source\gd32f30x_timer.c ****     case TIMER_CH_1:
1548:C:/Users/49542/Desktop/GD32F30x_Demo_Suites_V2.0.0/GD32F30x_Demo_Suites_V2.0.0/GD32F30x_Firmware_Library/GD32F30x_standard_peripheral/Source\gd32f30x_timer.c ****         count_value = TIMER_CH1CV(timer_periph);
 5124              		.loc 1 1548 0
 5125 0036 7B68     		ldr	r3, [r7, #4]
 5126 0038 3833     		adds	r3, r3, #56
 5127 003a 1B68     		ldr	r3, [r3]
 5128 003c FB60     		str	r3, [r7, #12]
1549:C:/Users/49542/Desktop/GD32F30x_Demo_Suites_V2.0.0/GD32F30x_Demo_Suites_V2.0.0/GD32F30x_Firmware_Library/GD32F30x_standard_peripheral/Source\gd32f30x_timer.c ****         break;
 5129              		.loc 1 1549 0
 5130 003e 0AE0     		b	.L222
 5131              	.L220:
1550:C:/Users/49542/Desktop/GD32F30x_Demo_Suites_V2.0.0/GD32F30x_Demo_Suites_V2.0.0/GD32F30x_Firmware_Library/GD32F30x_standard_peripheral/Source\gd32f30x_timer.c ****     /* read TIMER channel 2 capture compare register value */
1551:C:/Users/49542/Desktop/GD32F30x_Demo_Suites_V2.0.0/GD32F30x_Demo_Suites_V2.0.0/GD32F30x_Firmware_Library/GD32F30x_standard_peripheral/Source\gd32f30x_timer.c ****     case TIMER_CH_2:
1552:C:/Users/49542/Desktop/GD32F30x_Demo_Suites_V2.0.0/GD32F30x_Demo_Suites_V2.0.0/GD32F30x_Firmware_Library/GD32F30x_standard_peripheral/Source\gd32f30x_timer.c ****         count_value = TIMER_CH2CV(timer_periph);
 5132              		.loc 1 1552 0
 5133 0040 7B68     		ldr	r3, [r7, #4]
 5134 0042 3C33     		adds	r3, r3, #60
 5135 0044 1B68     		ldr	r3, [r3]
 5136 0046 FB60     		str	r3, [r7, #12]
1553:C:/Users/49542/Desktop/GD32F30x_Demo_Suites_V2.0.0/GD32F30x_Demo_Suites_V2.0.0/GD32F30x_Firmware_Library/GD32F30x_standard_peripheral/Source\gd32f30x_timer.c ****         break;
 5137              		.loc 1 1553 0
 5138 0048 05E0     		b	.L222
 5139              	.L221:
1554:C:/Users/49542/Desktop/GD32F30x_Demo_Suites_V2.0.0/GD32F30x_Demo_Suites_V2.0.0/GD32F30x_Firmware_Library/GD32F30x_standard_peripheral/Source\gd32f30x_timer.c ****     /* read TIMER channel 3 capture compare register value */
1555:C:/Users/49542/Desktop/GD32F30x_Demo_Suites_V2.0.0/GD32F30x_Demo_Suites_V2.0.0/GD32F30x_Firmware_Library/GD32F30x_standard_peripheral/Source\gd32f30x_timer.c ****     case TIMER_CH_3:
1556:C:/Users/49542/Desktop/GD32F30x_Demo_Suites_V2.0.0/GD32F30x_Demo_Suites_V2.0.0/GD32F30x_Firmware_Library/GD32F30x_standard_peripheral/Source\gd32f30x_timer.c ****         count_value = TIMER_CH3CV(timer_periph);
ARM GAS  C:\Users\49542\AppData\Local\Temp\ccx6VnNU.s 			page 118


 5140              		.loc 1 1556 0
 5141 004a 7B68     		ldr	r3, [r7, #4]
 5142 004c 4033     		adds	r3, r3, #64
 5143 004e 1B68     		ldr	r3, [r3]
 5144 0050 FB60     		str	r3, [r7, #12]
1557:C:/Users/49542/Desktop/GD32F30x_Demo_Suites_V2.0.0/GD32F30x_Demo_Suites_V2.0.0/GD32F30x_Firmware_Library/GD32F30x_standard_peripheral/Source\gd32f30x_timer.c ****         break;
 5145              		.loc 1 1557 0
 5146 0052 00E0     		b	.L222
 5147              	.L224:
1558:C:/Users/49542/Desktop/GD32F30x_Demo_Suites_V2.0.0/GD32F30x_Demo_Suites_V2.0.0/GD32F30x_Firmware_Library/GD32F30x_standard_peripheral/Source\gd32f30x_timer.c ****     default:
1559:C:/Users/49542/Desktop/GD32F30x_Demo_Suites_V2.0.0/GD32F30x_Demo_Suites_V2.0.0/GD32F30x_Firmware_Library/GD32F30x_standard_peripheral/Source\gd32f30x_timer.c ****         break;
 5148              		.loc 1 1559 0
 5149 0054 00BF     		nop
 5150              	.L222:
1560:C:/Users/49542/Desktop/GD32F30x_Demo_Suites_V2.0.0/GD32F30x_Demo_Suites_V2.0.0/GD32F30x_Firmware_Library/GD32F30x_standard_peripheral/Source\gd32f30x_timer.c ****     }
1561:C:/Users/49542/Desktop/GD32F30x_Demo_Suites_V2.0.0/GD32F30x_Demo_Suites_V2.0.0/GD32F30x_Firmware_Library/GD32F30x_standard_peripheral/Source\gd32f30x_timer.c ****     return (count_value);
 5151              		.loc 1 1561 0
 5152 0056 FB68     		ldr	r3, [r7, #12]
1562:C:/Users/49542/Desktop/GD32F30x_Demo_Suites_V2.0.0/GD32F30x_Demo_Suites_V2.0.0/GD32F30x_Firmware_Library/GD32F30x_standard_peripheral/Source\gd32f30x_timer.c **** }
 5153              		.loc 1 1562 0
 5154 0058 1846     		mov	r0, r3
 5155 005a 1437     		adds	r7, r7, #20
 5156              	.LCFI325:
 5157              		.cfi_def_cfa_offset 4
 5158 005c BD46     		mov	sp, r7
 5159              	.LCFI326:
 5160              		.cfi_def_cfa_register 13
 5161              		@ sp needed
 5162 005e 5DF8047B 		ldr	r7, [sp], #4
 5163              	.LCFI327:
 5164              		.cfi_restore 7
 5165              		.cfi_def_cfa_offset 0
 5166 0062 7047     		bx	lr
 5167              		.cfi_endproc
 5168              	.LFE170:
 5170              		.section	.text.timer_input_pwm_capture_config,"ax",%progbits
 5171              		.align	1
 5172              		.global	timer_input_pwm_capture_config
 5173              		.syntax unified
 5174              		.thumb
 5175              		.thumb_func
 5176              		.fpu fpv4-sp-d16
 5178              	timer_input_pwm_capture_config:
 5179              	.LFB171:
1563:C:/Users/49542/Desktop/GD32F30x_Demo_Suites_V2.0.0/GD32F30x_Demo_Suites_V2.0.0/GD32F30x_Firmware_Library/GD32F30x_standard_peripheral/Source\gd32f30x_timer.c **** 
1564:C:/Users/49542/Desktop/GD32F30x_Demo_Suites_V2.0.0/GD32F30x_Demo_Suites_V2.0.0/GD32F30x_Firmware_Library/GD32F30x_standard_peripheral/Source\gd32f30x_timer.c **** /*!
1565:C:/Users/49542/Desktop/GD32F30x_Demo_Suites_V2.0.0/GD32F30x_Demo_Suites_V2.0.0/GD32F30x_Firmware_Library/GD32F30x_standard_peripheral/Source\gd32f30x_timer.c ****     \brief      configure TIMER input pwm capture function 
1566:C:/Users/49542/Desktop/GD32F30x_Demo_Suites_V2.0.0/GD32F30x_Demo_Suites_V2.0.0/GD32F30x_Firmware_Library/GD32F30x_standard_peripheral/Source\gd32f30x_timer.c ****     \param[in]  timer_periph: TIMERx(x=0..4,7,8,11)
1567:C:/Users/49542/Desktop/GD32F30x_Demo_Suites_V2.0.0/GD32F30x_Demo_Suites_V2.0.0/GD32F30x_Firmware_Library/GD32F30x_standard_peripheral/Source\gd32f30x_timer.c ****     \param[in]  channel: 
1568:C:/Users/49542/Desktop/GD32F30x_Demo_Suites_V2.0.0/GD32F30x_Demo_Suites_V2.0.0/GD32F30x_Firmware_Library/GD32F30x_standard_peripheral/Source\gd32f30x_timer.c ****                 only one parameter can be selected which is shown as below:
1569:C:/Users/49542/Desktop/GD32F30x_Demo_Suites_V2.0.0/GD32F30x_Demo_Suites_V2.0.0/GD32F30x_Firmware_Library/GD32F30x_standard_peripheral/Source\gd32f30x_timer.c ****       \arg        TIMER_CH_0: TIMER channel0
1570:C:/Users/49542/Desktop/GD32F30x_Demo_Suites_V2.0.0/GD32F30x_Demo_Suites_V2.0.0/GD32F30x_Firmware_Library/GD32F30x_standard_peripheral/Source\gd32f30x_timer.c ****       \arg        TIMER_CH_1: TIMER channel1
1571:C:/Users/49542/Desktop/GD32F30x_Demo_Suites_V2.0.0/GD32F30x_Demo_Suites_V2.0.0/GD32F30x_Firmware_Library/GD32F30x_standard_peripheral/Source\gd32f30x_timer.c ****      \param[in]  icpwm:TIMER channel intput pwm parameter struct
1572:C:/Users/49542/Desktop/GD32F30x_Demo_Suites_V2.0.0/GD32F30x_Demo_Suites_V2.0.0/GD32F30x_Firmware_Library/GD32F30x_standard_peripheral/Source\gd32f30x_timer.c ****                  icpolarity: TIMER_IC_POLARITY_RISING,TIMER_IC_POLARITY_FALLING
1573:C:/Users/49542/Desktop/GD32F30x_Demo_Suites_V2.0.0/GD32F30x_Demo_Suites_V2.0.0/GD32F30x_Firmware_Library/GD32F30x_standard_peripheral/Source\gd32f30x_timer.c ****                  icselection: TIMER_IC_SELECTION_DIRECTTI,TIMER_IC_SELECTION_INDIRECTTI
1574:C:/Users/49542/Desktop/GD32F30x_Demo_Suites_V2.0.0/GD32F30x_Demo_Suites_V2.0.0/GD32F30x_Firmware_Library/GD32F30x_standard_peripheral/Source\gd32f30x_timer.c ****                  icprescaler: TIMER_IC_PSC_DIV1,TIMER_IC_PSC_DIV2,TIMER_IC_PSC_DIV4,TIMER_IC_PSC_DI
1575:C:/Users/49542/Desktop/GD32F30x_Demo_Suites_V2.0.0/GD32F30x_Demo_Suites_V2.0.0/GD32F30x_Firmware_Library/GD32F30x_standard_peripheral/Source\gd32f30x_timer.c ****                  icfilter: 0~15
ARM GAS  C:\Users\49542\AppData\Local\Temp\ccx6VnNU.s 			page 119


1576:C:/Users/49542/Desktop/GD32F30x_Demo_Suites_V2.0.0/GD32F30x_Demo_Suites_V2.0.0/GD32F30x_Firmware_Library/GD32F30x_standard_peripheral/Source\gd32f30x_timer.c ****     \param[out] none
1577:C:/Users/49542/Desktop/GD32F30x_Demo_Suites_V2.0.0/GD32F30x_Demo_Suites_V2.0.0/GD32F30x_Firmware_Library/GD32F30x_standard_peripheral/Source\gd32f30x_timer.c ****     \retval     none
1578:C:/Users/49542/Desktop/GD32F30x_Demo_Suites_V2.0.0/GD32F30x_Demo_Suites_V2.0.0/GD32F30x_Firmware_Library/GD32F30x_standard_peripheral/Source\gd32f30x_timer.c **** */
1579:C:/Users/49542/Desktop/GD32F30x_Demo_Suites_V2.0.0/GD32F30x_Demo_Suites_V2.0.0/GD32F30x_Firmware_Library/GD32F30x_standard_peripheral/Source\gd32f30x_timer.c **** void timer_input_pwm_capture_config(uint32_t timer_periph, uint16_t channel, timer_ic_parameter_str
1580:C:/Users/49542/Desktop/GD32F30x_Demo_Suites_V2.0.0/GD32F30x_Demo_Suites_V2.0.0/GD32F30x_Firmware_Library/GD32F30x_standard_peripheral/Source\gd32f30x_timer.c **** {
 5180              		.loc 1 1580 0
 5181              		.cfi_startproc
 5182              		@ args = 0, pretend = 0, frame = 24
 5183              		@ frame_needed = 1, uses_anonymous_args = 0
 5184 0000 80B5     		push	{r7, lr}
 5185              	.LCFI328:
 5186              		.cfi_def_cfa_offset 8
 5187              		.cfi_offset 7, -8
 5188              		.cfi_offset 14, -4
 5189 0002 86B0     		sub	sp, sp, #24
 5190              	.LCFI329:
 5191              		.cfi_def_cfa_offset 32
 5192 0004 00AF     		add	r7, sp, #0
 5193              	.LCFI330:
 5194              		.cfi_def_cfa_register 7
 5195 0006 F860     		str	r0, [r7, #12]
 5196 0008 0B46     		mov	r3, r1
 5197 000a 7A60     		str	r2, [r7, #4]
 5198 000c 7B81     		strh	r3, [r7, #10]	@ movhi
1581:C:/Users/49542/Desktop/GD32F30x_Demo_Suites_V2.0.0/GD32F30x_Demo_Suites_V2.0.0/GD32F30x_Firmware_Library/GD32F30x_standard_peripheral/Source\gd32f30x_timer.c ****     uint16_t icpolarity  = 0x0U;
 5199              		.loc 1 1581 0
 5200 000e 0023     		movs	r3, #0
 5201 0010 FB82     		strh	r3, [r7, #22]	@ movhi
1582:C:/Users/49542/Desktop/GD32F30x_Demo_Suites_V2.0.0/GD32F30x_Demo_Suites_V2.0.0/GD32F30x_Firmware_Library/GD32F30x_standard_peripheral/Source\gd32f30x_timer.c ****     uint16_t icselection = 0x0U;
 5202              		.loc 1 1582 0
 5203 0012 0023     		movs	r3, #0
 5204 0014 BB82     		strh	r3, [r7, #20]	@ movhi
1583:C:/Users/49542/Desktop/GD32F30x_Demo_Suites_V2.0.0/GD32F30x_Demo_Suites_V2.0.0/GD32F30x_Firmware_Library/GD32F30x_standard_peripheral/Source\gd32f30x_timer.c **** 
1584:C:/Users/49542/Desktop/GD32F30x_Demo_Suites_V2.0.0/GD32F30x_Demo_Suites_V2.0.0/GD32F30x_Firmware_Library/GD32F30x_standard_peripheral/Source\gd32f30x_timer.c ****     /* Set channel input polarity */
1585:C:/Users/49542/Desktop/GD32F30x_Demo_Suites_V2.0.0/GD32F30x_Demo_Suites_V2.0.0/GD32F30x_Firmware_Library/GD32F30x_standard_peripheral/Source\gd32f30x_timer.c ****     if(TIMER_IC_POLARITY_RISING == icpwm->icpolarity){
 5205              		.loc 1 1585 0
 5206 0016 7B68     		ldr	r3, [r7, #4]
 5207 0018 1B88     		ldrh	r3, [r3]
 5208 001a 002B     		cmp	r3, #0
 5209 001c 02D1     		bne	.L226
1586:C:/Users/49542/Desktop/GD32F30x_Demo_Suites_V2.0.0/GD32F30x_Demo_Suites_V2.0.0/GD32F30x_Firmware_Library/GD32F30x_standard_peripheral/Source\gd32f30x_timer.c ****         icpolarity = TIMER_IC_POLARITY_FALLING;
 5210              		.loc 1 1586 0
 5211 001e 0223     		movs	r3, #2
 5212 0020 FB82     		strh	r3, [r7, #22]	@ movhi
 5213 0022 01E0     		b	.L227
 5214              	.L226:
1587:C:/Users/49542/Desktop/GD32F30x_Demo_Suites_V2.0.0/GD32F30x_Demo_Suites_V2.0.0/GD32F30x_Firmware_Library/GD32F30x_standard_peripheral/Source\gd32f30x_timer.c ****     }else{
1588:C:/Users/49542/Desktop/GD32F30x_Demo_Suites_V2.0.0/GD32F30x_Demo_Suites_V2.0.0/GD32F30x_Firmware_Library/GD32F30x_standard_peripheral/Source\gd32f30x_timer.c ****         icpolarity = TIMER_IC_POLARITY_RISING;
 5215              		.loc 1 1588 0
 5216 0024 0023     		movs	r3, #0
 5217 0026 FB82     		strh	r3, [r7, #22]	@ movhi
 5218              	.L227:
1589:C:/Users/49542/Desktop/GD32F30x_Demo_Suites_V2.0.0/GD32F30x_Demo_Suites_V2.0.0/GD32F30x_Firmware_Library/GD32F30x_standard_peripheral/Source\gd32f30x_timer.c ****     }
1590:C:/Users/49542/Desktop/GD32F30x_Demo_Suites_V2.0.0/GD32F30x_Demo_Suites_V2.0.0/GD32F30x_Firmware_Library/GD32F30x_standard_peripheral/Source\gd32f30x_timer.c **** 
1591:C:/Users/49542/Desktop/GD32F30x_Demo_Suites_V2.0.0/GD32F30x_Demo_Suites_V2.0.0/GD32F30x_Firmware_Library/GD32F30x_standard_peripheral/Source\gd32f30x_timer.c ****     /* Set channel input mode selection */
1592:C:/Users/49542/Desktop/GD32F30x_Demo_Suites_V2.0.0/GD32F30x_Demo_Suites_V2.0.0/GD32F30x_Firmware_Library/GD32F30x_standard_peripheral/Source\gd32f30x_timer.c ****     if(TIMER_IC_SELECTION_DIRECTTI == icpwm->icselection){
 5219              		.loc 1 1592 0
ARM GAS  C:\Users\49542\AppData\Local\Temp\ccx6VnNU.s 			page 120


 5220 0028 7B68     		ldr	r3, [r7, #4]
 5221 002a 5B88     		ldrh	r3, [r3, #2]
 5222 002c 012B     		cmp	r3, #1
 5223 002e 02D1     		bne	.L228
1593:C:/Users/49542/Desktop/GD32F30x_Demo_Suites_V2.0.0/GD32F30x_Demo_Suites_V2.0.0/GD32F30x_Firmware_Library/GD32F30x_standard_peripheral/Source\gd32f30x_timer.c ****         icselection = TIMER_IC_SELECTION_INDIRECTTI;
 5224              		.loc 1 1593 0
 5225 0030 0223     		movs	r3, #2
 5226 0032 BB82     		strh	r3, [r7, #20]	@ movhi
 5227 0034 01E0     		b	.L229
 5228              	.L228:
1594:C:/Users/49542/Desktop/GD32F30x_Demo_Suites_V2.0.0/GD32F30x_Demo_Suites_V2.0.0/GD32F30x_Firmware_Library/GD32F30x_standard_peripheral/Source\gd32f30x_timer.c ****     }else{
1595:C:/Users/49542/Desktop/GD32F30x_Demo_Suites_V2.0.0/GD32F30x_Demo_Suites_V2.0.0/GD32F30x_Firmware_Library/GD32F30x_standard_peripheral/Source\gd32f30x_timer.c ****         icselection = TIMER_IC_SELECTION_DIRECTTI;
 5229              		.loc 1 1595 0
 5230 0036 0123     		movs	r3, #1
 5231 0038 BB82     		strh	r3, [r7, #20]	@ movhi
 5232              	.L229:
1596:C:/Users/49542/Desktop/GD32F30x_Demo_Suites_V2.0.0/GD32F30x_Demo_Suites_V2.0.0/GD32F30x_Firmware_Library/GD32F30x_standard_peripheral/Source\gd32f30x_timer.c ****     }
1597:C:/Users/49542/Desktop/GD32F30x_Demo_Suites_V2.0.0/GD32F30x_Demo_Suites_V2.0.0/GD32F30x_Firmware_Library/GD32F30x_standard_peripheral/Source\gd32f30x_timer.c **** 
1598:C:/Users/49542/Desktop/GD32F30x_Demo_Suites_V2.0.0/GD32F30x_Demo_Suites_V2.0.0/GD32F30x_Firmware_Library/GD32F30x_standard_peripheral/Source\gd32f30x_timer.c ****     if(TIMER_CH_0 == channel){
 5233              		.loc 1 1598 0
 5234 003a 7B89     		ldrh	r3, [r7, #10]
 5235 003c 002B     		cmp	r3, #0
 5236 003e 40F09980 		bne	.L230
1599:C:/Users/49542/Desktop/GD32F30x_Demo_Suites_V2.0.0/GD32F30x_Demo_Suites_V2.0.0/GD32F30x_Firmware_Library/GD32F30x_standard_peripheral/Source\gd32f30x_timer.c ****         /* reset the CH0EN bit */
1600:C:/Users/49542/Desktop/GD32F30x_Demo_Suites_V2.0.0/GD32F30x_Demo_Suites_V2.0.0/GD32F30x_Firmware_Library/GD32F30x_standard_peripheral/Source\gd32f30x_timer.c ****         TIMER_CHCTL2(timer_periph) &= (~(uint32_t)TIMER_CHCTL2_CH0EN);
 5237              		.loc 1 1600 0
 5238 0042 FB68     		ldr	r3, [r7, #12]
 5239 0044 2033     		adds	r3, r3, #32
 5240 0046 1B68     		ldr	r3, [r3]
 5241 0048 FA68     		ldr	r2, [r7, #12]
 5242 004a 2032     		adds	r2, r2, #32
 5243 004c 23F00103 		bic	r3, r3, #1
 5244 0050 1360     		str	r3, [r2]
1601:C:/Users/49542/Desktop/GD32F30x_Demo_Suites_V2.0.0/GD32F30x_Demo_Suites_V2.0.0/GD32F30x_Firmware_Library/GD32F30x_standard_peripheral/Source\gd32f30x_timer.c ****         /* reset the CH0P and CH0NP bits */
1602:C:/Users/49542/Desktop/GD32F30x_Demo_Suites_V2.0.0/GD32F30x_Demo_Suites_V2.0.0/GD32F30x_Firmware_Library/GD32F30x_standard_peripheral/Source\gd32f30x_timer.c ****         TIMER_CHCTL2(timer_periph) &= (~(uint32_t)(TIMER_CHCTL2_CH0P|TIMER_CHCTL2_CH0NP));
 5245              		.loc 1 1602 0
 5246 0052 FB68     		ldr	r3, [r7, #12]
 5247 0054 2033     		adds	r3, r3, #32
 5248 0056 1B68     		ldr	r3, [r3]
 5249 0058 FA68     		ldr	r2, [r7, #12]
 5250 005a 2032     		adds	r2, r2, #32
 5251 005c 23F00A03 		bic	r3, r3, #10
 5252 0060 1360     		str	r3, [r2]
1603:C:/Users/49542/Desktop/GD32F30x_Demo_Suites_V2.0.0/GD32F30x_Demo_Suites_V2.0.0/GD32F30x_Firmware_Library/GD32F30x_standard_peripheral/Source\gd32f30x_timer.c ****         /* set the CH0P and CH0NP bits */
1604:C:/Users/49542/Desktop/GD32F30x_Demo_Suites_V2.0.0/GD32F30x_Demo_Suites_V2.0.0/GD32F30x_Firmware_Library/GD32F30x_standard_peripheral/Source\gd32f30x_timer.c ****         TIMER_CHCTL2(timer_periph) |= (uint32_t)(icpwm->icpolarity);
 5253              		.loc 1 1604 0
 5254 0062 FB68     		ldr	r3, [r7, #12]
 5255 0064 2033     		adds	r3, r3, #32
 5256 0066 1B68     		ldr	r3, [r3]
 5257 0068 7A68     		ldr	r2, [r7, #4]
 5258 006a 1288     		ldrh	r2, [r2]
 5259 006c 1146     		mov	r1, r2
 5260 006e FA68     		ldr	r2, [r7, #12]
 5261 0070 2032     		adds	r2, r2, #32
 5262 0072 0B43     		orrs	r3, r3, r1
 5263 0074 1360     		str	r3, [r2]
1605:C:/Users/49542/Desktop/GD32F30x_Demo_Suites_V2.0.0/GD32F30x_Demo_Suites_V2.0.0/GD32F30x_Firmware_Library/GD32F30x_standard_peripheral/Source\gd32f30x_timer.c ****         /* reset the CH0MS bit */
ARM GAS  C:\Users\49542\AppData\Local\Temp\ccx6VnNU.s 			page 121


1606:C:/Users/49542/Desktop/GD32F30x_Demo_Suites_V2.0.0/GD32F30x_Demo_Suites_V2.0.0/GD32F30x_Firmware_Library/GD32F30x_standard_peripheral/Source\gd32f30x_timer.c ****         TIMER_CHCTL0(timer_periph) &= (~(uint32_t)TIMER_CHCTL0_CH0MS);
 5264              		.loc 1 1606 0
 5265 0076 FB68     		ldr	r3, [r7, #12]
 5266 0078 1833     		adds	r3, r3, #24
 5267 007a 1B68     		ldr	r3, [r3]
 5268 007c FA68     		ldr	r2, [r7, #12]
 5269 007e 1832     		adds	r2, r2, #24
 5270 0080 23F00303 		bic	r3, r3, #3
 5271 0084 1360     		str	r3, [r2]
1607:C:/Users/49542/Desktop/GD32F30x_Demo_Suites_V2.0.0/GD32F30x_Demo_Suites_V2.0.0/GD32F30x_Firmware_Library/GD32F30x_standard_peripheral/Source\gd32f30x_timer.c ****         /* set the CH0MS bit */
1608:C:/Users/49542/Desktop/GD32F30x_Demo_Suites_V2.0.0/GD32F30x_Demo_Suites_V2.0.0/GD32F30x_Firmware_Library/GD32F30x_standard_peripheral/Source\gd32f30x_timer.c ****         TIMER_CHCTL0(timer_periph) |= (uint32_t)(icpwm->icselection);
 5272              		.loc 1 1608 0
 5273 0086 FB68     		ldr	r3, [r7, #12]
 5274 0088 1833     		adds	r3, r3, #24
 5275 008a 1B68     		ldr	r3, [r3]
 5276 008c 7A68     		ldr	r2, [r7, #4]
 5277 008e 5288     		ldrh	r2, [r2, #2]
 5278 0090 1146     		mov	r1, r2
 5279 0092 FA68     		ldr	r2, [r7, #12]
 5280 0094 1832     		adds	r2, r2, #24
 5281 0096 0B43     		orrs	r3, r3, r1
 5282 0098 1360     		str	r3, [r2]
1609:C:/Users/49542/Desktop/GD32F30x_Demo_Suites_V2.0.0/GD32F30x_Demo_Suites_V2.0.0/GD32F30x_Firmware_Library/GD32F30x_standard_peripheral/Source\gd32f30x_timer.c ****         /* reset the CH0CAPFLT bit */
1610:C:/Users/49542/Desktop/GD32F30x_Demo_Suites_V2.0.0/GD32F30x_Demo_Suites_V2.0.0/GD32F30x_Firmware_Library/GD32F30x_standard_peripheral/Source\gd32f30x_timer.c ****         TIMER_CHCTL0(timer_periph) &= (~(uint32_t)TIMER_CHCTL0_CH0CAPFLT);
 5283              		.loc 1 1610 0
 5284 009a FB68     		ldr	r3, [r7, #12]
 5285 009c 1833     		adds	r3, r3, #24
 5286 009e 1B68     		ldr	r3, [r3]
 5287 00a0 FA68     		ldr	r2, [r7, #12]
 5288 00a2 1832     		adds	r2, r2, #24
 5289 00a4 23F0F003 		bic	r3, r3, #240
 5290 00a8 1360     		str	r3, [r2]
1611:C:/Users/49542/Desktop/GD32F30x_Demo_Suites_V2.0.0/GD32F30x_Demo_Suites_V2.0.0/GD32F30x_Firmware_Library/GD32F30x_standard_peripheral/Source\gd32f30x_timer.c ****         /* set the CH0CAPFLT bit */
1612:C:/Users/49542/Desktop/GD32F30x_Demo_Suites_V2.0.0/GD32F30x_Demo_Suites_V2.0.0/GD32F30x_Firmware_Library/GD32F30x_standard_peripheral/Source\gd32f30x_timer.c ****         TIMER_CHCTL0(timer_periph) |= ((uint32_t)(icpwm->icfilter) << 4U);
 5291              		.loc 1 1612 0
 5292 00aa FB68     		ldr	r3, [r7, #12]
 5293 00ac 1833     		adds	r3, r3, #24
 5294 00ae 1A68     		ldr	r2, [r3]
 5295 00b0 7B68     		ldr	r3, [r7, #4]
 5296 00b2 DB88     		ldrh	r3, [r3, #6]
 5297 00b4 1B01     		lsls	r3, r3, #4
 5298 00b6 F968     		ldr	r1, [r7, #12]
 5299 00b8 1831     		adds	r1, r1, #24
 5300 00ba 1343     		orrs	r3, r3, r2
 5301 00bc 0B60     		str	r3, [r1]
1613:C:/Users/49542/Desktop/GD32F30x_Demo_Suites_V2.0.0/GD32F30x_Demo_Suites_V2.0.0/GD32F30x_Firmware_Library/GD32F30x_standard_peripheral/Source\gd32f30x_timer.c ****         /* set the CH0EN bit */
1614:C:/Users/49542/Desktop/GD32F30x_Demo_Suites_V2.0.0/GD32F30x_Demo_Suites_V2.0.0/GD32F30x_Firmware_Library/GD32F30x_standard_peripheral/Source\gd32f30x_timer.c ****         TIMER_CHCTL2(timer_periph) |= (uint32_t)TIMER_CHCTL2_CH0EN;
 5302              		.loc 1 1614 0
 5303 00be FB68     		ldr	r3, [r7, #12]
 5304 00c0 2033     		adds	r3, r3, #32
 5305 00c2 1B68     		ldr	r3, [r3]
 5306 00c4 FA68     		ldr	r2, [r7, #12]
 5307 00c6 2032     		adds	r2, r2, #32
 5308 00c8 43F00103 		orr	r3, r3, #1
 5309 00cc 1360     		str	r3, [r2]
1615:C:/Users/49542/Desktop/GD32F30x_Demo_Suites_V2.0.0/GD32F30x_Demo_Suites_V2.0.0/GD32F30x_Firmware_Library/GD32F30x_standard_peripheral/Source\gd32f30x_timer.c ****         /* configure TIMER channel input capture prescaler value */
1616:C:/Users/49542/Desktop/GD32F30x_Demo_Suites_V2.0.0/GD32F30x_Demo_Suites_V2.0.0/GD32F30x_Firmware_Library/GD32F30x_standard_peripheral/Source\gd32f30x_timer.c ****         timer_channel_input_capture_prescaler_config(timer_periph,TIMER_CH_0,(uint16_t)(icpwm->icpr
ARM GAS  C:\Users\49542\AppData\Local\Temp\ccx6VnNU.s 			page 122


 5310              		.loc 1 1616 0
 5311 00ce 7B68     		ldr	r3, [r7, #4]
 5312 00d0 9B88     		ldrh	r3, [r3, #4]
 5313 00d2 1A46     		mov	r2, r3
 5314 00d4 0021     		movs	r1, #0
 5315 00d6 F868     		ldr	r0, [r7, #12]
 5316 00d8 FFF7FEFF 		bl	timer_channel_input_capture_prescaler_config
1617:C:/Users/49542/Desktop/GD32F30x_Demo_Suites_V2.0.0/GD32F30x_Demo_Suites_V2.0.0/GD32F30x_Firmware_Library/GD32F30x_standard_peripheral/Source\gd32f30x_timer.c **** 
1618:C:/Users/49542/Desktop/GD32F30x_Demo_Suites_V2.0.0/GD32F30x_Demo_Suites_V2.0.0/GD32F30x_Firmware_Library/GD32F30x_standard_peripheral/Source\gd32f30x_timer.c ****         /* reset the CH1EN bit */
1619:C:/Users/49542/Desktop/GD32F30x_Demo_Suites_V2.0.0/GD32F30x_Demo_Suites_V2.0.0/GD32F30x_Firmware_Library/GD32F30x_standard_peripheral/Source\gd32f30x_timer.c ****         TIMER_CHCTL2(timer_periph) &= (~(uint32_t)TIMER_CHCTL2_CH1EN);
 5317              		.loc 1 1619 0
 5318 00dc FB68     		ldr	r3, [r7, #12]
 5319 00de 2033     		adds	r3, r3, #32
 5320 00e0 1B68     		ldr	r3, [r3]
 5321 00e2 FA68     		ldr	r2, [r7, #12]
 5322 00e4 2032     		adds	r2, r2, #32
 5323 00e6 23F01003 		bic	r3, r3, #16
 5324 00ea 1360     		str	r3, [r2]
1620:C:/Users/49542/Desktop/GD32F30x_Demo_Suites_V2.0.0/GD32F30x_Demo_Suites_V2.0.0/GD32F30x_Firmware_Library/GD32F30x_standard_peripheral/Source\gd32f30x_timer.c ****         /* reset the CH1P and CH1NP bits */
1621:C:/Users/49542/Desktop/GD32F30x_Demo_Suites_V2.0.0/GD32F30x_Demo_Suites_V2.0.0/GD32F30x_Firmware_Library/GD32F30x_standard_peripheral/Source\gd32f30x_timer.c ****         TIMER_CHCTL2(timer_periph) &= (~(uint32_t)(TIMER_CHCTL2_CH1P|TIMER_CHCTL2_CH1NP));
 5325              		.loc 1 1621 0
 5326 00ec FB68     		ldr	r3, [r7, #12]
 5327 00ee 2033     		adds	r3, r3, #32
 5328 00f0 1B68     		ldr	r3, [r3]
 5329 00f2 FA68     		ldr	r2, [r7, #12]
 5330 00f4 2032     		adds	r2, r2, #32
 5331 00f6 23F0A003 		bic	r3, r3, #160
 5332 00fa 1360     		str	r3, [r2]
1622:C:/Users/49542/Desktop/GD32F30x_Demo_Suites_V2.0.0/GD32F30x_Demo_Suites_V2.0.0/GD32F30x_Firmware_Library/GD32F30x_standard_peripheral/Source\gd32f30x_timer.c ****         /* set the CH1P and CH1NP bits */
1623:C:/Users/49542/Desktop/GD32F30x_Demo_Suites_V2.0.0/GD32F30x_Demo_Suites_V2.0.0/GD32F30x_Firmware_Library/GD32F30x_standard_peripheral/Source\gd32f30x_timer.c ****         TIMER_CHCTL2(timer_periph) |= (uint32_t)((uint32_t)icpolarity << 4U);
 5333              		.loc 1 1623 0
 5334 00fc FB68     		ldr	r3, [r7, #12]
 5335 00fe 2033     		adds	r3, r3, #32
 5336 0100 1A68     		ldr	r2, [r3]
 5337 0102 FB8A     		ldrh	r3, [r7, #22]
 5338 0104 1B01     		lsls	r3, r3, #4
 5339 0106 F968     		ldr	r1, [r7, #12]
 5340 0108 2031     		adds	r1, r1, #32
 5341 010a 1343     		orrs	r3, r3, r2
 5342 010c 0B60     		str	r3, [r1]
1624:C:/Users/49542/Desktop/GD32F30x_Demo_Suites_V2.0.0/GD32F30x_Demo_Suites_V2.0.0/GD32F30x_Firmware_Library/GD32F30x_standard_peripheral/Source\gd32f30x_timer.c ****         /* reset the CH1MS bit */
1625:C:/Users/49542/Desktop/GD32F30x_Demo_Suites_V2.0.0/GD32F30x_Demo_Suites_V2.0.0/GD32F30x_Firmware_Library/GD32F30x_standard_peripheral/Source\gd32f30x_timer.c ****         TIMER_CHCTL0(timer_periph) &= (~(uint32_t)TIMER_CHCTL0_CH1MS);
 5343              		.loc 1 1625 0
 5344 010e FB68     		ldr	r3, [r7, #12]
 5345 0110 1833     		adds	r3, r3, #24
 5346 0112 1B68     		ldr	r3, [r3]
 5347 0114 FA68     		ldr	r2, [r7, #12]
 5348 0116 1832     		adds	r2, r2, #24
 5349 0118 23F44073 		bic	r3, r3, #768
 5350 011c 1360     		str	r3, [r2]
1626:C:/Users/49542/Desktop/GD32F30x_Demo_Suites_V2.0.0/GD32F30x_Demo_Suites_V2.0.0/GD32F30x_Firmware_Library/GD32F30x_standard_peripheral/Source\gd32f30x_timer.c ****         /* set the CH1MS bit */
1627:C:/Users/49542/Desktop/GD32F30x_Demo_Suites_V2.0.0/GD32F30x_Demo_Suites_V2.0.0/GD32F30x_Firmware_Library/GD32F30x_standard_peripheral/Source\gd32f30x_timer.c ****         TIMER_CHCTL0(timer_periph) |= (uint32_t)((uint32_t)icselection << 8U);
 5351              		.loc 1 1627 0
 5352 011e FB68     		ldr	r3, [r7, #12]
 5353 0120 1833     		adds	r3, r3, #24
 5354 0122 1A68     		ldr	r2, [r3]
 5355 0124 BB8A     		ldrh	r3, [r7, #20]
ARM GAS  C:\Users\49542\AppData\Local\Temp\ccx6VnNU.s 			page 123


 5356 0126 1B02     		lsls	r3, r3, #8
 5357 0128 F968     		ldr	r1, [r7, #12]
 5358 012a 1831     		adds	r1, r1, #24
 5359 012c 1343     		orrs	r3, r3, r2
 5360 012e 0B60     		str	r3, [r1]
1628:C:/Users/49542/Desktop/GD32F30x_Demo_Suites_V2.0.0/GD32F30x_Demo_Suites_V2.0.0/GD32F30x_Firmware_Library/GD32F30x_standard_peripheral/Source\gd32f30x_timer.c ****         /* reset the CH1CAPFLT bit */
1629:C:/Users/49542/Desktop/GD32F30x_Demo_Suites_V2.0.0/GD32F30x_Demo_Suites_V2.0.0/GD32F30x_Firmware_Library/GD32F30x_standard_peripheral/Source\gd32f30x_timer.c ****         TIMER_CHCTL0(timer_periph) &= (~(uint32_t)TIMER_CHCTL0_CH1CAPFLT);
 5361              		.loc 1 1629 0
 5362 0130 FB68     		ldr	r3, [r7, #12]
 5363 0132 1833     		adds	r3, r3, #24
 5364 0134 1B68     		ldr	r3, [r3]
 5365 0136 FA68     		ldr	r2, [r7, #12]
 5366 0138 1832     		adds	r2, r2, #24
 5367 013a 23F47043 		bic	r3, r3, #61440
 5368 013e 1360     		str	r3, [r2]
1630:C:/Users/49542/Desktop/GD32F30x_Demo_Suites_V2.0.0/GD32F30x_Demo_Suites_V2.0.0/GD32F30x_Firmware_Library/GD32F30x_standard_peripheral/Source\gd32f30x_timer.c ****         /* set the CH1CAPFLT bit */
1631:C:/Users/49542/Desktop/GD32F30x_Demo_Suites_V2.0.0/GD32F30x_Demo_Suites_V2.0.0/GD32F30x_Firmware_Library/GD32F30x_standard_peripheral/Source\gd32f30x_timer.c ****         TIMER_CHCTL0(timer_periph) |= (uint32_t)((uint32_t)(icpwm->icfilter) << 12U);
 5369              		.loc 1 1631 0
 5370 0140 FB68     		ldr	r3, [r7, #12]
 5371 0142 1833     		adds	r3, r3, #24
 5372 0144 1A68     		ldr	r2, [r3]
 5373 0146 7B68     		ldr	r3, [r7, #4]
 5374 0148 DB88     		ldrh	r3, [r3, #6]
 5375 014a 1B03     		lsls	r3, r3, #12
 5376 014c F968     		ldr	r1, [r7, #12]
 5377 014e 1831     		adds	r1, r1, #24
 5378 0150 1343     		orrs	r3, r3, r2
 5379 0152 0B60     		str	r3, [r1]
1632:C:/Users/49542/Desktop/GD32F30x_Demo_Suites_V2.0.0/GD32F30x_Demo_Suites_V2.0.0/GD32F30x_Firmware_Library/GD32F30x_standard_peripheral/Source\gd32f30x_timer.c ****         /* set the CH1EN bit */
1633:C:/Users/49542/Desktop/GD32F30x_Demo_Suites_V2.0.0/GD32F30x_Demo_Suites_V2.0.0/GD32F30x_Firmware_Library/GD32F30x_standard_peripheral/Source\gd32f30x_timer.c ****         TIMER_CHCTL2(timer_periph) |= (uint32_t)TIMER_CHCTL2_CH1EN;
 5380              		.loc 1 1633 0
 5381 0154 FB68     		ldr	r3, [r7, #12]
 5382 0156 2033     		adds	r3, r3, #32
 5383 0158 1B68     		ldr	r3, [r3]
 5384 015a FA68     		ldr	r2, [r7, #12]
 5385 015c 2032     		adds	r2, r2, #32
 5386 015e 43F01003 		orr	r3, r3, #16
 5387 0162 1360     		str	r3, [r2]
1634:C:/Users/49542/Desktop/GD32F30x_Demo_Suites_V2.0.0/GD32F30x_Demo_Suites_V2.0.0/GD32F30x_Firmware_Library/GD32F30x_standard_peripheral/Source\gd32f30x_timer.c ****         /* configure TIMER channel input capture prescaler value */
1635:C:/Users/49542/Desktop/GD32F30x_Demo_Suites_V2.0.0/GD32F30x_Demo_Suites_V2.0.0/GD32F30x_Firmware_Library/GD32F30x_standard_peripheral/Source\gd32f30x_timer.c ****         timer_channel_input_capture_prescaler_config(timer_periph,TIMER_CH_1,(uint16_t)(icpwm->icpr
 5388              		.loc 1 1635 0
 5389 0164 7B68     		ldr	r3, [r7, #4]
 5390 0166 9B88     		ldrh	r3, [r3, #4]
 5391 0168 1A46     		mov	r2, r3
 5392 016a 0121     		movs	r1, #1
 5393 016c F868     		ldr	r0, [r7, #12]
 5394 016e FFF7FEFF 		bl	timer_channel_input_capture_prescaler_config
1636:C:/Users/49542/Desktop/GD32F30x_Demo_Suites_V2.0.0/GD32F30x_Demo_Suites_V2.0.0/GD32F30x_Firmware_Library/GD32F30x_standard_peripheral/Source\gd32f30x_timer.c ****     }else{
1637:C:/Users/49542/Desktop/GD32F30x_Demo_Suites_V2.0.0/GD32F30x_Demo_Suites_V2.0.0/GD32F30x_Firmware_Library/GD32F30x_standard_peripheral/Source\gd32f30x_timer.c ****         /* reset the CH1EN bit */
1638:C:/Users/49542/Desktop/GD32F30x_Demo_Suites_V2.0.0/GD32F30x_Demo_Suites_V2.0.0/GD32F30x_Firmware_Library/GD32F30x_standard_peripheral/Source\gd32f30x_timer.c ****         TIMER_CHCTL2(timer_periph) &= (~(uint32_t)TIMER_CHCTL2_CH1EN);
1639:C:/Users/49542/Desktop/GD32F30x_Demo_Suites_V2.0.0/GD32F30x_Demo_Suites_V2.0.0/GD32F30x_Firmware_Library/GD32F30x_standard_peripheral/Source\gd32f30x_timer.c ****         /* reset the CH1P and CH1NP bits */
1640:C:/Users/49542/Desktop/GD32F30x_Demo_Suites_V2.0.0/GD32F30x_Demo_Suites_V2.0.0/GD32F30x_Firmware_Library/GD32F30x_standard_peripheral/Source\gd32f30x_timer.c ****         TIMER_CHCTL2(timer_periph) &= (~(uint32_t)(TIMER_CHCTL2_CH1P|TIMER_CHCTL2_CH1NP));
1641:C:/Users/49542/Desktop/GD32F30x_Demo_Suites_V2.0.0/GD32F30x_Demo_Suites_V2.0.0/GD32F30x_Firmware_Library/GD32F30x_standard_peripheral/Source\gd32f30x_timer.c ****         /* set the CH1P and CH1NP bits */
1642:C:/Users/49542/Desktop/GD32F30x_Demo_Suites_V2.0.0/GD32F30x_Demo_Suites_V2.0.0/GD32F30x_Firmware_Library/GD32F30x_standard_peripheral/Source\gd32f30x_timer.c ****         TIMER_CHCTL2(timer_periph) |= (uint32_t)((uint32_t)(icpwm->icpolarity) << 4U);
1643:C:/Users/49542/Desktop/GD32F30x_Demo_Suites_V2.0.0/GD32F30x_Demo_Suites_V2.0.0/GD32F30x_Firmware_Library/GD32F30x_standard_peripheral/Source\gd32f30x_timer.c ****         /* reset the CH1MS bit */
1644:C:/Users/49542/Desktop/GD32F30x_Demo_Suites_V2.0.0/GD32F30x_Demo_Suites_V2.0.0/GD32F30x_Firmware_Library/GD32F30x_standard_peripheral/Source\gd32f30x_timer.c ****         TIMER_CHCTL0(timer_periph) &= (~(uint32_t)TIMER_CHCTL0_CH1MS);
1645:C:/Users/49542/Desktop/GD32F30x_Demo_Suites_V2.0.0/GD32F30x_Demo_Suites_V2.0.0/GD32F30x_Firmware_Library/GD32F30x_standard_peripheral/Source\gd32f30x_timer.c ****         /* set the CH1MS bit */
ARM GAS  C:\Users\49542\AppData\Local\Temp\ccx6VnNU.s 			page 124


1646:C:/Users/49542/Desktop/GD32F30x_Demo_Suites_V2.0.0/GD32F30x_Demo_Suites_V2.0.0/GD32F30x_Firmware_Library/GD32F30x_standard_peripheral/Source\gd32f30x_timer.c ****         TIMER_CHCTL0(timer_periph) |= (uint32_t)((uint32_t)(icpwm->icselection) << 8U);
1647:C:/Users/49542/Desktop/GD32F30x_Demo_Suites_V2.0.0/GD32F30x_Demo_Suites_V2.0.0/GD32F30x_Firmware_Library/GD32F30x_standard_peripheral/Source\gd32f30x_timer.c ****         /* reset the CH1CAPFLT bit */
1648:C:/Users/49542/Desktop/GD32F30x_Demo_Suites_V2.0.0/GD32F30x_Demo_Suites_V2.0.0/GD32F30x_Firmware_Library/GD32F30x_standard_peripheral/Source\gd32f30x_timer.c ****         TIMER_CHCTL0(timer_periph) &= (~(uint32_t)TIMER_CHCTL0_CH1CAPFLT);
1649:C:/Users/49542/Desktop/GD32F30x_Demo_Suites_V2.0.0/GD32F30x_Demo_Suites_V2.0.0/GD32F30x_Firmware_Library/GD32F30x_standard_peripheral/Source\gd32f30x_timer.c ****         /* set the CH1CAPFLT bit */
1650:C:/Users/49542/Desktop/GD32F30x_Demo_Suites_V2.0.0/GD32F30x_Demo_Suites_V2.0.0/GD32F30x_Firmware_Library/GD32F30x_standard_peripheral/Source\gd32f30x_timer.c ****         TIMER_CHCTL0(timer_periph) |= (uint32_t)((uint32_t)(icpwm->icfilter) << 12U);
1651:C:/Users/49542/Desktop/GD32F30x_Demo_Suites_V2.0.0/GD32F30x_Demo_Suites_V2.0.0/GD32F30x_Firmware_Library/GD32F30x_standard_peripheral/Source\gd32f30x_timer.c ****         /* set the CH1EN bit */
1652:C:/Users/49542/Desktop/GD32F30x_Demo_Suites_V2.0.0/GD32F30x_Demo_Suites_V2.0.0/GD32F30x_Firmware_Library/GD32F30x_standard_peripheral/Source\gd32f30x_timer.c ****         TIMER_CHCTL2(timer_periph) |= (uint32_t)TIMER_CHCTL2_CH1EN;
1653:C:/Users/49542/Desktop/GD32F30x_Demo_Suites_V2.0.0/GD32F30x_Demo_Suites_V2.0.0/GD32F30x_Firmware_Library/GD32F30x_standard_peripheral/Source\gd32f30x_timer.c ****         /* configure TIMER channel input capture prescaler value */
1654:C:/Users/49542/Desktop/GD32F30x_Demo_Suites_V2.0.0/GD32F30x_Demo_Suites_V2.0.0/GD32F30x_Firmware_Library/GD32F30x_standard_peripheral/Source\gd32f30x_timer.c ****         timer_channel_input_capture_prescaler_config(timer_periph, TIMER_CH_1, (uint16_t)(icpwm->ic
1655:C:/Users/49542/Desktop/GD32F30x_Demo_Suites_V2.0.0/GD32F30x_Demo_Suites_V2.0.0/GD32F30x_Firmware_Library/GD32F30x_standard_peripheral/Source\gd32f30x_timer.c **** 
1656:C:/Users/49542/Desktop/GD32F30x_Demo_Suites_V2.0.0/GD32F30x_Demo_Suites_V2.0.0/GD32F30x_Firmware_Library/GD32F30x_standard_peripheral/Source\gd32f30x_timer.c ****         /* reset the CH0EN bit */
1657:C:/Users/49542/Desktop/GD32F30x_Demo_Suites_V2.0.0/GD32F30x_Demo_Suites_V2.0.0/GD32F30x_Firmware_Library/GD32F30x_standard_peripheral/Source\gd32f30x_timer.c ****         TIMER_CHCTL2(timer_periph) &= (~(uint32_t)TIMER_CHCTL2_CH0EN);
1658:C:/Users/49542/Desktop/GD32F30x_Demo_Suites_V2.0.0/GD32F30x_Demo_Suites_V2.0.0/GD32F30x_Firmware_Library/GD32F30x_standard_peripheral/Source\gd32f30x_timer.c ****         /* reset the CH0P and CH0NP bits */
1659:C:/Users/49542/Desktop/GD32F30x_Demo_Suites_V2.0.0/GD32F30x_Demo_Suites_V2.0.0/GD32F30x_Firmware_Library/GD32F30x_standard_peripheral/Source\gd32f30x_timer.c ****         TIMER_CHCTL2(timer_periph) &= (~(uint32_t)(TIMER_CHCTL2_CH0P|TIMER_CHCTL2_CH0NP));
1660:C:/Users/49542/Desktop/GD32F30x_Demo_Suites_V2.0.0/GD32F30x_Demo_Suites_V2.0.0/GD32F30x_Firmware_Library/GD32F30x_standard_peripheral/Source\gd32f30x_timer.c ****         /* set the CH0P and CH0NP bits */
1661:C:/Users/49542/Desktop/GD32F30x_Demo_Suites_V2.0.0/GD32F30x_Demo_Suites_V2.0.0/GD32F30x_Firmware_Library/GD32F30x_standard_peripheral/Source\gd32f30x_timer.c ****         TIMER_CHCTL2(timer_periph) |= (uint32_t)icpolarity;
1662:C:/Users/49542/Desktop/GD32F30x_Demo_Suites_V2.0.0/GD32F30x_Demo_Suites_V2.0.0/GD32F30x_Firmware_Library/GD32F30x_standard_peripheral/Source\gd32f30x_timer.c ****         /* reset the CH0MS bit */
1663:C:/Users/49542/Desktop/GD32F30x_Demo_Suites_V2.0.0/GD32F30x_Demo_Suites_V2.0.0/GD32F30x_Firmware_Library/GD32F30x_standard_peripheral/Source\gd32f30x_timer.c ****         TIMER_CHCTL0(timer_periph) &= (~(uint32_t)TIMER_CHCTL0_CH0MS);
1664:C:/Users/49542/Desktop/GD32F30x_Demo_Suites_V2.0.0/GD32F30x_Demo_Suites_V2.0.0/GD32F30x_Firmware_Library/GD32F30x_standard_peripheral/Source\gd32f30x_timer.c ****         /* set the CH0MS bit */
1665:C:/Users/49542/Desktop/GD32F30x_Demo_Suites_V2.0.0/GD32F30x_Demo_Suites_V2.0.0/GD32F30x_Firmware_Library/GD32F30x_standard_peripheral/Source\gd32f30x_timer.c ****         TIMER_CHCTL0(timer_periph) |= (uint32_t)icselection;
1666:C:/Users/49542/Desktop/GD32F30x_Demo_Suites_V2.0.0/GD32F30x_Demo_Suites_V2.0.0/GD32F30x_Firmware_Library/GD32F30x_standard_peripheral/Source\gd32f30x_timer.c ****         /* reset the CH0CAPFLT bit */
1667:C:/Users/49542/Desktop/GD32F30x_Demo_Suites_V2.0.0/GD32F30x_Demo_Suites_V2.0.0/GD32F30x_Firmware_Library/GD32F30x_standard_peripheral/Source\gd32f30x_timer.c ****         TIMER_CHCTL0(timer_periph) &= (~(uint32_t)TIMER_CHCTL0_CH0CAPFLT);
1668:C:/Users/49542/Desktop/GD32F30x_Demo_Suites_V2.0.0/GD32F30x_Demo_Suites_V2.0.0/GD32F30x_Firmware_Library/GD32F30x_standard_peripheral/Source\gd32f30x_timer.c ****         /* set the CH0CAPFLT bit */
1669:C:/Users/49542/Desktop/GD32F30x_Demo_Suites_V2.0.0/GD32F30x_Demo_Suites_V2.0.0/GD32F30x_Firmware_Library/GD32F30x_standard_peripheral/Source\gd32f30x_timer.c ****         TIMER_CHCTL0(timer_periph) |= ((uint32_t)(icpwm->icfilter) << 4U);
1670:C:/Users/49542/Desktop/GD32F30x_Demo_Suites_V2.0.0/GD32F30x_Demo_Suites_V2.0.0/GD32F30x_Firmware_Library/GD32F30x_standard_peripheral/Source\gd32f30x_timer.c ****         /* set the CH0EN bit */
1671:C:/Users/49542/Desktop/GD32F30x_Demo_Suites_V2.0.0/GD32F30x_Demo_Suites_V2.0.0/GD32F30x_Firmware_Library/GD32F30x_standard_peripheral/Source\gd32f30x_timer.c ****         TIMER_CHCTL2(timer_periph) |= (uint32_t)TIMER_CHCTL2_CH0EN;
1672:C:/Users/49542/Desktop/GD32F30x_Demo_Suites_V2.0.0/GD32F30x_Demo_Suites_V2.0.0/GD32F30x_Firmware_Library/GD32F30x_standard_peripheral/Source\gd32f30x_timer.c ****         /* configure TIMER channel input capture prescaler value */
1673:C:/Users/49542/Desktop/GD32F30x_Demo_Suites_V2.0.0/GD32F30x_Demo_Suites_V2.0.0/GD32F30x_Firmware_Library/GD32F30x_standard_peripheral/Source\gd32f30x_timer.c ****         timer_channel_input_capture_prescaler_config(timer_periph, TIMER_CH_0, (uint16_t)(icpwm->ic
1674:C:/Users/49542/Desktop/GD32F30x_Demo_Suites_V2.0.0/GD32F30x_Demo_Suites_V2.0.0/GD32F30x_Firmware_Library/GD32F30x_standard_peripheral/Source\gd32f30x_timer.c ****     }
1675:C:/Users/49542/Desktop/GD32F30x_Demo_Suites_V2.0.0/GD32F30x_Demo_Suites_V2.0.0/GD32F30x_Firmware_Library/GD32F30x_standard_peripheral/Source\gd32f30x_timer.c **** }
 5395              		.loc 1 1675 0
 5396 0172 95E0     		b	.L232
 5397              	.L230:
1638:C:/Users/49542/Desktop/GD32F30x_Demo_Suites_V2.0.0/GD32F30x_Demo_Suites_V2.0.0/GD32F30x_Firmware_Library/GD32F30x_standard_peripheral/Source\gd32f30x_timer.c ****         /* reset the CH1P and CH1NP bits */
 5398              		.loc 1 1638 0
 5399 0174 FB68     		ldr	r3, [r7, #12]
 5400 0176 2033     		adds	r3, r3, #32
 5401 0178 1B68     		ldr	r3, [r3]
 5402 017a FA68     		ldr	r2, [r7, #12]
 5403 017c 2032     		adds	r2, r2, #32
 5404 017e 23F01003 		bic	r3, r3, #16
 5405 0182 1360     		str	r3, [r2]
1640:C:/Users/49542/Desktop/GD32F30x_Demo_Suites_V2.0.0/GD32F30x_Demo_Suites_V2.0.0/GD32F30x_Firmware_Library/GD32F30x_standard_peripheral/Source\gd32f30x_timer.c ****         /* set the CH1P and CH1NP bits */
 5406              		.loc 1 1640 0
 5407 0184 FB68     		ldr	r3, [r7, #12]
 5408 0186 2033     		adds	r3, r3, #32
 5409 0188 1B68     		ldr	r3, [r3]
 5410 018a FA68     		ldr	r2, [r7, #12]
 5411 018c 2032     		adds	r2, r2, #32
 5412 018e 23F0A003 		bic	r3, r3, #160
 5413 0192 1360     		str	r3, [r2]
1642:C:/Users/49542/Desktop/GD32F30x_Demo_Suites_V2.0.0/GD32F30x_Demo_Suites_V2.0.0/GD32F30x_Firmware_Library/GD32F30x_standard_peripheral/Source\gd32f30x_timer.c ****         /* reset the CH1MS bit */
 5414              		.loc 1 1642 0
 5415 0194 FB68     		ldr	r3, [r7, #12]
 5416 0196 2033     		adds	r3, r3, #32
 5417 0198 1A68     		ldr	r2, [r3]
 5418 019a 7B68     		ldr	r3, [r7, #4]
ARM GAS  C:\Users\49542\AppData\Local\Temp\ccx6VnNU.s 			page 125


 5419 019c 1B88     		ldrh	r3, [r3]
 5420 019e 1B01     		lsls	r3, r3, #4
 5421 01a0 F968     		ldr	r1, [r7, #12]
 5422 01a2 2031     		adds	r1, r1, #32
 5423 01a4 1343     		orrs	r3, r3, r2
 5424 01a6 0B60     		str	r3, [r1]
1644:C:/Users/49542/Desktop/GD32F30x_Demo_Suites_V2.0.0/GD32F30x_Demo_Suites_V2.0.0/GD32F30x_Firmware_Library/GD32F30x_standard_peripheral/Source\gd32f30x_timer.c ****         /* set the CH1MS bit */
 5425              		.loc 1 1644 0
 5426 01a8 FB68     		ldr	r3, [r7, #12]
 5427 01aa 1833     		adds	r3, r3, #24
 5428 01ac 1B68     		ldr	r3, [r3]
 5429 01ae FA68     		ldr	r2, [r7, #12]
 5430 01b0 1832     		adds	r2, r2, #24
 5431 01b2 23F44073 		bic	r3, r3, #768
 5432 01b6 1360     		str	r3, [r2]
1646:C:/Users/49542/Desktop/GD32F30x_Demo_Suites_V2.0.0/GD32F30x_Demo_Suites_V2.0.0/GD32F30x_Firmware_Library/GD32F30x_standard_peripheral/Source\gd32f30x_timer.c ****         /* reset the CH1CAPFLT bit */
 5433              		.loc 1 1646 0
 5434 01b8 FB68     		ldr	r3, [r7, #12]
 5435 01ba 1833     		adds	r3, r3, #24
 5436 01bc 1A68     		ldr	r2, [r3]
 5437 01be 7B68     		ldr	r3, [r7, #4]
 5438 01c0 5B88     		ldrh	r3, [r3, #2]
 5439 01c2 1B02     		lsls	r3, r3, #8
 5440 01c4 F968     		ldr	r1, [r7, #12]
 5441 01c6 1831     		adds	r1, r1, #24
 5442 01c8 1343     		orrs	r3, r3, r2
 5443 01ca 0B60     		str	r3, [r1]
1648:C:/Users/49542/Desktop/GD32F30x_Demo_Suites_V2.0.0/GD32F30x_Demo_Suites_V2.0.0/GD32F30x_Firmware_Library/GD32F30x_standard_peripheral/Source\gd32f30x_timer.c ****         /* set the CH1CAPFLT bit */
 5444              		.loc 1 1648 0
 5445 01cc FB68     		ldr	r3, [r7, #12]
 5446 01ce 1833     		adds	r3, r3, #24
 5447 01d0 1B68     		ldr	r3, [r3]
 5448 01d2 FA68     		ldr	r2, [r7, #12]
 5449 01d4 1832     		adds	r2, r2, #24
 5450 01d6 23F47043 		bic	r3, r3, #61440
 5451 01da 1360     		str	r3, [r2]
1650:C:/Users/49542/Desktop/GD32F30x_Demo_Suites_V2.0.0/GD32F30x_Demo_Suites_V2.0.0/GD32F30x_Firmware_Library/GD32F30x_standard_peripheral/Source\gd32f30x_timer.c ****         /* set the CH1EN bit */
 5452              		.loc 1 1650 0
 5453 01dc FB68     		ldr	r3, [r7, #12]
 5454 01de 1833     		adds	r3, r3, #24
 5455 01e0 1A68     		ldr	r2, [r3]
 5456 01e2 7B68     		ldr	r3, [r7, #4]
 5457 01e4 DB88     		ldrh	r3, [r3, #6]
 5458 01e6 1B03     		lsls	r3, r3, #12
 5459 01e8 F968     		ldr	r1, [r7, #12]
 5460 01ea 1831     		adds	r1, r1, #24
 5461 01ec 1343     		orrs	r3, r3, r2
 5462 01ee 0B60     		str	r3, [r1]
1652:C:/Users/49542/Desktop/GD32F30x_Demo_Suites_V2.0.0/GD32F30x_Demo_Suites_V2.0.0/GD32F30x_Firmware_Library/GD32F30x_standard_peripheral/Source\gd32f30x_timer.c ****         /* configure TIMER channel input capture prescaler value */
 5463              		.loc 1 1652 0
 5464 01f0 FB68     		ldr	r3, [r7, #12]
 5465 01f2 2033     		adds	r3, r3, #32
 5466 01f4 1B68     		ldr	r3, [r3]
 5467 01f6 FA68     		ldr	r2, [r7, #12]
 5468 01f8 2032     		adds	r2, r2, #32
 5469 01fa 43F01003 		orr	r3, r3, #16
 5470 01fe 1360     		str	r3, [r2]
ARM GAS  C:\Users\49542\AppData\Local\Temp\ccx6VnNU.s 			page 126


1654:C:/Users/49542/Desktop/GD32F30x_Demo_Suites_V2.0.0/GD32F30x_Demo_Suites_V2.0.0/GD32F30x_Firmware_Library/GD32F30x_standard_peripheral/Source\gd32f30x_timer.c **** 
 5471              		.loc 1 1654 0
 5472 0200 7B68     		ldr	r3, [r7, #4]
 5473 0202 9B88     		ldrh	r3, [r3, #4]
 5474 0204 1A46     		mov	r2, r3
 5475 0206 0121     		movs	r1, #1
 5476 0208 F868     		ldr	r0, [r7, #12]
 5477 020a FFF7FEFF 		bl	timer_channel_input_capture_prescaler_config
1657:C:/Users/49542/Desktop/GD32F30x_Demo_Suites_V2.0.0/GD32F30x_Demo_Suites_V2.0.0/GD32F30x_Firmware_Library/GD32F30x_standard_peripheral/Source\gd32f30x_timer.c ****         /* reset the CH0P and CH0NP bits */
 5478              		.loc 1 1657 0
 5479 020e FB68     		ldr	r3, [r7, #12]
 5480 0210 2033     		adds	r3, r3, #32
 5481 0212 1B68     		ldr	r3, [r3]
 5482 0214 FA68     		ldr	r2, [r7, #12]
 5483 0216 2032     		adds	r2, r2, #32
 5484 0218 23F00103 		bic	r3, r3, #1
 5485 021c 1360     		str	r3, [r2]
1659:C:/Users/49542/Desktop/GD32F30x_Demo_Suites_V2.0.0/GD32F30x_Demo_Suites_V2.0.0/GD32F30x_Firmware_Library/GD32F30x_standard_peripheral/Source\gd32f30x_timer.c ****         /* set the CH0P and CH0NP bits */
 5486              		.loc 1 1659 0
 5487 021e FB68     		ldr	r3, [r7, #12]
 5488 0220 2033     		adds	r3, r3, #32
 5489 0222 1B68     		ldr	r3, [r3]
 5490 0224 FA68     		ldr	r2, [r7, #12]
 5491 0226 2032     		adds	r2, r2, #32
 5492 0228 23F00A03 		bic	r3, r3, #10
 5493 022c 1360     		str	r3, [r2]
1661:C:/Users/49542/Desktop/GD32F30x_Demo_Suites_V2.0.0/GD32F30x_Demo_Suites_V2.0.0/GD32F30x_Firmware_Library/GD32F30x_standard_peripheral/Source\gd32f30x_timer.c ****         /* reset the CH0MS bit */
 5494              		.loc 1 1661 0
 5495 022e FB68     		ldr	r3, [r7, #12]
 5496 0230 2033     		adds	r3, r3, #32
 5497 0232 1A68     		ldr	r2, [r3]
 5498 0234 FB8A     		ldrh	r3, [r7, #22]
 5499 0236 F968     		ldr	r1, [r7, #12]
 5500 0238 2031     		adds	r1, r1, #32
 5501 023a 1343     		orrs	r3, r3, r2
 5502 023c 0B60     		str	r3, [r1]
1663:C:/Users/49542/Desktop/GD32F30x_Demo_Suites_V2.0.0/GD32F30x_Demo_Suites_V2.0.0/GD32F30x_Firmware_Library/GD32F30x_standard_peripheral/Source\gd32f30x_timer.c ****         /* set the CH0MS bit */
 5503              		.loc 1 1663 0
 5504 023e FB68     		ldr	r3, [r7, #12]
 5505 0240 1833     		adds	r3, r3, #24
 5506 0242 1B68     		ldr	r3, [r3]
 5507 0244 FA68     		ldr	r2, [r7, #12]
 5508 0246 1832     		adds	r2, r2, #24
 5509 0248 23F00303 		bic	r3, r3, #3
 5510 024c 1360     		str	r3, [r2]
1665:C:/Users/49542/Desktop/GD32F30x_Demo_Suites_V2.0.0/GD32F30x_Demo_Suites_V2.0.0/GD32F30x_Firmware_Library/GD32F30x_standard_peripheral/Source\gd32f30x_timer.c ****         /* reset the CH0CAPFLT bit */
 5511              		.loc 1 1665 0
 5512 024e FB68     		ldr	r3, [r7, #12]
 5513 0250 1833     		adds	r3, r3, #24
 5514 0252 1A68     		ldr	r2, [r3]
 5515 0254 BB8A     		ldrh	r3, [r7, #20]
 5516 0256 F968     		ldr	r1, [r7, #12]
 5517 0258 1831     		adds	r1, r1, #24
 5518 025a 1343     		orrs	r3, r3, r2
 5519 025c 0B60     		str	r3, [r1]
1667:C:/Users/49542/Desktop/GD32F30x_Demo_Suites_V2.0.0/GD32F30x_Demo_Suites_V2.0.0/GD32F30x_Firmware_Library/GD32F30x_standard_peripheral/Source\gd32f30x_timer.c ****         /* set the CH0CAPFLT bit */
 5520              		.loc 1 1667 0
ARM GAS  C:\Users\49542\AppData\Local\Temp\ccx6VnNU.s 			page 127


 5521 025e FB68     		ldr	r3, [r7, #12]
 5522 0260 1833     		adds	r3, r3, #24
 5523 0262 1B68     		ldr	r3, [r3]
 5524 0264 FA68     		ldr	r2, [r7, #12]
 5525 0266 1832     		adds	r2, r2, #24
 5526 0268 23F0F003 		bic	r3, r3, #240
 5527 026c 1360     		str	r3, [r2]
1669:C:/Users/49542/Desktop/GD32F30x_Demo_Suites_V2.0.0/GD32F30x_Demo_Suites_V2.0.0/GD32F30x_Firmware_Library/GD32F30x_standard_peripheral/Source\gd32f30x_timer.c ****         /* set the CH0EN bit */
 5528              		.loc 1 1669 0
 5529 026e FB68     		ldr	r3, [r7, #12]
 5530 0270 1833     		adds	r3, r3, #24
 5531 0272 1A68     		ldr	r2, [r3]
 5532 0274 7B68     		ldr	r3, [r7, #4]
 5533 0276 DB88     		ldrh	r3, [r3, #6]
 5534 0278 1B01     		lsls	r3, r3, #4
 5535 027a F968     		ldr	r1, [r7, #12]
 5536 027c 1831     		adds	r1, r1, #24
 5537 027e 1343     		orrs	r3, r3, r2
 5538 0280 0B60     		str	r3, [r1]
1671:C:/Users/49542/Desktop/GD32F30x_Demo_Suites_V2.0.0/GD32F30x_Demo_Suites_V2.0.0/GD32F30x_Firmware_Library/GD32F30x_standard_peripheral/Source\gd32f30x_timer.c ****         /* configure TIMER channel input capture prescaler value */
 5539              		.loc 1 1671 0
 5540 0282 FB68     		ldr	r3, [r7, #12]
 5541 0284 2033     		adds	r3, r3, #32
 5542 0286 1B68     		ldr	r3, [r3]
 5543 0288 FA68     		ldr	r2, [r7, #12]
 5544 028a 2032     		adds	r2, r2, #32
 5545 028c 43F00103 		orr	r3, r3, #1
 5546 0290 1360     		str	r3, [r2]
1673:C:/Users/49542/Desktop/GD32F30x_Demo_Suites_V2.0.0/GD32F30x_Demo_Suites_V2.0.0/GD32F30x_Firmware_Library/GD32F30x_standard_peripheral/Source\gd32f30x_timer.c ****     }
 5547              		.loc 1 1673 0
 5548 0292 7B68     		ldr	r3, [r7, #4]
 5549 0294 9B88     		ldrh	r3, [r3, #4]
 5550 0296 1A46     		mov	r2, r3
 5551 0298 0021     		movs	r1, #0
 5552 029a F868     		ldr	r0, [r7, #12]
 5553 029c FFF7FEFF 		bl	timer_channel_input_capture_prescaler_config
 5554              	.L232:
 5555              		.loc 1 1675 0
 5556 02a0 00BF     		nop
 5557 02a2 1837     		adds	r7, r7, #24
 5558              	.LCFI331:
 5559              		.cfi_def_cfa_offset 8
 5560 02a4 BD46     		mov	sp, r7
 5561              	.LCFI332:
 5562              		.cfi_def_cfa_register 13
 5563              		@ sp needed
 5564 02a6 80BD     		pop	{r7, pc}
 5565              		.cfi_endproc
 5566              	.LFE171:
 5568              		.section	.text.timer_hall_mode_config,"ax",%progbits
 5569              		.align	1
 5570              		.global	timer_hall_mode_config
 5571              		.syntax unified
 5572              		.thumb
 5573              		.thumb_func
 5574              		.fpu fpv4-sp-d16
 5576              	timer_hall_mode_config:
ARM GAS  C:\Users\49542\AppData\Local\Temp\ccx6VnNU.s 			page 128


 5577              	.LFB172:
1676:C:/Users/49542/Desktop/GD32F30x_Demo_Suites_V2.0.0/GD32F30x_Demo_Suites_V2.0.0/GD32F30x_Firmware_Library/GD32F30x_standard_peripheral/Source\gd32f30x_timer.c **** 
1677:C:/Users/49542/Desktop/GD32F30x_Demo_Suites_V2.0.0/GD32F30x_Demo_Suites_V2.0.0/GD32F30x_Firmware_Library/GD32F30x_standard_peripheral/Source\gd32f30x_timer.c **** /*!
1678:C:/Users/49542/Desktop/GD32F30x_Demo_Suites_V2.0.0/GD32F30x_Demo_Suites_V2.0.0/GD32F30x_Firmware_Library/GD32F30x_standard_peripheral/Source\gd32f30x_timer.c ****     \brief      configure TIMER hall sensor mode
1679:C:/Users/49542/Desktop/GD32F30x_Demo_Suites_V2.0.0/GD32F30x_Demo_Suites_V2.0.0/GD32F30x_Firmware_Library/GD32F30x_standard_peripheral/Source\gd32f30x_timer.c ****     \param[in]  timer_periph: TIMERx(x=0..4,7)
1680:C:/Users/49542/Desktop/GD32F30x_Demo_Suites_V2.0.0/GD32F30x_Demo_Suites_V2.0.0/GD32F30x_Firmware_Library/GD32F30x_standard_peripheral/Source\gd32f30x_timer.c ****     \param[in]  hallmode: 
1681:C:/Users/49542/Desktop/GD32F30x_Demo_Suites_V2.0.0/GD32F30x_Demo_Suites_V2.0.0/GD32F30x_Firmware_Library/GD32F30x_standard_peripheral/Source\gd32f30x_timer.c ****                 only one parameter can be selected which is shown as below:
1682:C:/Users/49542/Desktop/GD32F30x_Demo_Suites_V2.0.0/GD32F30x_Demo_Suites_V2.0.0/GD32F30x_Firmware_Library/GD32F30x_standard_peripheral/Source\gd32f30x_timer.c ****       \arg        TIMER_HALLINTERFACE_ENABLE: TIMER hall sensor mode enable
1683:C:/Users/49542/Desktop/GD32F30x_Demo_Suites_V2.0.0/GD32F30x_Demo_Suites_V2.0.0/GD32F30x_Firmware_Library/GD32F30x_standard_peripheral/Source\gd32f30x_timer.c ****       \arg        TIMER_HALLINTERFACE_DISABLE: TIMER hall sensor mode disable
1684:C:/Users/49542/Desktop/GD32F30x_Demo_Suites_V2.0.0/GD32F30x_Demo_Suites_V2.0.0/GD32F30x_Firmware_Library/GD32F30x_standard_peripheral/Source\gd32f30x_timer.c ****     \param[out] none
1685:C:/Users/49542/Desktop/GD32F30x_Demo_Suites_V2.0.0/GD32F30x_Demo_Suites_V2.0.0/GD32F30x_Firmware_Library/GD32F30x_standard_peripheral/Source\gd32f30x_timer.c ****     \retval     none
1686:C:/Users/49542/Desktop/GD32F30x_Demo_Suites_V2.0.0/GD32F30x_Demo_Suites_V2.0.0/GD32F30x_Firmware_Library/GD32F30x_standard_peripheral/Source\gd32f30x_timer.c **** */
1687:C:/Users/49542/Desktop/GD32F30x_Demo_Suites_V2.0.0/GD32F30x_Demo_Suites_V2.0.0/GD32F30x_Firmware_Library/GD32F30x_standard_peripheral/Source\gd32f30x_timer.c **** void timer_hall_mode_config(uint32_t timer_periph, uint32_t hallmode)
1688:C:/Users/49542/Desktop/GD32F30x_Demo_Suites_V2.0.0/GD32F30x_Demo_Suites_V2.0.0/GD32F30x_Firmware_Library/GD32F30x_standard_peripheral/Source\gd32f30x_timer.c **** {
 5578              		.loc 1 1688 0
 5579              		.cfi_startproc
 5580              		@ args = 0, pretend = 0, frame = 8
 5581              		@ frame_needed = 1, uses_anonymous_args = 0
 5582              		@ link register save eliminated.
 5583 0000 80B4     		push	{r7}
 5584              	.LCFI333:
 5585              		.cfi_def_cfa_offset 4
 5586              		.cfi_offset 7, -4
 5587 0002 83B0     		sub	sp, sp, #12
 5588              	.LCFI334:
 5589              		.cfi_def_cfa_offset 16
 5590 0004 00AF     		add	r7, sp, #0
 5591              	.LCFI335:
 5592              		.cfi_def_cfa_register 7
 5593 0006 7860     		str	r0, [r7, #4]
 5594 0008 3960     		str	r1, [r7]
1689:C:/Users/49542/Desktop/GD32F30x_Demo_Suites_V2.0.0/GD32F30x_Demo_Suites_V2.0.0/GD32F30x_Firmware_Library/GD32F30x_standard_peripheral/Source\gd32f30x_timer.c ****     if(TIMER_HALLINTERFACE_ENABLE == hallmode){
 5595              		.loc 1 1689 0
 5596 000a 3B68     		ldr	r3, [r7]
 5597 000c 002B     		cmp	r3, #0
 5598 000e 08D1     		bne	.L234
1690:C:/Users/49542/Desktop/GD32F30x_Demo_Suites_V2.0.0/GD32F30x_Demo_Suites_V2.0.0/GD32F30x_Firmware_Library/GD32F30x_standard_peripheral/Source\gd32f30x_timer.c ****         TIMER_CTL1(timer_periph) |= (uint32_t)TIMER_CTL1_TI0S;
 5599              		.loc 1 1690 0
 5600 0010 7B68     		ldr	r3, [r7, #4]
 5601 0012 0433     		adds	r3, r3, #4
 5602 0014 1B68     		ldr	r3, [r3]
 5603 0016 7A68     		ldr	r2, [r7, #4]
 5604 0018 0432     		adds	r2, r2, #4
 5605 001a 43F08003 		orr	r3, r3, #128
 5606 001e 1360     		str	r3, [r2]
1691:C:/Users/49542/Desktop/GD32F30x_Demo_Suites_V2.0.0/GD32F30x_Demo_Suites_V2.0.0/GD32F30x_Firmware_Library/GD32F30x_standard_peripheral/Source\gd32f30x_timer.c ****     }else if(TIMER_HALLINTERFACE_DISABLE == hallmode){
1692:C:/Users/49542/Desktop/GD32F30x_Demo_Suites_V2.0.0/GD32F30x_Demo_Suites_V2.0.0/GD32F30x_Firmware_Library/GD32F30x_standard_peripheral/Source\gd32f30x_timer.c ****         TIMER_CTL1(timer_periph) &= ~(uint32_t)TIMER_CTL1_TI0S;
1693:C:/Users/49542/Desktop/GD32F30x_Demo_Suites_V2.0.0/GD32F30x_Demo_Suites_V2.0.0/GD32F30x_Firmware_Library/GD32F30x_standard_peripheral/Source\gd32f30x_timer.c ****     }else{
1694:C:/Users/49542/Desktop/GD32F30x_Demo_Suites_V2.0.0/GD32F30x_Demo_Suites_V2.0.0/GD32F30x_Firmware_Library/GD32F30x_standard_peripheral/Source\gd32f30x_timer.c ****         /* illegal parameters */
1695:C:/Users/49542/Desktop/GD32F30x_Demo_Suites_V2.0.0/GD32F30x_Demo_Suites_V2.0.0/GD32F30x_Firmware_Library/GD32F30x_standard_peripheral/Source\gd32f30x_timer.c ****     }
1696:C:/Users/49542/Desktop/GD32F30x_Demo_Suites_V2.0.0/GD32F30x_Demo_Suites_V2.0.0/GD32F30x_Firmware_Library/GD32F30x_standard_peripheral/Source\gd32f30x_timer.c **** }
 5607              		.loc 1 1696 0
 5608 0020 0AE0     		b	.L236
 5609              	.L234:
1691:C:/Users/49542/Desktop/GD32F30x_Demo_Suites_V2.0.0/GD32F30x_Demo_Suites_V2.0.0/GD32F30x_Firmware_Library/GD32F30x_standard_peripheral/Source\gd32f30x_timer.c ****     }else if(TIMER_HALLINTERFACE_DISABLE == hallmode){
 5610              		.loc 1 1691 0
 5611 0022 3B68     		ldr	r3, [r7]
ARM GAS  C:\Users\49542\AppData\Local\Temp\ccx6VnNU.s 			page 129


 5612 0024 012B     		cmp	r3, #1
 5613 0026 07D1     		bne	.L236
1692:C:/Users/49542/Desktop/GD32F30x_Demo_Suites_V2.0.0/GD32F30x_Demo_Suites_V2.0.0/GD32F30x_Firmware_Library/GD32F30x_standard_peripheral/Source\gd32f30x_timer.c ****     }else{
 5614              		.loc 1 1692 0
 5615 0028 7B68     		ldr	r3, [r7, #4]
 5616 002a 0433     		adds	r3, r3, #4
 5617 002c 1B68     		ldr	r3, [r3]
 5618 002e 7A68     		ldr	r2, [r7, #4]
 5619 0030 0432     		adds	r2, r2, #4
 5620 0032 23F08003 		bic	r3, r3, #128
 5621 0036 1360     		str	r3, [r2]
 5622              	.L236:
 5623              		.loc 1 1696 0
 5624 0038 00BF     		nop
 5625 003a 0C37     		adds	r7, r7, #12
 5626              	.LCFI336:
 5627              		.cfi_def_cfa_offset 4
 5628 003c BD46     		mov	sp, r7
 5629              	.LCFI337:
 5630              		.cfi_def_cfa_register 13
 5631              		@ sp needed
 5632 003e 5DF8047B 		ldr	r7, [sp], #4
 5633              	.LCFI338:
 5634              		.cfi_restore 7
 5635              		.cfi_def_cfa_offset 0
 5636 0042 7047     		bx	lr
 5637              		.cfi_endproc
 5638              	.LFE172:
 5640              		.section	.text.timer_input_trigger_source_select,"ax",%progbits
 5641              		.align	1
 5642              		.global	timer_input_trigger_source_select
 5643              		.syntax unified
 5644              		.thumb
 5645              		.thumb_func
 5646              		.fpu fpv4-sp-d16
 5648              	timer_input_trigger_source_select:
 5649              	.LFB173:
1697:C:/Users/49542/Desktop/GD32F30x_Demo_Suites_V2.0.0/GD32F30x_Demo_Suites_V2.0.0/GD32F30x_Firmware_Library/GD32F30x_standard_peripheral/Source\gd32f30x_timer.c **** 
1698:C:/Users/49542/Desktop/GD32F30x_Demo_Suites_V2.0.0/GD32F30x_Demo_Suites_V2.0.0/GD32F30x_Firmware_Library/GD32F30x_standard_peripheral/Source\gd32f30x_timer.c **** /*!
1699:C:/Users/49542/Desktop/GD32F30x_Demo_Suites_V2.0.0/GD32F30x_Demo_Suites_V2.0.0/GD32F30x_Firmware_Library/GD32F30x_standard_peripheral/Source\gd32f30x_timer.c ****     \brief      select TIMER input trigger source 
1700:C:/Users/49542/Desktop/GD32F30x_Demo_Suites_V2.0.0/GD32F30x_Demo_Suites_V2.0.0/GD32F30x_Firmware_Library/GD32F30x_standard_peripheral/Source\gd32f30x_timer.c ****     \param[in]  timer_periph: TIMERx(x=0..4,7,8,11)
1701:C:/Users/49542/Desktop/GD32F30x_Demo_Suites_V2.0.0/GD32F30x_Demo_Suites_V2.0.0/GD32F30x_Firmware_Library/GD32F30x_standard_peripheral/Source\gd32f30x_timer.c ****     \param[in]  intrigger:
1702:C:/Users/49542/Desktop/GD32F30x_Demo_Suites_V2.0.0/GD32F30x_Demo_Suites_V2.0.0/GD32F30x_Firmware_Library/GD32F30x_standard_peripheral/Source\gd32f30x_timer.c ****                 only one parameter can be selected which is shown as below:
1703:C:/Users/49542/Desktop/GD32F30x_Demo_Suites_V2.0.0/GD32F30x_Demo_Suites_V2.0.0/GD32F30x_Firmware_Library/GD32F30x_standard_peripheral/Source\gd32f30x_timer.c ****       \arg        TIMER_SMCFG_TRGSEL_ITI0: internal trigger 0
1704:C:/Users/49542/Desktop/GD32F30x_Demo_Suites_V2.0.0/GD32F30x_Demo_Suites_V2.0.0/GD32F30x_Firmware_Library/GD32F30x_standard_peripheral/Source\gd32f30x_timer.c ****       \arg        TIMER_SMCFG_TRGSEL_ITI1: internal trigger 1
1705:C:/Users/49542/Desktop/GD32F30x_Demo_Suites_V2.0.0/GD32F30x_Demo_Suites_V2.0.0/GD32F30x_Firmware_Library/GD32F30x_standard_peripheral/Source\gd32f30x_timer.c ****       \arg        TIMER_SMCFG_TRGSEL_ITI2: internal trigger 2
1706:C:/Users/49542/Desktop/GD32F30x_Demo_Suites_V2.0.0/GD32F30x_Demo_Suites_V2.0.0/GD32F30x_Firmware_Library/GD32F30x_standard_peripheral/Source\gd32f30x_timer.c ****       \arg        TIMER_SMCFG_TRGSEL_ITI3: internal trigger 3
1707:C:/Users/49542/Desktop/GD32F30x_Demo_Suites_V2.0.0/GD32F30x_Demo_Suites_V2.0.0/GD32F30x_Firmware_Library/GD32F30x_standard_peripheral/Source\gd32f30x_timer.c ****       \arg        TIMER_SMCFG_TRGSEL_CI0F_ED: TI0 edge detector
1708:C:/Users/49542/Desktop/GD32F30x_Demo_Suites_V2.0.0/GD32F30x_Demo_Suites_V2.0.0/GD32F30x_Firmware_Library/GD32F30x_standard_peripheral/Source\gd32f30x_timer.c ****       \arg        TIMER_SMCFG_TRGSEL_CI0FE0: filtered TIMER input 0
1709:C:/Users/49542/Desktop/GD32F30x_Demo_Suites_V2.0.0/GD32F30x_Demo_Suites_V2.0.0/GD32F30x_Firmware_Library/GD32F30x_standard_peripheral/Source\gd32f30x_timer.c ****       \arg        TIMER_SMCFG_TRGSEL_CI1FE1: filtered TIMER input 1
1710:C:/Users/49542/Desktop/GD32F30x_Demo_Suites_V2.0.0/GD32F30x_Demo_Suites_V2.0.0/GD32F30x_Firmware_Library/GD32F30x_standard_peripheral/Source\gd32f30x_timer.c ****       \arg        TIMER_SMCFG_TRGSEL_ETIFP: external trigger(x=0..4,7)
1711:C:/Users/49542/Desktop/GD32F30x_Demo_Suites_V2.0.0/GD32F30x_Demo_Suites_V2.0.0/GD32F30x_Firmware_Library/GD32F30x_standard_peripheral/Source\gd32f30x_timer.c ****     \param[out] none
1712:C:/Users/49542/Desktop/GD32F30x_Demo_Suites_V2.0.0/GD32F30x_Demo_Suites_V2.0.0/GD32F30x_Firmware_Library/GD32F30x_standard_peripheral/Source\gd32f30x_timer.c ****     \retval     none
1713:C:/Users/49542/Desktop/GD32F30x_Demo_Suites_V2.0.0/GD32F30x_Demo_Suites_V2.0.0/GD32F30x_Firmware_Library/GD32F30x_standard_peripheral/Source\gd32f30x_timer.c **** */
1714:C:/Users/49542/Desktop/GD32F30x_Demo_Suites_V2.0.0/GD32F30x_Demo_Suites_V2.0.0/GD32F30x_Firmware_Library/GD32F30x_standard_peripheral/Source\gd32f30x_timer.c **** void timer_input_trigger_source_select(uint32_t timer_periph, uint32_t intrigger)
1715:C:/Users/49542/Desktop/GD32F30x_Demo_Suites_V2.0.0/GD32F30x_Demo_Suites_V2.0.0/GD32F30x_Firmware_Library/GD32F30x_standard_peripheral/Source\gd32f30x_timer.c **** {
 5650              		.loc 1 1715 0
ARM GAS  C:\Users\49542\AppData\Local\Temp\ccx6VnNU.s 			page 130


 5651              		.cfi_startproc
 5652              		@ args = 0, pretend = 0, frame = 8
 5653              		@ frame_needed = 1, uses_anonymous_args = 0
 5654              		@ link register save eliminated.
 5655 0000 80B4     		push	{r7}
 5656              	.LCFI339:
 5657              		.cfi_def_cfa_offset 4
 5658              		.cfi_offset 7, -4
 5659 0002 83B0     		sub	sp, sp, #12
 5660              	.LCFI340:
 5661              		.cfi_def_cfa_offset 16
 5662 0004 00AF     		add	r7, sp, #0
 5663              	.LCFI341:
 5664              		.cfi_def_cfa_register 7
 5665 0006 7860     		str	r0, [r7, #4]
 5666 0008 3960     		str	r1, [r7]
1716:C:/Users/49542/Desktop/GD32F30x_Demo_Suites_V2.0.0/GD32F30x_Demo_Suites_V2.0.0/GD32F30x_Firmware_Library/GD32F30x_standard_peripheral/Source\gd32f30x_timer.c ****     TIMER_SMCFG(timer_periph) &= (~(uint32_t)TIMER_SMCFG_TRGS);
 5667              		.loc 1 1716 0
 5668 000a 7B68     		ldr	r3, [r7, #4]
 5669 000c 0833     		adds	r3, r3, #8
 5670 000e 1B68     		ldr	r3, [r3]
 5671 0010 7A68     		ldr	r2, [r7, #4]
 5672 0012 0832     		adds	r2, r2, #8
 5673 0014 23F07003 		bic	r3, r3, #112
 5674 0018 1360     		str	r3, [r2]
1717:C:/Users/49542/Desktop/GD32F30x_Demo_Suites_V2.0.0/GD32F30x_Demo_Suites_V2.0.0/GD32F30x_Firmware_Library/GD32F30x_standard_peripheral/Source\gd32f30x_timer.c ****     TIMER_SMCFG(timer_periph) |= (uint32_t)intrigger;
 5675              		.loc 1 1717 0
 5676 001a 7B68     		ldr	r3, [r7, #4]
 5677 001c 0833     		adds	r3, r3, #8
 5678 001e 1A68     		ldr	r2, [r3]
 5679 0020 7B68     		ldr	r3, [r7, #4]
 5680 0022 0833     		adds	r3, r3, #8
 5681 0024 1946     		mov	r1, r3
 5682 0026 3B68     		ldr	r3, [r7]
 5683 0028 1343     		orrs	r3, r3, r2
 5684 002a 0B60     		str	r3, [r1]
1718:C:/Users/49542/Desktop/GD32F30x_Demo_Suites_V2.0.0/GD32F30x_Demo_Suites_V2.0.0/GD32F30x_Firmware_Library/GD32F30x_standard_peripheral/Source\gd32f30x_timer.c **** }
 5685              		.loc 1 1718 0
 5686 002c 00BF     		nop
 5687 002e 0C37     		adds	r7, r7, #12
 5688              	.LCFI342:
 5689              		.cfi_def_cfa_offset 4
 5690 0030 BD46     		mov	sp, r7
 5691              	.LCFI343:
 5692              		.cfi_def_cfa_register 13
 5693              		@ sp needed
 5694 0032 5DF8047B 		ldr	r7, [sp], #4
 5695              	.LCFI344:
 5696              		.cfi_restore 7
 5697              		.cfi_def_cfa_offset 0
 5698 0036 7047     		bx	lr
 5699              		.cfi_endproc
 5700              	.LFE173:
 5702              		.section	.text.timer_master_output_trigger_source_select,"ax",%progbits
 5703              		.align	1
 5704              		.global	timer_master_output_trigger_source_select
 5705              		.syntax unified
ARM GAS  C:\Users\49542\AppData\Local\Temp\ccx6VnNU.s 			page 131


 5706              		.thumb
 5707              		.thumb_func
 5708              		.fpu fpv4-sp-d16
 5710              	timer_master_output_trigger_source_select:
 5711              	.LFB174:
1719:C:/Users/49542/Desktop/GD32F30x_Demo_Suites_V2.0.0/GD32F30x_Demo_Suites_V2.0.0/GD32F30x_Firmware_Library/GD32F30x_standard_peripheral/Source\gd32f30x_timer.c **** 
1720:C:/Users/49542/Desktop/GD32F30x_Demo_Suites_V2.0.0/GD32F30x_Demo_Suites_V2.0.0/GD32F30x_Firmware_Library/GD32F30x_standard_peripheral/Source\gd32f30x_timer.c **** /*!
1721:C:/Users/49542/Desktop/GD32F30x_Demo_Suites_V2.0.0/GD32F30x_Demo_Suites_V2.0.0/GD32F30x_Firmware_Library/GD32F30x_standard_peripheral/Source\gd32f30x_timer.c ****     \brief      select TIMER master mode output trigger source 
1722:C:/Users/49542/Desktop/GD32F30x_Demo_Suites_V2.0.0/GD32F30x_Demo_Suites_V2.0.0/GD32F30x_Firmware_Library/GD32F30x_standard_peripheral/Source\gd32f30x_timer.c ****     \param[in]  timer_periph: TIMERx(x=0..7)
1723:C:/Users/49542/Desktop/GD32F30x_Demo_Suites_V2.0.0/GD32F30x_Demo_Suites_V2.0.0/GD32F30x_Firmware_Library/GD32F30x_standard_peripheral/Source\gd32f30x_timer.c ****     \param[in]  outrigger: 
1724:C:/Users/49542/Desktop/GD32F30x_Demo_Suites_V2.0.0/GD32F30x_Demo_Suites_V2.0.0/GD32F30x_Firmware_Library/GD32F30x_standard_peripheral/Source\gd32f30x_timer.c ****                 only one parameter can be selected which is shown as below:
1725:C:/Users/49542/Desktop/GD32F30x_Demo_Suites_V2.0.0/GD32F30x_Demo_Suites_V2.0.0/GD32F30x_Firmware_Library/GD32F30x_standard_peripheral/Source\gd32f30x_timer.c ****       \arg        TIMER_TRI_OUT_SRC_RESET: the UPG bit as trigger output
1726:C:/Users/49542/Desktop/GD32F30x_Demo_Suites_V2.0.0/GD32F30x_Demo_Suites_V2.0.0/GD32F30x_Firmware_Library/GD32F30x_standard_peripheral/Source\gd32f30x_timer.c ****       \arg        TIMER_TRI_OUT_SRC_ENABLE: the counter enable signal TIMER_CTL0_CEN as trigger out
1727:C:/Users/49542/Desktop/GD32F30x_Demo_Suites_V2.0.0/GD32F30x_Demo_Suites_V2.0.0/GD32F30x_Firmware_Library/GD32F30x_standard_peripheral/Source\gd32f30x_timer.c ****       \arg        TIMER_TRI_OUT_SRC_UPDATE: update event as trigger output
1728:C:/Users/49542/Desktop/GD32F30x_Demo_Suites_V2.0.0/GD32F30x_Demo_Suites_V2.0.0/GD32F30x_Firmware_Library/GD32F30x_standard_peripheral/Source\gd32f30x_timer.c ****       \arg        TIMER_TRI_OUT_SRC_CH0: a capture or a compare match occurred in channal0 as trigg
1729:C:/Users/49542/Desktop/GD32F30x_Demo_Suites_V2.0.0/GD32F30x_Demo_Suites_V2.0.0/GD32F30x_Firmware_Library/GD32F30x_standard_peripheral/Source\gd32f30x_timer.c ****       \arg        TIMER_TRI_OUT_SRC_O0CPRE: O0CPRE as trigger output
1730:C:/Users/49542/Desktop/GD32F30x_Demo_Suites_V2.0.0/GD32F30x_Demo_Suites_V2.0.0/GD32F30x_Firmware_Library/GD32F30x_standard_peripheral/Source\gd32f30x_timer.c ****       \arg        TIMER_TRI_OUT_SRC_O1CPRE: O1CPRE as trigger output
1731:C:/Users/49542/Desktop/GD32F30x_Demo_Suites_V2.0.0/GD32F30x_Demo_Suites_V2.0.0/GD32F30x_Firmware_Library/GD32F30x_standard_peripheral/Source\gd32f30x_timer.c ****       \arg        TIMER_TRI_OUT_SRC_O2CPRE: O2CPRE as trigger output
1732:C:/Users/49542/Desktop/GD32F30x_Demo_Suites_V2.0.0/GD32F30x_Demo_Suites_V2.0.0/GD32F30x_Firmware_Library/GD32F30x_standard_peripheral/Source\gd32f30x_timer.c ****       \arg        TIMER_TRI_OUT_SRC_O3CPRE: O3CPRE as trigger output
1733:C:/Users/49542/Desktop/GD32F30x_Demo_Suites_V2.0.0/GD32F30x_Demo_Suites_V2.0.0/GD32F30x_Firmware_Library/GD32F30x_standard_peripheral/Source\gd32f30x_timer.c ****     \param[out] none
1734:C:/Users/49542/Desktop/GD32F30x_Demo_Suites_V2.0.0/GD32F30x_Demo_Suites_V2.0.0/GD32F30x_Firmware_Library/GD32F30x_standard_peripheral/Source\gd32f30x_timer.c ****     \retval     none
1735:C:/Users/49542/Desktop/GD32F30x_Demo_Suites_V2.0.0/GD32F30x_Demo_Suites_V2.0.0/GD32F30x_Firmware_Library/GD32F30x_standard_peripheral/Source\gd32f30x_timer.c **** */
1736:C:/Users/49542/Desktop/GD32F30x_Demo_Suites_V2.0.0/GD32F30x_Demo_Suites_V2.0.0/GD32F30x_Firmware_Library/GD32F30x_standard_peripheral/Source\gd32f30x_timer.c **** void timer_master_output_trigger_source_select(uint32_t timer_periph, uint32_t outrigger)
1737:C:/Users/49542/Desktop/GD32F30x_Demo_Suites_V2.0.0/GD32F30x_Demo_Suites_V2.0.0/GD32F30x_Firmware_Library/GD32F30x_standard_peripheral/Source\gd32f30x_timer.c **** {
 5712              		.loc 1 1737 0
 5713              		.cfi_startproc
 5714              		@ args = 0, pretend = 0, frame = 8
 5715              		@ frame_needed = 1, uses_anonymous_args = 0
 5716              		@ link register save eliminated.
 5717 0000 80B4     		push	{r7}
 5718              	.LCFI345:
 5719              		.cfi_def_cfa_offset 4
 5720              		.cfi_offset 7, -4
 5721 0002 83B0     		sub	sp, sp, #12
 5722              	.LCFI346:
 5723              		.cfi_def_cfa_offset 16
 5724 0004 00AF     		add	r7, sp, #0
 5725              	.LCFI347:
 5726              		.cfi_def_cfa_register 7
 5727 0006 7860     		str	r0, [r7, #4]
 5728 0008 3960     		str	r1, [r7]
1738:C:/Users/49542/Desktop/GD32F30x_Demo_Suites_V2.0.0/GD32F30x_Demo_Suites_V2.0.0/GD32F30x_Firmware_Library/GD32F30x_standard_peripheral/Source\gd32f30x_timer.c ****     TIMER_CTL1(timer_periph) &= (~(uint32_t)TIMER_CTL1_MMC);
 5729              		.loc 1 1738 0
 5730 000a 7B68     		ldr	r3, [r7, #4]
 5731 000c 0433     		adds	r3, r3, #4
 5732 000e 1B68     		ldr	r3, [r3]
 5733 0010 7A68     		ldr	r2, [r7, #4]
 5734 0012 0432     		adds	r2, r2, #4
 5735 0014 23F07003 		bic	r3, r3, #112
 5736 0018 1360     		str	r3, [r2]
1739:C:/Users/49542/Desktop/GD32F30x_Demo_Suites_V2.0.0/GD32F30x_Demo_Suites_V2.0.0/GD32F30x_Firmware_Library/GD32F30x_standard_peripheral/Source\gd32f30x_timer.c ****     TIMER_CTL1(timer_periph) |= (uint32_t)outrigger;
 5737              		.loc 1 1739 0
 5738 001a 7B68     		ldr	r3, [r7, #4]
 5739 001c 0433     		adds	r3, r3, #4
 5740 001e 1A68     		ldr	r2, [r3]
 5741 0020 7B68     		ldr	r3, [r7, #4]
 5742 0022 0433     		adds	r3, r3, #4
ARM GAS  C:\Users\49542\AppData\Local\Temp\ccx6VnNU.s 			page 132


 5743 0024 1946     		mov	r1, r3
 5744 0026 3B68     		ldr	r3, [r7]
 5745 0028 1343     		orrs	r3, r3, r2
 5746 002a 0B60     		str	r3, [r1]
1740:C:/Users/49542/Desktop/GD32F30x_Demo_Suites_V2.0.0/GD32F30x_Demo_Suites_V2.0.0/GD32F30x_Firmware_Library/GD32F30x_standard_peripheral/Source\gd32f30x_timer.c **** }
 5747              		.loc 1 1740 0
 5748 002c 00BF     		nop
 5749 002e 0C37     		adds	r7, r7, #12
 5750              	.LCFI348:
 5751              		.cfi_def_cfa_offset 4
 5752 0030 BD46     		mov	sp, r7
 5753              	.LCFI349:
 5754              		.cfi_def_cfa_register 13
 5755              		@ sp needed
 5756 0032 5DF8047B 		ldr	r7, [sp], #4
 5757              	.LCFI350:
 5758              		.cfi_restore 7
 5759              		.cfi_def_cfa_offset 0
 5760 0036 7047     		bx	lr
 5761              		.cfi_endproc
 5762              	.LFE174:
 5764              		.section	.text.timer_slave_mode_select,"ax",%progbits
 5765              		.align	1
 5766              		.global	timer_slave_mode_select
 5767              		.syntax unified
 5768              		.thumb
 5769              		.thumb_func
 5770              		.fpu fpv4-sp-d16
 5772              	timer_slave_mode_select:
 5773              	.LFB175:
1741:C:/Users/49542/Desktop/GD32F30x_Demo_Suites_V2.0.0/GD32F30x_Demo_Suites_V2.0.0/GD32F30x_Firmware_Library/GD32F30x_standard_peripheral/Source\gd32f30x_timer.c **** 
1742:C:/Users/49542/Desktop/GD32F30x_Demo_Suites_V2.0.0/GD32F30x_Demo_Suites_V2.0.0/GD32F30x_Firmware_Library/GD32F30x_standard_peripheral/Source\gd32f30x_timer.c **** /*!
1743:C:/Users/49542/Desktop/GD32F30x_Demo_Suites_V2.0.0/GD32F30x_Demo_Suites_V2.0.0/GD32F30x_Firmware_Library/GD32F30x_standard_peripheral/Source\gd32f30x_timer.c ****     \brief      select TIMER slave mode 
1744:C:/Users/49542/Desktop/GD32F30x_Demo_Suites_V2.0.0/GD32F30x_Demo_Suites_V2.0.0/GD32F30x_Firmware_Library/GD32F30x_standard_peripheral/Source\gd32f30x_timer.c ****     \param[in]  timer_periph: TIMERx(x=0..4,7,8,11)
1745:C:/Users/49542/Desktop/GD32F30x_Demo_Suites_V2.0.0/GD32F30x_Demo_Suites_V2.0.0/GD32F30x_Firmware_Library/GD32F30x_standard_peripheral/Source\gd32f30x_timer.c ****     \param[in]  slavemode:
1746:C:/Users/49542/Desktop/GD32F30x_Demo_Suites_V2.0.0/GD32F30x_Demo_Suites_V2.0.0/GD32F30x_Firmware_Library/GD32F30x_standard_peripheral/Source\gd32f30x_timer.c ****                 only one parameter can be selected which is shown as below:
1747:C:/Users/49542/Desktop/GD32F30x_Demo_Suites_V2.0.0/GD32F30x_Demo_Suites_V2.0.0/GD32F30x_Firmware_Library/GD32F30x_standard_peripheral/Source\gd32f30x_timer.c ****       \arg        TIMER_SLAVE_MODE_DISABLE: slave mode disable
1748:C:/Users/49542/Desktop/GD32F30x_Demo_Suites_V2.0.0/GD32F30x_Demo_Suites_V2.0.0/GD32F30x_Firmware_Library/GD32F30x_standard_peripheral/Source\gd32f30x_timer.c ****       \arg        TIMER_ENCODER_MODE0: encoder mode 0
1749:C:/Users/49542/Desktop/GD32F30x_Demo_Suites_V2.0.0/GD32F30x_Demo_Suites_V2.0.0/GD32F30x_Firmware_Library/GD32F30x_standard_peripheral/Source\gd32f30x_timer.c ****       \arg        TIMER_ENCODER_MODE1: encoder mode 1
1750:C:/Users/49542/Desktop/GD32F30x_Demo_Suites_V2.0.0/GD32F30x_Demo_Suites_V2.0.0/GD32F30x_Firmware_Library/GD32F30x_standard_peripheral/Source\gd32f30x_timer.c ****       \arg        TIMER_ENCODER_MODE2: encoder mode 2
1751:C:/Users/49542/Desktop/GD32F30x_Demo_Suites_V2.0.0/GD32F30x_Demo_Suites_V2.0.0/GD32F30x_Firmware_Library/GD32F30x_standard_peripheral/Source\gd32f30x_timer.c ****       \arg        TIMER_SLAVE_MODE_RESTART: restart mode
1752:C:/Users/49542/Desktop/GD32F30x_Demo_Suites_V2.0.0/GD32F30x_Demo_Suites_V2.0.0/GD32F30x_Firmware_Library/GD32F30x_standard_peripheral/Source\gd32f30x_timer.c ****       \arg        TIMER_SLAVE_MODE_PAUSE: pause mode
1753:C:/Users/49542/Desktop/GD32F30x_Demo_Suites_V2.0.0/GD32F30x_Demo_Suites_V2.0.0/GD32F30x_Firmware_Library/GD32F30x_standard_peripheral/Source\gd32f30x_timer.c ****       \arg        TIMER_SLAVE_MODE_EVENT: event mode
1754:C:/Users/49542/Desktop/GD32F30x_Demo_Suites_V2.0.0/GD32F30x_Demo_Suites_V2.0.0/GD32F30x_Firmware_Library/GD32F30x_standard_peripheral/Source\gd32f30x_timer.c ****       \arg        TIMER_SLAVE_MODE_EXTERNAL0: external clock mode 0.
1755:C:/Users/49542/Desktop/GD32F30x_Demo_Suites_V2.0.0/GD32F30x_Demo_Suites_V2.0.0/GD32F30x_Firmware_Library/GD32F30x_standard_peripheral/Source\gd32f30x_timer.c ****     \param[out] none
1756:C:/Users/49542/Desktop/GD32F30x_Demo_Suites_V2.0.0/GD32F30x_Demo_Suites_V2.0.0/GD32F30x_Firmware_Library/GD32F30x_standard_peripheral/Source\gd32f30x_timer.c ****     \retval     none
1757:C:/Users/49542/Desktop/GD32F30x_Demo_Suites_V2.0.0/GD32F30x_Demo_Suites_V2.0.0/GD32F30x_Firmware_Library/GD32F30x_standard_peripheral/Source\gd32f30x_timer.c **** */
1758:C:/Users/49542/Desktop/GD32F30x_Demo_Suites_V2.0.0/GD32F30x_Demo_Suites_V2.0.0/GD32F30x_Firmware_Library/GD32F30x_standard_peripheral/Source\gd32f30x_timer.c **** 
1759:C:/Users/49542/Desktop/GD32F30x_Demo_Suites_V2.0.0/GD32F30x_Demo_Suites_V2.0.0/GD32F30x_Firmware_Library/GD32F30x_standard_peripheral/Source\gd32f30x_timer.c **** void timer_slave_mode_select(uint32_t timer_periph, uint32_t slavemode)
1760:C:/Users/49542/Desktop/GD32F30x_Demo_Suites_V2.0.0/GD32F30x_Demo_Suites_V2.0.0/GD32F30x_Firmware_Library/GD32F30x_standard_peripheral/Source\gd32f30x_timer.c **** {
 5774              		.loc 1 1760 0
 5775              		.cfi_startproc
 5776              		@ args = 0, pretend = 0, frame = 8
 5777              		@ frame_needed = 1, uses_anonymous_args = 0
 5778              		@ link register save eliminated.
 5779 0000 80B4     		push	{r7}
 5780              	.LCFI351:
ARM GAS  C:\Users\49542\AppData\Local\Temp\ccx6VnNU.s 			page 133


 5781              		.cfi_def_cfa_offset 4
 5782              		.cfi_offset 7, -4
 5783 0002 83B0     		sub	sp, sp, #12
 5784              	.LCFI352:
 5785              		.cfi_def_cfa_offset 16
 5786 0004 00AF     		add	r7, sp, #0
 5787              	.LCFI353:
 5788              		.cfi_def_cfa_register 7
 5789 0006 7860     		str	r0, [r7, #4]
 5790 0008 3960     		str	r1, [r7]
1761:C:/Users/49542/Desktop/GD32F30x_Demo_Suites_V2.0.0/GD32F30x_Demo_Suites_V2.0.0/GD32F30x_Firmware_Library/GD32F30x_standard_peripheral/Source\gd32f30x_timer.c ****     TIMER_SMCFG(timer_periph) &= (~(uint32_t)TIMER_SMCFG_SMC);
 5791              		.loc 1 1761 0
 5792 000a 7B68     		ldr	r3, [r7, #4]
 5793 000c 0833     		adds	r3, r3, #8
 5794 000e 1B68     		ldr	r3, [r3]
 5795 0010 7A68     		ldr	r2, [r7, #4]
 5796 0012 0832     		adds	r2, r2, #8
 5797 0014 23F00703 		bic	r3, r3, #7
 5798 0018 1360     		str	r3, [r2]
1762:C:/Users/49542/Desktop/GD32F30x_Demo_Suites_V2.0.0/GD32F30x_Demo_Suites_V2.0.0/GD32F30x_Firmware_Library/GD32F30x_standard_peripheral/Source\gd32f30x_timer.c **** 
1763:C:/Users/49542/Desktop/GD32F30x_Demo_Suites_V2.0.0/GD32F30x_Demo_Suites_V2.0.0/GD32F30x_Firmware_Library/GD32F30x_standard_peripheral/Source\gd32f30x_timer.c ****     TIMER_SMCFG(timer_periph) |= (uint32_t)slavemode;
 5799              		.loc 1 1763 0
 5800 001a 7B68     		ldr	r3, [r7, #4]
 5801 001c 0833     		adds	r3, r3, #8
 5802 001e 1A68     		ldr	r2, [r3]
 5803 0020 7B68     		ldr	r3, [r7, #4]
 5804 0022 0833     		adds	r3, r3, #8
 5805 0024 1946     		mov	r1, r3
 5806 0026 3B68     		ldr	r3, [r7]
 5807 0028 1343     		orrs	r3, r3, r2
 5808 002a 0B60     		str	r3, [r1]
1764:C:/Users/49542/Desktop/GD32F30x_Demo_Suites_V2.0.0/GD32F30x_Demo_Suites_V2.0.0/GD32F30x_Firmware_Library/GD32F30x_standard_peripheral/Source\gd32f30x_timer.c **** }
 5809              		.loc 1 1764 0
 5810 002c 00BF     		nop
 5811 002e 0C37     		adds	r7, r7, #12
 5812              	.LCFI354:
 5813              		.cfi_def_cfa_offset 4
 5814 0030 BD46     		mov	sp, r7
 5815              	.LCFI355:
 5816              		.cfi_def_cfa_register 13
 5817              		@ sp needed
 5818 0032 5DF8047B 		ldr	r7, [sp], #4
 5819              	.LCFI356:
 5820              		.cfi_restore 7
 5821              		.cfi_def_cfa_offset 0
 5822 0036 7047     		bx	lr
 5823              		.cfi_endproc
 5824              	.LFE175:
 5826              		.section	.text.timer_master_slave_mode_config,"ax",%progbits
 5827              		.align	1
 5828              		.global	timer_master_slave_mode_config
 5829              		.syntax unified
 5830              		.thumb
 5831              		.thumb_func
 5832              		.fpu fpv4-sp-d16
 5834              	timer_master_slave_mode_config:
 5835              	.LFB176:
ARM GAS  C:\Users\49542\AppData\Local\Temp\ccx6VnNU.s 			page 134


1765:C:/Users/49542/Desktop/GD32F30x_Demo_Suites_V2.0.0/GD32F30x_Demo_Suites_V2.0.0/GD32F30x_Firmware_Library/GD32F30x_standard_peripheral/Source\gd32f30x_timer.c **** 
1766:C:/Users/49542/Desktop/GD32F30x_Demo_Suites_V2.0.0/GD32F30x_Demo_Suites_V2.0.0/GD32F30x_Firmware_Library/GD32F30x_standard_peripheral/Source\gd32f30x_timer.c **** /*!
1767:C:/Users/49542/Desktop/GD32F30x_Demo_Suites_V2.0.0/GD32F30x_Demo_Suites_V2.0.0/GD32F30x_Firmware_Library/GD32F30x_standard_peripheral/Source\gd32f30x_timer.c ****     \brief      configure TIMER master slave mode 
1768:C:/Users/49542/Desktop/GD32F30x_Demo_Suites_V2.0.0/GD32F30x_Demo_Suites_V2.0.0/GD32F30x_Firmware_Library/GD32F30x_standard_peripheral/Source\gd32f30x_timer.c ****     \param[in]  timer_periph: TIMERx(x=0..4,7,8,11)
1769:C:/Users/49542/Desktop/GD32F30x_Demo_Suites_V2.0.0/GD32F30x_Demo_Suites_V2.0.0/GD32F30x_Firmware_Library/GD32F30x_standard_peripheral/Source\gd32f30x_timer.c ****     \param[in]  masterslave:
1770:C:/Users/49542/Desktop/GD32F30x_Demo_Suites_V2.0.0/GD32F30x_Demo_Suites_V2.0.0/GD32F30x_Firmware_Library/GD32F30x_standard_peripheral/Source\gd32f30x_timer.c ****                 only one parameter can be selected which is shown as below:
1771:C:/Users/49542/Desktop/GD32F30x_Demo_Suites_V2.0.0/GD32F30x_Demo_Suites_V2.0.0/GD32F30x_Firmware_Library/GD32F30x_standard_peripheral/Source\gd32f30x_timer.c ****       \arg        TIMER_MASTER_SLAVE_MODE_ENABLE: master slave mode enable
1772:C:/Users/49542/Desktop/GD32F30x_Demo_Suites_V2.0.0/GD32F30x_Demo_Suites_V2.0.0/GD32F30x_Firmware_Library/GD32F30x_standard_peripheral/Source\gd32f30x_timer.c ****       \arg        TIMER_MASTER_SLAVE_MODE_DISABLE: master slave mode disable
1773:C:/Users/49542/Desktop/GD32F30x_Demo_Suites_V2.0.0/GD32F30x_Demo_Suites_V2.0.0/GD32F30x_Firmware_Library/GD32F30x_standard_peripheral/Source\gd32f30x_timer.c ****     \param[out] none
1774:C:/Users/49542/Desktop/GD32F30x_Demo_Suites_V2.0.0/GD32F30x_Demo_Suites_V2.0.0/GD32F30x_Firmware_Library/GD32F30x_standard_peripheral/Source\gd32f30x_timer.c ****     \retval     none
1775:C:/Users/49542/Desktop/GD32F30x_Demo_Suites_V2.0.0/GD32F30x_Demo_Suites_V2.0.0/GD32F30x_Firmware_Library/GD32F30x_standard_peripheral/Source\gd32f30x_timer.c **** */ 
1776:C:/Users/49542/Desktop/GD32F30x_Demo_Suites_V2.0.0/GD32F30x_Demo_Suites_V2.0.0/GD32F30x_Firmware_Library/GD32F30x_standard_peripheral/Source\gd32f30x_timer.c **** void timer_master_slave_mode_config(uint32_t timer_periph, uint32_t masterslave)
1777:C:/Users/49542/Desktop/GD32F30x_Demo_Suites_V2.0.0/GD32F30x_Demo_Suites_V2.0.0/GD32F30x_Firmware_Library/GD32F30x_standard_peripheral/Source\gd32f30x_timer.c **** {
 5836              		.loc 1 1777 0
 5837              		.cfi_startproc
 5838              		@ args = 0, pretend = 0, frame = 8
 5839              		@ frame_needed = 1, uses_anonymous_args = 0
 5840              		@ link register save eliminated.
 5841 0000 80B4     		push	{r7}
 5842              	.LCFI357:
 5843              		.cfi_def_cfa_offset 4
 5844              		.cfi_offset 7, -4
 5845 0002 83B0     		sub	sp, sp, #12
 5846              	.LCFI358:
 5847              		.cfi_def_cfa_offset 16
 5848 0004 00AF     		add	r7, sp, #0
 5849              	.LCFI359:
 5850              		.cfi_def_cfa_register 7
 5851 0006 7860     		str	r0, [r7, #4]
 5852 0008 3960     		str	r1, [r7]
1778:C:/Users/49542/Desktop/GD32F30x_Demo_Suites_V2.0.0/GD32F30x_Demo_Suites_V2.0.0/GD32F30x_Firmware_Library/GD32F30x_standard_peripheral/Source\gd32f30x_timer.c ****     if(TIMER_MASTER_SLAVE_MODE_ENABLE == masterslave){
 5853              		.loc 1 1778 0
 5854 000a 3B68     		ldr	r3, [r7]
 5855 000c 002B     		cmp	r3, #0
 5856 000e 08D1     		bne	.L241
1779:C:/Users/49542/Desktop/GD32F30x_Demo_Suites_V2.0.0/GD32F30x_Demo_Suites_V2.0.0/GD32F30x_Firmware_Library/GD32F30x_standard_peripheral/Source\gd32f30x_timer.c ****         TIMER_SMCFG(timer_periph) |= (uint32_t)TIMER_SMCFG_MSM;
 5857              		.loc 1 1779 0
 5858 0010 7B68     		ldr	r3, [r7, #4]
 5859 0012 0833     		adds	r3, r3, #8
 5860 0014 1B68     		ldr	r3, [r3]
 5861 0016 7A68     		ldr	r2, [r7, #4]
 5862 0018 0832     		adds	r2, r2, #8
 5863 001a 43F08003 		orr	r3, r3, #128
 5864 001e 1360     		str	r3, [r2]
1780:C:/Users/49542/Desktop/GD32F30x_Demo_Suites_V2.0.0/GD32F30x_Demo_Suites_V2.0.0/GD32F30x_Firmware_Library/GD32F30x_standard_peripheral/Source\gd32f30x_timer.c ****     }else if(TIMER_MASTER_SLAVE_MODE_DISABLE == masterslave){
1781:C:/Users/49542/Desktop/GD32F30x_Demo_Suites_V2.0.0/GD32F30x_Demo_Suites_V2.0.0/GD32F30x_Firmware_Library/GD32F30x_standard_peripheral/Source\gd32f30x_timer.c ****         TIMER_SMCFG(timer_periph) &= ~(uint32_t)TIMER_SMCFG_MSM;
1782:C:/Users/49542/Desktop/GD32F30x_Demo_Suites_V2.0.0/GD32F30x_Demo_Suites_V2.0.0/GD32F30x_Firmware_Library/GD32F30x_standard_peripheral/Source\gd32f30x_timer.c ****     }else{
1783:C:/Users/49542/Desktop/GD32F30x_Demo_Suites_V2.0.0/GD32F30x_Demo_Suites_V2.0.0/GD32F30x_Firmware_Library/GD32F30x_standard_peripheral/Source\gd32f30x_timer.c ****         /* illegal parameters */
1784:C:/Users/49542/Desktop/GD32F30x_Demo_Suites_V2.0.0/GD32F30x_Demo_Suites_V2.0.0/GD32F30x_Firmware_Library/GD32F30x_standard_peripheral/Source\gd32f30x_timer.c ****     }
1785:C:/Users/49542/Desktop/GD32F30x_Demo_Suites_V2.0.0/GD32F30x_Demo_Suites_V2.0.0/GD32F30x_Firmware_Library/GD32F30x_standard_peripheral/Source\gd32f30x_timer.c **** }
 5865              		.loc 1 1785 0
 5866 0020 0AE0     		b	.L243
 5867              	.L241:
1780:C:/Users/49542/Desktop/GD32F30x_Demo_Suites_V2.0.0/GD32F30x_Demo_Suites_V2.0.0/GD32F30x_Firmware_Library/GD32F30x_standard_peripheral/Source\gd32f30x_timer.c ****     }else if(TIMER_MASTER_SLAVE_MODE_DISABLE == masterslave){
 5868              		.loc 1 1780 0
 5869 0022 3B68     		ldr	r3, [r7]
 5870 0024 012B     		cmp	r3, #1
ARM GAS  C:\Users\49542\AppData\Local\Temp\ccx6VnNU.s 			page 135


 5871 0026 07D1     		bne	.L243
1781:C:/Users/49542/Desktop/GD32F30x_Demo_Suites_V2.0.0/GD32F30x_Demo_Suites_V2.0.0/GD32F30x_Firmware_Library/GD32F30x_standard_peripheral/Source\gd32f30x_timer.c ****     }else{
 5872              		.loc 1 1781 0
 5873 0028 7B68     		ldr	r3, [r7, #4]
 5874 002a 0833     		adds	r3, r3, #8
 5875 002c 1B68     		ldr	r3, [r3]
 5876 002e 7A68     		ldr	r2, [r7, #4]
 5877 0030 0832     		adds	r2, r2, #8
 5878 0032 23F08003 		bic	r3, r3, #128
 5879 0036 1360     		str	r3, [r2]
 5880              	.L243:
 5881              		.loc 1 1785 0
 5882 0038 00BF     		nop
 5883 003a 0C37     		adds	r7, r7, #12
 5884              	.LCFI360:
 5885              		.cfi_def_cfa_offset 4
 5886 003c BD46     		mov	sp, r7
 5887              	.LCFI361:
 5888              		.cfi_def_cfa_register 13
 5889              		@ sp needed
 5890 003e 5DF8047B 		ldr	r7, [sp], #4
 5891              	.LCFI362:
 5892              		.cfi_restore 7
 5893              		.cfi_def_cfa_offset 0
 5894 0042 7047     		bx	lr
 5895              		.cfi_endproc
 5896              	.LFE176:
 5898              		.section	.text.timer_external_trigger_config,"ax",%progbits
 5899              		.align	1
 5900              		.global	timer_external_trigger_config
 5901              		.syntax unified
 5902              		.thumb
 5903              		.thumb_func
 5904              		.fpu fpv4-sp-d16
 5906              	timer_external_trigger_config:
 5907              	.LFB177:
1786:C:/Users/49542/Desktop/GD32F30x_Demo_Suites_V2.0.0/GD32F30x_Demo_Suites_V2.0.0/GD32F30x_Firmware_Library/GD32F30x_standard_peripheral/Source\gd32f30x_timer.c **** 
1787:C:/Users/49542/Desktop/GD32F30x_Demo_Suites_V2.0.0/GD32F30x_Demo_Suites_V2.0.0/GD32F30x_Firmware_Library/GD32F30x_standard_peripheral/Source\gd32f30x_timer.c **** /*!
1788:C:/Users/49542/Desktop/GD32F30x_Demo_Suites_V2.0.0/GD32F30x_Demo_Suites_V2.0.0/GD32F30x_Firmware_Library/GD32F30x_standard_peripheral/Source\gd32f30x_timer.c ****     \brief      configure TIMER external trigger input
1789:C:/Users/49542/Desktop/GD32F30x_Demo_Suites_V2.0.0/GD32F30x_Demo_Suites_V2.0.0/GD32F30x_Firmware_Library/GD32F30x_standard_peripheral/Source\gd32f30x_timer.c ****     \param[in]  timer_periph: TIMERx(x=0..4,7)
1790:C:/Users/49542/Desktop/GD32F30x_Demo_Suites_V2.0.0/GD32F30x_Demo_Suites_V2.0.0/GD32F30x_Firmware_Library/GD32F30x_standard_peripheral/Source\gd32f30x_timer.c ****     \param[in]  extprescaler:
1791:C:/Users/49542/Desktop/GD32F30x_Demo_Suites_V2.0.0/GD32F30x_Demo_Suites_V2.0.0/GD32F30x_Firmware_Library/GD32F30x_standard_peripheral/Source\gd32f30x_timer.c ****                 only one parameter can be selected which is shown as below:
1792:C:/Users/49542/Desktop/GD32F30x_Demo_Suites_V2.0.0/GD32F30x_Demo_Suites_V2.0.0/GD32F30x_Firmware_Library/GD32F30x_standard_peripheral/Source\gd32f30x_timer.c ****       \arg        TIMER_EXT_TRI_PSC_OFF: no divided
1793:C:/Users/49542/Desktop/GD32F30x_Demo_Suites_V2.0.0/GD32F30x_Demo_Suites_V2.0.0/GD32F30x_Firmware_Library/GD32F30x_standard_peripheral/Source\gd32f30x_timer.c ****       \arg        TIMER_EXT_TRI_PSC_DIV2: divided by 2
1794:C:/Users/49542/Desktop/GD32F30x_Demo_Suites_V2.0.0/GD32F30x_Demo_Suites_V2.0.0/GD32F30x_Firmware_Library/GD32F30x_standard_peripheral/Source\gd32f30x_timer.c ****       \arg        TIMER_EXT_TRI_PSC_DIV4: divided by 4
1795:C:/Users/49542/Desktop/GD32F30x_Demo_Suites_V2.0.0/GD32F30x_Demo_Suites_V2.0.0/GD32F30x_Firmware_Library/GD32F30x_standard_peripheral/Source\gd32f30x_timer.c ****       \arg        TIMER_EXT_TRI_PSC_DIV8: divided by 8
1796:C:/Users/49542/Desktop/GD32F30x_Demo_Suites_V2.0.0/GD32F30x_Demo_Suites_V2.0.0/GD32F30x_Firmware_Library/GD32F30x_standard_peripheral/Source\gd32f30x_timer.c ****     \param[in]  extpolarity:
1797:C:/Users/49542/Desktop/GD32F30x_Demo_Suites_V2.0.0/GD32F30x_Demo_Suites_V2.0.0/GD32F30x_Firmware_Library/GD32F30x_standard_peripheral/Source\gd32f30x_timer.c ****                 only one parameter can be selected which is shown as below:
1798:C:/Users/49542/Desktop/GD32F30x_Demo_Suites_V2.0.0/GD32F30x_Demo_Suites_V2.0.0/GD32F30x_Firmware_Library/GD32F30x_standard_peripheral/Source\gd32f30x_timer.c ****       \arg        TIMER_ETP_FALLING: active low or falling edge active
1799:C:/Users/49542/Desktop/GD32F30x_Demo_Suites_V2.0.0/GD32F30x_Demo_Suites_V2.0.0/GD32F30x_Firmware_Library/GD32F30x_standard_peripheral/Source\gd32f30x_timer.c ****       \arg        TIMER_ETP_RISING: active high or rising edge active
1800:C:/Users/49542/Desktop/GD32F30x_Demo_Suites_V2.0.0/GD32F30x_Demo_Suites_V2.0.0/GD32F30x_Firmware_Library/GD32F30x_standard_peripheral/Source\gd32f30x_timer.c ****     \param[in]  extfilter: a value between 0 and 15
1801:C:/Users/49542/Desktop/GD32F30x_Demo_Suites_V2.0.0/GD32F30x_Demo_Suites_V2.0.0/GD32F30x_Firmware_Library/GD32F30x_standard_peripheral/Source\gd32f30x_timer.c ****     \param[out] none
1802:C:/Users/49542/Desktop/GD32F30x_Demo_Suites_V2.0.0/GD32F30x_Demo_Suites_V2.0.0/GD32F30x_Firmware_Library/GD32F30x_standard_peripheral/Source\gd32f30x_timer.c ****     \retval     none
1803:C:/Users/49542/Desktop/GD32F30x_Demo_Suites_V2.0.0/GD32F30x_Demo_Suites_V2.0.0/GD32F30x_Firmware_Library/GD32F30x_standard_peripheral/Source\gd32f30x_timer.c **** */
1804:C:/Users/49542/Desktop/GD32F30x_Demo_Suites_V2.0.0/GD32F30x_Demo_Suites_V2.0.0/GD32F30x_Firmware_Library/GD32F30x_standard_peripheral/Source\gd32f30x_timer.c **** void timer_external_trigger_config(uint32_t timer_periph, uint32_t extprescaler,
1805:C:/Users/49542/Desktop/GD32F30x_Demo_Suites_V2.0.0/GD32F30x_Demo_Suites_V2.0.0/GD32F30x_Firmware_Library/GD32F30x_standard_peripheral/Source\gd32f30x_timer.c ****                                    uint32_t extpolarity, uint32_t extfilter)
1806:C:/Users/49542/Desktop/GD32F30x_Demo_Suites_V2.0.0/GD32F30x_Demo_Suites_V2.0.0/GD32F30x_Firmware_Library/GD32F30x_standard_peripheral/Source\gd32f30x_timer.c **** {
ARM GAS  C:\Users\49542\AppData\Local\Temp\ccx6VnNU.s 			page 136


 5908              		.loc 1 1806 0
 5909              		.cfi_startproc
 5910              		@ args = 0, pretend = 0, frame = 16
 5911              		@ frame_needed = 1, uses_anonymous_args = 0
 5912              		@ link register save eliminated.
 5913 0000 80B4     		push	{r7}
 5914              	.LCFI363:
 5915              		.cfi_def_cfa_offset 4
 5916              		.cfi_offset 7, -4
 5917 0002 85B0     		sub	sp, sp, #20
 5918              	.LCFI364:
 5919              		.cfi_def_cfa_offset 24
 5920 0004 00AF     		add	r7, sp, #0
 5921              	.LCFI365:
 5922              		.cfi_def_cfa_register 7
 5923 0006 F860     		str	r0, [r7, #12]
 5924 0008 B960     		str	r1, [r7, #8]
 5925 000a 7A60     		str	r2, [r7, #4]
 5926 000c 3B60     		str	r3, [r7]
1807:C:/Users/49542/Desktop/GD32F30x_Demo_Suites_V2.0.0/GD32F30x_Demo_Suites_V2.0.0/GD32F30x_Firmware_Library/GD32F30x_standard_peripheral/Source\gd32f30x_timer.c ****     TIMER_SMCFG(timer_periph) &= (~(uint32_t)(TIMER_SMCFG_ETP | TIMER_SMCFG_ETPSC | TIMER_SMCFG_ETF
 5927              		.loc 1 1807 0
 5928 000e FB68     		ldr	r3, [r7, #12]
 5929 0010 0833     		adds	r3, r3, #8
 5930 0012 1B68     		ldr	r3, [r3]
 5931 0014 FA68     		ldr	r2, [r7, #12]
 5932 0016 0832     		adds	r2, r2, #8
 5933 0018 23F43F43 		bic	r3, r3, #48896
 5934 001c 1360     		str	r3, [r2]
1808:C:/Users/49542/Desktop/GD32F30x_Demo_Suites_V2.0.0/GD32F30x_Demo_Suites_V2.0.0/GD32F30x_Firmware_Library/GD32F30x_standard_peripheral/Source\gd32f30x_timer.c ****     TIMER_SMCFG(timer_periph) |= (uint32_t)(extprescaler | extpolarity);
 5935              		.loc 1 1808 0
 5936 001e FB68     		ldr	r3, [r7, #12]
 5937 0020 0833     		adds	r3, r3, #8
 5938 0022 1A68     		ldr	r2, [r3]
 5939 0024 B968     		ldr	r1, [r7, #8]
 5940 0026 7B68     		ldr	r3, [r7, #4]
 5941 0028 0B43     		orrs	r3, r3, r1
 5942 002a F968     		ldr	r1, [r7, #12]
 5943 002c 0831     		adds	r1, r1, #8
 5944 002e 1343     		orrs	r3, r3, r2
 5945 0030 0B60     		str	r3, [r1]
1809:C:/Users/49542/Desktop/GD32F30x_Demo_Suites_V2.0.0/GD32F30x_Demo_Suites_V2.0.0/GD32F30x_Firmware_Library/GD32F30x_standard_peripheral/Source\gd32f30x_timer.c ****     TIMER_SMCFG(timer_periph) |= (uint32_t)(extfilter << 8U);
 5946              		.loc 1 1809 0
 5947 0032 FB68     		ldr	r3, [r7, #12]
 5948 0034 0833     		adds	r3, r3, #8
 5949 0036 1A68     		ldr	r2, [r3]
 5950 0038 3B68     		ldr	r3, [r7]
 5951 003a 1B02     		lsls	r3, r3, #8
 5952 003c F968     		ldr	r1, [r7, #12]
 5953 003e 0831     		adds	r1, r1, #8
 5954 0040 1343     		orrs	r3, r3, r2
 5955 0042 0B60     		str	r3, [r1]
1810:C:/Users/49542/Desktop/GD32F30x_Demo_Suites_V2.0.0/GD32F30x_Demo_Suites_V2.0.0/GD32F30x_Firmware_Library/GD32F30x_standard_peripheral/Source\gd32f30x_timer.c **** }
 5956              		.loc 1 1810 0
 5957 0044 00BF     		nop
 5958 0046 1437     		adds	r7, r7, #20
 5959              	.LCFI366:
 5960              		.cfi_def_cfa_offset 4
ARM GAS  C:\Users\49542\AppData\Local\Temp\ccx6VnNU.s 			page 137


 5961 0048 BD46     		mov	sp, r7
 5962              	.LCFI367:
 5963              		.cfi_def_cfa_register 13
 5964              		@ sp needed
 5965 004a 5DF8047B 		ldr	r7, [sp], #4
 5966              	.LCFI368:
 5967              		.cfi_restore 7
 5968              		.cfi_def_cfa_offset 0
 5969 004e 7047     		bx	lr
 5970              		.cfi_endproc
 5971              	.LFE177:
 5973              		.section	.text.timer_quadrature_decoder_mode_config,"ax",%progbits
 5974              		.align	1
 5975              		.global	timer_quadrature_decoder_mode_config
 5976              		.syntax unified
 5977              		.thumb
 5978              		.thumb_func
 5979              		.fpu fpv4-sp-d16
 5981              	timer_quadrature_decoder_mode_config:
 5982              	.LFB178:
1811:C:/Users/49542/Desktop/GD32F30x_Demo_Suites_V2.0.0/GD32F30x_Demo_Suites_V2.0.0/GD32F30x_Firmware_Library/GD32F30x_standard_peripheral/Source\gd32f30x_timer.c **** 
1812:C:/Users/49542/Desktop/GD32F30x_Demo_Suites_V2.0.0/GD32F30x_Demo_Suites_V2.0.0/GD32F30x_Firmware_Library/GD32F30x_standard_peripheral/Source\gd32f30x_timer.c **** /*!
1813:C:/Users/49542/Desktop/GD32F30x_Demo_Suites_V2.0.0/GD32F30x_Demo_Suites_V2.0.0/GD32F30x_Firmware_Library/GD32F30x_standard_peripheral/Source\gd32f30x_timer.c ****     \brief      configure TIMER quadrature decoder mode
1814:C:/Users/49542/Desktop/GD32F30x_Demo_Suites_V2.0.0/GD32F30x_Demo_Suites_V2.0.0/GD32F30x_Firmware_Library/GD32F30x_standard_peripheral/Source\gd32f30x_timer.c ****     \param[in]  timer_periph: TIMERx(x=0..4,7)
1815:C:/Users/49542/Desktop/GD32F30x_Demo_Suites_V2.0.0/GD32F30x_Demo_Suites_V2.0.0/GD32F30x_Firmware_Library/GD32F30x_standard_peripheral/Source\gd32f30x_timer.c ****     \param[in]  decomode: 
1816:C:/Users/49542/Desktop/GD32F30x_Demo_Suites_V2.0.0/GD32F30x_Demo_Suites_V2.0.0/GD32F30x_Firmware_Library/GD32F30x_standard_peripheral/Source\gd32f30x_timer.c ****                 only one parameter can be selected which is shown as below:
1817:C:/Users/49542/Desktop/GD32F30x_Demo_Suites_V2.0.0/GD32F30x_Demo_Suites_V2.0.0/GD32F30x_Firmware_Library/GD32F30x_standard_peripheral/Source\gd32f30x_timer.c ****       \arg        TIMER_ENCODER_MODE0: counter counts on CI0FE0 edge depending on CI1FE1 level
1818:C:/Users/49542/Desktop/GD32F30x_Demo_Suites_V2.0.0/GD32F30x_Demo_Suites_V2.0.0/GD32F30x_Firmware_Library/GD32F30x_standard_peripheral/Source\gd32f30x_timer.c ****       \arg        TIMER_ENCODER_MODE1: counter counts on CI1FE1 edge depending on CI0FE0 level
1819:C:/Users/49542/Desktop/GD32F30x_Demo_Suites_V2.0.0/GD32F30x_Demo_Suites_V2.0.0/GD32F30x_Firmware_Library/GD32F30x_standard_peripheral/Source\gd32f30x_timer.c ****       \arg        TIMER_ENCODER_MODE2: counter counts on both CI0FE0 and CI1FE1 edges depending on 
1820:C:/Users/49542/Desktop/GD32F30x_Demo_Suites_V2.0.0/GD32F30x_Demo_Suites_V2.0.0/GD32F30x_Firmware_Library/GD32F30x_standard_peripheral/Source\gd32f30x_timer.c ****     \param[in]  ic0polarity: 
1821:C:/Users/49542/Desktop/GD32F30x_Demo_Suites_V2.0.0/GD32F30x_Demo_Suites_V2.0.0/GD32F30x_Firmware_Library/GD32F30x_standard_peripheral/Source\gd32f30x_timer.c ****                 only one parameter can be selected which is shown as below:
1822:C:/Users/49542/Desktop/GD32F30x_Demo_Suites_V2.0.0/GD32F30x_Demo_Suites_V2.0.0/GD32F30x_Firmware_Library/GD32F30x_standard_peripheral/Source\gd32f30x_timer.c ****       \arg        TIMER_IC_POLARITY_RISING: capture rising edge
1823:C:/Users/49542/Desktop/GD32F30x_Demo_Suites_V2.0.0/GD32F30x_Demo_Suites_V2.0.0/GD32F30x_Firmware_Library/GD32F30x_standard_peripheral/Source\gd32f30x_timer.c ****       \arg        TIMER_IC_POLARITY_FALLING: capture falling edge
1824:C:/Users/49542/Desktop/GD32F30x_Demo_Suites_V2.0.0/GD32F30x_Demo_Suites_V2.0.0/GD32F30x_Firmware_Library/GD32F30x_standard_peripheral/Source\gd32f30x_timer.c ****     \param[in]  ic1polarity:
1825:C:/Users/49542/Desktop/GD32F30x_Demo_Suites_V2.0.0/GD32F30x_Demo_Suites_V2.0.0/GD32F30x_Firmware_Library/GD32F30x_standard_peripheral/Source\gd32f30x_timer.c ****                 only one parameter can be selected which is shown as below:
1826:C:/Users/49542/Desktop/GD32F30x_Demo_Suites_V2.0.0/GD32F30x_Demo_Suites_V2.0.0/GD32F30x_Firmware_Library/GD32F30x_standard_peripheral/Source\gd32f30x_timer.c ****       \arg        TIMER_IC_POLARITY_RISING: capture rising edge
1827:C:/Users/49542/Desktop/GD32F30x_Demo_Suites_V2.0.0/GD32F30x_Demo_Suites_V2.0.0/GD32F30x_Firmware_Library/GD32F30x_standard_peripheral/Source\gd32f30x_timer.c ****       \arg        TIMER_IC_POLARITY_FALLING: capture falling edge
1828:C:/Users/49542/Desktop/GD32F30x_Demo_Suites_V2.0.0/GD32F30x_Demo_Suites_V2.0.0/GD32F30x_Firmware_Library/GD32F30x_standard_peripheral/Source\gd32f30x_timer.c ****     \param[out] none
1829:C:/Users/49542/Desktop/GD32F30x_Demo_Suites_V2.0.0/GD32F30x_Demo_Suites_V2.0.0/GD32F30x_Firmware_Library/GD32F30x_standard_peripheral/Source\gd32f30x_timer.c ****     \retval     none
1830:C:/Users/49542/Desktop/GD32F30x_Demo_Suites_V2.0.0/GD32F30x_Demo_Suites_V2.0.0/GD32F30x_Firmware_Library/GD32F30x_standard_peripheral/Source\gd32f30x_timer.c **** */
1831:C:/Users/49542/Desktop/GD32F30x_Demo_Suites_V2.0.0/GD32F30x_Demo_Suites_V2.0.0/GD32F30x_Firmware_Library/GD32F30x_standard_peripheral/Source\gd32f30x_timer.c **** void timer_quadrature_decoder_mode_config(uint32_t timer_periph, uint32_t decomode,
1832:C:/Users/49542/Desktop/GD32F30x_Demo_Suites_V2.0.0/GD32F30x_Demo_Suites_V2.0.0/GD32F30x_Firmware_Library/GD32F30x_standard_peripheral/Source\gd32f30x_timer.c ****                                    uint16_t ic0polarity, uint16_t ic1polarity)
1833:C:/Users/49542/Desktop/GD32F30x_Demo_Suites_V2.0.0/GD32F30x_Demo_Suites_V2.0.0/GD32F30x_Firmware_Library/GD32F30x_standard_peripheral/Source\gd32f30x_timer.c **** {
 5983              		.loc 1 1833 0
 5984              		.cfi_startproc
 5985              		@ args = 0, pretend = 0, frame = 16
 5986              		@ frame_needed = 1, uses_anonymous_args = 0
 5987              		@ link register save eliminated.
 5988 0000 80B4     		push	{r7}
 5989              	.LCFI369:
 5990              		.cfi_def_cfa_offset 4
 5991              		.cfi_offset 7, -4
 5992 0002 85B0     		sub	sp, sp, #20
 5993              	.LCFI370:
 5994              		.cfi_def_cfa_offset 24
 5995 0004 00AF     		add	r7, sp, #0
 5996              	.LCFI371:
ARM GAS  C:\Users\49542\AppData\Local\Temp\ccx6VnNU.s 			page 138


 5997              		.cfi_def_cfa_register 7
 5998 0006 F860     		str	r0, [r7, #12]
 5999 0008 B960     		str	r1, [r7, #8]
 6000 000a 1146     		mov	r1, r2
 6001 000c 1A46     		mov	r2, r3
 6002 000e 0B46     		mov	r3, r1	@ movhi
 6003 0010 FB80     		strh	r3, [r7, #6]	@ movhi
 6004 0012 1346     		mov	r3, r2	@ movhi
 6005 0014 BB80     		strh	r3, [r7, #4]	@ movhi
1834:C:/Users/49542/Desktop/GD32F30x_Demo_Suites_V2.0.0/GD32F30x_Demo_Suites_V2.0.0/GD32F30x_Firmware_Library/GD32F30x_standard_peripheral/Source\gd32f30x_timer.c ****     TIMER_SMCFG(timer_periph) &= (~(uint32_t)TIMER_SMCFG_SMC);
 6006              		.loc 1 1834 0
 6007 0016 FB68     		ldr	r3, [r7, #12]
 6008 0018 0833     		adds	r3, r3, #8
 6009 001a 1B68     		ldr	r3, [r3]
 6010 001c FA68     		ldr	r2, [r7, #12]
 6011 001e 0832     		adds	r2, r2, #8
 6012 0020 23F00703 		bic	r3, r3, #7
 6013 0024 1360     		str	r3, [r2]
1835:C:/Users/49542/Desktop/GD32F30x_Demo_Suites_V2.0.0/GD32F30x_Demo_Suites_V2.0.0/GD32F30x_Firmware_Library/GD32F30x_standard_peripheral/Source\gd32f30x_timer.c ****     TIMER_SMCFG(timer_periph) |= (uint32_t)decomode;
 6014              		.loc 1 1835 0
 6015 0026 FB68     		ldr	r3, [r7, #12]
 6016 0028 0833     		adds	r3, r3, #8
 6017 002a 1A68     		ldr	r2, [r3]
 6018 002c FB68     		ldr	r3, [r7, #12]
 6019 002e 0833     		adds	r3, r3, #8
 6020 0030 1946     		mov	r1, r3
 6021 0032 BB68     		ldr	r3, [r7, #8]
 6022 0034 1343     		orrs	r3, r3, r2
 6023 0036 0B60     		str	r3, [r1]
1836:C:/Users/49542/Desktop/GD32F30x_Demo_Suites_V2.0.0/GD32F30x_Demo_Suites_V2.0.0/GD32F30x_Firmware_Library/GD32F30x_standard_peripheral/Source\gd32f30x_timer.c **** 
1837:C:/Users/49542/Desktop/GD32F30x_Demo_Suites_V2.0.0/GD32F30x_Demo_Suites_V2.0.0/GD32F30x_Firmware_Library/GD32F30x_standard_peripheral/Source\gd32f30x_timer.c ****     TIMER_CHCTL0(timer_periph) &= (uint32_t)(((~(uint32_t)TIMER_CHCTL0_CH0MS))&((~(uint32_t)TIMER_C
 6024              		.loc 1 1837 0
 6025 0038 FB68     		ldr	r3, [r7, #12]
 6026 003a 1833     		adds	r3, r3, #24
 6027 003c 1B68     		ldr	r3, [r3]
 6028 003e FA68     		ldr	r2, [r7, #12]
 6029 0040 1832     		adds	r2, r2, #24
 6030 0042 23F44073 		bic	r3, r3, #768
 6031 0046 23F00303 		bic	r3, r3, #3
 6032 004a 1360     		str	r3, [r2]
1838:C:/Users/49542/Desktop/GD32F30x_Demo_Suites_V2.0.0/GD32F30x_Demo_Suites_V2.0.0/GD32F30x_Firmware_Library/GD32F30x_standard_peripheral/Source\gd32f30x_timer.c ****     TIMER_CHCTL0(timer_periph) |= (uint32_t)(TIMER_IC_SELECTION_DIRECTTI|((uint32_t)TIMER_IC_SELECT
 6033              		.loc 1 1838 0
 6034 004c FB68     		ldr	r3, [r7, #12]
 6035 004e 1833     		adds	r3, r3, #24
 6036 0050 1B68     		ldr	r3, [r3]
 6037 0052 FA68     		ldr	r2, [r7, #12]
 6038 0054 1832     		adds	r2, r2, #24
 6039 0056 43F48073 		orr	r3, r3, #256
 6040 005a 43F00103 		orr	r3, r3, #1
 6041 005e 1360     		str	r3, [r2]
1839:C:/Users/49542/Desktop/GD32F30x_Demo_Suites_V2.0.0/GD32F30x_Demo_Suites_V2.0.0/GD32F30x_Firmware_Library/GD32F30x_standard_peripheral/Source\gd32f30x_timer.c **** 
1840:C:/Users/49542/Desktop/GD32F30x_Demo_Suites_V2.0.0/GD32F30x_Demo_Suites_V2.0.0/GD32F30x_Firmware_Library/GD32F30x_standard_peripheral/Source\gd32f30x_timer.c ****     TIMER_CHCTL2(timer_periph) &= (~(uint32_t)(TIMER_CHCTL2_CH0P|TIMER_CHCTL2_CH0NP));
 6042              		.loc 1 1840 0
 6043 0060 FB68     		ldr	r3, [r7, #12]
 6044 0062 2033     		adds	r3, r3, #32
 6045 0064 1B68     		ldr	r3, [r3]
 6046 0066 FA68     		ldr	r2, [r7, #12]
ARM GAS  C:\Users\49542\AppData\Local\Temp\ccx6VnNU.s 			page 139


 6047 0068 2032     		adds	r2, r2, #32
 6048 006a 23F00A03 		bic	r3, r3, #10
 6049 006e 1360     		str	r3, [r2]
1841:C:/Users/49542/Desktop/GD32F30x_Demo_Suites_V2.0.0/GD32F30x_Demo_Suites_V2.0.0/GD32F30x_Firmware_Library/GD32F30x_standard_peripheral/Source\gd32f30x_timer.c ****     TIMER_CHCTL2(timer_periph) &= (~(uint32_t)(TIMER_CHCTL2_CH1P|TIMER_CHCTL2_CH1NP));
 6050              		.loc 1 1841 0
 6051 0070 FB68     		ldr	r3, [r7, #12]
 6052 0072 2033     		adds	r3, r3, #32
 6053 0074 1B68     		ldr	r3, [r3]
 6054 0076 FA68     		ldr	r2, [r7, #12]
 6055 0078 2032     		adds	r2, r2, #32
 6056 007a 23F0A003 		bic	r3, r3, #160
 6057 007e 1360     		str	r3, [r2]
1842:C:/Users/49542/Desktop/GD32F30x_Demo_Suites_V2.0.0/GD32F30x_Demo_Suites_V2.0.0/GD32F30x_Firmware_Library/GD32F30x_standard_peripheral/Source\gd32f30x_timer.c ****     TIMER_CHCTL2(timer_periph) |= ((uint32_t)ic0polarity|((uint32_t)ic1polarity << 4U));
 6058              		.loc 1 1842 0
 6059 0080 FB68     		ldr	r3, [r7, #12]
 6060 0082 2033     		adds	r3, r3, #32
 6061 0084 1A68     		ldr	r2, [r3]
 6062 0086 F988     		ldrh	r1, [r7, #6]
 6063 0088 BB88     		ldrh	r3, [r7, #4]
 6064 008a 1B01     		lsls	r3, r3, #4
 6065 008c 0B43     		orrs	r3, r3, r1
 6066 008e F968     		ldr	r1, [r7, #12]
 6067 0090 2031     		adds	r1, r1, #32
 6068 0092 1343     		orrs	r3, r3, r2
 6069 0094 0B60     		str	r3, [r1]
1843:C:/Users/49542/Desktop/GD32F30x_Demo_Suites_V2.0.0/GD32F30x_Demo_Suites_V2.0.0/GD32F30x_Firmware_Library/GD32F30x_standard_peripheral/Source\gd32f30x_timer.c **** }
 6070              		.loc 1 1843 0
 6071 0096 00BF     		nop
 6072 0098 1437     		adds	r7, r7, #20
 6073              	.LCFI372:
 6074              		.cfi_def_cfa_offset 4
 6075 009a BD46     		mov	sp, r7
 6076              	.LCFI373:
 6077              		.cfi_def_cfa_register 13
 6078              		@ sp needed
 6079 009c 5DF8047B 		ldr	r7, [sp], #4
 6080              	.LCFI374:
 6081              		.cfi_restore 7
 6082              		.cfi_def_cfa_offset 0
 6083 00a0 7047     		bx	lr
 6084              		.cfi_endproc
 6085              	.LFE178:
 6087              		.section	.text.timer_internal_clock_config,"ax",%progbits
 6088              		.align	1
 6089              		.global	timer_internal_clock_config
 6090              		.syntax unified
 6091              		.thumb
 6092              		.thumb_func
 6093              		.fpu fpv4-sp-d16
 6095              	timer_internal_clock_config:
 6096              	.LFB179:
1844:C:/Users/49542/Desktop/GD32F30x_Demo_Suites_V2.0.0/GD32F30x_Demo_Suites_V2.0.0/GD32F30x_Firmware_Library/GD32F30x_standard_peripheral/Source\gd32f30x_timer.c **** 
1845:C:/Users/49542/Desktop/GD32F30x_Demo_Suites_V2.0.0/GD32F30x_Demo_Suites_V2.0.0/GD32F30x_Firmware_Library/GD32F30x_standard_peripheral/Source\gd32f30x_timer.c **** /*!
1846:C:/Users/49542/Desktop/GD32F30x_Demo_Suites_V2.0.0/GD32F30x_Demo_Suites_V2.0.0/GD32F30x_Firmware_Library/GD32F30x_standard_peripheral/Source\gd32f30x_timer.c ****     \brief      configure TIMER internal clock mode
1847:C:/Users/49542/Desktop/GD32F30x_Demo_Suites_V2.0.0/GD32F30x_Demo_Suites_V2.0.0/GD32F30x_Firmware_Library/GD32F30x_standard_peripheral/Source\gd32f30x_timer.c ****     \param[in]  timer_periph: TIMERx(x=0..4,7,8,11)
1848:C:/Users/49542/Desktop/GD32F30x_Demo_Suites_V2.0.0/GD32F30x_Demo_Suites_V2.0.0/GD32F30x_Firmware_Library/GD32F30x_standard_peripheral/Source\gd32f30x_timer.c ****     \param[out] none
1849:C:/Users/49542/Desktop/GD32F30x_Demo_Suites_V2.0.0/GD32F30x_Demo_Suites_V2.0.0/GD32F30x_Firmware_Library/GD32F30x_standard_peripheral/Source\gd32f30x_timer.c ****     \retval     none
ARM GAS  C:\Users\49542\AppData\Local\Temp\ccx6VnNU.s 			page 140


1850:C:/Users/49542/Desktop/GD32F30x_Demo_Suites_V2.0.0/GD32F30x_Demo_Suites_V2.0.0/GD32F30x_Firmware_Library/GD32F30x_standard_peripheral/Source\gd32f30x_timer.c **** */
1851:C:/Users/49542/Desktop/GD32F30x_Demo_Suites_V2.0.0/GD32F30x_Demo_Suites_V2.0.0/GD32F30x_Firmware_Library/GD32F30x_standard_peripheral/Source\gd32f30x_timer.c **** void timer_internal_clock_config(uint32_t timer_periph)
1852:C:/Users/49542/Desktop/GD32F30x_Demo_Suites_V2.0.0/GD32F30x_Demo_Suites_V2.0.0/GD32F30x_Firmware_Library/GD32F30x_standard_peripheral/Source\gd32f30x_timer.c **** {
 6097              		.loc 1 1852 0
 6098              		.cfi_startproc
 6099              		@ args = 0, pretend = 0, frame = 8
 6100              		@ frame_needed = 1, uses_anonymous_args = 0
 6101              		@ link register save eliminated.
 6102 0000 80B4     		push	{r7}
 6103              	.LCFI375:
 6104              		.cfi_def_cfa_offset 4
 6105              		.cfi_offset 7, -4
 6106 0002 83B0     		sub	sp, sp, #12
 6107              	.LCFI376:
 6108              		.cfi_def_cfa_offset 16
 6109 0004 00AF     		add	r7, sp, #0
 6110              	.LCFI377:
 6111              		.cfi_def_cfa_register 7
 6112 0006 7860     		str	r0, [r7, #4]
1853:C:/Users/49542/Desktop/GD32F30x_Demo_Suites_V2.0.0/GD32F30x_Demo_Suites_V2.0.0/GD32F30x_Firmware_Library/GD32F30x_standard_peripheral/Source\gd32f30x_timer.c ****     TIMER_SMCFG(timer_periph) &= ~(uint32_t)TIMER_SMCFG_SMC;
 6113              		.loc 1 1853 0
 6114 0008 7B68     		ldr	r3, [r7, #4]
 6115 000a 0833     		adds	r3, r3, #8
 6116 000c 1B68     		ldr	r3, [r3]
 6117 000e 7A68     		ldr	r2, [r7, #4]
 6118 0010 0832     		adds	r2, r2, #8
 6119 0012 23F00703 		bic	r3, r3, #7
 6120 0016 1360     		str	r3, [r2]
1854:C:/Users/49542/Desktop/GD32F30x_Demo_Suites_V2.0.0/GD32F30x_Demo_Suites_V2.0.0/GD32F30x_Firmware_Library/GD32F30x_standard_peripheral/Source\gd32f30x_timer.c **** }
 6121              		.loc 1 1854 0
 6122 0018 00BF     		nop
 6123 001a 0C37     		adds	r7, r7, #12
 6124              	.LCFI378:
 6125              		.cfi_def_cfa_offset 4
 6126 001c BD46     		mov	sp, r7
 6127              	.LCFI379:
 6128              		.cfi_def_cfa_register 13
 6129              		@ sp needed
 6130 001e 5DF8047B 		ldr	r7, [sp], #4
 6131              	.LCFI380:
 6132              		.cfi_restore 7
 6133              		.cfi_def_cfa_offset 0
 6134 0022 7047     		bx	lr
 6135              		.cfi_endproc
 6136              	.LFE179:
 6138              		.section	.text.timer_internal_trigger_as_external_clock_config,"ax",%progbits
 6139              		.align	1
 6140              		.global	timer_internal_trigger_as_external_clock_config
 6141              		.syntax unified
 6142              		.thumb
 6143              		.thumb_func
 6144              		.fpu fpv4-sp-d16
 6146              	timer_internal_trigger_as_external_clock_config:
 6147              	.LFB180:
1855:C:/Users/49542/Desktop/GD32F30x_Demo_Suites_V2.0.0/GD32F30x_Demo_Suites_V2.0.0/GD32F30x_Firmware_Library/GD32F30x_standard_peripheral/Source\gd32f30x_timer.c **** 
1856:C:/Users/49542/Desktop/GD32F30x_Demo_Suites_V2.0.0/GD32F30x_Demo_Suites_V2.0.0/GD32F30x_Firmware_Library/GD32F30x_standard_peripheral/Source\gd32f30x_timer.c **** /*!
1857:C:/Users/49542/Desktop/GD32F30x_Demo_Suites_V2.0.0/GD32F30x_Demo_Suites_V2.0.0/GD32F30x_Firmware_Library/GD32F30x_standard_peripheral/Source\gd32f30x_timer.c ****     \brief      configure TIMER the internal trigger as external clock input
ARM GAS  C:\Users\49542\AppData\Local\Temp\ccx6VnNU.s 			page 141


1858:C:/Users/49542/Desktop/GD32F30x_Demo_Suites_V2.0.0/GD32F30x_Demo_Suites_V2.0.0/GD32F30x_Firmware_Library/GD32F30x_standard_peripheral/Source\gd32f30x_timer.c ****     \param[in]  timer_periph: TIMERx(x=0..4,7,8,11)
1859:C:/Users/49542/Desktop/GD32F30x_Demo_Suites_V2.0.0/GD32F30x_Demo_Suites_V2.0.0/GD32F30x_Firmware_Library/GD32F30x_standard_peripheral/Source\gd32f30x_timer.c ****     \param[in]  intrigger:
1860:C:/Users/49542/Desktop/GD32F30x_Demo_Suites_V2.0.0/GD32F30x_Demo_Suites_V2.0.0/GD32F30x_Firmware_Library/GD32F30x_standard_peripheral/Source\gd32f30x_timer.c ****                 only one parameter can be selected which is shown as below:
1861:C:/Users/49542/Desktop/GD32F30x_Demo_Suites_V2.0.0/GD32F30x_Demo_Suites_V2.0.0/GD32F30x_Firmware_Library/GD32F30x_standard_peripheral/Source\gd32f30x_timer.c ****       \arg        TIMER_SMCFG_TRGSEL_ITI0: internal trigger 0
1862:C:/Users/49542/Desktop/GD32F30x_Demo_Suites_V2.0.0/GD32F30x_Demo_Suites_V2.0.0/GD32F30x_Firmware_Library/GD32F30x_standard_peripheral/Source\gd32f30x_timer.c ****       \arg        TIMER_SMCFG_TRGSEL_ITI1: internal trigger 1
1863:C:/Users/49542/Desktop/GD32F30x_Demo_Suites_V2.0.0/GD32F30x_Demo_Suites_V2.0.0/GD32F30x_Firmware_Library/GD32F30x_standard_peripheral/Source\gd32f30x_timer.c ****       \arg        TIMER_SMCFG_TRGSEL_ITI2: internal trigger 2
1864:C:/Users/49542/Desktop/GD32F30x_Demo_Suites_V2.0.0/GD32F30x_Demo_Suites_V2.0.0/GD32F30x_Firmware_Library/GD32F30x_standard_peripheral/Source\gd32f30x_timer.c ****       \arg        TIMER_SMCFG_TRGSEL_ITI3: internal trigger 3
1865:C:/Users/49542/Desktop/GD32F30x_Demo_Suites_V2.0.0/GD32F30x_Demo_Suites_V2.0.0/GD32F30x_Firmware_Library/GD32F30x_standard_peripheral/Source\gd32f30x_timer.c ****     \param[out] none
1866:C:/Users/49542/Desktop/GD32F30x_Demo_Suites_V2.0.0/GD32F30x_Demo_Suites_V2.0.0/GD32F30x_Firmware_Library/GD32F30x_standard_peripheral/Source\gd32f30x_timer.c ****     \retval     none
1867:C:/Users/49542/Desktop/GD32F30x_Demo_Suites_V2.0.0/GD32F30x_Demo_Suites_V2.0.0/GD32F30x_Firmware_Library/GD32F30x_standard_peripheral/Source\gd32f30x_timer.c **** */
1868:C:/Users/49542/Desktop/GD32F30x_Demo_Suites_V2.0.0/GD32F30x_Demo_Suites_V2.0.0/GD32F30x_Firmware_Library/GD32F30x_standard_peripheral/Source\gd32f30x_timer.c **** void timer_internal_trigger_as_external_clock_config(uint32_t timer_periph, uint32_t intrigger)
1869:C:/Users/49542/Desktop/GD32F30x_Demo_Suites_V2.0.0/GD32F30x_Demo_Suites_V2.0.0/GD32F30x_Firmware_Library/GD32F30x_standard_peripheral/Source\gd32f30x_timer.c **** {
 6148              		.loc 1 1869 0
 6149              		.cfi_startproc
 6150              		@ args = 0, pretend = 0, frame = 8
 6151              		@ frame_needed = 1, uses_anonymous_args = 0
 6152 0000 80B5     		push	{r7, lr}
 6153              	.LCFI381:
 6154              		.cfi_def_cfa_offset 8
 6155              		.cfi_offset 7, -8
 6156              		.cfi_offset 14, -4
 6157 0002 82B0     		sub	sp, sp, #8
 6158              	.LCFI382:
 6159              		.cfi_def_cfa_offset 16
 6160 0004 00AF     		add	r7, sp, #0
 6161              	.LCFI383:
 6162              		.cfi_def_cfa_register 7
 6163 0006 7860     		str	r0, [r7, #4]
 6164 0008 3960     		str	r1, [r7]
1870:C:/Users/49542/Desktop/GD32F30x_Demo_Suites_V2.0.0/GD32F30x_Demo_Suites_V2.0.0/GD32F30x_Firmware_Library/GD32F30x_standard_peripheral/Source\gd32f30x_timer.c ****     timer_input_trigger_source_select(timer_periph, intrigger);
 6165              		.loc 1 1870 0
 6166 000a 3968     		ldr	r1, [r7]
 6167 000c 7868     		ldr	r0, [r7, #4]
 6168 000e FFF7FEFF 		bl	timer_input_trigger_source_select
1871:C:/Users/49542/Desktop/GD32F30x_Demo_Suites_V2.0.0/GD32F30x_Demo_Suites_V2.0.0/GD32F30x_Firmware_Library/GD32F30x_standard_peripheral/Source\gd32f30x_timer.c ****     TIMER_SMCFG(timer_periph) &= ~(uint32_t)TIMER_SMCFG_SMC;
 6169              		.loc 1 1871 0
 6170 0012 7B68     		ldr	r3, [r7, #4]
 6171 0014 0833     		adds	r3, r3, #8
 6172 0016 1B68     		ldr	r3, [r3]
 6173 0018 7A68     		ldr	r2, [r7, #4]
 6174 001a 0832     		adds	r2, r2, #8
 6175 001c 23F00703 		bic	r3, r3, #7
 6176 0020 1360     		str	r3, [r2]
1872:C:/Users/49542/Desktop/GD32F30x_Demo_Suites_V2.0.0/GD32F30x_Demo_Suites_V2.0.0/GD32F30x_Firmware_Library/GD32F30x_standard_peripheral/Source\gd32f30x_timer.c ****     TIMER_SMCFG(timer_periph) |= (uint32_t)TIMER_SLAVE_MODE_EXTERNAL0;
 6177              		.loc 1 1872 0
 6178 0022 7B68     		ldr	r3, [r7, #4]
 6179 0024 0833     		adds	r3, r3, #8
 6180 0026 1B68     		ldr	r3, [r3]
 6181 0028 7A68     		ldr	r2, [r7, #4]
 6182 002a 0832     		adds	r2, r2, #8
 6183 002c 43F00703 		orr	r3, r3, #7
 6184 0030 1360     		str	r3, [r2]
1873:C:/Users/49542/Desktop/GD32F30x_Demo_Suites_V2.0.0/GD32F30x_Demo_Suites_V2.0.0/GD32F30x_Firmware_Library/GD32F30x_standard_peripheral/Source\gd32f30x_timer.c **** }
 6185              		.loc 1 1873 0
 6186 0032 00BF     		nop
 6187 0034 0837     		adds	r7, r7, #8
 6188              	.LCFI384:
ARM GAS  C:\Users\49542\AppData\Local\Temp\ccx6VnNU.s 			page 142


 6189              		.cfi_def_cfa_offset 8
 6190 0036 BD46     		mov	sp, r7
 6191              	.LCFI385:
 6192              		.cfi_def_cfa_register 13
 6193              		@ sp needed
 6194 0038 80BD     		pop	{r7, pc}
 6195              		.cfi_endproc
 6196              	.LFE180:
 6198              		.section	.text.timer_external_trigger_as_external_clock_config,"ax",%progbits
 6199              		.align	1
 6200              		.global	timer_external_trigger_as_external_clock_config
 6201              		.syntax unified
 6202              		.thumb
 6203              		.thumb_func
 6204              		.fpu fpv4-sp-d16
 6206              	timer_external_trigger_as_external_clock_config:
 6207              	.LFB181:
1874:C:/Users/49542/Desktop/GD32F30x_Demo_Suites_V2.0.0/GD32F30x_Demo_Suites_V2.0.0/GD32F30x_Firmware_Library/GD32F30x_standard_peripheral/Source\gd32f30x_timer.c **** 
1875:C:/Users/49542/Desktop/GD32F30x_Demo_Suites_V2.0.0/GD32F30x_Demo_Suites_V2.0.0/GD32F30x_Firmware_Library/GD32F30x_standard_peripheral/Source\gd32f30x_timer.c **** /*!
1876:C:/Users/49542/Desktop/GD32F30x_Demo_Suites_V2.0.0/GD32F30x_Demo_Suites_V2.0.0/GD32F30x_Firmware_Library/GD32F30x_standard_peripheral/Source\gd32f30x_timer.c ****     \brief      configure TIMER the external trigger as external clock input
1877:C:/Users/49542/Desktop/GD32F30x_Demo_Suites_V2.0.0/GD32F30x_Demo_Suites_V2.0.0/GD32F30x_Firmware_Library/GD32F30x_standard_peripheral/Source\gd32f30x_timer.c ****     \param[in]  timer_periph: TIMERx(x=0..4,7,8,11)
1878:C:/Users/49542/Desktop/GD32F30x_Demo_Suites_V2.0.0/GD32F30x_Demo_Suites_V2.0.0/GD32F30x_Firmware_Library/GD32F30x_standard_peripheral/Source\gd32f30x_timer.c ****     \param[in]  extrigger:
1879:C:/Users/49542/Desktop/GD32F30x_Demo_Suites_V2.0.0/GD32F30x_Demo_Suites_V2.0.0/GD32F30x_Firmware_Library/GD32F30x_standard_peripheral/Source\gd32f30x_timer.c ****                 only one parameter can be selected which is shown as below:
1880:C:/Users/49542/Desktop/GD32F30x_Demo_Suites_V2.0.0/GD32F30x_Demo_Suites_V2.0.0/GD32F30x_Firmware_Library/GD32F30x_standard_peripheral/Source\gd32f30x_timer.c ****       \arg        TIMER_SMCFG_TRGSEL_CI0F_ED: TI0 edge detector
1881:C:/Users/49542/Desktop/GD32F30x_Demo_Suites_V2.0.0/GD32F30x_Demo_Suites_V2.0.0/GD32F30x_Firmware_Library/GD32F30x_standard_peripheral/Source\gd32f30x_timer.c ****       \arg        TIMER_SMCFG_TRGSEL_CI0FE0: filtered TIMER input 0
1882:C:/Users/49542/Desktop/GD32F30x_Demo_Suites_V2.0.0/GD32F30x_Demo_Suites_V2.0.0/GD32F30x_Firmware_Library/GD32F30x_standard_peripheral/Source\gd32f30x_timer.c ****       \arg        TIMER_SMCFG_TRGSEL_CI1FE1: filtered TIMER input 1
1883:C:/Users/49542/Desktop/GD32F30x_Demo_Suites_V2.0.0/GD32F30x_Demo_Suites_V2.0.0/GD32F30x_Firmware_Library/GD32F30x_standard_peripheral/Source\gd32f30x_timer.c ****     \param[in]  extpolarity: 
1884:C:/Users/49542/Desktop/GD32F30x_Demo_Suites_V2.0.0/GD32F30x_Demo_Suites_V2.0.0/GD32F30x_Firmware_Library/GD32F30x_standard_peripheral/Source\gd32f30x_timer.c ****                 only one parameter can be selected which is shown as below:
1885:C:/Users/49542/Desktop/GD32F30x_Demo_Suites_V2.0.0/GD32F30x_Demo_Suites_V2.0.0/GD32F30x_Firmware_Library/GD32F30x_standard_peripheral/Source\gd32f30x_timer.c ****       \arg        TIMER_IC_POLARITY_RISING: active high or rising edge active
1886:C:/Users/49542/Desktop/GD32F30x_Demo_Suites_V2.0.0/GD32F30x_Demo_Suites_V2.0.0/GD32F30x_Firmware_Library/GD32F30x_standard_peripheral/Source\gd32f30x_timer.c ****       \arg        TIMER_IC_POLARITY_FALLING: active low or falling edge active
1887:C:/Users/49542/Desktop/GD32F30x_Demo_Suites_V2.0.0/GD32F30x_Demo_Suites_V2.0.0/GD32F30x_Firmware_Library/GD32F30x_standard_peripheral/Source\gd32f30x_timer.c ****     \param[in]  extfilter: a value between 0 and 15
1888:C:/Users/49542/Desktop/GD32F30x_Demo_Suites_V2.0.0/GD32F30x_Demo_Suites_V2.0.0/GD32F30x_Firmware_Library/GD32F30x_standard_peripheral/Source\gd32f30x_timer.c ****     \param[out] none
1889:C:/Users/49542/Desktop/GD32F30x_Demo_Suites_V2.0.0/GD32F30x_Demo_Suites_V2.0.0/GD32F30x_Firmware_Library/GD32F30x_standard_peripheral/Source\gd32f30x_timer.c ****     \retval     none
1890:C:/Users/49542/Desktop/GD32F30x_Demo_Suites_V2.0.0/GD32F30x_Demo_Suites_V2.0.0/GD32F30x_Firmware_Library/GD32F30x_standard_peripheral/Source\gd32f30x_timer.c **** */
1891:C:/Users/49542/Desktop/GD32F30x_Demo_Suites_V2.0.0/GD32F30x_Demo_Suites_V2.0.0/GD32F30x_Firmware_Library/GD32F30x_standard_peripheral/Source\gd32f30x_timer.c **** void timer_external_trigger_as_external_clock_config(uint32_t timer_periph, uint32_t extrigger,
1892:C:/Users/49542/Desktop/GD32F30x_Demo_Suites_V2.0.0/GD32F30x_Demo_Suites_V2.0.0/GD32F30x_Firmware_Library/GD32F30x_standard_peripheral/Source\gd32f30x_timer.c ****                                        uint16_t extpolarity, uint32_t extfilter)
1893:C:/Users/49542/Desktop/GD32F30x_Demo_Suites_V2.0.0/GD32F30x_Demo_Suites_V2.0.0/GD32F30x_Firmware_Library/GD32F30x_standard_peripheral/Source\gd32f30x_timer.c **** {
 6208              		.loc 1 1893 0
 6209              		.cfi_startproc
 6210              		@ args = 0, pretend = 0, frame = 16
 6211              		@ frame_needed = 1, uses_anonymous_args = 0
 6212 0000 80B5     		push	{r7, lr}
 6213              	.LCFI386:
 6214              		.cfi_def_cfa_offset 8
 6215              		.cfi_offset 7, -8
 6216              		.cfi_offset 14, -4
 6217 0002 84B0     		sub	sp, sp, #16
 6218              	.LCFI387:
 6219              		.cfi_def_cfa_offset 24
 6220 0004 00AF     		add	r7, sp, #0
 6221              	.LCFI388:
 6222              		.cfi_def_cfa_register 7
 6223 0006 F860     		str	r0, [r7, #12]
 6224 0008 B960     		str	r1, [r7, #8]
 6225 000a 3B60     		str	r3, [r7]
 6226 000c 1346     		mov	r3, r2	@ movhi
 6227 000e FB80     		strh	r3, [r7, #6]	@ movhi
ARM GAS  C:\Users\49542\AppData\Local\Temp\ccx6VnNU.s 			page 143


1894:C:/Users/49542/Desktop/GD32F30x_Demo_Suites_V2.0.0/GD32F30x_Demo_Suites_V2.0.0/GD32F30x_Firmware_Library/GD32F30x_standard_peripheral/Source\gd32f30x_timer.c ****     if(TIMER_SMCFG_TRGSEL_CI1FE1 == extrigger){
 6228              		.loc 1 1894 0
 6229 0010 BB68     		ldr	r3, [r7, #8]
 6230 0012 602B     		cmp	r3, #96
 6231 0014 42D1     		bne	.L249
1895:C:/Users/49542/Desktop/GD32F30x_Demo_Suites_V2.0.0/GD32F30x_Demo_Suites_V2.0.0/GD32F30x_Firmware_Library/GD32F30x_standard_peripheral/Source\gd32f30x_timer.c ****         /* reset the CH1EN bit */
1896:C:/Users/49542/Desktop/GD32F30x_Demo_Suites_V2.0.0/GD32F30x_Demo_Suites_V2.0.0/GD32F30x_Firmware_Library/GD32F30x_standard_peripheral/Source\gd32f30x_timer.c ****         TIMER_CHCTL2(timer_periph) &= (~(uint32_t)TIMER_CHCTL2_CH1EN);
 6232              		.loc 1 1896 0
 6233 0016 FB68     		ldr	r3, [r7, #12]
 6234 0018 2033     		adds	r3, r3, #32
 6235 001a 1B68     		ldr	r3, [r3]
 6236 001c FA68     		ldr	r2, [r7, #12]
 6237 001e 2032     		adds	r2, r2, #32
 6238 0020 23F01003 		bic	r3, r3, #16
 6239 0024 1360     		str	r3, [r2]
1897:C:/Users/49542/Desktop/GD32F30x_Demo_Suites_V2.0.0/GD32F30x_Demo_Suites_V2.0.0/GD32F30x_Firmware_Library/GD32F30x_standard_peripheral/Source\gd32f30x_timer.c ****         /* reset the CH1NP bit */
1898:C:/Users/49542/Desktop/GD32F30x_Demo_Suites_V2.0.0/GD32F30x_Demo_Suites_V2.0.0/GD32F30x_Firmware_Library/GD32F30x_standard_peripheral/Source\gd32f30x_timer.c ****         TIMER_CHCTL2(timer_periph) &= (~(uint32_t)(TIMER_CHCTL2_CH1P|TIMER_CHCTL2_CH1NP));
 6240              		.loc 1 1898 0
 6241 0026 FB68     		ldr	r3, [r7, #12]
 6242 0028 2033     		adds	r3, r3, #32
 6243 002a 1B68     		ldr	r3, [r3]
 6244 002c FA68     		ldr	r2, [r7, #12]
 6245 002e 2032     		adds	r2, r2, #32
 6246 0030 23F0A003 		bic	r3, r3, #160
 6247 0034 1360     		str	r3, [r2]
1899:C:/Users/49542/Desktop/GD32F30x_Demo_Suites_V2.0.0/GD32F30x_Demo_Suites_V2.0.0/GD32F30x_Firmware_Library/GD32F30x_standard_peripheral/Source\gd32f30x_timer.c ****         /* set the CH1NP bit */
1900:C:/Users/49542/Desktop/GD32F30x_Demo_Suites_V2.0.0/GD32F30x_Demo_Suites_V2.0.0/GD32F30x_Firmware_Library/GD32F30x_standard_peripheral/Source\gd32f30x_timer.c ****         TIMER_CHCTL2(timer_periph) |= (uint32_t)((uint32_t)extpolarity << 4U);
 6248              		.loc 1 1900 0
 6249 0036 FB68     		ldr	r3, [r7, #12]
 6250 0038 2033     		adds	r3, r3, #32
 6251 003a 1A68     		ldr	r2, [r3]
 6252 003c FB88     		ldrh	r3, [r7, #6]
 6253 003e 1B01     		lsls	r3, r3, #4
 6254 0040 F968     		ldr	r1, [r7, #12]
 6255 0042 2031     		adds	r1, r1, #32
 6256 0044 1343     		orrs	r3, r3, r2
 6257 0046 0B60     		str	r3, [r1]
1901:C:/Users/49542/Desktop/GD32F30x_Demo_Suites_V2.0.0/GD32F30x_Demo_Suites_V2.0.0/GD32F30x_Firmware_Library/GD32F30x_standard_peripheral/Source\gd32f30x_timer.c ****         /* reset the CH1MS bit */
1902:C:/Users/49542/Desktop/GD32F30x_Demo_Suites_V2.0.0/GD32F30x_Demo_Suites_V2.0.0/GD32F30x_Firmware_Library/GD32F30x_standard_peripheral/Source\gd32f30x_timer.c ****         TIMER_CHCTL0(timer_periph) &= (~(uint32_t)TIMER_CHCTL0_CH1MS);
 6258              		.loc 1 1902 0
 6259 0048 FB68     		ldr	r3, [r7, #12]
 6260 004a 1833     		adds	r3, r3, #24
 6261 004c 1B68     		ldr	r3, [r3]
 6262 004e FA68     		ldr	r2, [r7, #12]
 6263 0050 1832     		adds	r2, r2, #24
 6264 0052 23F44073 		bic	r3, r3, #768
 6265 0056 1360     		str	r3, [r2]
1903:C:/Users/49542/Desktop/GD32F30x_Demo_Suites_V2.0.0/GD32F30x_Demo_Suites_V2.0.0/GD32F30x_Firmware_Library/GD32F30x_standard_peripheral/Source\gd32f30x_timer.c ****         /* set the CH1MS bit */
1904:C:/Users/49542/Desktop/GD32F30x_Demo_Suites_V2.0.0/GD32F30x_Demo_Suites_V2.0.0/GD32F30x_Firmware_Library/GD32F30x_standard_peripheral/Source\gd32f30x_timer.c ****         TIMER_CHCTL0(timer_periph) |= (uint32_t)((uint32_t)TIMER_IC_SELECTION_DIRECTTI << 8U);
 6266              		.loc 1 1904 0
 6267 0058 FB68     		ldr	r3, [r7, #12]
 6268 005a 1833     		adds	r3, r3, #24
 6269 005c 1B68     		ldr	r3, [r3]
 6270 005e FA68     		ldr	r2, [r7, #12]
 6271 0060 1832     		adds	r2, r2, #24
 6272 0062 43F48073 		orr	r3, r3, #256
 6273 0066 1360     		str	r3, [r2]
ARM GAS  C:\Users\49542\AppData\Local\Temp\ccx6VnNU.s 			page 144


1905:C:/Users/49542/Desktop/GD32F30x_Demo_Suites_V2.0.0/GD32F30x_Demo_Suites_V2.0.0/GD32F30x_Firmware_Library/GD32F30x_standard_peripheral/Source\gd32f30x_timer.c ****         /* reset the CH1CAPFLT bit */
1906:C:/Users/49542/Desktop/GD32F30x_Demo_Suites_V2.0.0/GD32F30x_Demo_Suites_V2.0.0/GD32F30x_Firmware_Library/GD32F30x_standard_peripheral/Source\gd32f30x_timer.c ****         TIMER_CHCTL0(timer_periph) &= (~(uint32_t)TIMER_CHCTL0_CH1CAPFLT);
 6274              		.loc 1 1906 0
 6275 0068 FB68     		ldr	r3, [r7, #12]
 6276 006a 1833     		adds	r3, r3, #24
 6277 006c 1B68     		ldr	r3, [r3]
 6278 006e FA68     		ldr	r2, [r7, #12]
 6279 0070 1832     		adds	r2, r2, #24
 6280 0072 23F47043 		bic	r3, r3, #61440
 6281 0076 1360     		str	r3, [r2]
1907:C:/Users/49542/Desktop/GD32F30x_Demo_Suites_V2.0.0/GD32F30x_Demo_Suites_V2.0.0/GD32F30x_Firmware_Library/GD32F30x_standard_peripheral/Source\gd32f30x_timer.c ****         /* set the CH1CAPFLT bit */
1908:C:/Users/49542/Desktop/GD32F30x_Demo_Suites_V2.0.0/GD32F30x_Demo_Suites_V2.0.0/GD32F30x_Firmware_Library/GD32F30x_standard_peripheral/Source\gd32f30x_timer.c ****         TIMER_CHCTL0(timer_periph) |= (uint32_t)(extfilter << 8U);
 6282              		.loc 1 1908 0
 6283 0078 FB68     		ldr	r3, [r7, #12]
 6284 007a 1833     		adds	r3, r3, #24
 6285 007c 1A68     		ldr	r2, [r3]
 6286 007e 3B68     		ldr	r3, [r7]
 6287 0080 1B02     		lsls	r3, r3, #8
 6288 0082 F968     		ldr	r1, [r7, #12]
 6289 0084 1831     		adds	r1, r1, #24
 6290 0086 1343     		orrs	r3, r3, r2
 6291 0088 0B60     		str	r3, [r1]
1909:C:/Users/49542/Desktop/GD32F30x_Demo_Suites_V2.0.0/GD32F30x_Demo_Suites_V2.0.0/GD32F30x_Firmware_Library/GD32F30x_standard_peripheral/Source\gd32f30x_timer.c ****         /* set the CH1EN bit */
1910:C:/Users/49542/Desktop/GD32F30x_Demo_Suites_V2.0.0/GD32F30x_Demo_Suites_V2.0.0/GD32F30x_Firmware_Library/GD32F30x_standard_peripheral/Source\gd32f30x_timer.c ****         TIMER_CHCTL2(timer_periph) |= (uint32_t)TIMER_CHCTL2_CH1EN;
 6292              		.loc 1 1910 0
 6293 008a FB68     		ldr	r3, [r7, #12]
 6294 008c 2033     		adds	r3, r3, #32
 6295 008e 1B68     		ldr	r3, [r3]
 6296 0090 FA68     		ldr	r2, [r7, #12]
 6297 0092 2032     		adds	r2, r2, #32
 6298 0094 43F01003 		orr	r3, r3, #16
 6299 0098 1360     		str	r3, [r2]
 6300 009a 40E0     		b	.L250
 6301              	.L249:
1911:C:/Users/49542/Desktop/GD32F30x_Demo_Suites_V2.0.0/GD32F30x_Demo_Suites_V2.0.0/GD32F30x_Firmware_Library/GD32F30x_standard_peripheral/Source\gd32f30x_timer.c ****     }else{
1912:C:/Users/49542/Desktop/GD32F30x_Demo_Suites_V2.0.0/GD32F30x_Demo_Suites_V2.0.0/GD32F30x_Firmware_Library/GD32F30x_standard_peripheral/Source\gd32f30x_timer.c ****         /* reset the CH0EN bit */
1913:C:/Users/49542/Desktop/GD32F30x_Demo_Suites_V2.0.0/GD32F30x_Demo_Suites_V2.0.0/GD32F30x_Firmware_Library/GD32F30x_standard_peripheral/Source\gd32f30x_timer.c ****         TIMER_CHCTL2(timer_periph) &= (~(uint32_t)TIMER_CHCTL2_CH0EN);
 6302              		.loc 1 1913 0
 6303 009c FB68     		ldr	r3, [r7, #12]
 6304 009e 2033     		adds	r3, r3, #32
 6305 00a0 1B68     		ldr	r3, [r3]
 6306 00a2 FA68     		ldr	r2, [r7, #12]
 6307 00a4 2032     		adds	r2, r2, #32
 6308 00a6 23F00103 		bic	r3, r3, #1
 6309 00aa 1360     		str	r3, [r2]
1914:C:/Users/49542/Desktop/GD32F30x_Demo_Suites_V2.0.0/GD32F30x_Demo_Suites_V2.0.0/GD32F30x_Firmware_Library/GD32F30x_standard_peripheral/Source\gd32f30x_timer.c ****         /* reset the CH0P and CH0NP bits */
1915:C:/Users/49542/Desktop/GD32F30x_Demo_Suites_V2.0.0/GD32F30x_Demo_Suites_V2.0.0/GD32F30x_Firmware_Library/GD32F30x_standard_peripheral/Source\gd32f30x_timer.c ****         TIMER_CHCTL2(timer_periph) &= (~(uint32_t)(TIMER_CHCTL2_CH0P|TIMER_CHCTL2_CH0NP));
 6310              		.loc 1 1915 0
 6311 00ac FB68     		ldr	r3, [r7, #12]
 6312 00ae 2033     		adds	r3, r3, #32
 6313 00b0 1B68     		ldr	r3, [r3]
 6314 00b2 FA68     		ldr	r2, [r7, #12]
 6315 00b4 2032     		adds	r2, r2, #32
 6316 00b6 23F00A03 		bic	r3, r3, #10
 6317 00ba 1360     		str	r3, [r2]
1916:C:/Users/49542/Desktop/GD32F30x_Demo_Suites_V2.0.0/GD32F30x_Demo_Suites_V2.0.0/GD32F30x_Firmware_Library/GD32F30x_standard_peripheral/Source\gd32f30x_timer.c ****         /* set the CH0P and CH0NP bits */
1917:C:/Users/49542/Desktop/GD32F30x_Demo_Suites_V2.0.0/GD32F30x_Demo_Suites_V2.0.0/GD32F30x_Firmware_Library/GD32F30x_standard_peripheral/Source\gd32f30x_timer.c ****         TIMER_CHCTL2(timer_periph) |= (uint32_t)extpolarity;
ARM GAS  C:\Users\49542\AppData\Local\Temp\ccx6VnNU.s 			page 145


 6318              		.loc 1 1917 0
 6319 00bc FB68     		ldr	r3, [r7, #12]
 6320 00be 2033     		adds	r3, r3, #32
 6321 00c0 1A68     		ldr	r2, [r3]
 6322 00c2 FB88     		ldrh	r3, [r7, #6]
 6323 00c4 F968     		ldr	r1, [r7, #12]
 6324 00c6 2031     		adds	r1, r1, #32
 6325 00c8 1343     		orrs	r3, r3, r2
 6326 00ca 0B60     		str	r3, [r1]
1918:C:/Users/49542/Desktop/GD32F30x_Demo_Suites_V2.0.0/GD32F30x_Demo_Suites_V2.0.0/GD32F30x_Firmware_Library/GD32F30x_standard_peripheral/Source\gd32f30x_timer.c ****         /* reset the CH0MS bit */
1919:C:/Users/49542/Desktop/GD32F30x_Demo_Suites_V2.0.0/GD32F30x_Demo_Suites_V2.0.0/GD32F30x_Firmware_Library/GD32F30x_standard_peripheral/Source\gd32f30x_timer.c ****         TIMER_CHCTL0(timer_periph) &= (~(uint32_t)TIMER_CHCTL0_CH0MS);
 6327              		.loc 1 1919 0
 6328 00cc FB68     		ldr	r3, [r7, #12]
 6329 00ce 1833     		adds	r3, r3, #24
 6330 00d0 1B68     		ldr	r3, [r3]
 6331 00d2 FA68     		ldr	r2, [r7, #12]
 6332 00d4 1832     		adds	r2, r2, #24
 6333 00d6 23F00303 		bic	r3, r3, #3
 6334 00da 1360     		str	r3, [r2]
1920:C:/Users/49542/Desktop/GD32F30x_Demo_Suites_V2.0.0/GD32F30x_Demo_Suites_V2.0.0/GD32F30x_Firmware_Library/GD32F30x_standard_peripheral/Source\gd32f30x_timer.c ****         /* set the CH0MS bit */
1921:C:/Users/49542/Desktop/GD32F30x_Demo_Suites_V2.0.0/GD32F30x_Demo_Suites_V2.0.0/GD32F30x_Firmware_Library/GD32F30x_standard_peripheral/Source\gd32f30x_timer.c ****         TIMER_CHCTL0(timer_periph) |= (uint32_t)TIMER_IC_SELECTION_DIRECTTI;
 6335              		.loc 1 1921 0
 6336 00dc FB68     		ldr	r3, [r7, #12]
 6337 00de 1833     		adds	r3, r3, #24
 6338 00e0 1B68     		ldr	r3, [r3]
 6339 00e2 FA68     		ldr	r2, [r7, #12]
 6340 00e4 1832     		adds	r2, r2, #24
 6341 00e6 43F00103 		orr	r3, r3, #1
 6342 00ea 1360     		str	r3, [r2]
1922:C:/Users/49542/Desktop/GD32F30x_Demo_Suites_V2.0.0/GD32F30x_Demo_Suites_V2.0.0/GD32F30x_Firmware_Library/GD32F30x_standard_peripheral/Source\gd32f30x_timer.c ****         /* reset the CH0CAPFLT bit */
1923:C:/Users/49542/Desktop/GD32F30x_Demo_Suites_V2.0.0/GD32F30x_Demo_Suites_V2.0.0/GD32F30x_Firmware_Library/GD32F30x_standard_peripheral/Source\gd32f30x_timer.c ****         TIMER_CHCTL0(timer_periph) &= (~(uint32_t)TIMER_CHCTL0_CH0CAPFLT);
 6343              		.loc 1 1923 0
 6344 00ec FB68     		ldr	r3, [r7, #12]
 6345 00ee 1833     		adds	r3, r3, #24
 6346 00f0 1B68     		ldr	r3, [r3]
 6347 00f2 FA68     		ldr	r2, [r7, #12]
 6348 00f4 1832     		adds	r2, r2, #24
 6349 00f6 23F0F003 		bic	r3, r3, #240
 6350 00fa 1360     		str	r3, [r2]
1924:C:/Users/49542/Desktop/GD32F30x_Demo_Suites_V2.0.0/GD32F30x_Demo_Suites_V2.0.0/GD32F30x_Firmware_Library/GD32F30x_standard_peripheral/Source\gd32f30x_timer.c ****         /* reset the CH0CAPFLT bit */
1925:C:/Users/49542/Desktop/GD32F30x_Demo_Suites_V2.0.0/GD32F30x_Demo_Suites_V2.0.0/GD32F30x_Firmware_Library/GD32F30x_standard_peripheral/Source\gd32f30x_timer.c ****         TIMER_CHCTL0(timer_periph) |= (uint32_t)extfilter;
 6351              		.loc 1 1925 0
 6352 00fc FB68     		ldr	r3, [r7, #12]
 6353 00fe 1833     		adds	r3, r3, #24
 6354 0100 1A68     		ldr	r2, [r3]
 6355 0102 FB68     		ldr	r3, [r7, #12]
 6356 0104 1833     		adds	r3, r3, #24
 6357 0106 1946     		mov	r1, r3
 6358 0108 3B68     		ldr	r3, [r7]
 6359 010a 1343     		orrs	r3, r3, r2
 6360 010c 0B60     		str	r3, [r1]
1926:C:/Users/49542/Desktop/GD32F30x_Demo_Suites_V2.0.0/GD32F30x_Demo_Suites_V2.0.0/GD32F30x_Firmware_Library/GD32F30x_standard_peripheral/Source\gd32f30x_timer.c ****         /* set the CH0EN bit */
1927:C:/Users/49542/Desktop/GD32F30x_Demo_Suites_V2.0.0/GD32F30x_Demo_Suites_V2.0.0/GD32F30x_Firmware_Library/GD32F30x_standard_peripheral/Source\gd32f30x_timer.c ****         TIMER_CHCTL2(timer_periph) |= (uint32_t)TIMER_CHCTL2_CH0EN;
 6361              		.loc 1 1927 0
 6362 010e FB68     		ldr	r3, [r7, #12]
 6363 0110 2033     		adds	r3, r3, #32
 6364 0112 1B68     		ldr	r3, [r3]
ARM GAS  C:\Users\49542\AppData\Local\Temp\ccx6VnNU.s 			page 146


 6365 0114 FA68     		ldr	r2, [r7, #12]
 6366 0116 2032     		adds	r2, r2, #32
 6367 0118 43F00103 		orr	r3, r3, #1
 6368 011c 1360     		str	r3, [r2]
 6369              	.L250:
1928:C:/Users/49542/Desktop/GD32F30x_Demo_Suites_V2.0.0/GD32F30x_Demo_Suites_V2.0.0/GD32F30x_Firmware_Library/GD32F30x_standard_peripheral/Source\gd32f30x_timer.c ****     }
1929:C:/Users/49542/Desktop/GD32F30x_Demo_Suites_V2.0.0/GD32F30x_Demo_Suites_V2.0.0/GD32F30x_Firmware_Library/GD32F30x_standard_peripheral/Source\gd32f30x_timer.c ****     /* select TIMER input trigger source */
1930:C:/Users/49542/Desktop/GD32F30x_Demo_Suites_V2.0.0/GD32F30x_Demo_Suites_V2.0.0/GD32F30x_Firmware_Library/GD32F30x_standard_peripheral/Source\gd32f30x_timer.c ****     timer_input_trigger_source_select(timer_periph,extrigger);
 6370              		.loc 1 1930 0
 6371 011e B968     		ldr	r1, [r7, #8]
 6372 0120 F868     		ldr	r0, [r7, #12]
 6373 0122 FFF7FEFF 		bl	timer_input_trigger_source_select
1931:C:/Users/49542/Desktop/GD32F30x_Demo_Suites_V2.0.0/GD32F30x_Demo_Suites_V2.0.0/GD32F30x_Firmware_Library/GD32F30x_standard_peripheral/Source\gd32f30x_timer.c ****     /* reset the SMC bit */
1932:C:/Users/49542/Desktop/GD32F30x_Demo_Suites_V2.0.0/GD32F30x_Demo_Suites_V2.0.0/GD32F30x_Firmware_Library/GD32F30x_standard_peripheral/Source\gd32f30x_timer.c ****     TIMER_SMCFG(timer_periph) &= (~(uint32_t)TIMER_SMCFG_SMC);
 6374              		.loc 1 1932 0
 6375 0126 FB68     		ldr	r3, [r7, #12]
 6376 0128 0833     		adds	r3, r3, #8
 6377 012a 1B68     		ldr	r3, [r3]
 6378 012c FA68     		ldr	r2, [r7, #12]
 6379 012e 0832     		adds	r2, r2, #8
 6380 0130 23F00703 		bic	r3, r3, #7
 6381 0134 1360     		str	r3, [r2]
1933:C:/Users/49542/Desktop/GD32F30x_Demo_Suites_V2.0.0/GD32F30x_Demo_Suites_V2.0.0/GD32F30x_Firmware_Library/GD32F30x_standard_peripheral/Source\gd32f30x_timer.c ****     /* set the SMC bit */
1934:C:/Users/49542/Desktop/GD32F30x_Demo_Suites_V2.0.0/GD32F30x_Demo_Suites_V2.0.0/GD32F30x_Firmware_Library/GD32F30x_standard_peripheral/Source\gd32f30x_timer.c ****     TIMER_SMCFG(timer_periph) |= (uint32_t)TIMER_SLAVE_MODE_EXTERNAL0;
 6382              		.loc 1 1934 0
 6383 0136 FB68     		ldr	r3, [r7, #12]
 6384 0138 0833     		adds	r3, r3, #8
 6385 013a 1B68     		ldr	r3, [r3]
 6386 013c FA68     		ldr	r2, [r7, #12]
 6387 013e 0832     		adds	r2, r2, #8
 6388 0140 43F00703 		orr	r3, r3, #7
 6389 0144 1360     		str	r3, [r2]
1935:C:/Users/49542/Desktop/GD32F30x_Demo_Suites_V2.0.0/GD32F30x_Demo_Suites_V2.0.0/GD32F30x_Firmware_Library/GD32F30x_standard_peripheral/Source\gd32f30x_timer.c **** }
 6390              		.loc 1 1935 0
 6391 0146 00BF     		nop
 6392 0148 1037     		adds	r7, r7, #16
 6393              	.LCFI389:
 6394              		.cfi_def_cfa_offset 8
 6395 014a BD46     		mov	sp, r7
 6396              	.LCFI390:
 6397              		.cfi_def_cfa_register 13
 6398              		@ sp needed
 6399 014c 80BD     		pop	{r7, pc}
 6400              		.cfi_endproc
 6401              	.LFE181:
 6403              		.section	.text.timer_external_clock_mode0_config,"ax",%progbits
 6404              		.align	1
 6405              		.global	timer_external_clock_mode0_config
 6406              		.syntax unified
 6407              		.thumb
 6408              		.thumb_func
 6409              		.fpu fpv4-sp-d16
 6411              	timer_external_clock_mode0_config:
 6412              	.LFB182:
1936:C:/Users/49542/Desktop/GD32F30x_Demo_Suites_V2.0.0/GD32F30x_Demo_Suites_V2.0.0/GD32F30x_Firmware_Library/GD32F30x_standard_peripheral/Source\gd32f30x_timer.c **** 
1937:C:/Users/49542/Desktop/GD32F30x_Demo_Suites_V2.0.0/GD32F30x_Demo_Suites_V2.0.0/GD32F30x_Firmware_Library/GD32F30x_standard_peripheral/Source\gd32f30x_timer.c **** /*!
1938:C:/Users/49542/Desktop/GD32F30x_Demo_Suites_V2.0.0/GD32F30x_Demo_Suites_V2.0.0/GD32F30x_Firmware_Library/GD32F30x_standard_peripheral/Source\gd32f30x_timer.c ****     \brief      configure TIMER the external clock mode0
ARM GAS  C:\Users\49542\AppData\Local\Temp\ccx6VnNU.s 			page 147


1939:C:/Users/49542/Desktop/GD32F30x_Demo_Suites_V2.0.0/GD32F30x_Demo_Suites_V2.0.0/GD32F30x_Firmware_Library/GD32F30x_standard_peripheral/Source\gd32f30x_timer.c ****     \param[in]  timer_periph: TIMERx(x=0..4,7,8,11)
1940:C:/Users/49542/Desktop/GD32F30x_Demo_Suites_V2.0.0/GD32F30x_Demo_Suites_V2.0.0/GD32F30x_Firmware_Library/GD32F30x_standard_peripheral/Source\gd32f30x_timer.c ****     \param[in]  extprescaler: 
1941:C:/Users/49542/Desktop/GD32F30x_Demo_Suites_V2.0.0/GD32F30x_Demo_Suites_V2.0.0/GD32F30x_Firmware_Library/GD32F30x_standard_peripheral/Source\gd32f30x_timer.c ****                 only one parameter can be selected which is shown as below:
1942:C:/Users/49542/Desktop/GD32F30x_Demo_Suites_V2.0.0/GD32F30x_Demo_Suites_V2.0.0/GD32F30x_Firmware_Library/GD32F30x_standard_peripheral/Source\gd32f30x_timer.c ****       \arg        TIMER_EXT_TRI_PSC_OFF: no divided
1943:C:/Users/49542/Desktop/GD32F30x_Demo_Suites_V2.0.0/GD32F30x_Demo_Suites_V2.0.0/GD32F30x_Firmware_Library/GD32F30x_standard_peripheral/Source\gd32f30x_timer.c ****       \arg        TIMER_EXT_TRI_PSC_DIV2: divided by 2
1944:C:/Users/49542/Desktop/GD32F30x_Demo_Suites_V2.0.0/GD32F30x_Demo_Suites_V2.0.0/GD32F30x_Firmware_Library/GD32F30x_standard_peripheral/Source\gd32f30x_timer.c ****       \arg        TIMER_EXT_TRI_PSC_DIV4: divided by 4
1945:C:/Users/49542/Desktop/GD32F30x_Demo_Suites_V2.0.0/GD32F30x_Demo_Suites_V2.0.0/GD32F30x_Firmware_Library/GD32F30x_standard_peripheral/Source\gd32f30x_timer.c ****       \arg        TIMER_EXT_TRI_PSC_DIV8: divided by 8
1946:C:/Users/49542/Desktop/GD32F30x_Demo_Suites_V2.0.0/GD32F30x_Demo_Suites_V2.0.0/GD32F30x_Firmware_Library/GD32F30x_standard_peripheral/Source\gd32f30x_timer.c ****     \param[in]  extpolarity: 
1947:C:/Users/49542/Desktop/GD32F30x_Demo_Suites_V2.0.0/GD32F30x_Demo_Suites_V2.0.0/GD32F30x_Firmware_Library/GD32F30x_standard_peripheral/Source\gd32f30x_timer.c ****                 only one parameter can be selected which is shown as below:
1948:C:/Users/49542/Desktop/GD32F30x_Demo_Suites_V2.0.0/GD32F30x_Demo_Suites_V2.0.0/GD32F30x_Firmware_Library/GD32F30x_standard_peripheral/Source\gd32f30x_timer.c ****       \arg        TIMER_ETP_FALLING: active low or falling edge active
1949:C:/Users/49542/Desktop/GD32F30x_Demo_Suites_V2.0.0/GD32F30x_Demo_Suites_V2.0.0/GD32F30x_Firmware_Library/GD32F30x_standard_peripheral/Source\gd32f30x_timer.c ****       \arg        TIMER_ETP_RISING: active high or rising edge active
1950:C:/Users/49542/Desktop/GD32F30x_Demo_Suites_V2.0.0/GD32F30x_Demo_Suites_V2.0.0/GD32F30x_Firmware_Library/GD32F30x_standard_peripheral/Source\gd32f30x_timer.c ****     \param[in]  extfilter: a value between 0 and 15
1951:C:/Users/49542/Desktop/GD32F30x_Demo_Suites_V2.0.0/GD32F30x_Demo_Suites_V2.0.0/GD32F30x_Firmware_Library/GD32F30x_standard_peripheral/Source\gd32f30x_timer.c ****     \param[out] none
1952:C:/Users/49542/Desktop/GD32F30x_Demo_Suites_V2.0.0/GD32F30x_Demo_Suites_V2.0.0/GD32F30x_Firmware_Library/GD32F30x_standard_peripheral/Source\gd32f30x_timer.c ****     \retval     none
1953:C:/Users/49542/Desktop/GD32F30x_Demo_Suites_V2.0.0/GD32F30x_Demo_Suites_V2.0.0/GD32F30x_Firmware_Library/GD32F30x_standard_peripheral/Source\gd32f30x_timer.c **** */
1954:C:/Users/49542/Desktop/GD32F30x_Demo_Suites_V2.0.0/GD32F30x_Demo_Suites_V2.0.0/GD32F30x_Firmware_Library/GD32F30x_standard_peripheral/Source\gd32f30x_timer.c **** void timer_external_clock_mode0_config(uint32_t timer_periph, uint32_t extprescaler,
1955:C:/Users/49542/Desktop/GD32F30x_Demo_Suites_V2.0.0/GD32F30x_Demo_Suites_V2.0.0/GD32F30x_Firmware_Library/GD32F30x_standard_peripheral/Source\gd32f30x_timer.c ****                                        uint32_t extpolarity, uint32_t extfilter)
1956:C:/Users/49542/Desktop/GD32F30x_Demo_Suites_V2.0.0/GD32F30x_Demo_Suites_V2.0.0/GD32F30x_Firmware_Library/GD32F30x_standard_peripheral/Source\gd32f30x_timer.c **** {
 6413              		.loc 1 1956 0
 6414              		.cfi_startproc
 6415              		@ args = 0, pretend = 0, frame = 16
 6416              		@ frame_needed = 1, uses_anonymous_args = 0
 6417 0000 80B5     		push	{r7, lr}
 6418              	.LCFI391:
 6419              		.cfi_def_cfa_offset 8
 6420              		.cfi_offset 7, -8
 6421              		.cfi_offset 14, -4
 6422 0002 84B0     		sub	sp, sp, #16
 6423              	.LCFI392:
 6424              		.cfi_def_cfa_offset 24
 6425 0004 00AF     		add	r7, sp, #0
 6426              	.LCFI393:
 6427              		.cfi_def_cfa_register 7
 6428 0006 F860     		str	r0, [r7, #12]
 6429 0008 B960     		str	r1, [r7, #8]
 6430 000a 7A60     		str	r2, [r7, #4]
 6431 000c 3B60     		str	r3, [r7]
1957:C:/Users/49542/Desktop/GD32F30x_Demo_Suites_V2.0.0/GD32F30x_Demo_Suites_V2.0.0/GD32F30x_Firmware_Library/GD32F30x_standard_peripheral/Source\gd32f30x_timer.c ****     /* configure TIMER external trigger input */
1958:C:/Users/49542/Desktop/GD32F30x_Demo_Suites_V2.0.0/GD32F30x_Demo_Suites_V2.0.0/GD32F30x_Firmware_Library/GD32F30x_standard_peripheral/Source\gd32f30x_timer.c ****     timer_external_trigger_config(timer_periph, extprescaler, extpolarity, extfilter);
 6432              		.loc 1 1958 0
 6433 000e 3B68     		ldr	r3, [r7]
 6434 0010 7A68     		ldr	r2, [r7, #4]
 6435 0012 B968     		ldr	r1, [r7, #8]
 6436 0014 F868     		ldr	r0, [r7, #12]
 6437 0016 FFF7FEFF 		bl	timer_external_trigger_config
1959:C:/Users/49542/Desktop/GD32F30x_Demo_Suites_V2.0.0/GD32F30x_Demo_Suites_V2.0.0/GD32F30x_Firmware_Library/GD32F30x_standard_peripheral/Source\gd32f30x_timer.c **** 
1960:C:/Users/49542/Desktop/GD32F30x_Demo_Suites_V2.0.0/GD32F30x_Demo_Suites_V2.0.0/GD32F30x_Firmware_Library/GD32F30x_standard_peripheral/Source\gd32f30x_timer.c ****     /* reset the SMC bit,TRGS bit */
1961:C:/Users/49542/Desktop/GD32F30x_Demo_Suites_V2.0.0/GD32F30x_Demo_Suites_V2.0.0/GD32F30x_Firmware_Library/GD32F30x_standard_peripheral/Source\gd32f30x_timer.c ****     TIMER_SMCFG(timer_periph) &= (~(uint32_t)(TIMER_SMCFG_SMC | TIMER_SMCFG_TRGS));
 6438              		.loc 1 1961 0
 6439 001a FB68     		ldr	r3, [r7, #12]
 6440 001c 0833     		adds	r3, r3, #8
 6441 001e 1B68     		ldr	r3, [r3]
 6442 0020 FA68     		ldr	r2, [r7, #12]
 6443 0022 0832     		adds	r2, r2, #8
 6444 0024 23F07703 		bic	r3, r3, #119
 6445 0028 1360     		str	r3, [r2]
1962:C:/Users/49542/Desktop/GD32F30x_Demo_Suites_V2.0.0/GD32F30x_Demo_Suites_V2.0.0/GD32F30x_Firmware_Library/GD32F30x_standard_peripheral/Source\gd32f30x_timer.c ****     /* set the SMC bit,TRGS bit */
ARM GAS  C:\Users\49542\AppData\Local\Temp\ccx6VnNU.s 			page 148


1963:C:/Users/49542/Desktop/GD32F30x_Demo_Suites_V2.0.0/GD32F30x_Demo_Suites_V2.0.0/GD32F30x_Firmware_Library/GD32F30x_standard_peripheral/Source\gd32f30x_timer.c ****     TIMER_SMCFG(timer_periph) |= (uint32_t)(TIMER_SLAVE_MODE_EXTERNAL0 | TIMER_SMCFG_TRGSEL_ETIFP);
 6446              		.loc 1 1963 0
 6447 002a FB68     		ldr	r3, [r7, #12]
 6448 002c 0833     		adds	r3, r3, #8
 6449 002e 1B68     		ldr	r3, [r3]
 6450 0030 FA68     		ldr	r2, [r7, #12]
 6451 0032 0832     		adds	r2, r2, #8
 6452 0034 43F07703 		orr	r3, r3, #119
 6453 0038 1360     		str	r3, [r2]
1964:C:/Users/49542/Desktop/GD32F30x_Demo_Suites_V2.0.0/GD32F30x_Demo_Suites_V2.0.0/GD32F30x_Firmware_Library/GD32F30x_standard_peripheral/Source\gd32f30x_timer.c **** }
 6454              		.loc 1 1964 0
 6455 003a 00BF     		nop
 6456 003c 1037     		adds	r7, r7, #16
 6457              	.LCFI394:
 6458              		.cfi_def_cfa_offset 8
 6459 003e BD46     		mov	sp, r7
 6460              	.LCFI395:
 6461              		.cfi_def_cfa_register 13
 6462              		@ sp needed
 6463 0040 80BD     		pop	{r7, pc}
 6464              		.cfi_endproc
 6465              	.LFE182:
 6467              		.section	.text.timer_external_clock_mode1_config,"ax",%progbits
 6468              		.align	1
 6469              		.global	timer_external_clock_mode1_config
 6470              		.syntax unified
 6471              		.thumb
 6472              		.thumb_func
 6473              		.fpu fpv4-sp-d16
 6475              	timer_external_clock_mode1_config:
 6476              	.LFB183:
1965:C:/Users/49542/Desktop/GD32F30x_Demo_Suites_V2.0.0/GD32F30x_Demo_Suites_V2.0.0/GD32F30x_Firmware_Library/GD32F30x_standard_peripheral/Source\gd32f30x_timer.c **** 
1966:C:/Users/49542/Desktop/GD32F30x_Demo_Suites_V2.0.0/GD32F30x_Demo_Suites_V2.0.0/GD32F30x_Firmware_Library/GD32F30x_standard_peripheral/Source\gd32f30x_timer.c **** /*!
1967:C:/Users/49542/Desktop/GD32F30x_Demo_Suites_V2.0.0/GD32F30x_Demo_Suites_V2.0.0/GD32F30x_Firmware_Library/GD32F30x_standard_peripheral/Source\gd32f30x_timer.c ****     \brief      configure TIMER the external clock mode1
1968:C:/Users/49542/Desktop/GD32F30x_Demo_Suites_V2.0.0/GD32F30x_Demo_Suites_V2.0.0/GD32F30x_Firmware_Library/GD32F30x_standard_peripheral/Source\gd32f30x_timer.c ****     \param[in]  timer_periph: TIMERx(x=0..4,7)
1969:C:/Users/49542/Desktop/GD32F30x_Demo_Suites_V2.0.0/GD32F30x_Demo_Suites_V2.0.0/GD32F30x_Firmware_Library/GD32F30x_standard_peripheral/Source\gd32f30x_timer.c ****     \param[in]  extprescaler: 
1970:C:/Users/49542/Desktop/GD32F30x_Demo_Suites_V2.0.0/GD32F30x_Demo_Suites_V2.0.0/GD32F30x_Firmware_Library/GD32F30x_standard_peripheral/Source\gd32f30x_timer.c ****                 only one parameter can be selected which is shown as below:
1971:C:/Users/49542/Desktop/GD32F30x_Demo_Suites_V2.0.0/GD32F30x_Demo_Suites_V2.0.0/GD32F30x_Firmware_Library/GD32F30x_standard_peripheral/Source\gd32f30x_timer.c ****       \arg        TIMER_EXT_TRI_PSC_OFF: no divided
1972:C:/Users/49542/Desktop/GD32F30x_Demo_Suites_V2.0.0/GD32F30x_Demo_Suites_V2.0.0/GD32F30x_Firmware_Library/GD32F30x_standard_peripheral/Source\gd32f30x_timer.c ****       \arg        TIMER_EXT_TRI_PSC_DIV2: divided by 2
1973:C:/Users/49542/Desktop/GD32F30x_Demo_Suites_V2.0.0/GD32F30x_Demo_Suites_V2.0.0/GD32F30x_Firmware_Library/GD32F30x_standard_peripheral/Source\gd32f30x_timer.c ****       \arg        TIMER_EXT_TRI_PSC_DIV4: divided by 4
1974:C:/Users/49542/Desktop/GD32F30x_Demo_Suites_V2.0.0/GD32F30x_Demo_Suites_V2.0.0/GD32F30x_Firmware_Library/GD32F30x_standard_peripheral/Source\gd32f30x_timer.c ****       \arg        TIMER_EXT_TRI_PSC_DIV8: divided by 8
1975:C:/Users/49542/Desktop/GD32F30x_Demo_Suites_V2.0.0/GD32F30x_Demo_Suites_V2.0.0/GD32F30x_Firmware_Library/GD32F30x_standard_peripheral/Source\gd32f30x_timer.c ****     \param[in]  extpolarity: 
1976:C:/Users/49542/Desktop/GD32F30x_Demo_Suites_V2.0.0/GD32F30x_Demo_Suites_V2.0.0/GD32F30x_Firmware_Library/GD32F30x_standard_peripheral/Source\gd32f30x_timer.c ****                 only one parameter can be selected which is shown as below:
1977:C:/Users/49542/Desktop/GD32F30x_Demo_Suites_V2.0.0/GD32F30x_Demo_Suites_V2.0.0/GD32F30x_Firmware_Library/GD32F30x_standard_peripheral/Source\gd32f30x_timer.c ****       \arg        TIMER_ETP_FALLING: active low or falling edge active
1978:C:/Users/49542/Desktop/GD32F30x_Demo_Suites_V2.0.0/GD32F30x_Demo_Suites_V2.0.0/GD32F30x_Firmware_Library/GD32F30x_standard_peripheral/Source\gd32f30x_timer.c ****       \arg        TIMER_ETP_RISING: active high or rising edge active
1979:C:/Users/49542/Desktop/GD32F30x_Demo_Suites_V2.0.0/GD32F30x_Demo_Suites_V2.0.0/GD32F30x_Firmware_Library/GD32F30x_standard_peripheral/Source\gd32f30x_timer.c ****     \param[in]  extfilter: a value between 0 and 15
1980:C:/Users/49542/Desktop/GD32F30x_Demo_Suites_V2.0.0/GD32F30x_Demo_Suites_V2.0.0/GD32F30x_Firmware_Library/GD32F30x_standard_peripheral/Source\gd32f30x_timer.c ****     \param[out] none
1981:C:/Users/49542/Desktop/GD32F30x_Demo_Suites_V2.0.0/GD32F30x_Demo_Suites_V2.0.0/GD32F30x_Firmware_Library/GD32F30x_standard_peripheral/Source\gd32f30x_timer.c ****     \retval     none
1982:C:/Users/49542/Desktop/GD32F30x_Demo_Suites_V2.0.0/GD32F30x_Demo_Suites_V2.0.0/GD32F30x_Firmware_Library/GD32F30x_standard_peripheral/Source\gd32f30x_timer.c **** */
1983:C:/Users/49542/Desktop/GD32F30x_Demo_Suites_V2.0.0/GD32F30x_Demo_Suites_V2.0.0/GD32F30x_Firmware_Library/GD32F30x_standard_peripheral/Source\gd32f30x_timer.c **** void timer_external_clock_mode1_config(uint32_t timer_periph, uint32_t extprescaler,
1984:C:/Users/49542/Desktop/GD32F30x_Demo_Suites_V2.0.0/GD32F30x_Demo_Suites_V2.0.0/GD32F30x_Firmware_Library/GD32F30x_standard_peripheral/Source\gd32f30x_timer.c ****                                        uint32_t extpolarity, uint32_t extfilter)
1985:C:/Users/49542/Desktop/GD32F30x_Demo_Suites_V2.0.0/GD32F30x_Demo_Suites_V2.0.0/GD32F30x_Firmware_Library/GD32F30x_standard_peripheral/Source\gd32f30x_timer.c **** {
 6477              		.loc 1 1985 0
 6478              		.cfi_startproc
 6479              		@ args = 0, pretend = 0, frame = 16
 6480              		@ frame_needed = 1, uses_anonymous_args = 0
 6481 0000 80B5     		push	{r7, lr}
ARM GAS  C:\Users\49542\AppData\Local\Temp\ccx6VnNU.s 			page 149


 6482              	.LCFI396:
 6483              		.cfi_def_cfa_offset 8
 6484              		.cfi_offset 7, -8
 6485              		.cfi_offset 14, -4
 6486 0002 84B0     		sub	sp, sp, #16
 6487              	.LCFI397:
 6488              		.cfi_def_cfa_offset 24
 6489 0004 00AF     		add	r7, sp, #0
 6490              	.LCFI398:
 6491              		.cfi_def_cfa_register 7
 6492 0006 F860     		str	r0, [r7, #12]
 6493 0008 B960     		str	r1, [r7, #8]
 6494 000a 7A60     		str	r2, [r7, #4]
 6495 000c 3B60     		str	r3, [r7]
1986:C:/Users/49542/Desktop/GD32F30x_Demo_Suites_V2.0.0/GD32F30x_Demo_Suites_V2.0.0/GD32F30x_Firmware_Library/GD32F30x_standard_peripheral/Source\gd32f30x_timer.c ****     /* configure TIMER external trigger input */
1987:C:/Users/49542/Desktop/GD32F30x_Demo_Suites_V2.0.0/GD32F30x_Demo_Suites_V2.0.0/GD32F30x_Firmware_Library/GD32F30x_standard_peripheral/Source\gd32f30x_timer.c ****     timer_external_trigger_config(timer_periph, extprescaler, extpolarity, extfilter);
 6496              		.loc 1 1987 0
 6497 000e 3B68     		ldr	r3, [r7]
 6498 0010 7A68     		ldr	r2, [r7, #4]
 6499 0012 B968     		ldr	r1, [r7, #8]
 6500 0014 F868     		ldr	r0, [r7, #12]
 6501 0016 FFF7FEFF 		bl	timer_external_trigger_config
1988:C:/Users/49542/Desktop/GD32F30x_Demo_Suites_V2.0.0/GD32F30x_Demo_Suites_V2.0.0/GD32F30x_Firmware_Library/GD32F30x_standard_peripheral/Source\gd32f30x_timer.c **** 
1989:C:/Users/49542/Desktop/GD32F30x_Demo_Suites_V2.0.0/GD32F30x_Demo_Suites_V2.0.0/GD32F30x_Firmware_Library/GD32F30x_standard_peripheral/Source\gd32f30x_timer.c ****     TIMER_SMCFG(timer_periph) |= (uint32_t)TIMER_SMCFG_SMC1;
 6502              		.loc 1 1989 0
 6503 001a FB68     		ldr	r3, [r7, #12]
 6504 001c 0833     		adds	r3, r3, #8
 6505 001e 1B68     		ldr	r3, [r3]
 6506 0020 FA68     		ldr	r2, [r7, #12]
 6507 0022 0832     		adds	r2, r2, #8
 6508 0024 43F48043 		orr	r3, r3, #16384
 6509 0028 1360     		str	r3, [r2]
1990:C:/Users/49542/Desktop/GD32F30x_Demo_Suites_V2.0.0/GD32F30x_Demo_Suites_V2.0.0/GD32F30x_Firmware_Library/GD32F30x_standard_peripheral/Source\gd32f30x_timer.c **** }
 6510              		.loc 1 1990 0
 6511 002a 00BF     		nop
 6512 002c 1037     		adds	r7, r7, #16
 6513              	.LCFI399:
 6514              		.cfi_def_cfa_offset 8
 6515 002e BD46     		mov	sp, r7
 6516              	.LCFI400:
 6517              		.cfi_def_cfa_register 13
 6518              		@ sp needed
 6519 0030 80BD     		pop	{r7, pc}
 6520              		.cfi_endproc
 6521              	.LFE183:
 6523              		.section	.text.timer_external_clock_mode1_disable,"ax",%progbits
 6524              		.align	1
 6525              		.global	timer_external_clock_mode1_disable
 6526              		.syntax unified
 6527              		.thumb
 6528              		.thumb_func
 6529              		.fpu fpv4-sp-d16
 6531              	timer_external_clock_mode1_disable:
 6532              	.LFB184:
1991:C:/Users/49542/Desktop/GD32F30x_Demo_Suites_V2.0.0/GD32F30x_Demo_Suites_V2.0.0/GD32F30x_Firmware_Library/GD32F30x_standard_peripheral/Source\gd32f30x_timer.c **** 
1992:C:/Users/49542/Desktop/GD32F30x_Demo_Suites_V2.0.0/GD32F30x_Demo_Suites_V2.0.0/GD32F30x_Firmware_Library/GD32F30x_standard_peripheral/Source\gd32f30x_timer.c **** /*!
1993:C:/Users/49542/Desktop/GD32F30x_Demo_Suites_V2.0.0/GD32F30x_Demo_Suites_V2.0.0/GD32F30x_Firmware_Library/GD32F30x_standard_peripheral/Source\gd32f30x_timer.c ****     \brief      disable TIMER the external clock mode1
ARM GAS  C:\Users\49542\AppData\Local\Temp\ccx6VnNU.s 			page 150


1994:C:/Users/49542/Desktop/GD32F30x_Demo_Suites_V2.0.0/GD32F30x_Demo_Suites_V2.0.0/GD32F30x_Firmware_Library/GD32F30x_standard_peripheral/Source\gd32f30x_timer.c ****     \param[in]  timer_periph: TIMERx(x=0..4,7)
1995:C:/Users/49542/Desktop/GD32F30x_Demo_Suites_V2.0.0/GD32F30x_Demo_Suites_V2.0.0/GD32F30x_Firmware_Library/GD32F30x_standard_peripheral/Source\gd32f30x_timer.c ****     \param[out] none
1996:C:/Users/49542/Desktop/GD32F30x_Demo_Suites_V2.0.0/GD32F30x_Demo_Suites_V2.0.0/GD32F30x_Firmware_Library/GD32F30x_standard_peripheral/Source\gd32f30x_timer.c ****     \retval     none
1997:C:/Users/49542/Desktop/GD32F30x_Demo_Suites_V2.0.0/GD32F30x_Demo_Suites_V2.0.0/GD32F30x_Firmware_Library/GD32F30x_standard_peripheral/Source\gd32f30x_timer.c **** */
1998:C:/Users/49542/Desktop/GD32F30x_Demo_Suites_V2.0.0/GD32F30x_Demo_Suites_V2.0.0/GD32F30x_Firmware_Library/GD32F30x_standard_peripheral/Source\gd32f30x_timer.c **** void timer_external_clock_mode1_disable(uint32_t timer_periph)
1999:C:/Users/49542/Desktop/GD32F30x_Demo_Suites_V2.0.0/GD32F30x_Demo_Suites_V2.0.0/GD32F30x_Firmware_Library/GD32F30x_standard_peripheral/Source\gd32f30x_timer.c **** {
 6533              		.loc 1 1999 0
 6534              		.cfi_startproc
 6535              		@ args = 0, pretend = 0, frame = 8
 6536              		@ frame_needed = 1, uses_anonymous_args = 0
 6537              		@ link register save eliminated.
 6538 0000 80B4     		push	{r7}
 6539              	.LCFI401:
 6540              		.cfi_def_cfa_offset 4
 6541              		.cfi_offset 7, -4
 6542 0002 83B0     		sub	sp, sp, #12
 6543              	.LCFI402:
 6544              		.cfi_def_cfa_offset 16
 6545 0004 00AF     		add	r7, sp, #0
 6546              	.LCFI403:
 6547              		.cfi_def_cfa_register 7
 6548 0006 7860     		str	r0, [r7, #4]
2000:C:/Users/49542/Desktop/GD32F30x_Demo_Suites_V2.0.0/GD32F30x_Demo_Suites_V2.0.0/GD32F30x_Firmware_Library/GD32F30x_standard_peripheral/Source\gd32f30x_timer.c ****     TIMER_SMCFG(timer_periph) &= ~(uint32_t)TIMER_SMCFG_SMC1;
 6549              		.loc 1 2000 0
 6550 0008 7B68     		ldr	r3, [r7, #4]
 6551 000a 0833     		adds	r3, r3, #8
 6552 000c 1B68     		ldr	r3, [r3]
 6553 000e 7A68     		ldr	r2, [r7, #4]
 6554 0010 0832     		adds	r2, r2, #8
 6555 0012 23F48043 		bic	r3, r3, #16384
 6556 0016 1360     		str	r3, [r2]
2001:C:/Users/49542/Desktop/GD32F30x_Demo_Suites_V2.0.0/GD32F30x_Demo_Suites_V2.0.0/GD32F30x_Firmware_Library/GD32F30x_standard_peripheral/Source\gd32f30x_timer.c **** }
 6557              		.loc 1 2001 0
 6558 0018 00BF     		nop
 6559 001a 0C37     		adds	r7, r7, #12
 6560              	.LCFI404:
 6561              		.cfi_def_cfa_offset 4
 6562 001c BD46     		mov	sp, r7
 6563              	.LCFI405:
 6564              		.cfi_def_cfa_register 13
 6565              		@ sp needed
 6566 001e 5DF8047B 		ldr	r7, [sp], #4
 6567              	.LCFI406:
 6568              		.cfi_restore 7
 6569              		.cfi_def_cfa_offset 0
 6570 0022 7047     		bx	lr
 6571              		.cfi_endproc
 6572              	.LFE184:
 6574              		.section	.text.timer_write_chxval_register_config,"ax",%progbits
 6575              		.align	1
 6576              		.global	timer_write_chxval_register_config
 6577              		.syntax unified
 6578              		.thumb
 6579              		.thumb_func
 6580              		.fpu fpv4-sp-d16
 6582              	timer_write_chxval_register_config:
 6583              	.LFB185:
ARM GAS  C:\Users\49542\AppData\Local\Temp\ccx6VnNU.s 			page 151


2002:C:/Users/49542/Desktop/GD32F30x_Demo_Suites_V2.0.0/GD32F30x_Demo_Suites_V2.0.0/GD32F30x_Firmware_Library/GD32F30x_standard_peripheral/Source\gd32f30x_timer.c **** 
2003:C:/Users/49542/Desktop/GD32F30x_Demo_Suites_V2.0.0/GD32F30x_Demo_Suites_V2.0.0/GD32F30x_Firmware_Library/GD32F30x_standard_peripheral/Source\gd32f30x_timer.c **** /*!
2004:C:/Users/49542/Desktop/GD32F30x_Demo_Suites_V2.0.0/GD32F30x_Demo_Suites_V2.0.0/GD32F30x_Firmware_Library/GD32F30x_standard_peripheral/Source\gd32f30x_timer.c ****     \brief      configure TIMER write CHxVAL register selection
2005:C:/Users/49542/Desktop/GD32F30x_Demo_Suites_V2.0.0/GD32F30x_Demo_Suites_V2.0.0/GD32F30x_Firmware_Library/GD32F30x_standard_peripheral/Source\gd32f30x_timer.c ****     \param[in]  timer_periph: TIMERx(x=0..4,7..13)
2006:C:/Users/49542/Desktop/GD32F30x_Demo_Suites_V2.0.0/GD32F30x_Demo_Suites_V2.0.0/GD32F30x_Firmware_Library/GD32F30x_standard_peripheral/Source\gd32f30x_timer.c ****     \param[in]  ccsel:
2007:C:/Users/49542/Desktop/GD32F30x_Demo_Suites_V2.0.0/GD32F30x_Demo_Suites_V2.0.0/GD32F30x_Firmware_Library/GD32F30x_standard_peripheral/Source\gd32f30x_timer.c ****                 only one parameter can be selected which is shown as below:
2008:C:/Users/49542/Desktop/GD32F30x_Demo_Suites_V2.0.0/GD32F30x_Demo_Suites_V2.0.0/GD32F30x_Firmware_Library/GD32F30x_standard_peripheral/Source\gd32f30x_timer.c ****       \arg        TIMER_CCSEL_DISABLE: no effect
2009:C:/Users/49542/Desktop/GD32F30x_Demo_Suites_V2.0.0/GD32F30x_Demo_Suites_V2.0.0/GD32F30x_Firmware_Library/GD32F30x_standard_peripheral/Source\gd32f30x_timer.c ****       \arg        TIMER_CCSEL_ENABLE: when write the CHxVAL register, if the write value is same as
2010:C:/Users/49542/Desktop/GD32F30x_Demo_Suites_V2.0.0/GD32F30x_Demo_Suites_V2.0.0/GD32F30x_Firmware_Library/GD32F30x_standard_peripheral/Source\gd32f30x_timer.c ****     \param[out] none
2011:C:/Users/49542/Desktop/GD32F30x_Demo_Suites_V2.0.0/GD32F30x_Demo_Suites_V2.0.0/GD32F30x_Firmware_Library/GD32F30x_standard_peripheral/Source\gd32f30x_timer.c ****     \retval     none
2012:C:/Users/49542/Desktop/GD32F30x_Demo_Suites_V2.0.0/GD32F30x_Demo_Suites_V2.0.0/GD32F30x_Firmware_Library/GD32F30x_standard_peripheral/Source\gd32f30x_timer.c **** */
2013:C:/Users/49542/Desktop/GD32F30x_Demo_Suites_V2.0.0/GD32F30x_Demo_Suites_V2.0.0/GD32F30x_Firmware_Library/GD32F30x_standard_peripheral/Source\gd32f30x_timer.c **** void timer_write_chxval_register_config(uint32_t timer_periph, uint16_t ccsel)
2014:C:/Users/49542/Desktop/GD32F30x_Demo_Suites_V2.0.0/GD32F30x_Demo_Suites_V2.0.0/GD32F30x_Firmware_Library/GD32F30x_standard_peripheral/Source\gd32f30x_timer.c **** {
 6584              		.loc 1 2014 0
 6585              		.cfi_startproc
 6586              		@ args = 0, pretend = 0, frame = 8
 6587              		@ frame_needed = 1, uses_anonymous_args = 0
 6588              		@ link register save eliminated.
 6589 0000 80B4     		push	{r7}
 6590              	.LCFI407:
 6591              		.cfi_def_cfa_offset 4
 6592              		.cfi_offset 7, -4
 6593 0002 83B0     		sub	sp, sp, #12
 6594              	.LCFI408:
 6595              		.cfi_def_cfa_offset 16
 6596 0004 00AF     		add	r7, sp, #0
 6597              	.LCFI409:
 6598              		.cfi_def_cfa_register 7
 6599 0006 7860     		str	r0, [r7, #4]
 6600 0008 0B46     		mov	r3, r1
 6601 000a 7B80     		strh	r3, [r7, #2]	@ movhi
2015:C:/Users/49542/Desktop/GD32F30x_Demo_Suites_V2.0.0/GD32F30x_Demo_Suites_V2.0.0/GD32F30x_Firmware_Library/GD32F30x_standard_peripheral/Source\gd32f30x_timer.c ****     if(TIMER_CHVSEL_ENABLE == ccsel){
 6602              		.loc 1 2015 0
 6603 000c 7B88     		ldrh	r3, [r7, #2]
 6604 000e 022B     		cmp	r3, #2
 6605 0010 08D1     		bne	.L255
2016:C:/Users/49542/Desktop/GD32F30x_Demo_Suites_V2.0.0/GD32F30x_Demo_Suites_V2.0.0/GD32F30x_Firmware_Library/GD32F30x_standard_peripheral/Source\gd32f30x_timer.c ****         TIMER_CFG(timer_periph) |= (uint32_t)TIMER_CFG_CHVSEL;
 6606              		.loc 1 2016 0
 6607 0012 7B68     		ldr	r3, [r7, #4]
 6608 0014 FC33     		adds	r3, r3, #252
 6609 0016 1B68     		ldr	r3, [r3]
 6610 0018 7A68     		ldr	r2, [r7, #4]
 6611 001a FC32     		adds	r2, r2, #252
 6612 001c 43F00203 		orr	r3, r3, #2
 6613 0020 1360     		str	r3, [r2]
2017:C:/Users/49542/Desktop/GD32F30x_Demo_Suites_V2.0.0/GD32F30x_Demo_Suites_V2.0.0/GD32F30x_Firmware_Library/GD32F30x_standard_peripheral/Source\gd32f30x_timer.c ****     }else if(TIMER_CHVSEL_DISABLE == ccsel){
2018:C:/Users/49542/Desktop/GD32F30x_Demo_Suites_V2.0.0/GD32F30x_Demo_Suites_V2.0.0/GD32F30x_Firmware_Library/GD32F30x_standard_peripheral/Source\gd32f30x_timer.c ****         TIMER_CFG(timer_periph) &= ~(uint32_t)TIMER_CFG_CHVSEL;
2019:C:/Users/49542/Desktop/GD32F30x_Demo_Suites_V2.0.0/GD32F30x_Demo_Suites_V2.0.0/GD32F30x_Firmware_Library/GD32F30x_standard_peripheral/Source\gd32f30x_timer.c ****     }else{
2020:C:/Users/49542/Desktop/GD32F30x_Demo_Suites_V2.0.0/GD32F30x_Demo_Suites_V2.0.0/GD32F30x_Firmware_Library/GD32F30x_standard_peripheral/Source\gd32f30x_timer.c ****         /* illegal parameters */
2021:C:/Users/49542/Desktop/GD32F30x_Demo_Suites_V2.0.0/GD32F30x_Demo_Suites_V2.0.0/GD32F30x_Firmware_Library/GD32F30x_standard_peripheral/Source\gd32f30x_timer.c ****     }
2022:C:/Users/49542/Desktop/GD32F30x_Demo_Suites_V2.0.0/GD32F30x_Demo_Suites_V2.0.0/GD32F30x_Firmware_Library/GD32F30x_standard_peripheral/Source\gd32f30x_timer.c **** }
 6614              		.loc 1 2022 0
 6615 0022 0AE0     		b	.L257
 6616              	.L255:
2017:C:/Users/49542/Desktop/GD32F30x_Demo_Suites_V2.0.0/GD32F30x_Demo_Suites_V2.0.0/GD32F30x_Firmware_Library/GD32F30x_standard_peripheral/Source\gd32f30x_timer.c ****     }else if(TIMER_CHVSEL_DISABLE == ccsel){
 6617              		.loc 1 2017 0
 6618 0024 7B88     		ldrh	r3, [r7, #2]
ARM GAS  C:\Users\49542\AppData\Local\Temp\ccx6VnNU.s 			page 152


 6619 0026 002B     		cmp	r3, #0
 6620 0028 07D1     		bne	.L257
2018:C:/Users/49542/Desktop/GD32F30x_Demo_Suites_V2.0.0/GD32F30x_Demo_Suites_V2.0.0/GD32F30x_Firmware_Library/GD32F30x_standard_peripheral/Source\gd32f30x_timer.c ****     }else{
 6621              		.loc 1 2018 0
 6622 002a 7B68     		ldr	r3, [r7, #4]
 6623 002c FC33     		adds	r3, r3, #252
 6624 002e 1B68     		ldr	r3, [r3]
 6625 0030 7A68     		ldr	r2, [r7, #4]
 6626 0032 FC32     		adds	r2, r2, #252
 6627 0034 23F00203 		bic	r3, r3, #2
 6628 0038 1360     		str	r3, [r2]
 6629              	.L257:
 6630              		.loc 1 2022 0
 6631 003a 00BF     		nop
 6632 003c 0C37     		adds	r7, r7, #12
 6633              	.LCFI410:
 6634              		.cfi_def_cfa_offset 4
 6635 003e BD46     		mov	sp, r7
 6636              	.LCFI411:
 6637              		.cfi_def_cfa_register 13
 6638              		@ sp needed
 6639 0040 5DF8047B 		ldr	r7, [sp], #4
 6640              	.LCFI412:
 6641              		.cfi_restore 7
 6642              		.cfi_def_cfa_offset 0
 6643 0044 7047     		bx	lr
 6644              		.cfi_endproc
 6645              	.LFE185:
 6647              		.section	.text.timer_output_value_selection_config,"ax",%progbits
 6648              		.align	1
 6649              		.global	timer_output_value_selection_config
 6650              		.syntax unified
 6651              		.thumb
 6652              		.thumb_func
 6653              		.fpu fpv4-sp-d16
 6655              	timer_output_value_selection_config:
 6656              	.LFB186:
2023:C:/Users/49542/Desktop/GD32F30x_Demo_Suites_V2.0.0/GD32F30x_Demo_Suites_V2.0.0/GD32F30x_Firmware_Library/GD32F30x_standard_peripheral/Source\gd32f30x_timer.c **** 
2024:C:/Users/49542/Desktop/GD32F30x_Demo_Suites_V2.0.0/GD32F30x_Demo_Suites_V2.0.0/GD32F30x_Firmware_Library/GD32F30x_standard_peripheral/Source\gd32f30x_timer.c **** /*!
2025:C:/Users/49542/Desktop/GD32F30x_Demo_Suites_V2.0.0/GD32F30x_Demo_Suites_V2.0.0/GD32F30x_Firmware_Library/GD32F30x_standard_peripheral/Source\gd32f30x_timer.c ****     \brief      configure TIMER output value selection
2026:C:/Users/49542/Desktop/GD32F30x_Demo_Suites_V2.0.0/GD32F30x_Demo_Suites_V2.0.0/GD32F30x_Firmware_Library/GD32F30x_standard_peripheral/Source\gd32f30x_timer.c ****     \param[in]  timer_periph: TIMERx(x=0,7)
2027:C:/Users/49542/Desktop/GD32F30x_Demo_Suites_V2.0.0/GD32F30x_Demo_Suites_V2.0.0/GD32F30x_Firmware_Library/GD32F30x_standard_peripheral/Source\gd32f30x_timer.c ****     \param[in]  outsel:
2028:C:/Users/49542/Desktop/GD32F30x_Demo_Suites_V2.0.0/GD32F30x_Demo_Suites_V2.0.0/GD32F30x_Firmware_Library/GD32F30x_standard_peripheral/Source\gd32f30x_timer.c ****                 only one parameter can be selected which is shown as below:
2029:C:/Users/49542/Desktop/GD32F30x_Demo_Suites_V2.0.0/GD32F30x_Demo_Suites_V2.0.0/GD32F30x_Firmware_Library/GD32F30x_standard_peripheral/Source\gd32f30x_timer.c ****       \arg        TIMER_OUTSEL_DISABLE: no effect
2030:C:/Users/49542/Desktop/GD32F30x_Demo_Suites_V2.0.0/GD32F30x_Demo_Suites_V2.0.0/GD32F30x_Firmware_Library/GD32F30x_standard_peripheral/Source\gd32f30x_timer.c ****       \arg        TIMER_OUTSEL_ENABLE: if POEN and IOS is 0, the output disabled
2031:C:/Users/49542/Desktop/GD32F30x_Demo_Suites_V2.0.0/GD32F30x_Demo_Suites_V2.0.0/GD32F30x_Firmware_Library/GD32F30x_standard_peripheral/Source\gd32f30x_timer.c ****     \param[out] none
2032:C:/Users/49542/Desktop/GD32F30x_Demo_Suites_V2.0.0/GD32F30x_Demo_Suites_V2.0.0/GD32F30x_Firmware_Library/GD32F30x_standard_peripheral/Source\gd32f30x_timer.c ****     \retval     none
2033:C:/Users/49542/Desktop/GD32F30x_Demo_Suites_V2.0.0/GD32F30x_Demo_Suites_V2.0.0/GD32F30x_Firmware_Library/GD32F30x_standard_peripheral/Source\gd32f30x_timer.c **** */
2034:C:/Users/49542/Desktop/GD32F30x_Demo_Suites_V2.0.0/GD32F30x_Demo_Suites_V2.0.0/GD32F30x_Firmware_Library/GD32F30x_standard_peripheral/Source\gd32f30x_timer.c **** void timer_output_value_selection_config(uint32_t timer_periph, uint16_t outsel)
2035:C:/Users/49542/Desktop/GD32F30x_Demo_Suites_V2.0.0/GD32F30x_Demo_Suites_V2.0.0/GD32F30x_Firmware_Library/GD32F30x_standard_peripheral/Source\gd32f30x_timer.c **** {
 6657              		.loc 1 2035 0
 6658              		.cfi_startproc
 6659              		@ args = 0, pretend = 0, frame = 8
 6660              		@ frame_needed = 1, uses_anonymous_args = 0
 6661              		@ link register save eliminated.
 6662 0000 80B4     		push	{r7}
 6663              	.LCFI413:
ARM GAS  C:\Users\49542\AppData\Local\Temp\ccx6VnNU.s 			page 153


 6664              		.cfi_def_cfa_offset 4
 6665              		.cfi_offset 7, -4
 6666 0002 83B0     		sub	sp, sp, #12
 6667              	.LCFI414:
 6668              		.cfi_def_cfa_offset 16
 6669 0004 00AF     		add	r7, sp, #0
 6670              	.LCFI415:
 6671              		.cfi_def_cfa_register 7
 6672 0006 7860     		str	r0, [r7, #4]
 6673 0008 0B46     		mov	r3, r1
 6674 000a 7B80     		strh	r3, [r7, #2]	@ movhi
2036:C:/Users/49542/Desktop/GD32F30x_Demo_Suites_V2.0.0/GD32F30x_Demo_Suites_V2.0.0/GD32F30x_Firmware_Library/GD32F30x_standard_peripheral/Source\gd32f30x_timer.c ****     if(TIMER_OUTSEL_ENABLE == outsel){
 6675              		.loc 1 2036 0
 6676 000c 7B88     		ldrh	r3, [r7, #2]
 6677 000e 012B     		cmp	r3, #1
 6678 0010 08D1     		bne	.L259
2037:C:/Users/49542/Desktop/GD32F30x_Demo_Suites_V2.0.0/GD32F30x_Demo_Suites_V2.0.0/GD32F30x_Firmware_Library/GD32F30x_standard_peripheral/Source\gd32f30x_timer.c ****         TIMER_CFG(timer_periph) |= (uint32_t)TIMER_CFG_OUTSEL;
 6679              		.loc 1 2037 0
 6680 0012 7B68     		ldr	r3, [r7, #4]
 6681 0014 FC33     		adds	r3, r3, #252
 6682 0016 1B68     		ldr	r3, [r3]
 6683 0018 7A68     		ldr	r2, [r7, #4]
 6684 001a FC32     		adds	r2, r2, #252
 6685 001c 43F00103 		orr	r3, r3, #1
 6686 0020 1360     		str	r3, [r2]
2038:C:/Users/49542/Desktop/GD32F30x_Demo_Suites_V2.0.0/GD32F30x_Demo_Suites_V2.0.0/GD32F30x_Firmware_Library/GD32F30x_standard_peripheral/Source\gd32f30x_timer.c ****     }else if(TIMER_OUTSEL_DISABLE == outsel){
2039:C:/Users/49542/Desktop/GD32F30x_Demo_Suites_V2.0.0/GD32F30x_Demo_Suites_V2.0.0/GD32F30x_Firmware_Library/GD32F30x_standard_peripheral/Source\gd32f30x_timer.c ****         TIMER_CFG(timer_periph) &= ~(uint32_t)TIMER_CFG_OUTSEL;
2040:C:/Users/49542/Desktop/GD32F30x_Demo_Suites_V2.0.0/GD32F30x_Demo_Suites_V2.0.0/GD32F30x_Firmware_Library/GD32F30x_standard_peripheral/Source\gd32f30x_timer.c ****     }else{
2041:C:/Users/49542/Desktop/GD32F30x_Demo_Suites_V2.0.0/GD32F30x_Demo_Suites_V2.0.0/GD32F30x_Firmware_Library/GD32F30x_standard_peripheral/Source\gd32f30x_timer.c ****         /* illegal parameters */
2042:C:/Users/49542/Desktop/GD32F30x_Demo_Suites_V2.0.0/GD32F30x_Demo_Suites_V2.0.0/GD32F30x_Firmware_Library/GD32F30x_standard_peripheral/Source\gd32f30x_timer.c ****     }
2043:C:/Users/49542/Desktop/GD32F30x_Demo_Suites_V2.0.0/GD32F30x_Demo_Suites_V2.0.0/GD32F30x_Firmware_Library/GD32F30x_standard_peripheral/Source\gd32f30x_timer.c **** }
 6687              		.loc 1 2043 0
 6688 0022 0AE0     		b	.L261
 6689              	.L259:
2038:C:/Users/49542/Desktop/GD32F30x_Demo_Suites_V2.0.0/GD32F30x_Demo_Suites_V2.0.0/GD32F30x_Firmware_Library/GD32F30x_standard_peripheral/Source\gd32f30x_timer.c ****     }else if(TIMER_OUTSEL_DISABLE == outsel){
 6690              		.loc 1 2038 0
 6691 0024 7B88     		ldrh	r3, [r7, #2]
 6692 0026 002B     		cmp	r3, #0
 6693 0028 07D1     		bne	.L261
2039:C:/Users/49542/Desktop/GD32F30x_Demo_Suites_V2.0.0/GD32F30x_Demo_Suites_V2.0.0/GD32F30x_Firmware_Library/GD32F30x_standard_peripheral/Source\gd32f30x_timer.c ****     }else{
 6694              		.loc 1 2039 0
 6695 002a 7B68     		ldr	r3, [r7, #4]
 6696 002c FC33     		adds	r3, r3, #252
 6697 002e 1B68     		ldr	r3, [r3]
 6698 0030 7A68     		ldr	r2, [r7, #4]
 6699 0032 FC32     		adds	r2, r2, #252
 6700 0034 23F00103 		bic	r3, r3, #1
 6701 0038 1360     		str	r3, [r2]
 6702              	.L261:
 6703              		.loc 1 2043 0
 6704 003a 00BF     		nop
 6705 003c 0C37     		adds	r7, r7, #12
 6706              	.LCFI416:
 6707              		.cfi_def_cfa_offset 4
 6708 003e BD46     		mov	sp, r7
 6709              	.LCFI417:
 6710              		.cfi_def_cfa_register 13
ARM GAS  C:\Users\49542\AppData\Local\Temp\ccx6VnNU.s 			page 154


 6711              		@ sp needed
 6712 0040 5DF8047B 		ldr	r7, [sp], #4
 6713              	.LCFI418:
 6714              		.cfi_restore 7
 6715              		.cfi_def_cfa_offset 0
 6716 0044 7047     		bx	lr
 6717              		.cfi_endproc
 6718              	.LFE186:
 6720              		.text
 6721              	.Letext0:
 6722              		.file 2 "c:\\users\\49542\\opensourcetools\\gnu tools arm embedded\\7 2018-q2-update\\arm-none-eab
 6723              		.file 3 "c:\\users\\49542\\opensourcetools\\gnu tools arm embedded\\7 2018-q2-update\\arm-none-eab
 6724              		.file 4 "C:/Users/49542/Desktop/GD32F30x_Demo_Suites_V2.0.0/GD32F30x_Demo_Suites_V2.0.0/GD32F30x_F
 6725              		.file 5 "C:/Users/49542/Desktop/GD32F30x_Demo_Suites_V2.0.0/GD32F30x_Demo_Suites_V2.0.0/GD32F30x_F
 6726              		.file 6 "C:/Users/49542/Desktop/GD32F30x_Demo_Suites_V2.0.0/GD32F30x_Demo_Suites_V2.0.0/GD32F30x_F
 6727              		.file 7 "C:/Users/49542/Desktop/GD32F30x_Demo_Suites_V2.0.0/GD32F30x_Demo_Suites_V2.0.0/GD32F30x_F
 6728              		.file 8 "c:\\users\\49542\\opensourcetools\\gnu tools arm embedded\\7 2018-q2-update\\arm-none-eab
 6729              		.file 9 "c:\\users\\49542\\opensourcetools\\gnu tools arm embedded\\7 2018-q2-update\\arm-none-eab
 6730              		.file 10 "c:\\users\\49542\\opensourcetools\\gnu tools arm embedded\\7 2018-q2-update\\lib\\gcc\\a
 6731              		.file 11 "c:\\users\\49542\\opensourcetools\\gnu tools arm embedded\\7 2018-q2-update\\arm-none-ea
 6732              		.file 12 "c:\\users\\49542\\opensourcetools\\gnu tools arm embedded\\7 2018-q2-update\\arm-none-ea
 6733              		.file 13 "C:/Users/49542/Desktop/GD32F30x_Demo_Suites_V2.0.0/GD32F30x_Demo_Suites_V2.0.0/GD32F30x_
ARM GAS  C:\Users\49542\AppData\Local\Temp\ccx6VnNU.s 			page 155


DEFINED SYMBOLS
                            *ABS*:00000000 gd32f30x_timer.c
C:\Users\49542\AppData\Local\Temp\ccx6VnNU.s:18     .text.timer_deinit:00000000 $t
C:\Users\49542\AppData\Local\Temp\ccx6VnNU.s:25     .text.timer_deinit:00000000 timer_deinit
C:\Users\49542\AppData\Local\Temp\ccx6VnNU.s:250    .text.timer_deinit:00000180 $d
C:\Users\49542\AppData\Local\Temp\ccx6VnNU.s:267    .text.timer_struct_para_init:00000000 $t
C:\Users\49542\AppData\Local\Temp\ccx6VnNU.s:274    .text.timer_struct_para_init:00000000 timer_struct_para_init
C:\Users\49542\AppData\Local\Temp\ccx6VnNU.s:334    .text.timer_init:00000000 $t
C:\Users\49542\AppData\Local\Temp\ccx6VnNU.s:341    .text.timer_init:00000000 timer_init
C:\Users\49542\AppData\Local\Temp\ccx6VnNU.s:497    .text.timer_init:000000e0 $d
C:\Users\49542\AppData\Local\Temp\ccx6VnNU.s:508    .text.timer_enable:00000000 $t
C:\Users\49542\AppData\Local\Temp\ccx6VnNU.s:515    .text.timer_enable:00000000 timer_enable
C:\Users\49542\AppData\Local\Temp\ccx6VnNU.s:557    .text.timer_disable:00000000 $t
C:\Users\49542\AppData\Local\Temp\ccx6VnNU.s:564    .text.timer_disable:00000000 timer_disable
C:\Users\49542\AppData\Local\Temp\ccx6VnNU.s:606    .text.timer_auto_reload_shadow_enable:00000000 $t
C:\Users\49542\AppData\Local\Temp\ccx6VnNU.s:613    .text.timer_auto_reload_shadow_enable:00000000 timer_auto_reload_shadow_enable
C:\Users\49542\AppData\Local\Temp\ccx6VnNU.s:655    .text.timer_auto_reload_shadow_disable:00000000 $t
C:\Users\49542\AppData\Local\Temp\ccx6VnNU.s:662    .text.timer_auto_reload_shadow_disable:00000000 timer_auto_reload_shadow_disable
C:\Users\49542\AppData\Local\Temp\ccx6VnNU.s:704    .text.timer_update_event_enable:00000000 $t
C:\Users\49542\AppData\Local\Temp\ccx6VnNU.s:711    .text.timer_update_event_enable:00000000 timer_update_event_enable
C:\Users\49542\AppData\Local\Temp\ccx6VnNU.s:753    .text.timer_update_event_disable:00000000 $t
C:\Users\49542\AppData\Local\Temp\ccx6VnNU.s:760    .text.timer_update_event_disable:00000000 timer_update_event_disable
C:\Users\49542\AppData\Local\Temp\ccx6VnNU.s:802    .text.timer_counter_alignment:00000000 $t
C:\Users\49542\AppData\Local\Temp\ccx6VnNU.s:809    .text.timer_counter_alignment:00000000 timer_counter_alignment
C:\Users\49542\AppData\Local\Temp\ccx6VnNU.s:860    .text.timer_counter_up_direction:00000000 $t
C:\Users\49542\AppData\Local\Temp\ccx6VnNU.s:867    .text.timer_counter_up_direction:00000000 timer_counter_up_direction
C:\Users\49542\AppData\Local\Temp\ccx6VnNU.s:909    .text.timer_counter_down_direction:00000000 $t
C:\Users\49542\AppData\Local\Temp\ccx6VnNU.s:916    .text.timer_counter_down_direction:00000000 timer_counter_down_direction
C:\Users\49542\AppData\Local\Temp\ccx6VnNU.s:958    .text.timer_prescaler_config:00000000 $t
C:\Users\49542\AppData\Local\Temp\ccx6VnNU.s:965    .text.timer_prescaler_config:00000000 timer_prescaler_config
C:\Users\49542\AppData\Local\Temp\ccx6VnNU.s:1024   .text.timer_repetition_value_config:00000000 $t
C:\Users\49542\AppData\Local\Temp\ccx6VnNU.s:1031   .text.timer_repetition_value_config:00000000 timer_repetition_value_config
C:\Users\49542\AppData\Local\Temp\ccx6VnNU.s:1075   .text.timer_autoreload_value_config:00000000 $t
C:\Users\49542\AppData\Local\Temp\ccx6VnNU.s:1082   .text.timer_autoreload_value_config:00000000 timer_autoreload_value_config
C:\Users\49542\AppData\Local\Temp\ccx6VnNU.s:1126   .text.timer_counter_value_config:00000000 $t
C:\Users\49542\AppData\Local\Temp\ccx6VnNU.s:1133   .text.timer_counter_value_config:00000000 timer_counter_value_config
C:\Users\49542\AppData\Local\Temp\ccx6VnNU.s:1177   .text.timer_counter_read:00000000 $t
C:\Users\49542\AppData\Local\Temp\ccx6VnNU.s:1184   .text.timer_counter_read:00000000 timer_counter_read
C:\Users\49542\AppData\Local\Temp\ccx6VnNU.s:1230   .text.timer_prescaler_read:00000000 $t
C:\Users\49542\AppData\Local\Temp\ccx6VnNU.s:1237   .text.timer_prescaler_read:00000000 timer_prescaler_read
C:\Users\49542\AppData\Local\Temp\ccx6VnNU.s:1283   .text.timer_single_pulse_mode_config:00000000 $t
C:\Users\49542\AppData\Local\Temp\ccx6VnNU.s:1290   .text.timer_single_pulse_mode_config:00000000 timer_single_pulse_mode_config
C:\Users\49542\AppData\Local\Temp\ccx6VnNU.s:1351   .text.timer_update_source_config:00000000 $t
C:\Users\49542\AppData\Local\Temp\ccx6VnNU.s:1358   .text.timer_update_source_config:00000000 timer_update_source_config
C:\Users\49542\AppData\Local\Temp\ccx6VnNU.s:1419   .text.timer_interrupt_enable:00000000 $t
C:\Users\49542\AppData\Local\Temp\ccx6VnNU.s:1426   .text.timer_interrupt_enable:00000000 timer_interrupt_enable
C:\Users\49542\AppData\Local\Temp\ccx6VnNU.s:1473   .text.timer_interrupt_disable:00000000 $t
C:\Users\49542\AppData\Local\Temp\ccx6VnNU.s:1480   .text.timer_interrupt_disable:00000000 timer_interrupt_disable
C:\Users\49542\AppData\Local\Temp\ccx6VnNU.s:1527   .text.timer_interrupt_flag_get:00000000 $t
C:\Users\49542\AppData\Local\Temp\ccx6VnNU.s:1534   .text.timer_interrupt_flag_get:00000000 timer_interrupt_flag_get
C:\Users\49542\AppData\Local\Temp\ccx6VnNU.s:1597   .text.timer_interrupt_flag_clear:00000000 $t
C:\Users\49542\AppData\Local\Temp\ccx6VnNU.s:1604   .text.timer_interrupt_flag_clear:00000000 timer_interrupt_flag_clear
C:\Users\49542\AppData\Local\Temp\ccx6VnNU.s:1651   .text.timer_flag_get:00000000 $t
C:\Users\49542\AppData\Local\Temp\ccx6VnNU.s:1658   .text.timer_flag_get:00000000 timer_flag_get
C:\Users\49542\AppData\Local\Temp\ccx6VnNU.s:1710   .text.timer_flag_clear:00000000 $t
C:\Users\49542\AppData\Local\Temp\ccx6VnNU.s:1717   .text.timer_flag_clear:00000000 timer_flag_clear
C:\Users\49542\AppData\Local\Temp\ccx6VnNU.s:1764   .text.timer_dma_enable:00000000 $t
ARM GAS  C:\Users\49542\AppData\Local\Temp\ccx6VnNU.s 			page 156


C:\Users\49542\AppData\Local\Temp\ccx6VnNU.s:1771   .text.timer_dma_enable:00000000 timer_dma_enable
C:\Users\49542\AppData\Local\Temp\ccx6VnNU.s:1818   .text.timer_dma_disable:00000000 $t
C:\Users\49542\AppData\Local\Temp\ccx6VnNU.s:1825   .text.timer_dma_disable:00000000 timer_dma_disable
C:\Users\49542\AppData\Local\Temp\ccx6VnNU.s:1873   .text.timer_channel_dma_request_source_select:00000000 $t
C:\Users\49542\AppData\Local\Temp\ccx6VnNU.s:1880   .text.timer_channel_dma_request_source_select:00000000 timer_channel_dma_request_source_select
C:\Users\49542\AppData\Local\Temp\ccx6VnNU.s:1946   .text.timer_dma_transfer_config:00000000 $t
C:\Users\49542\AppData\Local\Temp\ccx6VnNU.s:1953   .text.timer_dma_transfer_config:00000000 timer_dma_transfer_config
C:\Users\49542\AppData\Local\Temp\ccx6VnNU.s:2011   .text.timer_event_software_generate:00000000 $t
C:\Users\49542\AppData\Local\Temp\ccx6VnNU.s:2018   .text.timer_event_software_generate:00000000 timer_event_software_generate
C:\Users\49542\AppData\Local\Temp\ccx6VnNU.s:2065   .text.timer_break_struct_para_init:00000000 $t
C:\Users\49542\AppData\Local\Temp\ccx6VnNU.s:2072   .text.timer_break_struct_para_init:00000000 timer_break_struct_para_init
C:\Users\49542\AppData\Local\Temp\ccx6VnNU.s:2136   .text.timer_break_config:00000000 $t
C:\Users\49542\AppData\Local\Temp\ccx6VnNU.s:2143   .text.timer_break_config:00000000 timer_break_config
C:\Users\49542\AppData\Local\Temp\ccx6VnNU.s:2222   .text.timer_break_enable:00000000 $t
C:\Users\49542\AppData\Local\Temp\ccx6VnNU.s:2229   .text.timer_break_enable:00000000 timer_break_enable
C:\Users\49542\AppData\Local\Temp\ccx6VnNU.s:2273   .text.timer_break_disable:00000000 $t
C:\Users\49542\AppData\Local\Temp\ccx6VnNU.s:2280   .text.timer_break_disable:00000000 timer_break_disable
C:\Users\49542\AppData\Local\Temp\ccx6VnNU.s:2324   .text.timer_automatic_output_enable:00000000 $t
C:\Users\49542\AppData\Local\Temp\ccx6VnNU.s:2331   .text.timer_automatic_output_enable:00000000 timer_automatic_output_enable
C:\Users\49542\AppData\Local\Temp\ccx6VnNU.s:2375   .text.timer_automatic_output_disable:00000000 $t
C:\Users\49542\AppData\Local\Temp\ccx6VnNU.s:2382   .text.timer_automatic_output_disable:00000000 timer_automatic_output_disable
C:\Users\49542\AppData\Local\Temp\ccx6VnNU.s:2426   .text.timer_primary_output_config:00000000 $t
C:\Users\49542\AppData\Local\Temp\ccx6VnNU.s:2433   .text.timer_primary_output_config:00000000 timer_primary_output_config
C:\Users\49542\AppData\Local\Temp\ccx6VnNU.s:2495   .text.timer_channel_control_shadow_config:00000000 $t
C:\Users\49542\AppData\Local\Temp\ccx6VnNU.s:2502   .text.timer_channel_control_shadow_config:00000000 timer_channel_control_shadow_config
C:\Users\49542\AppData\Local\Temp\ccx6VnNU.s:2564   .text.timer_channel_control_shadow_update_config:00000000 $t
C:\Users\49542\AppData\Local\Temp\ccx6VnNU.s:2571   .text.timer_channel_control_shadow_update_config:00000000 timer_channel_control_shadow_update_config
C:\Users\49542\AppData\Local\Temp\ccx6VnNU.s:2637   .text.timer_channel_output_struct_para_init:00000000 $t
C:\Users\49542\AppData\Local\Temp\ccx6VnNU.s:2644   .text.timer_channel_output_struct_para_init:00000000 timer_channel_output_struct_para_init
C:\Users\49542\AppData\Local\Temp\ccx6VnNU.s:2704   .text.timer_channel_output_config:00000000 $t
C:\Users\49542\AppData\Local\Temp\ccx6VnNU.s:2711   .text.timer_channel_output_config:00000000 timer_channel_output_config
C:\Users\49542\AppData\Local\Temp\ccx6VnNU.s:2740   .text.timer_channel_output_config:0000001c $d
C:\Users\49542\AppData\Local\Temp\ccx6VnNU.s:2744   .text.timer_channel_output_config:0000002c $t
C:\Users\49542\AppData\Local\Temp\ccx6VnNU.s:3020   .text.timer_channel_output_config:00000224 $d
C:\Users\49542\AppData\Local\Temp\ccx6VnNU.s:3024   .text.timer_channel_output_config:0000022c $t
C:\Users\49542\AppData\Local\Temp\ccx6VnNU.s:3274   .text.timer_channel_output_config:000003d4 $d
C:\Users\49542\AppData\Local\Temp\ccx6VnNU.s:3280   .text.timer_channel_output_mode_config:00000000 $t
C:\Users\49542\AppData\Local\Temp\ccx6VnNU.s:3287   .text.timer_channel_output_mode_config:00000000 timer_channel_output_mode_config
C:\Users\49542\AppData\Local\Temp\ccx6VnNU.s:3317   .text.timer_channel_output_mode_config:0000001c $d
C:\Users\49542\AppData\Local\Temp\ccx6VnNU.s:3321   .text.timer_channel_output_mode_config:0000002c $t
C:\Users\49542\AppData\Local\Temp\ccx6VnNU.s:3426   .text.timer_channel_output_pulse_value_config:00000000 $t
C:\Users\49542\AppData\Local\Temp\ccx6VnNU.s:3433   .text.timer_channel_output_pulse_value_config:00000000 timer_channel_output_pulse_value_config
C:\Users\49542\AppData\Local\Temp\ccx6VnNU.s:3462   .text.timer_channel_output_pulse_value_config:0000001c $d
C:\Users\49542\AppData\Local\Temp\ccx6VnNU.s:3466   .text.timer_channel_output_pulse_value_config:0000002c $t
C:\Users\49542\AppData\Local\Temp\ccx6VnNU.s:3525   .text.timer_channel_output_shadow_config:00000000 $t
C:\Users\49542\AppData\Local\Temp\ccx6VnNU.s:3532   .text.timer_channel_output_shadow_config:00000000 timer_channel_output_shadow_config
C:\Users\49542\AppData\Local\Temp\ccx6VnNU.s:3562   .text.timer_channel_output_shadow_config:0000001c $d
C:\Users\49542\AppData\Local\Temp\ccx6VnNU.s:3566   .text.timer_channel_output_shadow_config:0000002c $t
C:\Users\49542\AppData\Local\Temp\ccx6VnNU.s:3671   .text.timer_channel_output_fast_config:00000000 $t
C:\Users\49542\AppData\Local\Temp\ccx6VnNU.s:3678   .text.timer_channel_output_fast_config:00000000 timer_channel_output_fast_config
C:\Users\49542\AppData\Local\Temp\ccx6VnNU.s:3708   .text.timer_channel_output_fast_config:0000001c $d
C:\Users\49542\AppData\Local\Temp\ccx6VnNU.s:3712   .text.timer_channel_output_fast_config:0000002c $t
C:\Users\49542\AppData\Local\Temp\ccx6VnNU.s:3817   .text.timer_channel_output_clear_config:00000000 $t
C:\Users\49542\AppData\Local\Temp\ccx6VnNU.s:3824   .text.timer_channel_output_clear_config:00000000 timer_channel_output_clear_config
C:\Users\49542\AppData\Local\Temp\ccx6VnNU.s:3854   .text.timer_channel_output_clear_config:0000001c $d
C:\Users\49542\AppData\Local\Temp\ccx6VnNU.s:3858   .text.timer_channel_output_clear_config:0000002c $t
C:\Users\49542\AppData\Local\Temp\ccx6VnNU.s:3963   .text.timer_channel_output_polarity_config:00000000 $t
ARM GAS  C:\Users\49542\AppData\Local\Temp\ccx6VnNU.s 			page 157


C:\Users\49542\AppData\Local\Temp\ccx6VnNU.s:3970   .text.timer_channel_output_polarity_config:00000000 timer_channel_output_polarity_config
C:\Users\49542\AppData\Local\Temp\ccx6VnNU.s:4000   .text.timer_channel_output_polarity_config:0000001c $d
C:\Users\49542\AppData\Local\Temp\ccx6VnNU.s:4004   .text.timer_channel_output_polarity_config:0000002c $t
C:\Users\49542\AppData\Local\Temp\ccx6VnNU.s:4110   .text.timer_channel_complementary_output_polarity_config:00000000 $t
C:\Users\49542\AppData\Local\Temp\ccx6VnNU.s:4117   .text.timer_channel_complementary_output_polarity_config:00000000 timer_channel_complementary_output_polarity_config
C:\Users\49542\AppData\Local\Temp\ccx6VnNU.s:4230   .text.timer_channel_output_state_config:00000000 $t
C:\Users\49542\AppData\Local\Temp\ccx6VnNU.s:4237   .text.timer_channel_output_state_config:00000000 timer_channel_output_state_config
C:\Users\49542\AppData\Local\Temp\ccx6VnNU.s:4266   .text.timer_channel_output_state_config:0000001c $d
C:\Users\49542\AppData\Local\Temp\ccx6VnNU.s:4270   .text.timer_channel_output_state_config:0000002c $t
C:\Users\49542\AppData\Local\Temp\ccx6VnNU.s:4377   .text.timer_channel_complementary_output_state_config:00000000 $t
C:\Users\49542\AppData\Local\Temp\ccx6VnNU.s:4384   .text.timer_channel_complementary_output_state_config:00000000 timer_channel_complementary_output_state_config
C:\Users\49542\AppData\Local\Temp\ccx6VnNU.s:4497   .text.timer_channel_input_struct_para_init:00000000 $t
C:\Users\49542\AppData\Local\Temp\ccx6VnNU.s:4504   .text.timer_channel_input_struct_para_init:00000000 timer_channel_input_struct_para_init
C:\Users\49542\AppData\Local\Temp\ccx6VnNU.s:4556   .text.timer_input_capture_config:00000000 $t
C:\Users\49542\AppData\Local\Temp\ccx6VnNU.s:4563   .text.timer_input_capture_config:00000000 timer_input_capture_config
C:\Users\49542\AppData\Local\Temp\ccx6VnNU.s:4592   .text.timer_input_capture_config:0000001c $d
C:\Users\49542\AppData\Local\Temp\ccx6VnNU.s:4596   .text.timer_input_capture_config:0000002c $t
C:\Users\49542\AppData\Local\Temp\ccx6VnNU.s:4933   .text.timer_channel_input_capture_prescaler_config:00000000 timer_channel_input_capture_prescaler_config
C:\Users\49542\AppData\Local\Temp\ccx6VnNU.s:4926   .text.timer_channel_input_capture_prescaler_config:00000000 $t
C:\Users\49542\AppData\Local\Temp\ccx6VnNU.s:4963   .text.timer_channel_input_capture_prescaler_config:0000001c $d
C:\Users\49542\AppData\Local\Temp\ccx6VnNU.s:4967   .text.timer_channel_input_capture_prescaler_config:0000002c $t
C:\Users\49542\AppData\Local\Temp\ccx6VnNU.s:5072   .text.timer_channel_capture_value_register_read:00000000 $t
C:\Users\49542\AppData\Local\Temp\ccx6VnNU.s:5079   .text.timer_channel_capture_value_register_read:00000000 timer_channel_capture_value_register_read
C:\Users\49542\AppData\Local\Temp\ccx6VnNU.s:5110   .text.timer_channel_capture_value_register_read:0000001c $d
C:\Users\49542\AppData\Local\Temp\ccx6VnNU.s:5114   .text.timer_channel_capture_value_register_read:0000002c $t
C:\Users\49542\AppData\Local\Temp\ccx6VnNU.s:5171   .text.timer_input_pwm_capture_config:00000000 $t
C:\Users\49542\AppData\Local\Temp\ccx6VnNU.s:5178   .text.timer_input_pwm_capture_config:00000000 timer_input_pwm_capture_config
C:\Users\49542\AppData\Local\Temp\ccx6VnNU.s:5569   .text.timer_hall_mode_config:00000000 $t
C:\Users\49542\AppData\Local\Temp\ccx6VnNU.s:5576   .text.timer_hall_mode_config:00000000 timer_hall_mode_config
C:\Users\49542\AppData\Local\Temp\ccx6VnNU.s:5641   .text.timer_input_trigger_source_select:00000000 $t
C:\Users\49542\AppData\Local\Temp\ccx6VnNU.s:5648   .text.timer_input_trigger_source_select:00000000 timer_input_trigger_source_select
C:\Users\49542\AppData\Local\Temp\ccx6VnNU.s:5703   .text.timer_master_output_trigger_source_select:00000000 $t
C:\Users\49542\AppData\Local\Temp\ccx6VnNU.s:5710   .text.timer_master_output_trigger_source_select:00000000 timer_master_output_trigger_source_select
C:\Users\49542\AppData\Local\Temp\ccx6VnNU.s:5765   .text.timer_slave_mode_select:00000000 $t
C:\Users\49542\AppData\Local\Temp\ccx6VnNU.s:5772   .text.timer_slave_mode_select:00000000 timer_slave_mode_select
C:\Users\49542\AppData\Local\Temp\ccx6VnNU.s:5827   .text.timer_master_slave_mode_config:00000000 $t
C:\Users\49542\AppData\Local\Temp\ccx6VnNU.s:5834   .text.timer_master_slave_mode_config:00000000 timer_master_slave_mode_config
C:\Users\49542\AppData\Local\Temp\ccx6VnNU.s:5899   .text.timer_external_trigger_config:00000000 $t
C:\Users\49542\AppData\Local\Temp\ccx6VnNU.s:5906   .text.timer_external_trigger_config:00000000 timer_external_trigger_config
C:\Users\49542\AppData\Local\Temp\ccx6VnNU.s:5974   .text.timer_quadrature_decoder_mode_config:00000000 $t
C:\Users\49542\AppData\Local\Temp\ccx6VnNU.s:5981   .text.timer_quadrature_decoder_mode_config:00000000 timer_quadrature_decoder_mode_config
C:\Users\49542\AppData\Local\Temp\ccx6VnNU.s:6088   .text.timer_internal_clock_config:00000000 $t
C:\Users\49542\AppData\Local\Temp\ccx6VnNU.s:6095   .text.timer_internal_clock_config:00000000 timer_internal_clock_config
C:\Users\49542\AppData\Local\Temp\ccx6VnNU.s:6139   .text.timer_internal_trigger_as_external_clock_config:00000000 $t
C:\Users\49542\AppData\Local\Temp\ccx6VnNU.s:6146   .text.timer_internal_trigger_as_external_clock_config:00000000 timer_internal_trigger_as_external_clock_config
C:\Users\49542\AppData\Local\Temp\ccx6VnNU.s:6199   .text.timer_external_trigger_as_external_clock_config:00000000 $t
C:\Users\49542\AppData\Local\Temp\ccx6VnNU.s:6206   .text.timer_external_trigger_as_external_clock_config:00000000 timer_external_trigger_as_external_clock_config
C:\Users\49542\AppData\Local\Temp\ccx6VnNU.s:6404   .text.timer_external_clock_mode0_config:00000000 $t
C:\Users\49542\AppData\Local\Temp\ccx6VnNU.s:6411   .text.timer_external_clock_mode0_config:00000000 timer_external_clock_mode0_config
C:\Users\49542\AppData\Local\Temp\ccx6VnNU.s:6468   .text.timer_external_clock_mode1_config:00000000 $t
C:\Users\49542\AppData\Local\Temp\ccx6VnNU.s:6475   .text.timer_external_clock_mode1_config:00000000 timer_external_clock_mode1_config
C:\Users\49542\AppData\Local\Temp\ccx6VnNU.s:6524   .text.timer_external_clock_mode1_disable:00000000 $t
C:\Users\49542\AppData\Local\Temp\ccx6VnNU.s:6531   .text.timer_external_clock_mode1_disable:00000000 timer_external_clock_mode1_disable
C:\Users\49542\AppData\Local\Temp\ccx6VnNU.s:6575   .text.timer_write_chxval_register_config:00000000 $t
C:\Users\49542\AppData\Local\Temp\ccx6VnNU.s:6582   .text.timer_write_chxval_register_config:00000000 timer_write_chxval_register_config
C:\Users\49542\AppData\Local\Temp\ccx6VnNU.s:6648   .text.timer_output_value_selection_config:00000000 $t
C:\Users\49542\AppData\Local\Temp\ccx6VnNU.s:6655   .text.timer_output_value_selection_config:00000000 timer_output_value_selection_config
ARM GAS  C:\Users\49542\AppData\Local\Temp\ccx6VnNU.s 			page 158



UNDEFINED SYMBOLS
rcu_periph_reset_enable
rcu_periph_reset_disable
