ARM GAS  C:\Users\49542\AppData\Local\Temp\cc1SF7Vt.s 			page 1


   1              		.cpu cortex-m4
   2              		.eabi_attribute 27, 1
   3              		.eabi_attribute 28, 1
   4              		.eabi_attribute 20, 1
   5              		.eabi_attribute 21, 1
   6              		.eabi_attribute 23, 3
   7              		.eabi_attribute 24, 1
   8              		.eabi_attribute 25, 1
   9              		.eabi_attribute 26, 1
  10              		.eabi_attribute 30, 6
  11              		.eabi_attribute 34, 1
  12              		.eabi_attribute 18, 4
  13              		.file	"gd32f30x_dac.c"
  14              		.text
  15              	.Ltext0:
  16              		.cfi_sections	.debug_frame
  17              		.section	.text.dac_deinit,"ax",%progbits
  18              		.align	1
  19              		.global	dac_deinit
  20              		.syntax unified
  21              		.thumb
  22              		.thumb_func
  23              		.fpu fpv4-sp-d16
  25              	dac_deinit:
  26              	.LFB116:
  27              		.file 1 "C:/Users/49542/Desktop/GD32F30x_Demo_Suites_V2.0.0/GD32F30x_Demo_Suites_V2.0.0/GD32F30x_F
   1:C:/Users/49542/Desktop/GD32F30x_Demo_Suites_V2.0.0/GD32F30x_Demo_Suites_V2.0.0/GD32F30x_Firmware_Library/GD32F30x_standard_peripheral/Source\gd32f30x_dac.c **** /*!
   2:C:/Users/49542/Desktop/GD32F30x_Demo_Suites_V2.0.0/GD32F30x_Demo_Suites_V2.0.0/GD32F30x_Firmware_Library/GD32F30x_standard_peripheral/Source\gd32f30x_dac.c ****     \file  gd32f30x_dac.c
   3:C:/Users/49542/Desktop/GD32F30x_Demo_Suites_V2.0.0/GD32F30x_Demo_Suites_V2.0.0/GD32F30x_Firmware_Library/GD32F30x_standard_peripheral/Source\gd32f30x_dac.c ****     \brief DAC driver
   4:C:/Users/49542/Desktop/GD32F30x_Demo_Suites_V2.0.0/GD32F30x_Demo_Suites_V2.0.0/GD32F30x_Firmware_Library/GD32F30x_standard_peripheral/Source\gd32f30x_dac.c **** 
   5:C:/Users/49542/Desktop/GD32F30x_Demo_Suites_V2.0.0/GD32F30x_Demo_Suites_V2.0.0/GD32F30x_Firmware_Library/GD32F30x_standard_peripheral/Source\gd32f30x_dac.c ****     \version 2017-02-10, V1.0.0, firmware for GD32F30x
   6:C:/Users/49542/Desktop/GD32F30x_Demo_Suites_V2.0.0/GD32F30x_Demo_Suites_V2.0.0/GD32F30x_Firmware_Library/GD32F30x_standard_peripheral/Source\gd32f30x_dac.c ****     \version 2018-10-10, V1.1.0, firmware for GD32F30x
   7:C:/Users/49542/Desktop/GD32F30x_Demo_Suites_V2.0.0/GD32F30x_Demo_Suites_V2.0.0/GD32F30x_Firmware_Library/GD32F30x_standard_peripheral/Source\gd32f30x_dac.c ****     \version 2018-12-25, V2.0.0, firmware for GD32F30x
   8:C:/Users/49542/Desktop/GD32F30x_Demo_Suites_V2.0.0/GD32F30x_Demo_Suites_V2.0.0/GD32F30x_Firmware_Library/GD32F30x_standard_peripheral/Source\gd32f30x_dac.c **** */
   9:C:/Users/49542/Desktop/GD32F30x_Demo_Suites_V2.0.0/GD32F30x_Demo_Suites_V2.0.0/GD32F30x_Firmware_Library/GD32F30x_standard_peripheral/Source\gd32f30x_dac.c **** 
  10:C:/Users/49542/Desktop/GD32F30x_Demo_Suites_V2.0.0/GD32F30x_Demo_Suites_V2.0.0/GD32F30x_Firmware_Library/GD32F30x_standard_peripheral/Source\gd32f30x_dac.c **** /*
  11:C:/Users/49542/Desktop/GD32F30x_Demo_Suites_V2.0.0/GD32F30x_Demo_Suites_V2.0.0/GD32F30x_Firmware_Library/GD32F30x_standard_peripheral/Source\gd32f30x_dac.c ****     Copyright (c) 2018, GigaDevice Semiconductor Inc.
  12:C:/Users/49542/Desktop/GD32F30x_Demo_Suites_V2.0.0/GD32F30x_Demo_Suites_V2.0.0/GD32F30x_Firmware_Library/GD32F30x_standard_peripheral/Source\gd32f30x_dac.c **** 
  13:C:/Users/49542/Desktop/GD32F30x_Demo_Suites_V2.0.0/GD32F30x_Demo_Suites_V2.0.0/GD32F30x_Firmware_Library/GD32F30x_standard_peripheral/Source\gd32f30x_dac.c ****     All rights reserved.
  14:C:/Users/49542/Desktop/GD32F30x_Demo_Suites_V2.0.0/GD32F30x_Demo_Suites_V2.0.0/GD32F30x_Firmware_Library/GD32F30x_standard_peripheral/Source\gd32f30x_dac.c **** 
  15:C:/Users/49542/Desktop/GD32F30x_Demo_Suites_V2.0.0/GD32F30x_Demo_Suites_V2.0.0/GD32F30x_Firmware_Library/GD32F30x_standard_peripheral/Source\gd32f30x_dac.c ****     Redistribution and use in source and binary forms, with or without modification, 
  16:C:/Users/49542/Desktop/GD32F30x_Demo_Suites_V2.0.0/GD32F30x_Demo_Suites_V2.0.0/GD32F30x_Firmware_Library/GD32F30x_standard_peripheral/Source\gd32f30x_dac.c **** are permitted provided that the following conditions are met:
  17:C:/Users/49542/Desktop/GD32F30x_Demo_Suites_V2.0.0/GD32F30x_Demo_Suites_V2.0.0/GD32F30x_Firmware_Library/GD32F30x_standard_peripheral/Source\gd32f30x_dac.c **** 
  18:C:/Users/49542/Desktop/GD32F30x_Demo_Suites_V2.0.0/GD32F30x_Demo_Suites_V2.0.0/GD32F30x_Firmware_Library/GD32F30x_standard_peripheral/Source\gd32f30x_dac.c ****     1. Redistributions of source code must retain the above copyright notice, this 
  19:C:/Users/49542/Desktop/GD32F30x_Demo_Suites_V2.0.0/GD32F30x_Demo_Suites_V2.0.0/GD32F30x_Firmware_Library/GD32F30x_standard_peripheral/Source\gd32f30x_dac.c ****        list of conditions and the following disclaimer.
  20:C:/Users/49542/Desktop/GD32F30x_Demo_Suites_V2.0.0/GD32F30x_Demo_Suites_V2.0.0/GD32F30x_Firmware_Library/GD32F30x_standard_peripheral/Source\gd32f30x_dac.c ****     2. Redistributions in binary form must reproduce the above copyright notice, 
  21:C:/Users/49542/Desktop/GD32F30x_Demo_Suites_V2.0.0/GD32F30x_Demo_Suites_V2.0.0/GD32F30x_Firmware_Library/GD32F30x_standard_peripheral/Source\gd32f30x_dac.c ****        this list of conditions and the following disclaimer in the documentation 
  22:C:/Users/49542/Desktop/GD32F30x_Demo_Suites_V2.0.0/GD32F30x_Demo_Suites_V2.0.0/GD32F30x_Firmware_Library/GD32F30x_standard_peripheral/Source\gd32f30x_dac.c ****        and/or other materials provided with the distribution.
  23:C:/Users/49542/Desktop/GD32F30x_Demo_Suites_V2.0.0/GD32F30x_Demo_Suites_V2.0.0/GD32F30x_Firmware_Library/GD32F30x_standard_peripheral/Source\gd32f30x_dac.c ****     3. Neither the name of the copyright holder nor the names of its contributors 
  24:C:/Users/49542/Desktop/GD32F30x_Demo_Suites_V2.0.0/GD32F30x_Demo_Suites_V2.0.0/GD32F30x_Firmware_Library/GD32F30x_standard_peripheral/Source\gd32f30x_dac.c ****        may be used to endorse or promote products derived from this software without 
  25:C:/Users/49542/Desktop/GD32F30x_Demo_Suites_V2.0.0/GD32F30x_Demo_Suites_V2.0.0/GD32F30x_Firmware_Library/GD32F30x_standard_peripheral/Source\gd32f30x_dac.c ****        specific prior written permission.
  26:C:/Users/49542/Desktop/GD32F30x_Demo_Suites_V2.0.0/GD32F30x_Demo_Suites_V2.0.0/GD32F30x_Firmware_Library/GD32F30x_standard_peripheral/Source\gd32f30x_dac.c **** 
  27:C:/Users/49542/Desktop/GD32F30x_Demo_Suites_V2.0.0/GD32F30x_Demo_Suites_V2.0.0/GD32F30x_Firmware_Library/GD32F30x_standard_peripheral/Source\gd32f30x_dac.c ****     THIS SOFTWARE IS PROVIDED BY THE COPYRIGHT HOLDERS AND CONTRIBUTORS "AS IS" 
  28:C:/Users/49542/Desktop/GD32F30x_Demo_Suites_V2.0.0/GD32F30x_Demo_Suites_V2.0.0/GD32F30x_Firmware_Library/GD32F30x_standard_peripheral/Source\gd32f30x_dac.c **** AND ANY EXPRESS OR IMPLIED WARRANTIES, INCLUDING, BUT NOT LIMITED TO, THE IMPLIED 
  29:C:/Users/49542/Desktop/GD32F30x_Demo_Suites_V2.0.0/GD32F30x_Demo_Suites_V2.0.0/GD32F30x_Firmware_Library/GD32F30x_standard_peripheral/Source\gd32f30x_dac.c **** WARRANTIES OF MERCHANTABILITY AND FITNESS FOR A PARTICULAR PURPOSE ARE DISCLAIMED. 
  30:C:/Users/49542/Desktop/GD32F30x_Demo_Suites_V2.0.0/GD32F30x_Demo_Suites_V2.0.0/GD32F30x_Firmware_Library/GD32F30x_standard_peripheral/Source\gd32f30x_dac.c **** IN NO EVENT SHALL THE COPYRIGHT HOLDER OR CONTRIBUTORS BE LIABLE FOR ANY DIRECT, 
  31:C:/Users/49542/Desktop/GD32F30x_Demo_Suites_V2.0.0/GD32F30x_Demo_Suites_V2.0.0/GD32F30x_Firmware_Library/GD32F30x_standard_peripheral/Source\gd32f30x_dac.c **** INDIRECT, INCIDENTAL, SPECIAL, EXEMPLARY, OR CONSEQUENTIAL DAMAGES (INCLUDING, BUT 
ARM GAS  C:\Users\49542\AppData\Local\Temp\cc1SF7Vt.s 			page 2


  32:C:/Users/49542/Desktop/GD32F30x_Demo_Suites_V2.0.0/GD32F30x_Demo_Suites_V2.0.0/GD32F30x_Firmware_Library/GD32F30x_standard_peripheral/Source\gd32f30x_dac.c **** NOT LIMITED TO, PROCUREMENT OF SUBSTITUTE GOODS OR SERVICES; LOSS OF USE, DATA, OR 
  33:C:/Users/49542/Desktop/GD32F30x_Demo_Suites_V2.0.0/GD32F30x_Demo_Suites_V2.0.0/GD32F30x_Firmware_Library/GD32F30x_standard_peripheral/Source\gd32f30x_dac.c **** PROFITS; OR BUSINESS INTERRUPTION) HOWEVER CAUSED AND ON ANY THEORY OF LIABILITY, 
  34:C:/Users/49542/Desktop/GD32F30x_Demo_Suites_V2.0.0/GD32F30x_Demo_Suites_V2.0.0/GD32F30x_Firmware_Library/GD32F30x_standard_peripheral/Source\gd32f30x_dac.c **** WHETHER IN CONTRACT, STRICT LIABILITY, OR TORT (INCLUDING NEGLIGENCE OR OTHERWISE) 
  35:C:/Users/49542/Desktop/GD32F30x_Demo_Suites_V2.0.0/GD32F30x_Demo_Suites_V2.0.0/GD32F30x_Firmware_Library/GD32F30x_standard_peripheral/Source\gd32f30x_dac.c **** ARISING IN ANY WAY OUT OF THE USE OF THIS SOFTWARE, EVEN IF ADVISED OF THE POSSIBILITY 
  36:C:/Users/49542/Desktop/GD32F30x_Demo_Suites_V2.0.0/GD32F30x_Demo_Suites_V2.0.0/GD32F30x_Firmware_Library/GD32F30x_standard_peripheral/Source\gd32f30x_dac.c **** OF SUCH DAMAGE.
  37:C:/Users/49542/Desktop/GD32F30x_Demo_Suites_V2.0.0/GD32F30x_Demo_Suites_V2.0.0/GD32F30x_Firmware_Library/GD32F30x_standard_peripheral/Source\gd32f30x_dac.c **** */
  38:C:/Users/49542/Desktop/GD32F30x_Demo_Suites_V2.0.0/GD32F30x_Demo_Suites_V2.0.0/GD32F30x_Firmware_Library/GD32F30x_standard_peripheral/Source\gd32f30x_dac.c **** 
  39:C:/Users/49542/Desktop/GD32F30x_Demo_Suites_V2.0.0/GD32F30x_Demo_Suites_V2.0.0/GD32F30x_Firmware_Library/GD32F30x_standard_peripheral/Source\gd32f30x_dac.c **** #include "gd32f30x_dac.h"
  40:C:/Users/49542/Desktop/GD32F30x_Demo_Suites_V2.0.0/GD32F30x_Demo_Suites_V2.0.0/GD32F30x_Firmware_Library/GD32F30x_standard_peripheral/Source\gd32f30x_dac.c **** 
  41:C:/Users/49542/Desktop/GD32F30x_Demo_Suites_V2.0.0/GD32F30x_Demo_Suites_V2.0.0/GD32F30x_Firmware_Library/GD32F30x_standard_peripheral/Source\gd32f30x_dac.c **** /* DAC register bit offset */
  42:C:/Users/49542/Desktop/GD32F30x_Demo_Suites_V2.0.0/GD32F30x_Demo_Suites_V2.0.0/GD32F30x_Firmware_Library/GD32F30x_standard_peripheral/Source\gd32f30x_dac.c **** #define DAC1_REG_OFFSET             ((uint32_t)16U)
  43:C:/Users/49542/Desktop/GD32F30x_Demo_Suites_V2.0.0/GD32F30x_Demo_Suites_V2.0.0/GD32F30x_Firmware_Library/GD32F30x_standard_peripheral/Source\gd32f30x_dac.c **** #define DH_12BIT_OFFSET             ((uint32_t)16U)
  44:C:/Users/49542/Desktop/GD32F30x_Demo_Suites_V2.0.0/GD32F30x_Demo_Suites_V2.0.0/GD32F30x_Firmware_Library/GD32F30x_standard_peripheral/Source\gd32f30x_dac.c **** #define DH_8BIT_OFFSET              ((uint32_t)8U)
  45:C:/Users/49542/Desktop/GD32F30x_Demo_Suites_V2.0.0/GD32F30x_Demo_Suites_V2.0.0/GD32F30x_Firmware_Library/GD32F30x_standard_peripheral/Source\gd32f30x_dac.c **** 
  46:C:/Users/49542/Desktop/GD32F30x_Demo_Suites_V2.0.0/GD32F30x_Demo_Suites_V2.0.0/GD32F30x_Firmware_Library/GD32F30x_standard_peripheral/Source\gd32f30x_dac.c **** /*!
  47:C:/Users/49542/Desktop/GD32F30x_Demo_Suites_V2.0.0/GD32F30x_Demo_Suites_V2.0.0/GD32F30x_Firmware_Library/GD32F30x_standard_peripheral/Source\gd32f30x_dac.c ****     \brief      deinitialize DAC
  48:C:/Users/49542/Desktop/GD32F30x_Demo_Suites_V2.0.0/GD32F30x_Demo_Suites_V2.0.0/GD32F30x_Firmware_Library/GD32F30x_standard_peripheral/Source\gd32f30x_dac.c ****     \param[in]  none
  49:C:/Users/49542/Desktop/GD32F30x_Demo_Suites_V2.0.0/GD32F30x_Demo_Suites_V2.0.0/GD32F30x_Firmware_Library/GD32F30x_standard_peripheral/Source\gd32f30x_dac.c ****     \param[out] none
  50:C:/Users/49542/Desktop/GD32F30x_Demo_Suites_V2.0.0/GD32F30x_Demo_Suites_V2.0.0/GD32F30x_Firmware_Library/GD32F30x_standard_peripheral/Source\gd32f30x_dac.c ****     \retval     none
  51:C:/Users/49542/Desktop/GD32F30x_Demo_Suites_V2.0.0/GD32F30x_Demo_Suites_V2.0.0/GD32F30x_Firmware_Library/GD32F30x_standard_peripheral/Source\gd32f30x_dac.c **** */
  52:C:/Users/49542/Desktop/GD32F30x_Demo_Suites_V2.0.0/GD32F30x_Demo_Suites_V2.0.0/GD32F30x_Firmware_Library/GD32F30x_standard_peripheral/Source\gd32f30x_dac.c **** void dac_deinit(void)
  53:C:/Users/49542/Desktop/GD32F30x_Demo_Suites_V2.0.0/GD32F30x_Demo_Suites_V2.0.0/GD32F30x_Firmware_Library/GD32F30x_standard_peripheral/Source\gd32f30x_dac.c **** {
  28              		.loc 1 53 0
  29              		.cfi_startproc
  30              		@ args = 0, pretend = 0, frame = 0
  31              		@ frame_needed = 1, uses_anonymous_args = 0
  32 0000 80B5     		push	{r7, lr}
  33              	.LCFI0:
  34              		.cfi_def_cfa_offset 8
  35              		.cfi_offset 7, -8
  36              		.cfi_offset 14, -4
  37 0002 00AF     		add	r7, sp, #0
  38              	.LCFI1:
  39              		.cfi_def_cfa_register 7
  54:C:/Users/49542/Desktop/GD32F30x_Demo_Suites_V2.0.0/GD32F30x_Demo_Suites_V2.0.0/GD32F30x_Firmware_Library/GD32F30x_standard_peripheral/Source\gd32f30x_dac.c ****     rcu_periph_reset_enable(RCU_DACRST);
  40              		.loc 1 54 0
  41 0004 40F21D40 		movw	r0, #1053
  42 0008 FFF7FEFF 		bl	rcu_periph_reset_enable
  55:C:/Users/49542/Desktop/GD32F30x_Demo_Suites_V2.0.0/GD32F30x_Demo_Suites_V2.0.0/GD32F30x_Firmware_Library/GD32F30x_standard_peripheral/Source\gd32f30x_dac.c ****     rcu_periph_reset_disable(RCU_DACRST);
  43              		.loc 1 55 0
  44 000c 40F21D40 		movw	r0, #1053
  45 0010 FFF7FEFF 		bl	rcu_periph_reset_disable
  56:C:/Users/49542/Desktop/GD32F30x_Demo_Suites_V2.0.0/GD32F30x_Demo_Suites_V2.0.0/GD32F30x_Firmware_Library/GD32F30x_standard_peripheral/Source\gd32f30x_dac.c **** }
  46              		.loc 1 56 0
  47 0014 00BF     		nop
  48 0016 80BD     		pop	{r7, pc}
  49              		.cfi_endproc
  50              	.LFE116:
  52              		.section	.text.dac_enable,"ax",%progbits
  53              		.align	1
  54              		.global	dac_enable
  55              		.syntax unified
  56              		.thumb
  57              		.thumb_func
  58              		.fpu fpv4-sp-d16
  60              	dac_enable:
  61              	.LFB117:
ARM GAS  C:\Users\49542\AppData\Local\Temp\cc1SF7Vt.s 			page 3


  57:C:/Users/49542/Desktop/GD32F30x_Demo_Suites_V2.0.0/GD32F30x_Demo_Suites_V2.0.0/GD32F30x_Firmware_Library/GD32F30x_standard_peripheral/Source\gd32f30x_dac.c **** 
  58:C:/Users/49542/Desktop/GD32F30x_Demo_Suites_V2.0.0/GD32F30x_Demo_Suites_V2.0.0/GD32F30x_Firmware_Library/GD32F30x_standard_peripheral/Source\gd32f30x_dac.c **** /*!
  59:C:/Users/49542/Desktop/GD32F30x_Demo_Suites_V2.0.0/GD32F30x_Demo_Suites_V2.0.0/GD32F30x_Firmware_Library/GD32F30x_standard_peripheral/Source\gd32f30x_dac.c ****     \brief      enable DAC
  60:C:/Users/49542/Desktop/GD32F30x_Demo_Suites_V2.0.0/GD32F30x_Demo_Suites_V2.0.0/GD32F30x_Firmware_Library/GD32F30x_standard_peripheral/Source\gd32f30x_dac.c ****     \param[in]  dac_periph: DACx(x = 0,1)
  61:C:/Users/49542/Desktop/GD32F30x_Demo_Suites_V2.0.0/GD32F30x_Demo_Suites_V2.0.0/GD32F30x_Firmware_Library/GD32F30x_standard_peripheral/Source\gd32f30x_dac.c ****     \param[out] none
  62:C:/Users/49542/Desktop/GD32F30x_Demo_Suites_V2.0.0/GD32F30x_Demo_Suites_V2.0.0/GD32F30x_Firmware_Library/GD32F30x_standard_peripheral/Source\gd32f30x_dac.c ****     \retval     none
  63:C:/Users/49542/Desktop/GD32F30x_Demo_Suites_V2.0.0/GD32F30x_Demo_Suites_V2.0.0/GD32F30x_Firmware_Library/GD32F30x_standard_peripheral/Source\gd32f30x_dac.c **** */
  64:C:/Users/49542/Desktop/GD32F30x_Demo_Suites_V2.0.0/GD32F30x_Demo_Suites_V2.0.0/GD32F30x_Firmware_Library/GD32F30x_standard_peripheral/Source\gd32f30x_dac.c **** void dac_enable(uint32_t dac_periph)
  65:C:/Users/49542/Desktop/GD32F30x_Demo_Suites_V2.0.0/GD32F30x_Demo_Suites_V2.0.0/GD32F30x_Firmware_Library/GD32F30x_standard_peripheral/Source\gd32f30x_dac.c **** {
  62              		.loc 1 65 0
  63              		.cfi_startproc
  64              		@ args = 0, pretend = 0, frame = 8
  65              		@ frame_needed = 1, uses_anonymous_args = 0
  66              		@ link register save eliminated.
  67 0000 80B4     		push	{r7}
  68              	.LCFI2:
  69              		.cfi_def_cfa_offset 4
  70              		.cfi_offset 7, -4
  71 0002 83B0     		sub	sp, sp, #12
  72              	.LCFI3:
  73              		.cfi_def_cfa_offset 16
  74 0004 00AF     		add	r7, sp, #0
  75              	.LCFI4:
  76              		.cfi_def_cfa_register 7
  77 0006 7860     		str	r0, [r7, #4]
  66:C:/Users/49542/Desktop/GD32F30x_Demo_Suites_V2.0.0/GD32F30x_Demo_Suites_V2.0.0/GD32F30x_Firmware_Library/GD32F30x_standard_peripheral/Source\gd32f30x_dac.c ****     if(DAC0 == dac_periph){
  78              		.loc 1 66 0
  79 0008 7B68     		ldr	r3, [r7, #4]
  80 000a 002B     		cmp	r3, #0
  81 000c 06D1     		bne	.L3
  67:C:/Users/49542/Desktop/GD32F30x_Demo_Suites_V2.0.0/GD32F30x_Demo_Suites_V2.0.0/GD32F30x_Firmware_Library/GD32F30x_standard_peripheral/Source\gd32f30x_dac.c ****         DAC_CTL |= DAC_CTL_DEN0;
  82              		.loc 1 67 0
  83 000e 094B     		ldr	r3, .L6
  84 0010 1B68     		ldr	r3, [r3]
  85 0012 084A     		ldr	r2, .L6
  86 0014 43F00103 		orr	r3, r3, #1
  87 0018 1360     		str	r3, [r2]
  68:C:/Users/49542/Desktop/GD32F30x_Demo_Suites_V2.0.0/GD32F30x_Demo_Suites_V2.0.0/GD32F30x_Firmware_Library/GD32F30x_standard_peripheral/Source\gd32f30x_dac.c ****     }else{
  69:C:/Users/49542/Desktop/GD32F30x_Demo_Suites_V2.0.0/GD32F30x_Demo_Suites_V2.0.0/GD32F30x_Firmware_Library/GD32F30x_standard_peripheral/Source\gd32f30x_dac.c ****         DAC_CTL |= DAC_CTL_DEN1;
  70:C:/Users/49542/Desktop/GD32F30x_Demo_Suites_V2.0.0/GD32F30x_Demo_Suites_V2.0.0/GD32F30x_Firmware_Library/GD32F30x_standard_peripheral/Source\gd32f30x_dac.c ****     }
  71:C:/Users/49542/Desktop/GD32F30x_Demo_Suites_V2.0.0/GD32F30x_Demo_Suites_V2.0.0/GD32F30x_Firmware_Library/GD32F30x_standard_peripheral/Source\gd32f30x_dac.c **** } 
  88              		.loc 1 71 0
  89 001a 05E0     		b	.L5
  90              	.L3:
  69:C:/Users/49542/Desktop/GD32F30x_Demo_Suites_V2.0.0/GD32F30x_Demo_Suites_V2.0.0/GD32F30x_Firmware_Library/GD32F30x_standard_peripheral/Source\gd32f30x_dac.c ****     }
  91              		.loc 1 69 0
  92 001c 054B     		ldr	r3, .L6
  93 001e 1B68     		ldr	r3, [r3]
  94 0020 044A     		ldr	r2, .L6
  95 0022 43F48033 		orr	r3, r3, #65536
  96 0026 1360     		str	r3, [r2]
  97              	.L5:
  98              		.loc 1 71 0
  99 0028 00BF     		nop
 100 002a 0C37     		adds	r7, r7, #12
 101              	.LCFI5:
 102              		.cfi_def_cfa_offset 4
ARM GAS  C:\Users\49542\AppData\Local\Temp\cc1SF7Vt.s 			page 4


 103 002c BD46     		mov	sp, r7
 104              	.LCFI6:
 105              		.cfi_def_cfa_register 13
 106              		@ sp needed
 107 002e 5DF8047B 		ldr	r7, [sp], #4
 108              	.LCFI7:
 109              		.cfi_restore 7
 110              		.cfi_def_cfa_offset 0
 111 0032 7047     		bx	lr
 112              	.L7:
 113              		.align	2
 114              	.L6:
 115 0034 00740040 		.word	1073771520
 116              		.cfi_endproc
 117              	.LFE117:
 119              		.section	.text.dac_disable,"ax",%progbits
 120              		.align	1
 121              		.global	dac_disable
 122              		.syntax unified
 123              		.thumb
 124              		.thumb_func
 125              		.fpu fpv4-sp-d16
 127              	dac_disable:
 128              	.LFB118:
  72:C:/Users/49542/Desktop/GD32F30x_Demo_Suites_V2.0.0/GD32F30x_Demo_Suites_V2.0.0/GD32F30x_Firmware_Library/GD32F30x_standard_peripheral/Source\gd32f30x_dac.c **** 
  73:C:/Users/49542/Desktop/GD32F30x_Demo_Suites_V2.0.0/GD32F30x_Demo_Suites_V2.0.0/GD32F30x_Firmware_Library/GD32F30x_standard_peripheral/Source\gd32f30x_dac.c **** /*!
  74:C:/Users/49542/Desktop/GD32F30x_Demo_Suites_V2.0.0/GD32F30x_Demo_Suites_V2.0.0/GD32F30x_Firmware_Library/GD32F30x_standard_peripheral/Source\gd32f30x_dac.c ****     \brief      disable DAC
  75:C:/Users/49542/Desktop/GD32F30x_Demo_Suites_V2.0.0/GD32F30x_Demo_Suites_V2.0.0/GD32F30x_Firmware_Library/GD32F30x_standard_peripheral/Source\gd32f30x_dac.c ****     \param[in]  dac_periph: DACx(x = 0,1)
  76:C:/Users/49542/Desktop/GD32F30x_Demo_Suites_V2.0.0/GD32F30x_Demo_Suites_V2.0.0/GD32F30x_Firmware_Library/GD32F30x_standard_peripheral/Source\gd32f30x_dac.c ****     \param[out] none
  77:C:/Users/49542/Desktop/GD32F30x_Demo_Suites_V2.0.0/GD32F30x_Demo_Suites_V2.0.0/GD32F30x_Firmware_Library/GD32F30x_standard_peripheral/Source\gd32f30x_dac.c ****     \retval     none
  78:C:/Users/49542/Desktop/GD32F30x_Demo_Suites_V2.0.0/GD32F30x_Demo_Suites_V2.0.0/GD32F30x_Firmware_Library/GD32F30x_standard_peripheral/Source\gd32f30x_dac.c **** */
  79:C:/Users/49542/Desktop/GD32F30x_Demo_Suites_V2.0.0/GD32F30x_Demo_Suites_V2.0.0/GD32F30x_Firmware_Library/GD32F30x_standard_peripheral/Source\gd32f30x_dac.c **** void dac_disable(uint32_t dac_periph)
  80:C:/Users/49542/Desktop/GD32F30x_Demo_Suites_V2.0.0/GD32F30x_Demo_Suites_V2.0.0/GD32F30x_Firmware_Library/GD32F30x_standard_peripheral/Source\gd32f30x_dac.c **** {
 129              		.loc 1 80 0
 130              		.cfi_startproc
 131              		@ args = 0, pretend = 0, frame = 8
 132              		@ frame_needed = 1, uses_anonymous_args = 0
 133              		@ link register save eliminated.
 134 0000 80B4     		push	{r7}
 135              	.LCFI8:
 136              		.cfi_def_cfa_offset 4
 137              		.cfi_offset 7, -4
 138 0002 83B0     		sub	sp, sp, #12
 139              	.LCFI9:
 140              		.cfi_def_cfa_offset 16
 141 0004 00AF     		add	r7, sp, #0
 142              	.LCFI10:
 143              		.cfi_def_cfa_register 7
 144 0006 7860     		str	r0, [r7, #4]
  81:C:/Users/49542/Desktop/GD32F30x_Demo_Suites_V2.0.0/GD32F30x_Demo_Suites_V2.0.0/GD32F30x_Firmware_Library/GD32F30x_standard_peripheral/Source\gd32f30x_dac.c ****     if(DAC0 == dac_periph){
 145              		.loc 1 81 0
 146 0008 7B68     		ldr	r3, [r7, #4]
 147 000a 002B     		cmp	r3, #0
 148 000c 06D1     		bne	.L9
  82:C:/Users/49542/Desktop/GD32F30x_Demo_Suites_V2.0.0/GD32F30x_Demo_Suites_V2.0.0/GD32F30x_Firmware_Library/GD32F30x_standard_peripheral/Source\gd32f30x_dac.c ****         DAC_CTL &= ~DAC_CTL_DEN0;
 149              		.loc 1 82 0
 150 000e 094B     		ldr	r3, .L12
ARM GAS  C:\Users\49542\AppData\Local\Temp\cc1SF7Vt.s 			page 5


 151 0010 1B68     		ldr	r3, [r3]
 152 0012 084A     		ldr	r2, .L12
 153 0014 23F00103 		bic	r3, r3, #1
 154 0018 1360     		str	r3, [r2]
  83:C:/Users/49542/Desktop/GD32F30x_Demo_Suites_V2.0.0/GD32F30x_Demo_Suites_V2.0.0/GD32F30x_Firmware_Library/GD32F30x_standard_peripheral/Source\gd32f30x_dac.c ****     }else{
  84:C:/Users/49542/Desktop/GD32F30x_Demo_Suites_V2.0.0/GD32F30x_Demo_Suites_V2.0.0/GD32F30x_Firmware_Library/GD32F30x_standard_peripheral/Source\gd32f30x_dac.c ****         DAC_CTL &= ~DAC_CTL_DEN1;
  85:C:/Users/49542/Desktop/GD32F30x_Demo_Suites_V2.0.0/GD32F30x_Demo_Suites_V2.0.0/GD32F30x_Firmware_Library/GD32F30x_standard_peripheral/Source\gd32f30x_dac.c ****     }
  86:C:/Users/49542/Desktop/GD32F30x_Demo_Suites_V2.0.0/GD32F30x_Demo_Suites_V2.0.0/GD32F30x_Firmware_Library/GD32F30x_standard_peripheral/Source\gd32f30x_dac.c **** }
 155              		.loc 1 86 0
 156 001a 05E0     		b	.L11
 157              	.L9:
  84:C:/Users/49542/Desktop/GD32F30x_Demo_Suites_V2.0.0/GD32F30x_Demo_Suites_V2.0.0/GD32F30x_Firmware_Library/GD32F30x_standard_peripheral/Source\gd32f30x_dac.c ****     }
 158              		.loc 1 84 0
 159 001c 054B     		ldr	r3, .L12
 160 001e 1B68     		ldr	r3, [r3]
 161 0020 044A     		ldr	r2, .L12
 162 0022 23F48033 		bic	r3, r3, #65536
 163 0026 1360     		str	r3, [r2]
 164              	.L11:
 165              		.loc 1 86 0
 166 0028 00BF     		nop
 167 002a 0C37     		adds	r7, r7, #12
 168              	.LCFI11:
 169              		.cfi_def_cfa_offset 4
 170 002c BD46     		mov	sp, r7
 171              	.LCFI12:
 172              		.cfi_def_cfa_register 13
 173              		@ sp needed
 174 002e 5DF8047B 		ldr	r7, [sp], #4
 175              	.LCFI13:
 176              		.cfi_restore 7
 177              		.cfi_def_cfa_offset 0
 178 0032 7047     		bx	lr
 179              	.L13:
 180              		.align	2
 181              	.L12:
 182 0034 00740040 		.word	1073771520
 183              		.cfi_endproc
 184              	.LFE118:
 186              		.section	.text.dac_dma_enable,"ax",%progbits
 187              		.align	1
 188              		.global	dac_dma_enable
 189              		.syntax unified
 190              		.thumb
 191              		.thumb_func
 192              		.fpu fpv4-sp-d16
 194              	dac_dma_enable:
 195              	.LFB119:
  87:C:/Users/49542/Desktop/GD32F30x_Demo_Suites_V2.0.0/GD32F30x_Demo_Suites_V2.0.0/GD32F30x_Firmware_Library/GD32F30x_standard_peripheral/Source\gd32f30x_dac.c **** 
  88:C:/Users/49542/Desktop/GD32F30x_Demo_Suites_V2.0.0/GD32F30x_Demo_Suites_V2.0.0/GD32F30x_Firmware_Library/GD32F30x_standard_peripheral/Source\gd32f30x_dac.c **** /*!
  89:C:/Users/49542/Desktop/GD32F30x_Demo_Suites_V2.0.0/GD32F30x_Demo_Suites_V2.0.0/GD32F30x_Firmware_Library/GD32F30x_standard_peripheral/Source\gd32f30x_dac.c ****     \brief      enable DAC DMA function
  90:C:/Users/49542/Desktop/GD32F30x_Demo_Suites_V2.0.0/GD32F30x_Demo_Suites_V2.0.0/GD32F30x_Firmware_Library/GD32F30x_standard_peripheral/Source\gd32f30x_dac.c ****     \param[in]  dac_periph: DACx(x = 0,1)
  91:C:/Users/49542/Desktop/GD32F30x_Demo_Suites_V2.0.0/GD32F30x_Demo_Suites_V2.0.0/GD32F30x_Firmware_Library/GD32F30x_standard_peripheral/Source\gd32f30x_dac.c ****     \param[out] none
  92:C:/Users/49542/Desktop/GD32F30x_Demo_Suites_V2.0.0/GD32F30x_Demo_Suites_V2.0.0/GD32F30x_Firmware_Library/GD32F30x_standard_peripheral/Source\gd32f30x_dac.c ****     \retval     none
  93:C:/Users/49542/Desktop/GD32F30x_Demo_Suites_V2.0.0/GD32F30x_Demo_Suites_V2.0.0/GD32F30x_Firmware_Library/GD32F30x_standard_peripheral/Source\gd32f30x_dac.c **** */
  94:C:/Users/49542/Desktop/GD32F30x_Demo_Suites_V2.0.0/GD32F30x_Demo_Suites_V2.0.0/GD32F30x_Firmware_Library/GD32F30x_standard_peripheral/Source\gd32f30x_dac.c **** void dac_dma_enable(uint32_t dac_periph)
  95:C:/Users/49542/Desktop/GD32F30x_Demo_Suites_V2.0.0/GD32F30x_Demo_Suites_V2.0.0/GD32F30x_Firmware_Library/GD32F30x_standard_peripheral/Source\gd32f30x_dac.c **** {
ARM GAS  C:\Users\49542\AppData\Local\Temp\cc1SF7Vt.s 			page 6


 196              		.loc 1 95 0
 197              		.cfi_startproc
 198              		@ args = 0, pretend = 0, frame = 8
 199              		@ frame_needed = 1, uses_anonymous_args = 0
 200              		@ link register save eliminated.
 201 0000 80B4     		push	{r7}
 202              	.LCFI14:
 203              		.cfi_def_cfa_offset 4
 204              		.cfi_offset 7, -4
 205 0002 83B0     		sub	sp, sp, #12
 206              	.LCFI15:
 207              		.cfi_def_cfa_offset 16
 208 0004 00AF     		add	r7, sp, #0
 209              	.LCFI16:
 210              		.cfi_def_cfa_register 7
 211 0006 7860     		str	r0, [r7, #4]
  96:C:/Users/49542/Desktop/GD32F30x_Demo_Suites_V2.0.0/GD32F30x_Demo_Suites_V2.0.0/GD32F30x_Firmware_Library/GD32F30x_standard_peripheral/Source\gd32f30x_dac.c ****     if(DAC0 == dac_periph){
 212              		.loc 1 96 0
 213 0008 7B68     		ldr	r3, [r7, #4]
 214 000a 002B     		cmp	r3, #0
 215 000c 06D1     		bne	.L15
  97:C:/Users/49542/Desktop/GD32F30x_Demo_Suites_V2.0.0/GD32F30x_Demo_Suites_V2.0.0/GD32F30x_Firmware_Library/GD32F30x_standard_peripheral/Source\gd32f30x_dac.c ****         DAC_CTL |= DAC_CTL_DDMAEN0;
 216              		.loc 1 97 0
 217 000e 094B     		ldr	r3, .L18
 218 0010 1B68     		ldr	r3, [r3]
 219 0012 084A     		ldr	r2, .L18
 220 0014 43F48053 		orr	r3, r3, #4096
 221 0018 1360     		str	r3, [r2]
  98:C:/Users/49542/Desktop/GD32F30x_Demo_Suites_V2.0.0/GD32F30x_Demo_Suites_V2.0.0/GD32F30x_Firmware_Library/GD32F30x_standard_peripheral/Source\gd32f30x_dac.c ****     }else{
  99:C:/Users/49542/Desktop/GD32F30x_Demo_Suites_V2.0.0/GD32F30x_Demo_Suites_V2.0.0/GD32F30x_Firmware_Library/GD32F30x_standard_peripheral/Source\gd32f30x_dac.c ****         DAC_CTL |= DAC_CTL_DDMAEN1;
 100:C:/Users/49542/Desktop/GD32F30x_Demo_Suites_V2.0.0/GD32F30x_Demo_Suites_V2.0.0/GD32F30x_Firmware_Library/GD32F30x_standard_peripheral/Source\gd32f30x_dac.c ****     }
 101:C:/Users/49542/Desktop/GD32F30x_Demo_Suites_V2.0.0/GD32F30x_Demo_Suites_V2.0.0/GD32F30x_Firmware_Library/GD32F30x_standard_peripheral/Source\gd32f30x_dac.c **** }
 222              		.loc 1 101 0
 223 001a 05E0     		b	.L17
 224              	.L15:
  99:C:/Users/49542/Desktop/GD32F30x_Demo_Suites_V2.0.0/GD32F30x_Demo_Suites_V2.0.0/GD32F30x_Firmware_Library/GD32F30x_standard_peripheral/Source\gd32f30x_dac.c ****     }
 225              		.loc 1 99 0
 226 001c 054B     		ldr	r3, .L18
 227 001e 1B68     		ldr	r3, [r3]
 228 0020 044A     		ldr	r2, .L18
 229 0022 43F08053 		orr	r3, r3, #268435456
 230 0026 1360     		str	r3, [r2]
 231              	.L17:
 232              		.loc 1 101 0
 233 0028 00BF     		nop
 234 002a 0C37     		adds	r7, r7, #12
 235              	.LCFI17:
 236              		.cfi_def_cfa_offset 4
 237 002c BD46     		mov	sp, r7
 238              	.LCFI18:
 239              		.cfi_def_cfa_register 13
 240              		@ sp needed
 241 002e 5DF8047B 		ldr	r7, [sp], #4
 242              	.LCFI19:
 243              		.cfi_restore 7
 244              		.cfi_def_cfa_offset 0
 245 0032 7047     		bx	lr
ARM GAS  C:\Users\49542\AppData\Local\Temp\cc1SF7Vt.s 			page 7


 246              	.L19:
 247              		.align	2
 248              	.L18:
 249 0034 00740040 		.word	1073771520
 250              		.cfi_endproc
 251              	.LFE119:
 253              		.section	.text.dac_dma_disable,"ax",%progbits
 254              		.align	1
 255              		.global	dac_dma_disable
 256              		.syntax unified
 257              		.thumb
 258              		.thumb_func
 259              		.fpu fpv4-sp-d16
 261              	dac_dma_disable:
 262              	.LFB120:
 102:C:/Users/49542/Desktop/GD32F30x_Demo_Suites_V2.0.0/GD32F30x_Demo_Suites_V2.0.0/GD32F30x_Firmware_Library/GD32F30x_standard_peripheral/Source\gd32f30x_dac.c **** 
 103:C:/Users/49542/Desktop/GD32F30x_Demo_Suites_V2.0.0/GD32F30x_Demo_Suites_V2.0.0/GD32F30x_Firmware_Library/GD32F30x_standard_peripheral/Source\gd32f30x_dac.c **** /*!
 104:C:/Users/49542/Desktop/GD32F30x_Demo_Suites_V2.0.0/GD32F30x_Demo_Suites_V2.0.0/GD32F30x_Firmware_Library/GD32F30x_standard_peripheral/Source\gd32f30x_dac.c ****     \brief      disable DAC DMA function
 105:C:/Users/49542/Desktop/GD32F30x_Demo_Suites_V2.0.0/GD32F30x_Demo_Suites_V2.0.0/GD32F30x_Firmware_Library/GD32F30x_standard_peripheral/Source\gd32f30x_dac.c ****     \param[in]  dac_periph: DACx(x = 0,1)
 106:C:/Users/49542/Desktop/GD32F30x_Demo_Suites_V2.0.0/GD32F30x_Demo_Suites_V2.0.0/GD32F30x_Firmware_Library/GD32F30x_standard_peripheral/Source\gd32f30x_dac.c ****     \param[out] none
 107:C:/Users/49542/Desktop/GD32F30x_Demo_Suites_V2.0.0/GD32F30x_Demo_Suites_V2.0.0/GD32F30x_Firmware_Library/GD32F30x_standard_peripheral/Source\gd32f30x_dac.c ****     \retval     none
 108:C:/Users/49542/Desktop/GD32F30x_Demo_Suites_V2.0.0/GD32F30x_Demo_Suites_V2.0.0/GD32F30x_Firmware_Library/GD32F30x_standard_peripheral/Source\gd32f30x_dac.c **** */
 109:C:/Users/49542/Desktop/GD32F30x_Demo_Suites_V2.0.0/GD32F30x_Demo_Suites_V2.0.0/GD32F30x_Firmware_Library/GD32F30x_standard_peripheral/Source\gd32f30x_dac.c **** void dac_dma_disable(uint32_t dac_periph)
 110:C:/Users/49542/Desktop/GD32F30x_Demo_Suites_V2.0.0/GD32F30x_Demo_Suites_V2.0.0/GD32F30x_Firmware_Library/GD32F30x_standard_peripheral/Source\gd32f30x_dac.c **** {
 263              		.loc 1 110 0
 264              		.cfi_startproc
 265              		@ args = 0, pretend = 0, frame = 8
 266              		@ frame_needed = 1, uses_anonymous_args = 0
 267              		@ link register save eliminated.
 268 0000 80B4     		push	{r7}
 269              	.LCFI20:
 270              		.cfi_def_cfa_offset 4
 271              		.cfi_offset 7, -4
 272 0002 83B0     		sub	sp, sp, #12
 273              	.LCFI21:
 274              		.cfi_def_cfa_offset 16
 275 0004 00AF     		add	r7, sp, #0
 276              	.LCFI22:
 277              		.cfi_def_cfa_register 7
 278 0006 7860     		str	r0, [r7, #4]
 111:C:/Users/49542/Desktop/GD32F30x_Demo_Suites_V2.0.0/GD32F30x_Demo_Suites_V2.0.0/GD32F30x_Firmware_Library/GD32F30x_standard_peripheral/Source\gd32f30x_dac.c ****     if(DAC0 == dac_periph){
 279              		.loc 1 111 0
 280 0008 7B68     		ldr	r3, [r7, #4]
 281 000a 002B     		cmp	r3, #0
 282 000c 06D1     		bne	.L21
 112:C:/Users/49542/Desktop/GD32F30x_Demo_Suites_V2.0.0/GD32F30x_Demo_Suites_V2.0.0/GD32F30x_Firmware_Library/GD32F30x_standard_peripheral/Source\gd32f30x_dac.c ****         DAC_CTL &= ~DAC_CTL_DDMAEN0;
 283              		.loc 1 112 0
 284 000e 094B     		ldr	r3, .L24
 285 0010 1B68     		ldr	r3, [r3]
 286 0012 084A     		ldr	r2, .L24
 287 0014 23F48053 		bic	r3, r3, #4096
 288 0018 1360     		str	r3, [r2]
 113:C:/Users/49542/Desktop/GD32F30x_Demo_Suites_V2.0.0/GD32F30x_Demo_Suites_V2.0.0/GD32F30x_Firmware_Library/GD32F30x_standard_peripheral/Source\gd32f30x_dac.c ****     }else{
 114:C:/Users/49542/Desktop/GD32F30x_Demo_Suites_V2.0.0/GD32F30x_Demo_Suites_V2.0.0/GD32F30x_Firmware_Library/GD32F30x_standard_peripheral/Source\gd32f30x_dac.c ****         DAC_CTL &= ~DAC_CTL_DDMAEN1;
 115:C:/Users/49542/Desktop/GD32F30x_Demo_Suites_V2.0.0/GD32F30x_Demo_Suites_V2.0.0/GD32F30x_Firmware_Library/GD32F30x_standard_peripheral/Source\gd32f30x_dac.c ****     }
 116:C:/Users/49542/Desktop/GD32F30x_Demo_Suites_V2.0.0/GD32F30x_Demo_Suites_V2.0.0/GD32F30x_Firmware_Library/GD32F30x_standard_peripheral/Source\gd32f30x_dac.c **** }
 289              		.loc 1 116 0
ARM GAS  C:\Users\49542\AppData\Local\Temp\cc1SF7Vt.s 			page 8


 290 001a 05E0     		b	.L23
 291              	.L21:
 114:C:/Users/49542/Desktop/GD32F30x_Demo_Suites_V2.0.0/GD32F30x_Demo_Suites_V2.0.0/GD32F30x_Firmware_Library/GD32F30x_standard_peripheral/Source\gd32f30x_dac.c ****     }
 292              		.loc 1 114 0
 293 001c 054B     		ldr	r3, .L24
 294 001e 1B68     		ldr	r3, [r3]
 295 0020 044A     		ldr	r2, .L24
 296 0022 23F08053 		bic	r3, r3, #268435456
 297 0026 1360     		str	r3, [r2]
 298              	.L23:
 299              		.loc 1 116 0
 300 0028 00BF     		nop
 301 002a 0C37     		adds	r7, r7, #12
 302              	.LCFI23:
 303              		.cfi_def_cfa_offset 4
 304 002c BD46     		mov	sp, r7
 305              	.LCFI24:
 306              		.cfi_def_cfa_register 13
 307              		@ sp needed
 308 002e 5DF8047B 		ldr	r7, [sp], #4
 309              	.LCFI25:
 310              		.cfi_restore 7
 311              		.cfi_def_cfa_offset 0
 312 0032 7047     		bx	lr
 313              	.L25:
 314              		.align	2
 315              	.L24:
 316 0034 00740040 		.word	1073771520
 317              		.cfi_endproc
 318              	.LFE120:
 320              		.section	.text.dac_output_buffer_enable,"ax",%progbits
 321              		.align	1
 322              		.global	dac_output_buffer_enable
 323              		.syntax unified
 324              		.thumb
 325              		.thumb_func
 326              		.fpu fpv4-sp-d16
 328              	dac_output_buffer_enable:
 329              	.LFB121:
 117:C:/Users/49542/Desktop/GD32F30x_Demo_Suites_V2.0.0/GD32F30x_Demo_Suites_V2.0.0/GD32F30x_Firmware_Library/GD32F30x_standard_peripheral/Source\gd32f30x_dac.c **** 
 118:C:/Users/49542/Desktop/GD32F30x_Demo_Suites_V2.0.0/GD32F30x_Demo_Suites_V2.0.0/GD32F30x_Firmware_Library/GD32F30x_standard_peripheral/Source\gd32f30x_dac.c **** /*!
 119:C:/Users/49542/Desktop/GD32F30x_Demo_Suites_V2.0.0/GD32F30x_Demo_Suites_V2.0.0/GD32F30x_Firmware_Library/GD32F30x_standard_peripheral/Source\gd32f30x_dac.c ****     \brief      enable DAC output buffer
 120:C:/Users/49542/Desktop/GD32F30x_Demo_Suites_V2.0.0/GD32F30x_Demo_Suites_V2.0.0/GD32F30x_Firmware_Library/GD32F30x_standard_peripheral/Source\gd32f30x_dac.c ****     \param[in]  dac_periph: DACx(x = 0,1)
 121:C:/Users/49542/Desktop/GD32F30x_Demo_Suites_V2.0.0/GD32F30x_Demo_Suites_V2.0.0/GD32F30x_Firmware_Library/GD32F30x_standard_peripheral/Source\gd32f30x_dac.c ****     \param[out] none
 122:C:/Users/49542/Desktop/GD32F30x_Demo_Suites_V2.0.0/GD32F30x_Demo_Suites_V2.0.0/GD32F30x_Firmware_Library/GD32F30x_standard_peripheral/Source\gd32f30x_dac.c ****     \retval     none
 123:C:/Users/49542/Desktop/GD32F30x_Demo_Suites_V2.0.0/GD32F30x_Demo_Suites_V2.0.0/GD32F30x_Firmware_Library/GD32F30x_standard_peripheral/Source\gd32f30x_dac.c **** */
 124:C:/Users/49542/Desktop/GD32F30x_Demo_Suites_V2.0.0/GD32F30x_Demo_Suites_V2.0.0/GD32F30x_Firmware_Library/GD32F30x_standard_peripheral/Source\gd32f30x_dac.c **** void dac_output_buffer_enable(uint32_t dac_periph)
 125:C:/Users/49542/Desktop/GD32F30x_Demo_Suites_V2.0.0/GD32F30x_Demo_Suites_V2.0.0/GD32F30x_Firmware_Library/GD32F30x_standard_peripheral/Source\gd32f30x_dac.c **** {
 330              		.loc 1 125 0
 331              		.cfi_startproc
 332              		@ args = 0, pretend = 0, frame = 8
 333              		@ frame_needed = 1, uses_anonymous_args = 0
 334              		@ link register save eliminated.
 335 0000 80B4     		push	{r7}
 336              	.LCFI26:
 337              		.cfi_def_cfa_offset 4
 338              		.cfi_offset 7, -4
ARM GAS  C:\Users\49542\AppData\Local\Temp\cc1SF7Vt.s 			page 9


 339 0002 83B0     		sub	sp, sp, #12
 340              	.LCFI27:
 341              		.cfi_def_cfa_offset 16
 342 0004 00AF     		add	r7, sp, #0
 343              	.LCFI28:
 344              		.cfi_def_cfa_register 7
 345 0006 7860     		str	r0, [r7, #4]
 126:C:/Users/49542/Desktop/GD32F30x_Demo_Suites_V2.0.0/GD32F30x_Demo_Suites_V2.0.0/GD32F30x_Firmware_Library/GD32F30x_standard_peripheral/Source\gd32f30x_dac.c ****     if(DAC0 == dac_periph){
 346              		.loc 1 126 0
 347 0008 7B68     		ldr	r3, [r7, #4]
 348 000a 002B     		cmp	r3, #0
 349 000c 06D1     		bne	.L27
 127:C:/Users/49542/Desktop/GD32F30x_Demo_Suites_V2.0.0/GD32F30x_Demo_Suites_V2.0.0/GD32F30x_Firmware_Library/GD32F30x_standard_peripheral/Source\gd32f30x_dac.c ****         DAC_CTL &= ~DAC_CTL_DBOFF0;
 350              		.loc 1 127 0
 351 000e 094B     		ldr	r3, .L30
 352 0010 1B68     		ldr	r3, [r3]
 353 0012 084A     		ldr	r2, .L30
 354 0014 23F00203 		bic	r3, r3, #2
 355 0018 1360     		str	r3, [r2]
 128:C:/Users/49542/Desktop/GD32F30x_Demo_Suites_V2.0.0/GD32F30x_Demo_Suites_V2.0.0/GD32F30x_Firmware_Library/GD32F30x_standard_peripheral/Source\gd32f30x_dac.c ****     }else{
 129:C:/Users/49542/Desktop/GD32F30x_Demo_Suites_V2.0.0/GD32F30x_Demo_Suites_V2.0.0/GD32F30x_Firmware_Library/GD32F30x_standard_peripheral/Source\gd32f30x_dac.c ****         DAC_CTL &= ~DAC_CTL_DBOFF1;
 130:C:/Users/49542/Desktop/GD32F30x_Demo_Suites_V2.0.0/GD32F30x_Demo_Suites_V2.0.0/GD32F30x_Firmware_Library/GD32F30x_standard_peripheral/Source\gd32f30x_dac.c ****     }
 131:C:/Users/49542/Desktop/GD32F30x_Demo_Suites_V2.0.0/GD32F30x_Demo_Suites_V2.0.0/GD32F30x_Firmware_Library/GD32F30x_standard_peripheral/Source\gd32f30x_dac.c **** }
 356              		.loc 1 131 0
 357 001a 05E0     		b	.L29
 358              	.L27:
 129:C:/Users/49542/Desktop/GD32F30x_Demo_Suites_V2.0.0/GD32F30x_Demo_Suites_V2.0.0/GD32F30x_Firmware_Library/GD32F30x_standard_peripheral/Source\gd32f30x_dac.c ****     }
 359              		.loc 1 129 0
 360 001c 054B     		ldr	r3, .L30
 361 001e 1B68     		ldr	r3, [r3]
 362 0020 044A     		ldr	r2, .L30
 363 0022 23F40033 		bic	r3, r3, #131072
 364 0026 1360     		str	r3, [r2]
 365              	.L29:
 366              		.loc 1 131 0
 367 0028 00BF     		nop
 368 002a 0C37     		adds	r7, r7, #12
 369              	.LCFI29:
 370              		.cfi_def_cfa_offset 4
 371 002c BD46     		mov	sp, r7
 372              	.LCFI30:
 373              		.cfi_def_cfa_register 13
 374              		@ sp needed
 375 002e 5DF8047B 		ldr	r7, [sp], #4
 376              	.LCFI31:
 377              		.cfi_restore 7
 378              		.cfi_def_cfa_offset 0
 379 0032 7047     		bx	lr
 380              	.L31:
 381              		.align	2
 382              	.L30:
 383 0034 00740040 		.word	1073771520
 384              		.cfi_endproc
 385              	.LFE121:
 387              		.section	.text.dac_output_buffer_disable,"ax",%progbits
 388              		.align	1
 389              		.global	dac_output_buffer_disable
ARM GAS  C:\Users\49542\AppData\Local\Temp\cc1SF7Vt.s 			page 10


 390              		.syntax unified
 391              		.thumb
 392              		.thumb_func
 393              		.fpu fpv4-sp-d16
 395              	dac_output_buffer_disable:
 396              	.LFB122:
 132:C:/Users/49542/Desktop/GD32F30x_Demo_Suites_V2.0.0/GD32F30x_Demo_Suites_V2.0.0/GD32F30x_Firmware_Library/GD32F30x_standard_peripheral/Source\gd32f30x_dac.c **** 
 133:C:/Users/49542/Desktop/GD32F30x_Demo_Suites_V2.0.0/GD32F30x_Demo_Suites_V2.0.0/GD32F30x_Firmware_Library/GD32F30x_standard_peripheral/Source\gd32f30x_dac.c **** /*!
 134:C:/Users/49542/Desktop/GD32F30x_Demo_Suites_V2.0.0/GD32F30x_Demo_Suites_V2.0.0/GD32F30x_Firmware_Library/GD32F30x_standard_peripheral/Source\gd32f30x_dac.c ****     \brief      disable DAC output buffer
 135:C:/Users/49542/Desktop/GD32F30x_Demo_Suites_V2.0.0/GD32F30x_Demo_Suites_V2.0.0/GD32F30x_Firmware_Library/GD32F30x_standard_peripheral/Source\gd32f30x_dac.c ****     \param[in]  dac_periph: DACx(x = 0,1)
 136:C:/Users/49542/Desktop/GD32F30x_Demo_Suites_V2.0.0/GD32F30x_Demo_Suites_V2.0.0/GD32F30x_Firmware_Library/GD32F30x_standard_peripheral/Source\gd32f30x_dac.c ****     \param[out] none
 137:C:/Users/49542/Desktop/GD32F30x_Demo_Suites_V2.0.0/GD32F30x_Demo_Suites_V2.0.0/GD32F30x_Firmware_Library/GD32F30x_standard_peripheral/Source\gd32f30x_dac.c ****     \retval     none
 138:C:/Users/49542/Desktop/GD32F30x_Demo_Suites_V2.0.0/GD32F30x_Demo_Suites_V2.0.0/GD32F30x_Firmware_Library/GD32F30x_standard_peripheral/Source\gd32f30x_dac.c **** */
 139:C:/Users/49542/Desktop/GD32F30x_Demo_Suites_V2.0.0/GD32F30x_Demo_Suites_V2.0.0/GD32F30x_Firmware_Library/GD32F30x_standard_peripheral/Source\gd32f30x_dac.c **** void dac_output_buffer_disable(uint32_t dac_periph)
 140:C:/Users/49542/Desktop/GD32F30x_Demo_Suites_V2.0.0/GD32F30x_Demo_Suites_V2.0.0/GD32F30x_Firmware_Library/GD32F30x_standard_peripheral/Source\gd32f30x_dac.c **** {
 397              		.loc 1 140 0
 398              		.cfi_startproc
 399              		@ args = 0, pretend = 0, frame = 8
 400              		@ frame_needed = 1, uses_anonymous_args = 0
 401              		@ link register save eliminated.
 402 0000 80B4     		push	{r7}
 403              	.LCFI32:
 404              		.cfi_def_cfa_offset 4
 405              		.cfi_offset 7, -4
 406 0002 83B0     		sub	sp, sp, #12
 407              	.LCFI33:
 408              		.cfi_def_cfa_offset 16
 409 0004 00AF     		add	r7, sp, #0
 410              	.LCFI34:
 411              		.cfi_def_cfa_register 7
 412 0006 7860     		str	r0, [r7, #4]
 141:C:/Users/49542/Desktop/GD32F30x_Demo_Suites_V2.0.0/GD32F30x_Demo_Suites_V2.0.0/GD32F30x_Firmware_Library/GD32F30x_standard_peripheral/Source\gd32f30x_dac.c ****     if(DAC0 == dac_periph){
 413              		.loc 1 141 0
 414 0008 7B68     		ldr	r3, [r7, #4]
 415 000a 002B     		cmp	r3, #0
 416 000c 06D1     		bne	.L33
 142:C:/Users/49542/Desktop/GD32F30x_Demo_Suites_V2.0.0/GD32F30x_Demo_Suites_V2.0.0/GD32F30x_Firmware_Library/GD32F30x_standard_peripheral/Source\gd32f30x_dac.c ****         DAC_CTL |= DAC_CTL_DBOFF0;
 417              		.loc 1 142 0
 418 000e 094B     		ldr	r3, .L36
 419 0010 1B68     		ldr	r3, [r3]
 420 0012 084A     		ldr	r2, .L36
 421 0014 43F00203 		orr	r3, r3, #2
 422 0018 1360     		str	r3, [r2]
 143:C:/Users/49542/Desktop/GD32F30x_Demo_Suites_V2.0.0/GD32F30x_Demo_Suites_V2.0.0/GD32F30x_Firmware_Library/GD32F30x_standard_peripheral/Source\gd32f30x_dac.c ****     }else{
 144:C:/Users/49542/Desktop/GD32F30x_Demo_Suites_V2.0.0/GD32F30x_Demo_Suites_V2.0.0/GD32F30x_Firmware_Library/GD32F30x_standard_peripheral/Source\gd32f30x_dac.c ****         DAC_CTL |= DAC_CTL_DBOFF1;
 145:C:/Users/49542/Desktop/GD32F30x_Demo_Suites_V2.0.0/GD32F30x_Demo_Suites_V2.0.0/GD32F30x_Firmware_Library/GD32F30x_standard_peripheral/Source\gd32f30x_dac.c ****     }
 146:C:/Users/49542/Desktop/GD32F30x_Demo_Suites_V2.0.0/GD32F30x_Demo_Suites_V2.0.0/GD32F30x_Firmware_Library/GD32F30x_standard_peripheral/Source\gd32f30x_dac.c **** }
 423              		.loc 1 146 0
 424 001a 05E0     		b	.L35
 425              	.L33:
 144:C:/Users/49542/Desktop/GD32F30x_Demo_Suites_V2.0.0/GD32F30x_Demo_Suites_V2.0.0/GD32F30x_Firmware_Library/GD32F30x_standard_peripheral/Source\gd32f30x_dac.c ****     }
 426              		.loc 1 144 0
 427 001c 054B     		ldr	r3, .L36
 428 001e 1B68     		ldr	r3, [r3]
 429 0020 044A     		ldr	r2, .L36
 430 0022 43F40033 		orr	r3, r3, #131072
 431 0026 1360     		str	r3, [r2]
ARM GAS  C:\Users\49542\AppData\Local\Temp\cc1SF7Vt.s 			page 11


 432              	.L35:
 433              		.loc 1 146 0
 434 0028 00BF     		nop
 435 002a 0C37     		adds	r7, r7, #12
 436              	.LCFI35:
 437              		.cfi_def_cfa_offset 4
 438 002c BD46     		mov	sp, r7
 439              	.LCFI36:
 440              		.cfi_def_cfa_register 13
 441              		@ sp needed
 442 002e 5DF8047B 		ldr	r7, [sp], #4
 443              	.LCFI37:
 444              		.cfi_restore 7
 445              		.cfi_def_cfa_offset 0
 446 0032 7047     		bx	lr
 447              	.L37:
 448              		.align	2
 449              	.L36:
 450 0034 00740040 		.word	1073771520
 451              		.cfi_endproc
 452              	.LFE122:
 454              		.section	.text.dac_output_value_get,"ax",%progbits
 455              		.align	1
 456              		.global	dac_output_value_get
 457              		.syntax unified
 458              		.thumb
 459              		.thumb_func
 460              		.fpu fpv4-sp-d16
 462              	dac_output_value_get:
 463              	.LFB123:
 147:C:/Users/49542/Desktop/GD32F30x_Demo_Suites_V2.0.0/GD32F30x_Demo_Suites_V2.0.0/GD32F30x_Firmware_Library/GD32F30x_standard_peripheral/Source\gd32f30x_dac.c **** 
 148:C:/Users/49542/Desktop/GD32F30x_Demo_Suites_V2.0.0/GD32F30x_Demo_Suites_V2.0.0/GD32F30x_Firmware_Library/GD32F30x_standard_peripheral/Source\gd32f30x_dac.c **** /*!
 149:C:/Users/49542/Desktop/GD32F30x_Demo_Suites_V2.0.0/GD32F30x_Demo_Suites_V2.0.0/GD32F30x_Firmware_Library/GD32F30x_standard_peripheral/Source\gd32f30x_dac.c ****     \brief      get DAC output value
 150:C:/Users/49542/Desktop/GD32F30x_Demo_Suites_V2.0.0/GD32F30x_Demo_Suites_V2.0.0/GD32F30x_Firmware_Library/GD32F30x_standard_peripheral/Source\gd32f30x_dac.c ****     \param[in]  dac_periph: DACx(x = 0,1)
 151:C:/Users/49542/Desktop/GD32F30x_Demo_Suites_V2.0.0/GD32F30x_Demo_Suites_V2.0.0/GD32F30x_Firmware_Library/GD32F30x_standard_peripheral/Source\gd32f30x_dac.c ****     \param[out] none
 152:C:/Users/49542/Desktop/GD32F30x_Demo_Suites_V2.0.0/GD32F30x_Demo_Suites_V2.0.0/GD32F30x_Firmware_Library/GD32F30x_standard_peripheral/Source\gd32f30x_dac.c ****     \retval     DAC output data
 153:C:/Users/49542/Desktop/GD32F30x_Demo_Suites_V2.0.0/GD32F30x_Demo_Suites_V2.0.0/GD32F30x_Firmware_Library/GD32F30x_standard_peripheral/Source\gd32f30x_dac.c **** */
 154:C:/Users/49542/Desktop/GD32F30x_Demo_Suites_V2.0.0/GD32F30x_Demo_Suites_V2.0.0/GD32F30x_Firmware_Library/GD32F30x_standard_peripheral/Source\gd32f30x_dac.c **** uint16_t dac_output_value_get(uint32_t dac_periph)
 155:C:/Users/49542/Desktop/GD32F30x_Demo_Suites_V2.0.0/GD32F30x_Demo_Suites_V2.0.0/GD32F30x_Firmware_Library/GD32F30x_standard_peripheral/Source\gd32f30x_dac.c **** {
 464              		.loc 1 155 0
 465              		.cfi_startproc
 466              		@ args = 0, pretend = 0, frame = 16
 467              		@ frame_needed = 1, uses_anonymous_args = 0
 468              		@ link register save eliminated.
 469 0000 80B4     		push	{r7}
 470              	.LCFI38:
 471              		.cfi_def_cfa_offset 4
 472              		.cfi_offset 7, -4
 473 0002 85B0     		sub	sp, sp, #20
 474              	.LCFI39:
 475              		.cfi_def_cfa_offset 24
 476 0004 00AF     		add	r7, sp, #0
 477              	.LCFI40:
 478              		.cfi_def_cfa_register 7
 479 0006 7860     		str	r0, [r7, #4]
 156:C:/Users/49542/Desktop/GD32F30x_Demo_Suites_V2.0.0/GD32F30x_Demo_Suites_V2.0.0/GD32F30x_Firmware_Library/GD32F30x_standard_peripheral/Source\gd32f30x_dac.c ****     uint16_t data = 0U;
 480              		.loc 1 156 0
ARM GAS  C:\Users\49542\AppData\Local\Temp\cc1SF7Vt.s 			page 12


 481 0008 0023     		movs	r3, #0
 482 000a FB81     		strh	r3, [r7, #14]	@ movhi
 157:C:/Users/49542/Desktop/GD32F30x_Demo_Suites_V2.0.0/GD32F30x_Demo_Suites_V2.0.0/GD32F30x_Firmware_Library/GD32F30x_standard_peripheral/Source\gd32f30x_dac.c ****     if(DAC0 == dac_periph){
 483              		.loc 1 157 0
 484 000c 7B68     		ldr	r3, [r7, #4]
 485 000e 002B     		cmp	r3, #0
 486 0010 03D1     		bne	.L39
 158:C:/Users/49542/Desktop/GD32F30x_Demo_Suites_V2.0.0/GD32F30x_Demo_Suites_V2.0.0/GD32F30x_Firmware_Library/GD32F30x_standard_peripheral/Source\gd32f30x_dac.c ****         /* store the DAC0 output value */
 159:C:/Users/49542/Desktop/GD32F30x_Demo_Suites_V2.0.0/GD32F30x_Demo_Suites_V2.0.0/GD32F30x_Firmware_Library/GD32F30x_standard_peripheral/Source\gd32f30x_dac.c ****         data = (uint16_t)DAC0_DO;
 487              		.loc 1 159 0
 488 0012 074B     		ldr	r3, .L42
 489 0014 1B68     		ldr	r3, [r3]
 490 0016 FB81     		strh	r3, [r7, #14]	@ movhi
 491 0018 02E0     		b	.L40
 492              	.L39:
 160:C:/Users/49542/Desktop/GD32F30x_Demo_Suites_V2.0.0/GD32F30x_Demo_Suites_V2.0.0/GD32F30x_Firmware_Library/GD32F30x_standard_peripheral/Source\gd32f30x_dac.c ****     }else{
 161:C:/Users/49542/Desktop/GD32F30x_Demo_Suites_V2.0.0/GD32F30x_Demo_Suites_V2.0.0/GD32F30x_Firmware_Library/GD32F30x_standard_peripheral/Source\gd32f30x_dac.c ****         /* store the DAC1 output value */
 162:C:/Users/49542/Desktop/GD32F30x_Demo_Suites_V2.0.0/GD32F30x_Demo_Suites_V2.0.0/GD32F30x_Firmware_Library/GD32F30x_standard_peripheral/Source\gd32f30x_dac.c ****         data = (uint16_t)DAC1_DO;
 493              		.loc 1 162 0
 494 001a 064B     		ldr	r3, .L42+4
 495 001c 1B68     		ldr	r3, [r3]
 496 001e FB81     		strh	r3, [r7, #14]	@ movhi
 497              	.L40:
 163:C:/Users/49542/Desktop/GD32F30x_Demo_Suites_V2.0.0/GD32F30x_Demo_Suites_V2.0.0/GD32F30x_Firmware_Library/GD32F30x_standard_peripheral/Source\gd32f30x_dac.c ****     }
 164:C:/Users/49542/Desktop/GD32F30x_Demo_Suites_V2.0.0/GD32F30x_Demo_Suites_V2.0.0/GD32F30x_Firmware_Library/GD32F30x_standard_peripheral/Source\gd32f30x_dac.c ****     return data;
 498              		.loc 1 164 0
 499 0020 FB89     		ldrh	r3, [r7, #14]
 165:C:/Users/49542/Desktop/GD32F30x_Demo_Suites_V2.0.0/GD32F30x_Demo_Suites_V2.0.0/GD32F30x_Firmware_Library/GD32F30x_standard_peripheral/Source\gd32f30x_dac.c **** }
 500              		.loc 1 165 0
 501 0022 1846     		mov	r0, r3
 502 0024 1437     		adds	r7, r7, #20
 503              	.LCFI41:
 504              		.cfi_def_cfa_offset 4
 505 0026 BD46     		mov	sp, r7
 506              	.LCFI42:
 507              		.cfi_def_cfa_register 13
 508              		@ sp needed
 509 0028 5DF8047B 		ldr	r7, [sp], #4
 510              	.LCFI43:
 511              		.cfi_restore 7
 512              		.cfi_def_cfa_offset 0
 513 002c 7047     		bx	lr
 514              	.L43:
 515 002e 00BF     		.align	2
 516              	.L42:
 517 0030 2C740040 		.word	1073771564
 518 0034 30740040 		.word	1073771568
 519              		.cfi_endproc
 520              	.LFE123:
 522              		.section	.text.dac_data_set,"ax",%progbits
 523              		.align	1
 524              		.global	dac_data_set
 525              		.syntax unified
 526              		.thumb
 527              		.thumb_func
 528              		.fpu fpv4-sp-d16
 530              	dac_data_set:
ARM GAS  C:\Users\49542\AppData\Local\Temp\cc1SF7Vt.s 			page 13


 531              	.LFB124:
 166:C:/Users/49542/Desktop/GD32F30x_Demo_Suites_V2.0.0/GD32F30x_Demo_Suites_V2.0.0/GD32F30x_Firmware_Library/GD32F30x_standard_peripheral/Source\gd32f30x_dac.c **** 
 167:C:/Users/49542/Desktop/GD32F30x_Demo_Suites_V2.0.0/GD32F30x_Demo_Suites_V2.0.0/GD32F30x_Firmware_Library/GD32F30x_standard_peripheral/Source\gd32f30x_dac.c **** /*!
 168:C:/Users/49542/Desktop/GD32F30x_Demo_Suites_V2.0.0/GD32F30x_Demo_Suites_V2.0.0/GD32F30x_Firmware_Library/GD32F30x_standard_peripheral/Source\gd32f30x_dac.c ****     \brief      set the DAC specified data holding register value
 169:C:/Users/49542/Desktop/GD32F30x_Demo_Suites_V2.0.0/GD32F30x_Demo_Suites_V2.0.0/GD32F30x_Firmware_Library/GD32F30x_standard_peripheral/Source\gd32f30x_dac.c ****     \param[in]  dac_periph: DACx(x = 0,1)
 170:C:/Users/49542/Desktop/GD32F30x_Demo_Suites_V2.0.0/GD32F30x_Demo_Suites_V2.0.0/GD32F30x_Firmware_Library/GD32F30x_standard_peripheral/Source\gd32f30x_dac.c ****     \param[in]  dac_align: data alignment
 171:C:/Users/49542/Desktop/GD32F30x_Demo_Suites_V2.0.0/GD32F30x_Demo_Suites_V2.0.0/GD32F30x_Firmware_Library/GD32F30x_standard_peripheral/Source\gd32f30x_dac.c ****                 only one parameter can be selected which is shown as below:
 172:C:/Users/49542/Desktop/GD32F30x_Demo_Suites_V2.0.0/GD32F30x_Demo_Suites_V2.0.0/GD32F30x_Firmware_Library/GD32F30x_standard_peripheral/Source\gd32f30x_dac.c ****       \arg        DAC_ALIGN_8B_R: data right 8 bit alignment
 173:C:/Users/49542/Desktop/GD32F30x_Demo_Suites_V2.0.0/GD32F30x_Demo_Suites_V2.0.0/GD32F30x_Firmware_Library/GD32F30x_standard_peripheral/Source\gd32f30x_dac.c ****       \arg        DAC_ALIGN_12B_R: data right 12 bit alignment
 174:C:/Users/49542/Desktop/GD32F30x_Demo_Suites_V2.0.0/GD32F30x_Demo_Suites_V2.0.0/GD32F30x_Firmware_Library/GD32F30x_standard_peripheral/Source\gd32f30x_dac.c ****       \arg        DAC_ALIGN_12B_L: data left 12 bit alignment
 175:C:/Users/49542/Desktop/GD32F30x_Demo_Suites_V2.0.0/GD32F30x_Demo_Suites_V2.0.0/GD32F30x_Firmware_Library/GD32F30x_standard_peripheral/Source\gd32f30x_dac.c ****     \param[in]  data: data to be loaded
 176:C:/Users/49542/Desktop/GD32F30x_Demo_Suites_V2.0.0/GD32F30x_Demo_Suites_V2.0.0/GD32F30x_Firmware_Library/GD32F30x_standard_peripheral/Source\gd32f30x_dac.c ****     \param[out] none
 177:C:/Users/49542/Desktop/GD32F30x_Demo_Suites_V2.0.0/GD32F30x_Demo_Suites_V2.0.0/GD32F30x_Firmware_Library/GD32F30x_standard_peripheral/Source\gd32f30x_dac.c ****     \retval     none
 178:C:/Users/49542/Desktop/GD32F30x_Demo_Suites_V2.0.0/GD32F30x_Demo_Suites_V2.0.0/GD32F30x_Firmware_Library/GD32F30x_standard_peripheral/Source\gd32f30x_dac.c **** */
 179:C:/Users/49542/Desktop/GD32F30x_Demo_Suites_V2.0.0/GD32F30x_Demo_Suites_V2.0.0/GD32F30x_Firmware_Library/GD32F30x_standard_peripheral/Source\gd32f30x_dac.c **** void dac_data_set(uint32_t dac_periph, uint32_t dac_align, uint16_t data)
 180:C:/Users/49542/Desktop/GD32F30x_Demo_Suites_V2.0.0/GD32F30x_Demo_Suites_V2.0.0/GD32F30x_Firmware_Library/GD32F30x_standard_peripheral/Source\gd32f30x_dac.c **** {
 532              		.loc 1 180 0
 533              		.cfi_startproc
 534              		@ args = 0, pretend = 0, frame = 16
 535              		@ frame_needed = 1, uses_anonymous_args = 0
 536              		@ link register save eliminated.
 537 0000 80B4     		push	{r7}
 538              	.LCFI44:
 539              		.cfi_def_cfa_offset 4
 540              		.cfi_offset 7, -4
 541 0002 85B0     		sub	sp, sp, #20
 542              	.LCFI45:
 543              		.cfi_def_cfa_offset 24
 544 0004 00AF     		add	r7, sp, #0
 545              	.LCFI46:
 546              		.cfi_def_cfa_register 7
 547 0006 F860     		str	r0, [r7, #12]
 548 0008 B960     		str	r1, [r7, #8]
 549 000a 1346     		mov	r3, r2
 550 000c FB80     		strh	r3, [r7, #6]	@ movhi
 181:C:/Users/49542/Desktop/GD32F30x_Demo_Suites_V2.0.0/GD32F30x_Demo_Suites_V2.0.0/GD32F30x_Firmware_Library/GD32F30x_standard_peripheral/Source\gd32f30x_dac.c ****     if(DAC0 == dac_periph){
 551              		.loc 1 181 0
 552 000e FB68     		ldr	r3, [r7, #12]
 553 0010 002B     		cmp	r3, #0
 554 0012 13D1     		bne	.L45
 182:C:/Users/49542/Desktop/GD32F30x_Demo_Suites_V2.0.0/GD32F30x_Demo_Suites_V2.0.0/GD32F30x_Firmware_Library/GD32F30x_standard_peripheral/Source\gd32f30x_dac.c ****         switch(dac_align){
 555              		.loc 1 182 0
 556 0014 BB68     		ldr	r3, [r7, #8]
 557 0016 012B     		cmp	r3, #1
 558 0018 08D0     		beq	.L47
 559 001a 012B     		cmp	r3, #1
 560 001c 02D3     		bcc	.L48
 561 001e 022B     		cmp	r3, #2
 562 0020 08D0     		beq	.L49
 183:C:/Users/49542/Desktop/GD32F30x_Demo_Suites_V2.0.0/GD32F30x_Demo_Suites_V2.0.0/GD32F30x_Firmware_Library/GD32F30x_standard_peripheral/Source\gd32f30x_dac.c ****         /* data right 12 bit alignment */
 184:C:/Users/49542/Desktop/GD32F30x_Demo_Suites_V2.0.0/GD32F30x_Demo_Suites_V2.0.0/GD32F30x_Firmware_Library/GD32F30x_standard_peripheral/Source\gd32f30x_dac.c ****         case DAC_ALIGN_12B_R:
 185:C:/Users/49542/Desktop/GD32F30x_Demo_Suites_V2.0.0/GD32F30x_Demo_Suites_V2.0.0/GD32F30x_Firmware_Library/GD32F30x_standard_peripheral/Source\gd32f30x_dac.c ****             DAC0_R12DH = data;
 186:C:/Users/49542/Desktop/GD32F30x_Demo_Suites_V2.0.0/GD32F30x_Demo_Suites_V2.0.0/GD32F30x_Firmware_Library/GD32F30x_standard_peripheral/Source\gd32f30x_dac.c ****             break;
 187:C:/Users/49542/Desktop/GD32F30x_Demo_Suites_V2.0.0/GD32F30x_Demo_Suites_V2.0.0/GD32F30x_Firmware_Library/GD32F30x_standard_peripheral/Source\gd32f30x_dac.c ****         /* data left 12 bit alignment */
 188:C:/Users/49542/Desktop/GD32F30x_Demo_Suites_V2.0.0/GD32F30x_Demo_Suites_V2.0.0/GD32F30x_Firmware_Library/GD32F30x_standard_peripheral/Source\gd32f30x_dac.c ****         case DAC_ALIGN_12B_L:
 189:C:/Users/49542/Desktop/GD32F30x_Demo_Suites_V2.0.0/GD32F30x_Demo_Suites_V2.0.0/GD32F30x_Firmware_Library/GD32F30x_standard_peripheral/Source\gd32f30x_dac.c ****             DAC0_L12DH = data;
 190:C:/Users/49542/Desktop/GD32F30x_Demo_Suites_V2.0.0/GD32F30x_Demo_Suites_V2.0.0/GD32F30x_Firmware_Library/GD32F30x_standard_peripheral/Source\gd32f30x_dac.c ****             break;
ARM GAS  C:\Users\49542\AppData\Local\Temp\cc1SF7Vt.s 			page 14


 191:C:/Users/49542/Desktop/GD32F30x_Demo_Suites_V2.0.0/GD32F30x_Demo_Suites_V2.0.0/GD32F30x_Firmware_Library/GD32F30x_standard_peripheral/Source\gd32f30x_dac.c ****         /* data right 8 bit alignment */
 192:C:/Users/49542/Desktop/GD32F30x_Demo_Suites_V2.0.0/GD32F30x_Demo_Suites_V2.0.0/GD32F30x_Firmware_Library/GD32F30x_standard_peripheral/Source\gd32f30x_dac.c ****         case DAC_ALIGN_8B_R:
 193:C:/Users/49542/Desktop/GD32F30x_Demo_Suites_V2.0.0/GD32F30x_Demo_Suites_V2.0.0/GD32F30x_Firmware_Library/GD32F30x_standard_peripheral/Source\gd32f30x_dac.c ****             DAC0_R8DH = data;
 194:C:/Users/49542/Desktop/GD32F30x_Demo_Suites_V2.0.0/GD32F30x_Demo_Suites_V2.0.0/GD32F30x_Firmware_Library/GD32F30x_standard_peripheral/Source\gd32f30x_dac.c ****             break;
 195:C:/Users/49542/Desktop/GD32F30x_Demo_Suites_V2.0.0/GD32F30x_Demo_Suites_V2.0.0/GD32F30x_Firmware_Library/GD32F30x_standard_peripheral/Source\gd32f30x_dac.c ****         default:
 196:C:/Users/49542/Desktop/GD32F30x_Demo_Suites_V2.0.0/GD32F30x_Demo_Suites_V2.0.0/GD32F30x_Firmware_Library/GD32F30x_standard_peripheral/Source\gd32f30x_dac.c ****             break;
 563              		.loc 1 196 0
 564 0022 1FE0     		b	.L51
 565              	.L48:
 185:C:/Users/49542/Desktop/GD32F30x_Demo_Suites_V2.0.0/GD32F30x_Demo_Suites_V2.0.0/GD32F30x_Firmware_Library/GD32F30x_standard_peripheral/Source\gd32f30x_dac.c ****             break;
 566              		.loc 1 185 0
 567 0024 124A     		ldr	r2, .L56
 568 0026 FB88     		ldrh	r3, [r7, #6]
 569 0028 1360     		str	r3, [r2]
 186:C:/Users/49542/Desktop/GD32F30x_Demo_Suites_V2.0.0/GD32F30x_Demo_Suites_V2.0.0/GD32F30x_Firmware_Library/GD32F30x_standard_peripheral/Source\gd32f30x_dac.c ****         /* data left 12 bit alignment */
 570              		.loc 1 186 0
 571 002a 1BE0     		b	.L51
 572              	.L47:
 189:C:/Users/49542/Desktop/GD32F30x_Demo_Suites_V2.0.0/GD32F30x_Demo_Suites_V2.0.0/GD32F30x_Firmware_Library/GD32F30x_standard_peripheral/Source\gd32f30x_dac.c ****             break;
 573              		.loc 1 189 0
 574 002c 114A     		ldr	r2, .L56+4
 575 002e FB88     		ldrh	r3, [r7, #6]
 576 0030 1360     		str	r3, [r2]
 190:C:/Users/49542/Desktop/GD32F30x_Demo_Suites_V2.0.0/GD32F30x_Demo_Suites_V2.0.0/GD32F30x_Firmware_Library/GD32F30x_standard_peripheral/Source\gd32f30x_dac.c ****         /* data right 8 bit alignment */
 577              		.loc 1 190 0
 578 0032 17E0     		b	.L51
 579              	.L49:
 193:C:/Users/49542/Desktop/GD32F30x_Demo_Suites_V2.0.0/GD32F30x_Demo_Suites_V2.0.0/GD32F30x_Firmware_Library/GD32F30x_standard_peripheral/Source\gd32f30x_dac.c ****             break;
 580              		.loc 1 193 0
 581 0034 104A     		ldr	r2, .L56+8
 582 0036 FB88     		ldrh	r3, [r7, #6]
 583 0038 1360     		str	r3, [r2]
 194:C:/Users/49542/Desktop/GD32F30x_Demo_Suites_V2.0.0/GD32F30x_Demo_Suites_V2.0.0/GD32F30x_Firmware_Library/GD32F30x_standard_peripheral/Source\gd32f30x_dac.c ****         default:
 584              		.loc 1 194 0
 585 003a 13E0     		b	.L51
 586              	.L45:
 197:C:/Users/49542/Desktop/GD32F30x_Demo_Suites_V2.0.0/GD32F30x_Demo_Suites_V2.0.0/GD32F30x_Firmware_Library/GD32F30x_standard_peripheral/Source\gd32f30x_dac.c ****         }
 198:C:/Users/49542/Desktop/GD32F30x_Demo_Suites_V2.0.0/GD32F30x_Demo_Suites_V2.0.0/GD32F30x_Firmware_Library/GD32F30x_standard_peripheral/Source\gd32f30x_dac.c ****     }else{
 199:C:/Users/49542/Desktop/GD32F30x_Demo_Suites_V2.0.0/GD32F30x_Demo_Suites_V2.0.0/GD32F30x_Firmware_Library/GD32F30x_standard_peripheral/Source\gd32f30x_dac.c ****         switch(dac_align){
 587              		.loc 1 199 0
 588 003c BB68     		ldr	r3, [r7, #8]
 589 003e 012B     		cmp	r3, #1
 590 0040 08D0     		beq	.L53
 591 0042 012B     		cmp	r3, #1
 592 0044 02D3     		bcc	.L54
 593 0046 022B     		cmp	r3, #2
 594 0048 08D0     		beq	.L55
 200:C:/Users/49542/Desktop/GD32F30x_Demo_Suites_V2.0.0/GD32F30x_Demo_Suites_V2.0.0/GD32F30x_Firmware_Library/GD32F30x_standard_peripheral/Source\gd32f30x_dac.c ****         /* data right 12 bit alignment */
 201:C:/Users/49542/Desktop/GD32F30x_Demo_Suites_V2.0.0/GD32F30x_Demo_Suites_V2.0.0/GD32F30x_Firmware_Library/GD32F30x_standard_peripheral/Source\gd32f30x_dac.c ****         case DAC_ALIGN_12B_R:
 202:C:/Users/49542/Desktop/GD32F30x_Demo_Suites_V2.0.0/GD32F30x_Demo_Suites_V2.0.0/GD32F30x_Firmware_Library/GD32F30x_standard_peripheral/Source\gd32f30x_dac.c ****             DAC1_R12DH = data;
 203:C:/Users/49542/Desktop/GD32F30x_Demo_Suites_V2.0.0/GD32F30x_Demo_Suites_V2.0.0/GD32F30x_Firmware_Library/GD32F30x_standard_peripheral/Source\gd32f30x_dac.c ****             break;
 204:C:/Users/49542/Desktop/GD32F30x_Demo_Suites_V2.0.0/GD32F30x_Demo_Suites_V2.0.0/GD32F30x_Firmware_Library/GD32F30x_standard_peripheral/Source\gd32f30x_dac.c ****         /* data left 12 bit alignment */
 205:C:/Users/49542/Desktop/GD32F30x_Demo_Suites_V2.0.0/GD32F30x_Demo_Suites_V2.0.0/GD32F30x_Firmware_Library/GD32F30x_standard_peripheral/Source\gd32f30x_dac.c ****         case DAC_ALIGN_12B_L:
 206:C:/Users/49542/Desktop/GD32F30x_Demo_Suites_V2.0.0/GD32F30x_Demo_Suites_V2.0.0/GD32F30x_Firmware_Library/GD32F30x_standard_peripheral/Source\gd32f30x_dac.c ****             DAC1_L12DH = data;
 207:C:/Users/49542/Desktop/GD32F30x_Demo_Suites_V2.0.0/GD32F30x_Demo_Suites_V2.0.0/GD32F30x_Firmware_Library/GD32F30x_standard_peripheral/Source\gd32f30x_dac.c ****             break;
 208:C:/Users/49542/Desktop/GD32F30x_Demo_Suites_V2.0.0/GD32F30x_Demo_Suites_V2.0.0/GD32F30x_Firmware_Library/GD32F30x_standard_peripheral/Source\gd32f30x_dac.c ****         /* data right 8 bit alignment */
 209:C:/Users/49542/Desktop/GD32F30x_Demo_Suites_V2.0.0/GD32F30x_Demo_Suites_V2.0.0/GD32F30x_Firmware_Library/GD32F30x_standard_peripheral/Source\gd32f30x_dac.c ****         case DAC_ALIGN_8B_R:
ARM GAS  C:\Users\49542\AppData\Local\Temp\cc1SF7Vt.s 			page 15


 210:C:/Users/49542/Desktop/GD32F30x_Demo_Suites_V2.0.0/GD32F30x_Demo_Suites_V2.0.0/GD32F30x_Firmware_Library/GD32F30x_standard_peripheral/Source\gd32f30x_dac.c ****             DAC1_R8DH = data;
 211:C:/Users/49542/Desktop/GD32F30x_Demo_Suites_V2.0.0/GD32F30x_Demo_Suites_V2.0.0/GD32F30x_Firmware_Library/GD32F30x_standard_peripheral/Source\gd32f30x_dac.c ****             break;
 212:C:/Users/49542/Desktop/GD32F30x_Demo_Suites_V2.0.0/GD32F30x_Demo_Suites_V2.0.0/GD32F30x_Firmware_Library/GD32F30x_standard_peripheral/Source\gd32f30x_dac.c ****         default:
 213:C:/Users/49542/Desktop/GD32F30x_Demo_Suites_V2.0.0/GD32F30x_Demo_Suites_V2.0.0/GD32F30x_Firmware_Library/GD32F30x_standard_peripheral/Source\gd32f30x_dac.c ****             break;
 595              		.loc 1 213 0
 596 004a 0BE0     		b	.L51
 597              	.L54:
 202:C:/Users/49542/Desktop/GD32F30x_Demo_Suites_V2.0.0/GD32F30x_Demo_Suites_V2.0.0/GD32F30x_Firmware_Library/GD32F30x_standard_peripheral/Source\gd32f30x_dac.c ****             break;
 598              		.loc 1 202 0
 599 004c 0B4A     		ldr	r2, .L56+12
 600 004e FB88     		ldrh	r3, [r7, #6]
 601 0050 1360     		str	r3, [r2]
 203:C:/Users/49542/Desktop/GD32F30x_Demo_Suites_V2.0.0/GD32F30x_Demo_Suites_V2.0.0/GD32F30x_Firmware_Library/GD32F30x_standard_peripheral/Source\gd32f30x_dac.c ****         /* data left 12 bit alignment */
 602              		.loc 1 203 0
 603 0052 07E0     		b	.L51
 604              	.L53:
 206:C:/Users/49542/Desktop/GD32F30x_Demo_Suites_V2.0.0/GD32F30x_Demo_Suites_V2.0.0/GD32F30x_Firmware_Library/GD32F30x_standard_peripheral/Source\gd32f30x_dac.c ****             break;
 605              		.loc 1 206 0
 606 0054 0A4A     		ldr	r2, .L56+16
 607 0056 FB88     		ldrh	r3, [r7, #6]
 608 0058 1360     		str	r3, [r2]
 207:C:/Users/49542/Desktop/GD32F30x_Demo_Suites_V2.0.0/GD32F30x_Demo_Suites_V2.0.0/GD32F30x_Firmware_Library/GD32F30x_standard_peripheral/Source\gd32f30x_dac.c ****         /* data right 8 bit alignment */
 609              		.loc 1 207 0
 610 005a 03E0     		b	.L51
 611              	.L55:
 210:C:/Users/49542/Desktop/GD32F30x_Demo_Suites_V2.0.0/GD32F30x_Demo_Suites_V2.0.0/GD32F30x_Firmware_Library/GD32F30x_standard_peripheral/Source\gd32f30x_dac.c ****             break;
 612              		.loc 1 210 0
 613 005c 094A     		ldr	r2, .L56+20
 614 005e FB88     		ldrh	r3, [r7, #6]
 615 0060 1360     		str	r3, [r2]
 211:C:/Users/49542/Desktop/GD32F30x_Demo_Suites_V2.0.0/GD32F30x_Demo_Suites_V2.0.0/GD32F30x_Firmware_Library/GD32F30x_standard_peripheral/Source\gd32f30x_dac.c ****         default:
 616              		.loc 1 211 0
 617 0062 00BF     		nop
 618              	.L51:
 214:C:/Users/49542/Desktop/GD32F30x_Demo_Suites_V2.0.0/GD32F30x_Demo_Suites_V2.0.0/GD32F30x_Firmware_Library/GD32F30x_standard_peripheral/Source\gd32f30x_dac.c ****         }
 215:C:/Users/49542/Desktop/GD32F30x_Demo_Suites_V2.0.0/GD32F30x_Demo_Suites_V2.0.0/GD32F30x_Firmware_Library/GD32F30x_standard_peripheral/Source\gd32f30x_dac.c ****     }
 216:C:/Users/49542/Desktop/GD32F30x_Demo_Suites_V2.0.0/GD32F30x_Demo_Suites_V2.0.0/GD32F30x_Firmware_Library/GD32F30x_standard_peripheral/Source\gd32f30x_dac.c **** }
 619              		.loc 1 216 0
 620 0064 00BF     		nop
 621 0066 1437     		adds	r7, r7, #20
 622              	.LCFI47:
 623              		.cfi_def_cfa_offset 4
 624 0068 BD46     		mov	sp, r7
 625              	.LCFI48:
 626              		.cfi_def_cfa_register 13
 627              		@ sp needed
 628 006a 5DF8047B 		ldr	r7, [sp], #4
 629              	.LCFI49:
 630              		.cfi_restore 7
 631              		.cfi_def_cfa_offset 0
 632 006e 7047     		bx	lr
 633              	.L57:
 634              		.align	2
 635              	.L56:
 636 0070 08740040 		.word	1073771528
 637 0074 0C740040 		.word	1073771532
 638 0078 10740040 		.word	1073771536
ARM GAS  C:\Users\49542\AppData\Local\Temp\cc1SF7Vt.s 			page 16


 639 007c 14740040 		.word	1073771540
 640 0080 18740040 		.word	1073771544
 641 0084 1C740040 		.word	1073771548
 642              		.cfi_endproc
 643              	.LFE124:
 645              		.section	.text.dac_trigger_enable,"ax",%progbits
 646              		.align	1
 647              		.global	dac_trigger_enable
 648              		.syntax unified
 649              		.thumb
 650              		.thumb_func
 651              		.fpu fpv4-sp-d16
 653              	dac_trigger_enable:
 654              	.LFB125:
 217:C:/Users/49542/Desktop/GD32F30x_Demo_Suites_V2.0.0/GD32F30x_Demo_Suites_V2.0.0/GD32F30x_Firmware_Library/GD32F30x_standard_peripheral/Source\gd32f30x_dac.c **** 
 218:C:/Users/49542/Desktop/GD32F30x_Demo_Suites_V2.0.0/GD32F30x_Demo_Suites_V2.0.0/GD32F30x_Firmware_Library/GD32F30x_standard_peripheral/Source\gd32f30x_dac.c **** /*!
 219:C:/Users/49542/Desktop/GD32F30x_Demo_Suites_V2.0.0/GD32F30x_Demo_Suites_V2.0.0/GD32F30x_Firmware_Library/GD32F30x_standard_peripheral/Source\gd32f30x_dac.c ****     \brief      enable DAC trigger
 220:C:/Users/49542/Desktop/GD32F30x_Demo_Suites_V2.0.0/GD32F30x_Demo_Suites_V2.0.0/GD32F30x_Firmware_Library/GD32F30x_standard_peripheral/Source\gd32f30x_dac.c ****     \param[in]  dac_periph: DACx(x = 0,1)
 221:C:/Users/49542/Desktop/GD32F30x_Demo_Suites_V2.0.0/GD32F30x_Demo_Suites_V2.0.0/GD32F30x_Firmware_Library/GD32F30x_standard_peripheral/Source\gd32f30x_dac.c ****     \param[out] none
 222:C:/Users/49542/Desktop/GD32F30x_Demo_Suites_V2.0.0/GD32F30x_Demo_Suites_V2.0.0/GD32F30x_Firmware_Library/GD32F30x_standard_peripheral/Source\gd32f30x_dac.c ****     \retval     none
 223:C:/Users/49542/Desktop/GD32F30x_Demo_Suites_V2.0.0/GD32F30x_Demo_Suites_V2.0.0/GD32F30x_Firmware_Library/GD32F30x_standard_peripheral/Source\gd32f30x_dac.c **** */
 224:C:/Users/49542/Desktop/GD32F30x_Demo_Suites_V2.0.0/GD32F30x_Demo_Suites_V2.0.0/GD32F30x_Firmware_Library/GD32F30x_standard_peripheral/Source\gd32f30x_dac.c **** void dac_trigger_enable(uint32_t dac_periph)
 225:C:/Users/49542/Desktop/GD32F30x_Demo_Suites_V2.0.0/GD32F30x_Demo_Suites_V2.0.0/GD32F30x_Firmware_Library/GD32F30x_standard_peripheral/Source\gd32f30x_dac.c **** {
 655              		.loc 1 225 0
 656              		.cfi_startproc
 657              		@ args = 0, pretend = 0, frame = 8
 658              		@ frame_needed = 1, uses_anonymous_args = 0
 659              		@ link register save eliminated.
 660 0000 80B4     		push	{r7}
 661              	.LCFI50:
 662              		.cfi_def_cfa_offset 4
 663              		.cfi_offset 7, -4
 664 0002 83B0     		sub	sp, sp, #12
 665              	.LCFI51:
 666              		.cfi_def_cfa_offset 16
 667 0004 00AF     		add	r7, sp, #0
 668              	.LCFI52:
 669              		.cfi_def_cfa_register 7
 670 0006 7860     		str	r0, [r7, #4]
 226:C:/Users/49542/Desktop/GD32F30x_Demo_Suites_V2.0.0/GD32F30x_Demo_Suites_V2.0.0/GD32F30x_Firmware_Library/GD32F30x_standard_peripheral/Source\gd32f30x_dac.c ****     if(DAC0 == dac_periph){
 671              		.loc 1 226 0
 672 0008 7B68     		ldr	r3, [r7, #4]
 673 000a 002B     		cmp	r3, #0
 674 000c 06D1     		bne	.L59
 227:C:/Users/49542/Desktop/GD32F30x_Demo_Suites_V2.0.0/GD32F30x_Demo_Suites_V2.0.0/GD32F30x_Firmware_Library/GD32F30x_standard_peripheral/Source\gd32f30x_dac.c ****         DAC_CTL |= DAC_CTL_DTEN0;
 675              		.loc 1 227 0
 676 000e 094B     		ldr	r3, .L62
 677 0010 1B68     		ldr	r3, [r3]
 678 0012 084A     		ldr	r2, .L62
 679 0014 43F00403 		orr	r3, r3, #4
 680 0018 1360     		str	r3, [r2]
 228:C:/Users/49542/Desktop/GD32F30x_Demo_Suites_V2.0.0/GD32F30x_Demo_Suites_V2.0.0/GD32F30x_Firmware_Library/GD32F30x_standard_peripheral/Source\gd32f30x_dac.c ****     }else{
 229:C:/Users/49542/Desktop/GD32F30x_Demo_Suites_V2.0.0/GD32F30x_Demo_Suites_V2.0.0/GD32F30x_Firmware_Library/GD32F30x_standard_peripheral/Source\gd32f30x_dac.c ****         DAC_CTL |= DAC_CTL_DTEN1;
 230:C:/Users/49542/Desktop/GD32F30x_Demo_Suites_V2.0.0/GD32F30x_Demo_Suites_V2.0.0/GD32F30x_Firmware_Library/GD32F30x_standard_peripheral/Source\gd32f30x_dac.c ****     }
 231:C:/Users/49542/Desktop/GD32F30x_Demo_Suites_V2.0.0/GD32F30x_Demo_Suites_V2.0.0/GD32F30x_Firmware_Library/GD32F30x_standard_peripheral/Source\gd32f30x_dac.c **** }
 681              		.loc 1 231 0
 682 001a 05E0     		b	.L61
ARM GAS  C:\Users\49542\AppData\Local\Temp\cc1SF7Vt.s 			page 17


 683              	.L59:
 229:C:/Users/49542/Desktop/GD32F30x_Demo_Suites_V2.0.0/GD32F30x_Demo_Suites_V2.0.0/GD32F30x_Firmware_Library/GD32F30x_standard_peripheral/Source\gd32f30x_dac.c ****     }
 684              		.loc 1 229 0
 685 001c 054B     		ldr	r3, .L62
 686 001e 1B68     		ldr	r3, [r3]
 687 0020 044A     		ldr	r2, .L62
 688 0022 43F48023 		orr	r3, r3, #262144
 689 0026 1360     		str	r3, [r2]
 690              	.L61:
 691              		.loc 1 231 0
 692 0028 00BF     		nop
 693 002a 0C37     		adds	r7, r7, #12
 694              	.LCFI53:
 695              		.cfi_def_cfa_offset 4
 696 002c BD46     		mov	sp, r7
 697              	.LCFI54:
 698              		.cfi_def_cfa_register 13
 699              		@ sp needed
 700 002e 5DF8047B 		ldr	r7, [sp], #4
 701              	.LCFI55:
 702              		.cfi_restore 7
 703              		.cfi_def_cfa_offset 0
 704 0032 7047     		bx	lr
 705              	.L63:
 706              		.align	2
 707              	.L62:
 708 0034 00740040 		.word	1073771520
 709              		.cfi_endproc
 710              	.LFE125:
 712              		.section	.text.dac_trigger_disable,"ax",%progbits
 713              		.align	1
 714              		.global	dac_trigger_disable
 715              		.syntax unified
 716              		.thumb
 717              		.thumb_func
 718              		.fpu fpv4-sp-d16
 720              	dac_trigger_disable:
 721              	.LFB126:
 232:C:/Users/49542/Desktop/GD32F30x_Demo_Suites_V2.0.0/GD32F30x_Demo_Suites_V2.0.0/GD32F30x_Firmware_Library/GD32F30x_standard_peripheral/Source\gd32f30x_dac.c **** 
 233:C:/Users/49542/Desktop/GD32F30x_Demo_Suites_V2.0.0/GD32F30x_Demo_Suites_V2.0.0/GD32F30x_Firmware_Library/GD32F30x_standard_peripheral/Source\gd32f30x_dac.c **** /*!
 234:C:/Users/49542/Desktop/GD32F30x_Demo_Suites_V2.0.0/GD32F30x_Demo_Suites_V2.0.0/GD32F30x_Firmware_Library/GD32F30x_standard_peripheral/Source\gd32f30x_dac.c ****     \brief      disable DAC trigger
 235:C:/Users/49542/Desktop/GD32F30x_Demo_Suites_V2.0.0/GD32F30x_Demo_Suites_V2.0.0/GD32F30x_Firmware_Library/GD32F30x_standard_peripheral/Source\gd32f30x_dac.c ****     \param[in]  dac_periph: DACx(x = 0,1)
 236:C:/Users/49542/Desktop/GD32F30x_Demo_Suites_V2.0.0/GD32F30x_Demo_Suites_V2.0.0/GD32F30x_Firmware_Library/GD32F30x_standard_peripheral/Source\gd32f30x_dac.c ****     \param[out] none
 237:C:/Users/49542/Desktop/GD32F30x_Demo_Suites_V2.0.0/GD32F30x_Demo_Suites_V2.0.0/GD32F30x_Firmware_Library/GD32F30x_standard_peripheral/Source\gd32f30x_dac.c ****     \retval     none
 238:C:/Users/49542/Desktop/GD32F30x_Demo_Suites_V2.0.0/GD32F30x_Demo_Suites_V2.0.0/GD32F30x_Firmware_Library/GD32F30x_standard_peripheral/Source\gd32f30x_dac.c **** */
 239:C:/Users/49542/Desktop/GD32F30x_Demo_Suites_V2.0.0/GD32F30x_Demo_Suites_V2.0.0/GD32F30x_Firmware_Library/GD32F30x_standard_peripheral/Source\gd32f30x_dac.c **** void dac_trigger_disable(uint32_t dac_periph)
 240:C:/Users/49542/Desktop/GD32F30x_Demo_Suites_V2.0.0/GD32F30x_Demo_Suites_V2.0.0/GD32F30x_Firmware_Library/GD32F30x_standard_peripheral/Source\gd32f30x_dac.c **** {
 722              		.loc 1 240 0
 723              		.cfi_startproc
 724              		@ args = 0, pretend = 0, frame = 8
 725              		@ frame_needed = 1, uses_anonymous_args = 0
 726              		@ link register save eliminated.
 727 0000 80B4     		push	{r7}
 728              	.LCFI56:
 729              		.cfi_def_cfa_offset 4
 730              		.cfi_offset 7, -4
 731 0002 83B0     		sub	sp, sp, #12
ARM GAS  C:\Users\49542\AppData\Local\Temp\cc1SF7Vt.s 			page 18


 732              	.LCFI57:
 733              		.cfi_def_cfa_offset 16
 734 0004 00AF     		add	r7, sp, #0
 735              	.LCFI58:
 736              		.cfi_def_cfa_register 7
 737 0006 7860     		str	r0, [r7, #4]
 241:C:/Users/49542/Desktop/GD32F30x_Demo_Suites_V2.0.0/GD32F30x_Demo_Suites_V2.0.0/GD32F30x_Firmware_Library/GD32F30x_standard_peripheral/Source\gd32f30x_dac.c ****     if(DAC0 == dac_periph){
 738              		.loc 1 241 0
 739 0008 7B68     		ldr	r3, [r7, #4]
 740 000a 002B     		cmp	r3, #0
 741 000c 06D1     		bne	.L65
 242:C:/Users/49542/Desktop/GD32F30x_Demo_Suites_V2.0.0/GD32F30x_Demo_Suites_V2.0.0/GD32F30x_Firmware_Library/GD32F30x_standard_peripheral/Source\gd32f30x_dac.c ****         DAC_CTL &= ~DAC_CTL_DTEN0;
 742              		.loc 1 242 0
 743 000e 094B     		ldr	r3, .L68
 744 0010 1B68     		ldr	r3, [r3]
 745 0012 084A     		ldr	r2, .L68
 746 0014 23F00403 		bic	r3, r3, #4
 747 0018 1360     		str	r3, [r2]
 243:C:/Users/49542/Desktop/GD32F30x_Demo_Suites_V2.0.0/GD32F30x_Demo_Suites_V2.0.0/GD32F30x_Firmware_Library/GD32F30x_standard_peripheral/Source\gd32f30x_dac.c ****     }else{
 244:C:/Users/49542/Desktop/GD32F30x_Demo_Suites_V2.0.0/GD32F30x_Demo_Suites_V2.0.0/GD32F30x_Firmware_Library/GD32F30x_standard_peripheral/Source\gd32f30x_dac.c ****         DAC_CTL &= ~DAC_CTL_DTEN1;
 245:C:/Users/49542/Desktop/GD32F30x_Demo_Suites_V2.0.0/GD32F30x_Demo_Suites_V2.0.0/GD32F30x_Firmware_Library/GD32F30x_standard_peripheral/Source\gd32f30x_dac.c ****     }
 246:C:/Users/49542/Desktop/GD32F30x_Demo_Suites_V2.0.0/GD32F30x_Demo_Suites_V2.0.0/GD32F30x_Firmware_Library/GD32F30x_standard_peripheral/Source\gd32f30x_dac.c **** }
 748              		.loc 1 246 0
 749 001a 05E0     		b	.L67
 750              	.L65:
 244:C:/Users/49542/Desktop/GD32F30x_Demo_Suites_V2.0.0/GD32F30x_Demo_Suites_V2.0.0/GD32F30x_Firmware_Library/GD32F30x_standard_peripheral/Source\gd32f30x_dac.c ****     }
 751              		.loc 1 244 0
 752 001c 054B     		ldr	r3, .L68
 753 001e 1B68     		ldr	r3, [r3]
 754 0020 044A     		ldr	r2, .L68
 755 0022 23F48023 		bic	r3, r3, #262144
 756 0026 1360     		str	r3, [r2]
 757              	.L67:
 758              		.loc 1 246 0
 759 0028 00BF     		nop
 760 002a 0C37     		adds	r7, r7, #12
 761              	.LCFI59:
 762              		.cfi_def_cfa_offset 4
 763 002c BD46     		mov	sp, r7
 764              	.LCFI60:
 765              		.cfi_def_cfa_register 13
 766              		@ sp needed
 767 002e 5DF8047B 		ldr	r7, [sp], #4
 768              	.LCFI61:
 769              		.cfi_restore 7
 770              		.cfi_def_cfa_offset 0
 771 0032 7047     		bx	lr
 772              	.L69:
 773              		.align	2
 774              	.L68:
 775 0034 00740040 		.word	1073771520
 776              		.cfi_endproc
 777              	.LFE126:
 779              		.section	.text.dac_trigger_source_config,"ax",%progbits
 780              		.align	1
 781              		.global	dac_trigger_source_config
 782              		.syntax unified
ARM GAS  C:\Users\49542\AppData\Local\Temp\cc1SF7Vt.s 			page 19


 783              		.thumb
 784              		.thumb_func
 785              		.fpu fpv4-sp-d16
 787              	dac_trigger_source_config:
 788              	.LFB127:
 247:C:/Users/49542/Desktop/GD32F30x_Demo_Suites_V2.0.0/GD32F30x_Demo_Suites_V2.0.0/GD32F30x_Firmware_Library/GD32F30x_standard_peripheral/Source\gd32f30x_dac.c **** 
 248:C:/Users/49542/Desktop/GD32F30x_Demo_Suites_V2.0.0/GD32F30x_Demo_Suites_V2.0.0/GD32F30x_Firmware_Library/GD32F30x_standard_peripheral/Source\gd32f30x_dac.c **** /*!
 249:C:/Users/49542/Desktop/GD32F30x_Demo_Suites_V2.0.0/GD32F30x_Demo_Suites_V2.0.0/GD32F30x_Firmware_Library/GD32F30x_standard_peripheral/Source\gd32f30x_dac.c ****     \brief      set DAC trigger source
 250:C:/Users/49542/Desktop/GD32F30x_Demo_Suites_V2.0.0/GD32F30x_Demo_Suites_V2.0.0/GD32F30x_Firmware_Library/GD32F30x_standard_peripheral/Source\gd32f30x_dac.c ****     \param[in]  dac_periph: DACx(x = 0,1)
 251:C:/Users/49542/Desktop/GD32F30x_Demo_Suites_V2.0.0/GD32F30x_Demo_Suites_V2.0.0/GD32F30x_Firmware_Library/GD32F30x_standard_peripheral/Source\gd32f30x_dac.c ****     \param[in]  triggersource: external triggers of DAC
 252:C:/Users/49542/Desktop/GD32F30x_Demo_Suites_V2.0.0/GD32F30x_Demo_Suites_V2.0.0/GD32F30x_Firmware_Library/GD32F30x_standard_peripheral/Source\gd32f30x_dac.c ****                 only one parameter can be selected which is shown as below:
 253:C:/Users/49542/Desktop/GD32F30x_Demo_Suites_V2.0.0/GD32F30x_Demo_Suites_V2.0.0/GD32F30x_Firmware_Library/GD32F30x_standard_peripheral/Source\gd32f30x_dac.c ****       \arg        DAC_TRIGGER_T1_TRGO: TIMER1 TRGO
 254:C:/Users/49542/Desktop/GD32F30x_Demo_Suites_V2.0.0/GD32F30x_Demo_Suites_V2.0.0/GD32F30x_Firmware_Library/GD32F30x_standard_peripheral/Source\gd32f30x_dac.c ****       \arg        DAC_TRIGGER_T2_TRGO: TIMER2 TRGO (for GD32F30X_CL)
 255:C:/Users/49542/Desktop/GD32F30x_Demo_Suites_V2.0.0/GD32F30x_Demo_Suites_V2.0.0/GD32F30x_Firmware_Library/GD32F30x_standard_peripheral/Source\gd32f30x_dac.c ****       \arg        DAC_TRIGGER_T3_TRGO: TIMER3 TRGO
 256:C:/Users/49542/Desktop/GD32F30x_Demo_Suites_V2.0.0/GD32F30x_Demo_Suites_V2.0.0/GD32F30x_Firmware_Library/GD32F30x_standard_peripheral/Source\gd32f30x_dac.c ****       \arg        DAC_TRIGGER_T4_TRGO: TIMER4 TRGO
 257:C:/Users/49542/Desktop/GD32F30x_Demo_Suites_V2.0.0/GD32F30x_Demo_Suites_V2.0.0/GD32F30x_Firmware_Library/GD32F30x_standard_peripheral/Source\gd32f30x_dac.c ****       \arg        DAC_TRIGGER_T5_TRGO: TIMER5 TRGO
 258:C:/Users/49542/Desktop/GD32F30x_Demo_Suites_V2.0.0/GD32F30x_Demo_Suites_V2.0.0/GD32F30x_Firmware_Library/GD32F30x_standard_peripheral/Source\gd32f30x_dac.c ****       \arg        DAC_TRIGGER_T6_TRGO: TIMER6 TRGO
 259:C:/Users/49542/Desktop/GD32F30x_Demo_Suites_V2.0.0/GD32F30x_Demo_Suites_V2.0.0/GD32F30x_Firmware_Library/GD32F30x_standard_peripheral/Source\gd32f30x_dac.c ****       \arg        DAC_TRIGGER_T7_TRGO: TIMER7 TRGO (for GD32F30X_HD and GD32F30X_XD)
 260:C:/Users/49542/Desktop/GD32F30x_Demo_Suites_V2.0.0/GD32F30x_Demo_Suites_V2.0.0/GD32F30x_Firmware_Library/GD32F30x_standard_peripheral/Source\gd32f30x_dac.c ****       \arg        DAC_TRIGGER_EXTI_9: EXTI interrupt line9 event
 261:C:/Users/49542/Desktop/GD32F30x_Demo_Suites_V2.0.0/GD32F30x_Demo_Suites_V2.0.0/GD32F30x_Firmware_Library/GD32F30x_standard_peripheral/Source\gd32f30x_dac.c ****       \arg        DAC_TRIGGER_SOFTWARE: software trigger
 262:C:/Users/49542/Desktop/GD32F30x_Demo_Suites_V2.0.0/GD32F30x_Demo_Suites_V2.0.0/GD32F30x_Firmware_Library/GD32F30x_standard_peripheral/Source\gd32f30x_dac.c ****     \param[out] none
 263:C:/Users/49542/Desktop/GD32F30x_Demo_Suites_V2.0.0/GD32F30x_Demo_Suites_V2.0.0/GD32F30x_Firmware_Library/GD32F30x_standard_peripheral/Source\gd32f30x_dac.c ****     \retval     none
 264:C:/Users/49542/Desktop/GD32F30x_Demo_Suites_V2.0.0/GD32F30x_Demo_Suites_V2.0.0/GD32F30x_Firmware_Library/GD32F30x_standard_peripheral/Source\gd32f30x_dac.c **** */
 265:C:/Users/49542/Desktop/GD32F30x_Demo_Suites_V2.0.0/GD32F30x_Demo_Suites_V2.0.0/GD32F30x_Firmware_Library/GD32F30x_standard_peripheral/Source\gd32f30x_dac.c **** void dac_trigger_source_config(uint32_t dac_periph,uint32_t triggersource)
 266:C:/Users/49542/Desktop/GD32F30x_Demo_Suites_V2.0.0/GD32F30x_Demo_Suites_V2.0.0/GD32F30x_Firmware_Library/GD32F30x_standard_peripheral/Source\gd32f30x_dac.c **** {
 789              		.loc 1 266 0
 790              		.cfi_startproc
 791              		@ args = 0, pretend = 0, frame = 8
 792              		@ frame_needed = 1, uses_anonymous_args = 0
 793              		@ link register save eliminated.
 794 0000 80B4     		push	{r7}
 795              	.LCFI62:
 796              		.cfi_def_cfa_offset 4
 797              		.cfi_offset 7, -4
 798 0002 83B0     		sub	sp, sp, #12
 799              	.LCFI63:
 800              		.cfi_def_cfa_offset 16
 801 0004 00AF     		add	r7, sp, #0
 802              	.LCFI64:
 803              		.cfi_def_cfa_register 7
 804 0006 7860     		str	r0, [r7, #4]
 805 0008 3960     		str	r1, [r7]
 267:C:/Users/49542/Desktop/GD32F30x_Demo_Suites_V2.0.0/GD32F30x_Demo_Suites_V2.0.0/GD32F30x_Firmware_Library/GD32F30x_standard_peripheral/Source\gd32f30x_dac.c ****     if(DAC0 == dac_periph){
 806              		.loc 1 267 0
 807 000a 7B68     		ldr	r3, [r7, #4]
 808 000c 002B     		cmp	r3, #0
 809 000e 0CD1     		bne	.L71
 268:C:/Users/49542/Desktop/GD32F30x_Demo_Suites_V2.0.0/GD32F30x_Demo_Suites_V2.0.0/GD32F30x_Firmware_Library/GD32F30x_standard_peripheral/Source\gd32f30x_dac.c ****         /* configure DAC0 trigger source */
 269:C:/Users/49542/Desktop/GD32F30x_Demo_Suites_V2.0.0/GD32F30x_Demo_Suites_V2.0.0/GD32F30x_Firmware_Library/GD32F30x_standard_peripheral/Source\gd32f30x_dac.c ****         DAC_CTL &= ~DAC_CTL_DTSEL0;
 810              		.loc 1 269 0
 811 0010 0F4B     		ldr	r3, .L74
 812 0012 1B68     		ldr	r3, [r3]
 813 0014 0E4A     		ldr	r2, .L74
 814 0016 23F03803 		bic	r3, r3, #56
 815 001a 1360     		str	r3, [r2]
 270:C:/Users/49542/Desktop/GD32F30x_Demo_Suites_V2.0.0/GD32F30x_Demo_Suites_V2.0.0/GD32F30x_Firmware_Library/GD32F30x_standard_peripheral/Source\gd32f30x_dac.c ****         DAC_CTL |= triggersource;
 816              		.loc 1 270 0
ARM GAS  C:\Users\49542\AppData\Local\Temp\cc1SF7Vt.s 			page 20


 817 001c 0C4B     		ldr	r3, .L74
 818 001e 1A68     		ldr	r2, [r3]
 819 0020 0B49     		ldr	r1, .L74
 820 0022 3B68     		ldr	r3, [r7]
 821 0024 1343     		orrs	r3, r3, r2
 822 0026 0B60     		str	r3, [r1]
 271:C:/Users/49542/Desktop/GD32F30x_Demo_Suites_V2.0.0/GD32F30x_Demo_Suites_V2.0.0/GD32F30x_Firmware_Library/GD32F30x_standard_peripheral/Source\gd32f30x_dac.c ****     }else{
 272:C:/Users/49542/Desktop/GD32F30x_Demo_Suites_V2.0.0/GD32F30x_Demo_Suites_V2.0.0/GD32F30x_Firmware_Library/GD32F30x_standard_peripheral/Source\gd32f30x_dac.c ****         /* configure DAC1 trigger source */
 273:C:/Users/49542/Desktop/GD32F30x_Demo_Suites_V2.0.0/GD32F30x_Demo_Suites_V2.0.0/GD32F30x_Firmware_Library/GD32F30x_standard_peripheral/Source\gd32f30x_dac.c ****         DAC_CTL &= ~DAC_CTL_DTSEL1;
 274:C:/Users/49542/Desktop/GD32F30x_Demo_Suites_V2.0.0/GD32F30x_Demo_Suites_V2.0.0/GD32F30x_Firmware_Library/GD32F30x_standard_peripheral/Source\gd32f30x_dac.c ****         DAC_CTL |= (triggersource << DAC1_REG_OFFSET);
 275:C:/Users/49542/Desktop/GD32F30x_Demo_Suites_V2.0.0/GD32F30x_Demo_Suites_V2.0.0/GD32F30x_Firmware_Library/GD32F30x_standard_peripheral/Source\gd32f30x_dac.c ****     }
 276:C:/Users/49542/Desktop/GD32F30x_Demo_Suites_V2.0.0/GD32F30x_Demo_Suites_V2.0.0/GD32F30x_Firmware_Library/GD32F30x_standard_peripheral/Source\gd32f30x_dac.c **** }
 823              		.loc 1 276 0
 824 0028 0CE0     		b	.L73
 825              	.L71:
 273:C:/Users/49542/Desktop/GD32F30x_Demo_Suites_V2.0.0/GD32F30x_Demo_Suites_V2.0.0/GD32F30x_Firmware_Library/GD32F30x_standard_peripheral/Source\gd32f30x_dac.c ****         DAC_CTL |= (triggersource << DAC1_REG_OFFSET);
 826              		.loc 1 273 0
 827 002a 094B     		ldr	r3, .L74
 828 002c 1B68     		ldr	r3, [r3]
 829 002e 084A     		ldr	r2, .L74
 830 0030 23F46013 		bic	r3, r3, #3670016
 831 0034 1360     		str	r3, [r2]
 274:C:/Users/49542/Desktop/GD32F30x_Demo_Suites_V2.0.0/GD32F30x_Demo_Suites_V2.0.0/GD32F30x_Firmware_Library/GD32F30x_standard_peripheral/Source\gd32f30x_dac.c ****     }
 832              		.loc 1 274 0
 833 0036 064B     		ldr	r3, .L74
 834 0038 1A68     		ldr	r2, [r3]
 835 003a 3B68     		ldr	r3, [r7]
 836 003c 1B04     		lsls	r3, r3, #16
 837 003e 0449     		ldr	r1, .L74
 838 0040 1343     		orrs	r3, r3, r2
 839 0042 0B60     		str	r3, [r1]
 840              	.L73:
 841              		.loc 1 276 0
 842 0044 00BF     		nop
 843 0046 0C37     		adds	r7, r7, #12
 844              	.LCFI65:
 845              		.cfi_def_cfa_offset 4
 846 0048 BD46     		mov	sp, r7
 847              	.LCFI66:
 848              		.cfi_def_cfa_register 13
 849              		@ sp needed
 850 004a 5DF8047B 		ldr	r7, [sp], #4
 851              	.LCFI67:
 852              		.cfi_restore 7
 853              		.cfi_def_cfa_offset 0
 854 004e 7047     		bx	lr
 855              	.L75:
 856              		.align	2
 857              	.L74:
 858 0050 00740040 		.word	1073771520
 859              		.cfi_endproc
 860              	.LFE127:
 862              		.section	.text.dac_software_trigger_enable,"ax",%progbits
 863              		.align	1
 864              		.global	dac_software_trigger_enable
 865              		.syntax unified
 866              		.thumb
ARM GAS  C:\Users\49542\AppData\Local\Temp\cc1SF7Vt.s 			page 21


 867              		.thumb_func
 868              		.fpu fpv4-sp-d16
 870              	dac_software_trigger_enable:
 871              	.LFB128:
 277:C:/Users/49542/Desktop/GD32F30x_Demo_Suites_V2.0.0/GD32F30x_Demo_Suites_V2.0.0/GD32F30x_Firmware_Library/GD32F30x_standard_peripheral/Source\gd32f30x_dac.c **** 
 278:C:/Users/49542/Desktop/GD32F30x_Demo_Suites_V2.0.0/GD32F30x_Demo_Suites_V2.0.0/GD32F30x_Firmware_Library/GD32F30x_standard_peripheral/Source\gd32f30x_dac.c **** /*!
 279:C:/Users/49542/Desktop/GD32F30x_Demo_Suites_V2.0.0/GD32F30x_Demo_Suites_V2.0.0/GD32F30x_Firmware_Library/GD32F30x_standard_peripheral/Source\gd32f30x_dac.c ****     \brief      enable DAC software trigger
 280:C:/Users/49542/Desktop/GD32F30x_Demo_Suites_V2.0.0/GD32F30x_Demo_Suites_V2.0.0/GD32F30x_Firmware_Library/GD32F30x_standard_peripheral/Source\gd32f30x_dac.c ****     \param[in]  dac_periph: DACx(x = 0,1)
 281:C:/Users/49542/Desktop/GD32F30x_Demo_Suites_V2.0.0/GD32F30x_Demo_Suites_V2.0.0/GD32F30x_Firmware_Library/GD32F30x_standard_peripheral/Source\gd32f30x_dac.c ****     \retval     none
 282:C:/Users/49542/Desktop/GD32F30x_Demo_Suites_V2.0.0/GD32F30x_Demo_Suites_V2.0.0/GD32F30x_Firmware_Library/GD32F30x_standard_peripheral/Source\gd32f30x_dac.c **** */
 283:C:/Users/49542/Desktop/GD32F30x_Demo_Suites_V2.0.0/GD32F30x_Demo_Suites_V2.0.0/GD32F30x_Firmware_Library/GD32F30x_standard_peripheral/Source\gd32f30x_dac.c **** void dac_software_trigger_enable(uint32_t dac_periph)
 284:C:/Users/49542/Desktop/GD32F30x_Demo_Suites_V2.0.0/GD32F30x_Demo_Suites_V2.0.0/GD32F30x_Firmware_Library/GD32F30x_standard_peripheral/Source\gd32f30x_dac.c **** {
 872              		.loc 1 284 0
 873              		.cfi_startproc
 874              		@ args = 0, pretend = 0, frame = 8
 875              		@ frame_needed = 1, uses_anonymous_args = 0
 876              		@ link register save eliminated.
 877 0000 80B4     		push	{r7}
 878              	.LCFI68:
 879              		.cfi_def_cfa_offset 4
 880              		.cfi_offset 7, -4
 881 0002 83B0     		sub	sp, sp, #12
 882              	.LCFI69:
 883              		.cfi_def_cfa_offset 16
 884 0004 00AF     		add	r7, sp, #0
 885              	.LCFI70:
 886              		.cfi_def_cfa_register 7
 887 0006 7860     		str	r0, [r7, #4]
 285:C:/Users/49542/Desktop/GD32F30x_Demo_Suites_V2.0.0/GD32F30x_Demo_Suites_V2.0.0/GD32F30x_Firmware_Library/GD32F30x_standard_peripheral/Source\gd32f30x_dac.c ****     if(DAC0 == dac_periph){
 888              		.loc 1 285 0
 889 0008 7B68     		ldr	r3, [r7, #4]
 890 000a 002B     		cmp	r3, #0
 891 000c 06D1     		bne	.L77
 286:C:/Users/49542/Desktop/GD32F30x_Demo_Suites_V2.0.0/GD32F30x_Demo_Suites_V2.0.0/GD32F30x_Firmware_Library/GD32F30x_standard_peripheral/Source\gd32f30x_dac.c ****         DAC_SWT |= DAC_SWT_SWTR0;
 892              		.loc 1 286 0
 893 000e 094B     		ldr	r3, .L80
 894 0010 1B68     		ldr	r3, [r3]
 895 0012 084A     		ldr	r2, .L80
 896 0014 43F00103 		orr	r3, r3, #1
 897 0018 1360     		str	r3, [r2]
 287:C:/Users/49542/Desktop/GD32F30x_Demo_Suites_V2.0.0/GD32F30x_Demo_Suites_V2.0.0/GD32F30x_Firmware_Library/GD32F30x_standard_peripheral/Source\gd32f30x_dac.c ****     }else{
 288:C:/Users/49542/Desktop/GD32F30x_Demo_Suites_V2.0.0/GD32F30x_Demo_Suites_V2.0.0/GD32F30x_Firmware_Library/GD32F30x_standard_peripheral/Source\gd32f30x_dac.c ****         DAC_SWT |= DAC_SWT_SWTR1;
 289:C:/Users/49542/Desktop/GD32F30x_Demo_Suites_V2.0.0/GD32F30x_Demo_Suites_V2.0.0/GD32F30x_Firmware_Library/GD32F30x_standard_peripheral/Source\gd32f30x_dac.c ****     }
 290:C:/Users/49542/Desktop/GD32F30x_Demo_Suites_V2.0.0/GD32F30x_Demo_Suites_V2.0.0/GD32F30x_Firmware_Library/GD32F30x_standard_peripheral/Source\gd32f30x_dac.c **** }
 898              		.loc 1 290 0
 899 001a 05E0     		b	.L79
 900              	.L77:
 288:C:/Users/49542/Desktop/GD32F30x_Demo_Suites_V2.0.0/GD32F30x_Demo_Suites_V2.0.0/GD32F30x_Firmware_Library/GD32F30x_standard_peripheral/Source\gd32f30x_dac.c ****     }
 901              		.loc 1 288 0
 902 001c 054B     		ldr	r3, .L80
 903 001e 1B68     		ldr	r3, [r3]
 904 0020 044A     		ldr	r2, .L80
 905 0022 43F00203 		orr	r3, r3, #2
 906 0026 1360     		str	r3, [r2]
 907              	.L79:
 908              		.loc 1 290 0
 909 0028 00BF     		nop
ARM GAS  C:\Users\49542\AppData\Local\Temp\cc1SF7Vt.s 			page 22


 910 002a 0C37     		adds	r7, r7, #12
 911              	.LCFI71:
 912              		.cfi_def_cfa_offset 4
 913 002c BD46     		mov	sp, r7
 914              	.LCFI72:
 915              		.cfi_def_cfa_register 13
 916              		@ sp needed
 917 002e 5DF8047B 		ldr	r7, [sp], #4
 918              	.LCFI73:
 919              		.cfi_restore 7
 920              		.cfi_def_cfa_offset 0
 921 0032 7047     		bx	lr
 922              	.L81:
 923              		.align	2
 924              	.L80:
 925 0034 04740040 		.word	1073771524
 926              		.cfi_endproc
 927              	.LFE128:
 929              		.section	.text.dac_software_trigger_disable,"ax",%progbits
 930              		.align	1
 931              		.global	dac_software_trigger_disable
 932              		.syntax unified
 933              		.thumb
 934              		.thumb_func
 935              		.fpu fpv4-sp-d16
 937              	dac_software_trigger_disable:
 938              	.LFB129:
 291:C:/Users/49542/Desktop/GD32F30x_Demo_Suites_V2.0.0/GD32F30x_Demo_Suites_V2.0.0/GD32F30x_Firmware_Library/GD32F30x_standard_peripheral/Source\gd32f30x_dac.c **** 
 292:C:/Users/49542/Desktop/GD32F30x_Demo_Suites_V2.0.0/GD32F30x_Demo_Suites_V2.0.0/GD32F30x_Firmware_Library/GD32F30x_standard_peripheral/Source\gd32f30x_dac.c **** /*!
 293:C:/Users/49542/Desktop/GD32F30x_Demo_Suites_V2.0.0/GD32F30x_Demo_Suites_V2.0.0/GD32F30x_Firmware_Library/GD32F30x_standard_peripheral/Source\gd32f30x_dac.c ****     \brief      disable DAC software trigger
 294:C:/Users/49542/Desktop/GD32F30x_Demo_Suites_V2.0.0/GD32F30x_Demo_Suites_V2.0.0/GD32F30x_Firmware_Library/GD32F30x_standard_peripheral/Source\gd32f30x_dac.c ****     \param[in]  dac_periph: DACx(x = 0,1)
 295:C:/Users/49542/Desktop/GD32F30x_Demo_Suites_V2.0.0/GD32F30x_Demo_Suites_V2.0.0/GD32F30x_Firmware_Library/GD32F30x_standard_peripheral/Source\gd32f30x_dac.c ****     \param[out] none
 296:C:/Users/49542/Desktop/GD32F30x_Demo_Suites_V2.0.0/GD32F30x_Demo_Suites_V2.0.0/GD32F30x_Firmware_Library/GD32F30x_standard_peripheral/Source\gd32f30x_dac.c ****     \retval     none
 297:C:/Users/49542/Desktop/GD32F30x_Demo_Suites_V2.0.0/GD32F30x_Demo_Suites_V2.0.0/GD32F30x_Firmware_Library/GD32F30x_standard_peripheral/Source\gd32f30x_dac.c **** */
 298:C:/Users/49542/Desktop/GD32F30x_Demo_Suites_V2.0.0/GD32F30x_Demo_Suites_V2.0.0/GD32F30x_Firmware_Library/GD32F30x_standard_peripheral/Source\gd32f30x_dac.c **** void dac_software_trigger_disable(uint32_t dac_periph)
 299:C:/Users/49542/Desktop/GD32F30x_Demo_Suites_V2.0.0/GD32F30x_Demo_Suites_V2.0.0/GD32F30x_Firmware_Library/GD32F30x_standard_peripheral/Source\gd32f30x_dac.c **** {
 939              		.loc 1 299 0
 940              		.cfi_startproc
 941              		@ args = 0, pretend = 0, frame = 8
 942              		@ frame_needed = 1, uses_anonymous_args = 0
 943              		@ link register save eliminated.
 944 0000 80B4     		push	{r7}
 945              	.LCFI74:
 946              		.cfi_def_cfa_offset 4
 947              		.cfi_offset 7, -4
 948 0002 83B0     		sub	sp, sp, #12
 949              	.LCFI75:
 950              		.cfi_def_cfa_offset 16
 951 0004 00AF     		add	r7, sp, #0
 952              	.LCFI76:
 953              		.cfi_def_cfa_register 7
 954 0006 7860     		str	r0, [r7, #4]
 300:C:/Users/49542/Desktop/GD32F30x_Demo_Suites_V2.0.0/GD32F30x_Demo_Suites_V2.0.0/GD32F30x_Firmware_Library/GD32F30x_standard_peripheral/Source\gd32f30x_dac.c ****     if(DAC0 == dac_periph){
 955              		.loc 1 300 0
 956 0008 7B68     		ldr	r3, [r7, #4]
 957 000a 002B     		cmp	r3, #0
 958 000c 06D1     		bne	.L83
ARM GAS  C:\Users\49542\AppData\Local\Temp\cc1SF7Vt.s 			page 23


 301:C:/Users/49542/Desktop/GD32F30x_Demo_Suites_V2.0.0/GD32F30x_Demo_Suites_V2.0.0/GD32F30x_Firmware_Library/GD32F30x_standard_peripheral/Source\gd32f30x_dac.c ****         DAC_SWT &= ~DAC_SWT_SWTR0;
 959              		.loc 1 301 0
 960 000e 094B     		ldr	r3, .L86
 961 0010 1B68     		ldr	r3, [r3]
 962 0012 084A     		ldr	r2, .L86
 963 0014 23F00103 		bic	r3, r3, #1
 964 0018 1360     		str	r3, [r2]
 302:C:/Users/49542/Desktop/GD32F30x_Demo_Suites_V2.0.0/GD32F30x_Demo_Suites_V2.0.0/GD32F30x_Firmware_Library/GD32F30x_standard_peripheral/Source\gd32f30x_dac.c ****     }else{
 303:C:/Users/49542/Desktop/GD32F30x_Demo_Suites_V2.0.0/GD32F30x_Demo_Suites_V2.0.0/GD32F30x_Firmware_Library/GD32F30x_standard_peripheral/Source\gd32f30x_dac.c ****         DAC_SWT &= ~DAC_SWT_SWTR1;
 304:C:/Users/49542/Desktop/GD32F30x_Demo_Suites_V2.0.0/GD32F30x_Demo_Suites_V2.0.0/GD32F30x_Firmware_Library/GD32F30x_standard_peripheral/Source\gd32f30x_dac.c ****     }
 305:C:/Users/49542/Desktop/GD32F30x_Demo_Suites_V2.0.0/GD32F30x_Demo_Suites_V2.0.0/GD32F30x_Firmware_Library/GD32F30x_standard_peripheral/Source\gd32f30x_dac.c **** }
 965              		.loc 1 305 0
 966 001a 05E0     		b	.L85
 967              	.L83:
 303:C:/Users/49542/Desktop/GD32F30x_Demo_Suites_V2.0.0/GD32F30x_Demo_Suites_V2.0.0/GD32F30x_Firmware_Library/GD32F30x_standard_peripheral/Source\gd32f30x_dac.c ****     }
 968              		.loc 1 303 0
 969 001c 054B     		ldr	r3, .L86
 970 001e 1B68     		ldr	r3, [r3]
 971 0020 044A     		ldr	r2, .L86
 972 0022 23F00203 		bic	r3, r3, #2
 973 0026 1360     		str	r3, [r2]
 974              	.L85:
 975              		.loc 1 305 0
 976 0028 00BF     		nop
 977 002a 0C37     		adds	r7, r7, #12
 978              	.LCFI77:
 979              		.cfi_def_cfa_offset 4
 980 002c BD46     		mov	sp, r7
 981              	.LCFI78:
 982              		.cfi_def_cfa_register 13
 983              		@ sp needed
 984 002e 5DF8047B 		ldr	r7, [sp], #4
 985              	.LCFI79:
 986              		.cfi_restore 7
 987              		.cfi_def_cfa_offset 0
 988 0032 7047     		bx	lr
 989              	.L87:
 990              		.align	2
 991              	.L86:
 992 0034 04740040 		.word	1073771524
 993              		.cfi_endproc
 994              	.LFE129:
 996              		.section	.text.dac_wave_mode_config,"ax",%progbits
 997              		.align	1
 998              		.global	dac_wave_mode_config
 999              		.syntax unified
 1000              		.thumb
 1001              		.thumb_func
 1002              		.fpu fpv4-sp-d16
 1004              	dac_wave_mode_config:
 1005              	.LFB130:
 306:C:/Users/49542/Desktop/GD32F30x_Demo_Suites_V2.0.0/GD32F30x_Demo_Suites_V2.0.0/GD32F30x_Firmware_Library/GD32F30x_standard_peripheral/Source\gd32f30x_dac.c **** 
 307:C:/Users/49542/Desktop/GD32F30x_Demo_Suites_V2.0.0/GD32F30x_Demo_Suites_V2.0.0/GD32F30x_Firmware_Library/GD32F30x_standard_peripheral/Source\gd32f30x_dac.c **** /*!
 308:C:/Users/49542/Desktop/GD32F30x_Demo_Suites_V2.0.0/GD32F30x_Demo_Suites_V2.0.0/GD32F30x_Firmware_Library/GD32F30x_standard_peripheral/Source\gd32f30x_dac.c ****     \brief      configure DAC wave mode
 309:C:/Users/49542/Desktop/GD32F30x_Demo_Suites_V2.0.0/GD32F30x_Demo_Suites_V2.0.0/GD32F30x_Firmware_Library/GD32F30x_standard_peripheral/Source\gd32f30x_dac.c ****     \param[in]  dac_periph: DACx(x = 0,1)
 310:C:/Users/49542/Desktop/GD32F30x_Demo_Suites_V2.0.0/GD32F30x_Demo_Suites_V2.0.0/GD32F30x_Firmware_Library/GD32F30x_standard_peripheral/Source\gd32f30x_dac.c ****     \param[in]  wave_mode: noise wave mode
 311:C:/Users/49542/Desktop/GD32F30x_Demo_Suites_V2.0.0/GD32F30x_Demo_Suites_V2.0.0/GD32F30x_Firmware_Library/GD32F30x_standard_peripheral/Source\gd32f30x_dac.c ****                 only one parameter can be selected which is shown as below:
ARM GAS  C:\Users\49542\AppData\Local\Temp\cc1SF7Vt.s 			page 24


 312:C:/Users/49542/Desktop/GD32F30x_Demo_Suites_V2.0.0/GD32F30x_Demo_Suites_V2.0.0/GD32F30x_Firmware_Library/GD32F30x_standard_peripheral/Source\gd32f30x_dac.c ****       \arg        DAC_WAVE_DISABLE: wave disable
 313:C:/Users/49542/Desktop/GD32F30x_Demo_Suites_V2.0.0/GD32F30x_Demo_Suites_V2.0.0/GD32F30x_Firmware_Library/GD32F30x_standard_peripheral/Source\gd32f30x_dac.c ****       \arg        DAC_WAVE_MODE_LFSR: LFSR noise mode
 314:C:/Users/49542/Desktop/GD32F30x_Demo_Suites_V2.0.0/GD32F30x_Demo_Suites_V2.0.0/GD32F30x_Firmware_Library/GD32F30x_standard_peripheral/Source\gd32f30x_dac.c ****       \arg        DAC_WAVE_MODE_TRIANGLE: triangle noise mode
 315:C:/Users/49542/Desktop/GD32F30x_Demo_Suites_V2.0.0/GD32F30x_Demo_Suites_V2.0.0/GD32F30x_Firmware_Library/GD32F30x_standard_peripheral/Source\gd32f30x_dac.c ****     \param[out] none
 316:C:/Users/49542/Desktop/GD32F30x_Demo_Suites_V2.0.0/GD32F30x_Demo_Suites_V2.0.0/GD32F30x_Firmware_Library/GD32F30x_standard_peripheral/Source\gd32f30x_dac.c ****     \retval     none
 317:C:/Users/49542/Desktop/GD32F30x_Demo_Suites_V2.0.0/GD32F30x_Demo_Suites_V2.0.0/GD32F30x_Firmware_Library/GD32F30x_standard_peripheral/Source\gd32f30x_dac.c **** */
 318:C:/Users/49542/Desktop/GD32F30x_Demo_Suites_V2.0.0/GD32F30x_Demo_Suites_V2.0.0/GD32F30x_Firmware_Library/GD32F30x_standard_peripheral/Source\gd32f30x_dac.c **** void dac_wave_mode_config(uint32_t dac_periph, uint32_t wave_mode)
 319:C:/Users/49542/Desktop/GD32F30x_Demo_Suites_V2.0.0/GD32F30x_Demo_Suites_V2.0.0/GD32F30x_Firmware_Library/GD32F30x_standard_peripheral/Source\gd32f30x_dac.c **** {
 1006              		.loc 1 319 0
 1007              		.cfi_startproc
 1008              		@ args = 0, pretend = 0, frame = 8
 1009              		@ frame_needed = 1, uses_anonymous_args = 0
 1010              		@ link register save eliminated.
 1011 0000 80B4     		push	{r7}
 1012              	.LCFI80:
 1013              		.cfi_def_cfa_offset 4
 1014              		.cfi_offset 7, -4
 1015 0002 83B0     		sub	sp, sp, #12
 1016              	.LCFI81:
 1017              		.cfi_def_cfa_offset 16
 1018 0004 00AF     		add	r7, sp, #0
 1019              	.LCFI82:
 1020              		.cfi_def_cfa_register 7
 1021 0006 7860     		str	r0, [r7, #4]
 1022 0008 3960     		str	r1, [r7]
 320:C:/Users/49542/Desktop/GD32F30x_Demo_Suites_V2.0.0/GD32F30x_Demo_Suites_V2.0.0/GD32F30x_Firmware_Library/GD32F30x_standard_peripheral/Source\gd32f30x_dac.c ****     if(DAC0 == dac_periph){
 1023              		.loc 1 320 0
 1024 000a 7B68     		ldr	r3, [r7, #4]
 1025 000c 002B     		cmp	r3, #0
 1026 000e 0CD1     		bne	.L89
 321:C:/Users/49542/Desktop/GD32F30x_Demo_Suites_V2.0.0/GD32F30x_Demo_Suites_V2.0.0/GD32F30x_Firmware_Library/GD32F30x_standard_peripheral/Source\gd32f30x_dac.c ****         /* configure DAC0 wave mode */
 322:C:/Users/49542/Desktop/GD32F30x_Demo_Suites_V2.0.0/GD32F30x_Demo_Suites_V2.0.0/GD32F30x_Firmware_Library/GD32F30x_standard_peripheral/Source\gd32f30x_dac.c ****         DAC_CTL &= ~DAC_CTL_DWM0;
 1027              		.loc 1 322 0
 1028 0010 0F4B     		ldr	r3, .L92
 1029 0012 1B68     		ldr	r3, [r3]
 1030 0014 0E4A     		ldr	r2, .L92
 1031 0016 23F0C003 		bic	r3, r3, #192
 1032 001a 1360     		str	r3, [r2]
 323:C:/Users/49542/Desktop/GD32F30x_Demo_Suites_V2.0.0/GD32F30x_Demo_Suites_V2.0.0/GD32F30x_Firmware_Library/GD32F30x_standard_peripheral/Source\gd32f30x_dac.c ****         DAC_CTL |= wave_mode;
 1033              		.loc 1 323 0
 1034 001c 0C4B     		ldr	r3, .L92
 1035 001e 1A68     		ldr	r2, [r3]
 1036 0020 0B49     		ldr	r1, .L92
 1037 0022 3B68     		ldr	r3, [r7]
 1038 0024 1343     		orrs	r3, r3, r2
 1039 0026 0B60     		str	r3, [r1]
 324:C:/Users/49542/Desktop/GD32F30x_Demo_Suites_V2.0.0/GD32F30x_Demo_Suites_V2.0.0/GD32F30x_Firmware_Library/GD32F30x_standard_peripheral/Source\gd32f30x_dac.c ****     }else{
 325:C:/Users/49542/Desktop/GD32F30x_Demo_Suites_V2.0.0/GD32F30x_Demo_Suites_V2.0.0/GD32F30x_Firmware_Library/GD32F30x_standard_peripheral/Source\gd32f30x_dac.c ****         /* configure DAC1 wave mode */
 326:C:/Users/49542/Desktop/GD32F30x_Demo_Suites_V2.0.0/GD32F30x_Demo_Suites_V2.0.0/GD32F30x_Firmware_Library/GD32F30x_standard_peripheral/Source\gd32f30x_dac.c ****         DAC_CTL &= ~DAC_CTL_DWM1;
 327:C:/Users/49542/Desktop/GD32F30x_Demo_Suites_V2.0.0/GD32F30x_Demo_Suites_V2.0.0/GD32F30x_Firmware_Library/GD32F30x_standard_peripheral/Source\gd32f30x_dac.c ****         DAC_CTL |= (wave_mode << DAC1_REG_OFFSET);
 328:C:/Users/49542/Desktop/GD32F30x_Demo_Suites_V2.0.0/GD32F30x_Demo_Suites_V2.0.0/GD32F30x_Firmware_Library/GD32F30x_standard_peripheral/Source\gd32f30x_dac.c ****     }
 329:C:/Users/49542/Desktop/GD32F30x_Demo_Suites_V2.0.0/GD32F30x_Demo_Suites_V2.0.0/GD32F30x_Firmware_Library/GD32F30x_standard_peripheral/Source\gd32f30x_dac.c **** }
 1040              		.loc 1 329 0
 1041 0028 0CE0     		b	.L91
 1042              	.L89:
 326:C:/Users/49542/Desktop/GD32F30x_Demo_Suites_V2.0.0/GD32F30x_Demo_Suites_V2.0.0/GD32F30x_Firmware_Library/GD32F30x_standard_peripheral/Source\gd32f30x_dac.c ****         DAC_CTL |= (wave_mode << DAC1_REG_OFFSET);
 1043              		.loc 1 326 0
ARM GAS  C:\Users\49542\AppData\Local\Temp\cc1SF7Vt.s 			page 25


 1044 002a 094B     		ldr	r3, .L92
 1045 002c 1B68     		ldr	r3, [r3]
 1046 002e 084A     		ldr	r2, .L92
 1047 0030 23F44003 		bic	r3, r3, #12582912
 1048 0034 1360     		str	r3, [r2]
 327:C:/Users/49542/Desktop/GD32F30x_Demo_Suites_V2.0.0/GD32F30x_Demo_Suites_V2.0.0/GD32F30x_Firmware_Library/GD32F30x_standard_peripheral/Source\gd32f30x_dac.c ****     }
 1049              		.loc 1 327 0
 1050 0036 064B     		ldr	r3, .L92
 1051 0038 1A68     		ldr	r2, [r3]
 1052 003a 3B68     		ldr	r3, [r7]
 1053 003c 1B04     		lsls	r3, r3, #16
 1054 003e 0449     		ldr	r1, .L92
 1055 0040 1343     		orrs	r3, r3, r2
 1056 0042 0B60     		str	r3, [r1]
 1057              	.L91:
 1058              		.loc 1 329 0
 1059 0044 00BF     		nop
 1060 0046 0C37     		adds	r7, r7, #12
 1061              	.LCFI83:
 1062              		.cfi_def_cfa_offset 4
 1063 0048 BD46     		mov	sp, r7
 1064              	.LCFI84:
 1065              		.cfi_def_cfa_register 13
 1066              		@ sp needed
 1067 004a 5DF8047B 		ldr	r7, [sp], #4
 1068              	.LCFI85:
 1069              		.cfi_restore 7
 1070              		.cfi_def_cfa_offset 0
 1071 004e 7047     		bx	lr
 1072              	.L93:
 1073              		.align	2
 1074              	.L92:
 1075 0050 00740040 		.word	1073771520
 1076              		.cfi_endproc
 1077              	.LFE130:
 1079              		.section	.text.dac_wave_bit_width_config,"ax",%progbits
 1080              		.align	1
 1081              		.global	dac_wave_bit_width_config
 1082              		.syntax unified
 1083              		.thumb
 1084              		.thumb_func
 1085              		.fpu fpv4-sp-d16
 1087              	dac_wave_bit_width_config:
 1088              	.LFB131:
 330:C:/Users/49542/Desktop/GD32F30x_Demo_Suites_V2.0.0/GD32F30x_Demo_Suites_V2.0.0/GD32F30x_Firmware_Library/GD32F30x_standard_peripheral/Source\gd32f30x_dac.c **** 
 331:C:/Users/49542/Desktop/GD32F30x_Demo_Suites_V2.0.0/GD32F30x_Demo_Suites_V2.0.0/GD32F30x_Firmware_Library/GD32F30x_standard_peripheral/Source\gd32f30x_dac.c **** /*!
 332:C:/Users/49542/Desktop/GD32F30x_Demo_Suites_V2.0.0/GD32F30x_Demo_Suites_V2.0.0/GD32F30x_Firmware_Library/GD32F30x_standard_peripheral/Source\gd32f30x_dac.c ****     \brief      configure DAC wave bit width
 333:C:/Users/49542/Desktop/GD32F30x_Demo_Suites_V2.0.0/GD32F30x_Demo_Suites_V2.0.0/GD32F30x_Firmware_Library/GD32F30x_standard_peripheral/Source\gd32f30x_dac.c ****     \param[in]  dac_periph: DACx(x = 0,1)
 334:C:/Users/49542/Desktop/GD32F30x_Demo_Suites_V2.0.0/GD32F30x_Demo_Suites_V2.0.0/GD32F30x_Firmware_Library/GD32F30x_standard_peripheral/Source\gd32f30x_dac.c ****     \param[in]  bit_width: noise wave bit width
 335:C:/Users/49542/Desktop/GD32F30x_Demo_Suites_V2.0.0/GD32F30x_Demo_Suites_V2.0.0/GD32F30x_Firmware_Library/GD32F30x_standard_peripheral/Source\gd32f30x_dac.c ****                 only one parameter can be selected which is shown as below:
 336:C:/Users/49542/Desktop/GD32F30x_Demo_Suites_V2.0.0/GD32F30x_Demo_Suites_V2.0.0/GD32F30x_Firmware_Library/GD32F30x_standard_peripheral/Source\gd32f30x_dac.c ****       \arg        DAC_WAVE_BIT_WIDTH_1: bit width of the wave signal is 1
 337:C:/Users/49542/Desktop/GD32F30x_Demo_Suites_V2.0.0/GD32F30x_Demo_Suites_V2.0.0/GD32F30x_Firmware_Library/GD32F30x_standard_peripheral/Source\gd32f30x_dac.c ****       \arg        DAC_WAVE_BIT_WIDTH_2: bit width of the wave signal is 2
 338:C:/Users/49542/Desktop/GD32F30x_Demo_Suites_V2.0.0/GD32F30x_Demo_Suites_V2.0.0/GD32F30x_Firmware_Library/GD32F30x_standard_peripheral/Source\gd32f30x_dac.c ****       \arg        DAC_WAVE_BIT_WIDTH_3: bit width of the wave signal is 3
 339:C:/Users/49542/Desktop/GD32F30x_Demo_Suites_V2.0.0/GD32F30x_Demo_Suites_V2.0.0/GD32F30x_Firmware_Library/GD32F30x_standard_peripheral/Source\gd32f30x_dac.c ****       \arg        DAC_WAVE_BIT_WIDTH_4: bit width of the wave signal is 4
 340:C:/Users/49542/Desktop/GD32F30x_Demo_Suites_V2.0.0/GD32F30x_Demo_Suites_V2.0.0/GD32F30x_Firmware_Library/GD32F30x_standard_peripheral/Source\gd32f30x_dac.c ****       \arg        DAC_WAVE_BIT_WIDTH_5: bit width of the wave signal is 5
 341:C:/Users/49542/Desktop/GD32F30x_Demo_Suites_V2.0.0/GD32F30x_Demo_Suites_V2.0.0/GD32F30x_Firmware_Library/GD32F30x_standard_peripheral/Source\gd32f30x_dac.c ****       \arg        DAC_WAVE_BIT_WIDTH_6: bit width of the wave signal is 6
 342:C:/Users/49542/Desktop/GD32F30x_Demo_Suites_V2.0.0/GD32F30x_Demo_Suites_V2.0.0/GD32F30x_Firmware_Library/GD32F30x_standard_peripheral/Source\gd32f30x_dac.c ****       \arg        DAC_WAVE_BIT_WIDTH_7: bit width of the wave signal is 7
ARM GAS  C:\Users\49542\AppData\Local\Temp\cc1SF7Vt.s 			page 26


 343:C:/Users/49542/Desktop/GD32F30x_Demo_Suites_V2.0.0/GD32F30x_Demo_Suites_V2.0.0/GD32F30x_Firmware_Library/GD32F30x_standard_peripheral/Source\gd32f30x_dac.c ****       \arg        DAC_WAVE_BIT_WIDTH_8: bit width of the wave signal is 8
 344:C:/Users/49542/Desktop/GD32F30x_Demo_Suites_V2.0.0/GD32F30x_Demo_Suites_V2.0.0/GD32F30x_Firmware_Library/GD32F30x_standard_peripheral/Source\gd32f30x_dac.c ****       \arg        DAC_WAVE_BIT_WIDTH_9: bit width of the wave signal is 9
 345:C:/Users/49542/Desktop/GD32F30x_Demo_Suites_V2.0.0/GD32F30x_Demo_Suites_V2.0.0/GD32F30x_Firmware_Library/GD32F30x_standard_peripheral/Source\gd32f30x_dac.c ****       \arg        DAC_WAVE_BIT_WIDTH_10: bit width of the wave signal is 10
 346:C:/Users/49542/Desktop/GD32F30x_Demo_Suites_V2.0.0/GD32F30x_Demo_Suites_V2.0.0/GD32F30x_Firmware_Library/GD32F30x_standard_peripheral/Source\gd32f30x_dac.c ****       \arg        DAC_WAVE_BIT_WIDTH_11: bit width of the wave signal is 11
 347:C:/Users/49542/Desktop/GD32F30x_Demo_Suites_V2.0.0/GD32F30x_Demo_Suites_V2.0.0/GD32F30x_Firmware_Library/GD32F30x_standard_peripheral/Source\gd32f30x_dac.c ****       \arg        DAC_WAVE_BIT_WIDTH_12: bit width of the wave signal is 12
 348:C:/Users/49542/Desktop/GD32F30x_Demo_Suites_V2.0.0/GD32F30x_Demo_Suites_V2.0.0/GD32F30x_Firmware_Library/GD32F30x_standard_peripheral/Source\gd32f30x_dac.c ****     \param[out] none
 349:C:/Users/49542/Desktop/GD32F30x_Demo_Suites_V2.0.0/GD32F30x_Demo_Suites_V2.0.0/GD32F30x_Firmware_Library/GD32F30x_standard_peripheral/Source\gd32f30x_dac.c ****     \retval     none
 350:C:/Users/49542/Desktop/GD32F30x_Demo_Suites_V2.0.0/GD32F30x_Demo_Suites_V2.0.0/GD32F30x_Firmware_Library/GD32F30x_standard_peripheral/Source\gd32f30x_dac.c **** */
 351:C:/Users/49542/Desktop/GD32F30x_Demo_Suites_V2.0.0/GD32F30x_Demo_Suites_V2.0.0/GD32F30x_Firmware_Library/GD32F30x_standard_peripheral/Source\gd32f30x_dac.c **** void dac_wave_bit_width_config(uint32_t dac_periph, uint32_t bit_width)
 352:C:/Users/49542/Desktop/GD32F30x_Demo_Suites_V2.0.0/GD32F30x_Demo_Suites_V2.0.0/GD32F30x_Firmware_Library/GD32F30x_standard_peripheral/Source\gd32f30x_dac.c **** {
 1089              		.loc 1 352 0
 1090              		.cfi_startproc
 1091              		@ args = 0, pretend = 0, frame = 8
 1092              		@ frame_needed = 1, uses_anonymous_args = 0
 1093              		@ link register save eliminated.
 1094 0000 80B4     		push	{r7}
 1095              	.LCFI86:
 1096              		.cfi_def_cfa_offset 4
 1097              		.cfi_offset 7, -4
 1098 0002 83B0     		sub	sp, sp, #12
 1099              	.LCFI87:
 1100              		.cfi_def_cfa_offset 16
 1101 0004 00AF     		add	r7, sp, #0
 1102              	.LCFI88:
 1103              		.cfi_def_cfa_register 7
 1104 0006 7860     		str	r0, [r7, #4]
 1105 0008 3960     		str	r1, [r7]
 353:C:/Users/49542/Desktop/GD32F30x_Demo_Suites_V2.0.0/GD32F30x_Demo_Suites_V2.0.0/GD32F30x_Firmware_Library/GD32F30x_standard_peripheral/Source\gd32f30x_dac.c ****     if(DAC0 == dac_periph){
 1106              		.loc 1 353 0
 1107 000a 7B68     		ldr	r3, [r7, #4]
 1108 000c 002B     		cmp	r3, #0
 1109 000e 0CD1     		bne	.L95
 354:C:/Users/49542/Desktop/GD32F30x_Demo_Suites_V2.0.0/GD32F30x_Demo_Suites_V2.0.0/GD32F30x_Firmware_Library/GD32F30x_standard_peripheral/Source\gd32f30x_dac.c ****         /* configure DAC0 wave bit width */
 355:C:/Users/49542/Desktop/GD32F30x_Demo_Suites_V2.0.0/GD32F30x_Demo_Suites_V2.0.0/GD32F30x_Firmware_Library/GD32F30x_standard_peripheral/Source\gd32f30x_dac.c ****         DAC_CTL &= ~DAC_CTL_DWBW0;
 1110              		.loc 1 355 0
 1111 0010 0F4B     		ldr	r3, .L98
 1112 0012 1B68     		ldr	r3, [r3]
 1113 0014 0E4A     		ldr	r2, .L98
 1114 0016 23F47063 		bic	r3, r3, #3840
 1115 001a 1360     		str	r3, [r2]
 356:C:/Users/49542/Desktop/GD32F30x_Demo_Suites_V2.0.0/GD32F30x_Demo_Suites_V2.0.0/GD32F30x_Firmware_Library/GD32F30x_standard_peripheral/Source\gd32f30x_dac.c ****         DAC_CTL |= bit_width;
 1116              		.loc 1 356 0
 1117 001c 0C4B     		ldr	r3, .L98
 1118 001e 1A68     		ldr	r2, [r3]
 1119 0020 0B49     		ldr	r1, .L98
 1120 0022 3B68     		ldr	r3, [r7]
 1121 0024 1343     		orrs	r3, r3, r2
 1122 0026 0B60     		str	r3, [r1]
 357:C:/Users/49542/Desktop/GD32F30x_Demo_Suites_V2.0.0/GD32F30x_Demo_Suites_V2.0.0/GD32F30x_Firmware_Library/GD32F30x_standard_peripheral/Source\gd32f30x_dac.c ****     }else{
 358:C:/Users/49542/Desktop/GD32F30x_Demo_Suites_V2.0.0/GD32F30x_Demo_Suites_V2.0.0/GD32F30x_Firmware_Library/GD32F30x_standard_peripheral/Source\gd32f30x_dac.c ****         /* configure DAC1 wave bit width */
 359:C:/Users/49542/Desktop/GD32F30x_Demo_Suites_V2.0.0/GD32F30x_Demo_Suites_V2.0.0/GD32F30x_Firmware_Library/GD32F30x_standard_peripheral/Source\gd32f30x_dac.c ****         DAC_CTL &= ~DAC_CTL_DWBW1;
 360:C:/Users/49542/Desktop/GD32F30x_Demo_Suites_V2.0.0/GD32F30x_Demo_Suites_V2.0.0/GD32F30x_Firmware_Library/GD32F30x_standard_peripheral/Source\gd32f30x_dac.c ****         DAC_CTL |= (bit_width << DAC1_REG_OFFSET);
 361:C:/Users/49542/Desktop/GD32F30x_Demo_Suites_V2.0.0/GD32F30x_Demo_Suites_V2.0.0/GD32F30x_Firmware_Library/GD32F30x_standard_peripheral/Source\gd32f30x_dac.c ****     }
 362:C:/Users/49542/Desktop/GD32F30x_Demo_Suites_V2.0.0/GD32F30x_Demo_Suites_V2.0.0/GD32F30x_Firmware_Library/GD32F30x_standard_peripheral/Source\gd32f30x_dac.c **** }
 1123              		.loc 1 362 0
 1124 0028 0CE0     		b	.L97
 1125              	.L95:
ARM GAS  C:\Users\49542\AppData\Local\Temp\cc1SF7Vt.s 			page 27


 359:C:/Users/49542/Desktop/GD32F30x_Demo_Suites_V2.0.0/GD32F30x_Demo_Suites_V2.0.0/GD32F30x_Firmware_Library/GD32F30x_standard_peripheral/Source\gd32f30x_dac.c ****         DAC_CTL |= (bit_width << DAC1_REG_OFFSET);
 1126              		.loc 1 359 0
 1127 002a 094B     		ldr	r3, .L98
 1128 002c 1B68     		ldr	r3, [r3]
 1129 002e 084A     		ldr	r2, .L98
 1130 0030 23F07063 		bic	r3, r3, #251658240
 1131 0034 1360     		str	r3, [r2]
 360:C:/Users/49542/Desktop/GD32F30x_Demo_Suites_V2.0.0/GD32F30x_Demo_Suites_V2.0.0/GD32F30x_Firmware_Library/GD32F30x_standard_peripheral/Source\gd32f30x_dac.c ****     }
 1132              		.loc 1 360 0
 1133 0036 064B     		ldr	r3, .L98
 1134 0038 1A68     		ldr	r2, [r3]
 1135 003a 3B68     		ldr	r3, [r7]
 1136 003c 1B04     		lsls	r3, r3, #16
 1137 003e 0449     		ldr	r1, .L98
 1138 0040 1343     		orrs	r3, r3, r2
 1139 0042 0B60     		str	r3, [r1]
 1140              	.L97:
 1141              		.loc 1 362 0
 1142 0044 00BF     		nop
 1143 0046 0C37     		adds	r7, r7, #12
 1144              	.LCFI89:
 1145              		.cfi_def_cfa_offset 4
 1146 0048 BD46     		mov	sp, r7
 1147              	.LCFI90:
 1148              		.cfi_def_cfa_register 13
 1149              		@ sp needed
 1150 004a 5DF8047B 		ldr	r7, [sp], #4
 1151              	.LCFI91:
 1152              		.cfi_restore 7
 1153              		.cfi_def_cfa_offset 0
 1154 004e 7047     		bx	lr
 1155              	.L99:
 1156              		.align	2
 1157              	.L98:
 1158 0050 00740040 		.word	1073771520
 1159              		.cfi_endproc
 1160              	.LFE131:
 1162              		.section	.text.dac_lfsr_noise_config,"ax",%progbits
 1163              		.align	1
 1164              		.global	dac_lfsr_noise_config
 1165              		.syntax unified
 1166              		.thumb
 1167              		.thumb_func
 1168              		.fpu fpv4-sp-d16
 1170              	dac_lfsr_noise_config:
 1171              	.LFB132:
 363:C:/Users/49542/Desktop/GD32F30x_Demo_Suites_V2.0.0/GD32F30x_Demo_Suites_V2.0.0/GD32F30x_Firmware_Library/GD32F30x_standard_peripheral/Source\gd32f30x_dac.c **** 
 364:C:/Users/49542/Desktop/GD32F30x_Demo_Suites_V2.0.0/GD32F30x_Demo_Suites_V2.0.0/GD32F30x_Firmware_Library/GD32F30x_standard_peripheral/Source\gd32f30x_dac.c **** /*!
 365:C:/Users/49542/Desktop/GD32F30x_Demo_Suites_V2.0.0/GD32F30x_Demo_Suites_V2.0.0/GD32F30x_Firmware_Library/GD32F30x_standard_peripheral/Source\gd32f30x_dac.c ****     \brief      configure DAC LFSR noise mode
 366:C:/Users/49542/Desktop/GD32F30x_Demo_Suites_V2.0.0/GD32F30x_Demo_Suites_V2.0.0/GD32F30x_Firmware_Library/GD32F30x_standard_peripheral/Source\gd32f30x_dac.c ****     \param[in]  dac_periph: DACx(x = 0,1)
 367:C:/Users/49542/Desktop/GD32F30x_Demo_Suites_V2.0.0/GD32F30x_Demo_Suites_V2.0.0/GD32F30x_Firmware_Library/GD32F30x_standard_peripheral/Source\gd32f30x_dac.c ****     \param[in]  unmask_bits: unmask LFSR bits in DAC LFSR noise mode
 368:C:/Users/49542/Desktop/GD32F30x_Demo_Suites_V2.0.0/GD32F30x_Demo_Suites_V2.0.0/GD32F30x_Firmware_Library/GD32F30x_standard_peripheral/Source\gd32f30x_dac.c ****                 only one parameter can be selected which is shown as below:
 369:C:/Users/49542/Desktop/GD32F30x_Demo_Suites_V2.0.0/GD32F30x_Demo_Suites_V2.0.0/GD32F30x_Firmware_Library/GD32F30x_standard_peripheral/Source\gd32f30x_dac.c ****       \arg        DAC_LFSR_BIT0: unmask the LFSR bit0
 370:C:/Users/49542/Desktop/GD32F30x_Demo_Suites_V2.0.0/GD32F30x_Demo_Suites_V2.0.0/GD32F30x_Firmware_Library/GD32F30x_standard_peripheral/Source\gd32f30x_dac.c ****       \arg        DAC_LFSR_BITS1_0: unmask the LFSR bits[1:0]
 371:C:/Users/49542/Desktop/GD32F30x_Demo_Suites_V2.0.0/GD32F30x_Demo_Suites_V2.0.0/GD32F30x_Firmware_Library/GD32F30x_standard_peripheral/Source\gd32f30x_dac.c ****       \arg        DAC_LFSR_BITS2_0: unmask the LFSR bits[2:0]
 372:C:/Users/49542/Desktop/GD32F30x_Demo_Suites_V2.0.0/GD32F30x_Demo_Suites_V2.0.0/GD32F30x_Firmware_Library/GD32F30x_standard_peripheral/Source\gd32f30x_dac.c ****       \arg        DAC_LFSR_BITS3_0: unmask the LFSR bits[3:0]
 373:C:/Users/49542/Desktop/GD32F30x_Demo_Suites_V2.0.0/GD32F30x_Demo_Suites_V2.0.0/GD32F30x_Firmware_Library/GD32F30x_standard_peripheral/Source\gd32f30x_dac.c ****       \arg        DAC_LFSR_BITS4_0: unmask the LFSR bits[4:0]
ARM GAS  C:\Users\49542\AppData\Local\Temp\cc1SF7Vt.s 			page 28


 374:C:/Users/49542/Desktop/GD32F30x_Demo_Suites_V2.0.0/GD32F30x_Demo_Suites_V2.0.0/GD32F30x_Firmware_Library/GD32F30x_standard_peripheral/Source\gd32f30x_dac.c ****       \arg        DAC_LFSR_BITS5_0: unmask the LFSR bits[5:0]
 375:C:/Users/49542/Desktop/GD32F30x_Demo_Suites_V2.0.0/GD32F30x_Demo_Suites_V2.0.0/GD32F30x_Firmware_Library/GD32F30x_standard_peripheral/Source\gd32f30x_dac.c ****       \arg        DAC_LFSR_BITS6_0: unmask the LFSR bits[6:0]
 376:C:/Users/49542/Desktop/GD32F30x_Demo_Suites_V2.0.0/GD32F30x_Demo_Suites_V2.0.0/GD32F30x_Firmware_Library/GD32F30x_standard_peripheral/Source\gd32f30x_dac.c ****       \arg        DAC_LFSR_BITS7_0: unmask the LFSR bits[7:0]
 377:C:/Users/49542/Desktop/GD32F30x_Demo_Suites_V2.0.0/GD32F30x_Demo_Suites_V2.0.0/GD32F30x_Firmware_Library/GD32F30x_standard_peripheral/Source\gd32f30x_dac.c ****       \arg        DAC_LFSR_BITS8_0: unmask the LFSR bits[8:0]
 378:C:/Users/49542/Desktop/GD32F30x_Demo_Suites_V2.0.0/GD32F30x_Demo_Suites_V2.0.0/GD32F30x_Firmware_Library/GD32F30x_standard_peripheral/Source\gd32f30x_dac.c ****       \arg        DAC_LFSR_BITS9_0: unmask the LFSR bits[9:0]
 379:C:/Users/49542/Desktop/GD32F30x_Demo_Suites_V2.0.0/GD32F30x_Demo_Suites_V2.0.0/GD32F30x_Firmware_Library/GD32F30x_standard_peripheral/Source\gd32f30x_dac.c ****       \arg        DAC_LFSR_BITS10_0: unmask the LFSR bits[10:0]
 380:C:/Users/49542/Desktop/GD32F30x_Demo_Suites_V2.0.0/GD32F30x_Demo_Suites_V2.0.0/GD32F30x_Firmware_Library/GD32F30x_standard_peripheral/Source\gd32f30x_dac.c ****       \arg        DAC_LFSR_BITS11_0: unmask the LFSR bits[11:0]
 381:C:/Users/49542/Desktop/GD32F30x_Demo_Suites_V2.0.0/GD32F30x_Demo_Suites_V2.0.0/GD32F30x_Firmware_Library/GD32F30x_standard_peripheral/Source\gd32f30x_dac.c ****     \param[out] none
 382:C:/Users/49542/Desktop/GD32F30x_Demo_Suites_V2.0.0/GD32F30x_Demo_Suites_V2.0.0/GD32F30x_Firmware_Library/GD32F30x_standard_peripheral/Source\gd32f30x_dac.c ****     \retval     none
 383:C:/Users/49542/Desktop/GD32F30x_Demo_Suites_V2.0.0/GD32F30x_Demo_Suites_V2.0.0/GD32F30x_Firmware_Library/GD32F30x_standard_peripheral/Source\gd32f30x_dac.c **** */
 384:C:/Users/49542/Desktop/GD32F30x_Demo_Suites_V2.0.0/GD32F30x_Demo_Suites_V2.0.0/GD32F30x_Firmware_Library/GD32F30x_standard_peripheral/Source\gd32f30x_dac.c **** void dac_lfsr_noise_config(uint32_t dac_periph, uint32_t unmask_bits)
 385:C:/Users/49542/Desktop/GD32F30x_Demo_Suites_V2.0.0/GD32F30x_Demo_Suites_V2.0.0/GD32F30x_Firmware_Library/GD32F30x_standard_peripheral/Source\gd32f30x_dac.c **** {
 1172              		.loc 1 385 0
 1173              		.cfi_startproc
 1174              		@ args = 0, pretend = 0, frame = 8
 1175              		@ frame_needed = 1, uses_anonymous_args = 0
 1176              		@ link register save eliminated.
 1177 0000 80B4     		push	{r7}
 1178              	.LCFI92:
 1179              		.cfi_def_cfa_offset 4
 1180              		.cfi_offset 7, -4
 1181 0002 83B0     		sub	sp, sp, #12
 1182              	.LCFI93:
 1183              		.cfi_def_cfa_offset 16
 1184 0004 00AF     		add	r7, sp, #0
 1185              	.LCFI94:
 1186              		.cfi_def_cfa_register 7
 1187 0006 7860     		str	r0, [r7, #4]
 1188 0008 3960     		str	r1, [r7]
 386:C:/Users/49542/Desktop/GD32F30x_Demo_Suites_V2.0.0/GD32F30x_Demo_Suites_V2.0.0/GD32F30x_Firmware_Library/GD32F30x_standard_peripheral/Source\gd32f30x_dac.c ****     if(DAC0 == dac_periph){
 1189              		.loc 1 386 0
 1190 000a 7B68     		ldr	r3, [r7, #4]
 1191 000c 002B     		cmp	r3, #0
 1192 000e 0CD1     		bne	.L101
 387:C:/Users/49542/Desktop/GD32F30x_Demo_Suites_V2.0.0/GD32F30x_Demo_Suites_V2.0.0/GD32F30x_Firmware_Library/GD32F30x_standard_peripheral/Source\gd32f30x_dac.c ****         /* configure DAC0 LFSR noise mode */
 388:C:/Users/49542/Desktop/GD32F30x_Demo_Suites_V2.0.0/GD32F30x_Demo_Suites_V2.0.0/GD32F30x_Firmware_Library/GD32F30x_standard_peripheral/Source\gd32f30x_dac.c ****         DAC_CTL &= ~DAC_CTL_DWBW0;
 1193              		.loc 1 388 0
 1194 0010 0F4B     		ldr	r3, .L104
 1195 0012 1B68     		ldr	r3, [r3]
 1196 0014 0E4A     		ldr	r2, .L104
 1197 0016 23F47063 		bic	r3, r3, #3840
 1198 001a 1360     		str	r3, [r2]
 389:C:/Users/49542/Desktop/GD32F30x_Demo_Suites_V2.0.0/GD32F30x_Demo_Suites_V2.0.0/GD32F30x_Firmware_Library/GD32F30x_standard_peripheral/Source\gd32f30x_dac.c ****         DAC_CTL |= unmask_bits;
 1199              		.loc 1 389 0
 1200 001c 0C4B     		ldr	r3, .L104
 1201 001e 1A68     		ldr	r2, [r3]
 1202 0020 0B49     		ldr	r1, .L104
 1203 0022 3B68     		ldr	r3, [r7]
 1204 0024 1343     		orrs	r3, r3, r2
 1205 0026 0B60     		str	r3, [r1]
 390:C:/Users/49542/Desktop/GD32F30x_Demo_Suites_V2.0.0/GD32F30x_Demo_Suites_V2.0.0/GD32F30x_Firmware_Library/GD32F30x_standard_peripheral/Source\gd32f30x_dac.c ****     }else{
 391:C:/Users/49542/Desktop/GD32F30x_Demo_Suites_V2.0.0/GD32F30x_Demo_Suites_V2.0.0/GD32F30x_Firmware_Library/GD32F30x_standard_peripheral/Source\gd32f30x_dac.c ****         /* configure DAC1 LFSR noise mode */
 392:C:/Users/49542/Desktop/GD32F30x_Demo_Suites_V2.0.0/GD32F30x_Demo_Suites_V2.0.0/GD32F30x_Firmware_Library/GD32F30x_standard_peripheral/Source\gd32f30x_dac.c ****         DAC_CTL &= ~DAC_CTL_DWBW1;
 393:C:/Users/49542/Desktop/GD32F30x_Demo_Suites_V2.0.0/GD32F30x_Demo_Suites_V2.0.0/GD32F30x_Firmware_Library/GD32F30x_standard_peripheral/Source\gd32f30x_dac.c ****         DAC_CTL |= (unmask_bits << DAC1_REG_OFFSET);
 394:C:/Users/49542/Desktop/GD32F30x_Demo_Suites_V2.0.0/GD32F30x_Demo_Suites_V2.0.0/GD32F30x_Firmware_Library/GD32F30x_standard_peripheral/Source\gd32f30x_dac.c ****     }
 395:C:/Users/49542/Desktop/GD32F30x_Demo_Suites_V2.0.0/GD32F30x_Demo_Suites_V2.0.0/GD32F30x_Firmware_Library/GD32F30x_standard_peripheral/Source\gd32f30x_dac.c **** }
 1206              		.loc 1 395 0
ARM GAS  C:\Users\49542\AppData\Local\Temp\cc1SF7Vt.s 			page 29


 1207 0028 0CE0     		b	.L103
 1208              	.L101:
 392:C:/Users/49542/Desktop/GD32F30x_Demo_Suites_V2.0.0/GD32F30x_Demo_Suites_V2.0.0/GD32F30x_Firmware_Library/GD32F30x_standard_peripheral/Source\gd32f30x_dac.c ****         DAC_CTL |= (unmask_bits << DAC1_REG_OFFSET);
 1209              		.loc 1 392 0
 1210 002a 094B     		ldr	r3, .L104
 1211 002c 1B68     		ldr	r3, [r3]
 1212 002e 084A     		ldr	r2, .L104
 1213 0030 23F07063 		bic	r3, r3, #251658240
 1214 0034 1360     		str	r3, [r2]
 393:C:/Users/49542/Desktop/GD32F30x_Demo_Suites_V2.0.0/GD32F30x_Demo_Suites_V2.0.0/GD32F30x_Firmware_Library/GD32F30x_standard_peripheral/Source\gd32f30x_dac.c ****     }
 1215              		.loc 1 393 0
 1216 0036 064B     		ldr	r3, .L104
 1217 0038 1A68     		ldr	r2, [r3]
 1218 003a 3B68     		ldr	r3, [r7]
 1219 003c 1B04     		lsls	r3, r3, #16
 1220 003e 0449     		ldr	r1, .L104
 1221 0040 1343     		orrs	r3, r3, r2
 1222 0042 0B60     		str	r3, [r1]
 1223              	.L103:
 1224              		.loc 1 395 0
 1225 0044 00BF     		nop
 1226 0046 0C37     		adds	r7, r7, #12
 1227              	.LCFI95:
 1228              		.cfi_def_cfa_offset 4
 1229 0048 BD46     		mov	sp, r7
 1230              	.LCFI96:
 1231              		.cfi_def_cfa_register 13
 1232              		@ sp needed
 1233 004a 5DF8047B 		ldr	r7, [sp], #4
 1234              	.LCFI97:
 1235              		.cfi_restore 7
 1236              		.cfi_def_cfa_offset 0
 1237 004e 7047     		bx	lr
 1238              	.L105:
 1239              		.align	2
 1240              	.L104:
 1241 0050 00740040 		.word	1073771520
 1242              		.cfi_endproc
 1243              	.LFE132:
 1245              		.section	.text.dac_triangle_noise_config,"ax",%progbits
 1246              		.align	1
 1247              		.global	dac_triangle_noise_config
 1248              		.syntax unified
 1249              		.thumb
 1250              		.thumb_func
 1251              		.fpu fpv4-sp-d16
 1253              	dac_triangle_noise_config:
 1254              	.LFB133:
 396:C:/Users/49542/Desktop/GD32F30x_Demo_Suites_V2.0.0/GD32F30x_Demo_Suites_V2.0.0/GD32F30x_Firmware_Library/GD32F30x_standard_peripheral/Source\gd32f30x_dac.c **** 
 397:C:/Users/49542/Desktop/GD32F30x_Demo_Suites_V2.0.0/GD32F30x_Demo_Suites_V2.0.0/GD32F30x_Firmware_Library/GD32F30x_standard_peripheral/Source\gd32f30x_dac.c **** /*!
 398:C:/Users/49542/Desktop/GD32F30x_Demo_Suites_V2.0.0/GD32F30x_Demo_Suites_V2.0.0/GD32F30x_Firmware_Library/GD32F30x_standard_peripheral/Source\gd32f30x_dac.c ****     \brief      configure DAC triangle noise mode
 399:C:/Users/49542/Desktop/GD32F30x_Demo_Suites_V2.0.0/GD32F30x_Demo_Suites_V2.0.0/GD32F30x_Firmware_Library/GD32F30x_standard_peripheral/Source\gd32f30x_dac.c ****     \param[in]  dac_periph: DACx(x = 0,1)
 400:C:/Users/49542/Desktop/GD32F30x_Demo_Suites_V2.0.0/GD32F30x_Demo_Suites_V2.0.0/GD32F30x_Firmware_Library/GD32F30x_standard_peripheral/Source\gd32f30x_dac.c ****     \param[in]  amplitude: triangle amplitude in DAC triangle noise mode
 401:C:/Users/49542/Desktop/GD32F30x_Demo_Suites_V2.0.0/GD32F30x_Demo_Suites_V2.0.0/GD32F30x_Firmware_Library/GD32F30x_standard_peripheral/Source\gd32f30x_dac.c ****                 only one parameter can be selected which is shown as below:
 402:C:/Users/49542/Desktop/GD32F30x_Demo_Suites_V2.0.0/GD32F30x_Demo_Suites_V2.0.0/GD32F30x_Firmware_Library/GD32F30x_standard_peripheral/Source\gd32f30x_dac.c ****       \arg        DAC_TRIANGLE_AMPLITUDE_1: triangle amplitude is 1
 403:C:/Users/49542/Desktop/GD32F30x_Demo_Suites_V2.0.0/GD32F30x_Demo_Suites_V2.0.0/GD32F30x_Firmware_Library/GD32F30x_standard_peripheral/Source\gd32f30x_dac.c ****       \arg        DAC_TRIANGLE_AMPLITUDE_3: triangle amplitude is 3
 404:C:/Users/49542/Desktop/GD32F30x_Demo_Suites_V2.0.0/GD32F30x_Demo_Suites_V2.0.0/GD32F30x_Firmware_Library/GD32F30x_standard_peripheral/Source\gd32f30x_dac.c ****       \arg        DAC_TRIANGLE_AMPLITUDE_7: triangle amplitude is 7
ARM GAS  C:\Users\49542\AppData\Local\Temp\cc1SF7Vt.s 			page 30


 405:C:/Users/49542/Desktop/GD32F30x_Demo_Suites_V2.0.0/GD32F30x_Demo_Suites_V2.0.0/GD32F30x_Firmware_Library/GD32F30x_standard_peripheral/Source\gd32f30x_dac.c ****       \arg        DAC_TRIANGLE_AMPLITUDE_15: triangle amplitude is 15
 406:C:/Users/49542/Desktop/GD32F30x_Demo_Suites_V2.0.0/GD32F30x_Demo_Suites_V2.0.0/GD32F30x_Firmware_Library/GD32F30x_standard_peripheral/Source\gd32f30x_dac.c ****       \arg        DAC_TRIANGLE_AMPLITUDE_31: triangle amplitude is 31
 407:C:/Users/49542/Desktop/GD32F30x_Demo_Suites_V2.0.0/GD32F30x_Demo_Suites_V2.0.0/GD32F30x_Firmware_Library/GD32F30x_standard_peripheral/Source\gd32f30x_dac.c ****       \arg        DAC_TRIANGLE_AMPLITUDE_63: triangle amplitude is 63
 408:C:/Users/49542/Desktop/GD32F30x_Demo_Suites_V2.0.0/GD32F30x_Demo_Suites_V2.0.0/GD32F30x_Firmware_Library/GD32F30x_standard_peripheral/Source\gd32f30x_dac.c ****       \arg        DAC_TRIANGLE_AMPLITUDE_127: triangle amplitude is 127
 409:C:/Users/49542/Desktop/GD32F30x_Demo_Suites_V2.0.0/GD32F30x_Demo_Suites_V2.0.0/GD32F30x_Firmware_Library/GD32F30x_standard_peripheral/Source\gd32f30x_dac.c ****       \arg        DAC_TRIANGLE_AMPLITUDE_255: triangle amplitude is 255
 410:C:/Users/49542/Desktop/GD32F30x_Demo_Suites_V2.0.0/GD32F30x_Demo_Suites_V2.0.0/GD32F30x_Firmware_Library/GD32F30x_standard_peripheral/Source\gd32f30x_dac.c ****       \arg        DAC_TRIANGLE_AMPLITUDE_511: triangle amplitude is 511
 411:C:/Users/49542/Desktop/GD32F30x_Demo_Suites_V2.0.0/GD32F30x_Demo_Suites_V2.0.0/GD32F30x_Firmware_Library/GD32F30x_standard_peripheral/Source\gd32f30x_dac.c ****       \arg        DAC_TRIANGLE_AMPLITUDE_1023: triangle amplitude is 1023
 412:C:/Users/49542/Desktop/GD32F30x_Demo_Suites_V2.0.0/GD32F30x_Demo_Suites_V2.0.0/GD32F30x_Firmware_Library/GD32F30x_standard_peripheral/Source\gd32f30x_dac.c ****       \arg        DAC_TRIANGLE_AMPLITUDE_2047: triangle amplitude is 2047
 413:C:/Users/49542/Desktop/GD32F30x_Demo_Suites_V2.0.0/GD32F30x_Demo_Suites_V2.0.0/GD32F30x_Firmware_Library/GD32F30x_standard_peripheral/Source\gd32f30x_dac.c ****       \arg        DAC_TRIANGLE_AMPLITUDE_4095: triangle amplitude is 4095
 414:C:/Users/49542/Desktop/GD32F30x_Demo_Suites_V2.0.0/GD32F30x_Demo_Suites_V2.0.0/GD32F30x_Firmware_Library/GD32F30x_standard_peripheral/Source\gd32f30x_dac.c ****     \param[out] none
 415:C:/Users/49542/Desktop/GD32F30x_Demo_Suites_V2.0.0/GD32F30x_Demo_Suites_V2.0.0/GD32F30x_Firmware_Library/GD32F30x_standard_peripheral/Source\gd32f30x_dac.c ****     \retval     none
 416:C:/Users/49542/Desktop/GD32F30x_Demo_Suites_V2.0.0/GD32F30x_Demo_Suites_V2.0.0/GD32F30x_Firmware_Library/GD32F30x_standard_peripheral/Source\gd32f30x_dac.c **** */
 417:C:/Users/49542/Desktop/GD32F30x_Demo_Suites_V2.0.0/GD32F30x_Demo_Suites_V2.0.0/GD32F30x_Firmware_Library/GD32F30x_standard_peripheral/Source\gd32f30x_dac.c **** void dac_triangle_noise_config(uint32_t dac_periph, uint32_t amplitude)
 418:C:/Users/49542/Desktop/GD32F30x_Demo_Suites_V2.0.0/GD32F30x_Demo_Suites_V2.0.0/GD32F30x_Firmware_Library/GD32F30x_standard_peripheral/Source\gd32f30x_dac.c **** {
 1255              		.loc 1 418 0
 1256              		.cfi_startproc
 1257              		@ args = 0, pretend = 0, frame = 8
 1258              		@ frame_needed = 1, uses_anonymous_args = 0
 1259              		@ link register save eliminated.
 1260 0000 80B4     		push	{r7}
 1261              	.LCFI98:
 1262              		.cfi_def_cfa_offset 4
 1263              		.cfi_offset 7, -4
 1264 0002 83B0     		sub	sp, sp, #12
 1265              	.LCFI99:
 1266              		.cfi_def_cfa_offset 16
 1267 0004 00AF     		add	r7, sp, #0
 1268              	.LCFI100:
 1269              		.cfi_def_cfa_register 7
 1270 0006 7860     		str	r0, [r7, #4]
 1271 0008 3960     		str	r1, [r7]
 419:C:/Users/49542/Desktop/GD32F30x_Demo_Suites_V2.0.0/GD32F30x_Demo_Suites_V2.0.0/GD32F30x_Firmware_Library/GD32F30x_standard_peripheral/Source\gd32f30x_dac.c ****     if(DAC0 == dac_periph){
 1272              		.loc 1 419 0
 1273 000a 7B68     		ldr	r3, [r7, #4]
 1274 000c 002B     		cmp	r3, #0
 1275 000e 0CD1     		bne	.L107
 420:C:/Users/49542/Desktop/GD32F30x_Demo_Suites_V2.0.0/GD32F30x_Demo_Suites_V2.0.0/GD32F30x_Firmware_Library/GD32F30x_standard_peripheral/Source\gd32f30x_dac.c ****         /* configure DAC0 triangle noise mode */
 421:C:/Users/49542/Desktop/GD32F30x_Demo_Suites_V2.0.0/GD32F30x_Demo_Suites_V2.0.0/GD32F30x_Firmware_Library/GD32F30x_standard_peripheral/Source\gd32f30x_dac.c ****         DAC_CTL &= ~DAC_CTL_DWBW0;
 1276              		.loc 1 421 0
 1277 0010 0F4B     		ldr	r3, .L110
 1278 0012 1B68     		ldr	r3, [r3]
 1279 0014 0E4A     		ldr	r2, .L110
 1280 0016 23F47063 		bic	r3, r3, #3840
 1281 001a 1360     		str	r3, [r2]
 422:C:/Users/49542/Desktop/GD32F30x_Demo_Suites_V2.0.0/GD32F30x_Demo_Suites_V2.0.0/GD32F30x_Firmware_Library/GD32F30x_standard_peripheral/Source\gd32f30x_dac.c ****         DAC_CTL |= amplitude;
 1282              		.loc 1 422 0
 1283 001c 0C4B     		ldr	r3, .L110
 1284 001e 1A68     		ldr	r2, [r3]
 1285 0020 0B49     		ldr	r1, .L110
 1286 0022 3B68     		ldr	r3, [r7]
 1287 0024 1343     		orrs	r3, r3, r2
 1288 0026 0B60     		str	r3, [r1]
 423:C:/Users/49542/Desktop/GD32F30x_Demo_Suites_V2.0.0/GD32F30x_Demo_Suites_V2.0.0/GD32F30x_Firmware_Library/GD32F30x_standard_peripheral/Source\gd32f30x_dac.c ****     }else{
 424:C:/Users/49542/Desktop/GD32F30x_Demo_Suites_V2.0.0/GD32F30x_Demo_Suites_V2.0.0/GD32F30x_Firmware_Library/GD32F30x_standard_peripheral/Source\gd32f30x_dac.c ****         /* configure DAC1 triangle noise mode */
 425:C:/Users/49542/Desktop/GD32F30x_Demo_Suites_V2.0.0/GD32F30x_Demo_Suites_V2.0.0/GD32F30x_Firmware_Library/GD32F30x_standard_peripheral/Source\gd32f30x_dac.c ****         DAC_CTL &= ~DAC_CTL_DWBW1;
 426:C:/Users/49542/Desktop/GD32F30x_Demo_Suites_V2.0.0/GD32F30x_Demo_Suites_V2.0.0/GD32F30x_Firmware_Library/GD32F30x_standard_peripheral/Source\gd32f30x_dac.c ****         DAC_CTL |= (amplitude << DAC1_REG_OFFSET);
 427:C:/Users/49542/Desktop/GD32F30x_Demo_Suites_V2.0.0/GD32F30x_Demo_Suites_V2.0.0/GD32F30x_Firmware_Library/GD32F30x_standard_peripheral/Source\gd32f30x_dac.c ****     }
ARM GAS  C:\Users\49542\AppData\Local\Temp\cc1SF7Vt.s 			page 31


 428:C:/Users/49542/Desktop/GD32F30x_Demo_Suites_V2.0.0/GD32F30x_Demo_Suites_V2.0.0/GD32F30x_Firmware_Library/GD32F30x_standard_peripheral/Source\gd32f30x_dac.c **** }
 1289              		.loc 1 428 0
 1290 0028 0CE0     		b	.L109
 1291              	.L107:
 425:C:/Users/49542/Desktop/GD32F30x_Demo_Suites_V2.0.0/GD32F30x_Demo_Suites_V2.0.0/GD32F30x_Firmware_Library/GD32F30x_standard_peripheral/Source\gd32f30x_dac.c ****         DAC_CTL |= (amplitude << DAC1_REG_OFFSET);
 1292              		.loc 1 425 0
 1293 002a 094B     		ldr	r3, .L110
 1294 002c 1B68     		ldr	r3, [r3]
 1295 002e 084A     		ldr	r2, .L110
 1296 0030 23F07063 		bic	r3, r3, #251658240
 1297 0034 1360     		str	r3, [r2]
 426:C:/Users/49542/Desktop/GD32F30x_Demo_Suites_V2.0.0/GD32F30x_Demo_Suites_V2.0.0/GD32F30x_Firmware_Library/GD32F30x_standard_peripheral/Source\gd32f30x_dac.c ****     }
 1298              		.loc 1 426 0
 1299 0036 064B     		ldr	r3, .L110
 1300 0038 1A68     		ldr	r2, [r3]
 1301 003a 3B68     		ldr	r3, [r7]
 1302 003c 1B04     		lsls	r3, r3, #16
 1303 003e 0449     		ldr	r1, .L110
 1304 0040 1343     		orrs	r3, r3, r2
 1305 0042 0B60     		str	r3, [r1]
 1306              	.L109:
 1307              		.loc 1 428 0
 1308 0044 00BF     		nop
 1309 0046 0C37     		adds	r7, r7, #12
 1310              	.LCFI101:
 1311              		.cfi_def_cfa_offset 4
 1312 0048 BD46     		mov	sp, r7
 1313              	.LCFI102:
 1314              		.cfi_def_cfa_register 13
 1315              		@ sp needed
 1316 004a 5DF8047B 		ldr	r7, [sp], #4
 1317              	.LCFI103:
 1318              		.cfi_restore 7
 1319              		.cfi_def_cfa_offset 0
 1320 004e 7047     		bx	lr
 1321              	.L111:
 1322              		.align	2
 1323              	.L110:
 1324 0050 00740040 		.word	1073771520
 1325              		.cfi_endproc
 1326              	.LFE133:
 1328              		.section	.text.dac_concurrent_enable,"ax",%progbits
 1329              		.align	1
 1330              		.global	dac_concurrent_enable
 1331              		.syntax unified
 1332              		.thumb
 1333              		.thumb_func
 1334              		.fpu fpv4-sp-d16
 1336              	dac_concurrent_enable:
 1337              	.LFB134:
 429:C:/Users/49542/Desktop/GD32F30x_Demo_Suites_V2.0.0/GD32F30x_Demo_Suites_V2.0.0/GD32F30x_Firmware_Library/GD32F30x_standard_peripheral/Source\gd32f30x_dac.c **** 
 430:C:/Users/49542/Desktop/GD32F30x_Demo_Suites_V2.0.0/GD32F30x_Demo_Suites_V2.0.0/GD32F30x_Firmware_Library/GD32F30x_standard_peripheral/Source\gd32f30x_dac.c **** /*!
 431:C:/Users/49542/Desktop/GD32F30x_Demo_Suites_V2.0.0/GD32F30x_Demo_Suites_V2.0.0/GD32F30x_Firmware_Library/GD32F30x_standard_peripheral/Source\gd32f30x_dac.c ****     \brief      enable DAC concurrent mode
 432:C:/Users/49542/Desktop/GD32F30x_Demo_Suites_V2.0.0/GD32F30x_Demo_Suites_V2.0.0/GD32F30x_Firmware_Library/GD32F30x_standard_peripheral/Source\gd32f30x_dac.c ****     \param[in]  none
 433:C:/Users/49542/Desktop/GD32F30x_Demo_Suites_V2.0.0/GD32F30x_Demo_Suites_V2.0.0/GD32F30x_Firmware_Library/GD32F30x_standard_peripheral/Source\gd32f30x_dac.c ****     \param[out] none
 434:C:/Users/49542/Desktop/GD32F30x_Demo_Suites_V2.0.0/GD32F30x_Demo_Suites_V2.0.0/GD32F30x_Firmware_Library/GD32F30x_standard_peripheral/Source\gd32f30x_dac.c ****     \retval     none
 435:C:/Users/49542/Desktop/GD32F30x_Demo_Suites_V2.0.0/GD32F30x_Demo_Suites_V2.0.0/GD32F30x_Firmware_Library/GD32F30x_standard_peripheral/Source\gd32f30x_dac.c **** */
ARM GAS  C:\Users\49542\AppData\Local\Temp\cc1SF7Vt.s 			page 32


 436:C:/Users/49542/Desktop/GD32F30x_Demo_Suites_V2.0.0/GD32F30x_Demo_Suites_V2.0.0/GD32F30x_Firmware_Library/GD32F30x_standard_peripheral/Source\gd32f30x_dac.c **** void dac_concurrent_enable(void)
 437:C:/Users/49542/Desktop/GD32F30x_Demo_Suites_V2.0.0/GD32F30x_Demo_Suites_V2.0.0/GD32F30x_Firmware_Library/GD32F30x_standard_peripheral/Source\gd32f30x_dac.c **** {
 1338              		.loc 1 437 0
 1339              		.cfi_startproc
 1340              		@ args = 0, pretend = 0, frame = 8
 1341              		@ frame_needed = 1, uses_anonymous_args = 0
 1342              		@ link register save eliminated.
 1343 0000 80B4     		push	{r7}
 1344              	.LCFI104:
 1345              		.cfi_def_cfa_offset 4
 1346              		.cfi_offset 7, -4
 1347 0002 83B0     		sub	sp, sp, #12
 1348              	.LCFI105:
 1349              		.cfi_def_cfa_offset 16
 1350 0004 00AF     		add	r7, sp, #0
 1351              	.LCFI106:
 1352              		.cfi_def_cfa_register 7
 438:C:/Users/49542/Desktop/GD32F30x_Demo_Suites_V2.0.0/GD32F30x_Demo_Suites_V2.0.0/GD32F30x_Firmware_Library/GD32F30x_standard_peripheral/Source\gd32f30x_dac.c ****     uint32_t ctl = 0U;
 1353              		.loc 1 438 0
 1354 0006 0023     		movs	r3, #0
 1355 0008 7B60     		str	r3, [r7, #4]
 439:C:/Users/49542/Desktop/GD32F30x_Demo_Suites_V2.0.0/GD32F30x_Demo_Suites_V2.0.0/GD32F30x_Firmware_Library/GD32F30x_standard_peripheral/Source\gd32f30x_dac.c ****     ctl = DAC_CTL_DEN0 | DAC_CTL_DEN1;
 1356              		.loc 1 439 0
 1357 000a 4FF00113 		mov	r3, #65537
 1358 000e 7B60     		str	r3, [r7, #4]
 440:C:/Users/49542/Desktop/GD32F30x_Demo_Suites_V2.0.0/GD32F30x_Demo_Suites_V2.0.0/GD32F30x_Firmware_Library/GD32F30x_standard_peripheral/Source\gd32f30x_dac.c ****     DAC_CTL |= (ctl);
 1359              		.loc 1 440 0
 1360 0010 054B     		ldr	r3, .L113
 1361 0012 1A68     		ldr	r2, [r3]
 1362 0014 0449     		ldr	r1, .L113
 1363 0016 7B68     		ldr	r3, [r7, #4]
 1364 0018 1343     		orrs	r3, r3, r2
 1365 001a 0B60     		str	r3, [r1]
 441:C:/Users/49542/Desktop/GD32F30x_Demo_Suites_V2.0.0/GD32F30x_Demo_Suites_V2.0.0/GD32F30x_Firmware_Library/GD32F30x_standard_peripheral/Source\gd32f30x_dac.c **** }
 1366              		.loc 1 441 0
 1367 001c 00BF     		nop
 1368 001e 0C37     		adds	r7, r7, #12
 1369              	.LCFI107:
 1370              		.cfi_def_cfa_offset 4
 1371 0020 BD46     		mov	sp, r7
 1372              	.LCFI108:
 1373              		.cfi_def_cfa_register 13
 1374              		@ sp needed
 1375 0022 5DF8047B 		ldr	r7, [sp], #4
 1376              	.LCFI109:
 1377              		.cfi_restore 7
 1378              		.cfi_def_cfa_offset 0
 1379 0026 7047     		bx	lr
 1380              	.L114:
 1381              		.align	2
 1382              	.L113:
 1383 0028 00740040 		.word	1073771520
 1384              		.cfi_endproc
 1385              	.LFE134:
 1387              		.section	.text.dac_concurrent_disable,"ax",%progbits
 1388              		.align	1
 1389              		.global	dac_concurrent_disable
ARM GAS  C:\Users\49542\AppData\Local\Temp\cc1SF7Vt.s 			page 33


 1390              		.syntax unified
 1391              		.thumb
 1392              		.thumb_func
 1393              		.fpu fpv4-sp-d16
 1395              	dac_concurrent_disable:
 1396              	.LFB135:
 442:C:/Users/49542/Desktop/GD32F30x_Demo_Suites_V2.0.0/GD32F30x_Demo_Suites_V2.0.0/GD32F30x_Firmware_Library/GD32F30x_standard_peripheral/Source\gd32f30x_dac.c **** 
 443:C:/Users/49542/Desktop/GD32F30x_Demo_Suites_V2.0.0/GD32F30x_Demo_Suites_V2.0.0/GD32F30x_Firmware_Library/GD32F30x_standard_peripheral/Source\gd32f30x_dac.c **** /*!
 444:C:/Users/49542/Desktop/GD32F30x_Demo_Suites_V2.0.0/GD32F30x_Demo_Suites_V2.0.0/GD32F30x_Firmware_Library/GD32F30x_standard_peripheral/Source\gd32f30x_dac.c ****     \brief      disable DAC concurrent mode
 445:C:/Users/49542/Desktop/GD32F30x_Demo_Suites_V2.0.0/GD32F30x_Demo_Suites_V2.0.0/GD32F30x_Firmware_Library/GD32F30x_standard_peripheral/Source\gd32f30x_dac.c ****     \param[in]  none
 446:C:/Users/49542/Desktop/GD32F30x_Demo_Suites_V2.0.0/GD32F30x_Demo_Suites_V2.0.0/GD32F30x_Firmware_Library/GD32F30x_standard_peripheral/Source\gd32f30x_dac.c ****     \param[out] none
 447:C:/Users/49542/Desktop/GD32F30x_Demo_Suites_V2.0.0/GD32F30x_Demo_Suites_V2.0.0/GD32F30x_Firmware_Library/GD32F30x_standard_peripheral/Source\gd32f30x_dac.c ****     \retval     none
 448:C:/Users/49542/Desktop/GD32F30x_Demo_Suites_V2.0.0/GD32F30x_Demo_Suites_V2.0.0/GD32F30x_Firmware_Library/GD32F30x_standard_peripheral/Source\gd32f30x_dac.c **** */
 449:C:/Users/49542/Desktop/GD32F30x_Demo_Suites_V2.0.0/GD32F30x_Demo_Suites_V2.0.0/GD32F30x_Firmware_Library/GD32F30x_standard_peripheral/Source\gd32f30x_dac.c **** void dac_concurrent_disable(void)
 450:C:/Users/49542/Desktop/GD32F30x_Demo_Suites_V2.0.0/GD32F30x_Demo_Suites_V2.0.0/GD32F30x_Firmware_Library/GD32F30x_standard_peripheral/Source\gd32f30x_dac.c **** {
 1397              		.loc 1 450 0
 1398              		.cfi_startproc
 1399              		@ args = 0, pretend = 0, frame = 8
 1400              		@ frame_needed = 1, uses_anonymous_args = 0
 1401              		@ link register save eliminated.
 1402 0000 80B4     		push	{r7}
 1403              	.LCFI110:
 1404              		.cfi_def_cfa_offset 4
 1405              		.cfi_offset 7, -4
 1406 0002 83B0     		sub	sp, sp, #12
 1407              	.LCFI111:
 1408              		.cfi_def_cfa_offset 16
 1409 0004 00AF     		add	r7, sp, #0
 1410              	.LCFI112:
 1411              		.cfi_def_cfa_register 7
 451:C:/Users/49542/Desktop/GD32F30x_Demo_Suites_V2.0.0/GD32F30x_Demo_Suites_V2.0.0/GD32F30x_Firmware_Library/GD32F30x_standard_peripheral/Source\gd32f30x_dac.c ****     uint32_t ctl = 0U;
 1412              		.loc 1 451 0
 1413 0006 0023     		movs	r3, #0
 1414 0008 7B60     		str	r3, [r7, #4]
 452:C:/Users/49542/Desktop/GD32F30x_Demo_Suites_V2.0.0/GD32F30x_Demo_Suites_V2.0.0/GD32F30x_Firmware_Library/GD32F30x_standard_peripheral/Source\gd32f30x_dac.c ****     ctl = DAC_CTL_DEN0 | DAC_CTL_DEN1;
 1415              		.loc 1 452 0
 1416 000a 4FF00113 		mov	r3, #65537
 1417 000e 7B60     		str	r3, [r7, #4]
 453:C:/Users/49542/Desktop/GD32F30x_Demo_Suites_V2.0.0/GD32F30x_Demo_Suites_V2.0.0/GD32F30x_Firmware_Library/GD32F30x_standard_peripheral/Source\gd32f30x_dac.c ****     DAC_CTL &= (~ctl);
 1418              		.loc 1 453 0
 1419 0010 064B     		ldr	r3, .L116
 1420 0012 1A68     		ldr	r2, [r3]
 1421 0014 7B68     		ldr	r3, [r7, #4]
 1422 0016 DB43     		mvns	r3, r3
 1423 0018 0449     		ldr	r1, .L116
 1424 001a 1340     		ands	r3, r3, r2
 1425 001c 0B60     		str	r3, [r1]
 454:C:/Users/49542/Desktop/GD32F30x_Demo_Suites_V2.0.0/GD32F30x_Demo_Suites_V2.0.0/GD32F30x_Firmware_Library/GD32F30x_standard_peripheral/Source\gd32f30x_dac.c **** }
 1426              		.loc 1 454 0
 1427 001e 00BF     		nop
 1428 0020 0C37     		adds	r7, r7, #12
 1429              	.LCFI113:
 1430              		.cfi_def_cfa_offset 4
 1431 0022 BD46     		mov	sp, r7
 1432              	.LCFI114:
 1433              		.cfi_def_cfa_register 13
 1434              		@ sp needed
ARM GAS  C:\Users\49542\AppData\Local\Temp\cc1SF7Vt.s 			page 34


 1435 0024 5DF8047B 		ldr	r7, [sp], #4
 1436              	.LCFI115:
 1437              		.cfi_restore 7
 1438              		.cfi_def_cfa_offset 0
 1439 0028 7047     		bx	lr
 1440              	.L117:
 1441 002a 00BF     		.align	2
 1442              	.L116:
 1443 002c 00740040 		.word	1073771520
 1444              		.cfi_endproc
 1445              	.LFE135:
 1447              		.section	.text.dac_concurrent_software_trigger_enable,"ax",%progbits
 1448              		.align	1
 1449              		.global	dac_concurrent_software_trigger_enable
 1450              		.syntax unified
 1451              		.thumb
 1452              		.thumb_func
 1453              		.fpu fpv4-sp-d16
 1455              	dac_concurrent_software_trigger_enable:
 1456              	.LFB136:
 455:C:/Users/49542/Desktop/GD32F30x_Demo_Suites_V2.0.0/GD32F30x_Demo_Suites_V2.0.0/GD32F30x_Firmware_Library/GD32F30x_standard_peripheral/Source\gd32f30x_dac.c **** 
 456:C:/Users/49542/Desktop/GD32F30x_Demo_Suites_V2.0.0/GD32F30x_Demo_Suites_V2.0.0/GD32F30x_Firmware_Library/GD32F30x_standard_peripheral/Source\gd32f30x_dac.c **** /*!
 457:C:/Users/49542/Desktop/GD32F30x_Demo_Suites_V2.0.0/GD32F30x_Demo_Suites_V2.0.0/GD32F30x_Firmware_Library/GD32F30x_standard_peripheral/Source\gd32f30x_dac.c ****     \brief      enable DAC concurrent software trigger function
 458:C:/Users/49542/Desktop/GD32F30x_Demo_Suites_V2.0.0/GD32F30x_Demo_Suites_V2.0.0/GD32F30x_Firmware_Library/GD32F30x_standard_peripheral/Source\gd32f30x_dac.c ****     \param[in]  none
 459:C:/Users/49542/Desktop/GD32F30x_Demo_Suites_V2.0.0/GD32F30x_Demo_Suites_V2.0.0/GD32F30x_Firmware_Library/GD32F30x_standard_peripheral/Source\gd32f30x_dac.c ****     \param[out] none
 460:C:/Users/49542/Desktop/GD32F30x_Demo_Suites_V2.0.0/GD32F30x_Demo_Suites_V2.0.0/GD32F30x_Firmware_Library/GD32F30x_standard_peripheral/Source\gd32f30x_dac.c ****     \retval     none
 461:C:/Users/49542/Desktop/GD32F30x_Demo_Suites_V2.0.0/GD32F30x_Demo_Suites_V2.0.0/GD32F30x_Firmware_Library/GD32F30x_standard_peripheral/Source\gd32f30x_dac.c **** */
 462:C:/Users/49542/Desktop/GD32F30x_Demo_Suites_V2.0.0/GD32F30x_Demo_Suites_V2.0.0/GD32F30x_Firmware_Library/GD32F30x_standard_peripheral/Source\gd32f30x_dac.c **** void dac_concurrent_software_trigger_enable(void)
 463:C:/Users/49542/Desktop/GD32F30x_Demo_Suites_V2.0.0/GD32F30x_Demo_Suites_V2.0.0/GD32F30x_Firmware_Library/GD32F30x_standard_peripheral/Source\gd32f30x_dac.c **** {
 1457              		.loc 1 463 0
 1458              		.cfi_startproc
 1459              		@ args = 0, pretend = 0, frame = 8
 1460              		@ frame_needed = 1, uses_anonymous_args = 0
 1461              		@ link register save eliminated.
 1462 0000 80B4     		push	{r7}
 1463              	.LCFI116:
 1464              		.cfi_def_cfa_offset 4
 1465              		.cfi_offset 7, -4
 1466 0002 83B0     		sub	sp, sp, #12
 1467              	.LCFI117:
 1468              		.cfi_def_cfa_offset 16
 1469 0004 00AF     		add	r7, sp, #0
 1470              	.LCFI118:
 1471              		.cfi_def_cfa_register 7
 464:C:/Users/49542/Desktop/GD32F30x_Demo_Suites_V2.0.0/GD32F30x_Demo_Suites_V2.0.0/GD32F30x_Firmware_Library/GD32F30x_standard_peripheral/Source\gd32f30x_dac.c ****     uint32_t swt = 0U;
 1472              		.loc 1 464 0
 1473 0006 0023     		movs	r3, #0
 1474 0008 7B60     		str	r3, [r7, #4]
 465:C:/Users/49542/Desktop/GD32F30x_Demo_Suites_V2.0.0/GD32F30x_Demo_Suites_V2.0.0/GD32F30x_Firmware_Library/GD32F30x_standard_peripheral/Source\gd32f30x_dac.c ****     swt = DAC_SWT_SWTR0 | DAC_SWT_SWTR1;
 1475              		.loc 1 465 0
 1476 000a 0323     		movs	r3, #3
 1477 000c 7B60     		str	r3, [r7, #4]
 466:C:/Users/49542/Desktop/GD32F30x_Demo_Suites_V2.0.0/GD32F30x_Demo_Suites_V2.0.0/GD32F30x_Firmware_Library/GD32F30x_standard_peripheral/Source\gd32f30x_dac.c ****     DAC_SWT |= (swt); 
 1478              		.loc 1 466 0
 1479 000e 064B     		ldr	r3, .L119
 1480 0010 1A68     		ldr	r2, [r3]
 1481 0012 0549     		ldr	r1, .L119
ARM GAS  C:\Users\49542\AppData\Local\Temp\cc1SF7Vt.s 			page 35


 1482 0014 7B68     		ldr	r3, [r7, #4]
 1483 0016 1343     		orrs	r3, r3, r2
 1484 0018 0B60     		str	r3, [r1]
 467:C:/Users/49542/Desktop/GD32F30x_Demo_Suites_V2.0.0/GD32F30x_Demo_Suites_V2.0.0/GD32F30x_Firmware_Library/GD32F30x_standard_peripheral/Source\gd32f30x_dac.c **** }
 1485              		.loc 1 467 0
 1486 001a 00BF     		nop
 1487 001c 0C37     		adds	r7, r7, #12
 1488              	.LCFI119:
 1489              		.cfi_def_cfa_offset 4
 1490 001e BD46     		mov	sp, r7
 1491              	.LCFI120:
 1492              		.cfi_def_cfa_register 13
 1493              		@ sp needed
 1494 0020 5DF8047B 		ldr	r7, [sp], #4
 1495              	.LCFI121:
 1496              		.cfi_restore 7
 1497              		.cfi_def_cfa_offset 0
 1498 0024 7047     		bx	lr
 1499              	.L120:
 1500 0026 00BF     		.align	2
 1501              	.L119:
 1502 0028 04740040 		.word	1073771524
 1503              		.cfi_endproc
 1504              	.LFE136:
 1506              		.section	.text.dac_concurrent_software_trigger_disable,"ax",%progbits
 1507              		.align	1
 1508              		.global	dac_concurrent_software_trigger_disable
 1509              		.syntax unified
 1510              		.thumb
 1511              		.thumb_func
 1512              		.fpu fpv4-sp-d16
 1514              	dac_concurrent_software_trigger_disable:
 1515              	.LFB137:
 468:C:/Users/49542/Desktop/GD32F30x_Demo_Suites_V2.0.0/GD32F30x_Demo_Suites_V2.0.0/GD32F30x_Firmware_Library/GD32F30x_standard_peripheral/Source\gd32f30x_dac.c **** 
 469:C:/Users/49542/Desktop/GD32F30x_Demo_Suites_V2.0.0/GD32F30x_Demo_Suites_V2.0.0/GD32F30x_Firmware_Library/GD32F30x_standard_peripheral/Source\gd32f30x_dac.c **** /*!
 470:C:/Users/49542/Desktop/GD32F30x_Demo_Suites_V2.0.0/GD32F30x_Demo_Suites_V2.0.0/GD32F30x_Firmware_Library/GD32F30x_standard_peripheral/Source\gd32f30x_dac.c ****     \brief      disable DAC concurrent software trigger function
 471:C:/Users/49542/Desktop/GD32F30x_Demo_Suites_V2.0.0/GD32F30x_Demo_Suites_V2.0.0/GD32F30x_Firmware_Library/GD32F30x_standard_peripheral/Source\gd32f30x_dac.c ****     \param[in]  none
 472:C:/Users/49542/Desktop/GD32F30x_Demo_Suites_V2.0.0/GD32F30x_Demo_Suites_V2.0.0/GD32F30x_Firmware_Library/GD32F30x_standard_peripheral/Source\gd32f30x_dac.c ****     \param[out] none
 473:C:/Users/49542/Desktop/GD32F30x_Demo_Suites_V2.0.0/GD32F30x_Demo_Suites_V2.0.0/GD32F30x_Firmware_Library/GD32F30x_standard_peripheral/Source\gd32f30x_dac.c ****     \retval     none
 474:C:/Users/49542/Desktop/GD32F30x_Demo_Suites_V2.0.0/GD32F30x_Demo_Suites_V2.0.0/GD32F30x_Firmware_Library/GD32F30x_standard_peripheral/Source\gd32f30x_dac.c **** */
 475:C:/Users/49542/Desktop/GD32F30x_Demo_Suites_V2.0.0/GD32F30x_Demo_Suites_V2.0.0/GD32F30x_Firmware_Library/GD32F30x_standard_peripheral/Source\gd32f30x_dac.c **** void dac_concurrent_software_trigger_disable(void)
 476:C:/Users/49542/Desktop/GD32F30x_Demo_Suites_V2.0.0/GD32F30x_Demo_Suites_V2.0.0/GD32F30x_Firmware_Library/GD32F30x_standard_peripheral/Source\gd32f30x_dac.c **** {
 1516              		.loc 1 476 0
 1517              		.cfi_startproc
 1518              		@ args = 0, pretend = 0, frame = 8
 1519              		@ frame_needed = 1, uses_anonymous_args = 0
 1520              		@ link register save eliminated.
 1521 0000 80B4     		push	{r7}
 1522              	.LCFI122:
 1523              		.cfi_def_cfa_offset 4
 1524              		.cfi_offset 7, -4
 1525 0002 83B0     		sub	sp, sp, #12
 1526              	.LCFI123:
 1527              		.cfi_def_cfa_offset 16
 1528 0004 00AF     		add	r7, sp, #0
 1529              	.LCFI124:
 1530              		.cfi_def_cfa_register 7
ARM GAS  C:\Users\49542\AppData\Local\Temp\cc1SF7Vt.s 			page 36


 477:C:/Users/49542/Desktop/GD32F30x_Demo_Suites_V2.0.0/GD32F30x_Demo_Suites_V2.0.0/GD32F30x_Firmware_Library/GD32F30x_standard_peripheral/Source\gd32f30x_dac.c ****     uint32_t swt = 0U;
 1531              		.loc 1 477 0
 1532 0006 0023     		movs	r3, #0
 1533 0008 7B60     		str	r3, [r7, #4]
 478:C:/Users/49542/Desktop/GD32F30x_Demo_Suites_V2.0.0/GD32F30x_Demo_Suites_V2.0.0/GD32F30x_Firmware_Library/GD32F30x_standard_peripheral/Source\gd32f30x_dac.c ****     swt = DAC_SWT_SWTR0 | DAC_SWT_SWTR1;
 1534              		.loc 1 478 0
 1535 000a 0323     		movs	r3, #3
 1536 000c 7B60     		str	r3, [r7, #4]
 479:C:/Users/49542/Desktop/GD32F30x_Demo_Suites_V2.0.0/GD32F30x_Demo_Suites_V2.0.0/GD32F30x_Firmware_Library/GD32F30x_standard_peripheral/Source\gd32f30x_dac.c ****     DAC_SWT &= (~swt);
 1537              		.loc 1 479 0
 1538 000e 064B     		ldr	r3, .L122
 1539 0010 1A68     		ldr	r2, [r3]
 1540 0012 7B68     		ldr	r3, [r7, #4]
 1541 0014 DB43     		mvns	r3, r3
 1542 0016 0449     		ldr	r1, .L122
 1543 0018 1340     		ands	r3, r3, r2
 1544 001a 0B60     		str	r3, [r1]
 480:C:/Users/49542/Desktop/GD32F30x_Demo_Suites_V2.0.0/GD32F30x_Demo_Suites_V2.0.0/GD32F30x_Firmware_Library/GD32F30x_standard_peripheral/Source\gd32f30x_dac.c **** }
 1545              		.loc 1 480 0
 1546 001c 00BF     		nop
 1547 001e 0C37     		adds	r7, r7, #12
 1548              	.LCFI125:
 1549              		.cfi_def_cfa_offset 4
 1550 0020 BD46     		mov	sp, r7
 1551              	.LCFI126:
 1552              		.cfi_def_cfa_register 13
 1553              		@ sp needed
 1554 0022 5DF8047B 		ldr	r7, [sp], #4
 1555              	.LCFI127:
 1556              		.cfi_restore 7
 1557              		.cfi_def_cfa_offset 0
 1558 0026 7047     		bx	lr
 1559              	.L123:
 1560              		.align	2
 1561              	.L122:
 1562 0028 04740040 		.word	1073771524
 1563              		.cfi_endproc
 1564              	.LFE137:
 1566              		.section	.text.dac_concurrent_output_buffer_enable,"ax",%progbits
 1567              		.align	1
 1568              		.global	dac_concurrent_output_buffer_enable
 1569              		.syntax unified
 1570              		.thumb
 1571              		.thumb_func
 1572              		.fpu fpv4-sp-d16
 1574              	dac_concurrent_output_buffer_enable:
 1575              	.LFB138:
 481:C:/Users/49542/Desktop/GD32F30x_Demo_Suites_V2.0.0/GD32F30x_Demo_Suites_V2.0.0/GD32F30x_Firmware_Library/GD32F30x_standard_peripheral/Source\gd32f30x_dac.c **** 
 482:C:/Users/49542/Desktop/GD32F30x_Demo_Suites_V2.0.0/GD32F30x_Demo_Suites_V2.0.0/GD32F30x_Firmware_Library/GD32F30x_standard_peripheral/Source\gd32f30x_dac.c **** /*!
 483:C:/Users/49542/Desktop/GD32F30x_Demo_Suites_V2.0.0/GD32F30x_Demo_Suites_V2.0.0/GD32F30x_Firmware_Library/GD32F30x_standard_peripheral/Source\gd32f30x_dac.c ****     \brief      enable DAC concurrent buffer function
 484:C:/Users/49542/Desktop/GD32F30x_Demo_Suites_V2.0.0/GD32F30x_Demo_Suites_V2.0.0/GD32F30x_Firmware_Library/GD32F30x_standard_peripheral/Source\gd32f30x_dac.c ****     \param[in]  none
 485:C:/Users/49542/Desktop/GD32F30x_Demo_Suites_V2.0.0/GD32F30x_Demo_Suites_V2.0.0/GD32F30x_Firmware_Library/GD32F30x_standard_peripheral/Source\gd32f30x_dac.c ****     \param[out] none
 486:C:/Users/49542/Desktop/GD32F30x_Demo_Suites_V2.0.0/GD32F30x_Demo_Suites_V2.0.0/GD32F30x_Firmware_Library/GD32F30x_standard_peripheral/Source\gd32f30x_dac.c ****     \retval     none
 487:C:/Users/49542/Desktop/GD32F30x_Demo_Suites_V2.0.0/GD32F30x_Demo_Suites_V2.0.0/GD32F30x_Firmware_Library/GD32F30x_standard_peripheral/Source\gd32f30x_dac.c **** */
 488:C:/Users/49542/Desktop/GD32F30x_Demo_Suites_V2.0.0/GD32F30x_Demo_Suites_V2.0.0/GD32F30x_Firmware_Library/GD32F30x_standard_peripheral/Source\gd32f30x_dac.c **** void dac_concurrent_output_buffer_enable(void)
 489:C:/Users/49542/Desktop/GD32F30x_Demo_Suites_V2.0.0/GD32F30x_Demo_Suites_V2.0.0/GD32F30x_Firmware_Library/GD32F30x_standard_peripheral/Source\gd32f30x_dac.c **** {
 1576              		.loc 1 489 0
ARM GAS  C:\Users\49542\AppData\Local\Temp\cc1SF7Vt.s 			page 37


 1577              		.cfi_startproc
 1578              		@ args = 0, pretend = 0, frame = 8
 1579              		@ frame_needed = 1, uses_anonymous_args = 0
 1580              		@ link register save eliminated.
 1581 0000 80B4     		push	{r7}
 1582              	.LCFI128:
 1583              		.cfi_def_cfa_offset 4
 1584              		.cfi_offset 7, -4
 1585 0002 83B0     		sub	sp, sp, #12
 1586              	.LCFI129:
 1587              		.cfi_def_cfa_offset 16
 1588 0004 00AF     		add	r7, sp, #0
 1589              	.LCFI130:
 1590              		.cfi_def_cfa_register 7
 490:C:/Users/49542/Desktop/GD32F30x_Demo_Suites_V2.0.0/GD32F30x_Demo_Suites_V2.0.0/GD32F30x_Firmware_Library/GD32F30x_standard_peripheral/Source\gd32f30x_dac.c ****     uint32_t ctl = 0U;
 1591              		.loc 1 490 0
 1592 0006 0023     		movs	r3, #0
 1593 0008 7B60     		str	r3, [r7, #4]
 491:C:/Users/49542/Desktop/GD32F30x_Demo_Suites_V2.0.0/GD32F30x_Demo_Suites_V2.0.0/GD32F30x_Firmware_Library/GD32F30x_standard_peripheral/Source\gd32f30x_dac.c ****     ctl = DAC_CTL_DBOFF0 | DAC_CTL_DBOFF1;
 1594              		.loc 1 491 0
 1595 000a 4FF00213 		mov	r3, #131074
 1596 000e 7B60     		str	r3, [r7, #4]
 492:C:/Users/49542/Desktop/GD32F30x_Demo_Suites_V2.0.0/GD32F30x_Demo_Suites_V2.0.0/GD32F30x_Firmware_Library/GD32F30x_standard_peripheral/Source\gd32f30x_dac.c ****     DAC_CTL &= (~ctl);
 1597              		.loc 1 492 0
 1598 0010 064B     		ldr	r3, .L125
 1599 0012 1A68     		ldr	r2, [r3]
 1600 0014 7B68     		ldr	r3, [r7, #4]
 1601 0016 DB43     		mvns	r3, r3
 1602 0018 0449     		ldr	r1, .L125
 1603 001a 1340     		ands	r3, r3, r2
 1604 001c 0B60     		str	r3, [r1]
 493:C:/Users/49542/Desktop/GD32F30x_Demo_Suites_V2.0.0/GD32F30x_Demo_Suites_V2.0.0/GD32F30x_Firmware_Library/GD32F30x_standard_peripheral/Source\gd32f30x_dac.c **** }
 1605              		.loc 1 493 0
 1606 001e 00BF     		nop
 1607 0020 0C37     		adds	r7, r7, #12
 1608              	.LCFI131:
 1609              		.cfi_def_cfa_offset 4
 1610 0022 BD46     		mov	sp, r7
 1611              	.LCFI132:
 1612              		.cfi_def_cfa_register 13
 1613              		@ sp needed
 1614 0024 5DF8047B 		ldr	r7, [sp], #4
 1615              	.LCFI133:
 1616              		.cfi_restore 7
 1617              		.cfi_def_cfa_offset 0
 1618 0028 7047     		bx	lr
 1619              	.L126:
 1620 002a 00BF     		.align	2
 1621              	.L125:
 1622 002c 00740040 		.word	1073771520
 1623              		.cfi_endproc
 1624              	.LFE138:
 1626              		.section	.text.dac_concurrent_output_buffer_disable,"ax",%progbits
 1627              		.align	1
 1628              		.global	dac_concurrent_output_buffer_disable
 1629              		.syntax unified
 1630              		.thumb
ARM GAS  C:\Users\49542\AppData\Local\Temp\cc1SF7Vt.s 			page 38


 1631              		.thumb_func
 1632              		.fpu fpv4-sp-d16
 1634              	dac_concurrent_output_buffer_disable:
 1635              	.LFB139:
 494:C:/Users/49542/Desktop/GD32F30x_Demo_Suites_V2.0.0/GD32F30x_Demo_Suites_V2.0.0/GD32F30x_Firmware_Library/GD32F30x_standard_peripheral/Source\gd32f30x_dac.c **** 
 495:C:/Users/49542/Desktop/GD32F30x_Demo_Suites_V2.0.0/GD32F30x_Demo_Suites_V2.0.0/GD32F30x_Firmware_Library/GD32F30x_standard_peripheral/Source\gd32f30x_dac.c **** /*!
 496:C:/Users/49542/Desktop/GD32F30x_Demo_Suites_V2.0.0/GD32F30x_Demo_Suites_V2.0.0/GD32F30x_Firmware_Library/GD32F30x_standard_peripheral/Source\gd32f30x_dac.c ****     \brief      disable DAC concurrent buffer function
 497:C:/Users/49542/Desktop/GD32F30x_Demo_Suites_V2.0.0/GD32F30x_Demo_Suites_V2.0.0/GD32F30x_Firmware_Library/GD32F30x_standard_peripheral/Source\gd32f30x_dac.c ****     \param[in]  none
 498:C:/Users/49542/Desktop/GD32F30x_Demo_Suites_V2.0.0/GD32F30x_Demo_Suites_V2.0.0/GD32F30x_Firmware_Library/GD32F30x_standard_peripheral/Source\gd32f30x_dac.c ****     \param[out] none
 499:C:/Users/49542/Desktop/GD32F30x_Demo_Suites_V2.0.0/GD32F30x_Demo_Suites_V2.0.0/GD32F30x_Firmware_Library/GD32F30x_standard_peripheral/Source\gd32f30x_dac.c ****     \retval     none
 500:C:/Users/49542/Desktop/GD32F30x_Demo_Suites_V2.0.0/GD32F30x_Demo_Suites_V2.0.0/GD32F30x_Firmware_Library/GD32F30x_standard_peripheral/Source\gd32f30x_dac.c **** */
 501:C:/Users/49542/Desktop/GD32F30x_Demo_Suites_V2.0.0/GD32F30x_Demo_Suites_V2.0.0/GD32F30x_Firmware_Library/GD32F30x_standard_peripheral/Source\gd32f30x_dac.c **** void dac_concurrent_output_buffer_disable(void)
 502:C:/Users/49542/Desktop/GD32F30x_Demo_Suites_V2.0.0/GD32F30x_Demo_Suites_V2.0.0/GD32F30x_Firmware_Library/GD32F30x_standard_peripheral/Source\gd32f30x_dac.c **** {
 1636              		.loc 1 502 0
 1637              		.cfi_startproc
 1638              		@ args = 0, pretend = 0, frame = 8
 1639              		@ frame_needed = 1, uses_anonymous_args = 0
 1640              		@ link register save eliminated.
 1641 0000 80B4     		push	{r7}
 1642              	.LCFI134:
 1643              		.cfi_def_cfa_offset 4
 1644              		.cfi_offset 7, -4
 1645 0002 83B0     		sub	sp, sp, #12
 1646              	.LCFI135:
 1647              		.cfi_def_cfa_offset 16
 1648 0004 00AF     		add	r7, sp, #0
 1649              	.LCFI136:
 1650              		.cfi_def_cfa_register 7
 503:C:/Users/49542/Desktop/GD32F30x_Demo_Suites_V2.0.0/GD32F30x_Demo_Suites_V2.0.0/GD32F30x_Firmware_Library/GD32F30x_standard_peripheral/Source\gd32f30x_dac.c ****     uint32_t ctl = 0U;
 1651              		.loc 1 503 0
 1652 0006 0023     		movs	r3, #0
 1653 0008 7B60     		str	r3, [r7, #4]
 504:C:/Users/49542/Desktop/GD32F30x_Demo_Suites_V2.0.0/GD32F30x_Demo_Suites_V2.0.0/GD32F30x_Firmware_Library/GD32F30x_standard_peripheral/Source\gd32f30x_dac.c ****     ctl = DAC_CTL_DBOFF0 | DAC_CTL_DBOFF1;
 1654              		.loc 1 504 0
 1655 000a 4FF00213 		mov	r3, #131074
 1656 000e 7B60     		str	r3, [r7, #4]
 505:C:/Users/49542/Desktop/GD32F30x_Demo_Suites_V2.0.0/GD32F30x_Demo_Suites_V2.0.0/GD32F30x_Firmware_Library/GD32F30x_standard_peripheral/Source\gd32f30x_dac.c ****     DAC_CTL |= (ctl);
 1657              		.loc 1 505 0
 1658 0010 054B     		ldr	r3, .L128
 1659 0012 1A68     		ldr	r2, [r3]
 1660 0014 0449     		ldr	r1, .L128
 1661 0016 7B68     		ldr	r3, [r7, #4]
 1662 0018 1343     		orrs	r3, r3, r2
 1663 001a 0B60     		str	r3, [r1]
 506:C:/Users/49542/Desktop/GD32F30x_Demo_Suites_V2.0.0/GD32F30x_Demo_Suites_V2.0.0/GD32F30x_Firmware_Library/GD32F30x_standard_peripheral/Source\gd32f30x_dac.c **** }
 1664              		.loc 1 506 0
 1665 001c 00BF     		nop
 1666 001e 0C37     		adds	r7, r7, #12
 1667              	.LCFI137:
 1668              		.cfi_def_cfa_offset 4
 1669 0020 BD46     		mov	sp, r7
 1670              	.LCFI138:
 1671              		.cfi_def_cfa_register 13
 1672              		@ sp needed
 1673 0022 5DF8047B 		ldr	r7, [sp], #4
 1674              	.LCFI139:
 1675              		.cfi_restore 7
ARM GAS  C:\Users\49542\AppData\Local\Temp\cc1SF7Vt.s 			page 39


 1676              		.cfi_def_cfa_offset 0
 1677 0026 7047     		bx	lr
 1678              	.L129:
 1679              		.align	2
 1680              	.L128:
 1681 0028 00740040 		.word	1073771520
 1682              		.cfi_endproc
 1683              	.LFE139:
 1685              		.section	.text.dac_concurrent_data_set,"ax",%progbits
 1686              		.align	1
 1687              		.global	dac_concurrent_data_set
 1688              		.syntax unified
 1689              		.thumb
 1690              		.thumb_func
 1691              		.fpu fpv4-sp-d16
 1693              	dac_concurrent_data_set:
 1694              	.LFB140:
 507:C:/Users/49542/Desktop/GD32F30x_Demo_Suites_V2.0.0/GD32F30x_Demo_Suites_V2.0.0/GD32F30x_Firmware_Library/GD32F30x_standard_peripheral/Source\gd32f30x_dac.c **** 
 508:C:/Users/49542/Desktop/GD32F30x_Demo_Suites_V2.0.0/GD32F30x_Demo_Suites_V2.0.0/GD32F30x_Firmware_Library/GD32F30x_standard_peripheral/Source\gd32f30x_dac.c **** /*!
 509:C:/Users/49542/Desktop/GD32F30x_Demo_Suites_V2.0.0/GD32F30x_Demo_Suites_V2.0.0/GD32F30x_Firmware_Library/GD32F30x_standard_peripheral/Source\gd32f30x_dac.c ****     \brief      set DAC concurrent mode data holding register value
 510:C:/Users/49542/Desktop/GD32F30x_Demo_Suites_V2.0.0/GD32F30x_Demo_Suites_V2.0.0/GD32F30x_Firmware_Library/GD32F30x_standard_peripheral/Source\gd32f30x_dac.c ****     \param[in]  dac_align: data alignment
 511:C:/Users/49542/Desktop/GD32F30x_Demo_Suites_V2.0.0/GD32F30x_Demo_Suites_V2.0.0/GD32F30x_Firmware_Library/GD32F30x_standard_peripheral/Source\gd32f30x_dac.c ****                 only one parameter can be selected which is shown as below:
 512:C:/Users/49542/Desktop/GD32F30x_Demo_Suites_V2.0.0/GD32F30x_Demo_Suites_V2.0.0/GD32F30x_Firmware_Library/GD32F30x_standard_peripheral/Source\gd32f30x_dac.c ****       \arg        DAC_ALIGN_8B_R: data right 8b alignment
 513:C:/Users/49542/Desktop/GD32F30x_Demo_Suites_V2.0.0/GD32F30x_Demo_Suites_V2.0.0/GD32F30x_Firmware_Library/GD32F30x_standard_peripheral/Source\gd32f30x_dac.c ****       \arg        DAC_ALIGN_12B_R: data right 12b alignment
 514:C:/Users/49542/Desktop/GD32F30x_Demo_Suites_V2.0.0/GD32F30x_Demo_Suites_V2.0.0/GD32F30x_Firmware_Library/GD32F30x_standard_peripheral/Source\gd32f30x_dac.c ****       \arg        DAC_ALIGN_12B_L: data left 12b alignment
 515:C:/Users/49542/Desktop/GD32F30x_Demo_Suites_V2.0.0/GD32F30x_Demo_Suites_V2.0.0/GD32F30x_Firmware_Library/GD32F30x_standard_peripheral/Source\gd32f30x_dac.c ****     \param[in]  data0: data to be loaded
 516:C:/Users/49542/Desktop/GD32F30x_Demo_Suites_V2.0.0/GD32F30x_Demo_Suites_V2.0.0/GD32F30x_Firmware_Library/GD32F30x_standard_peripheral/Source\gd32f30x_dac.c ****     \param[in]  data1: data to be loaded
 517:C:/Users/49542/Desktop/GD32F30x_Demo_Suites_V2.0.0/GD32F30x_Demo_Suites_V2.0.0/GD32F30x_Firmware_Library/GD32F30x_standard_peripheral/Source\gd32f30x_dac.c ****     \param[out] none
 518:C:/Users/49542/Desktop/GD32F30x_Demo_Suites_V2.0.0/GD32F30x_Demo_Suites_V2.0.0/GD32F30x_Firmware_Library/GD32F30x_standard_peripheral/Source\gd32f30x_dac.c ****     \retval     none
 519:C:/Users/49542/Desktop/GD32F30x_Demo_Suites_V2.0.0/GD32F30x_Demo_Suites_V2.0.0/GD32F30x_Firmware_Library/GD32F30x_standard_peripheral/Source\gd32f30x_dac.c **** */
 520:C:/Users/49542/Desktop/GD32F30x_Demo_Suites_V2.0.0/GD32F30x_Demo_Suites_V2.0.0/GD32F30x_Firmware_Library/GD32F30x_standard_peripheral/Source\gd32f30x_dac.c **** void dac_concurrent_data_set(uint32_t dac_align, uint16_t data0, uint16_t data1)
 521:C:/Users/49542/Desktop/GD32F30x_Demo_Suites_V2.0.0/GD32F30x_Demo_Suites_V2.0.0/GD32F30x_Firmware_Library/GD32F30x_standard_peripheral/Source\gd32f30x_dac.c **** {
 1695              		.loc 1 521 0
 1696              		.cfi_startproc
 1697              		@ args = 0, pretend = 0, frame = 16
 1698              		@ frame_needed = 1, uses_anonymous_args = 0
 1699              		@ link register save eliminated.
 1700 0000 80B4     		push	{r7}
 1701              	.LCFI140:
 1702              		.cfi_def_cfa_offset 4
 1703              		.cfi_offset 7, -4
 1704 0002 85B0     		sub	sp, sp, #20
 1705              	.LCFI141:
 1706              		.cfi_def_cfa_offset 24
 1707 0004 00AF     		add	r7, sp, #0
 1708              	.LCFI142:
 1709              		.cfi_def_cfa_register 7
 1710 0006 7860     		str	r0, [r7, #4]
 1711 0008 0B46     		mov	r3, r1
 1712 000a 7B80     		strh	r3, [r7, #2]	@ movhi
 1713 000c 1346     		mov	r3, r2	@ movhi
 1714 000e 3B80     		strh	r3, [r7]	@ movhi
 522:C:/Users/49542/Desktop/GD32F30x_Demo_Suites_V2.0.0/GD32F30x_Demo_Suites_V2.0.0/GD32F30x_Firmware_Library/GD32F30x_standard_peripheral/Source\gd32f30x_dac.c ****     uint32_t data = 0U;
 1715              		.loc 1 522 0
 1716 0010 0023     		movs	r3, #0
 1717 0012 FB60     		str	r3, [r7, #12]
 523:C:/Users/49542/Desktop/GD32F30x_Demo_Suites_V2.0.0/GD32F30x_Demo_Suites_V2.0.0/GD32F30x_Firmware_Library/GD32F30x_standard_peripheral/Source\gd32f30x_dac.c ****     switch(dac_align){
ARM GAS  C:\Users\49542\AppData\Local\Temp\cc1SF7Vt.s 			page 40


 1718              		.loc 1 523 0
 1719 0014 7B68     		ldr	r3, [r7, #4]
 1720 0016 012B     		cmp	r3, #1
 1721 0018 0DD0     		beq	.L132
 1722 001a 012B     		cmp	r3, #1
 1723 001c 02D3     		bcc	.L133
 1724 001e 022B     		cmp	r3, #2
 1725 0020 12D0     		beq	.L134
 524:C:/Users/49542/Desktop/GD32F30x_Demo_Suites_V2.0.0/GD32F30x_Demo_Suites_V2.0.0/GD32F30x_Firmware_Library/GD32F30x_standard_peripheral/Source\gd32f30x_dac.c ****     /* data right 12b alignment */
 525:C:/Users/49542/Desktop/GD32F30x_Demo_Suites_V2.0.0/GD32F30x_Demo_Suites_V2.0.0/GD32F30x_Firmware_Library/GD32F30x_standard_peripheral/Source\gd32f30x_dac.c ****     case DAC_ALIGN_12B_R:
 526:C:/Users/49542/Desktop/GD32F30x_Demo_Suites_V2.0.0/GD32F30x_Demo_Suites_V2.0.0/GD32F30x_Firmware_Library/GD32F30x_standard_peripheral/Source\gd32f30x_dac.c ****         data = ((uint32_t)data1 << DH_12BIT_OFFSET) | data0;
 527:C:/Users/49542/Desktop/GD32F30x_Demo_Suites_V2.0.0/GD32F30x_Demo_Suites_V2.0.0/GD32F30x_Firmware_Library/GD32F30x_standard_peripheral/Source\gd32f30x_dac.c ****         DACC_R12DH = data;
 528:C:/Users/49542/Desktop/GD32F30x_Demo_Suites_V2.0.0/GD32F30x_Demo_Suites_V2.0.0/GD32F30x_Firmware_Library/GD32F30x_standard_peripheral/Source\gd32f30x_dac.c ****         break;
 529:C:/Users/49542/Desktop/GD32F30x_Demo_Suites_V2.0.0/GD32F30x_Demo_Suites_V2.0.0/GD32F30x_Firmware_Library/GD32F30x_standard_peripheral/Source\gd32f30x_dac.c ****     /* data left 12b alignment */
 530:C:/Users/49542/Desktop/GD32F30x_Demo_Suites_V2.0.0/GD32F30x_Demo_Suites_V2.0.0/GD32F30x_Firmware_Library/GD32F30x_standard_peripheral/Source\gd32f30x_dac.c ****     case DAC_ALIGN_12B_L:
 531:C:/Users/49542/Desktop/GD32F30x_Demo_Suites_V2.0.0/GD32F30x_Demo_Suites_V2.0.0/GD32F30x_Firmware_Library/GD32F30x_standard_peripheral/Source\gd32f30x_dac.c ****         data = ((uint32_t)data1 << DH_12BIT_OFFSET) | data0;
 532:C:/Users/49542/Desktop/GD32F30x_Demo_Suites_V2.0.0/GD32F30x_Demo_Suites_V2.0.0/GD32F30x_Firmware_Library/GD32F30x_standard_peripheral/Source\gd32f30x_dac.c ****         DACC_L12DH = data;
 533:C:/Users/49542/Desktop/GD32F30x_Demo_Suites_V2.0.0/GD32F30x_Demo_Suites_V2.0.0/GD32F30x_Firmware_Library/GD32F30x_standard_peripheral/Source\gd32f30x_dac.c ****         break;
 534:C:/Users/49542/Desktop/GD32F30x_Demo_Suites_V2.0.0/GD32F30x_Demo_Suites_V2.0.0/GD32F30x_Firmware_Library/GD32F30x_standard_peripheral/Source\gd32f30x_dac.c ****     /* data right 8b alignment */
 535:C:/Users/49542/Desktop/GD32F30x_Demo_Suites_V2.0.0/GD32F30x_Demo_Suites_V2.0.0/GD32F30x_Firmware_Library/GD32F30x_standard_peripheral/Source\gd32f30x_dac.c ****     case DAC_ALIGN_8B_R:
 536:C:/Users/49542/Desktop/GD32F30x_Demo_Suites_V2.0.0/GD32F30x_Demo_Suites_V2.0.0/GD32F30x_Firmware_Library/GD32F30x_standard_peripheral/Source\gd32f30x_dac.c ****         data = ((uint32_t)data1 << DH_8BIT_OFFSET) | data0;
 537:C:/Users/49542/Desktop/GD32F30x_Demo_Suites_V2.0.0/GD32F30x_Demo_Suites_V2.0.0/GD32F30x_Firmware_Library/GD32F30x_standard_peripheral/Source\gd32f30x_dac.c ****         DACC_R8DH = data;
 538:C:/Users/49542/Desktop/GD32F30x_Demo_Suites_V2.0.0/GD32F30x_Demo_Suites_V2.0.0/GD32F30x_Firmware_Library/GD32F30x_standard_peripheral/Source\gd32f30x_dac.c ****         break;
 539:C:/Users/49542/Desktop/GD32F30x_Demo_Suites_V2.0.0/GD32F30x_Demo_Suites_V2.0.0/GD32F30x_Firmware_Library/GD32F30x_standard_peripheral/Source\gd32f30x_dac.c ****     default:
 540:C:/Users/49542/Desktop/GD32F30x_Demo_Suites_V2.0.0/GD32F30x_Demo_Suites_V2.0.0/GD32F30x_Firmware_Library/GD32F30x_standard_peripheral/Source\gd32f30x_dac.c ****         break;
 1726              		.loc 1 540 0
 1727 0022 1AE0     		b	.L135
 1728              	.L133:
 526:C:/Users/49542/Desktop/GD32F30x_Demo_Suites_V2.0.0/GD32F30x_Demo_Suites_V2.0.0/GD32F30x_Firmware_Library/GD32F30x_standard_peripheral/Source\gd32f30x_dac.c ****         DACC_R12DH = data;
 1729              		.loc 1 526 0
 1730 0024 3B88     		ldrh	r3, [r7]
 1731 0026 1A04     		lsls	r2, r3, #16
 1732 0028 7B88     		ldrh	r3, [r7, #2]
 1733 002a 1343     		orrs	r3, r3, r2
 1734 002c FB60     		str	r3, [r7, #12]
 527:C:/Users/49542/Desktop/GD32F30x_Demo_Suites_V2.0.0/GD32F30x_Demo_Suites_V2.0.0/GD32F30x_Firmware_Library/GD32F30x_standard_peripheral/Source\gd32f30x_dac.c ****         break;
 1735              		.loc 1 527 0
 1736 002e 0E4A     		ldr	r2, .L136
 1737 0030 FB68     		ldr	r3, [r7, #12]
 1738 0032 1360     		str	r3, [r2]
 528:C:/Users/49542/Desktop/GD32F30x_Demo_Suites_V2.0.0/GD32F30x_Demo_Suites_V2.0.0/GD32F30x_Firmware_Library/GD32F30x_standard_peripheral/Source\gd32f30x_dac.c ****     /* data left 12b alignment */
 1739              		.loc 1 528 0
 1740 0034 11E0     		b	.L135
 1741              	.L132:
 531:C:/Users/49542/Desktop/GD32F30x_Demo_Suites_V2.0.0/GD32F30x_Demo_Suites_V2.0.0/GD32F30x_Firmware_Library/GD32F30x_standard_peripheral/Source\gd32f30x_dac.c ****         DACC_L12DH = data;
 1742              		.loc 1 531 0
 1743 0036 3B88     		ldrh	r3, [r7]
 1744 0038 1A04     		lsls	r2, r3, #16
 1745 003a 7B88     		ldrh	r3, [r7, #2]
 1746 003c 1343     		orrs	r3, r3, r2
 1747 003e FB60     		str	r3, [r7, #12]
 532:C:/Users/49542/Desktop/GD32F30x_Demo_Suites_V2.0.0/GD32F30x_Demo_Suites_V2.0.0/GD32F30x_Firmware_Library/GD32F30x_standard_peripheral/Source\gd32f30x_dac.c ****         break;
 1748              		.loc 1 532 0
 1749 0040 0A4A     		ldr	r2, .L136+4
 1750 0042 FB68     		ldr	r3, [r7, #12]
 1751 0044 1360     		str	r3, [r2]
 533:C:/Users/49542/Desktop/GD32F30x_Demo_Suites_V2.0.0/GD32F30x_Demo_Suites_V2.0.0/GD32F30x_Firmware_Library/GD32F30x_standard_peripheral/Source\gd32f30x_dac.c ****     /* data right 8b alignment */
ARM GAS  C:\Users\49542\AppData\Local\Temp\cc1SF7Vt.s 			page 41


 1752              		.loc 1 533 0
 1753 0046 08E0     		b	.L135
 1754              	.L134:
 536:C:/Users/49542/Desktop/GD32F30x_Demo_Suites_V2.0.0/GD32F30x_Demo_Suites_V2.0.0/GD32F30x_Firmware_Library/GD32F30x_standard_peripheral/Source\gd32f30x_dac.c ****         DACC_R8DH = data;
 1755              		.loc 1 536 0
 1756 0048 3B88     		ldrh	r3, [r7]
 1757 004a 1A02     		lsls	r2, r3, #8
 1758 004c 7B88     		ldrh	r3, [r7, #2]
 1759 004e 1343     		orrs	r3, r3, r2
 1760 0050 FB60     		str	r3, [r7, #12]
 537:C:/Users/49542/Desktop/GD32F30x_Demo_Suites_V2.0.0/GD32F30x_Demo_Suites_V2.0.0/GD32F30x_Firmware_Library/GD32F30x_standard_peripheral/Source\gd32f30x_dac.c ****         break;
 1761              		.loc 1 537 0
 1762 0052 074A     		ldr	r2, .L136+8
 1763 0054 FB68     		ldr	r3, [r7, #12]
 1764 0056 1360     		str	r3, [r2]
 538:C:/Users/49542/Desktop/GD32F30x_Demo_Suites_V2.0.0/GD32F30x_Demo_Suites_V2.0.0/GD32F30x_Firmware_Library/GD32F30x_standard_peripheral/Source\gd32f30x_dac.c ****     default:
 1765              		.loc 1 538 0
 1766 0058 00BF     		nop
 1767              	.L135:
 541:C:/Users/49542/Desktop/GD32F30x_Demo_Suites_V2.0.0/GD32F30x_Demo_Suites_V2.0.0/GD32F30x_Firmware_Library/GD32F30x_standard_peripheral/Source\gd32f30x_dac.c ****     }
 542:C:/Users/49542/Desktop/GD32F30x_Demo_Suites_V2.0.0/GD32F30x_Demo_Suites_V2.0.0/GD32F30x_Firmware_Library/GD32F30x_standard_peripheral/Source\gd32f30x_dac.c **** }
 1768              		.loc 1 542 0
 1769 005a 00BF     		nop
 1770 005c 1437     		adds	r7, r7, #20
 1771              	.LCFI143:
 1772              		.cfi_def_cfa_offset 4
 1773 005e BD46     		mov	sp, r7
 1774              	.LCFI144:
 1775              		.cfi_def_cfa_register 13
 1776              		@ sp needed
 1777 0060 5DF8047B 		ldr	r7, [sp], #4
 1778              	.LCFI145:
 1779              		.cfi_restore 7
 1780              		.cfi_def_cfa_offset 0
 1781 0064 7047     		bx	lr
 1782              	.L137:
 1783 0066 00BF     		.align	2
 1784              	.L136:
 1785 0068 20740040 		.word	1073771552
 1786 006c 24740040 		.word	1073771556
 1787 0070 28740040 		.word	1073771560
 1788              		.cfi_endproc
 1789              	.LFE140:
 1791              		.text
 1792              	.Letext0:
 1793              		.file 2 "c:\\users\\49542\\opensourcetools\\gnu tools arm embedded\\7 2018-q2-update\\arm-none-eab
 1794              		.file 3 "c:\\users\\49542\\opensourcetools\\gnu tools arm embedded\\7 2018-q2-update\\arm-none-eab
 1795              		.file 4 "C:/Users/49542/Desktop/GD32F30x_Demo_Suites_V2.0.0/GD32F30x_Demo_Suites_V2.0.0/GD32F30x_F
 1796              		.file 5 "C:/Users/49542/Desktop/GD32F30x_Demo_Suites_V2.0.0/GD32F30x_Demo_Suites_V2.0.0/GD32F30x_F
 1797              		.file 6 "c:\\users\\49542\\opensourcetools\\gnu tools arm embedded\\7 2018-q2-update\\arm-none-eab
 1798              		.file 7 "c:\\users\\49542\\opensourcetools\\gnu tools arm embedded\\7 2018-q2-update\\arm-none-eab
 1799              		.file 8 "c:\\users\\49542\\opensourcetools\\gnu tools arm embedded\\7 2018-q2-update\\lib\\gcc\\ar
 1800              		.file 9 "c:\\users\\49542\\opensourcetools\\gnu tools arm embedded\\7 2018-q2-update\\arm-none-eab
 1801              		.file 10 "c:\\users\\49542\\opensourcetools\\gnu tools arm embedded\\7 2018-q2-update\\arm-none-ea
 1802              		.file 11 "C:/Users/49542/Desktop/GD32F30x_Demo_Suites_V2.0.0/GD32F30x_Demo_Suites_V2.0.0/GD32F30x_
ARM GAS  C:\Users\49542\AppData\Local\Temp\cc1SF7Vt.s 			page 42

