ARM GAS  C:\Users\49542\AppData\Local\Temp\ccGr6pXa.s 			page 1


   1              		.cpu cortex-m4
   2              		.eabi_attribute 27, 1
   3              		.eabi_attribute 28, 1
   4              		.eabi_attribute 20, 1
   5              		.eabi_attribute 21, 1
   6              		.eabi_attribute 23, 3
   7              		.eabi_attribute 24, 1
   8              		.eabi_attribute 25, 1
   9              		.eabi_attribute 26, 1
  10              		.eabi_attribute 30, 6
  11              		.eabi_attribute 34, 1
  12              		.eabi_attribute 18, 4
  13              		.file	"gd32f30x_exti.c"
  14              		.text
  15              	.Ltext0:
  16              		.cfi_sections	.debug_frame
  17              		.section	.text.exti_deinit,"ax",%progbits
  18              		.align	1
  19              		.global	exti_deinit
  20              		.syntax unified
  21              		.thumb
  22              		.thumb_func
  23              		.fpu fpv4-sp-d16
  25              	exti_deinit:
  26              	.LFB116:
  27              		.file 1 "C:/Users/49542/Desktop/GD32F30x_Demo_Suites_V2.0.0/GD32F30x_Demo_Suites_V2.0.0/GD32F30x_F
   1:C:/Users/49542/Desktop/GD32F30x_Demo_Suites_V2.0.0/GD32F30x_Demo_Suites_V2.0.0/GD32F30x_Firmware_Library/GD32F30x_standard_peripheral/Source\gd32f30x_exti.c **** /*!
   2:C:/Users/49542/Desktop/GD32F30x_Demo_Suites_V2.0.0/GD32F30x_Demo_Suites_V2.0.0/GD32F30x_Firmware_Library/GD32F30x_standard_peripheral/Source\gd32f30x_exti.c ****     \file  gd32f30x_exti.c
   3:C:/Users/49542/Desktop/GD32F30x_Demo_Suites_V2.0.0/GD32F30x_Demo_Suites_V2.0.0/GD32F30x_Firmware_Library/GD32F30x_standard_peripheral/Source\gd32f30x_exti.c ****     \brief EXTI driver
   4:C:/Users/49542/Desktop/GD32F30x_Demo_Suites_V2.0.0/GD32F30x_Demo_Suites_V2.0.0/GD32F30x_Firmware_Library/GD32F30x_standard_peripheral/Source\gd32f30x_exti.c **** 
   5:C:/Users/49542/Desktop/GD32F30x_Demo_Suites_V2.0.0/GD32F30x_Demo_Suites_V2.0.0/GD32F30x_Firmware_Library/GD32F30x_standard_peripheral/Source\gd32f30x_exti.c ****     \version 2017-02-10, V1.0.0, firmware for GD32F30x
   6:C:/Users/49542/Desktop/GD32F30x_Demo_Suites_V2.0.0/GD32F30x_Demo_Suites_V2.0.0/GD32F30x_Firmware_Library/GD32F30x_standard_peripheral/Source\gd32f30x_exti.c ****     \version 2018-10-10, V1.1.0, firmware for GD32F30x
   7:C:/Users/49542/Desktop/GD32F30x_Demo_Suites_V2.0.0/GD32F30x_Demo_Suites_V2.0.0/GD32F30x_Firmware_Library/GD32F30x_standard_peripheral/Source\gd32f30x_exti.c ****     \version 2018-12-25, V2.0.0, firmware for GD32F30x
   8:C:/Users/49542/Desktop/GD32F30x_Demo_Suites_V2.0.0/GD32F30x_Demo_Suites_V2.0.0/GD32F30x_Firmware_Library/GD32F30x_standard_peripheral/Source\gd32f30x_exti.c **** */
   9:C:/Users/49542/Desktop/GD32F30x_Demo_Suites_V2.0.0/GD32F30x_Demo_Suites_V2.0.0/GD32F30x_Firmware_Library/GD32F30x_standard_peripheral/Source\gd32f30x_exti.c **** 
  10:C:/Users/49542/Desktop/GD32F30x_Demo_Suites_V2.0.0/GD32F30x_Demo_Suites_V2.0.0/GD32F30x_Firmware_Library/GD32F30x_standard_peripheral/Source\gd32f30x_exti.c **** /*
  11:C:/Users/49542/Desktop/GD32F30x_Demo_Suites_V2.0.0/GD32F30x_Demo_Suites_V2.0.0/GD32F30x_Firmware_Library/GD32F30x_standard_peripheral/Source\gd32f30x_exti.c ****     Copyright (c) 2018, GigaDevice Semiconductor Inc.
  12:C:/Users/49542/Desktop/GD32F30x_Demo_Suites_V2.0.0/GD32F30x_Demo_Suites_V2.0.0/GD32F30x_Firmware_Library/GD32F30x_standard_peripheral/Source\gd32f30x_exti.c **** 
  13:C:/Users/49542/Desktop/GD32F30x_Demo_Suites_V2.0.0/GD32F30x_Demo_Suites_V2.0.0/GD32F30x_Firmware_Library/GD32F30x_standard_peripheral/Source\gd32f30x_exti.c ****     All rights reserved.
  14:C:/Users/49542/Desktop/GD32F30x_Demo_Suites_V2.0.0/GD32F30x_Demo_Suites_V2.0.0/GD32F30x_Firmware_Library/GD32F30x_standard_peripheral/Source\gd32f30x_exti.c **** 
  15:C:/Users/49542/Desktop/GD32F30x_Demo_Suites_V2.0.0/GD32F30x_Demo_Suites_V2.0.0/GD32F30x_Firmware_Library/GD32F30x_standard_peripheral/Source\gd32f30x_exti.c ****     Redistribution and use in source and binary forms, with or without modification, 
  16:C:/Users/49542/Desktop/GD32F30x_Demo_Suites_V2.0.0/GD32F30x_Demo_Suites_V2.0.0/GD32F30x_Firmware_Library/GD32F30x_standard_peripheral/Source\gd32f30x_exti.c **** are permitted provided that the following conditions are met:
  17:C:/Users/49542/Desktop/GD32F30x_Demo_Suites_V2.0.0/GD32F30x_Demo_Suites_V2.0.0/GD32F30x_Firmware_Library/GD32F30x_standard_peripheral/Source\gd32f30x_exti.c **** 
  18:C:/Users/49542/Desktop/GD32F30x_Demo_Suites_V2.0.0/GD32F30x_Demo_Suites_V2.0.0/GD32F30x_Firmware_Library/GD32F30x_standard_peripheral/Source\gd32f30x_exti.c ****     1. Redistributions of source code must retain the above copyright notice, this 
  19:C:/Users/49542/Desktop/GD32F30x_Demo_Suites_V2.0.0/GD32F30x_Demo_Suites_V2.0.0/GD32F30x_Firmware_Library/GD32F30x_standard_peripheral/Source\gd32f30x_exti.c ****        list of conditions and the following disclaimer.
  20:C:/Users/49542/Desktop/GD32F30x_Demo_Suites_V2.0.0/GD32F30x_Demo_Suites_V2.0.0/GD32F30x_Firmware_Library/GD32F30x_standard_peripheral/Source\gd32f30x_exti.c ****     2. Redistributions in binary form must reproduce the above copyright notice, 
  21:C:/Users/49542/Desktop/GD32F30x_Demo_Suites_V2.0.0/GD32F30x_Demo_Suites_V2.0.0/GD32F30x_Firmware_Library/GD32F30x_standard_peripheral/Source\gd32f30x_exti.c ****        this list of conditions and the following disclaimer in the documentation 
  22:C:/Users/49542/Desktop/GD32F30x_Demo_Suites_V2.0.0/GD32F30x_Demo_Suites_V2.0.0/GD32F30x_Firmware_Library/GD32F30x_standard_peripheral/Source\gd32f30x_exti.c ****        and/or other materials provided with the distribution.
  23:C:/Users/49542/Desktop/GD32F30x_Demo_Suites_V2.0.0/GD32F30x_Demo_Suites_V2.0.0/GD32F30x_Firmware_Library/GD32F30x_standard_peripheral/Source\gd32f30x_exti.c ****     3. Neither the name of the copyright holder nor the names of its contributors 
  24:C:/Users/49542/Desktop/GD32F30x_Demo_Suites_V2.0.0/GD32F30x_Demo_Suites_V2.0.0/GD32F30x_Firmware_Library/GD32F30x_standard_peripheral/Source\gd32f30x_exti.c ****        may be used to endorse or promote products derived from this software without 
  25:C:/Users/49542/Desktop/GD32F30x_Demo_Suites_V2.0.0/GD32F30x_Demo_Suites_V2.0.0/GD32F30x_Firmware_Library/GD32F30x_standard_peripheral/Source\gd32f30x_exti.c ****        specific prior written permission.
  26:C:/Users/49542/Desktop/GD32F30x_Demo_Suites_V2.0.0/GD32F30x_Demo_Suites_V2.0.0/GD32F30x_Firmware_Library/GD32F30x_standard_peripheral/Source\gd32f30x_exti.c **** 
  27:C:/Users/49542/Desktop/GD32F30x_Demo_Suites_V2.0.0/GD32F30x_Demo_Suites_V2.0.0/GD32F30x_Firmware_Library/GD32F30x_standard_peripheral/Source\gd32f30x_exti.c ****     THIS SOFTWARE IS PROVIDED BY THE COPYRIGHT HOLDERS AND CONTRIBUTORS "AS IS" 
  28:C:/Users/49542/Desktop/GD32F30x_Demo_Suites_V2.0.0/GD32F30x_Demo_Suites_V2.0.0/GD32F30x_Firmware_Library/GD32F30x_standard_peripheral/Source\gd32f30x_exti.c **** AND ANY EXPRESS OR IMPLIED WARRANTIES, INCLUDING, BUT NOT LIMITED TO, THE IMPLIED 
  29:C:/Users/49542/Desktop/GD32F30x_Demo_Suites_V2.0.0/GD32F30x_Demo_Suites_V2.0.0/GD32F30x_Firmware_Library/GD32F30x_standard_peripheral/Source\gd32f30x_exti.c **** WARRANTIES OF MERCHANTABILITY AND FITNESS FOR A PARTICULAR PURPOSE ARE DISCLAIMED. 
  30:C:/Users/49542/Desktop/GD32F30x_Demo_Suites_V2.0.0/GD32F30x_Demo_Suites_V2.0.0/GD32F30x_Firmware_Library/GD32F30x_standard_peripheral/Source\gd32f30x_exti.c **** IN NO EVENT SHALL THE COPYRIGHT HOLDER OR CONTRIBUTORS BE LIABLE FOR ANY DIRECT, 
  31:C:/Users/49542/Desktop/GD32F30x_Demo_Suites_V2.0.0/GD32F30x_Demo_Suites_V2.0.0/GD32F30x_Firmware_Library/GD32F30x_standard_peripheral/Source\gd32f30x_exti.c **** INDIRECT, INCIDENTAL, SPECIAL, EXEMPLARY, OR CONSEQUENTIAL DAMAGES (INCLUDING, BUT 
ARM GAS  C:\Users\49542\AppData\Local\Temp\ccGr6pXa.s 			page 2


  32:C:/Users/49542/Desktop/GD32F30x_Demo_Suites_V2.0.0/GD32F30x_Demo_Suites_V2.0.0/GD32F30x_Firmware_Library/GD32F30x_standard_peripheral/Source\gd32f30x_exti.c **** NOT LIMITED TO, PROCUREMENT OF SUBSTITUTE GOODS OR SERVICES; LOSS OF USE, DATA, OR 
  33:C:/Users/49542/Desktop/GD32F30x_Demo_Suites_V2.0.0/GD32F30x_Demo_Suites_V2.0.0/GD32F30x_Firmware_Library/GD32F30x_standard_peripheral/Source\gd32f30x_exti.c **** PROFITS; OR BUSINESS INTERRUPTION) HOWEVER CAUSED AND ON ANY THEORY OF LIABILITY, 
  34:C:/Users/49542/Desktop/GD32F30x_Demo_Suites_V2.0.0/GD32F30x_Demo_Suites_V2.0.0/GD32F30x_Firmware_Library/GD32F30x_standard_peripheral/Source\gd32f30x_exti.c **** WHETHER IN CONTRACT, STRICT LIABILITY, OR TORT (INCLUDING NEGLIGENCE OR OTHERWISE) 
  35:C:/Users/49542/Desktop/GD32F30x_Demo_Suites_V2.0.0/GD32F30x_Demo_Suites_V2.0.0/GD32F30x_Firmware_Library/GD32F30x_standard_peripheral/Source\gd32f30x_exti.c **** ARISING IN ANY WAY OUT OF THE USE OF THIS SOFTWARE, EVEN IF ADVISED OF THE POSSIBILITY 
  36:C:/Users/49542/Desktop/GD32F30x_Demo_Suites_V2.0.0/GD32F30x_Demo_Suites_V2.0.0/GD32F30x_Firmware_Library/GD32F30x_standard_peripheral/Source\gd32f30x_exti.c **** OF SUCH DAMAGE.
  37:C:/Users/49542/Desktop/GD32F30x_Demo_Suites_V2.0.0/GD32F30x_Demo_Suites_V2.0.0/GD32F30x_Firmware_Library/GD32F30x_standard_peripheral/Source\gd32f30x_exti.c **** */
  38:C:/Users/49542/Desktop/GD32F30x_Demo_Suites_V2.0.0/GD32F30x_Demo_Suites_V2.0.0/GD32F30x_Firmware_Library/GD32F30x_standard_peripheral/Source\gd32f30x_exti.c **** 
  39:C:/Users/49542/Desktop/GD32F30x_Demo_Suites_V2.0.0/GD32F30x_Demo_Suites_V2.0.0/GD32F30x_Firmware_Library/GD32F30x_standard_peripheral/Source\gd32f30x_exti.c **** #include "gd32f30x_exti.h"
  40:C:/Users/49542/Desktop/GD32F30x_Demo_Suites_V2.0.0/GD32F30x_Demo_Suites_V2.0.0/GD32F30x_Firmware_Library/GD32F30x_standard_peripheral/Source\gd32f30x_exti.c **** 
  41:C:/Users/49542/Desktop/GD32F30x_Demo_Suites_V2.0.0/GD32F30x_Demo_Suites_V2.0.0/GD32F30x_Firmware_Library/GD32F30x_standard_peripheral/Source\gd32f30x_exti.c **** /*!
  42:C:/Users/49542/Desktop/GD32F30x_Demo_Suites_V2.0.0/GD32F30x_Demo_Suites_V2.0.0/GD32F30x_Firmware_Library/GD32F30x_standard_peripheral/Source\gd32f30x_exti.c ****     \brief      deinitialize the EXTI
  43:C:/Users/49542/Desktop/GD32F30x_Demo_Suites_V2.0.0/GD32F30x_Demo_Suites_V2.0.0/GD32F30x_Firmware_Library/GD32F30x_standard_peripheral/Source\gd32f30x_exti.c ****     \param[in]  none
  44:C:/Users/49542/Desktop/GD32F30x_Demo_Suites_V2.0.0/GD32F30x_Demo_Suites_V2.0.0/GD32F30x_Firmware_Library/GD32F30x_standard_peripheral/Source\gd32f30x_exti.c ****     \param[out] none
  45:C:/Users/49542/Desktop/GD32F30x_Demo_Suites_V2.0.0/GD32F30x_Demo_Suites_V2.0.0/GD32F30x_Firmware_Library/GD32F30x_standard_peripheral/Source\gd32f30x_exti.c ****     \retval     none
  46:C:/Users/49542/Desktop/GD32F30x_Demo_Suites_V2.0.0/GD32F30x_Demo_Suites_V2.0.0/GD32F30x_Firmware_Library/GD32F30x_standard_peripheral/Source\gd32f30x_exti.c **** */
  47:C:/Users/49542/Desktop/GD32F30x_Demo_Suites_V2.0.0/GD32F30x_Demo_Suites_V2.0.0/GD32F30x_Firmware_Library/GD32F30x_standard_peripheral/Source\gd32f30x_exti.c **** void exti_deinit(void)
  48:C:/Users/49542/Desktop/GD32F30x_Demo_Suites_V2.0.0/GD32F30x_Demo_Suites_V2.0.0/GD32F30x_Firmware_Library/GD32F30x_standard_peripheral/Source\gd32f30x_exti.c **** {
  28              		.loc 1 48 0
  29              		.cfi_startproc
  30              		@ args = 0, pretend = 0, frame = 0
  31              		@ frame_needed = 1, uses_anonymous_args = 0
  32              		@ link register save eliminated.
  33 0000 80B4     		push	{r7}
  34              	.LCFI0:
  35              		.cfi_def_cfa_offset 4
  36              		.cfi_offset 7, -4
  37 0002 00AF     		add	r7, sp, #0
  38              	.LCFI1:
  39              		.cfi_def_cfa_register 7
  49:C:/Users/49542/Desktop/GD32F30x_Demo_Suites_V2.0.0/GD32F30x_Demo_Suites_V2.0.0/GD32F30x_Firmware_Library/GD32F30x_standard_peripheral/Source\gd32f30x_exti.c ****     /* reset the value of all the EXTI registers */
  50:C:/Users/49542/Desktop/GD32F30x_Demo_Suites_V2.0.0/GD32F30x_Demo_Suites_V2.0.0/GD32F30x_Firmware_Library/GD32F30x_standard_peripheral/Source\gd32f30x_exti.c ****     EXTI_INTEN = (uint32_t)0x00000000U;
  40              		.loc 1 50 0
  41 0004 094B     		ldr	r3, .L2
  42 0006 0022     		movs	r2, #0
  43 0008 1A60     		str	r2, [r3]
  51:C:/Users/49542/Desktop/GD32F30x_Demo_Suites_V2.0.0/GD32F30x_Demo_Suites_V2.0.0/GD32F30x_Firmware_Library/GD32F30x_standard_peripheral/Source\gd32f30x_exti.c ****     EXTI_EVEN  = (uint32_t)0x00000000U;
  44              		.loc 1 51 0
  45 000a 094B     		ldr	r3, .L2+4
  46 000c 0022     		movs	r2, #0
  47 000e 1A60     		str	r2, [r3]
  52:C:/Users/49542/Desktop/GD32F30x_Demo_Suites_V2.0.0/GD32F30x_Demo_Suites_V2.0.0/GD32F30x_Firmware_Library/GD32F30x_standard_peripheral/Source\gd32f30x_exti.c ****     EXTI_RTEN  = (uint32_t)0x00000000U;
  48              		.loc 1 52 0
  49 0010 084B     		ldr	r3, .L2+8
  50 0012 0022     		movs	r2, #0
  51 0014 1A60     		str	r2, [r3]
  53:C:/Users/49542/Desktop/GD32F30x_Demo_Suites_V2.0.0/GD32F30x_Demo_Suites_V2.0.0/GD32F30x_Firmware_Library/GD32F30x_standard_peripheral/Source\gd32f30x_exti.c ****     EXTI_FTEN  = (uint32_t)0x00000000U;
  52              		.loc 1 53 0
  53 0016 084B     		ldr	r3, .L2+12
  54 0018 0022     		movs	r2, #0
  55 001a 1A60     		str	r2, [r3]
  54:C:/Users/49542/Desktop/GD32F30x_Demo_Suites_V2.0.0/GD32F30x_Demo_Suites_V2.0.0/GD32F30x_Firmware_Library/GD32F30x_standard_peripheral/Source\gd32f30x_exti.c ****     EXTI_SWIEV = (uint32_t)0x00000000U;
  56              		.loc 1 54 0
  57 001c 074B     		ldr	r3, .L2+16
  58 001e 0022     		movs	r2, #0
  59 0020 1A60     		str	r2, [r3]
  55:C:/Users/49542/Desktop/GD32F30x_Demo_Suites_V2.0.0/GD32F30x_Demo_Suites_V2.0.0/GD32F30x_Firmware_Library/GD32F30x_standard_peripheral/Source\gd32f30x_exti.c **** }
  60              		.loc 1 55 0
ARM GAS  C:\Users\49542\AppData\Local\Temp\ccGr6pXa.s 			page 3


  61 0022 00BF     		nop
  62 0024 BD46     		mov	sp, r7
  63              	.LCFI2:
  64              		.cfi_def_cfa_register 13
  65              		@ sp needed
  66 0026 5DF8047B 		ldr	r7, [sp], #4
  67              	.LCFI3:
  68              		.cfi_restore 7
  69              		.cfi_def_cfa_offset 0
  70 002a 7047     		bx	lr
  71              	.L3:
  72              		.align	2
  73              	.L2:
  74 002c 00040140 		.word	1073808384
  75 0030 04040140 		.word	1073808388
  76 0034 08040140 		.word	1073808392
  77 0038 0C040140 		.word	1073808396
  78 003c 10040140 		.word	1073808400
  79              		.cfi_endproc
  80              	.LFE116:
  82              		.section	.text.exti_init,"ax",%progbits
  83              		.align	1
  84              		.global	exti_init
  85              		.syntax unified
  86              		.thumb
  87              		.thumb_func
  88              		.fpu fpv4-sp-d16
  90              	exti_init:
  91              	.LFB117:
  56:C:/Users/49542/Desktop/GD32F30x_Demo_Suites_V2.0.0/GD32F30x_Demo_Suites_V2.0.0/GD32F30x_Firmware_Library/GD32F30x_standard_peripheral/Source\gd32f30x_exti.c **** 
  57:C:/Users/49542/Desktop/GD32F30x_Demo_Suites_V2.0.0/GD32F30x_Demo_Suites_V2.0.0/GD32F30x_Firmware_Library/GD32F30x_standard_peripheral/Source\gd32f30x_exti.c **** /*!
  58:C:/Users/49542/Desktop/GD32F30x_Demo_Suites_V2.0.0/GD32F30x_Demo_Suites_V2.0.0/GD32F30x_Firmware_Library/GD32F30x_standard_peripheral/Source\gd32f30x_exti.c ****     \brief      initialize the EXTI
  59:C:/Users/49542/Desktop/GD32F30x_Demo_Suites_V2.0.0/GD32F30x_Demo_Suites_V2.0.0/GD32F30x_Firmware_Library/GD32F30x_standard_peripheral/Source\gd32f30x_exti.c ****     \param[in]  linex: EXTI line number, refer to exti_line_enum
  60:C:/Users/49542/Desktop/GD32F30x_Demo_Suites_V2.0.0/GD32F30x_Demo_Suites_V2.0.0/GD32F30x_Firmware_Library/GD32F30x_standard_peripheral/Source\gd32f30x_exti.c ****                 only one parameter can be selected which is shown as below:
  61:C:/Users/49542/Desktop/GD32F30x_Demo_Suites_V2.0.0/GD32F30x_Demo_Suites_V2.0.0/GD32F30x_Firmware_Library/GD32F30x_standard_peripheral/Source\gd32f30x_exti.c ****       \arg        EXTI_x (x=0..19): EXTI line x
  62:C:/Users/49542/Desktop/GD32F30x_Demo_Suites_V2.0.0/GD32F30x_Demo_Suites_V2.0.0/GD32F30x_Firmware_Library/GD32F30x_standard_peripheral/Source\gd32f30x_exti.c ****     \param[in]  mode: interrupt or event mode, refer to exti_mode_enum
  63:C:/Users/49542/Desktop/GD32F30x_Demo_Suites_V2.0.0/GD32F30x_Demo_Suites_V2.0.0/GD32F30x_Firmware_Library/GD32F30x_standard_peripheral/Source\gd32f30x_exti.c ****                 only one parameter can be selected which is shown as below:
  64:C:/Users/49542/Desktop/GD32F30x_Demo_Suites_V2.0.0/GD32F30x_Demo_Suites_V2.0.0/GD32F30x_Firmware_Library/GD32F30x_standard_peripheral/Source\gd32f30x_exti.c ****       \arg        EXTI_INTERRUPT: interrupt mode
  65:C:/Users/49542/Desktop/GD32F30x_Demo_Suites_V2.0.0/GD32F30x_Demo_Suites_V2.0.0/GD32F30x_Firmware_Library/GD32F30x_standard_peripheral/Source\gd32f30x_exti.c ****       \arg        EXTI_EVENT: event mode
  66:C:/Users/49542/Desktop/GD32F30x_Demo_Suites_V2.0.0/GD32F30x_Demo_Suites_V2.0.0/GD32F30x_Firmware_Library/GD32F30x_standard_peripheral/Source\gd32f30x_exti.c ****     \param[in]  trig_type: interrupt trigger type, refer to exti_trig_type_enum
  67:C:/Users/49542/Desktop/GD32F30x_Demo_Suites_V2.0.0/GD32F30x_Demo_Suites_V2.0.0/GD32F30x_Firmware_Library/GD32F30x_standard_peripheral/Source\gd32f30x_exti.c ****                 only one parameter can be selected which is shown as below:
  68:C:/Users/49542/Desktop/GD32F30x_Demo_Suites_V2.0.0/GD32F30x_Demo_Suites_V2.0.0/GD32F30x_Firmware_Library/GD32F30x_standard_peripheral/Source\gd32f30x_exti.c ****       \arg        EXTI_TRIG_RISING: rising edge trigger
  69:C:/Users/49542/Desktop/GD32F30x_Demo_Suites_V2.0.0/GD32F30x_Demo_Suites_V2.0.0/GD32F30x_Firmware_Library/GD32F30x_standard_peripheral/Source\gd32f30x_exti.c ****       \arg        EXTI_TRIG_FALLING: falling trigger
  70:C:/Users/49542/Desktop/GD32F30x_Demo_Suites_V2.0.0/GD32F30x_Demo_Suites_V2.0.0/GD32F30x_Firmware_Library/GD32F30x_standard_peripheral/Source\gd32f30x_exti.c ****       \arg        EXTI_TRIG_BOTH: rising and falling trigger
  71:C:/Users/49542/Desktop/GD32F30x_Demo_Suites_V2.0.0/GD32F30x_Demo_Suites_V2.0.0/GD32F30x_Firmware_Library/GD32F30x_standard_peripheral/Source\gd32f30x_exti.c ****     \param[out] none
  72:C:/Users/49542/Desktop/GD32F30x_Demo_Suites_V2.0.0/GD32F30x_Demo_Suites_V2.0.0/GD32F30x_Firmware_Library/GD32F30x_standard_peripheral/Source\gd32f30x_exti.c ****     \retval     none
  73:C:/Users/49542/Desktop/GD32F30x_Demo_Suites_V2.0.0/GD32F30x_Demo_Suites_V2.0.0/GD32F30x_Firmware_Library/GD32F30x_standard_peripheral/Source\gd32f30x_exti.c **** */
  74:C:/Users/49542/Desktop/GD32F30x_Demo_Suites_V2.0.0/GD32F30x_Demo_Suites_V2.0.0/GD32F30x_Firmware_Library/GD32F30x_standard_peripheral/Source\gd32f30x_exti.c **** void exti_init(exti_line_enum linex, exti_mode_enum mode, exti_trig_type_enum trig_type)
  75:C:/Users/49542/Desktop/GD32F30x_Demo_Suites_V2.0.0/GD32F30x_Demo_Suites_V2.0.0/GD32F30x_Firmware_Library/GD32F30x_standard_peripheral/Source\gd32f30x_exti.c **** {
  92              		.loc 1 75 0
  93              		.cfi_startproc
  94              		@ args = 0, pretend = 0, frame = 8
  95              		@ frame_needed = 1, uses_anonymous_args = 0
  96              		@ link register save eliminated.
  97 0000 80B4     		push	{r7}
  98              	.LCFI4:
  99              		.cfi_def_cfa_offset 4
ARM GAS  C:\Users\49542\AppData\Local\Temp\ccGr6pXa.s 			page 4


 100              		.cfi_offset 7, -4
 101 0002 83B0     		sub	sp, sp, #12
 102              	.LCFI5:
 103              		.cfi_def_cfa_offset 16
 104 0004 00AF     		add	r7, sp, #0
 105              	.LCFI6:
 106              		.cfi_def_cfa_register 7
 107 0006 7860     		str	r0, [r7, #4]
 108 0008 0B46     		mov	r3, r1
 109 000a FB70     		strb	r3, [r7, #3]
 110 000c 1346     		mov	r3, r2
 111 000e BB70     		strb	r3, [r7, #2]
  76:C:/Users/49542/Desktop/GD32F30x_Demo_Suites_V2.0.0/GD32F30x_Demo_Suites_V2.0.0/GD32F30x_Firmware_Library/GD32F30x_standard_peripheral/Source\gd32f30x_exti.c ****     /* reset the EXTI line x */
  77:C:/Users/49542/Desktop/GD32F30x_Demo_Suites_V2.0.0/GD32F30x_Demo_Suites_V2.0.0/GD32F30x_Firmware_Library/GD32F30x_standard_peripheral/Source\gd32f30x_exti.c ****     EXTI_INTEN &= ~(uint32_t)linex;
 112              		.loc 1 77 0
 113 0010 334B     		ldr	r3, .L14
 114 0012 1A68     		ldr	r2, [r3]
 115 0014 7B68     		ldr	r3, [r7, #4]
 116 0016 DB43     		mvns	r3, r3
 117 0018 3149     		ldr	r1, .L14
 118 001a 1340     		ands	r3, r3, r2
 119 001c 0B60     		str	r3, [r1]
  78:C:/Users/49542/Desktop/GD32F30x_Demo_Suites_V2.0.0/GD32F30x_Demo_Suites_V2.0.0/GD32F30x_Firmware_Library/GD32F30x_standard_peripheral/Source\gd32f30x_exti.c ****     EXTI_EVEN &= ~(uint32_t)linex;
 120              		.loc 1 78 0
 121 001e 314B     		ldr	r3, .L14+4
 122 0020 1A68     		ldr	r2, [r3]
 123 0022 7B68     		ldr	r3, [r7, #4]
 124 0024 DB43     		mvns	r3, r3
 125 0026 2F49     		ldr	r1, .L14+4
 126 0028 1340     		ands	r3, r3, r2
 127 002a 0B60     		str	r3, [r1]
  79:C:/Users/49542/Desktop/GD32F30x_Demo_Suites_V2.0.0/GD32F30x_Demo_Suites_V2.0.0/GD32F30x_Firmware_Library/GD32F30x_standard_peripheral/Source\gd32f30x_exti.c ****     EXTI_RTEN &= ~(uint32_t)linex;
 128              		.loc 1 79 0
 129 002c 2E4B     		ldr	r3, .L14+8
 130 002e 1A68     		ldr	r2, [r3]
 131 0030 7B68     		ldr	r3, [r7, #4]
 132 0032 DB43     		mvns	r3, r3
 133 0034 2C49     		ldr	r1, .L14+8
 134 0036 1340     		ands	r3, r3, r2
 135 0038 0B60     		str	r3, [r1]
  80:C:/Users/49542/Desktop/GD32F30x_Demo_Suites_V2.0.0/GD32F30x_Demo_Suites_V2.0.0/GD32F30x_Firmware_Library/GD32F30x_standard_peripheral/Source\gd32f30x_exti.c ****     EXTI_FTEN &= ~(uint32_t)linex;
 136              		.loc 1 80 0
 137 003a 2C4B     		ldr	r3, .L14+12
 138 003c 1A68     		ldr	r2, [r3]
 139 003e 7B68     		ldr	r3, [r7, #4]
 140 0040 DB43     		mvns	r3, r3
 141 0042 2A49     		ldr	r1, .L14+12
 142 0044 1340     		ands	r3, r3, r2
 143 0046 0B60     		str	r3, [r1]
  81:C:/Users/49542/Desktop/GD32F30x_Demo_Suites_V2.0.0/GD32F30x_Demo_Suites_V2.0.0/GD32F30x_Firmware_Library/GD32F30x_standard_peripheral/Source\gd32f30x_exti.c ****     
  82:C:/Users/49542/Desktop/GD32F30x_Demo_Suites_V2.0.0/GD32F30x_Demo_Suites_V2.0.0/GD32F30x_Firmware_Library/GD32F30x_standard_peripheral/Source\gd32f30x_exti.c ****     /* set the EXTI mode and enable the interrupts or events from EXTI line x */
  83:C:/Users/49542/Desktop/GD32F30x_Demo_Suites_V2.0.0/GD32F30x_Demo_Suites_V2.0.0/GD32F30x_Firmware_Library/GD32F30x_standard_peripheral/Source\gd32f30x_exti.c ****     switch(mode){
 144              		.loc 1 83 0
 145 0048 FB78     		ldrb	r3, [r7, #3]	@ zero_extendqisi2
 146 004a 002B     		cmp	r3, #0
 147 004c 02D0     		beq	.L6
 148 004e 012B     		cmp	r3, #1
ARM GAS  C:\Users\49542\AppData\Local\Temp\ccGr6pXa.s 			page 5


 149 0050 07D0     		beq	.L7
  84:C:/Users/49542/Desktop/GD32F30x_Demo_Suites_V2.0.0/GD32F30x_Demo_Suites_V2.0.0/GD32F30x_Firmware_Library/GD32F30x_standard_peripheral/Source\gd32f30x_exti.c ****     case EXTI_INTERRUPT:
  85:C:/Users/49542/Desktop/GD32F30x_Demo_Suites_V2.0.0/GD32F30x_Demo_Suites_V2.0.0/GD32F30x_Firmware_Library/GD32F30x_standard_peripheral/Source\gd32f30x_exti.c ****         EXTI_INTEN |= (uint32_t)linex;
  86:C:/Users/49542/Desktop/GD32F30x_Demo_Suites_V2.0.0/GD32F30x_Demo_Suites_V2.0.0/GD32F30x_Firmware_Library/GD32F30x_standard_peripheral/Source\gd32f30x_exti.c ****         break;
  87:C:/Users/49542/Desktop/GD32F30x_Demo_Suites_V2.0.0/GD32F30x_Demo_Suites_V2.0.0/GD32F30x_Firmware_Library/GD32F30x_standard_peripheral/Source\gd32f30x_exti.c ****     case EXTI_EVENT:
  88:C:/Users/49542/Desktop/GD32F30x_Demo_Suites_V2.0.0/GD32F30x_Demo_Suites_V2.0.0/GD32F30x_Firmware_Library/GD32F30x_standard_peripheral/Source\gd32f30x_exti.c ****         EXTI_EVEN |= (uint32_t)linex;
  89:C:/Users/49542/Desktop/GD32F30x_Demo_Suites_V2.0.0/GD32F30x_Demo_Suites_V2.0.0/GD32F30x_Firmware_Library/GD32F30x_standard_peripheral/Source\gd32f30x_exti.c ****         break;
  90:C:/Users/49542/Desktop/GD32F30x_Demo_Suites_V2.0.0/GD32F30x_Demo_Suites_V2.0.0/GD32F30x_Firmware_Library/GD32F30x_standard_peripheral/Source\gd32f30x_exti.c ****     default:
  91:C:/Users/49542/Desktop/GD32F30x_Demo_Suites_V2.0.0/GD32F30x_Demo_Suites_V2.0.0/GD32F30x_Firmware_Library/GD32F30x_standard_peripheral/Source\gd32f30x_exti.c ****         break;
 150              		.loc 1 91 0
 151 0052 0DE0     		b	.L8
 152              	.L6:
  85:C:/Users/49542/Desktop/GD32F30x_Demo_Suites_V2.0.0/GD32F30x_Demo_Suites_V2.0.0/GD32F30x_Firmware_Library/GD32F30x_standard_peripheral/Source\gd32f30x_exti.c ****         break;
 153              		.loc 1 85 0
 154 0054 224B     		ldr	r3, .L14
 155 0056 1A68     		ldr	r2, [r3]
 156 0058 2149     		ldr	r1, .L14
 157 005a 7B68     		ldr	r3, [r7, #4]
 158 005c 1343     		orrs	r3, r3, r2
 159 005e 0B60     		str	r3, [r1]
  86:C:/Users/49542/Desktop/GD32F30x_Demo_Suites_V2.0.0/GD32F30x_Demo_Suites_V2.0.0/GD32F30x_Firmware_Library/GD32F30x_standard_peripheral/Source\gd32f30x_exti.c ****     case EXTI_EVENT:
 160              		.loc 1 86 0
 161 0060 06E0     		b	.L8
 162              	.L7:
  88:C:/Users/49542/Desktop/GD32F30x_Demo_Suites_V2.0.0/GD32F30x_Demo_Suites_V2.0.0/GD32F30x_Firmware_Library/GD32F30x_standard_peripheral/Source\gd32f30x_exti.c ****         break;
 163              		.loc 1 88 0
 164 0062 204B     		ldr	r3, .L14+4
 165 0064 1A68     		ldr	r2, [r3]
 166 0066 1F49     		ldr	r1, .L14+4
 167 0068 7B68     		ldr	r3, [r7, #4]
 168 006a 1343     		orrs	r3, r3, r2
 169 006c 0B60     		str	r3, [r1]
  89:C:/Users/49542/Desktop/GD32F30x_Demo_Suites_V2.0.0/GD32F30x_Demo_Suites_V2.0.0/GD32F30x_Firmware_Library/GD32F30x_standard_peripheral/Source\gd32f30x_exti.c ****     default:
 170              		.loc 1 89 0
 171 006e 00BF     		nop
 172              	.L8:
  92:C:/Users/49542/Desktop/GD32F30x_Demo_Suites_V2.0.0/GD32F30x_Demo_Suites_V2.0.0/GD32F30x_Firmware_Library/GD32F30x_standard_peripheral/Source\gd32f30x_exti.c ****     }
  93:C:/Users/49542/Desktop/GD32F30x_Demo_Suites_V2.0.0/GD32F30x_Demo_Suites_V2.0.0/GD32F30x_Firmware_Library/GD32F30x_standard_peripheral/Source\gd32f30x_exti.c ****     
  94:C:/Users/49542/Desktop/GD32F30x_Demo_Suites_V2.0.0/GD32F30x_Demo_Suites_V2.0.0/GD32F30x_Firmware_Library/GD32F30x_standard_peripheral/Source\gd32f30x_exti.c ****     /* set the EXTI trigger type */
  95:C:/Users/49542/Desktop/GD32F30x_Demo_Suites_V2.0.0/GD32F30x_Demo_Suites_V2.0.0/GD32F30x_Firmware_Library/GD32F30x_standard_peripheral/Source\gd32f30x_exti.c ****     switch(trig_type){
 173              		.loc 1 95 0
 174 0070 BB78     		ldrb	r3, [r7, #2]	@ zero_extendqisi2
 175 0072 012B     		cmp	r3, #1
 176 0074 12D0     		beq	.L10
 177 0076 022B     		cmp	r3, #2
 178 0078 1ED0     		beq	.L11
 179 007a 002B     		cmp	r3, #0
 180 007c 00D0     		beq	.L12
  96:C:/Users/49542/Desktop/GD32F30x_Demo_Suites_V2.0.0/GD32F30x_Demo_Suites_V2.0.0/GD32F30x_Firmware_Library/GD32F30x_standard_peripheral/Source\gd32f30x_exti.c ****     case EXTI_TRIG_RISING:
  97:C:/Users/49542/Desktop/GD32F30x_Demo_Suites_V2.0.0/GD32F30x_Demo_Suites_V2.0.0/GD32F30x_Firmware_Library/GD32F30x_standard_peripheral/Source\gd32f30x_exti.c ****         EXTI_RTEN |= (uint32_t)linex;
  98:C:/Users/49542/Desktop/GD32F30x_Demo_Suites_V2.0.0/GD32F30x_Demo_Suites_V2.0.0/GD32F30x_Firmware_Library/GD32F30x_standard_peripheral/Source\gd32f30x_exti.c ****         EXTI_FTEN &= ~(uint32_t)linex;
  99:C:/Users/49542/Desktop/GD32F30x_Demo_Suites_V2.0.0/GD32F30x_Demo_Suites_V2.0.0/GD32F30x_Firmware_Library/GD32F30x_standard_peripheral/Source\gd32f30x_exti.c ****         break;
 100:C:/Users/49542/Desktop/GD32F30x_Demo_Suites_V2.0.0/GD32F30x_Demo_Suites_V2.0.0/GD32F30x_Firmware_Library/GD32F30x_standard_peripheral/Source\gd32f30x_exti.c ****     case EXTI_TRIG_FALLING:
 101:C:/Users/49542/Desktop/GD32F30x_Demo_Suites_V2.0.0/GD32F30x_Demo_Suites_V2.0.0/GD32F30x_Firmware_Library/GD32F30x_standard_peripheral/Source\gd32f30x_exti.c ****         EXTI_RTEN &= ~(uint32_t)linex;
 102:C:/Users/49542/Desktop/GD32F30x_Demo_Suites_V2.0.0/GD32F30x_Demo_Suites_V2.0.0/GD32F30x_Firmware_Library/GD32F30x_standard_peripheral/Source\gd32f30x_exti.c ****         EXTI_FTEN |= (uint32_t)linex;
 103:C:/Users/49542/Desktop/GD32F30x_Demo_Suites_V2.0.0/GD32F30x_Demo_Suites_V2.0.0/GD32F30x_Firmware_Library/GD32F30x_standard_peripheral/Source\gd32f30x_exti.c ****         break;
 104:C:/Users/49542/Desktop/GD32F30x_Demo_Suites_V2.0.0/GD32F30x_Demo_Suites_V2.0.0/GD32F30x_Firmware_Library/GD32F30x_standard_peripheral/Source\gd32f30x_exti.c ****     case EXTI_TRIG_BOTH:
ARM GAS  C:\Users\49542\AppData\Local\Temp\ccGr6pXa.s 			page 6


 105:C:/Users/49542/Desktop/GD32F30x_Demo_Suites_V2.0.0/GD32F30x_Demo_Suites_V2.0.0/GD32F30x_Firmware_Library/GD32F30x_standard_peripheral/Source\gd32f30x_exti.c ****         EXTI_RTEN |= (uint32_t)linex;
 106:C:/Users/49542/Desktop/GD32F30x_Demo_Suites_V2.0.0/GD32F30x_Demo_Suites_V2.0.0/GD32F30x_Firmware_Library/GD32F30x_standard_peripheral/Source\gd32f30x_exti.c ****         EXTI_FTEN |= (uint32_t)linex;
 107:C:/Users/49542/Desktop/GD32F30x_Demo_Suites_V2.0.0/GD32F30x_Demo_Suites_V2.0.0/GD32F30x_Firmware_Library/GD32F30x_standard_peripheral/Source\gd32f30x_exti.c ****         break;
 108:C:/Users/49542/Desktop/GD32F30x_Demo_Suites_V2.0.0/GD32F30x_Demo_Suites_V2.0.0/GD32F30x_Firmware_Library/GD32F30x_standard_peripheral/Source\gd32f30x_exti.c ****     default:
 109:C:/Users/49542/Desktop/GD32F30x_Demo_Suites_V2.0.0/GD32F30x_Demo_Suites_V2.0.0/GD32F30x_Firmware_Library/GD32F30x_standard_peripheral/Source\gd32f30x_exti.c ****         break;
 181              		.loc 1 109 0
 182 007e 28E0     		b	.L13
 183              	.L12:
  97:C:/Users/49542/Desktop/GD32F30x_Demo_Suites_V2.0.0/GD32F30x_Demo_Suites_V2.0.0/GD32F30x_Firmware_Library/GD32F30x_standard_peripheral/Source\gd32f30x_exti.c ****         EXTI_FTEN &= ~(uint32_t)linex;
 184              		.loc 1 97 0
 185 0080 194B     		ldr	r3, .L14+8
 186 0082 1A68     		ldr	r2, [r3]
 187 0084 1849     		ldr	r1, .L14+8
 188 0086 7B68     		ldr	r3, [r7, #4]
 189 0088 1343     		orrs	r3, r3, r2
 190 008a 0B60     		str	r3, [r1]
  98:C:/Users/49542/Desktop/GD32F30x_Demo_Suites_V2.0.0/GD32F30x_Demo_Suites_V2.0.0/GD32F30x_Firmware_Library/GD32F30x_standard_peripheral/Source\gd32f30x_exti.c ****         break;
 191              		.loc 1 98 0
 192 008c 174B     		ldr	r3, .L14+12
 193 008e 1A68     		ldr	r2, [r3]
 194 0090 7B68     		ldr	r3, [r7, #4]
 195 0092 DB43     		mvns	r3, r3
 196 0094 1549     		ldr	r1, .L14+12
 197 0096 1340     		ands	r3, r3, r2
 198 0098 0B60     		str	r3, [r1]
  99:C:/Users/49542/Desktop/GD32F30x_Demo_Suites_V2.0.0/GD32F30x_Demo_Suites_V2.0.0/GD32F30x_Firmware_Library/GD32F30x_standard_peripheral/Source\gd32f30x_exti.c ****     case EXTI_TRIG_FALLING:
 199              		.loc 1 99 0
 200 009a 1AE0     		b	.L13
 201              	.L10:
 101:C:/Users/49542/Desktop/GD32F30x_Demo_Suites_V2.0.0/GD32F30x_Demo_Suites_V2.0.0/GD32F30x_Firmware_Library/GD32F30x_standard_peripheral/Source\gd32f30x_exti.c ****         EXTI_FTEN |= (uint32_t)linex;
 202              		.loc 1 101 0
 203 009c 124B     		ldr	r3, .L14+8
 204 009e 1A68     		ldr	r2, [r3]
 205 00a0 7B68     		ldr	r3, [r7, #4]
 206 00a2 DB43     		mvns	r3, r3
 207 00a4 1049     		ldr	r1, .L14+8
 208 00a6 1340     		ands	r3, r3, r2
 209 00a8 0B60     		str	r3, [r1]
 102:C:/Users/49542/Desktop/GD32F30x_Demo_Suites_V2.0.0/GD32F30x_Demo_Suites_V2.0.0/GD32F30x_Firmware_Library/GD32F30x_standard_peripheral/Source\gd32f30x_exti.c ****         break;
 210              		.loc 1 102 0
 211 00aa 104B     		ldr	r3, .L14+12
 212 00ac 1A68     		ldr	r2, [r3]
 213 00ae 0F49     		ldr	r1, .L14+12
 214 00b0 7B68     		ldr	r3, [r7, #4]
 215 00b2 1343     		orrs	r3, r3, r2
 216 00b4 0B60     		str	r3, [r1]
 103:C:/Users/49542/Desktop/GD32F30x_Demo_Suites_V2.0.0/GD32F30x_Demo_Suites_V2.0.0/GD32F30x_Firmware_Library/GD32F30x_standard_peripheral/Source\gd32f30x_exti.c ****     case EXTI_TRIG_BOTH:
 217              		.loc 1 103 0
 218 00b6 0CE0     		b	.L13
 219              	.L11:
 105:C:/Users/49542/Desktop/GD32F30x_Demo_Suites_V2.0.0/GD32F30x_Demo_Suites_V2.0.0/GD32F30x_Firmware_Library/GD32F30x_standard_peripheral/Source\gd32f30x_exti.c ****         EXTI_FTEN |= (uint32_t)linex;
 220              		.loc 1 105 0
 221 00b8 0B4B     		ldr	r3, .L14+8
 222 00ba 1A68     		ldr	r2, [r3]
 223 00bc 0A49     		ldr	r1, .L14+8
 224 00be 7B68     		ldr	r3, [r7, #4]
 225 00c0 1343     		orrs	r3, r3, r2
ARM GAS  C:\Users\49542\AppData\Local\Temp\ccGr6pXa.s 			page 7


 226 00c2 0B60     		str	r3, [r1]
 106:C:/Users/49542/Desktop/GD32F30x_Demo_Suites_V2.0.0/GD32F30x_Demo_Suites_V2.0.0/GD32F30x_Firmware_Library/GD32F30x_standard_peripheral/Source\gd32f30x_exti.c ****         break;
 227              		.loc 1 106 0
 228 00c4 094B     		ldr	r3, .L14+12
 229 00c6 1A68     		ldr	r2, [r3]
 230 00c8 0849     		ldr	r1, .L14+12
 231 00ca 7B68     		ldr	r3, [r7, #4]
 232 00cc 1343     		orrs	r3, r3, r2
 233 00ce 0B60     		str	r3, [r1]
 107:C:/Users/49542/Desktop/GD32F30x_Demo_Suites_V2.0.0/GD32F30x_Demo_Suites_V2.0.0/GD32F30x_Firmware_Library/GD32F30x_standard_peripheral/Source\gd32f30x_exti.c ****     default:
 234              		.loc 1 107 0
 235 00d0 00BF     		nop
 236              	.L13:
 110:C:/Users/49542/Desktop/GD32F30x_Demo_Suites_V2.0.0/GD32F30x_Demo_Suites_V2.0.0/GD32F30x_Firmware_Library/GD32F30x_standard_peripheral/Source\gd32f30x_exti.c ****     }
 111:C:/Users/49542/Desktop/GD32F30x_Demo_Suites_V2.0.0/GD32F30x_Demo_Suites_V2.0.0/GD32F30x_Firmware_Library/GD32F30x_standard_peripheral/Source\gd32f30x_exti.c **** }
 237              		.loc 1 111 0
 238 00d2 00BF     		nop
 239 00d4 0C37     		adds	r7, r7, #12
 240              	.LCFI7:
 241              		.cfi_def_cfa_offset 4
 242 00d6 BD46     		mov	sp, r7
 243              	.LCFI8:
 244              		.cfi_def_cfa_register 13
 245              		@ sp needed
 246 00d8 5DF8047B 		ldr	r7, [sp], #4
 247              	.LCFI9:
 248              		.cfi_restore 7
 249              		.cfi_def_cfa_offset 0
 250 00dc 7047     		bx	lr
 251              	.L15:
 252 00de 00BF     		.align	2
 253              	.L14:
 254 00e0 00040140 		.word	1073808384
 255 00e4 04040140 		.word	1073808388
 256 00e8 08040140 		.word	1073808392
 257 00ec 0C040140 		.word	1073808396
 258              		.cfi_endproc
 259              	.LFE117:
 261              		.section	.text.exti_interrupt_enable,"ax",%progbits
 262              		.align	1
 263              		.global	exti_interrupt_enable
 264              		.syntax unified
 265              		.thumb
 266              		.thumb_func
 267              		.fpu fpv4-sp-d16
 269              	exti_interrupt_enable:
 270              	.LFB118:
 112:C:/Users/49542/Desktop/GD32F30x_Demo_Suites_V2.0.0/GD32F30x_Demo_Suites_V2.0.0/GD32F30x_Firmware_Library/GD32F30x_standard_peripheral/Source\gd32f30x_exti.c **** 
 113:C:/Users/49542/Desktop/GD32F30x_Demo_Suites_V2.0.0/GD32F30x_Demo_Suites_V2.0.0/GD32F30x_Firmware_Library/GD32F30x_standard_peripheral/Source\gd32f30x_exti.c **** /*!
 114:C:/Users/49542/Desktop/GD32F30x_Demo_Suites_V2.0.0/GD32F30x_Demo_Suites_V2.0.0/GD32F30x_Firmware_Library/GD32F30x_standard_peripheral/Source\gd32f30x_exti.c ****     \brief      enable the interrupts from EXTI line x
 115:C:/Users/49542/Desktop/GD32F30x_Demo_Suites_V2.0.0/GD32F30x_Demo_Suites_V2.0.0/GD32F30x_Firmware_Library/GD32F30x_standard_peripheral/Source\gd32f30x_exti.c ****     \param[in]  linex: EXTI line number, refer to exti_line_enum
 116:C:/Users/49542/Desktop/GD32F30x_Demo_Suites_V2.0.0/GD32F30x_Demo_Suites_V2.0.0/GD32F30x_Firmware_Library/GD32F30x_standard_peripheral/Source\gd32f30x_exti.c ****                 only one parameter can be selected which is shown as below:
 117:C:/Users/49542/Desktop/GD32F30x_Demo_Suites_V2.0.0/GD32F30x_Demo_Suites_V2.0.0/GD32F30x_Firmware_Library/GD32F30x_standard_peripheral/Source\gd32f30x_exti.c ****       \arg        EXTI_x (x=0..19): EXTI line x
 118:C:/Users/49542/Desktop/GD32F30x_Demo_Suites_V2.0.0/GD32F30x_Demo_Suites_V2.0.0/GD32F30x_Firmware_Library/GD32F30x_standard_peripheral/Source\gd32f30x_exti.c ****     \param[out] none
 119:C:/Users/49542/Desktop/GD32F30x_Demo_Suites_V2.0.0/GD32F30x_Demo_Suites_V2.0.0/GD32F30x_Firmware_Library/GD32F30x_standard_peripheral/Source\gd32f30x_exti.c ****     \retval     none
 120:C:/Users/49542/Desktop/GD32F30x_Demo_Suites_V2.0.0/GD32F30x_Demo_Suites_V2.0.0/GD32F30x_Firmware_Library/GD32F30x_standard_peripheral/Source\gd32f30x_exti.c **** */
 121:C:/Users/49542/Desktop/GD32F30x_Demo_Suites_V2.0.0/GD32F30x_Demo_Suites_V2.0.0/GD32F30x_Firmware_Library/GD32F30x_standard_peripheral/Source\gd32f30x_exti.c **** void exti_interrupt_enable(exti_line_enum linex)
ARM GAS  C:\Users\49542\AppData\Local\Temp\ccGr6pXa.s 			page 8


 122:C:/Users/49542/Desktop/GD32F30x_Demo_Suites_V2.0.0/GD32F30x_Demo_Suites_V2.0.0/GD32F30x_Firmware_Library/GD32F30x_standard_peripheral/Source\gd32f30x_exti.c **** {
 271              		.loc 1 122 0
 272              		.cfi_startproc
 273              		@ args = 0, pretend = 0, frame = 8
 274              		@ frame_needed = 1, uses_anonymous_args = 0
 275              		@ link register save eliminated.
 276 0000 80B4     		push	{r7}
 277              	.LCFI10:
 278              		.cfi_def_cfa_offset 4
 279              		.cfi_offset 7, -4
 280 0002 83B0     		sub	sp, sp, #12
 281              	.LCFI11:
 282              		.cfi_def_cfa_offset 16
 283 0004 00AF     		add	r7, sp, #0
 284              	.LCFI12:
 285              		.cfi_def_cfa_register 7
 286 0006 7860     		str	r0, [r7, #4]
 123:C:/Users/49542/Desktop/GD32F30x_Demo_Suites_V2.0.0/GD32F30x_Demo_Suites_V2.0.0/GD32F30x_Firmware_Library/GD32F30x_standard_peripheral/Source\gd32f30x_exti.c ****     EXTI_INTEN |= (uint32_t)linex;
 287              		.loc 1 123 0
 288 0008 054B     		ldr	r3, .L17
 289 000a 1A68     		ldr	r2, [r3]
 290 000c 0449     		ldr	r1, .L17
 291 000e 7B68     		ldr	r3, [r7, #4]
 292 0010 1343     		orrs	r3, r3, r2
 293 0012 0B60     		str	r3, [r1]
 124:C:/Users/49542/Desktop/GD32F30x_Demo_Suites_V2.0.0/GD32F30x_Demo_Suites_V2.0.0/GD32F30x_Firmware_Library/GD32F30x_standard_peripheral/Source\gd32f30x_exti.c **** }
 294              		.loc 1 124 0
 295 0014 00BF     		nop
 296 0016 0C37     		adds	r7, r7, #12
 297              	.LCFI13:
 298              		.cfi_def_cfa_offset 4
 299 0018 BD46     		mov	sp, r7
 300              	.LCFI14:
 301              		.cfi_def_cfa_register 13
 302              		@ sp needed
 303 001a 5DF8047B 		ldr	r7, [sp], #4
 304              	.LCFI15:
 305              		.cfi_restore 7
 306              		.cfi_def_cfa_offset 0
 307 001e 7047     		bx	lr
 308              	.L18:
 309              		.align	2
 310              	.L17:
 311 0020 00040140 		.word	1073808384
 312              		.cfi_endproc
 313              	.LFE118:
 315              		.section	.text.exti_event_enable,"ax",%progbits
 316              		.align	1
 317              		.global	exti_event_enable
 318              		.syntax unified
 319              		.thumb
 320              		.thumb_func
 321              		.fpu fpv4-sp-d16
 323              	exti_event_enable:
 324              	.LFB119:
 125:C:/Users/49542/Desktop/GD32F30x_Demo_Suites_V2.0.0/GD32F30x_Demo_Suites_V2.0.0/GD32F30x_Firmware_Library/GD32F30x_standard_peripheral/Source\gd32f30x_exti.c **** 
 126:C:/Users/49542/Desktop/GD32F30x_Demo_Suites_V2.0.0/GD32F30x_Demo_Suites_V2.0.0/GD32F30x_Firmware_Library/GD32F30x_standard_peripheral/Source\gd32f30x_exti.c **** /*!
ARM GAS  C:\Users\49542\AppData\Local\Temp\ccGr6pXa.s 			page 9


 127:C:/Users/49542/Desktop/GD32F30x_Demo_Suites_V2.0.0/GD32F30x_Demo_Suites_V2.0.0/GD32F30x_Firmware_Library/GD32F30x_standard_peripheral/Source\gd32f30x_exti.c ****     \brief      enable the events from EXTI line x
 128:C:/Users/49542/Desktop/GD32F30x_Demo_Suites_V2.0.0/GD32F30x_Demo_Suites_V2.0.0/GD32F30x_Firmware_Library/GD32F30x_standard_peripheral/Source\gd32f30x_exti.c ****     \param[in]  linex: EXTI line number, refer to exti_line_enum
 129:C:/Users/49542/Desktop/GD32F30x_Demo_Suites_V2.0.0/GD32F30x_Demo_Suites_V2.0.0/GD32F30x_Firmware_Library/GD32F30x_standard_peripheral/Source\gd32f30x_exti.c ****                 only one parameter can be selected which is shown as below:
 130:C:/Users/49542/Desktop/GD32F30x_Demo_Suites_V2.0.0/GD32F30x_Demo_Suites_V2.0.0/GD32F30x_Firmware_Library/GD32F30x_standard_peripheral/Source\gd32f30x_exti.c ****       \arg        EXTI_x (x=0..19): EXTI line x
 131:C:/Users/49542/Desktop/GD32F30x_Demo_Suites_V2.0.0/GD32F30x_Demo_Suites_V2.0.0/GD32F30x_Firmware_Library/GD32F30x_standard_peripheral/Source\gd32f30x_exti.c ****     \param[out] none
 132:C:/Users/49542/Desktop/GD32F30x_Demo_Suites_V2.0.0/GD32F30x_Demo_Suites_V2.0.0/GD32F30x_Firmware_Library/GD32F30x_standard_peripheral/Source\gd32f30x_exti.c ****     \retval     none
 133:C:/Users/49542/Desktop/GD32F30x_Demo_Suites_V2.0.0/GD32F30x_Demo_Suites_V2.0.0/GD32F30x_Firmware_Library/GD32F30x_standard_peripheral/Source\gd32f30x_exti.c **** */
 134:C:/Users/49542/Desktop/GD32F30x_Demo_Suites_V2.0.0/GD32F30x_Demo_Suites_V2.0.0/GD32F30x_Firmware_Library/GD32F30x_standard_peripheral/Source\gd32f30x_exti.c **** void exti_event_enable(exti_line_enum linex)
 135:C:/Users/49542/Desktop/GD32F30x_Demo_Suites_V2.0.0/GD32F30x_Demo_Suites_V2.0.0/GD32F30x_Firmware_Library/GD32F30x_standard_peripheral/Source\gd32f30x_exti.c **** {
 325              		.loc 1 135 0
 326              		.cfi_startproc
 327              		@ args = 0, pretend = 0, frame = 8
 328              		@ frame_needed = 1, uses_anonymous_args = 0
 329              		@ link register save eliminated.
 330 0000 80B4     		push	{r7}
 331              	.LCFI16:
 332              		.cfi_def_cfa_offset 4
 333              		.cfi_offset 7, -4
 334 0002 83B0     		sub	sp, sp, #12
 335              	.LCFI17:
 336              		.cfi_def_cfa_offset 16
 337 0004 00AF     		add	r7, sp, #0
 338              	.LCFI18:
 339              		.cfi_def_cfa_register 7
 340 0006 7860     		str	r0, [r7, #4]
 136:C:/Users/49542/Desktop/GD32F30x_Demo_Suites_V2.0.0/GD32F30x_Demo_Suites_V2.0.0/GD32F30x_Firmware_Library/GD32F30x_standard_peripheral/Source\gd32f30x_exti.c ****     EXTI_EVEN |= (uint32_t)linex;
 341              		.loc 1 136 0
 342 0008 054B     		ldr	r3, .L20
 343 000a 1A68     		ldr	r2, [r3]
 344 000c 0449     		ldr	r1, .L20
 345 000e 7B68     		ldr	r3, [r7, #4]
 346 0010 1343     		orrs	r3, r3, r2
 347 0012 0B60     		str	r3, [r1]
 137:C:/Users/49542/Desktop/GD32F30x_Demo_Suites_V2.0.0/GD32F30x_Demo_Suites_V2.0.0/GD32F30x_Firmware_Library/GD32F30x_standard_peripheral/Source\gd32f30x_exti.c **** }
 348              		.loc 1 137 0
 349 0014 00BF     		nop
 350 0016 0C37     		adds	r7, r7, #12
 351              	.LCFI19:
 352              		.cfi_def_cfa_offset 4
 353 0018 BD46     		mov	sp, r7
 354              	.LCFI20:
 355              		.cfi_def_cfa_register 13
 356              		@ sp needed
 357 001a 5DF8047B 		ldr	r7, [sp], #4
 358              	.LCFI21:
 359              		.cfi_restore 7
 360              		.cfi_def_cfa_offset 0
 361 001e 7047     		bx	lr
 362              	.L21:
 363              		.align	2
 364              	.L20:
 365 0020 04040140 		.word	1073808388
 366              		.cfi_endproc
 367              	.LFE119:
 369              		.section	.text.exti_interrupt_disable,"ax",%progbits
 370              		.align	1
 371              		.global	exti_interrupt_disable
ARM GAS  C:\Users\49542\AppData\Local\Temp\ccGr6pXa.s 			page 10


 372              		.syntax unified
 373              		.thumb
 374              		.thumb_func
 375              		.fpu fpv4-sp-d16
 377              	exti_interrupt_disable:
 378              	.LFB120:
 138:C:/Users/49542/Desktop/GD32F30x_Demo_Suites_V2.0.0/GD32F30x_Demo_Suites_V2.0.0/GD32F30x_Firmware_Library/GD32F30x_standard_peripheral/Source\gd32f30x_exti.c **** 
 139:C:/Users/49542/Desktop/GD32F30x_Demo_Suites_V2.0.0/GD32F30x_Demo_Suites_V2.0.0/GD32F30x_Firmware_Library/GD32F30x_standard_peripheral/Source\gd32f30x_exti.c **** /*!
 140:C:/Users/49542/Desktop/GD32F30x_Demo_Suites_V2.0.0/GD32F30x_Demo_Suites_V2.0.0/GD32F30x_Firmware_Library/GD32F30x_standard_peripheral/Source\gd32f30x_exti.c ****     \brief      disable the interrupt from EXTI line x
 141:C:/Users/49542/Desktop/GD32F30x_Demo_Suites_V2.0.0/GD32F30x_Demo_Suites_V2.0.0/GD32F30x_Firmware_Library/GD32F30x_standard_peripheral/Source\gd32f30x_exti.c ****     \param[in]  linex: EXTI line number, refer to exti_line_enum
 142:C:/Users/49542/Desktop/GD32F30x_Demo_Suites_V2.0.0/GD32F30x_Demo_Suites_V2.0.0/GD32F30x_Firmware_Library/GD32F30x_standard_peripheral/Source\gd32f30x_exti.c ****                 only one parameter can be selected which is shown as below:
 143:C:/Users/49542/Desktop/GD32F30x_Demo_Suites_V2.0.0/GD32F30x_Demo_Suites_V2.0.0/GD32F30x_Firmware_Library/GD32F30x_standard_peripheral/Source\gd32f30x_exti.c ****       \arg        EXTI_x (x=0..19): EXTI line x
 144:C:/Users/49542/Desktop/GD32F30x_Demo_Suites_V2.0.0/GD32F30x_Demo_Suites_V2.0.0/GD32F30x_Firmware_Library/GD32F30x_standard_peripheral/Source\gd32f30x_exti.c ****     \param[out] none
 145:C:/Users/49542/Desktop/GD32F30x_Demo_Suites_V2.0.0/GD32F30x_Demo_Suites_V2.0.0/GD32F30x_Firmware_Library/GD32F30x_standard_peripheral/Source\gd32f30x_exti.c ****     \retval     none
 146:C:/Users/49542/Desktop/GD32F30x_Demo_Suites_V2.0.0/GD32F30x_Demo_Suites_V2.0.0/GD32F30x_Firmware_Library/GD32F30x_standard_peripheral/Source\gd32f30x_exti.c **** */
 147:C:/Users/49542/Desktop/GD32F30x_Demo_Suites_V2.0.0/GD32F30x_Demo_Suites_V2.0.0/GD32F30x_Firmware_Library/GD32F30x_standard_peripheral/Source\gd32f30x_exti.c **** void exti_interrupt_disable(exti_line_enum linex)
 148:C:/Users/49542/Desktop/GD32F30x_Demo_Suites_V2.0.0/GD32F30x_Demo_Suites_V2.0.0/GD32F30x_Firmware_Library/GD32F30x_standard_peripheral/Source\gd32f30x_exti.c **** {
 379              		.loc 1 148 0
 380              		.cfi_startproc
 381              		@ args = 0, pretend = 0, frame = 8
 382              		@ frame_needed = 1, uses_anonymous_args = 0
 383              		@ link register save eliminated.
 384 0000 80B4     		push	{r7}
 385              	.LCFI22:
 386              		.cfi_def_cfa_offset 4
 387              		.cfi_offset 7, -4
 388 0002 83B0     		sub	sp, sp, #12
 389              	.LCFI23:
 390              		.cfi_def_cfa_offset 16
 391 0004 00AF     		add	r7, sp, #0
 392              	.LCFI24:
 393              		.cfi_def_cfa_register 7
 394 0006 7860     		str	r0, [r7, #4]
 149:C:/Users/49542/Desktop/GD32F30x_Demo_Suites_V2.0.0/GD32F30x_Demo_Suites_V2.0.0/GD32F30x_Firmware_Library/GD32F30x_standard_peripheral/Source\gd32f30x_exti.c ****     EXTI_INTEN &= ~(uint32_t)linex;
 395              		.loc 1 149 0
 396 0008 064B     		ldr	r3, .L23
 397 000a 1A68     		ldr	r2, [r3]
 398 000c 7B68     		ldr	r3, [r7, #4]
 399 000e DB43     		mvns	r3, r3
 400 0010 0449     		ldr	r1, .L23
 401 0012 1340     		ands	r3, r3, r2
 402 0014 0B60     		str	r3, [r1]
 150:C:/Users/49542/Desktop/GD32F30x_Demo_Suites_V2.0.0/GD32F30x_Demo_Suites_V2.0.0/GD32F30x_Firmware_Library/GD32F30x_standard_peripheral/Source\gd32f30x_exti.c **** }
 403              		.loc 1 150 0
 404 0016 00BF     		nop
 405 0018 0C37     		adds	r7, r7, #12
 406              	.LCFI25:
 407              		.cfi_def_cfa_offset 4
 408 001a BD46     		mov	sp, r7
 409              	.LCFI26:
 410              		.cfi_def_cfa_register 13
 411              		@ sp needed
 412 001c 5DF8047B 		ldr	r7, [sp], #4
 413              	.LCFI27:
 414              		.cfi_restore 7
 415              		.cfi_def_cfa_offset 0
 416 0020 7047     		bx	lr
ARM GAS  C:\Users\49542\AppData\Local\Temp\ccGr6pXa.s 			page 11


 417              	.L24:
 418 0022 00BF     		.align	2
 419              	.L23:
 420 0024 00040140 		.word	1073808384
 421              		.cfi_endproc
 422              	.LFE120:
 424              		.section	.text.exti_event_disable,"ax",%progbits
 425              		.align	1
 426              		.global	exti_event_disable
 427              		.syntax unified
 428              		.thumb
 429              		.thumb_func
 430              		.fpu fpv4-sp-d16
 432              	exti_event_disable:
 433              	.LFB121:
 151:C:/Users/49542/Desktop/GD32F30x_Demo_Suites_V2.0.0/GD32F30x_Demo_Suites_V2.0.0/GD32F30x_Firmware_Library/GD32F30x_standard_peripheral/Source\gd32f30x_exti.c **** 
 152:C:/Users/49542/Desktop/GD32F30x_Demo_Suites_V2.0.0/GD32F30x_Demo_Suites_V2.0.0/GD32F30x_Firmware_Library/GD32F30x_standard_peripheral/Source\gd32f30x_exti.c **** /*!
 153:C:/Users/49542/Desktop/GD32F30x_Demo_Suites_V2.0.0/GD32F30x_Demo_Suites_V2.0.0/GD32F30x_Firmware_Library/GD32F30x_standard_peripheral/Source\gd32f30x_exti.c ****     \brief      disable the events from EXTI line x
 154:C:/Users/49542/Desktop/GD32F30x_Demo_Suites_V2.0.0/GD32F30x_Demo_Suites_V2.0.0/GD32F30x_Firmware_Library/GD32F30x_standard_peripheral/Source\gd32f30x_exti.c ****     \param[in]  linex: EXTI line number, refer to exti_line_enum
 155:C:/Users/49542/Desktop/GD32F30x_Demo_Suites_V2.0.0/GD32F30x_Demo_Suites_V2.0.0/GD32F30x_Firmware_Library/GD32F30x_standard_peripheral/Source\gd32f30x_exti.c ****                 only one parameter can be selected which is shown as below:
 156:C:/Users/49542/Desktop/GD32F30x_Demo_Suites_V2.0.0/GD32F30x_Demo_Suites_V2.0.0/GD32F30x_Firmware_Library/GD32F30x_standard_peripheral/Source\gd32f30x_exti.c ****       \arg        EXTI_x (x=0..19): EXTI line x
 157:C:/Users/49542/Desktop/GD32F30x_Demo_Suites_V2.0.0/GD32F30x_Demo_Suites_V2.0.0/GD32F30x_Firmware_Library/GD32F30x_standard_peripheral/Source\gd32f30x_exti.c ****     \param[out] none
 158:C:/Users/49542/Desktop/GD32F30x_Demo_Suites_V2.0.0/GD32F30x_Demo_Suites_V2.0.0/GD32F30x_Firmware_Library/GD32F30x_standard_peripheral/Source\gd32f30x_exti.c ****     \retval     none
 159:C:/Users/49542/Desktop/GD32F30x_Demo_Suites_V2.0.0/GD32F30x_Demo_Suites_V2.0.0/GD32F30x_Firmware_Library/GD32F30x_standard_peripheral/Source\gd32f30x_exti.c **** */
 160:C:/Users/49542/Desktop/GD32F30x_Demo_Suites_V2.0.0/GD32F30x_Demo_Suites_V2.0.0/GD32F30x_Firmware_Library/GD32F30x_standard_peripheral/Source\gd32f30x_exti.c **** void exti_event_disable(exti_line_enum linex)
 161:C:/Users/49542/Desktop/GD32F30x_Demo_Suites_V2.0.0/GD32F30x_Demo_Suites_V2.0.0/GD32F30x_Firmware_Library/GD32F30x_standard_peripheral/Source\gd32f30x_exti.c **** {
 434              		.loc 1 161 0
 435              		.cfi_startproc
 436              		@ args = 0, pretend = 0, frame = 8
 437              		@ frame_needed = 1, uses_anonymous_args = 0
 438              		@ link register save eliminated.
 439 0000 80B4     		push	{r7}
 440              	.LCFI28:
 441              		.cfi_def_cfa_offset 4
 442              		.cfi_offset 7, -4
 443 0002 83B0     		sub	sp, sp, #12
 444              	.LCFI29:
 445              		.cfi_def_cfa_offset 16
 446 0004 00AF     		add	r7, sp, #0
 447              	.LCFI30:
 448              		.cfi_def_cfa_register 7
 449 0006 7860     		str	r0, [r7, #4]
 162:C:/Users/49542/Desktop/GD32F30x_Demo_Suites_V2.0.0/GD32F30x_Demo_Suites_V2.0.0/GD32F30x_Firmware_Library/GD32F30x_standard_peripheral/Source\gd32f30x_exti.c ****     EXTI_EVEN &= ~(uint32_t)linex;
 450              		.loc 1 162 0
 451 0008 064B     		ldr	r3, .L26
 452 000a 1A68     		ldr	r2, [r3]
 453 000c 7B68     		ldr	r3, [r7, #4]
 454 000e DB43     		mvns	r3, r3
 455 0010 0449     		ldr	r1, .L26
 456 0012 1340     		ands	r3, r3, r2
 457 0014 0B60     		str	r3, [r1]
 163:C:/Users/49542/Desktop/GD32F30x_Demo_Suites_V2.0.0/GD32F30x_Demo_Suites_V2.0.0/GD32F30x_Firmware_Library/GD32F30x_standard_peripheral/Source\gd32f30x_exti.c **** }
 458              		.loc 1 163 0
 459 0016 00BF     		nop
 460 0018 0C37     		adds	r7, r7, #12
 461              	.LCFI31:
 462              		.cfi_def_cfa_offset 4
ARM GAS  C:\Users\49542\AppData\Local\Temp\ccGr6pXa.s 			page 12


 463 001a BD46     		mov	sp, r7
 464              	.LCFI32:
 465              		.cfi_def_cfa_register 13
 466              		@ sp needed
 467 001c 5DF8047B 		ldr	r7, [sp], #4
 468              	.LCFI33:
 469              		.cfi_restore 7
 470              		.cfi_def_cfa_offset 0
 471 0020 7047     		bx	lr
 472              	.L27:
 473 0022 00BF     		.align	2
 474              	.L26:
 475 0024 04040140 		.word	1073808388
 476              		.cfi_endproc
 477              	.LFE121:
 479              		.section	.text.exti_flag_get,"ax",%progbits
 480              		.align	1
 481              		.global	exti_flag_get
 482              		.syntax unified
 483              		.thumb
 484              		.thumb_func
 485              		.fpu fpv4-sp-d16
 487              	exti_flag_get:
 488              	.LFB122:
 164:C:/Users/49542/Desktop/GD32F30x_Demo_Suites_V2.0.0/GD32F30x_Demo_Suites_V2.0.0/GD32F30x_Firmware_Library/GD32F30x_standard_peripheral/Source\gd32f30x_exti.c **** 
 165:C:/Users/49542/Desktop/GD32F30x_Demo_Suites_V2.0.0/GD32F30x_Demo_Suites_V2.0.0/GD32F30x_Firmware_Library/GD32F30x_standard_peripheral/Source\gd32f30x_exti.c **** /*!
 166:C:/Users/49542/Desktop/GD32F30x_Demo_Suites_V2.0.0/GD32F30x_Demo_Suites_V2.0.0/GD32F30x_Firmware_Library/GD32F30x_standard_peripheral/Source\gd32f30x_exti.c ****     \brief      get EXTI lines flag
 167:C:/Users/49542/Desktop/GD32F30x_Demo_Suites_V2.0.0/GD32F30x_Demo_Suites_V2.0.0/GD32F30x_Firmware_Library/GD32F30x_standard_peripheral/Source\gd32f30x_exti.c ****     \param[in]  linex: EXTI line number, refer to exti_line_enum
 168:C:/Users/49542/Desktop/GD32F30x_Demo_Suites_V2.0.0/GD32F30x_Demo_Suites_V2.0.0/GD32F30x_Firmware_Library/GD32F30x_standard_peripheral/Source\gd32f30x_exti.c ****                 only one parameter can be selected which is shown as below:
 169:C:/Users/49542/Desktop/GD32F30x_Demo_Suites_V2.0.0/GD32F30x_Demo_Suites_V2.0.0/GD32F30x_Firmware_Library/GD32F30x_standard_peripheral/Source\gd32f30x_exti.c ****       \arg        EXTI_x (x=0..19): EXTI line x
 170:C:/Users/49542/Desktop/GD32F30x_Demo_Suites_V2.0.0/GD32F30x_Demo_Suites_V2.0.0/GD32F30x_Firmware_Library/GD32F30x_standard_peripheral/Source\gd32f30x_exti.c ****     \param[out] none
 171:C:/Users/49542/Desktop/GD32F30x_Demo_Suites_V2.0.0/GD32F30x_Demo_Suites_V2.0.0/GD32F30x_Firmware_Library/GD32F30x_standard_peripheral/Source\gd32f30x_exti.c ****     \retval     FlagStatus: status of flag (RESET or SET)
 172:C:/Users/49542/Desktop/GD32F30x_Demo_Suites_V2.0.0/GD32F30x_Demo_Suites_V2.0.0/GD32F30x_Firmware_Library/GD32F30x_standard_peripheral/Source\gd32f30x_exti.c **** */
 173:C:/Users/49542/Desktop/GD32F30x_Demo_Suites_V2.0.0/GD32F30x_Demo_Suites_V2.0.0/GD32F30x_Firmware_Library/GD32F30x_standard_peripheral/Source\gd32f30x_exti.c **** FlagStatus exti_flag_get(exti_line_enum linex)
 174:C:/Users/49542/Desktop/GD32F30x_Demo_Suites_V2.0.0/GD32F30x_Demo_Suites_V2.0.0/GD32F30x_Firmware_Library/GD32F30x_standard_peripheral/Source\gd32f30x_exti.c **** {
 489              		.loc 1 174 0
 490              		.cfi_startproc
 491              		@ args = 0, pretend = 0, frame = 8
 492              		@ frame_needed = 1, uses_anonymous_args = 0
 493              		@ link register save eliminated.
 494 0000 80B4     		push	{r7}
 495              	.LCFI34:
 496              		.cfi_def_cfa_offset 4
 497              		.cfi_offset 7, -4
 498 0002 83B0     		sub	sp, sp, #12
 499              	.LCFI35:
 500              		.cfi_def_cfa_offset 16
 501 0004 00AF     		add	r7, sp, #0
 502              	.LCFI36:
 503              		.cfi_def_cfa_register 7
 504 0006 7860     		str	r0, [r7, #4]
 175:C:/Users/49542/Desktop/GD32F30x_Demo_Suites_V2.0.0/GD32F30x_Demo_Suites_V2.0.0/GD32F30x_Firmware_Library/GD32F30x_standard_peripheral/Source\gd32f30x_exti.c ****     if(RESET != (EXTI_PD & (uint32_t)linex)){
 505              		.loc 1 175 0
 506 0008 074B     		ldr	r3, .L31
 507 000a 1A68     		ldr	r2, [r3]
 508 000c 7B68     		ldr	r3, [r7, #4]
 509 000e 1340     		ands	r3, r3, r2
ARM GAS  C:\Users\49542\AppData\Local\Temp\ccGr6pXa.s 			page 13


 510 0010 002B     		cmp	r3, #0
 511 0012 01D0     		beq	.L29
 176:C:/Users/49542/Desktop/GD32F30x_Demo_Suites_V2.0.0/GD32F30x_Demo_Suites_V2.0.0/GD32F30x_Firmware_Library/GD32F30x_standard_peripheral/Source\gd32f30x_exti.c ****         return SET;
 512              		.loc 1 176 0
 513 0014 0123     		movs	r3, #1
 514 0016 00E0     		b	.L30
 515              	.L29:
 177:C:/Users/49542/Desktop/GD32F30x_Demo_Suites_V2.0.0/GD32F30x_Demo_Suites_V2.0.0/GD32F30x_Firmware_Library/GD32F30x_standard_peripheral/Source\gd32f30x_exti.c ****     }else{
 178:C:/Users/49542/Desktop/GD32F30x_Demo_Suites_V2.0.0/GD32F30x_Demo_Suites_V2.0.0/GD32F30x_Firmware_Library/GD32F30x_standard_peripheral/Source\gd32f30x_exti.c ****         return RESET;
 516              		.loc 1 178 0
 517 0018 0023     		movs	r3, #0
 518              	.L30:
 179:C:/Users/49542/Desktop/GD32F30x_Demo_Suites_V2.0.0/GD32F30x_Demo_Suites_V2.0.0/GD32F30x_Firmware_Library/GD32F30x_standard_peripheral/Source\gd32f30x_exti.c ****     } 
 180:C:/Users/49542/Desktop/GD32F30x_Demo_Suites_V2.0.0/GD32F30x_Demo_Suites_V2.0.0/GD32F30x_Firmware_Library/GD32F30x_standard_peripheral/Source\gd32f30x_exti.c **** }
 519              		.loc 1 180 0
 520 001a 1846     		mov	r0, r3
 521 001c 0C37     		adds	r7, r7, #12
 522              	.LCFI37:
 523              		.cfi_def_cfa_offset 4
 524 001e BD46     		mov	sp, r7
 525              	.LCFI38:
 526              		.cfi_def_cfa_register 13
 527              		@ sp needed
 528 0020 5DF8047B 		ldr	r7, [sp], #4
 529              	.LCFI39:
 530              		.cfi_restore 7
 531              		.cfi_def_cfa_offset 0
 532 0024 7047     		bx	lr
 533              	.L32:
 534 0026 00BF     		.align	2
 535              	.L31:
 536 0028 14040140 		.word	1073808404
 537              		.cfi_endproc
 538              	.LFE122:
 540              		.section	.text.exti_flag_clear,"ax",%progbits
 541              		.align	1
 542              		.global	exti_flag_clear
 543              		.syntax unified
 544              		.thumb
 545              		.thumb_func
 546              		.fpu fpv4-sp-d16
 548              	exti_flag_clear:
 549              	.LFB123:
 181:C:/Users/49542/Desktop/GD32F30x_Demo_Suites_V2.0.0/GD32F30x_Demo_Suites_V2.0.0/GD32F30x_Firmware_Library/GD32F30x_standard_peripheral/Source\gd32f30x_exti.c **** 
 182:C:/Users/49542/Desktop/GD32F30x_Demo_Suites_V2.0.0/GD32F30x_Demo_Suites_V2.0.0/GD32F30x_Firmware_Library/GD32F30x_standard_peripheral/Source\gd32f30x_exti.c **** /*!
 183:C:/Users/49542/Desktop/GD32F30x_Demo_Suites_V2.0.0/GD32F30x_Demo_Suites_V2.0.0/GD32F30x_Firmware_Library/GD32F30x_standard_peripheral/Source\gd32f30x_exti.c ****     \brief      clear EXTI lines pending flag
 184:C:/Users/49542/Desktop/GD32F30x_Demo_Suites_V2.0.0/GD32F30x_Demo_Suites_V2.0.0/GD32F30x_Firmware_Library/GD32F30x_standard_peripheral/Source\gd32f30x_exti.c ****     \param[in]  linex: EXTI line number, refer to exti_line_enum
 185:C:/Users/49542/Desktop/GD32F30x_Demo_Suites_V2.0.0/GD32F30x_Demo_Suites_V2.0.0/GD32F30x_Firmware_Library/GD32F30x_standard_peripheral/Source\gd32f30x_exti.c ****                 only one parameter can be selected which is shown as below:
 186:C:/Users/49542/Desktop/GD32F30x_Demo_Suites_V2.0.0/GD32F30x_Demo_Suites_V2.0.0/GD32F30x_Firmware_Library/GD32F30x_standard_peripheral/Source\gd32f30x_exti.c ****       \arg        EXTI_x (x=0..19): EXTI line x
 187:C:/Users/49542/Desktop/GD32F30x_Demo_Suites_V2.0.0/GD32F30x_Demo_Suites_V2.0.0/GD32F30x_Firmware_Library/GD32F30x_standard_peripheral/Source\gd32f30x_exti.c ****     \param[out] none
 188:C:/Users/49542/Desktop/GD32F30x_Demo_Suites_V2.0.0/GD32F30x_Demo_Suites_V2.0.0/GD32F30x_Firmware_Library/GD32F30x_standard_peripheral/Source\gd32f30x_exti.c ****     \retval     none
 189:C:/Users/49542/Desktop/GD32F30x_Demo_Suites_V2.0.0/GD32F30x_Demo_Suites_V2.0.0/GD32F30x_Firmware_Library/GD32F30x_standard_peripheral/Source\gd32f30x_exti.c **** */
 190:C:/Users/49542/Desktop/GD32F30x_Demo_Suites_V2.0.0/GD32F30x_Demo_Suites_V2.0.0/GD32F30x_Firmware_Library/GD32F30x_standard_peripheral/Source\gd32f30x_exti.c **** void exti_flag_clear(exti_line_enum linex)
 191:C:/Users/49542/Desktop/GD32F30x_Demo_Suites_V2.0.0/GD32F30x_Demo_Suites_V2.0.0/GD32F30x_Firmware_Library/GD32F30x_standard_peripheral/Source\gd32f30x_exti.c **** {
 550              		.loc 1 191 0
 551              		.cfi_startproc
 552              		@ args = 0, pretend = 0, frame = 8
ARM GAS  C:\Users\49542\AppData\Local\Temp\ccGr6pXa.s 			page 14


 553              		@ frame_needed = 1, uses_anonymous_args = 0
 554              		@ link register save eliminated.
 555 0000 80B4     		push	{r7}
 556              	.LCFI40:
 557              		.cfi_def_cfa_offset 4
 558              		.cfi_offset 7, -4
 559 0002 83B0     		sub	sp, sp, #12
 560              	.LCFI41:
 561              		.cfi_def_cfa_offset 16
 562 0004 00AF     		add	r7, sp, #0
 563              	.LCFI42:
 564              		.cfi_def_cfa_register 7
 565 0006 7860     		str	r0, [r7, #4]
 192:C:/Users/49542/Desktop/GD32F30x_Demo_Suites_V2.0.0/GD32F30x_Demo_Suites_V2.0.0/GD32F30x_Firmware_Library/GD32F30x_standard_peripheral/Source\gd32f30x_exti.c ****     EXTI_PD = (uint32_t)linex;
 566              		.loc 1 192 0
 567 0008 044A     		ldr	r2, .L34
 568 000a 7B68     		ldr	r3, [r7, #4]
 569 000c 1360     		str	r3, [r2]
 193:C:/Users/49542/Desktop/GD32F30x_Demo_Suites_V2.0.0/GD32F30x_Demo_Suites_V2.0.0/GD32F30x_Firmware_Library/GD32F30x_standard_peripheral/Source\gd32f30x_exti.c **** }
 570              		.loc 1 193 0
 571 000e 00BF     		nop
 572 0010 0C37     		adds	r7, r7, #12
 573              	.LCFI43:
 574              		.cfi_def_cfa_offset 4
 575 0012 BD46     		mov	sp, r7
 576              	.LCFI44:
 577              		.cfi_def_cfa_register 13
 578              		@ sp needed
 579 0014 5DF8047B 		ldr	r7, [sp], #4
 580              	.LCFI45:
 581              		.cfi_restore 7
 582              		.cfi_def_cfa_offset 0
 583 0018 7047     		bx	lr
 584              	.L35:
 585 001a 00BF     		.align	2
 586              	.L34:
 587 001c 14040140 		.word	1073808404
 588              		.cfi_endproc
 589              	.LFE123:
 591              		.section	.text.exti_interrupt_flag_get,"ax",%progbits
 592              		.align	1
 593              		.global	exti_interrupt_flag_get
 594              		.syntax unified
 595              		.thumb
 596              		.thumb_func
 597              		.fpu fpv4-sp-d16
 599              	exti_interrupt_flag_get:
 600              	.LFB124:
 194:C:/Users/49542/Desktop/GD32F30x_Demo_Suites_V2.0.0/GD32F30x_Demo_Suites_V2.0.0/GD32F30x_Firmware_Library/GD32F30x_standard_peripheral/Source\gd32f30x_exti.c **** 
 195:C:/Users/49542/Desktop/GD32F30x_Demo_Suites_V2.0.0/GD32F30x_Demo_Suites_V2.0.0/GD32F30x_Firmware_Library/GD32F30x_standard_peripheral/Source\gd32f30x_exti.c **** /*!
 196:C:/Users/49542/Desktop/GD32F30x_Demo_Suites_V2.0.0/GD32F30x_Demo_Suites_V2.0.0/GD32F30x_Firmware_Library/GD32F30x_standard_peripheral/Source\gd32f30x_exti.c ****     \brief      get EXTI lines flag when the interrupt flag is set
 197:C:/Users/49542/Desktop/GD32F30x_Demo_Suites_V2.0.0/GD32F30x_Demo_Suites_V2.0.0/GD32F30x_Firmware_Library/GD32F30x_standard_peripheral/Source\gd32f30x_exti.c ****     \param[in]  linex: EXTI line number, refer to exti_line_enum
 198:C:/Users/49542/Desktop/GD32F30x_Demo_Suites_V2.0.0/GD32F30x_Demo_Suites_V2.0.0/GD32F30x_Firmware_Library/GD32F30x_standard_peripheral/Source\gd32f30x_exti.c ****                 only one parameter can be selected which is shown as below:
 199:C:/Users/49542/Desktop/GD32F30x_Demo_Suites_V2.0.0/GD32F30x_Demo_Suites_V2.0.0/GD32F30x_Firmware_Library/GD32F30x_standard_peripheral/Source\gd32f30x_exti.c ****       \arg        EXTI_x (x=0..19): EXTI line x
 200:C:/Users/49542/Desktop/GD32F30x_Demo_Suites_V2.0.0/GD32F30x_Demo_Suites_V2.0.0/GD32F30x_Firmware_Library/GD32F30x_standard_peripheral/Source\gd32f30x_exti.c ****     \param[out] none
 201:C:/Users/49542/Desktop/GD32F30x_Demo_Suites_V2.0.0/GD32F30x_Demo_Suites_V2.0.0/GD32F30x_Firmware_Library/GD32F30x_standard_peripheral/Source\gd32f30x_exti.c ****     \retval     FlagStatus: status of flag (RESET or SET)
 202:C:/Users/49542/Desktop/GD32F30x_Demo_Suites_V2.0.0/GD32F30x_Demo_Suites_V2.0.0/GD32F30x_Firmware_Library/GD32F30x_standard_peripheral/Source\gd32f30x_exti.c **** */
ARM GAS  C:\Users\49542\AppData\Local\Temp\ccGr6pXa.s 			page 15


 203:C:/Users/49542/Desktop/GD32F30x_Demo_Suites_V2.0.0/GD32F30x_Demo_Suites_V2.0.0/GD32F30x_Firmware_Library/GD32F30x_standard_peripheral/Source\gd32f30x_exti.c **** FlagStatus exti_interrupt_flag_get(exti_line_enum linex)
 204:C:/Users/49542/Desktop/GD32F30x_Demo_Suites_V2.0.0/GD32F30x_Demo_Suites_V2.0.0/GD32F30x_Firmware_Library/GD32F30x_standard_peripheral/Source\gd32f30x_exti.c **** {
 601              		.loc 1 204 0
 602              		.cfi_startproc
 603              		@ args = 0, pretend = 0, frame = 16
 604              		@ frame_needed = 1, uses_anonymous_args = 0
 605              		@ link register save eliminated.
 606 0000 80B4     		push	{r7}
 607              	.LCFI46:
 608              		.cfi_def_cfa_offset 4
 609              		.cfi_offset 7, -4
 610 0002 85B0     		sub	sp, sp, #20
 611              	.LCFI47:
 612              		.cfi_def_cfa_offset 24
 613 0004 00AF     		add	r7, sp, #0
 614              	.LCFI48:
 615              		.cfi_def_cfa_register 7
 616 0006 7860     		str	r0, [r7, #4]
 205:C:/Users/49542/Desktop/GD32F30x_Demo_Suites_V2.0.0/GD32F30x_Demo_Suites_V2.0.0/GD32F30x_Firmware_Library/GD32F30x_standard_peripheral/Source\gd32f30x_exti.c ****     uint32_t flag_left, flag_right;
 206:C:/Users/49542/Desktop/GD32F30x_Demo_Suites_V2.0.0/GD32F30x_Demo_Suites_V2.0.0/GD32F30x_Firmware_Library/GD32F30x_standard_peripheral/Source\gd32f30x_exti.c ****     
 207:C:/Users/49542/Desktop/GD32F30x_Demo_Suites_V2.0.0/GD32F30x_Demo_Suites_V2.0.0/GD32F30x_Firmware_Library/GD32F30x_standard_peripheral/Source\gd32f30x_exti.c ****     flag_left = EXTI_PD & (uint32_t)linex;
 617              		.loc 1 207 0
 618 0008 0C4B     		ldr	r3, .L39
 619 000a 1B68     		ldr	r3, [r3]
 620 000c 7A68     		ldr	r2, [r7, #4]
 621 000e 1340     		ands	r3, r3, r2
 622 0010 FB60     		str	r3, [r7, #12]
 208:C:/Users/49542/Desktop/GD32F30x_Demo_Suites_V2.0.0/GD32F30x_Demo_Suites_V2.0.0/GD32F30x_Firmware_Library/GD32F30x_standard_peripheral/Source\gd32f30x_exti.c ****     flag_right = EXTI_INTEN & (uint32_t)linex;
 623              		.loc 1 208 0
 624 0012 0B4B     		ldr	r3, .L39+4
 625 0014 1B68     		ldr	r3, [r3]
 626 0016 7A68     		ldr	r2, [r7, #4]
 627 0018 1340     		ands	r3, r3, r2
 628 001a BB60     		str	r3, [r7, #8]
 209:C:/Users/49542/Desktop/GD32F30x_Demo_Suites_V2.0.0/GD32F30x_Demo_Suites_V2.0.0/GD32F30x_Firmware_Library/GD32F30x_standard_peripheral/Source\gd32f30x_exti.c ****     
 210:C:/Users/49542/Desktop/GD32F30x_Demo_Suites_V2.0.0/GD32F30x_Demo_Suites_V2.0.0/GD32F30x_Firmware_Library/GD32F30x_standard_peripheral/Source\gd32f30x_exti.c ****     if((RESET != flag_left) && (RESET != flag_right)){
 629              		.loc 1 210 0
 630 001c FB68     		ldr	r3, [r7, #12]
 631 001e 002B     		cmp	r3, #0
 632 0020 04D0     		beq	.L37
 633              		.loc 1 210 0 is_stmt 0 discriminator 1
 634 0022 BB68     		ldr	r3, [r7, #8]
 635 0024 002B     		cmp	r3, #0
 636 0026 01D0     		beq	.L37
 211:C:/Users/49542/Desktop/GD32F30x_Demo_Suites_V2.0.0/GD32F30x_Demo_Suites_V2.0.0/GD32F30x_Firmware_Library/GD32F30x_standard_peripheral/Source\gd32f30x_exti.c ****         return SET;
 637              		.loc 1 211 0 is_stmt 1
 638 0028 0123     		movs	r3, #1
 639 002a 00E0     		b	.L38
 640              	.L37:
 212:C:/Users/49542/Desktop/GD32F30x_Demo_Suites_V2.0.0/GD32F30x_Demo_Suites_V2.0.0/GD32F30x_Firmware_Library/GD32F30x_standard_peripheral/Source\gd32f30x_exti.c ****     }else{
 213:C:/Users/49542/Desktop/GD32F30x_Demo_Suites_V2.0.0/GD32F30x_Demo_Suites_V2.0.0/GD32F30x_Firmware_Library/GD32F30x_standard_peripheral/Source\gd32f30x_exti.c ****         return RESET;
 641              		.loc 1 213 0
 642 002c 0023     		movs	r3, #0
 643              	.L38:
 214:C:/Users/49542/Desktop/GD32F30x_Demo_Suites_V2.0.0/GD32F30x_Demo_Suites_V2.0.0/GD32F30x_Firmware_Library/GD32F30x_standard_peripheral/Source\gd32f30x_exti.c ****     }
 215:C:/Users/49542/Desktop/GD32F30x_Demo_Suites_V2.0.0/GD32F30x_Demo_Suites_V2.0.0/GD32F30x_Firmware_Library/GD32F30x_standard_peripheral/Source\gd32f30x_exti.c **** }
 644              		.loc 1 215 0
ARM GAS  C:\Users\49542\AppData\Local\Temp\ccGr6pXa.s 			page 16


 645 002e 1846     		mov	r0, r3
 646 0030 1437     		adds	r7, r7, #20
 647              	.LCFI49:
 648              		.cfi_def_cfa_offset 4
 649 0032 BD46     		mov	sp, r7
 650              	.LCFI50:
 651              		.cfi_def_cfa_register 13
 652              		@ sp needed
 653 0034 5DF8047B 		ldr	r7, [sp], #4
 654              	.LCFI51:
 655              		.cfi_restore 7
 656              		.cfi_def_cfa_offset 0
 657 0038 7047     		bx	lr
 658              	.L40:
 659 003a 00BF     		.align	2
 660              	.L39:
 661 003c 14040140 		.word	1073808404
 662 0040 00040140 		.word	1073808384
 663              		.cfi_endproc
 664              	.LFE124:
 666              		.section	.text.exti_interrupt_flag_clear,"ax",%progbits
 667              		.align	1
 668              		.global	exti_interrupt_flag_clear
 669              		.syntax unified
 670              		.thumb
 671              		.thumb_func
 672              		.fpu fpv4-sp-d16
 674              	exti_interrupt_flag_clear:
 675              	.LFB125:
 216:C:/Users/49542/Desktop/GD32F30x_Demo_Suites_V2.0.0/GD32F30x_Demo_Suites_V2.0.0/GD32F30x_Firmware_Library/GD32F30x_standard_peripheral/Source\gd32f30x_exti.c **** 
 217:C:/Users/49542/Desktop/GD32F30x_Demo_Suites_V2.0.0/GD32F30x_Demo_Suites_V2.0.0/GD32F30x_Firmware_Library/GD32F30x_standard_peripheral/Source\gd32f30x_exti.c **** /*!
 218:C:/Users/49542/Desktop/GD32F30x_Demo_Suites_V2.0.0/GD32F30x_Demo_Suites_V2.0.0/GD32F30x_Firmware_Library/GD32F30x_standard_peripheral/Source\gd32f30x_exti.c ****     \brief      clear EXTI lines pending flag
 219:C:/Users/49542/Desktop/GD32F30x_Demo_Suites_V2.0.0/GD32F30x_Demo_Suites_V2.0.0/GD32F30x_Firmware_Library/GD32F30x_standard_peripheral/Source\gd32f30x_exti.c ****     \param[in]  linex: EXTI line number, refer to exti_line_enum
 220:C:/Users/49542/Desktop/GD32F30x_Demo_Suites_V2.0.0/GD32F30x_Demo_Suites_V2.0.0/GD32F30x_Firmware_Library/GD32F30x_standard_peripheral/Source\gd32f30x_exti.c ****                 only one parameter can be selected which is shown as below:
 221:C:/Users/49542/Desktop/GD32F30x_Demo_Suites_V2.0.0/GD32F30x_Demo_Suites_V2.0.0/GD32F30x_Firmware_Library/GD32F30x_standard_peripheral/Source\gd32f30x_exti.c ****       \arg        EXTI_x (x=0..19): EXTI line x
 222:C:/Users/49542/Desktop/GD32F30x_Demo_Suites_V2.0.0/GD32F30x_Demo_Suites_V2.0.0/GD32F30x_Firmware_Library/GD32F30x_standard_peripheral/Source\gd32f30x_exti.c ****     \param[out] none
 223:C:/Users/49542/Desktop/GD32F30x_Demo_Suites_V2.0.0/GD32F30x_Demo_Suites_V2.0.0/GD32F30x_Firmware_Library/GD32F30x_standard_peripheral/Source\gd32f30x_exti.c ****     \retval     none
 224:C:/Users/49542/Desktop/GD32F30x_Demo_Suites_V2.0.0/GD32F30x_Demo_Suites_V2.0.0/GD32F30x_Firmware_Library/GD32F30x_standard_peripheral/Source\gd32f30x_exti.c **** */
 225:C:/Users/49542/Desktop/GD32F30x_Demo_Suites_V2.0.0/GD32F30x_Demo_Suites_V2.0.0/GD32F30x_Firmware_Library/GD32F30x_standard_peripheral/Source\gd32f30x_exti.c **** void exti_interrupt_flag_clear(exti_line_enum linex)
 226:C:/Users/49542/Desktop/GD32F30x_Demo_Suites_V2.0.0/GD32F30x_Demo_Suites_V2.0.0/GD32F30x_Firmware_Library/GD32F30x_standard_peripheral/Source\gd32f30x_exti.c **** {
 676              		.loc 1 226 0
 677              		.cfi_startproc
 678              		@ args = 0, pretend = 0, frame = 8
 679              		@ frame_needed = 1, uses_anonymous_args = 0
 680              		@ link register save eliminated.
 681 0000 80B4     		push	{r7}
 682              	.LCFI52:
 683              		.cfi_def_cfa_offset 4
 684              		.cfi_offset 7, -4
 685 0002 83B0     		sub	sp, sp, #12
 686              	.LCFI53:
 687              		.cfi_def_cfa_offset 16
 688 0004 00AF     		add	r7, sp, #0
 689              	.LCFI54:
 690              		.cfi_def_cfa_register 7
 691 0006 7860     		str	r0, [r7, #4]
 227:C:/Users/49542/Desktop/GD32F30x_Demo_Suites_V2.0.0/GD32F30x_Demo_Suites_V2.0.0/GD32F30x_Firmware_Library/GD32F30x_standard_peripheral/Source\gd32f30x_exti.c ****     EXTI_PD = (uint32_t)linex;
ARM GAS  C:\Users\49542\AppData\Local\Temp\ccGr6pXa.s 			page 17


 692              		.loc 1 227 0
 693 0008 044A     		ldr	r2, .L42
 694 000a 7B68     		ldr	r3, [r7, #4]
 695 000c 1360     		str	r3, [r2]
 228:C:/Users/49542/Desktop/GD32F30x_Demo_Suites_V2.0.0/GD32F30x_Demo_Suites_V2.0.0/GD32F30x_Firmware_Library/GD32F30x_standard_peripheral/Source\gd32f30x_exti.c **** }
 696              		.loc 1 228 0
 697 000e 00BF     		nop
 698 0010 0C37     		adds	r7, r7, #12
 699              	.LCFI55:
 700              		.cfi_def_cfa_offset 4
 701 0012 BD46     		mov	sp, r7
 702              	.LCFI56:
 703              		.cfi_def_cfa_register 13
 704              		@ sp needed
 705 0014 5DF8047B 		ldr	r7, [sp], #4
 706              	.LCFI57:
 707              		.cfi_restore 7
 708              		.cfi_def_cfa_offset 0
 709 0018 7047     		bx	lr
 710              	.L43:
 711 001a 00BF     		.align	2
 712              	.L42:
 713 001c 14040140 		.word	1073808404
 714              		.cfi_endproc
 715              	.LFE125:
 717              		.section	.text.exti_software_interrupt_enable,"ax",%progbits
 718              		.align	1
 719              		.global	exti_software_interrupt_enable
 720              		.syntax unified
 721              		.thumb
 722              		.thumb_func
 723              		.fpu fpv4-sp-d16
 725              	exti_software_interrupt_enable:
 726              	.LFB126:
 229:C:/Users/49542/Desktop/GD32F30x_Demo_Suites_V2.0.0/GD32F30x_Demo_Suites_V2.0.0/GD32F30x_Firmware_Library/GD32F30x_standard_peripheral/Source\gd32f30x_exti.c **** 
 230:C:/Users/49542/Desktop/GD32F30x_Demo_Suites_V2.0.0/GD32F30x_Demo_Suites_V2.0.0/GD32F30x_Firmware_Library/GD32F30x_standard_peripheral/Source\gd32f30x_exti.c **** /*!
 231:C:/Users/49542/Desktop/GD32F30x_Demo_Suites_V2.0.0/GD32F30x_Demo_Suites_V2.0.0/GD32F30x_Firmware_Library/GD32F30x_standard_peripheral/Source\gd32f30x_exti.c ****     \brief      enable EXTI software interrupt event
 232:C:/Users/49542/Desktop/GD32F30x_Demo_Suites_V2.0.0/GD32F30x_Demo_Suites_V2.0.0/GD32F30x_Firmware_Library/GD32F30x_standard_peripheral/Source\gd32f30x_exti.c ****     \param[in]  linex: EXTI line number, refer to exti_line_enum
 233:C:/Users/49542/Desktop/GD32F30x_Demo_Suites_V2.0.0/GD32F30x_Demo_Suites_V2.0.0/GD32F30x_Firmware_Library/GD32F30x_standard_peripheral/Source\gd32f30x_exti.c ****                 only one parameter can be selected which is shown as below:
 234:C:/Users/49542/Desktop/GD32F30x_Demo_Suites_V2.0.0/GD32F30x_Demo_Suites_V2.0.0/GD32F30x_Firmware_Library/GD32F30x_standard_peripheral/Source\gd32f30x_exti.c ****       \arg        EXTI_x (x=0..19): EXTI line x
 235:C:/Users/49542/Desktop/GD32F30x_Demo_Suites_V2.0.0/GD32F30x_Demo_Suites_V2.0.0/GD32F30x_Firmware_Library/GD32F30x_standard_peripheral/Source\gd32f30x_exti.c ****     \param[out] none
 236:C:/Users/49542/Desktop/GD32F30x_Demo_Suites_V2.0.0/GD32F30x_Demo_Suites_V2.0.0/GD32F30x_Firmware_Library/GD32F30x_standard_peripheral/Source\gd32f30x_exti.c ****     \retval     none
 237:C:/Users/49542/Desktop/GD32F30x_Demo_Suites_V2.0.0/GD32F30x_Demo_Suites_V2.0.0/GD32F30x_Firmware_Library/GD32F30x_standard_peripheral/Source\gd32f30x_exti.c **** */
 238:C:/Users/49542/Desktop/GD32F30x_Demo_Suites_V2.0.0/GD32F30x_Demo_Suites_V2.0.0/GD32F30x_Firmware_Library/GD32F30x_standard_peripheral/Source\gd32f30x_exti.c **** void exti_software_interrupt_enable(exti_line_enum linex)
 239:C:/Users/49542/Desktop/GD32F30x_Demo_Suites_V2.0.0/GD32F30x_Demo_Suites_V2.0.0/GD32F30x_Firmware_Library/GD32F30x_standard_peripheral/Source\gd32f30x_exti.c **** {
 727              		.loc 1 239 0
 728              		.cfi_startproc
 729              		@ args = 0, pretend = 0, frame = 8
 730              		@ frame_needed = 1, uses_anonymous_args = 0
 731              		@ link register save eliminated.
 732 0000 80B4     		push	{r7}
 733              	.LCFI58:
 734              		.cfi_def_cfa_offset 4
 735              		.cfi_offset 7, -4
 736 0002 83B0     		sub	sp, sp, #12
 737              	.LCFI59:
 738              		.cfi_def_cfa_offset 16
ARM GAS  C:\Users\49542\AppData\Local\Temp\ccGr6pXa.s 			page 18


 739 0004 00AF     		add	r7, sp, #0
 740              	.LCFI60:
 741              		.cfi_def_cfa_register 7
 742 0006 7860     		str	r0, [r7, #4]
 240:C:/Users/49542/Desktop/GD32F30x_Demo_Suites_V2.0.0/GD32F30x_Demo_Suites_V2.0.0/GD32F30x_Firmware_Library/GD32F30x_standard_peripheral/Source\gd32f30x_exti.c ****     EXTI_SWIEV |= (uint32_t)linex;
 743              		.loc 1 240 0
 744 0008 054B     		ldr	r3, .L45
 745 000a 1A68     		ldr	r2, [r3]
 746 000c 0449     		ldr	r1, .L45
 747 000e 7B68     		ldr	r3, [r7, #4]
 748 0010 1343     		orrs	r3, r3, r2
 749 0012 0B60     		str	r3, [r1]
 241:C:/Users/49542/Desktop/GD32F30x_Demo_Suites_V2.0.0/GD32F30x_Demo_Suites_V2.0.0/GD32F30x_Firmware_Library/GD32F30x_standard_peripheral/Source\gd32f30x_exti.c **** }
 750              		.loc 1 241 0
 751 0014 00BF     		nop
 752 0016 0C37     		adds	r7, r7, #12
 753              	.LCFI61:
 754              		.cfi_def_cfa_offset 4
 755 0018 BD46     		mov	sp, r7
 756              	.LCFI62:
 757              		.cfi_def_cfa_register 13
 758              		@ sp needed
 759 001a 5DF8047B 		ldr	r7, [sp], #4
 760              	.LCFI63:
 761              		.cfi_restore 7
 762              		.cfi_def_cfa_offset 0
 763 001e 7047     		bx	lr
 764              	.L46:
 765              		.align	2
 766              	.L45:
 767 0020 10040140 		.word	1073808400
 768              		.cfi_endproc
 769              	.LFE126:
 771              		.section	.text.exti_software_interrupt_disable,"ax",%progbits
 772              		.align	1
 773              		.global	exti_software_interrupt_disable
 774              		.syntax unified
 775              		.thumb
 776              		.thumb_func
 777              		.fpu fpv4-sp-d16
 779              	exti_software_interrupt_disable:
 780              	.LFB127:
 242:C:/Users/49542/Desktop/GD32F30x_Demo_Suites_V2.0.0/GD32F30x_Demo_Suites_V2.0.0/GD32F30x_Firmware_Library/GD32F30x_standard_peripheral/Source\gd32f30x_exti.c **** 
 243:C:/Users/49542/Desktop/GD32F30x_Demo_Suites_V2.0.0/GD32F30x_Demo_Suites_V2.0.0/GD32F30x_Firmware_Library/GD32F30x_standard_peripheral/Source\gd32f30x_exti.c **** /*!
 244:C:/Users/49542/Desktop/GD32F30x_Demo_Suites_V2.0.0/GD32F30x_Demo_Suites_V2.0.0/GD32F30x_Firmware_Library/GD32F30x_standard_peripheral/Source\gd32f30x_exti.c ****     \brief      disable EXTI software interrupt event
 245:C:/Users/49542/Desktop/GD32F30x_Demo_Suites_V2.0.0/GD32F30x_Demo_Suites_V2.0.0/GD32F30x_Firmware_Library/GD32F30x_standard_peripheral/Source\gd32f30x_exti.c ****     \param[in]  linex: EXTI line number, refer to exti_line_enum
 246:C:/Users/49542/Desktop/GD32F30x_Demo_Suites_V2.0.0/GD32F30x_Demo_Suites_V2.0.0/GD32F30x_Firmware_Library/GD32F30x_standard_peripheral/Source\gd32f30x_exti.c ****                 only one parameter can be selected which is shown as below:
 247:C:/Users/49542/Desktop/GD32F30x_Demo_Suites_V2.0.0/GD32F30x_Demo_Suites_V2.0.0/GD32F30x_Firmware_Library/GD32F30x_standard_peripheral/Source\gd32f30x_exti.c ****       \arg        EXTI_x (x=0..19): EXTI line x
 248:C:/Users/49542/Desktop/GD32F30x_Demo_Suites_V2.0.0/GD32F30x_Demo_Suites_V2.0.0/GD32F30x_Firmware_Library/GD32F30x_standard_peripheral/Source\gd32f30x_exti.c ****     \param[out] none
 249:C:/Users/49542/Desktop/GD32F30x_Demo_Suites_V2.0.0/GD32F30x_Demo_Suites_V2.0.0/GD32F30x_Firmware_Library/GD32F30x_standard_peripheral/Source\gd32f30x_exti.c ****     \retval     none
 250:C:/Users/49542/Desktop/GD32F30x_Demo_Suites_V2.0.0/GD32F30x_Demo_Suites_V2.0.0/GD32F30x_Firmware_Library/GD32F30x_standard_peripheral/Source\gd32f30x_exti.c **** */
 251:C:/Users/49542/Desktop/GD32F30x_Demo_Suites_V2.0.0/GD32F30x_Demo_Suites_V2.0.0/GD32F30x_Firmware_Library/GD32F30x_standard_peripheral/Source\gd32f30x_exti.c **** void exti_software_interrupt_disable(exti_line_enum linex)
 252:C:/Users/49542/Desktop/GD32F30x_Demo_Suites_V2.0.0/GD32F30x_Demo_Suites_V2.0.0/GD32F30x_Firmware_Library/GD32F30x_standard_peripheral/Source\gd32f30x_exti.c **** {
 781              		.loc 1 252 0
 782              		.cfi_startproc
 783              		@ args = 0, pretend = 0, frame = 8
 784              		@ frame_needed = 1, uses_anonymous_args = 0
ARM GAS  C:\Users\49542\AppData\Local\Temp\ccGr6pXa.s 			page 19


 785              		@ link register save eliminated.
 786 0000 80B4     		push	{r7}
 787              	.LCFI64:
 788              		.cfi_def_cfa_offset 4
 789              		.cfi_offset 7, -4
 790 0002 83B0     		sub	sp, sp, #12
 791              	.LCFI65:
 792              		.cfi_def_cfa_offset 16
 793 0004 00AF     		add	r7, sp, #0
 794              	.LCFI66:
 795              		.cfi_def_cfa_register 7
 796 0006 7860     		str	r0, [r7, #4]
 253:C:/Users/49542/Desktop/GD32F30x_Demo_Suites_V2.0.0/GD32F30x_Demo_Suites_V2.0.0/GD32F30x_Firmware_Library/GD32F30x_standard_peripheral/Source\gd32f30x_exti.c ****     EXTI_SWIEV &= ~(uint32_t)linex;
 797              		.loc 1 253 0
 798 0008 064B     		ldr	r3, .L48
 799 000a 1A68     		ldr	r2, [r3]
 800 000c 7B68     		ldr	r3, [r7, #4]
 801 000e DB43     		mvns	r3, r3
 802 0010 0449     		ldr	r1, .L48
 803 0012 1340     		ands	r3, r3, r2
 804 0014 0B60     		str	r3, [r1]
 254:C:/Users/49542/Desktop/GD32F30x_Demo_Suites_V2.0.0/GD32F30x_Demo_Suites_V2.0.0/GD32F30x_Firmware_Library/GD32F30x_standard_peripheral/Source\gd32f30x_exti.c **** }
 805              		.loc 1 254 0
 806 0016 00BF     		nop
 807 0018 0C37     		adds	r7, r7, #12
 808              	.LCFI67:
 809              		.cfi_def_cfa_offset 4
 810 001a BD46     		mov	sp, r7
 811              	.LCFI68:
 812              		.cfi_def_cfa_register 13
 813              		@ sp needed
 814 001c 5DF8047B 		ldr	r7, [sp], #4
 815              	.LCFI69:
 816              		.cfi_restore 7
 817              		.cfi_def_cfa_offset 0
 818 0020 7047     		bx	lr
 819              	.L49:
 820 0022 00BF     		.align	2
 821              	.L48:
 822 0024 10040140 		.word	1073808400
 823              		.cfi_endproc
 824              	.LFE127:
 826              		.text
 827              	.Letext0:
 828              		.file 2 "c:\\users\\49542\\opensourcetools\\gnu tools arm embedded\\7 2018-q2-update\\arm-none-eab
 829              		.file 3 "c:\\users\\49542\\opensourcetools\\gnu tools arm embedded\\7 2018-q2-update\\arm-none-eab
 830              		.file 4 "C:/Users/49542/Desktop/GD32F30x_Demo_Suites_V2.0.0/GD32F30x_Demo_Suites_V2.0.0/GD32F30x_F
 831              		.file 5 "C:/Users/49542/Desktop/GD32F30x_Demo_Suites_V2.0.0/GD32F30x_Demo_Suites_V2.0.0/GD32F30x_F
 832              		.file 6 "C:/Users/49542/Desktop/GD32F30x_Demo_Suites_V2.0.0/GD32F30x_Demo_Suites_V2.0.0/GD32F30x_F
 833              		.file 7 "c:\\users\\49542\\opensourcetools\\gnu tools arm embedded\\7 2018-q2-update\\arm-none-eab
 834              		.file 8 "c:\\users\\49542\\opensourcetools\\gnu tools arm embedded\\7 2018-q2-update\\arm-none-eab
 835              		.file 9 "c:\\users\\49542\\opensourcetools\\gnu tools arm embedded\\7 2018-q2-update\\lib\\gcc\\ar
 836              		.file 10 "c:\\users\\49542\\opensourcetools\\gnu tools arm embedded\\7 2018-q2-update\\arm-none-ea
 837              		.file 11 "c:\\users\\49542\\opensourcetools\\gnu tools arm embedded\\7 2018-q2-update\\arm-none-ea
 838              		.file 12 "C:/Users/49542/Desktop/GD32F30x_Demo_Suites_V2.0.0/GD32F30x_Demo_Suites_V2.0.0/GD32F30x_
ARM GAS  C:\Users\49542\AppData\Local\Temp\ccGr6pXa.s 			page 20

