ARM GAS  C:\Users\49542\AppData\Local\Temp\ccsS4UGm.s 			page 1


   1              		.cpu cortex-m4
   2              		.eabi_attribute 27, 1
   3              		.eabi_attribute 28, 1
   4              		.eabi_attribute 20, 1
   5              		.eabi_attribute 21, 1
   6              		.eabi_attribute 23, 3
   7              		.eabi_attribute 24, 1
   8              		.eabi_attribute 25, 1
   9              		.eabi_attribute 26, 1
  10              		.eabi_attribute 30, 6
  11              		.eabi_attribute 34, 1
  12              		.eabi_attribute 18, 4
  13              		.file	"gd32f30x_bkp.c"
  14              		.text
  15              	.Ltext0:
  16              		.cfi_sections	.debug_frame
  17              		.section	.text.bkp_deinit,"ax",%progbits
  18              		.align	1
  19              		.global	bkp_deinit
  20              		.syntax unified
  21              		.thumb
  22              		.thumb_func
  23              		.fpu fpv4-sp-d16
  25              	bkp_deinit:
  26              	.LFB116:
  27              		.file 1 "C:/Users/49542/Desktop/GD32F30x_Demo_Suites_V2.0.0/GD32F30x_Demo_Suites_V2.0.0/GD32F30x_F
   1:C:/Users/49542/Desktop/GD32F30x_Demo_Suites_V2.0.0/GD32F30x_Demo_Suites_V2.0.0/GD32F30x_Firmware_Library/GD32F30x_standard_peripheral/Source\gd32f30x_bkp.c **** /*!
   2:C:/Users/49542/Desktop/GD32F30x_Demo_Suites_V2.0.0/GD32F30x_Demo_Suites_V2.0.0/GD32F30x_Firmware_Library/GD32F30x_standard_peripheral/Source\gd32f30x_bkp.c ****     \file  gd32f30x_bkp.c
   3:C:/Users/49542/Desktop/GD32F30x_Demo_Suites_V2.0.0/GD32F30x_Demo_Suites_V2.0.0/GD32F30x_Firmware_Library/GD32F30x_standard_peripheral/Source\gd32f30x_bkp.c ****     \brief BKP driver
   4:C:/Users/49542/Desktop/GD32F30x_Demo_Suites_V2.0.0/GD32F30x_Demo_Suites_V2.0.0/GD32F30x_Firmware_Library/GD32F30x_standard_peripheral/Source\gd32f30x_bkp.c **** 
   5:C:/Users/49542/Desktop/GD32F30x_Demo_Suites_V2.0.0/GD32F30x_Demo_Suites_V2.0.0/GD32F30x_Firmware_Library/GD32F30x_standard_peripheral/Source\gd32f30x_bkp.c ****     \version 2017-02-10, V1.0.0, firmware for GD32F30x
   6:C:/Users/49542/Desktop/GD32F30x_Demo_Suites_V2.0.0/GD32F30x_Demo_Suites_V2.0.0/GD32F30x_Firmware_Library/GD32F30x_standard_peripheral/Source\gd32f30x_bkp.c ****     \version 2018-10-10, V1.1.0, firmware for GD32F30x
   7:C:/Users/49542/Desktop/GD32F30x_Demo_Suites_V2.0.0/GD32F30x_Demo_Suites_V2.0.0/GD32F30x_Firmware_Library/GD32F30x_standard_peripheral/Source\gd32f30x_bkp.c ****     \version 2018-12-25, V2.0.0, firmware for GD32F30x
   8:C:/Users/49542/Desktop/GD32F30x_Demo_Suites_V2.0.0/GD32F30x_Demo_Suites_V2.0.0/GD32F30x_Firmware_Library/GD32F30x_standard_peripheral/Source\gd32f30x_bkp.c **** */
   9:C:/Users/49542/Desktop/GD32F30x_Demo_Suites_V2.0.0/GD32F30x_Demo_Suites_V2.0.0/GD32F30x_Firmware_Library/GD32F30x_standard_peripheral/Source\gd32f30x_bkp.c **** 
  10:C:/Users/49542/Desktop/GD32F30x_Demo_Suites_V2.0.0/GD32F30x_Demo_Suites_V2.0.0/GD32F30x_Firmware_Library/GD32F30x_standard_peripheral/Source\gd32f30x_bkp.c **** /*
  11:C:/Users/49542/Desktop/GD32F30x_Demo_Suites_V2.0.0/GD32F30x_Demo_Suites_V2.0.0/GD32F30x_Firmware_Library/GD32F30x_standard_peripheral/Source\gd32f30x_bkp.c ****     Copyright (c) 2018, GigaDevice Semiconductor Inc.
  12:C:/Users/49542/Desktop/GD32F30x_Demo_Suites_V2.0.0/GD32F30x_Demo_Suites_V2.0.0/GD32F30x_Firmware_Library/GD32F30x_standard_peripheral/Source\gd32f30x_bkp.c **** 
  13:C:/Users/49542/Desktop/GD32F30x_Demo_Suites_V2.0.0/GD32F30x_Demo_Suites_V2.0.0/GD32F30x_Firmware_Library/GD32F30x_standard_peripheral/Source\gd32f30x_bkp.c ****     All rights reserved.
  14:C:/Users/49542/Desktop/GD32F30x_Demo_Suites_V2.0.0/GD32F30x_Demo_Suites_V2.0.0/GD32F30x_Firmware_Library/GD32F30x_standard_peripheral/Source\gd32f30x_bkp.c **** 
  15:C:/Users/49542/Desktop/GD32F30x_Demo_Suites_V2.0.0/GD32F30x_Demo_Suites_V2.0.0/GD32F30x_Firmware_Library/GD32F30x_standard_peripheral/Source\gd32f30x_bkp.c ****     Redistribution and use in source and binary forms, with or without modification, 
  16:C:/Users/49542/Desktop/GD32F30x_Demo_Suites_V2.0.0/GD32F30x_Demo_Suites_V2.0.0/GD32F30x_Firmware_Library/GD32F30x_standard_peripheral/Source\gd32f30x_bkp.c **** are permitted provided that the following conditions are met:
  17:C:/Users/49542/Desktop/GD32F30x_Demo_Suites_V2.0.0/GD32F30x_Demo_Suites_V2.0.0/GD32F30x_Firmware_Library/GD32F30x_standard_peripheral/Source\gd32f30x_bkp.c **** 
  18:C:/Users/49542/Desktop/GD32F30x_Demo_Suites_V2.0.0/GD32F30x_Demo_Suites_V2.0.0/GD32F30x_Firmware_Library/GD32F30x_standard_peripheral/Source\gd32f30x_bkp.c ****     1. Redistributions of source code must retain the above copyright notice, this 
  19:C:/Users/49542/Desktop/GD32F30x_Demo_Suites_V2.0.0/GD32F30x_Demo_Suites_V2.0.0/GD32F30x_Firmware_Library/GD32F30x_standard_peripheral/Source\gd32f30x_bkp.c ****        list of conditions and the following disclaimer.
  20:C:/Users/49542/Desktop/GD32F30x_Demo_Suites_V2.0.0/GD32F30x_Demo_Suites_V2.0.0/GD32F30x_Firmware_Library/GD32F30x_standard_peripheral/Source\gd32f30x_bkp.c ****     2. Redistributions in binary form must reproduce the above copyright notice, 
  21:C:/Users/49542/Desktop/GD32F30x_Demo_Suites_V2.0.0/GD32F30x_Demo_Suites_V2.0.0/GD32F30x_Firmware_Library/GD32F30x_standard_peripheral/Source\gd32f30x_bkp.c ****        this list of conditions and the following disclaimer in the documentation 
  22:C:/Users/49542/Desktop/GD32F30x_Demo_Suites_V2.0.0/GD32F30x_Demo_Suites_V2.0.0/GD32F30x_Firmware_Library/GD32F30x_standard_peripheral/Source\gd32f30x_bkp.c ****        and/or other materials provided with the distribution.
  23:C:/Users/49542/Desktop/GD32F30x_Demo_Suites_V2.0.0/GD32F30x_Demo_Suites_V2.0.0/GD32F30x_Firmware_Library/GD32F30x_standard_peripheral/Source\gd32f30x_bkp.c ****     3. Neither the name of the copyright holder nor the names of its contributors 
  24:C:/Users/49542/Desktop/GD32F30x_Demo_Suites_V2.0.0/GD32F30x_Demo_Suites_V2.0.0/GD32F30x_Firmware_Library/GD32F30x_standard_peripheral/Source\gd32f30x_bkp.c ****        may be used to endorse or promote products derived from this software without 
  25:C:/Users/49542/Desktop/GD32F30x_Demo_Suites_V2.0.0/GD32F30x_Demo_Suites_V2.0.0/GD32F30x_Firmware_Library/GD32F30x_standard_peripheral/Source\gd32f30x_bkp.c ****        specific prior written permission.
  26:C:/Users/49542/Desktop/GD32F30x_Demo_Suites_V2.0.0/GD32F30x_Demo_Suites_V2.0.0/GD32F30x_Firmware_Library/GD32F30x_standard_peripheral/Source\gd32f30x_bkp.c **** 
  27:C:/Users/49542/Desktop/GD32F30x_Demo_Suites_V2.0.0/GD32F30x_Demo_Suites_V2.0.0/GD32F30x_Firmware_Library/GD32F30x_standard_peripheral/Source\gd32f30x_bkp.c ****     THIS SOFTWARE IS PROVIDED BY THE COPYRIGHT HOLDERS AND CONTRIBUTORS "AS IS" 
  28:C:/Users/49542/Desktop/GD32F30x_Demo_Suites_V2.0.0/GD32F30x_Demo_Suites_V2.0.0/GD32F30x_Firmware_Library/GD32F30x_standard_peripheral/Source\gd32f30x_bkp.c **** AND ANY EXPRESS OR IMPLIED WARRANTIES, INCLUDING, BUT NOT LIMITED TO, THE IMPLIED 
  29:C:/Users/49542/Desktop/GD32F30x_Demo_Suites_V2.0.0/GD32F30x_Demo_Suites_V2.0.0/GD32F30x_Firmware_Library/GD32F30x_standard_peripheral/Source\gd32f30x_bkp.c **** WARRANTIES OF MERCHANTABILITY AND FITNESS FOR A PARTICULAR PURPOSE ARE DISCLAIMED. 
  30:C:/Users/49542/Desktop/GD32F30x_Demo_Suites_V2.0.0/GD32F30x_Demo_Suites_V2.0.0/GD32F30x_Firmware_Library/GD32F30x_standard_peripheral/Source\gd32f30x_bkp.c **** IN NO EVENT SHALL THE COPYRIGHT HOLDER OR CONTRIBUTORS BE LIABLE FOR ANY DIRECT, 
  31:C:/Users/49542/Desktop/GD32F30x_Demo_Suites_V2.0.0/GD32F30x_Demo_Suites_V2.0.0/GD32F30x_Firmware_Library/GD32F30x_standard_peripheral/Source\gd32f30x_bkp.c **** INDIRECT, INCIDENTAL, SPECIAL, EXEMPLARY, OR CONSEQUENTIAL DAMAGES (INCLUDING, BUT 
ARM GAS  C:\Users\49542\AppData\Local\Temp\ccsS4UGm.s 			page 2


  32:C:/Users/49542/Desktop/GD32F30x_Demo_Suites_V2.0.0/GD32F30x_Demo_Suites_V2.0.0/GD32F30x_Firmware_Library/GD32F30x_standard_peripheral/Source\gd32f30x_bkp.c **** NOT LIMITED TO, PROCUREMENT OF SUBSTITUTE GOODS OR SERVICES; LOSS OF USE, DATA, OR 
  33:C:/Users/49542/Desktop/GD32F30x_Demo_Suites_V2.0.0/GD32F30x_Demo_Suites_V2.0.0/GD32F30x_Firmware_Library/GD32F30x_standard_peripheral/Source\gd32f30x_bkp.c **** PROFITS; OR BUSINESS INTERRUPTION) HOWEVER CAUSED AND ON ANY THEORY OF LIABILITY, 
  34:C:/Users/49542/Desktop/GD32F30x_Demo_Suites_V2.0.0/GD32F30x_Demo_Suites_V2.0.0/GD32F30x_Firmware_Library/GD32F30x_standard_peripheral/Source\gd32f30x_bkp.c **** WHETHER IN CONTRACT, STRICT LIABILITY, OR TORT (INCLUDING NEGLIGENCE OR OTHERWISE) 
  35:C:/Users/49542/Desktop/GD32F30x_Demo_Suites_V2.0.0/GD32F30x_Demo_Suites_V2.0.0/GD32F30x_Firmware_Library/GD32F30x_standard_peripheral/Source\gd32f30x_bkp.c **** ARISING IN ANY WAY OUT OF THE USE OF THIS SOFTWARE, EVEN IF ADVISED OF THE POSSIBILITY 
  36:C:/Users/49542/Desktop/GD32F30x_Demo_Suites_V2.0.0/GD32F30x_Demo_Suites_V2.0.0/GD32F30x_Firmware_Library/GD32F30x_standard_peripheral/Source\gd32f30x_bkp.c **** OF SUCH DAMAGE.
  37:C:/Users/49542/Desktop/GD32F30x_Demo_Suites_V2.0.0/GD32F30x_Demo_Suites_V2.0.0/GD32F30x_Firmware_Library/GD32F30x_standard_peripheral/Source\gd32f30x_bkp.c **** */
  38:C:/Users/49542/Desktop/GD32F30x_Demo_Suites_V2.0.0/GD32F30x_Demo_Suites_V2.0.0/GD32F30x_Firmware_Library/GD32F30x_standard_peripheral/Source\gd32f30x_bkp.c **** 
  39:C:/Users/49542/Desktop/GD32F30x_Demo_Suites_V2.0.0/GD32F30x_Demo_Suites_V2.0.0/GD32F30x_Firmware_Library/GD32F30x_standard_peripheral/Source\gd32f30x_bkp.c **** #include "gd32f30x_bkp.h"
  40:C:/Users/49542/Desktop/GD32F30x_Demo_Suites_V2.0.0/GD32F30x_Demo_Suites_V2.0.0/GD32F30x_Firmware_Library/GD32F30x_standard_peripheral/Source\gd32f30x_bkp.c **** 
  41:C:/Users/49542/Desktop/GD32F30x_Demo_Suites_V2.0.0/GD32F30x_Demo_Suites_V2.0.0/GD32F30x_Firmware_Library/GD32F30x_standard_peripheral/Source\gd32f30x_bkp.c **** #define TAMPER_FLAG_SHIFT          ((uint8_t)8U)
  42:C:/Users/49542/Desktop/GD32F30x_Demo_Suites_V2.0.0/GD32F30x_Demo_Suites_V2.0.0/GD32F30x_Firmware_Library/GD32F30x_standard_peripheral/Source\gd32f30x_bkp.c **** 
  43:C:/Users/49542/Desktop/GD32F30x_Demo_Suites_V2.0.0/GD32F30x_Demo_Suites_V2.0.0/GD32F30x_Firmware_Library/GD32F30x_standard_peripheral/Source\gd32f30x_bkp.c **** /*!
  44:C:/Users/49542/Desktop/GD32F30x_Demo_Suites_V2.0.0/GD32F30x_Demo_Suites_V2.0.0/GD32F30x_Firmware_Library/GD32F30x_standard_peripheral/Source\gd32f30x_bkp.c ****     \brief      reset BKP registers
  45:C:/Users/49542/Desktop/GD32F30x_Demo_Suites_V2.0.0/GD32F30x_Demo_Suites_V2.0.0/GD32F30x_Firmware_Library/GD32F30x_standard_peripheral/Source\gd32f30x_bkp.c ****     \param[in]  none
  46:C:/Users/49542/Desktop/GD32F30x_Demo_Suites_V2.0.0/GD32F30x_Demo_Suites_V2.0.0/GD32F30x_Firmware_Library/GD32F30x_standard_peripheral/Source\gd32f30x_bkp.c ****     \param[out] none
  47:C:/Users/49542/Desktop/GD32F30x_Demo_Suites_V2.0.0/GD32F30x_Demo_Suites_V2.0.0/GD32F30x_Firmware_Library/GD32F30x_standard_peripheral/Source\gd32f30x_bkp.c ****     \retval     none
  48:C:/Users/49542/Desktop/GD32F30x_Demo_Suites_V2.0.0/GD32F30x_Demo_Suites_V2.0.0/GD32F30x_Firmware_Library/GD32F30x_standard_peripheral/Source\gd32f30x_bkp.c **** */
  49:C:/Users/49542/Desktop/GD32F30x_Demo_Suites_V2.0.0/GD32F30x_Demo_Suites_V2.0.0/GD32F30x_Firmware_Library/GD32F30x_standard_peripheral/Source\gd32f30x_bkp.c **** void bkp_deinit(void)
  50:C:/Users/49542/Desktop/GD32F30x_Demo_Suites_V2.0.0/GD32F30x_Demo_Suites_V2.0.0/GD32F30x_Firmware_Library/GD32F30x_standard_peripheral/Source\gd32f30x_bkp.c **** {
  28              		.loc 1 50 0
  29              		.cfi_startproc
  30              		@ args = 0, pretend = 0, frame = 0
  31              		@ frame_needed = 1, uses_anonymous_args = 0
  32 0000 80B5     		push	{r7, lr}
  33              	.LCFI0:
  34              		.cfi_def_cfa_offset 8
  35              		.cfi_offset 7, -8
  36              		.cfi_offset 14, -4
  37 0002 00AF     		add	r7, sp, #0
  38              	.LCFI1:
  39              		.cfi_def_cfa_register 7
  51:C:/Users/49542/Desktop/GD32F30x_Demo_Suites_V2.0.0/GD32F30x_Demo_Suites_V2.0.0/GD32F30x_Firmware_Library/GD32F30x_standard_peripheral/Source\gd32f30x_bkp.c ****     /* reset BKP domain register*/
  52:C:/Users/49542/Desktop/GD32F30x_Demo_Suites_V2.0.0/GD32F30x_Demo_Suites_V2.0.0/GD32F30x_Firmware_Library/GD32F30x_standard_peripheral/Source\gd32f30x_bkp.c ****     rcu_bkp_reset_enable();
  40              		.loc 1 52 0
  41 0004 FFF7FEFF 		bl	rcu_bkp_reset_enable
  53:C:/Users/49542/Desktop/GD32F30x_Demo_Suites_V2.0.0/GD32F30x_Demo_Suites_V2.0.0/GD32F30x_Firmware_Library/GD32F30x_standard_peripheral/Source\gd32f30x_bkp.c ****     rcu_bkp_reset_disable();
  42              		.loc 1 53 0
  43 0008 FFF7FEFF 		bl	rcu_bkp_reset_disable
  54:C:/Users/49542/Desktop/GD32F30x_Demo_Suites_V2.0.0/GD32F30x_Demo_Suites_V2.0.0/GD32F30x_Firmware_Library/GD32F30x_standard_peripheral/Source\gd32f30x_bkp.c **** }
  44              		.loc 1 54 0
  45 000c 00BF     		nop
  46 000e 80BD     		pop	{r7, pc}
  47              		.cfi_endproc
  48              	.LFE116:
  50              		.section	.text.bkp_write_data,"ax",%progbits
  51              		.align	1
  52              		.global	bkp_write_data
  53              		.syntax unified
  54              		.thumb
  55              		.thumb_func
  56              		.fpu fpv4-sp-d16
  58              	bkp_write_data:
  59              	.LFB117:
  55:C:/Users/49542/Desktop/GD32F30x_Demo_Suites_V2.0.0/GD32F30x_Demo_Suites_V2.0.0/GD32F30x_Firmware_Library/GD32F30x_standard_peripheral/Source\gd32f30x_bkp.c **** 
  56:C:/Users/49542/Desktop/GD32F30x_Demo_Suites_V2.0.0/GD32F30x_Demo_Suites_V2.0.0/GD32F30x_Firmware_Library/GD32F30x_standard_peripheral/Source\gd32f30x_bkp.c **** /*!
  57:C:/Users/49542/Desktop/GD32F30x_Demo_Suites_V2.0.0/GD32F30x_Demo_Suites_V2.0.0/GD32F30x_Firmware_Library/GD32F30x_standard_peripheral/Source\gd32f30x_bkp.c ****     \brief      write BKP data register
  58:C:/Users/49542/Desktop/GD32F30x_Demo_Suites_V2.0.0/GD32F30x_Demo_Suites_V2.0.0/GD32F30x_Firmware_Library/GD32F30x_standard_peripheral/Source\gd32f30x_bkp.c ****     \param[in]  register_number: refer to bkp_data_register_enum, only one parameter can be selecte
ARM GAS  C:\Users\49542\AppData\Local\Temp\ccsS4UGm.s 			page 3


  59:C:/Users/49542/Desktop/GD32F30x_Demo_Suites_V2.0.0/GD32F30x_Demo_Suites_V2.0.0/GD32F30x_Firmware_Library/GD32F30x_standard_peripheral/Source\gd32f30x_bkp.c ****       \arg        BKP_DATA_x(x = 0..41): bkp data register number x
  60:C:/Users/49542/Desktop/GD32F30x_Demo_Suites_V2.0.0/GD32F30x_Demo_Suites_V2.0.0/GD32F30x_Firmware_Library/GD32F30x_standard_peripheral/Source\gd32f30x_bkp.c ****     \param[in]  data: the data to be write in BKP data register
  61:C:/Users/49542/Desktop/GD32F30x_Demo_Suites_V2.0.0/GD32F30x_Demo_Suites_V2.0.0/GD32F30x_Firmware_Library/GD32F30x_standard_peripheral/Source\gd32f30x_bkp.c ****     \param[out] none
  62:C:/Users/49542/Desktop/GD32F30x_Demo_Suites_V2.0.0/GD32F30x_Demo_Suites_V2.0.0/GD32F30x_Firmware_Library/GD32F30x_standard_peripheral/Source\gd32f30x_bkp.c ****     \retval     none
  63:C:/Users/49542/Desktop/GD32F30x_Demo_Suites_V2.0.0/GD32F30x_Demo_Suites_V2.0.0/GD32F30x_Firmware_Library/GD32F30x_standard_peripheral/Source\gd32f30x_bkp.c **** */
  64:C:/Users/49542/Desktop/GD32F30x_Demo_Suites_V2.0.0/GD32F30x_Demo_Suites_V2.0.0/GD32F30x_Firmware_Library/GD32F30x_standard_peripheral/Source\gd32f30x_bkp.c **** void bkp_write_data(bkp_data_register_enum register_number, uint16_t data)
  65:C:/Users/49542/Desktop/GD32F30x_Demo_Suites_V2.0.0/GD32F30x_Demo_Suites_V2.0.0/GD32F30x_Firmware_Library/GD32F30x_standard_peripheral/Source\gd32f30x_bkp.c **** {
  60              		.loc 1 65 0
  61              		.cfi_startproc
  62              		@ args = 0, pretend = 0, frame = 8
  63              		@ frame_needed = 1, uses_anonymous_args = 0
  64              		@ link register save eliminated.
  65 0000 80B4     		push	{r7}
  66              	.LCFI2:
  67              		.cfi_def_cfa_offset 4
  68              		.cfi_offset 7, -4
  69 0002 83B0     		sub	sp, sp, #12
  70              	.LCFI3:
  71              		.cfi_def_cfa_offset 16
  72 0004 00AF     		add	r7, sp, #0
  73              	.LCFI4:
  74              		.cfi_def_cfa_register 7
  75 0006 0346     		mov	r3, r0
  76 0008 0A46     		mov	r2, r1
  77 000a FB71     		strb	r3, [r7, #7]
  78 000c 1346     		mov	r3, r2	@ movhi
  79 000e BB80     		strh	r3, [r7, #4]	@ movhi
  66:C:/Users/49542/Desktop/GD32F30x_Demo_Suites_V2.0.0/GD32F30x_Demo_Suites_V2.0.0/GD32F30x_Firmware_Library/GD32F30x_standard_peripheral/Source\gd32f30x_bkp.c ****     if((register_number >= BKP_DATA_10) && (register_number <= BKP_DATA_41)){
  80              		.loc 1 66 0
  81 0010 FB79     		ldrb	r3, [r7, #7]	@ zero_extendqisi2
  82 0012 0A2B     		cmp	r3, #10
  83 0014 0AD9     		bls	.L3
  84              		.loc 1 66 0 is_stmt 0 discriminator 1
  85 0016 FB79     		ldrb	r3, [r7, #7]	@ zero_extendqisi2
  86 0018 2A2B     		cmp	r3, #42
  87 001a 07D8     		bhi	.L3
  67:C:/Users/49542/Desktop/GD32F30x_Demo_Suites_V2.0.0/GD32F30x_Demo_Suites_V2.0.0/GD32F30x_Firmware_Library/GD32F30x_standard_peripheral/Source\gd32f30x_bkp.c ****         BKP_DATA10_41(register_number-1U) = data;
  88              		.loc 1 67 0 is_stmt 1
  89 001c FA79     		ldrb	r2, [r7, #7]	@ zero_extendqisi2
  90 001e 0E4B     		ldr	r3, .L6
  91 0020 1344     		add	r3, r3, r2
  92 0022 9B00     		lsls	r3, r3, #2
  93 0024 1A46     		mov	r2, r3
  94 0026 BB88     		ldrh	r3, [r7, #4]	@ movhi
  95 0028 1380     		strh	r3, [r2]	@ movhi
  68:C:/Users/49542/Desktop/GD32F30x_Demo_Suites_V2.0.0/GD32F30x_Demo_Suites_V2.0.0/GD32F30x_Firmware_Library/GD32F30x_standard_peripheral/Source\gd32f30x_bkp.c ****     }else if((register_number >= BKP_DATA_0) && (register_number <= BKP_DATA_9)){
  69:C:/Users/49542/Desktop/GD32F30x_Demo_Suites_V2.0.0/GD32F30x_Demo_Suites_V2.0.0/GD32F30x_Firmware_Library/GD32F30x_standard_peripheral/Source\gd32f30x_bkp.c ****         BKP_DATA0_9(register_number-1U) = data;
  70:C:/Users/49542/Desktop/GD32F30x_Demo_Suites_V2.0.0/GD32F30x_Demo_Suites_V2.0.0/GD32F30x_Firmware_Library/GD32F30x_standard_peripheral/Source\gd32f30x_bkp.c ****     }else{
  71:C:/Users/49542/Desktop/GD32F30x_Demo_Suites_V2.0.0/GD32F30x_Demo_Suites_V2.0.0/GD32F30x_Firmware_Library/GD32F30x_standard_peripheral/Source\gd32f30x_bkp.c ****         /* illegal parameters */
  72:C:/Users/49542/Desktop/GD32F30x_Demo_Suites_V2.0.0/GD32F30x_Demo_Suites_V2.0.0/GD32F30x_Firmware_Library/GD32F30x_standard_peripheral/Source\gd32f30x_bkp.c ****     }
  73:C:/Users/49542/Desktop/GD32F30x_Demo_Suites_V2.0.0/GD32F30x_Demo_Suites_V2.0.0/GD32F30x_Firmware_Library/GD32F30x_standard_peripheral/Source\gd32f30x_bkp.c **** }
  96              		.loc 1 73 0
  97 002a 0EE0     		b	.L5
  98              	.L3:
  68:C:/Users/49542/Desktop/GD32F30x_Demo_Suites_V2.0.0/GD32F30x_Demo_Suites_V2.0.0/GD32F30x_Firmware_Library/GD32F30x_standard_peripheral/Source\gd32f30x_bkp.c ****     }else if((register_number >= BKP_DATA_0) && (register_number <= BKP_DATA_9)){
  99              		.loc 1 68 0
 100 002c FB79     		ldrb	r3, [r7, #7]	@ zero_extendqisi2
ARM GAS  C:\Users\49542\AppData\Local\Temp\ccsS4UGm.s 			page 4


 101 002e 002B     		cmp	r3, #0
 102 0030 0BD0     		beq	.L5
  68:C:/Users/49542/Desktop/GD32F30x_Demo_Suites_V2.0.0/GD32F30x_Demo_Suites_V2.0.0/GD32F30x_Firmware_Library/GD32F30x_standard_peripheral/Source\gd32f30x_bkp.c ****     }else if((register_number >= BKP_DATA_0) && (register_number <= BKP_DATA_9)){
 103              		.loc 1 68 0 is_stmt 0 discriminator 1
 104 0032 FB79     		ldrb	r3, [r7, #7]	@ zero_extendqisi2
 105 0034 0A2B     		cmp	r3, #10
 106 0036 08D8     		bhi	.L5
  69:C:/Users/49542/Desktop/GD32F30x_Demo_Suites_V2.0.0/GD32F30x_Demo_Suites_V2.0.0/GD32F30x_Firmware_Library/GD32F30x_standard_peripheral/Source\gd32f30x_bkp.c ****     }else{
 107              		.loc 1 69 0 is_stmt 1
 108 0038 FB79     		ldrb	r3, [r7, #7]	@ zero_extendqisi2
 109 003a 03F18053 		add	r3, r3, #268435456
 110 003e 03F5D853 		add	r3, r3, #6912
 111 0042 9B00     		lsls	r3, r3, #2
 112 0044 1A46     		mov	r2, r3
 113 0046 BB88     		ldrh	r3, [r7, #4]	@ movhi
 114 0048 1380     		strh	r3, [r2]	@ movhi
 115              	.L5:
 116              		.loc 1 73 0
 117 004a 00BF     		nop
 118 004c 0C37     		adds	r7, r7, #12
 119              	.LCFI5:
 120              		.cfi_def_cfa_offset 4
 121 004e BD46     		mov	sp, r7
 122              	.LCFI6:
 123              		.cfi_def_cfa_register 13
 124              		@ sp needed
 125 0050 5DF8047B 		ldr	r7, [sp], #4
 126              	.LCFI7:
 127              		.cfi_restore 7
 128              		.cfi_def_cfa_offset 0
 129 0054 7047     		bx	lr
 130              	.L7:
 131 0056 00BF     		.align	2
 132              	.L6:
 133 0058 051B0010 		.word	268442373
 134              		.cfi_endproc
 135              	.LFE117:
 137              		.section	.text.bkp_read_data,"ax",%progbits
 138              		.align	1
 139              		.global	bkp_read_data
 140              		.syntax unified
 141              		.thumb
 142              		.thumb_func
 143              		.fpu fpv4-sp-d16
 145              	bkp_read_data:
 146              	.LFB118:
  74:C:/Users/49542/Desktop/GD32F30x_Demo_Suites_V2.0.0/GD32F30x_Demo_Suites_V2.0.0/GD32F30x_Firmware_Library/GD32F30x_standard_peripheral/Source\gd32f30x_bkp.c **** 
  75:C:/Users/49542/Desktop/GD32F30x_Demo_Suites_V2.0.0/GD32F30x_Demo_Suites_V2.0.0/GD32F30x_Firmware_Library/GD32F30x_standard_peripheral/Source\gd32f30x_bkp.c **** /*!
  76:C:/Users/49542/Desktop/GD32F30x_Demo_Suites_V2.0.0/GD32F30x_Demo_Suites_V2.0.0/GD32F30x_Firmware_Library/GD32F30x_standard_peripheral/Source\gd32f30x_bkp.c ****     \brief      read BKP data register
  77:C:/Users/49542/Desktop/GD32F30x_Demo_Suites_V2.0.0/GD32F30x_Demo_Suites_V2.0.0/GD32F30x_Firmware_Library/GD32F30x_standard_peripheral/Source\gd32f30x_bkp.c ****     \param[in]  register_number: refer to bkp_data_register_enum, only one parameter can be selecte
  78:C:/Users/49542/Desktop/GD32F30x_Demo_Suites_V2.0.0/GD32F30x_Demo_Suites_V2.0.0/GD32F30x_Firmware_Library/GD32F30x_standard_peripheral/Source\gd32f30x_bkp.c ****       \arg        BKP_DATA_x(x = 0..41): bkp data register number x
  79:C:/Users/49542/Desktop/GD32F30x_Demo_Suites_V2.0.0/GD32F30x_Demo_Suites_V2.0.0/GD32F30x_Firmware_Library/GD32F30x_standard_peripheral/Source\gd32f30x_bkp.c ****     \param[out] none
  80:C:/Users/49542/Desktop/GD32F30x_Demo_Suites_V2.0.0/GD32F30x_Demo_Suites_V2.0.0/GD32F30x_Firmware_Library/GD32F30x_standard_peripheral/Source\gd32f30x_bkp.c ****     \retval     data of BKP data register
  81:C:/Users/49542/Desktop/GD32F30x_Demo_Suites_V2.0.0/GD32F30x_Demo_Suites_V2.0.0/GD32F30x_Firmware_Library/GD32F30x_standard_peripheral/Source\gd32f30x_bkp.c **** */
  82:C:/Users/49542/Desktop/GD32F30x_Demo_Suites_V2.0.0/GD32F30x_Demo_Suites_V2.0.0/GD32F30x_Firmware_Library/GD32F30x_standard_peripheral/Source\gd32f30x_bkp.c **** uint16_t bkp_read_data(bkp_data_register_enum register_number)
  83:C:/Users/49542/Desktop/GD32F30x_Demo_Suites_V2.0.0/GD32F30x_Demo_Suites_V2.0.0/GD32F30x_Firmware_Library/GD32F30x_standard_peripheral/Source\gd32f30x_bkp.c **** {
 147              		.loc 1 83 0
ARM GAS  C:\Users\49542\AppData\Local\Temp\ccsS4UGm.s 			page 5


 148              		.cfi_startproc
 149              		@ args = 0, pretend = 0, frame = 16
 150              		@ frame_needed = 1, uses_anonymous_args = 0
 151              		@ link register save eliminated.
 152 0000 80B4     		push	{r7}
 153              	.LCFI8:
 154              		.cfi_def_cfa_offset 4
 155              		.cfi_offset 7, -4
 156 0002 85B0     		sub	sp, sp, #20
 157              	.LCFI9:
 158              		.cfi_def_cfa_offset 24
 159 0004 00AF     		add	r7, sp, #0
 160              	.LCFI10:
 161              		.cfi_def_cfa_register 7
 162 0006 0346     		mov	r3, r0
 163 0008 FB71     		strb	r3, [r7, #7]
  84:C:/Users/49542/Desktop/GD32F30x_Demo_Suites_V2.0.0/GD32F30x_Demo_Suites_V2.0.0/GD32F30x_Firmware_Library/GD32F30x_standard_peripheral/Source\gd32f30x_bkp.c ****     uint16_t data = 0U;
 164              		.loc 1 84 0
 165 000a 0023     		movs	r3, #0
 166 000c FB81     		strh	r3, [r7, #14]	@ movhi
  85:C:/Users/49542/Desktop/GD32F30x_Demo_Suites_V2.0.0/GD32F30x_Demo_Suites_V2.0.0/GD32F30x_Firmware_Library/GD32F30x_standard_peripheral/Source\gd32f30x_bkp.c ****     
  86:C:/Users/49542/Desktop/GD32F30x_Demo_Suites_V2.0.0/GD32F30x_Demo_Suites_V2.0.0/GD32F30x_Firmware_Library/GD32F30x_standard_peripheral/Source\gd32f30x_bkp.c ****     /* get the data from the BKP data register */
  87:C:/Users/49542/Desktop/GD32F30x_Demo_Suites_V2.0.0/GD32F30x_Demo_Suites_V2.0.0/GD32F30x_Firmware_Library/GD32F30x_standard_peripheral/Source\gd32f30x_bkp.c ****     if((register_number >= BKP_DATA_10) && (register_number <= BKP_DATA_41)){
 167              		.loc 1 87 0
 168 000e FB79     		ldrb	r3, [r7, #7]	@ zero_extendqisi2
 169 0010 0A2B     		cmp	r3, #10
 170 0012 09D9     		bls	.L9
 171              		.loc 1 87 0 is_stmt 0 discriminator 1
 172 0014 FB79     		ldrb	r3, [r7, #7]	@ zero_extendqisi2
 173 0016 2A2B     		cmp	r3, #42
 174 0018 06D8     		bhi	.L9
  88:C:/Users/49542/Desktop/GD32F30x_Demo_Suites_V2.0.0/GD32F30x_Demo_Suites_V2.0.0/GD32F30x_Firmware_Library/GD32F30x_standard_peripheral/Source\gd32f30x_bkp.c ****         data = BKP_DATA10_41(register_number-1U);
 175              		.loc 1 88 0 is_stmt 1
 176 001a FA79     		ldrb	r2, [r7, #7]	@ zero_extendqisi2
 177 001c 0D4B     		ldr	r3, .L12
 178 001e 1344     		add	r3, r3, r2
 179 0020 9B00     		lsls	r3, r3, #2
 180 0022 1B88     		ldrh	r3, [r3]	@ movhi
 181 0024 FB81     		strh	r3, [r7, #14]	@ movhi
 182 0026 0DE0     		b	.L10
 183              	.L9:
  89:C:/Users/49542/Desktop/GD32F30x_Demo_Suites_V2.0.0/GD32F30x_Demo_Suites_V2.0.0/GD32F30x_Firmware_Library/GD32F30x_standard_peripheral/Source\gd32f30x_bkp.c ****     }else if((register_number >= BKP_DATA_0) && (register_number <= BKP_DATA_9)){
 184              		.loc 1 89 0
 185 0028 FB79     		ldrb	r3, [r7, #7]	@ zero_extendqisi2
 186 002a 002B     		cmp	r3, #0
 187 002c 0AD0     		beq	.L10
 188              		.loc 1 89 0 is_stmt 0 discriminator 1
 189 002e FB79     		ldrb	r3, [r7, #7]	@ zero_extendqisi2
 190 0030 0A2B     		cmp	r3, #10
 191 0032 07D8     		bhi	.L10
  90:C:/Users/49542/Desktop/GD32F30x_Demo_Suites_V2.0.0/GD32F30x_Demo_Suites_V2.0.0/GD32F30x_Firmware_Library/GD32F30x_standard_peripheral/Source\gd32f30x_bkp.c ****         data = BKP_DATA0_9(register_number-1U);
 192              		.loc 1 90 0 is_stmt 1
 193 0034 FB79     		ldrb	r3, [r7, #7]	@ zero_extendqisi2
 194 0036 03F18053 		add	r3, r3, #268435456
 195 003a 03F5D853 		add	r3, r3, #6912
 196 003e 9B00     		lsls	r3, r3, #2
 197 0040 1B88     		ldrh	r3, [r3]	@ movhi
ARM GAS  C:\Users\49542\AppData\Local\Temp\ccsS4UGm.s 			page 6


 198 0042 FB81     		strh	r3, [r7, #14]	@ movhi
 199              	.L10:
  91:C:/Users/49542/Desktop/GD32F30x_Demo_Suites_V2.0.0/GD32F30x_Demo_Suites_V2.0.0/GD32F30x_Firmware_Library/GD32F30x_standard_peripheral/Source\gd32f30x_bkp.c ****     }else{
  92:C:/Users/49542/Desktop/GD32F30x_Demo_Suites_V2.0.0/GD32F30x_Demo_Suites_V2.0.0/GD32F30x_Firmware_Library/GD32F30x_standard_peripheral/Source\gd32f30x_bkp.c ****         /* illegal parameters */
  93:C:/Users/49542/Desktop/GD32F30x_Demo_Suites_V2.0.0/GD32F30x_Demo_Suites_V2.0.0/GD32F30x_Firmware_Library/GD32F30x_standard_peripheral/Source\gd32f30x_bkp.c ****     }
  94:C:/Users/49542/Desktop/GD32F30x_Demo_Suites_V2.0.0/GD32F30x_Demo_Suites_V2.0.0/GD32F30x_Firmware_Library/GD32F30x_standard_peripheral/Source\gd32f30x_bkp.c ****     return data;
 200              		.loc 1 94 0
 201 0044 FB89     		ldrh	r3, [r7, #14]
  95:C:/Users/49542/Desktop/GD32F30x_Demo_Suites_V2.0.0/GD32F30x_Demo_Suites_V2.0.0/GD32F30x_Firmware_Library/GD32F30x_standard_peripheral/Source\gd32f30x_bkp.c **** }
 202              		.loc 1 95 0
 203 0046 1846     		mov	r0, r3
 204 0048 1437     		adds	r7, r7, #20
 205              	.LCFI11:
 206              		.cfi_def_cfa_offset 4
 207 004a BD46     		mov	sp, r7
 208              	.LCFI12:
 209              		.cfi_def_cfa_register 13
 210              		@ sp needed
 211 004c 5DF8047B 		ldr	r7, [sp], #4
 212              	.LCFI13:
 213              		.cfi_restore 7
 214              		.cfi_def_cfa_offset 0
 215 0050 7047     		bx	lr
 216              	.L13:
 217 0052 00BF     		.align	2
 218              	.L12:
 219 0054 051B0010 		.word	268442373
 220              		.cfi_endproc
 221              	.LFE118:
 223              		.section	.text.bkp_rtc_calibration_output_enable,"ax",%progbits
 224              		.align	1
 225              		.global	bkp_rtc_calibration_output_enable
 226              		.syntax unified
 227              		.thumb
 228              		.thumb_func
 229              		.fpu fpv4-sp-d16
 231              	bkp_rtc_calibration_output_enable:
 232              	.LFB119:
  96:C:/Users/49542/Desktop/GD32F30x_Demo_Suites_V2.0.0/GD32F30x_Demo_Suites_V2.0.0/GD32F30x_Firmware_Library/GD32F30x_standard_peripheral/Source\gd32f30x_bkp.c **** 
  97:C:/Users/49542/Desktop/GD32F30x_Demo_Suites_V2.0.0/GD32F30x_Demo_Suites_V2.0.0/GD32F30x_Firmware_Library/GD32F30x_standard_peripheral/Source\gd32f30x_bkp.c **** /*!
  98:C:/Users/49542/Desktop/GD32F30x_Demo_Suites_V2.0.0/GD32F30x_Demo_Suites_V2.0.0/GD32F30x_Firmware_Library/GD32F30x_standard_peripheral/Source\gd32f30x_bkp.c ****     \brief      enable RTC clock calibration output
  99:C:/Users/49542/Desktop/GD32F30x_Demo_Suites_V2.0.0/GD32F30x_Demo_Suites_V2.0.0/GD32F30x_Firmware_Library/GD32F30x_standard_peripheral/Source\gd32f30x_bkp.c ****     \param[in]  none
 100:C:/Users/49542/Desktop/GD32F30x_Demo_Suites_V2.0.0/GD32F30x_Demo_Suites_V2.0.0/GD32F30x_Firmware_Library/GD32F30x_standard_peripheral/Source\gd32f30x_bkp.c ****     \param[out] none
 101:C:/Users/49542/Desktop/GD32F30x_Demo_Suites_V2.0.0/GD32F30x_Demo_Suites_V2.0.0/GD32F30x_Firmware_Library/GD32F30x_standard_peripheral/Source\gd32f30x_bkp.c ****     \retval     none
 102:C:/Users/49542/Desktop/GD32F30x_Demo_Suites_V2.0.0/GD32F30x_Demo_Suites_V2.0.0/GD32F30x_Firmware_Library/GD32F30x_standard_peripheral/Source\gd32f30x_bkp.c **** */
 103:C:/Users/49542/Desktop/GD32F30x_Demo_Suites_V2.0.0/GD32F30x_Demo_Suites_V2.0.0/GD32F30x_Firmware_Library/GD32F30x_standard_peripheral/Source\gd32f30x_bkp.c **** void bkp_rtc_calibration_output_enable(void)
 104:C:/Users/49542/Desktop/GD32F30x_Demo_Suites_V2.0.0/GD32F30x_Demo_Suites_V2.0.0/GD32F30x_Firmware_Library/GD32F30x_standard_peripheral/Source\gd32f30x_bkp.c **** {
 233              		.loc 1 104 0
 234              		.cfi_startproc
 235              		@ args = 0, pretend = 0, frame = 0
 236              		@ frame_needed = 1, uses_anonymous_args = 0
 237              		@ link register save eliminated.
 238 0000 80B4     		push	{r7}
 239              	.LCFI14:
 240              		.cfi_def_cfa_offset 4
 241              		.cfi_offset 7, -4
 242 0002 00AF     		add	r7, sp, #0
ARM GAS  C:\Users\49542\AppData\Local\Temp\ccsS4UGm.s 			page 7


 243              	.LCFI15:
 244              		.cfi_def_cfa_register 7
 105:C:/Users/49542/Desktop/GD32F30x_Demo_Suites_V2.0.0/GD32F30x_Demo_Suites_V2.0.0/GD32F30x_Firmware_Library/GD32F30x_standard_peripheral/Source\gd32f30x_bkp.c ****     BKP_OCTL |= (uint16_t)BKP_OCTL_COEN;
 245              		.loc 1 105 0
 246 0004 064B     		ldr	r3, .L15
 247 0006 1B88     		ldrh	r3, [r3]	@ movhi
 248 0008 9BB2     		uxth	r3, r3
 249 000a 054A     		ldr	r2, .L15
 250 000c 43F08003 		orr	r3, r3, #128
 251 0010 9BB2     		uxth	r3, r3
 252 0012 1380     		strh	r3, [r2]	@ movhi
 106:C:/Users/49542/Desktop/GD32F30x_Demo_Suites_V2.0.0/GD32F30x_Demo_Suites_V2.0.0/GD32F30x_Firmware_Library/GD32F30x_standard_peripheral/Source\gd32f30x_bkp.c **** }
 253              		.loc 1 106 0
 254 0014 00BF     		nop
 255 0016 BD46     		mov	sp, r7
 256              	.LCFI16:
 257              		.cfi_def_cfa_register 13
 258              		@ sp needed
 259 0018 5DF8047B 		ldr	r7, [sp], #4
 260              	.LCFI17:
 261              		.cfi_restore 7
 262              		.cfi_def_cfa_offset 0
 263 001c 7047     		bx	lr
 264              	.L16:
 265 001e 00BF     		.align	2
 266              	.L15:
 267 0020 2C6C0040 		.word	1073769516
 268              		.cfi_endproc
 269              	.LFE119:
 271              		.section	.text.bkp_rtc_calibration_output_disable,"ax",%progbits
 272              		.align	1
 273              		.global	bkp_rtc_calibration_output_disable
 274              		.syntax unified
 275              		.thumb
 276              		.thumb_func
 277              		.fpu fpv4-sp-d16
 279              	bkp_rtc_calibration_output_disable:
 280              	.LFB120:
 107:C:/Users/49542/Desktop/GD32F30x_Demo_Suites_V2.0.0/GD32F30x_Demo_Suites_V2.0.0/GD32F30x_Firmware_Library/GD32F30x_standard_peripheral/Source\gd32f30x_bkp.c **** 
 108:C:/Users/49542/Desktop/GD32F30x_Demo_Suites_V2.0.0/GD32F30x_Demo_Suites_V2.0.0/GD32F30x_Firmware_Library/GD32F30x_standard_peripheral/Source\gd32f30x_bkp.c **** /*!
 109:C:/Users/49542/Desktop/GD32F30x_Demo_Suites_V2.0.0/GD32F30x_Demo_Suites_V2.0.0/GD32F30x_Firmware_Library/GD32F30x_standard_peripheral/Source\gd32f30x_bkp.c ****     \brief      disable RTC clock calibration output
 110:C:/Users/49542/Desktop/GD32F30x_Demo_Suites_V2.0.0/GD32F30x_Demo_Suites_V2.0.0/GD32F30x_Firmware_Library/GD32F30x_standard_peripheral/Source\gd32f30x_bkp.c ****     \param[in]  none
 111:C:/Users/49542/Desktop/GD32F30x_Demo_Suites_V2.0.0/GD32F30x_Demo_Suites_V2.0.0/GD32F30x_Firmware_Library/GD32F30x_standard_peripheral/Source\gd32f30x_bkp.c ****     \param[out] none
 112:C:/Users/49542/Desktop/GD32F30x_Demo_Suites_V2.0.0/GD32F30x_Demo_Suites_V2.0.0/GD32F30x_Firmware_Library/GD32F30x_standard_peripheral/Source\gd32f30x_bkp.c ****     \retval     none
 113:C:/Users/49542/Desktop/GD32F30x_Demo_Suites_V2.0.0/GD32F30x_Demo_Suites_V2.0.0/GD32F30x_Firmware_Library/GD32F30x_standard_peripheral/Source\gd32f30x_bkp.c **** */
 114:C:/Users/49542/Desktop/GD32F30x_Demo_Suites_V2.0.0/GD32F30x_Demo_Suites_V2.0.0/GD32F30x_Firmware_Library/GD32F30x_standard_peripheral/Source\gd32f30x_bkp.c **** void bkp_rtc_calibration_output_disable(void)
 115:C:/Users/49542/Desktop/GD32F30x_Demo_Suites_V2.0.0/GD32F30x_Demo_Suites_V2.0.0/GD32F30x_Firmware_Library/GD32F30x_standard_peripheral/Source\gd32f30x_bkp.c **** {
 281              		.loc 1 115 0
 282              		.cfi_startproc
 283              		@ args = 0, pretend = 0, frame = 0
 284              		@ frame_needed = 1, uses_anonymous_args = 0
 285              		@ link register save eliminated.
 286 0000 80B4     		push	{r7}
 287              	.LCFI18:
 288              		.cfi_def_cfa_offset 4
 289              		.cfi_offset 7, -4
 290 0002 00AF     		add	r7, sp, #0
ARM GAS  C:\Users\49542\AppData\Local\Temp\ccsS4UGm.s 			page 8


 291              	.LCFI19:
 292              		.cfi_def_cfa_register 7
 116:C:/Users/49542/Desktop/GD32F30x_Demo_Suites_V2.0.0/GD32F30x_Demo_Suites_V2.0.0/GD32F30x_Firmware_Library/GD32F30x_standard_peripheral/Source\gd32f30x_bkp.c ****     BKP_OCTL &= (uint16_t)~BKP_OCTL_COEN;
 293              		.loc 1 116 0
 294 0004 064B     		ldr	r3, .L18
 295 0006 1B88     		ldrh	r3, [r3]	@ movhi
 296 0008 9BB2     		uxth	r3, r3
 297 000a 054A     		ldr	r2, .L18
 298 000c 23F08003 		bic	r3, r3, #128
 299 0010 9BB2     		uxth	r3, r3
 300 0012 1380     		strh	r3, [r2]	@ movhi
 117:C:/Users/49542/Desktop/GD32F30x_Demo_Suites_V2.0.0/GD32F30x_Demo_Suites_V2.0.0/GD32F30x_Firmware_Library/GD32F30x_standard_peripheral/Source\gd32f30x_bkp.c **** }
 301              		.loc 1 117 0
 302 0014 00BF     		nop
 303 0016 BD46     		mov	sp, r7
 304              	.LCFI20:
 305              		.cfi_def_cfa_register 13
 306              		@ sp needed
 307 0018 5DF8047B 		ldr	r7, [sp], #4
 308              	.LCFI21:
 309              		.cfi_restore 7
 310              		.cfi_def_cfa_offset 0
 311 001c 7047     		bx	lr
 312              	.L19:
 313 001e 00BF     		.align	2
 314              	.L18:
 315 0020 2C6C0040 		.word	1073769516
 316              		.cfi_endproc
 317              	.LFE120:
 319              		.section	.text.bkp_rtc_signal_output_enable,"ax",%progbits
 320              		.align	1
 321              		.global	bkp_rtc_signal_output_enable
 322              		.syntax unified
 323              		.thumb
 324              		.thumb_func
 325              		.fpu fpv4-sp-d16
 327              	bkp_rtc_signal_output_enable:
 328              	.LFB121:
 118:C:/Users/49542/Desktop/GD32F30x_Demo_Suites_V2.0.0/GD32F30x_Demo_Suites_V2.0.0/GD32F30x_Firmware_Library/GD32F30x_standard_peripheral/Source\gd32f30x_bkp.c **** 
 119:C:/Users/49542/Desktop/GD32F30x_Demo_Suites_V2.0.0/GD32F30x_Demo_Suites_V2.0.0/GD32F30x_Firmware_Library/GD32F30x_standard_peripheral/Source\gd32f30x_bkp.c **** /*!
 120:C:/Users/49542/Desktop/GD32F30x_Demo_Suites_V2.0.0/GD32F30x_Demo_Suites_V2.0.0/GD32F30x_Firmware_Library/GD32F30x_standard_peripheral/Source\gd32f30x_bkp.c ****     \brief      enable RTC alarm or second signal output
 121:C:/Users/49542/Desktop/GD32F30x_Demo_Suites_V2.0.0/GD32F30x_Demo_Suites_V2.0.0/GD32F30x_Firmware_Library/GD32F30x_standard_peripheral/Source\gd32f30x_bkp.c ****     \param[in]  none
 122:C:/Users/49542/Desktop/GD32F30x_Demo_Suites_V2.0.0/GD32F30x_Demo_Suites_V2.0.0/GD32F30x_Firmware_Library/GD32F30x_standard_peripheral/Source\gd32f30x_bkp.c ****     \param[out] none
 123:C:/Users/49542/Desktop/GD32F30x_Demo_Suites_V2.0.0/GD32F30x_Demo_Suites_V2.0.0/GD32F30x_Firmware_Library/GD32F30x_standard_peripheral/Source\gd32f30x_bkp.c ****     \retval     none
 124:C:/Users/49542/Desktop/GD32F30x_Demo_Suites_V2.0.0/GD32F30x_Demo_Suites_V2.0.0/GD32F30x_Firmware_Library/GD32F30x_standard_peripheral/Source\gd32f30x_bkp.c **** */
 125:C:/Users/49542/Desktop/GD32F30x_Demo_Suites_V2.0.0/GD32F30x_Demo_Suites_V2.0.0/GD32F30x_Firmware_Library/GD32F30x_standard_peripheral/Source\gd32f30x_bkp.c **** void bkp_rtc_signal_output_enable(void)
 126:C:/Users/49542/Desktop/GD32F30x_Demo_Suites_V2.0.0/GD32F30x_Demo_Suites_V2.0.0/GD32F30x_Firmware_Library/GD32F30x_standard_peripheral/Source\gd32f30x_bkp.c **** {
 329              		.loc 1 126 0
 330              		.cfi_startproc
 331              		@ args = 0, pretend = 0, frame = 0
 332              		@ frame_needed = 1, uses_anonymous_args = 0
 333              		@ link register save eliminated.
 334 0000 80B4     		push	{r7}
 335              	.LCFI22:
 336              		.cfi_def_cfa_offset 4
 337              		.cfi_offset 7, -4
 338 0002 00AF     		add	r7, sp, #0
ARM GAS  C:\Users\49542\AppData\Local\Temp\ccsS4UGm.s 			page 9


 339              	.LCFI23:
 340              		.cfi_def_cfa_register 7
 127:C:/Users/49542/Desktop/GD32F30x_Demo_Suites_V2.0.0/GD32F30x_Demo_Suites_V2.0.0/GD32F30x_Firmware_Library/GD32F30x_standard_peripheral/Source\gd32f30x_bkp.c ****     BKP_OCTL |= (uint16_t)BKP_OCTL_ASOEN;
 341              		.loc 1 127 0
 342 0004 064B     		ldr	r3, .L21
 343 0006 1B88     		ldrh	r3, [r3]	@ movhi
 344 0008 9BB2     		uxth	r3, r3
 345 000a 054A     		ldr	r2, .L21
 346 000c 43F48073 		orr	r3, r3, #256
 347 0010 9BB2     		uxth	r3, r3
 348 0012 1380     		strh	r3, [r2]	@ movhi
 128:C:/Users/49542/Desktop/GD32F30x_Demo_Suites_V2.0.0/GD32F30x_Demo_Suites_V2.0.0/GD32F30x_Firmware_Library/GD32F30x_standard_peripheral/Source\gd32f30x_bkp.c **** }
 349              		.loc 1 128 0
 350 0014 00BF     		nop
 351 0016 BD46     		mov	sp, r7
 352              	.LCFI24:
 353              		.cfi_def_cfa_register 13
 354              		@ sp needed
 355 0018 5DF8047B 		ldr	r7, [sp], #4
 356              	.LCFI25:
 357              		.cfi_restore 7
 358              		.cfi_def_cfa_offset 0
 359 001c 7047     		bx	lr
 360              	.L22:
 361 001e 00BF     		.align	2
 362              	.L21:
 363 0020 2C6C0040 		.word	1073769516
 364              		.cfi_endproc
 365              	.LFE121:
 367              		.section	.text.bkp_rtc_signal_output_disable,"ax",%progbits
 368              		.align	1
 369              		.global	bkp_rtc_signal_output_disable
 370              		.syntax unified
 371              		.thumb
 372              		.thumb_func
 373              		.fpu fpv4-sp-d16
 375              	bkp_rtc_signal_output_disable:
 376              	.LFB122:
 129:C:/Users/49542/Desktop/GD32F30x_Demo_Suites_V2.0.0/GD32F30x_Demo_Suites_V2.0.0/GD32F30x_Firmware_Library/GD32F30x_standard_peripheral/Source\gd32f30x_bkp.c **** 
 130:C:/Users/49542/Desktop/GD32F30x_Demo_Suites_V2.0.0/GD32F30x_Demo_Suites_V2.0.0/GD32F30x_Firmware_Library/GD32F30x_standard_peripheral/Source\gd32f30x_bkp.c **** /*!
 131:C:/Users/49542/Desktop/GD32F30x_Demo_Suites_V2.0.0/GD32F30x_Demo_Suites_V2.0.0/GD32F30x_Firmware_Library/GD32F30x_standard_peripheral/Source\gd32f30x_bkp.c ****     \brief      disable RTC alarm or second signal output
 132:C:/Users/49542/Desktop/GD32F30x_Demo_Suites_V2.0.0/GD32F30x_Demo_Suites_V2.0.0/GD32F30x_Firmware_Library/GD32F30x_standard_peripheral/Source\gd32f30x_bkp.c ****     \param[in]  none
 133:C:/Users/49542/Desktop/GD32F30x_Demo_Suites_V2.0.0/GD32F30x_Demo_Suites_V2.0.0/GD32F30x_Firmware_Library/GD32F30x_standard_peripheral/Source\gd32f30x_bkp.c ****     \param[out] none
 134:C:/Users/49542/Desktop/GD32F30x_Demo_Suites_V2.0.0/GD32F30x_Demo_Suites_V2.0.0/GD32F30x_Firmware_Library/GD32F30x_standard_peripheral/Source\gd32f30x_bkp.c ****     \retval     none
 135:C:/Users/49542/Desktop/GD32F30x_Demo_Suites_V2.0.0/GD32F30x_Demo_Suites_V2.0.0/GD32F30x_Firmware_Library/GD32F30x_standard_peripheral/Source\gd32f30x_bkp.c **** */
 136:C:/Users/49542/Desktop/GD32F30x_Demo_Suites_V2.0.0/GD32F30x_Demo_Suites_V2.0.0/GD32F30x_Firmware_Library/GD32F30x_standard_peripheral/Source\gd32f30x_bkp.c **** void bkp_rtc_signal_output_disable(void)
 137:C:/Users/49542/Desktop/GD32F30x_Demo_Suites_V2.0.0/GD32F30x_Demo_Suites_V2.0.0/GD32F30x_Firmware_Library/GD32F30x_standard_peripheral/Source\gd32f30x_bkp.c **** {
 377              		.loc 1 137 0
 378              		.cfi_startproc
 379              		@ args = 0, pretend = 0, frame = 0
 380              		@ frame_needed = 1, uses_anonymous_args = 0
 381              		@ link register save eliminated.
 382 0000 80B4     		push	{r7}
 383              	.LCFI26:
 384              		.cfi_def_cfa_offset 4
 385              		.cfi_offset 7, -4
 386 0002 00AF     		add	r7, sp, #0
ARM GAS  C:\Users\49542\AppData\Local\Temp\ccsS4UGm.s 			page 10


 387              	.LCFI27:
 388              		.cfi_def_cfa_register 7
 138:C:/Users/49542/Desktop/GD32F30x_Demo_Suites_V2.0.0/GD32F30x_Demo_Suites_V2.0.0/GD32F30x_Firmware_Library/GD32F30x_standard_peripheral/Source\gd32f30x_bkp.c ****     BKP_OCTL &= (uint16_t)~BKP_OCTL_ASOEN;
 389              		.loc 1 138 0
 390 0004 064B     		ldr	r3, .L24
 391 0006 1B88     		ldrh	r3, [r3]	@ movhi
 392 0008 9BB2     		uxth	r3, r3
 393 000a 054A     		ldr	r2, .L24
 394 000c 23F48073 		bic	r3, r3, #256
 395 0010 9BB2     		uxth	r3, r3
 396 0012 1380     		strh	r3, [r2]	@ movhi
 139:C:/Users/49542/Desktop/GD32F30x_Demo_Suites_V2.0.0/GD32F30x_Demo_Suites_V2.0.0/GD32F30x_Firmware_Library/GD32F30x_standard_peripheral/Source\gd32f30x_bkp.c **** }
 397              		.loc 1 139 0
 398 0014 00BF     		nop
 399 0016 BD46     		mov	sp, r7
 400              	.LCFI28:
 401              		.cfi_def_cfa_register 13
 402              		@ sp needed
 403 0018 5DF8047B 		ldr	r7, [sp], #4
 404              	.LCFI29:
 405              		.cfi_restore 7
 406              		.cfi_def_cfa_offset 0
 407 001c 7047     		bx	lr
 408              	.L25:
 409 001e 00BF     		.align	2
 410              	.L24:
 411 0020 2C6C0040 		.word	1073769516
 412              		.cfi_endproc
 413              	.LFE122:
 415              		.section	.text.bkp_rtc_output_select,"ax",%progbits
 416              		.align	1
 417              		.global	bkp_rtc_output_select
 418              		.syntax unified
 419              		.thumb
 420              		.thumb_func
 421              		.fpu fpv4-sp-d16
 423              	bkp_rtc_output_select:
 424              	.LFB123:
 140:C:/Users/49542/Desktop/GD32F30x_Demo_Suites_V2.0.0/GD32F30x_Demo_Suites_V2.0.0/GD32F30x_Firmware_Library/GD32F30x_standard_peripheral/Source\gd32f30x_bkp.c **** 
 141:C:/Users/49542/Desktop/GD32F30x_Demo_Suites_V2.0.0/GD32F30x_Demo_Suites_V2.0.0/GD32F30x_Firmware_Library/GD32F30x_standard_peripheral/Source\gd32f30x_bkp.c **** /*!
 142:C:/Users/49542/Desktop/GD32F30x_Demo_Suites_V2.0.0/GD32F30x_Demo_Suites_V2.0.0/GD32F30x_Firmware_Library/GD32F30x_standard_peripheral/Source\gd32f30x_bkp.c ****     \brief      select RTC output
 143:C:/Users/49542/Desktop/GD32F30x_Demo_Suites_V2.0.0/GD32F30x_Demo_Suites_V2.0.0/GD32F30x_Firmware_Library/GD32F30x_standard_peripheral/Source\gd32f30x_bkp.c ****     \param[in]  outputsel: RTC output selection
 144:C:/Users/49542/Desktop/GD32F30x_Demo_Suites_V2.0.0/GD32F30x_Demo_Suites_V2.0.0/GD32F30x_Firmware_Library/GD32F30x_standard_peripheral/Source\gd32f30x_bkp.c ****       \arg        RTC_OUTPUT_ALARM_PULSE: RTC alarm pulse is selected as the RTC output
 145:C:/Users/49542/Desktop/GD32F30x_Demo_Suites_V2.0.0/GD32F30x_Demo_Suites_V2.0.0/GD32F30x_Firmware_Library/GD32F30x_standard_peripheral/Source\gd32f30x_bkp.c ****       \arg        RTC_OUTPUT_SECOND_PULSE: RTC second pulse is selected as the RTC output
 146:C:/Users/49542/Desktop/GD32F30x_Demo_Suites_V2.0.0/GD32F30x_Demo_Suites_V2.0.0/GD32F30x_Firmware_Library/GD32F30x_standard_peripheral/Source\gd32f30x_bkp.c ****     \param[out] none
 147:C:/Users/49542/Desktop/GD32F30x_Demo_Suites_V2.0.0/GD32F30x_Demo_Suites_V2.0.0/GD32F30x_Firmware_Library/GD32F30x_standard_peripheral/Source\gd32f30x_bkp.c ****     \retval     none
 148:C:/Users/49542/Desktop/GD32F30x_Demo_Suites_V2.0.0/GD32F30x_Demo_Suites_V2.0.0/GD32F30x_Firmware_Library/GD32F30x_standard_peripheral/Source\gd32f30x_bkp.c **** */
 149:C:/Users/49542/Desktop/GD32F30x_Demo_Suites_V2.0.0/GD32F30x_Demo_Suites_V2.0.0/GD32F30x_Firmware_Library/GD32F30x_standard_peripheral/Source\gd32f30x_bkp.c **** void bkp_rtc_output_select(uint16_t outputsel)
 150:C:/Users/49542/Desktop/GD32F30x_Demo_Suites_V2.0.0/GD32F30x_Demo_Suites_V2.0.0/GD32F30x_Firmware_Library/GD32F30x_standard_peripheral/Source\gd32f30x_bkp.c **** {
 425              		.loc 1 150 0
 426              		.cfi_startproc
 427              		@ args = 0, pretend = 0, frame = 16
 428              		@ frame_needed = 1, uses_anonymous_args = 0
 429              		@ link register save eliminated.
 430 0000 80B4     		push	{r7}
 431              	.LCFI30:
 432              		.cfi_def_cfa_offset 4
ARM GAS  C:\Users\49542\AppData\Local\Temp\ccsS4UGm.s 			page 11


 433              		.cfi_offset 7, -4
 434 0002 85B0     		sub	sp, sp, #20
 435              	.LCFI31:
 436              		.cfi_def_cfa_offset 24
 437 0004 00AF     		add	r7, sp, #0
 438              	.LCFI32:
 439              		.cfi_def_cfa_register 7
 440 0006 0346     		mov	r3, r0
 441 0008 FB80     		strh	r3, [r7, #6]	@ movhi
 151:C:/Users/49542/Desktop/GD32F30x_Demo_Suites_V2.0.0/GD32F30x_Demo_Suites_V2.0.0/GD32F30x_Firmware_Library/GD32F30x_standard_peripheral/Source\gd32f30x_bkp.c ****     uint16_t ctl = 0U;
 442              		.loc 1 151 0
 443 000a 0023     		movs	r3, #0
 444 000c FB81     		strh	r3, [r7, #14]	@ movhi
 152:C:/Users/49542/Desktop/GD32F30x_Demo_Suites_V2.0.0/GD32F30x_Demo_Suites_V2.0.0/GD32F30x_Firmware_Library/GD32F30x_standard_peripheral/Source\gd32f30x_bkp.c ****     
 153:C:/Users/49542/Desktop/GD32F30x_Demo_Suites_V2.0.0/GD32F30x_Demo_Suites_V2.0.0/GD32F30x_Firmware_Library/GD32F30x_standard_peripheral/Source\gd32f30x_bkp.c ****     ctl = BKP_OCTL;
 445              		.loc 1 153 0
 446 000e 0A4B     		ldr	r3, .L27
 447 0010 1B88     		ldrh	r3, [r3]	@ movhi
 448 0012 FB81     		strh	r3, [r7, #14]	@ movhi
 154:C:/Users/49542/Desktop/GD32F30x_Demo_Suites_V2.0.0/GD32F30x_Demo_Suites_V2.0.0/GD32F30x_Firmware_Library/GD32F30x_standard_peripheral/Source\gd32f30x_bkp.c ****     ctl &= (uint16_t)~BKP_OCTL_ROSEL;
 449              		.loc 1 154 0
 450 0014 FB89     		ldrh	r3, [r7, #14]	@ movhi
 451 0016 23F40073 		bic	r3, r3, #512
 452 001a FB81     		strh	r3, [r7, #14]	@ movhi
 155:C:/Users/49542/Desktop/GD32F30x_Demo_Suites_V2.0.0/GD32F30x_Demo_Suites_V2.0.0/GD32F30x_Firmware_Library/GD32F30x_standard_peripheral/Source\gd32f30x_bkp.c ****     ctl |= outputsel;
 453              		.loc 1 155 0
 454 001c FA89     		ldrh	r2, [r7, #14]	@ movhi
 455 001e FB88     		ldrh	r3, [r7, #6]	@ movhi
 456 0020 1343     		orrs	r3, r3, r2
 457 0022 FB81     		strh	r3, [r7, #14]	@ movhi
 156:C:/Users/49542/Desktop/GD32F30x_Demo_Suites_V2.0.0/GD32F30x_Demo_Suites_V2.0.0/GD32F30x_Firmware_Library/GD32F30x_standard_peripheral/Source\gd32f30x_bkp.c ****     BKP_OCTL = ctl;
 458              		.loc 1 156 0
 459 0024 044A     		ldr	r2, .L27
 460 0026 FB89     		ldrh	r3, [r7, #14]	@ movhi
 461 0028 1380     		strh	r3, [r2]	@ movhi
 157:C:/Users/49542/Desktop/GD32F30x_Demo_Suites_V2.0.0/GD32F30x_Demo_Suites_V2.0.0/GD32F30x_Firmware_Library/GD32F30x_standard_peripheral/Source\gd32f30x_bkp.c **** }
 462              		.loc 1 157 0
 463 002a 00BF     		nop
 464 002c 1437     		adds	r7, r7, #20
 465              	.LCFI33:
 466              		.cfi_def_cfa_offset 4
 467 002e BD46     		mov	sp, r7
 468              	.LCFI34:
 469              		.cfi_def_cfa_register 13
 470              		@ sp needed
 471 0030 5DF8047B 		ldr	r7, [sp], #4
 472              	.LCFI35:
 473              		.cfi_restore 7
 474              		.cfi_def_cfa_offset 0
 475 0034 7047     		bx	lr
 476              	.L28:
 477 0036 00BF     		.align	2
 478              	.L27:
 479 0038 2C6C0040 		.word	1073769516
 480              		.cfi_endproc
 481              	.LFE123:
 483              		.section	.text.bkp_rtc_clock_output_select,"ax",%progbits
ARM GAS  C:\Users\49542\AppData\Local\Temp\ccsS4UGm.s 			page 12


 484              		.align	1
 485              		.global	bkp_rtc_clock_output_select
 486              		.syntax unified
 487              		.thumb
 488              		.thumb_func
 489              		.fpu fpv4-sp-d16
 491              	bkp_rtc_clock_output_select:
 492              	.LFB124:
 158:C:/Users/49542/Desktop/GD32F30x_Demo_Suites_V2.0.0/GD32F30x_Demo_Suites_V2.0.0/GD32F30x_Firmware_Library/GD32F30x_standard_peripheral/Source\gd32f30x_bkp.c **** 
 159:C:/Users/49542/Desktop/GD32F30x_Demo_Suites_V2.0.0/GD32F30x_Demo_Suites_V2.0.0/GD32F30x_Firmware_Library/GD32F30x_standard_peripheral/Source\gd32f30x_bkp.c **** /*!
 160:C:/Users/49542/Desktop/GD32F30x_Demo_Suites_V2.0.0/GD32F30x_Demo_Suites_V2.0.0/GD32F30x_Firmware_Library/GD32F30x_standard_peripheral/Source\gd32f30x_bkp.c ****     \brief      select RTC clock output
 161:C:/Users/49542/Desktop/GD32F30x_Demo_Suites_V2.0.0/GD32F30x_Demo_Suites_V2.0.0/GD32F30x_Firmware_Library/GD32F30x_standard_peripheral/Source\gd32f30x_bkp.c ****     \param[in]  clocksel: RTC clock output selection
 162:C:/Users/49542/Desktop/GD32F30x_Demo_Suites_V2.0.0/GD32F30x_Demo_Suites_V2.0.0/GD32F30x_Firmware_Library/GD32F30x_standard_peripheral/Source\gd32f30x_bkp.c ****       \arg        RTC_CLOCK_DIV_64: RTC clock div 64
 163:C:/Users/49542/Desktop/GD32F30x_Demo_Suites_V2.0.0/GD32F30x_Demo_Suites_V2.0.0/GD32F30x_Firmware_Library/GD32F30x_standard_peripheral/Source\gd32f30x_bkp.c ****       \arg        RTC_CLOCK_DIV_1: RTC clock
 164:C:/Users/49542/Desktop/GD32F30x_Demo_Suites_V2.0.0/GD32F30x_Demo_Suites_V2.0.0/GD32F30x_Firmware_Library/GD32F30x_standard_peripheral/Source\gd32f30x_bkp.c ****     \param[out] none
 165:C:/Users/49542/Desktop/GD32F30x_Demo_Suites_V2.0.0/GD32F30x_Demo_Suites_V2.0.0/GD32F30x_Firmware_Library/GD32F30x_standard_peripheral/Source\gd32f30x_bkp.c ****     \retval     none
 166:C:/Users/49542/Desktop/GD32F30x_Demo_Suites_V2.0.0/GD32F30x_Demo_Suites_V2.0.0/GD32F30x_Firmware_Library/GD32F30x_standard_peripheral/Source\gd32f30x_bkp.c **** */
 167:C:/Users/49542/Desktop/GD32F30x_Demo_Suites_V2.0.0/GD32F30x_Demo_Suites_V2.0.0/GD32F30x_Firmware_Library/GD32F30x_standard_peripheral/Source\gd32f30x_bkp.c **** void bkp_rtc_clock_output_select(uint16_t clocksel)
 168:C:/Users/49542/Desktop/GD32F30x_Demo_Suites_V2.0.0/GD32F30x_Demo_Suites_V2.0.0/GD32F30x_Firmware_Library/GD32F30x_standard_peripheral/Source\gd32f30x_bkp.c **** {
 493              		.loc 1 168 0
 494              		.cfi_startproc
 495              		@ args = 0, pretend = 0, frame = 16
 496              		@ frame_needed = 1, uses_anonymous_args = 0
 497              		@ link register save eliminated.
 498 0000 80B4     		push	{r7}
 499              	.LCFI36:
 500              		.cfi_def_cfa_offset 4
 501              		.cfi_offset 7, -4
 502 0002 85B0     		sub	sp, sp, #20
 503              	.LCFI37:
 504              		.cfi_def_cfa_offset 24
 505 0004 00AF     		add	r7, sp, #0
 506              	.LCFI38:
 507              		.cfi_def_cfa_register 7
 508 0006 0346     		mov	r3, r0
 509 0008 FB80     		strh	r3, [r7, #6]	@ movhi
 169:C:/Users/49542/Desktop/GD32F30x_Demo_Suites_V2.0.0/GD32F30x_Demo_Suites_V2.0.0/GD32F30x_Firmware_Library/GD32F30x_standard_peripheral/Source\gd32f30x_bkp.c ****     uint16_t ctl = 0U;
 510              		.loc 1 169 0
 511 000a 0023     		movs	r3, #0
 512 000c FB81     		strh	r3, [r7, #14]	@ movhi
 170:C:/Users/49542/Desktop/GD32F30x_Demo_Suites_V2.0.0/GD32F30x_Demo_Suites_V2.0.0/GD32F30x_Firmware_Library/GD32F30x_standard_peripheral/Source\gd32f30x_bkp.c ****     
 171:C:/Users/49542/Desktop/GD32F30x_Demo_Suites_V2.0.0/GD32F30x_Demo_Suites_V2.0.0/GD32F30x_Firmware_Library/GD32F30x_standard_peripheral/Source\gd32f30x_bkp.c ****     ctl = BKP_OCTL;
 513              		.loc 1 171 0
 514 000e 0A4B     		ldr	r3, .L30
 515 0010 1B88     		ldrh	r3, [r3]	@ movhi
 516 0012 FB81     		strh	r3, [r7, #14]	@ movhi
 172:C:/Users/49542/Desktop/GD32F30x_Demo_Suites_V2.0.0/GD32F30x_Demo_Suites_V2.0.0/GD32F30x_Firmware_Library/GD32F30x_standard_peripheral/Source\gd32f30x_bkp.c ****     ctl &= (uint16_t)~BKP_OCTL_CCOSEL;
 517              		.loc 1 172 0
 518 0014 FB89     		ldrh	r3, [r7, #14]	@ movhi
 519 0016 23F48043 		bic	r3, r3, #16384
 520 001a FB81     		strh	r3, [r7, #14]	@ movhi
 173:C:/Users/49542/Desktop/GD32F30x_Demo_Suites_V2.0.0/GD32F30x_Demo_Suites_V2.0.0/GD32F30x_Firmware_Library/GD32F30x_standard_peripheral/Source\gd32f30x_bkp.c ****     ctl |= clocksel;
 521              		.loc 1 173 0
 522 001c FA89     		ldrh	r2, [r7, #14]	@ movhi
 523 001e FB88     		ldrh	r3, [r7, #6]	@ movhi
 524 0020 1343     		orrs	r3, r3, r2
 525 0022 FB81     		strh	r3, [r7, #14]	@ movhi
ARM GAS  C:\Users\49542\AppData\Local\Temp\ccsS4UGm.s 			page 13


 174:C:/Users/49542/Desktop/GD32F30x_Demo_Suites_V2.0.0/GD32F30x_Demo_Suites_V2.0.0/GD32F30x_Firmware_Library/GD32F30x_standard_peripheral/Source\gd32f30x_bkp.c ****     BKP_OCTL = ctl;
 526              		.loc 1 174 0
 527 0024 044A     		ldr	r2, .L30
 528 0026 FB89     		ldrh	r3, [r7, #14]	@ movhi
 529 0028 1380     		strh	r3, [r2]	@ movhi
 175:C:/Users/49542/Desktop/GD32F30x_Demo_Suites_V2.0.0/GD32F30x_Demo_Suites_V2.0.0/GD32F30x_Firmware_Library/GD32F30x_standard_peripheral/Source\gd32f30x_bkp.c **** }
 530              		.loc 1 175 0
 531 002a 00BF     		nop
 532 002c 1437     		adds	r7, r7, #20
 533              	.LCFI39:
 534              		.cfi_def_cfa_offset 4
 535 002e BD46     		mov	sp, r7
 536              	.LCFI40:
 537              		.cfi_def_cfa_register 13
 538              		@ sp needed
 539 0030 5DF8047B 		ldr	r7, [sp], #4
 540              	.LCFI41:
 541              		.cfi_restore 7
 542              		.cfi_def_cfa_offset 0
 543 0034 7047     		bx	lr
 544              	.L31:
 545 0036 00BF     		.align	2
 546              	.L30:
 547 0038 2C6C0040 		.word	1073769516
 548              		.cfi_endproc
 549              	.LFE124:
 551              		.section	.text.bkp_rtc_clock_calibration_direction,"ax",%progbits
 552              		.align	1
 553              		.global	bkp_rtc_clock_calibration_direction
 554              		.syntax unified
 555              		.thumb
 556              		.thumb_func
 557              		.fpu fpv4-sp-d16
 559              	bkp_rtc_clock_calibration_direction:
 560              	.LFB125:
 176:C:/Users/49542/Desktop/GD32F30x_Demo_Suites_V2.0.0/GD32F30x_Demo_Suites_V2.0.0/GD32F30x_Firmware_Library/GD32F30x_standard_peripheral/Source\gd32f30x_bkp.c **** 
 177:C:/Users/49542/Desktop/GD32F30x_Demo_Suites_V2.0.0/GD32F30x_Demo_Suites_V2.0.0/GD32F30x_Firmware_Library/GD32F30x_standard_peripheral/Source\gd32f30x_bkp.c **** /*!
 178:C:/Users/49542/Desktop/GD32F30x_Demo_Suites_V2.0.0/GD32F30x_Demo_Suites_V2.0.0/GD32F30x_Firmware_Library/GD32F30x_standard_peripheral/Source\gd32f30x_bkp.c ****     \brief      RTC clock calibration direction
 179:C:/Users/49542/Desktop/GD32F30x_Demo_Suites_V2.0.0/GD32F30x_Demo_Suites_V2.0.0/GD32F30x_Firmware_Library/GD32F30x_standard_peripheral/Source\gd32f30x_bkp.c ****     \param[in]  direction: RTC clock calibration direction
 180:C:/Users/49542/Desktop/GD32F30x_Demo_Suites_V2.0.0/GD32F30x_Demo_Suites_V2.0.0/GD32F30x_Firmware_Library/GD32F30x_standard_peripheral/Source\gd32f30x_bkp.c ****       \arg        RTC_CLOCK_SLOWED_DOWN: RTC clock slow down
 181:C:/Users/49542/Desktop/GD32F30x_Demo_Suites_V2.0.0/GD32F30x_Demo_Suites_V2.0.0/GD32F30x_Firmware_Library/GD32F30x_standard_peripheral/Source\gd32f30x_bkp.c ****       \arg        RTC_CLOCK_SPEED_UP: RTC clock speed up
 182:C:/Users/49542/Desktop/GD32F30x_Demo_Suites_V2.0.0/GD32F30x_Demo_Suites_V2.0.0/GD32F30x_Firmware_Library/GD32F30x_standard_peripheral/Source\gd32f30x_bkp.c ****     \param[out] none
 183:C:/Users/49542/Desktop/GD32F30x_Demo_Suites_V2.0.0/GD32F30x_Demo_Suites_V2.0.0/GD32F30x_Firmware_Library/GD32F30x_standard_peripheral/Source\gd32f30x_bkp.c ****     \retval     none
 184:C:/Users/49542/Desktop/GD32F30x_Demo_Suites_V2.0.0/GD32F30x_Demo_Suites_V2.0.0/GD32F30x_Firmware_Library/GD32F30x_standard_peripheral/Source\gd32f30x_bkp.c **** */
 185:C:/Users/49542/Desktop/GD32F30x_Demo_Suites_V2.0.0/GD32F30x_Demo_Suites_V2.0.0/GD32F30x_Firmware_Library/GD32F30x_standard_peripheral/Source\gd32f30x_bkp.c **** void bkp_rtc_clock_calibration_direction(uint16_t direction)
 186:C:/Users/49542/Desktop/GD32F30x_Demo_Suites_V2.0.0/GD32F30x_Demo_Suites_V2.0.0/GD32F30x_Firmware_Library/GD32F30x_standard_peripheral/Source\gd32f30x_bkp.c **** {
 561              		.loc 1 186 0
 562              		.cfi_startproc
 563              		@ args = 0, pretend = 0, frame = 16
 564              		@ frame_needed = 1, uses_anonymous_args = 0
 565              		@ link register save eliminated.
 566 0000 80B4     		push	{r7}
 567              	.LCFI42:
 568              		.cfi_def_cfa_offset 4
 569              		.cfi_offset 7, -4
 570 0002 85B0     		sub	sp, sp, #20
 571              	.LCFI43:
ARM GAS  C:\Users\49542\AppData\Local\Temp\ccsS4UGm.s 			page 14


 572              		.cfi_def_cfa_offset 24
 573 0004 00AF     		add	r7, sp, #0
 574              	.LCFI44:
 575              		.cfi_def_cfa_register 7
 576 0006 0346     		mov	r3, r0
 577 0008 FB80     		strh	r3, [r7, #6]	@ movhi
 187:C:/Users/49542/Desktop/GD32F30x_Demo_Suites_V2.0.0/GD32F30x_Demo_Suites_V2.0.0/GD32F30x_Firmware_Library/GD32F30x_standard_peripheral/Source\gd32f30x_bkp.c ****     uint16_t ctl = 0U;
 578              		.loc 1 187 0
 579 000a 0023     		movs	r3, #0
 580 000c FB81     		strh	r3, [r7, #14]	@ movhi
 188:C:/Users/49542/Desktop/GD32F30x_Demo_Suites_V2.0.0/GD32F30x_Demo_Suites_V2.0.0/GD32F30x_Firmware_Library/GD32F30x_standard_peripheral/Source\gd32f30x_bkp.c ****     
 189:C:/Users/49542/Desktop/GD32F30x_Demo_Suites_V2.0.0/GD32F30x_Demo_Suites_V2.0.0/GD32F30x_Firmware_Library/GD32F30x_standard_peripheral/Source\gd32f30x_bkp.c ****     ctl = BKP_OCTL;
 581              		.loc 1 189 0
 582 000e 0A4B     		ldr	r3, .L33
 583 0010 1B88     		ldrh	r3, [r3]	@ movhi
 584 0012 FB81     		strh	r3, [r7, #14]	@ movhi
 190:C:/Users/49542/Desktop/GD32F30x_Demo_Suites_V2.0.0/GD32F30x_Demo_Suites_V2.0.0/GD32F30x_Firmware_Library/GD32F30x_standard_peripheral/Source\gd32f30x_bkp.c ****     ctl &= (uint16_t)~BKP_OCTL_CALDIR;
 585              		.loc 1 190 0
 586 0014 FB89     		ldrh	r3, [r7, #14]	@ movhi
 587 0016 C3F30E03 		ubfx	r3, r3, #0, #15
 588 001a FB81     		strh	r3, [r7, #14]	@ movhi
 191:C:/Users/49542/Desktop/GD32F30x_Demo_Suites_V2.0.0/GD32F30x_Demo_Suites_V2.0.0/GD32F30x_Firmware_Library/GD32F30x_standard_peripheral/Source\gd32f30x_bkp.c ****     ctl |= direction;
 589              		.loc 1 191 0
 590 001c FA89     		ldrh	r2, [r7, #14]	@ movhi
 591 001e FB88     		ldrh	r3, [r7, #6]	@ movhi
 592 0020 1343     		orrs	r3, r3, r2
 593 0022 FB81     		strh	r3, [r7, #14]	@ movhi
 192:C:/Users/49542/Desktop/GD32F30x_Demo_Suites_V2.0.0/GD32F30x_Demo_Suites_V2.0.0/GD32F30x_Firmware_Library/GD32F30x_standard_peripheral/Source\gd32f30x_bkp.c ****     BKP_OCTL = ctl;
 594              		.loc 1 192 0
 595 0024 044A     		ldr	r2, .L33
 596 0026 FB89     		ldrh	r3, [r7, #14]	@ movhi
 597 0028 1380     		strh	r3, [r2]	@ movhi
 193:C:/Users/49542/Desktop/GD32F30x_Demo_Suites_V2.0.0/GD32F30x_Demo_Suites_V2.0.0/GD32F30x_Firmware_Library/GD32F30x_standard_peripheral/Source\gd32f30x_bkp.c **** }
 598              		.loc 1 193 0
 599 002a 00BF     		nop
 600 002c 1437     		adds	r7, r7, #20
 601              	.LCFI45:
 602              		.cfi_def_cfa_offset 4
 603 002e BD46     		mov	sp, r7
 604              	.LCFI46:
 605              		.cfi_def_cfa_register 13
 606              		@ sp needed
 607 0030 5DF8047B 		ldr	r7, [sp], #4
 608              	.LCFI47:
 609              		.cfi_restore 7
 610              		.cfi_def_cfa_offset 0
 611 0034 7047     		bx	lr
 612              	.L34:
 613 0036 00BF     		.align	2
 614              	.L33:
 615 0038 2C6C0040 		.word	1073769516
 616              		.cfi_endproc
 617              	.LFE125:
 619              		.section	.text.bkp_rtc_calibration_value_set,"ax",%progbits
 620              		.align	1
 621              		.global	bkp_rtc_calibration_value_set
 622              		.syntax unified
ARM GAS  C:\Users\49542\AppData\Local\Temp\ccsS4UGm.s 			page 15


 623              		.thumb
 624              		.thumb_func
 625              		.fpu fpv4-sp-d16
 627              	bkp_rtc_calibration_value_set:
 628              	.LFB126:
 194:C:/Users/49542/Desktop/GD32F30x_Demo_Suites_V2.0.0/GD32F30x_Demo_Suites_V2.0.0/GD32F30x_Firmware_Library/GD32F30x_standard_peripheral/Source\gd32f30x_bkp.c **** 
 195:C:/Users/49542/Desktop/GD32F30x_Demo_Suites_V2.0.0/GD32F30x_Demo_Suites_V2.0.0/GD32F30x_Firmware_Library/GD32F30x_standard_peripheral/Source\gd32f30x_bkp.c **** /*!
 196:C:/Users/49542/Desktop/GD32F30x_Demo_Suites_V2.0.0/GD32F30x_Demo_Suites_V2.0.0/GD32F30x_Firmware_Library/GD32F30x_standard_peripheral/Source\gd32f30x_bkp.c ****     \brief      set RTC clock calibration value 
 197:C:/Users/49542/Desktop/GD32F30x_Demo_Suites_V2.0.0/GD32F30x_Demo_Suites_V2.0.0/GD32F30x_Firmware_Library/GD32F30x_standard_peripheral/Source\gd32f30x_bkp.c ****     \param[in]  value: RTC clock calibration value
 198:C:/Users/49542/Desktop/GD32F30x_Demo_Suites_V2.0.0/GD32F30x_Demo_Suites_V2.0.0/GD32F30x_Firmware_Library/GD32F30x_standard_peripheral/Source\gd32f30x_bkp.c ****       \arg        0x00 - 0x7F
 199:C:/Users/49542/Desktop/GD32F30x_Demo_Suites_V2.0.0/GD32F30x_Demo_Suites_V2.0.0/GD32F30x_Firmware_Library/GD32F30x_standard_peripheral/Source\gd32f30x_bkp.c ****     \param[out] none
 200:C:/Users/49542/Desktop/GD32F30x_Demo_Suites_V2.0.0/GD32F30x_Demo_Suites_V2.0.0/GD32F30x_Firmware_Library/GD32F30x_standard_peripheral/Source\gd32f30x_bkp.c ****     \retval     none
 201:C:/Users/49542/Desktop/GD32F30x_Demo_Suites_V2.0.0/GD32F30x_Demo_Suites_V2.0.0/GD32F30x_Firmware_Library/GD32F30x_standard_peripheral/Source\gd32f30x_bkp.c **** */
 202:C:/Users/49542/Desktop/GD32F30x_Demo_Suites_V2.0.0/GD32F30x_Demo_Suites_V2.0.0/GD32F30x_Firmware_Library/GD32F30x_standard_peripheral/Source\gd32f30x_bkp.c **** void bkp_rtc_calibration_value_set(uint8_t value)
 203:C:/Users/49542/Desktop/GD32F30x_Demo_Suites_V2.0.0/GD32F30x_Demo_Suites_V2.0.0/GD32F30x_Firmware_Library/GD32F30x_standard_peripheral/Source\gd32f30x_bkp.c **** {
 629              		.loc 1 203 0
 630              		.cfi_startproc
 631              		@ args = 0, pretend = 0, frame = 16
 632              		@ frame_needed = 1, uses_anonymous_args = 0
 633              		@ link register save eliminated.
 634 0000 80B4     		push	{r7}
 635              	.LCFI48:
 636              		.cfi_def_cfa_offset 4
 637              		.cfi_offset 7, -4
 638 0002 85B0     		sub	sp, sp, #20
 639              	.LCFI49:
 640              		.cfi_def_cfa_offset 24
 641 0004 00AF     		add	r7, sp, #0
 642              	.LCFI50:
 643              		.cfi_def_cfa_register 7
 644 0006 0346     		mov	r3, r0
 645 0008 FB71     		strb	r3, [r7, #7]
 204:C:/Users/49542/Desktop/GD32F30x_Demo_Suites_V2.0.0/GD32F30x_Demo_Suites_V2.0.0/GD32F30x_Firmware_Library/GD32F30x_standard_peripheral/Source\gd32f30x_bkp.c ****     uint16_t ctl;
 205:C:/Users/49542/Desktop/GD32F30x_Demo_Suites_V2.0.0/GD32F30x_Demo_Suites_V2.0.0/GD32F30x_Firmware_Library/GD32F30x_standard_peripheral/Source\gd32f30x_bkp.c ****     
 206:C:/Users/49542/Desktop/GD32F30x_Demo_Suites_V2.0.0/GD32F30x_Demo_Suites_V2.0.0/GD32F30x_Firmware_Library/GD32F30x_standard_peripheral/Source\gd32f30x_bkp.c ****     ctl = BKP_OCTL;
 646              		.loc 1 206 0
 647 000a 0C4B     		ldr	r3, .L36
 648 000c 1B88     		ldrh	r3, [r3]	@ movhi
 649 000e FB81     		strh	r3, [r7, #14]	@ movhi
 207:C:/Users/49542/Desktop/GD32F30x_Demo_Suites_V2.0.0/GD32F30x_Demo_Suites_V2.0.0/GD32F30x_Firmware_Library/GD32F30x_standard_peripheral/Source\gd32f30x_bkp.c ****     ctl &= (uint16_t)OCTL_RCCV(0);
 650              		.loc 1 207 0
 651 0010 0023     		movs	r3, #0
 652 0012 FB81     		strh	r3, [r7, #14]	@ movhi
 208:C:/Users/49542/Desktop/GD32F30x_Demo_Suites_V2.0.0/GD32F30x_Demo_Suites_V2.0.0/GD32F30x_Firmware_Library/GD32F30x_standard_peripheral/Source\gd32f30x_bkp.c ****     ctl |= (uint16_t)OCTL_RCCV(value);
 653              		.loc 1 208 0
 654 0014 FB79     		ldrb	r3, [r7, #7]	@ zero_extendqisi2
 655 0016 1BB2     		sxth	r3, r3
 656 0018 03F07F03 		and	r3, r3, #127
 657 001c 1AB2     		sxth	r2, r3
 658 001e B7F90E30 		ldrsh	r3, [r7, #14]
 659 0022 1343     		orrs	r3, r3, r2
 660 0024 1BB2     		sxth	r3, r3
 661 0026 FB81     		strh	r3, [r7, #14]	@ movhi
 209:C:/Users/49542/Desktop/GD32F30x_Demo_Suites_V2.0.0/GD32F30x_Demo_Suites_V2.0.0/GD32F30x_Firmware_Library/GD32F30x_standard_peripheral/Source\gd32f30x_bkp.c ****     BKP_OCTL = ctl;
 662              		.loc 1 209 0
 663 0028 044A     		ldr	r2, .L36
 664 002a FB89     		ldrh	r3, [r7, #14]	@ movhi
ARM GAS  C:\Users\49542\AppData\Local\Temp\ccsS4UGm.s 			page 16


 665 002c 1380     		strh	r3, [r2]	@ movhi
 210:C:/Users/49542/Desktop/GD32F30x_Demo_Suites_V2.0.0/GD32F30x_Demo_Suites_V2.0.0/GD32F30x_Firmware_Library/GD32F30x_standard_peripheral/Source\gd32f30x_bkp.c **** }
 666              		.loc 1 210 0
 667 002e 00BF     		nop
 668 0030 1437     		adds	r7, r7, #20
 669              	.LCFI51:
 670              		.cfi_def_cfa_offset 4
 671 0032 BD46     		mov	sp, r7
 672              	.LCFI52:
 673              		.cfi_def_cfa_register 13
 674              		@ sp needed
 675 0034 5DF8047B 		ldr	r7, [sp], #4
 676              	.LCFI53:
 677              		.cfi_restore 7
 678              		.cfi_def_cfa_offset 0
 679 0038 7047     		bx	lr
 680              	.L37:
 681 003a 00BF     		.align	2
 682              	.L36:
 683 003c 2C6C0040 		.word	1073769516
 684              		.cfi_endproc
 685              	.LFE126:
 687              		.section	.text.bkp_tamper_detection_enable,"ax",%progbits
 688              		.align	1
 689              		.global	bkp_tamper_detection_enable
 690              		.syntax unified
 691              		.thumb
 692              		.thumb_func
 693              		.fpu fpv4-sp-d16
 695              	bkp_tamper_detection_enable:
 696              	.LFB127:
 211:C:/Users/49542/Desktop/GD32F30x_Demo_Suites_V2.0.0/GD32F30x_Demo_Suites_V2.0.0/GD32F30x_Firmware_Library/GD32F30x_standard_peripheral/Source\gd32f30x_bkp.c **** 
 212:C:/Users/49542/Desktop/GD32F30x_Demo_Suites_V2.0.0/GD32F30x_Demo_Suites_V2.0.0/GD32F30x_Firmware_Library/GD32F30x_standard_peripheral/Source\gd32f30x_bkp.c **** /*!
 213:C:/Users/49542/Desktop/GD32F30x_Demo_Suites_V2.0.0/GD32F30x_Demo_Suites_V2.0.0/GD32F30x_Firmware_Library/GD32F30x_standard_peripheral/Source\gd32f30x_bkp.c ****     \brief      enable tamper detection
 214:C:/Users/49542/Desktop/GD32F30x_Demo_Suites_V2.0.0/GD32F30x_Demo_Suites_V2.0.0/GD32F30x_Firmware_Library/GD32F30x_standard_peripheral/Source\gd32f30x_bkp.c ****     \param[in]  none
 215:C:/Users/49542/Desktop/GD32F30x_Demo_Suites_V2.0.0/GD32F30x_Demo_Suites_V2.0.0/GD32F30x_Firmware_Library/GD32F30x_standard_peripheral/Source\gd32f30x_bkp.c ****     \param[out] none
 216:C:/Users/49542/Desktop/GD32F30x_Demo_Suites_V2.0.0/GD32F30x_Demo_Suites_V2.0.0/GD32F30x_Firmware_Library/GD32F30x_standard_peripheral/Source\gd32f30x_bkp.c ****     \retval     none
 217:C:/Users/49542/Desktop/GD32F30x_Demo_Suites_V2.0.0/GD32F30x_Demo_Suites_V2.0.0/GD32F30x_Firmware_Library/GD32F30x_standard_peripheral/Source\gd32f30x_bkp.c **** */
 218:C:/Users/49542/Desktop/GD32F30x_Demo_Suites_V2.0.0/GD32F30x_Demo_Suites_V2.0.0/GD32F30x_Firmware_Library/GD32F30x_standard_peripheral/Source\gd32f30x_bkp.c **** void bkp_tamper_detection_enable(void)
 219:C:/Users/49542/Desktop/GD32F30x_Demo_Suites_V2.0.0/GD32F30x_Demo_Suites_V2.0.0/GD32F30x_Firmware_Library/GD32F30x_standard_peripheral/Source\gd32f30x_bkp.c **** {
 697              		.loc 1 219 0
 698              		.cfi_startproc
 699              		@ args = 0, pretend = 0, frame = 0
 700              		@ frame_needed = 1, uses_anonymous_args = 0
 701              		@ link register save eliminated.
 702 0000 80B4     		push	{r7}
 703              	.LCFI54:
 704              		.cfi_def_cfa_offset 4
 705              		.cfi_offset 7, -4
 706 0002 00AF     		add	r7, sp, #0
 707              	.LCFI55:
 708              		.cfi_def_cfa_register 7
 220:C:/Users/49542/Desktop/GD32F30x_Demo_Suites_V2.0.0/GD32F30x_Demo_Suites_V2.0.0/GD32F30x_Firmware_Library/GD32F30x_standard_peripheral/Source\gd32f30x_bkp.c ****     BKP_TPCTL |= (uint16_t)BKP_TPCTL_TPEN;
 709              		.loc 1 220 0
 710 0004 064B     		ldr	r3, .L39
 711 0006 1B88     		ldrh	r3, [r3]	@ movhi
 712 0008 9BB2     		uxth	r3, r3
ARM GAS  C:\Users\49542\AppData\Local\Temp\ccsS4UGm.s 			page 17


 713 000a 054A     		ldr	r2, .L39
 714 000c 43F00103 		orr	r3, r3, #1
 715 0010 9BB2     		uxth	r3, r3
 716 0012 1380     		strh	r3, [r2]	@ movhi
 221:C:/Users/49542/Desktop/GD32F30x_Demo_Suites_V2.0.0/GD32F30x_Demo_Suites_V2.0.0/GD32F30x_Firmware_Library/GD32F30x_standard_peripheral/Source\gd32f30x_bkp.c **** }
 717              		.loc 1 221 0
 718 0014 00BF     		nop
 719 0016 BD46     		mov	sp, r7
 720              	.LCFI56:
 721              		.cfi_def_cfa_register 13
 722              		@ sp needed
 723 0018 5DF8047B 		ldr	r7, [sp], #4
 724              	.LCFI57:
 725              		.cfi_restore 7
 726              		.cfi_def_cfa_offset 0
 727 001c 7047     		bx	lr
 728              	.L40:
 729 001e 00BF     		.align	2
 730              	.L39:
 731 0020 306C0040 		.word	1073769520
 732              		.cfi_endproc
 733              	.LFE127:
 735              		.section	.text.bkp_tamper_detection_disable,"ax",%progbits
 736              		.align	1
 737              		.global	bkp_tamper_detection_disable
 738              		.syntax unified
 739              		.thumb
 740              		.thumb_func
 741              		.fpu fpv4-sp-d16
 743              	bkp_tamper_detection_disable:
 744              	.LFB128:
 222:C:/Users/49542/Desktop/GD32F30x_Demo_Suites_V2.0.0/GD32F30x_Demo_Suites_V2.0.0/GD32F30x_Firmware_Library/GD32F30x_standard_peripheral/Source\gd32f30x_bkp.c **** 
 223:C:/Users/49542/Desktop/GD32F30x_Demo_Suites_V2.0.0/GD32F30x_Demo_Suites_V2.0.0/GD32F30x_Firmware_Library/GD32F30x_standard_peripheral/Source\gd32f30x_bkp.c **** /*!
 224:C:/Users/49542/Desktop/GD32F30x_Demo_Suites_V2.0.0/GD32F30x_Demo_Suites_V2.0.0/GD32F30x_Firmware_Library/GD32F30x_standard_peripheral/Source\gd32f30x_bkp.c ****     \brief      disable tamper detection
 225:C:/Users/49542/Desktop/GD32F30x_Demo_Suites_V2.0.0/GD32F30x_Demo_Suites_V2.0.0/GD32F30x_Firmware_Library/GD32F30x_standard_peripheral/Source\gd32f30x_bkp.c ****     \param[in]  none
 226:C:/Users/49542/Desktop/GD32F30x_Demo_Suites_V2.0.0/GD32F30x_Demo_Suites_V2.0.0/GD32F30x_Firmware_Library/GD32F30x_standard_peripheral/Source\gd32f30x_bkp.c ****     \param[out] none
 227:C:/Users/49542/Desktop/GD32F30x_Demo_Suites_V2.0.0/GD32F30x_Demo_Suites_V2.0.0/GD32F30x_Firmware_Library/GD32F30x_standard_peripheral/Source\gd32f30x_bkp.c ****     \retval     none
 228:C:/Users/49542/Desktop/GD32F30x_Demo_Suites_V2.0.0/GD32F30x_Demo_Suites_V2.0.0/GD32F30x_Firmware_Library/GD32F30x_standard_peripheral/Source\gd32f30x_bkp.c **** */
 229:C:/Users/49542/Desktop/GD32F30x_Demo_Suites_V2.0.0/GD32F30x_Demo_Suites_V2.0.0/GD32F30x_Firmware_Library/GD32F30x_standard_peripheral/Source\gd32f30x_bkp.c **** void bkp_tamper_detection_disable(void)
 230:C:/Users/49542/Desktop/GD32F30x_Demo_Suites_V2.0.0/GD32F30x_Demo_Suites_V2.0.0/GD32F30x_Firmware_Library/GD32F30x_standard_peripheral/Source\gd32f30x_bkp.c **** {
 745              		.loc 1 230 0
 746              		.cfi_startproc
 747              		@ args = 0, pretend = 0, frame = 0
 748              		@ frame_needed = 1, uses_anonymous_args = 0
 749              		@ link register save eliminated.
 750 0000 80B4     		push	{r7}
 751              	.LCFI58:
 752              		.cfi_def_cfa_offset 4
 753              		.cfi_offset 7, -4
 754 0002 00AF     		add	r7, sp, #0
 755              	.LCFI59:
 756              		.cfi_def_cfa_register 7
 231:C:/Users/49542/Desktop/GD32F30x_Demo_Suites_V2.0.0/GD32F30x_Demo_Suites_V2.0.0/GD32F30x_Firmware_Library/GD32F30x_standard_peripheral/Source\gd32f30x_bkp.c ****     BKP_TPCTL &= (uint16_t)~BKP_TPCTL_TPEN;
 757              		.loc 1 231 0
 758 0004 064B     		ldr	r3, .L42
 759 0006 1B88     		ldrh	r3, [r3]	@ movhi
 760 0008 9BB2     		uxth	r3, r3
ARM GAS  C:\Users\49542\AppData\Local\Temp\ccsS4UGm.s 			page 18


 761 000a 054A     		ldr	r2, .L42
 762 000c 23F00103 		bic	r3, r3, #1
 763 0010 9BB2     		uxth	r3, r3
 764 0012 1380     		strh	r3, [r2]	@ movhi
 232:C:/Users/49542/Desktop/GD32F30x_Demo_Suites_V2.0.0/GD32F30x_Demo_Suites_V2.0.0/GD32F30x_Firmware_Library/GD32F30x_standard_peripheral/Source\gd32f30x_bkp.c **** }
 765              		.loc 1 232 0
 766 0014 00BF     		nop
 767 0016 BD46     		mov	sp, r7
 768              	.LCFI60:
 769              		.cfi_def_cfa_register 13
 770              		@ sp needed
 771 0018 5DF8047B 		ldr	r7, [sp], #4
 772              	.LCFI61:
 773              		.cfi_restore 7
 774              		.cfi_def_cfa_offset 0
 775 001c 7047     		bx	lr
 776              	.L43:
 777 001e 00BF     		.align	2
 778              	.L42:
 779 0020 306C0040 		.word	1073769520
 780              		.cfi_endproc
 781              	.LFE128:
 783              		.section	.text.bkp_tamper_active_level_set,"ax",%progbits
 784              		.align	1
 785              		.global	bkp_tamper_active_level_set
 786              		.syntax unified
 787              		.thumb
 788              		.thumb_func
 789              		.fpu fpv4-sp-d16
 791              	bkp_tamper_active_level_set:
 792              	.LFB129:
 233:C:/Users/49542/Desktop/GD32F30x_Demo_Suites_V2.0.0/GD32F30x_Demo_Suites_V2.0.0/GD32F30x_Firmware_Library/GD32F30x_standard_peripheral/Source\gd32f30x_bkp.c **** 
 234:C:/Users/49542/Desktop/GD32F30x_Demo_Suites_V2.0.0/GD32F30x_Demo_Suites_V2.0.0/GD32F30x_Firmware_Library/GD32F30x_standard_peripheral/Source\gd32f30x_bkp.c **** /*!
 235:C:/Users/49542/Desktop/GD32F30x_Demo_Suites_V2.0.0/GD32F30x_Demo_Suites_V2.0.0/GD32F30x_Firmware_Library/GD32F30x_standard_peripheral/Source\gd32f30x_bkp.c ****     \brief      set tamper pin active level
 236:C:/Users/49542/Desktop/GD32F30x_Demo_Suites_V2.0.0/GD32F30x_Demo_Suites_V2.0.0/GD32F30x_Firmware_Library/GD32F30x_standard_peripheral/Source\gd32f30x_bkp.c ****     \param[in]  level: tamper active level
 237:C:/Users/49542/Desktop/GD32F30x_Demo_Suites_V2.0.0/GD32F30x_Demo_Suites_V2.0.0/GD32F30x_Firmware_Library/GD32F30x_standard_peripheral/Source\gd32f30x_bkp.c ****       \arg        TAMPER_PIN_ACTIVE_HIGH: the tamper pin is active high
 238:C:/Users/49542/Desktop/GD32F30x_Demo_Suites_V2.0.0/GD32F30x_Demo_Suites_V2.0.0/GD32F30x_Firmware_Library/GD32F30x_standard_peripheral/Source\gd32f30x_bkp.c ****       \arg        TAMPER_PIN_ACTIVE_LOW: the tamper pin is active low
 239:C:/Users/49542/Desktop/GD32F30x_Demo_Suites_V2.0.0/GD32F30x_Demo_Suites_V2.0.0/GD32F30x_Firmware_Library/GD32F30x_standard_peripheral/Source\gd32f30x_bkp.c ****     \param[out] none
 240:C:/Users/49542/Desktop/GD32F30x_Demo_Suites_V2.0.0/GD32F30x_Demo_Suites_V2.0.0/GD32F30x_Firmware_Library/GD32F30x_standard_peripheral/Source\gd32f30x_bkp.c ****     \retval     none
 241:C:/Users/49542/Desktop/GD32F30x_Demo_Suites_V2.0.0/GD32F30x_Demo_Suites_V2.0.0/GD32F30x_Firmware_Library/GD32F30x_standard_peripheral/Source\gd32f30x_bkp.c **** */
 242:C:/Users/49542/Desktop/GD32F30x_Demo_Suites_V2.0.0/GD32F30x_Demo_Suites_V2.0.0/GD32F30x_Firmware_Library/GD32F30x_standard_peripheral/Source\gd32f30x_bkp.c **** void bkp_tamper_active_level_set(uint16_t level)
 243:C:/Users/49542/Desktop/GD32F30x_Demo_Suites_V2.0.0/GD32F30x_Demo_Suites_V2.0.0/GD32F30x_Firmware_Library/GD32F30x_standard_peripheral/Source\gd32f30x_bkp.c **** {
 793              		.loc 1 243 0
 794              		.cfi_startproc
 795              		@ args = 0, pretend = 0, frame = 16
 796              		@ frame_needed = 1, uses_anonymous_args = 0
 797              		@ link register save eliminated.
 798 0000 80B4     		push	{r7}
 799              	.LCFI62:
 800              		.cfi_def_cfa_offset 4
 801              		.cfi_offset 7, -4
 802 0002 85B0     		sub	sp, sp, #20
 803              	.LCFI63:
 804              		.cfi_def_cfa_offset 24
 805 0004 00AF     		add	r7, sp, #0
 806              	.LCFI64:
 807              		.cfi_def_cfa_register 7
ARM GAS  C:\Users\49542\AppData\Local\Temp\ccsS4UGm.s 			page 19


 808 0006 0346     		mov	r3, r0
 809 0008 FB80     		strh	r3, [r7, #6]	@ movhi
 244:C:/Users/49542/Desktop/GD32F30x_Demo_Suites_V2.0.0/GD32F30x_Demo_Suites_V2.0.0/GD32F30x_Firmware_Library/GD32F30x_standard_peripheral/Source\gd32f30x_bkp.c ****     uint16_t ctl = 0U;
 810              		.loc 1 244 0
 811 000a 0023     		movs	r3, #0
 812 000c FB81     		strh	r3, [r7, #14]	@ movhi
 245:C:/Users/49542/Desktop/GD32F30x_Demo_Suites_V2.0.0/GD32F30x_Demo_Suites_V2.0.0/GD32F30x_Firmware_Library/GD32F30x_standard_peripheral/Source\gd32f30x_bkp.c ****     
 246:C:/Users/49542/Desktop/GD32F30x_Demo_Suites_V2.0.0/GD32F30x_Demo_Suites_V2.0.0/GD32F30x_Firmware_Library/GD32F30x_standard_peripheral/Source\gd32f30x_bkp.c ****     ctl = BKP_TPCTL;
 813              		.loc 1 246 0
 814 000e 0A4B     		ldr	r3, .L45
 815 0010 1B88     		ldrh	r3, [r3]	@ movhi
 816 0012 FB81     		strh	r3, [r7, #14]	@ movhi
 247:C:/Users/49542/Desktop/GD32F30x_Demo_Suites_V2.0.0/GD32F30x_Demo_Suites_V2.0.0/GD32F30x_Firmware_Library/GD32F30x_standard_peripheral/Source\gd32f30x_bkp.c ****     ctl &= (uint16_t)~BKP_TPCTL_TPAL;
 817              		.loc 1 247 0
 818 0014 FB89     		ldrh	r3, [r7, #14]	@ movhi
 819 0016 23F00203 		bic	r3, r3, #2
 820 001a FB81     		strh	r3, [r7, #14]	@ movhi
 248:C:/Users/49542/Desktop/GD32F30x_Demo_Suites_V2.0.0/GD32F30x_Demo_Suites_V2.0.0/GD32F30x_Firmware_Library/GD32F30x_standard_peripheral/Source\gd32f30x_bkp.c ****     ctl |= level;
 821              		.loc 1 248 0
 822 001c FA89     		ldrh	r2, [r7, #14]	@ movhi
 823 001e FB88     		ldrh	r3, [r7, #6]	@ movhi
 824 0020 1343     		orrs	r3, r3, r2
 825 0022 FB81     		strh	r3, [r7, #14]	@ movhi
 249:C:/Users/49542/Desktop/GD32F30x_Demo_Suites_V2.0.0/GD32F30x_Demo_Suites_V2.0.0/GD32F30x_Firmware_Library/GD32F30x_standard_peripheral/Source\gd32f30x_bkp.c ****     BKP_TPCTL = ctl;
 826              		.loc 1 249 0
 827 0024 044A     		ldr	r2, .L45
 828 0026 FB89     		ldrh	r3, [r7, #14]	@ movhi
 829 0028 1380     		strh	r3, [r2]	@ movhi
 250:C:/Users/49542/Desktop/GD32F30x_Demo_Suites_V2.0.0/GD32F30x_Demo_Suites_V2.0.0/GD32F30x_Firmware_Library/GD32F30x_standard_peripheral/Source\gd32f30x_bkp.c **** }
 830              		.loc 1 250 0
 831 002a 00BF     		nop
 832 002c 1437     		adds	r7, r7, #20
 833              	.LCFI65:
 834              		.cfi_def_cfa_offset 4
 835 002e BD46     		mov	sp, r7
 836              	.LCFI66:
 837              		.cfi_def_cfa_register 13
 838              		@ sp needed
 839 0030 5DF8047B 		ldr	r7, [sp], #4
 840              	.LCFI67:
 841              		.cfi_restore 7
 842              		.cfi_def_cfa_offset 0
 843 0034 7047     		bx	lr
 844              	.L46:
 845 0036 00BF     		.align	2
 846              	.L45:
 847 0038 306C0040 		.word	1073769520
 848              		.cfi_endproc
 849              	.LFE129:
 851              		.section	.text.bkp_tamper_interrupt_enable,"ax",%progbits
 852              		.align	1
 853              		.global	bkp_tamper_interrupt_enable
 854              		.syntax unified
 855              		.thumb
 856              		.thumb_func
 857              		.fpu fpv4-sp-d16
 859              	bkp_tamper_interrupt_enable:
ARM GAS  C:\Users\49542\AppData\Local\Temp\ccsS4UGm.s 			page 20


 860              	.LFB130:
 251:C:/Users/49542/Desktop/GD32F30x_Demo_Suites_V2.0.0/GD32F30x_Demo_Suites_V2.0.0/GD32F30x_Firmware_Library/GD32F30x_standard_peripheral/Source\gd32f30x_bkp.c **** 
 252:C:/Users/49542/Desktop/GD32F30x_Demo_Suites_V2.0.0/GD32F30x_Demo_Suites_V2.0.0/GD32F30x_Firmware_Library/GD32F30x_standard_peripheral/Source\gd32f30x_bkp.c **** /*!
 253:C:/Users/49542/Desktop/GD32F30x_Demo_Suites_V2.0.0/GD32F30x_Demo_Suites_V2.0.0/GD32F30x_Firmware_Library/GD32F30x_standard_peripheral/Source\gd32f30x_bkp.c ****     \brief      enable tamper interrupt
 254:C:/Users/49542/Desktop/GD32F30x_Demo_Suites_V2.0.0/GD32F30x_Demo_Suites_V2.0.0/GD32F30x_Firmware_Library/GD32F30x_standard_peripheral/Source\gd32f30x_bkp.c ****     \param[in]  none
 255:C:/Users/49542/Desktop/GD32F30x_Demo_Suites_V2.0.0/GD32F30x_Demo_Suites_V2.0.0/GD32F30x_Firmware_Library/GD32F30x_standard_peripheral/Source\gd32f30x_bkp.c ****     \param[out] none
 256:C:/Users/49542/Desktop/GD32F30x_Demo_Suites_V2.0.0/GD32F30x_Demo_Suites_V2.0.0/GD32F30x_Firmware_Library/GD32F30x_standard_peripheral/Source\gd32f30x_bkp.c ****     \retval     none
 257:C:/Users/49542/Desktop/GD32F30x_Demo_Suites_V2.0.0/GD32F30x_Demo_Suites_V2.0.0/GD32F30x_Firmware_Library/GD32F30x_standard_peripheral/Source\gd32f30x_bkp.c **** */
 258:C:/Users/49542/Desktop/GD32F30x_Demo_Suites_V2.0.0/GD32F30x_Demo_Suites_V2.0.0/GD32F30x_Firmware_Library/GD32F30x_standard_peripheral/Source\gd32f30x_bkp.c **** void bkp_tamper_interrupt_enable(void)
 259:C:/Users/49542/Desktop/GD32F30x_Demo_Suites_V2.0.0/GD32F30x_Demo_Suites_V2.0.0/GD32F30x_Firmware_Library/GD32F30x_standard_peripheral/Source\gd32f30x_bkp.c **** {
 861              		.loc 1 259 0
 862              		.cfi_startproc
 863              		@ args = 0, pretend = 0, frame = 0
 864              		@ frame_needed = 1, uses_anonymous_args = 0
 865              		@ link register save eliminated.
 866 0000 80B4     		push	{r7}
 867              	.LCFI68:
 868              		.cfi_def_cfa_offset 4
 869              		.cfi_offset 7, -4
 870 0002 00AF     		add	r7, sp, #0
 871              	.LCFI69:
 872              		.cfi_def_cfa_register 7
 260:C:/Users/49542/Desktop/GD32F30x_Demo_Suites_V2.0.0/GD32F30x_Demo_Suites_V2.0.0/GD32F30x_Firmware_Library/GD32F30x_standard_peripheral/Source\gd32f30x_bkp.c ****     BKP_TPCS |= (uint16_t)BKP_TPCS_TPIE;
 873              		.loc 1 260 0
 874 0004 064B     		ldr	r3, .L48
 875 0006 1B88     		ldrh	r3, [r3]	@ movhi
 876 0008 9BB2     		uxth	r3, r3
 877 000a 054A     		ldr	r2, .L48
 878 000c 43F00403 		orr	r3, r3, #4
 879 0010 9BB2     		uxth	r3, r3
 880 0012 1380     		strh	r3, [r2]	@ movhi
 261:C:/Users/49542/Desktop/GD32F30x_Demo_Suites_V2.0.0/GD32F30x_Demo_Suites_V2.0.0/GD32F30x_Firmware_Library/GD32F30x_standard_peripheral/Source\gd32f30x_bkp.c **** }
 881              		.loc 1 261 0
 882 0014 00BF     		nop
 883 0016 BD46     		mov	sp, r7
 884              	.LCFI70:
 885              		.cfi_def_cfa_register 13
 886              		@ sp needed
 887 0018 5DF8047B 		ldr	r7, [sp], #4
 888              	.LCFI71:
 889              		.cfi_restore 7
 890              		.cfi_def_cfa_offset 0
 891 001c 7047     		bx	lr
 892              	.L49:
 893 001e 00BF     		.align	2
 894              	.L48:
 895 0020 346C0040 		.word	1073769524
 896              		.cfi_endproc
 897              	.LFE130:
 899              		.section	.text.bkp_tamper_interrupt_disable,"ax",%progbits
 900              		.align	1
 901              		.global	bkp_tamper_interrupt_disable
 902              		.syntax unified
 903              		.thumb
 904              		.thumb_func
 905              		.fpu fpv4-sp-d16
 907              	bkp_tamper_interrupt_disable:
ARM GAS  C:\Users\49542\AppData\Local\Temp\ccsS4UGm.s 			page 21


 908              	.LFB131:
 262:C:/Users/49542/Desktop/GD32F30x_Demo_Suites_V2.0.0/GD32F30x_Demo_Suites_V2.0.0/GD32F30x_Firmware_Library/GD32F30x_standard_peripheral/Source\gd32f30x_bkp.c **** 
 263:C:/Users/49542/Desktop/GD32F30x_Demo_Suites_V2.0.0/GD32F30x_Demo_Suites_V2.0.0/GD32F30x_Firmware_Library/GD32F30x_standard_peripheral/Source\gd32f30x_bkp.c **** /*!
 264:C:/Users/49542/Desktop/GD32F30x_Demo_Suites_V2.0.0/GD32F30x_Demo_Suites_V2.0.0/GD32F30x_Firmware_Library/GD32F30x_standard_peripheral/Source\gd32f30x_bkp.c ****     \brief      disable tamper interrupt
 265:C:/Users/49542/Desktop/GD32F30x_Demo_Suites_V2.0.0/GD32F30x_Demo_Suites_V2.0.0/GD32F30x_Firmware_Library/GD32F30x_standard_peripheral/Source\gd32f30x_bkp.c ****     \param[in]  none
 266:C:/Users/49542/Desktop/GD32F30x_Demo_Suites_V2.0.0/GD32F30x_Demo_Suites_V2.0.0/GD32F30x_Firmware_Library/GD32F30x_standard_peripheral/Source\gd32f30x_bkp.c ****     \param[out] none
 267:C:/Users/49542/Desktop/GD32F30x_Demo_Suites_V2.0.0/GD32F30x_Demo_Suites_V2.0.0/GD32F30x_Firmware_Library/GD32F30x_standard_peripheral/Source\gd32f30x_bkp.c ****     \retval     none
 268:C:/Users/49542/Desktop/GD32F30x_Demo_Suites_V2.0.0/GD32F30x_Demo_Suites_V2.0.0/GD32F30x_Firmware_Library/GD32F30x_standard_peripheral/Source\gd32f30x_bkp.c **** */
 269:C:/Users/49542/Desktop/GD32F30x_Demo_Suites_V2.0.0/GD32F30x_Demo_Suites_V2.0.0/GD32F30x_Firmware_Library/GD32F30x_standard_peripheral/Source\gd32f30x_bkp.c **** void bkp_tamper_interrupt_disable(void)
 270:C:/Users/49542/Desktop/GD32F30x_Demo_Suites_V2.0.0/GD32F30x_Demo_Suites_V2.0.0/GD32F30x_Firmware_Library/GD32F30x_standard_peripheral/Source\gd32f30x_bkp.c **** {
 909              		.loc 1 270 0
 910              		.cfi_startproc
 911              		@ args = 0, pretend = 0, frame = 0
 912              		@ frame_needed = 1, uses_anonymous_args = 0
 913              		@ link register save eliminated.
 914 0000 80B4     		push	{r7}
 915              	.LCFI72:
 916              		.cfi_def_cfa_offset 4
 917              		.cfi_offset 7, -4
 918 0002 00AF     		add	r7, sp, #0
 919              	.LCFI73:
 920              		.cfi_def_cfa_register 7
 271:C:/Users/49542/Desktop/GD32F30x_Demo_Suites_V2.0.0/GD32F30x_Demo_Suites_V2.0.0/GD32F30x_Firmware_Library/GD32F30x_standard_peripheral/Source\gd32f30x_bkp.c ****     BKP_TPCS &= (uint16_t)~BKP_TPCS_TPIE;
 921              		.loc 1 271 0
 922 0004 064B     		ldr	r3, .L51
 923 0006 1B88     		ldrh	r3, [r3]	@ movhi
 924 0008 9BB2     		uxth	r3, r3
 925 000a 054A     		ldr	r2, .L51
 926 000c 23F00403 		bic	r3, r3, #4
 927 0010 9BB2     		uxth	r3, r3
 928 0012 1380     		strh	r3, [r2]	@ movhi
 272:C:/Users/49542/Desktop/GD32F30x_Demo_Suites_V2.0.0/GD32F30x_Demo_Suites_V2.0.0/GD32F30x_Firmware_Library/GD32F30x_standard_peripheral/Source\gd32f30x_bkp.c **** }
 929              		.loc 1 272 0
 930 0014 00BF     		nop
 931 0016 BD46     		mov	sp, r7
 932              	.LCFI74:
 933              		.cfi_def_cfa_register 13
 934              		@ sp needed
 935 0018 5DF8047B 		ldr	r7, [sp], #4
 936              	.LCFI75:
 937              		.cfi_restore 7
 938              		.cfi_def_cfa_offset 0
 939 001c 7047     		bx	lr
 940              	.L52:
 941 001e 00BF     		.align	2
 942              	.L51:
 943 0020 346C0040 		.word	1073769524
 944              		.cfi_endproc
 945              	.LFE131:
 947              		.section	.text.bkp_flag_get,"ax",%progbits
 948              		.align	1
 949              		.global	bkp_flag_get
 950              		.syntax unified
 951              		.thumb
 952              		.thumb_func
 953              		.fpu fpv4-sp-d16
 955              	bkp_flag_get:
ARM GAS  C:\Users\49542\AppData\Local\Temp\ccsS4UGm.s 			page 22


 956              	.LFB132:
 273:C:/Users/49542/Desktop/GD32F30x_Demo_Suites_V2.0.0/GD32F30x_Demo_Suites_V2.0.0/GD32F30x_Firmware_Library/GD32F30x_standard_peripheral/Source\gd32f30x_bkp.c **** 
 274:C:/Users/49542/Desktop/GD32F30x_Demo_Suites_V2.0.0/GD32F30x_Demo_Suites_V2.0.0/GD32F30x_Firmware_Library/GD32F30x_standard_peripheral/Source\gd32f30x_bkp.c **** /*!
 275:C:/Users/49542/Desktop/GD32F30x_Demo_Suites_V2.0.0/GD32F30x_Demo_Suites_V2.0.0/GD32F30x_Firmware_Library/GD32F30x_standard_peripheral/Source\gd32f30x_bkp.c ****     \brief      get bkp flag state
 276:C:/Users/49542/Desktop/GD32F30x_Demo_Suites_V2.0.0/GD32F30x_Demo_Suites_V2.0.0/GD32F30x_Firmware_Library/GD32F30x_standard_peripheral/Source\gd32f30x_bkp.c ****     \param[in]  flag
 277:C:/Users/49542/Desktop/GD32F30x_Demo_Suites_V2.0.0/GD32F30x_Demo_Suites_V2.0.0/GD32F30x_Firmware_Library/GD32F30x_standard_peripheral/Source\gd32f30x_bkp.c ****       \arg        BKP_FLAG_TAMPER: tamper event flag
 278:C:/Users/49542/Desktop/GD32F30x_Demo_Suites_V2.0.0/GD32F30x_Demo_Suites_V2.0.0/GD32F30x_Firmware_Library/GD32F30x_standard_peripheral/Source\gd32f30x_bkp.c ****     \param[out] none
 279:C:/Users/49542/Desktop/GD32F30x_Demo_Suites_V2.0.0/GD32F30x_Demo_Suites_V2.0.0/GD32F30x_Firmware_Library/GD32F30x_standard_peripheral/Source\gd32f30x_bkp.c ****     \retval     FlagStatus: SET or RESET
 280:C:/Users/49542/Desktop/GD32F30x_Demo_Suites_V2.0.0/GD32F30x_Demo_Suites_V2.0.0/GD32F30x_Firmware_Library/GD32F30x_standard_peripheral/Source\gd32f30x_bkp.c **** */
 281:C:/Users/49542/Desktop/GD32F30x_Demo_Suites_V2.0.0/GD32F30x_Demo_Suites_V2.0.0/GD32F30x_Firmware_Library/GD32F30x_standard_peripheral/Source\gd32f30x_bkp.c **** FlagStatus bkp_flag_get(uint16_t flag)
 282:C:/Users/49542/Desktop/GD32F30x_Demo_Suites_V2.0.0/GD32F30x_Demo_Suites_V2.0.0/GD32F30x_Firmware_Library/GD32F30x_standard_peripheral/Source\gd32f30x_bkp.c **** {
 957              		.loc 1 282 0
 958              		.cfi_startproc
 959              		@ args = 0, pretend = 0, frame = 8
 960              		@ frame_needed = 1, uses_anonymous_args = 0
 961              		@ link register save eliminated.
 962 0000 80B4     		push	{r7}
 963              	.LCFI76:
 964              		.cfi_def_cfa_offset 4
 965              		.cfi_offset 7, -4
 966 0002 83B0     		sub	sp, sp, #12
 967              	.LCFI77:
 968              		.cfi_def_cfa_offset 16
 969 0004 00AF     		add	r7, sp, #0
 970              	.LCFI78:
 971              		.cfi_def_cfa_register 7
 972 0006 0346     		mov	r3, r0
 973 0008 FB80     		strh	r3, [r7, #6]	@ movhi
 283:C:/Users/49542/Desktop/GD32F30x_Demo_Suites_V2.0.0/GD32F30x_Demo_Suites_V2.0.0/GD32F30x_Firmware_Library/GD32F30x_standard_peripheral/Source\gd32f30x_bkp.c ****     if(RESET != (BKP_TPCS & flag)){
 974              		.loc 1 283 0
 975 000a 084B     		ldr	r3, .L56
 976 000c 1B88     		ldrh	r3, [r3]	@ movhi
 977 000e 9AB2     		uxth	r2, r3
 978 0010 FB88     		ldrh	r3, [r7, #6]	@ movhi
 979 0012 1340     		ands	r3, r3, r2
 980 0014 9BB2     		uxth	r3, r3
 981 0016 002B     		cmp	r3, #0
 982 0018 01D0     		beq	.L54
 284:C:/Users/49542/Desktop/GD32F30x_Demo_Suites_V2.0.0/GD32F30x_Demo_Suites_V2.0.0/GD32F30x_Firmware_Library/GD32F30x_standard_peripheral/Source\gd32f30x_bkp.c ****         return SET;
 983              		.loc 1 284 0
 984 001a 0123     		movs	r3, #1
 985 001c 00E0     		b	.L55
 986              	.L54:
 285:C:/Users/49542/Desktop/GD32F30x_Demo_Suites_V2.0.0/GD32F30x_Demo_Suites_V2.0.0/GD32F30x_Firmware_Library/GD32F30x_standard_peripheral/Source\gd32f30x_bkp.c ****     }else{
 286:C:/Users/49542/Desktop/GD32F30x_Demo_Suites_V2.0.0/GD32F30x_Demo_Suites_V2.0.0/GD32F30x_Firmware_Library/GD32F30x_standard_peripheral/Source\gd32f30x_bkp.c ****         return RESET;
 987              		.loc 1 286 0
 988 001e 0023     		movs	r3, #0
 989              	.L55:
 287:C:/Users/49542/Desktop/GD32F30x_Demo_Suites_V2.0.0/GD32F30x_Demo_Suites_V2.0.0/GD32F30x_Firmware_Library/GD32F30x_standard_peripheral/Source\gd32f30x_bkp.c ****     }
 288:C:/Users/49542/Desktop/GD32F30x_Demo_Suites_V2.0.0/GD32F30x_Demo_Suites_V2.0.0/GD32F30x_Firmware_Library/GD32F30x_standard_peripheral/Source\gd32f30x_bkp.c **** }
 990              		.loc 1 288 0
 991 0020 1846     		mov	r0, r3
 992 0022 0C37     		adds	r7, r7, #12
 993              	.LCFI79:
 994              		.cfi_def_cfa_offset 4
 995 0024 BD46     		mov	sp, r7
 996              	.LCFI80:
ARM GAS  C:\Users\49542\AppData\Local\Temp\ccsS4UGm.s 			page 23


 997              		.cfi_def_cfa_register 13
 998              		@ sp needed
 999 0026 5DF8047B 		ldr	r7, [sp], #4
 1000              	.LCFI81:
 1001              		.cfi_restore 7
 1002              		.cfi_def_cfa_offset 0
 1003 002a 7047     		bx	lr
 1004              	.L57:
 1005              		.align	2
 1006              	.L56:
 1007 002c 346C0040 		.word	1073769524
 1008              		.cfi_endproc
 1009              	.LFE132:
 1011              		.section	.text.bkp_flag_clear,"ax",%progbits
 1012              		.align	1
 1013              		.global	bkp_flag_clear
 1014              		.syntax unified
 1015              		.thumb
 1016              		.thumb_func
 1017              		.fpu fpv4-sp-d16
 1019              	bkp_flag_clear:
 1020              	.LFB133:
 289:C:/Users/49542/Desktop/GD32F30x_Demo_Suites_V2.0.0/GD32F30x_Demo_Suites_V2.0.0/GD32F30x_Firmware_Library/GD32F30x_standard_peripheral/Source\gd32f30x_bkp.c **** 
 290:C:/Users/49542/Desktop/GD32F30x_Demo_Suites_V2.0.0/GD32F30x_Demo_Suites_V2.0.0/GD32F30x_Firmware_Library/GD32F30x_standard_peripheral/Source\gd32f30x_bkp.c **** /*!
 291:C:/Users/49542/Desktop/GD32F30x_Demo_Suites_V2.0.0/GD32F30x_Demo_Suites_V2.0.0/GD32F30x_Firmware_Library/GD32F30x_standard_peripheral/Source\gd32f30x_bkp.c ****     \brief      clear bkp flag state
 292:C:/Users/49542/Desktop/GD32F30x_Demo_Suites_V2.0.0/GD32F30x_Demo_Suites_V2.0.0/GD32F30x_Firmware_Library/GD32F30x_standard_peripheral/Source\gd32f30x_bkp.c ****     \param[in]  flag
 293:C:/Users/49542/Desktop/GD32F30x_Demo_Suites_V2.0.0/GD32F30x_Demo_Suites_V2.0.0/GD32F30x_Firmware_Library/GD32F30x_standard_peripheral/Source\gd32f30x_bkp.c ****       \arg        BKP_FLAG_TAMPER: tamper event flag
 294:C:/Users/49542/Desktop/GD32F30x_Demo_Suites_V2.0.0/GD32F30x_Demo_Suites_V2.0.0/GD32F30x_Firmware_Library/GD32F30x_standard_peripheral/Source\gd32f30x_bkp.c ****     \param[out] none
 295:C:/Users/49542/Desktop/GD32F30x_Demo_Suites_V2.0.0/GD32F30x_Demo_Suites_V2.0.0/GD32F30x_Firmware_Library/GD32F30x_standard_peripheral/Source\gd32f30x_bkp.c ****     \retval     none
 296:C:/Users/49542/Desktop/GD32F30x_Demo_Suites_V2.0.0/GD32F30x_Demo_Suites_V2.0.0/GD32F30x_Firmware_Library/GD32F30x_standard_peripheral/Source\gd32f30x_bkp.c **** */
 297:C:/Users/49542/Desktop/GD32F30x_Demo_Suites_V2.0.0/GD32F30x_Demo_Suites_V2.0.0/GD32F30x_Firmware_Library/GD32F30x_standard_peripheral/Source\gd32f30x_bkp.c **** void bkp_flag_clear(uint16_t flag)
 298:C:/Users/49542/Desktop/GD32F30x_Demo_Suites_V2.0.0/GD32F30x_Demo_Suites_V2.0.0/GD32F30x_Firmware_Library/GD32F30x_standard_peripheral/Source\gd32f30x_bkp.c **** {
 1021              		.loc 1 298 0
 1022              		.cfi_startproc
 1023              		@ args = 0, pretend = 0, frame = 8
 1024              		@ frame_needed = 1, uses_anonymous_args = 0
 1025              		@ link register save eliminated.
 1026 0000 80B4     		push	{r7}
 1027              	.LCFI82:
 1028              		.cfi_def_cfa_offset 4
 1029              		.cfi_offset 7, -4
 1030 0002 83B0     		sub	sp, sp, #12
 1031              	.LCFI83:
 1032              		.cfi_def_cfa_offset 16
 1033 0004 00AF     		add	r7, sp, #0
 1034              	.LCFI84:
 1035              		.cfi_def_cfa_register 7
 1036 0006 0346     		mov	r3, r0
 1037 0008 FB80     		strh	r3, [r7, #6]	@ movhi
 299:C:/Users/49542/Desktop/GD32F30x_Demo_Suites_V2.0.0/GD32F30x_Demo_Suites_V2.0.0/GD32F30x_Firmware_Library/GD32F30x_standard_peripheral/Source\gd32f30x_bkp.c ****         BKP_TPCS |= (uint16_t)(flag >> TAMPER_FLAG_SHIFT);
 1038              		.loc 1 299 0
 1039 000a 084B     		ldr	r3, .L59
 1040 000c 1B88     		ldrh	r3, [r3]	@ movhi
 1041 000e 9AB2     		uxth	r2, r3
 1042 0010 FB88     		ldrh	r3, [r7, #6]
 1043 0012 1B0A     		lsrs	r3, r3, #8
 1044 0014 9BB2     		uxth	r3, r3
ARM GAS  C:\Users\49542\AppData\Local\Temp\ccsS4UGm.s 			page 24


 1045 0016 0549     		ldr	r1, .L59
 1046 0018 1343     		orrs	r3, r3, r2
 1047 001a 9BB2     		uxth	r3, r3
 1048 001c 0B80     		strh	r3, [r1]	@ movhi
 300:C:/Users/49542/Desktop/GD32F30x_Demo_Suites_V2.0.0/GD32F30x_Demo_Suites_V2.0.0/GD32F30x_Firmware_Library/GD32F30x_standard_peripheral/Source\gd32f30x_bkp.c **** }
 1049              		.loc 1 300 0
 1050 001e 00BF     		nop
 1051 0020 0C37     		adds	r7, r7, #12
 1052              	.LCFI85:
 1053              		.cfi_def_cfa_offset 4
 1054 0022 BD46     		mov	sp, r7
 1055              	.LCFI86:
 1056              		.cfi_def_cfa_register 13
 1057              		@ sp needed
 1058 0024 5DF8047B 		ldr	r7, [sp], #4
 1059              	.LCFI87:
 1060              		.cfi_restore 7
 1061              		.cfi_def_cfa_offset 0
 1062 0028 7047     		bx	lr
 1063              	.L60:
 1064 002a 00BF     		.align	2
 1065              	.L59:
 1066 002c 346C0040 		.word	1073769524
 1067              		.cfi_endproc
 1068              	.LFE133:
 1070              		.section	.text.bkp_interrupt_flag_get,"ax",%progbits
 1071              		.align	1
 1072              		.global	bkp_interrupt_flag_get
 1073              		.syntax unified
 1074              		.thumb
 1075              		.thumb_func
 1076              		.fpu fpv4-sp-d16
 1078              	bkp_interrupt_flag_get:
 1079              	.LFB134:
 301:C:/Users/49542/Desktop/GD32F30x_Demo_Suites_V2.0.0/GD32F30x_Demo_Suites_V2.0.0/GD32F30x_Firmware_Library/GD32F30x_standard_peripheral/Source\gd32f30x_bkp.c **** 
 302:C:/Users/49542/Desktop/GD32F30x_Demo_Suites_V2.0.0/GD32F30x_Demo_Suites_V2.0.0/GD32F30x_Firmware_Library/GD32F30x_standard_peripheral/Source\gd32f30x_bkp.c **** /*!
 303:C:/Users/49542/Desktop/GD32F30x_Demo_Suites_V2.0.0/GD32F30x_Demo_Suites_V2.0.0/GD32F30x_Firmware_Library/GD32F30x_standard_peripheral/Source\gd32f30x_bkp.c ****     \brief      get bkp interrupt flag state
 304:C:/Users/49542/Desktop/GD32F30x_Demo_Suites_V2.0.0/GD32F30x_Demo_Suites_V2.0.0/GD32F30x_Firmware_Library/GD32F30x_standard_peripheral/Source\gd32f30x_bkp.c ****     \param[in]  flag
 305:C:/Users/49542/Desktop/GD32F30x_Demo_Suites_V2.0.0/GD32F30x_Demo_Suites_V2.0.0/GD32F30x_Firmware_Library/GD32F30x_standard_peripheral/Source\gd32f30x_bkp.c ****       \arg        BKP_INT_FLAG_TAMPER: tamper interrupt flag
 306:C:/Users/49542/Desktop/GD32F30x_Demo_Suites_V2.0.0/GD32F30x_Demo_Suites_V2.0.0/GD32F30x_Firmware_Library/GD32F30x_standard_peripheral/Source\gd32f30x_bkp.c ****     \param[out] none
 307:C:/Users/49542/Desktop/GD32F30x_Demo_Suites_V2.0.0/GD32F30x_Demo_Suites_V2.0.0/GD32F30x_Firmware_Library/GD32F30x_standard_peripheral/Source\gd32f30x_bkp.c ****     \retval     FlagStatus: SET or RESET
 308:C:/Users/49542/Desktop/GD32F30x_Demo_Suites_V2.0.0/GD32F30x_Demo_Suites_V2.0.0/GD32F30x_Firmware_Library/GD32F30x_standard_peripheral/Source\gd32f30x_bkp.c **** */
 309:C:/Users/49542/Desktop/GD32F30x_Demo_Suites_V2.0.0/GD32F30x_Demo_Suites_V2.0.0/GD32F30x_Firmware_Library/GD32F30x_standard_peripheral/Source\gd32f30x_bkp.c **** FlagStatus bkp_interrupt_flag_get(uint16_t flag)
 310:C:/Users/49542/Desktop/GD32F30x_Demo_Suites_V2.0.0/GD32F30x_Demo_Suites_V2.0.0/GD32F30x_Firmware_Library/GD32F30x_standard_peripheral/Source\gd32f30x_bkp.c **** {
 1080              		.loc 1 310 0
 1081              		.cfi_startproc
 1082              		@ args = 0, pretend = 0, frame = 8
 1083              		@ frame_needed = 1, uses_anonymous_args = 0
 1084              		@ link register save eliminated.
 1085 0000 80B4     		push	{r7}
 1086              	.LCFI88:
 1087              		.cfi_def_cfa_offset 4
 1088              		.cfi_offset 7, -4
 1089 0002 83B0     		sub	sp, sp, #12
 1090              	.LCFI89:
 1091              		.cfi_def_cfa_offset 16
 1092 0004 00AF     		add	r7, sp, #0
ARM GAS  C:\Users\49542\AppData\Local\Temp\ccsS4UGm.s 			page 25


 1093              	.LCFI90:
 1094              		.cfi_def_cfa_register 7
 1095 0006 0346     		mov	r3, r0
 1096 0008 FB80     		strh	r3, [r7, #6]	@ movhi
 311:C:/Users/49542/Desktop/GD32F30x_Demo_Suites_V2.0.0/GD32F30x_Demo_Suites_V2.0.0/GD32F30x_Firmware_Library/GD32F30x_standard_peripheral/Source\gd32f30x_bkp.c ****     if(RESET != (BKP_TPCS & flag)){
 1097              		.loc 1 311 0
 1098 000a 084B     		ldr	r3, .L64
 1099 000c 1B88     		ldrh	r3, [r3]	@ movhi
 1100 000e 9AB2     		uxth	r2, r3
 1101 0010 FB88     		ldrh	r3, [r7, #6]	@ movhi
 1102 0012 1340     		ands	r3, r3, r2
 1103 0014 9BB2     		uxth	r3, r3
 1104 0016 002B     		cmp	r3, #0
 1105 0018 01D0     		beq	.L62
 312:C:/Users/49542/Desktop/GD32F30x_Demo_Suites_V2.0.0/GD32F30x_Demo_Suites_V2.0.0/GD32F30x_Firmware_Library/GD32F30x_standard_peripheral/Source\gd32f30x_bkp.c ****         return SET;
 1106              		.loc 1 312 0
 1107 001a 0123     		movs	r3, #1
 1108 001c 00E0     		b	.L63
 1109              	.L62:
 313:C:/Users/49542/Desktop/GD32F30x_Demo_Suites_V2.0.0/GD32F30x_Demo_Suites_V2.0.0/GD32F30x_Firmware_Library/GD32F30x_standard_peripheral/Source\gd32f30x_bkp.c ****     }else{
 314:C:/Users/49542/Desktop/GD32F30x_Demo_Suites_V2.0.0/GD32F30x_Demo_Suites_V2.0.0/GD32F30x_Firmware_Library/GD32F30x_standard_peripheral/Source\gd32f30x_bkp.c ****         return RESET;
 1110              		.loc 1 314 0
 1111 001e 0023     		movs	r3, #0
 1112              	.L63:
 315:C:/Users/49542/Desktop/GD32F30x_Demo_Suites_V2.0.0/GD32F30x_Demo_Suites_V2.0.0/GD32F30x_Firmware_Library/GD32F30x_standard_peripheral/Source\gd32f30x_bkp.c ****     }
 316:C:/Users/49542/Desktop/GD32F30x_Demo_Suites_V2.0.0/GD32F30x_Demo_Suites_V2.0.0/GD32F30x_Firmware_Library/GD32F30x_standard_peripheral/Source\gd32f30x_bkp.c **** }
 1113              		.loc 1 316 0
 1114 0020 1846     		mov	r0, r3
 1115 0022 0C37     		adds	r7, r7, #12
 1116              	.LCFI91:
 1117              		.cfi_def_cfa_offset 4
 1118 0024 BD46     		mov	sp, r7
 1119              	.LCFI92:
 1120              		.cfi_def_cfa_register 13
 1121              		@ sp needed
 1122 0026 5DF8047B 		ldr	r7, [sp], #4
 1123              	.LCFI93:
 1124              		.cfi_restore 7
 1125              		.cfi_def_cfa_offset 0
 1126 002a 7047     		bx	lr
 1127              	.L65:
 1128              		.align	2
 1129              	.L64:
 1130 002c 346C0040 		.word	1073769524
 1131              		.cfi_endproc
 1132              	.LFE134:
 1134              		.section	.text.bkp_interrupt_flag_clear,"ax",%progbits
 1135              		.align	1
 1136              		.global	bkp_interrupt_flag_clear
 1137              		.syntax unified
 1138              		.thumb
 1139              		.thumb_func
 1140              		.fpu fpv4-sp-d16
 1142              	bkp_interrupt_flag_clear:
 1143              	.LFB135:
 317:C:/Users/49542/Desktop/GD32F30x_Demo_Suites_V2.0.0/GD32F30x_Demo_Suites_V2.0.0/GD32F30x_Firmware_Library/GD32F30x_standard_peripheral/Source\gd32f30x_bkp.c **** 
 318:C:/Users/49542/Desktop/GD32F30x_Demo_Suites_V2.0.0/GD32F30x_Demo_Suites_V2.0.0/GD32F30x_Firmware_Library/GD32F30x_standard_peripheral/Source\gd32f30x_bkp.c **** /*!
ARM GAS  C:\Users\49542\AppData\Local\Temp\ccsS4UGm.s 			page 26


 319:C:/Users/49542/Desktop/GD32F30x_Demo_Suites_V2.0.0/GD32F30x_Demo_Suites_V2.0.0/GD32F30x_Firmware_Library/GD32F30x_standard_peripheral/Source\gd32f30x_bkp.c ****     \brief      clear bkp interrupt flag state
 320:C:/Users/49542/Desktop/GD32F30x_Demo_Suites_V2.0.0/GD32F30x_Demo_Suites_V2.0.0/GD32F30x_Firmware_Library/GD32F30x_standard_peripheral/Source\gd32f30x_bkp.c ****     \param[in]  flag
 321:C:/Users/49542/Desktop/GD32F30x_Demo_Suites_V2.0.0/GD32F30x_Demo_Suites_V2.0.0/GD32F30x_Firmware_Library/GD32F30x_standard_peripheral/Source\gd32f30x_bkp.c ****       \arg        BKP_INT_FLAG_TAMPER: tamper interrupt flag
 322:C:/Users/49542/Desktop/GD32F30x_Demo_Suites_V2.0.0/GD32F30x_Demo_Suites_V2.0.0/GD32F30x_Firmware_Library/GD32F30x_standard_peripheral/Source\gd32f30x_bkp.c ****     \param[out] none
 323:C:/Users/49542/Desktop/GD32F30x_Demo_Suites_V2.0.0/GD32F30x_Demo_Suites_V2.0.0/GD32F30x_Firmware_Library/GD32F30x_standard_peripheral/Source\gd32f30x_bkp.c ****     \retval     none
 324:C:/Users/49542/Desktop/GD32F30x_Demo_Suites_V2.0.0/GD32F30x_Demo_Suites_V2.0.0/GD32F30x_Firmware_Library/GD32F30x_standard_peripheral/Source\gd32f30x_bkp.c **** */
 325:C:/Users/49542/Desktop/GD32F30x_Demo_Suites_V2.0.0/GD32F30x_Demo_Suites_V2.0.0/GD32F30x_Firmware_Library/GD32F30x_standard_peripheral/Source\gd32f30x_bkp.c **** void bkp_interrupt_flag_clear(uint16_t flag)
 326:C:/Users/49542/Desktop/GD32F30x_Demo_Suites_V2.0.0/GD32F30x_Demo_Suites_V2.0.0/GD32F30x_Firmware_Library/GD32F30x_standard_peripheral/Source\gd32f30x_bkp.c **** {
 1144              		.loc 1 326 0
 1145              		.cfi_startproc
 1146              		@ args = 0, pretend = 0, frame = 8
 1147              		@ frame_needed = 1, uses_anonymous_args = 0
 1148              		@ link register save eliminated.
 1149 0000 80B4     		push	{r7}
 1150              	.LCFI94:
 1151              		.cfi_def_cfa_offset 4
 1152              		.cfi_offset 7, -4
 1153 0002 83B0     		sub	sp, sp, #12
 1154              	.LCFI95:
 1155              		.cfi_def_cfa_offset 16
 1156 0004 00AF     		add	r7, sp, #0
 1157              	.LCFI96:
 1158              		.cfi_def_cfa_register 7
 1159 0006 0346     		mov	r3, r0
 1160 0008 FB80     		strh	r3, [r7, #6]	@ movhi
 327:C:/Users/49542/Desktop/GD32F30x_Demo_Suites_V2.0.0/GD32F30x_Demo_Suites_V2.0.0/GD32F30x_Firmware_Library/GD32F30x_standard_peripheral/Source\gd32f30x_bkp.c ****     BKP_TPCS |= (uint16_t)(flag >> TAMPER_FLAG_SHIFT);
 1161              		.loc 1 327 0
 1162 000a 084B     		ldr	r3, .L67
 1163 000c 1B88     		ldrh	r3, [r3]	@ movhi
 1164 000e 9AB2     		uxth	r2, r3
 1165 0010 FB88     		ldrh	r3, [r7, #6]
 1166 0012 1B0A     		lsrs	r3, r3, #8
 1167 0014 9BB2     		uxth	r3, r3
 1168 0016 0549     		ldr	r1, .L67
 1169 0018 1343     		orrs	r3, r3, r2
 1170 001a 9BB2     		uxth	r3, r3
 1171 001c 0B80     		strh	r3, [r1]	@ movhi
 328:C:/Users/49542/Desktop/GD32F30x_Demo_Suites_V2.0.0/GD32F30x_Demo_Suites_V2.0.0/GD32F30x_Firmware_Library/GD32F30x_standard_peripheral/Source\gd32f30x_bkp.c **** }
 1172              		.loc 1 328 0
 1173 001e 00BF     		nop
 1174 0020 0C37     		adds	r7, r7, #12
 1175              	.LCFI97:
 1176              		.cfi_def_cfa_offset 4
 1177 0022 BD46     		mov	sp, r7
 1178              	.LCFI98:
 1179              		.cfi_def_cfa_register 13
 1180              		@ sp needed
 1181 0024 5DF8047B 		ldr	r7, [sp], #4
 1182              	.LCFI99:
 1183              		.cfi_restore 7
 1184              		.cfi_def_cfa_offset 0
 1185 0028 7047     		bx	lr
 1186              	.L68:
 1187 002a 00BF     		.align	2
 1188              	.L67:
 1189 002c 346C0040 		.word	1073769524
 1190              		.cfi_endproc
ARM GAS  C:\Users\49542\AppData\Local\Temp\ccsS4UGm.s 			page 27


 1191              	.LFE135:
 1193              		.text
 1194              	.Letext0:
 1195              		.file 2 "c:\\users\\49542\\opensourcetools\\gnu tools arm embedded\\7 2018-q2-update\\arm-none-eab
 1196              		.file 3 "c:\\users\\49542\\opensourcetools\\gnu tools arm embedded\\7 2018-q2-update\\arm-none-eab
 1197              		.file 4 "C:/Users/49542/Desktop/GD32F30x_Demo_Suites_V2.0.0/GD32F30x_Demo_Suites_V2.0.0/GD32F30x_F
 1198              		.file 5 "C:/Users/49542/Desktop/GD32F30x_Demo_Suites_V2.0.0/GD32F30x_Demo_Suites_V2.0.0/GD32F30x_F
 1199              		.file 6 "C:/Users/49542/Desktop/GD32F30x_Demo_Suites_V2.0.0/GD32F30x_Demo_Suites_V2.0.0/GD32F30x_F
 1200              		.file 7 "c:\\users\\49542\\opensourcetools\\gnu tools arm embedded\\7 2018-q2-update\\arm-none-eab
 1201              		.file 8 "c:\\users\\49542\\opensourcetools\\gnu tools arm embedded\\7 2018-q2-update\\arm-none-eab
 1202              		.file 9 "c:\\users\\49542\\opensourcetools\\gnu tools arm embedded\\7 2018-q2-update\\lib\\gcc\\ar
 1203              		.file 10 "c:\\users\\49542\\opensourcetools\\gnu tools arm embedded\\7 2018-q2-update\\arm-none-ea
 1204              		.file 11 "c:\\users\\49542\\opensourcetools\\gnu tools arm embedded\\7 2018-q2-update\\arm-none-ea
 1205              		.file 12 "C:/Users/49542/Desktop/GD32F30x_Demo_Suites_V2.0.0/GD32F30x_Demo_Suites_V2.0.0/GD32F30x_
ARM GAS  C:\Users\49542\AppData\Local\Temp\ccsS4UGm.s 			page 28

