ARM GAS  C:\Users\49542\AppData\Local\Temp\ccx6VnNU.s 			page 1


   1              		.cpu cortex-m4
   2              		.eabi_attribute 27, 1
   3              		.eabi_attribute 28, 1
   4              		.eabi_attribute 20, 1
   5              		.eabi_attribute 21, 1
   6              		.eabi_attribute 23, 3
   7              		.eabi_attribute 24, 1
   8              		.eabi_attribute 25, 1
   9              		.eabi_attribute 26, 1
  10              		.eabi_attribute 30, 6
  11              		.eabi_attribute 34, 1
  12              		.eabi_attribute 18, 4
  13              		.file	"gd32f30x_timer.c"
  14              		.text
  15              	.Ltext0:
  16              		.cfi_sections	.debug_frame
  17              		.section	.text.timer_deinit,"ax",%progbits
  18              		.align	1
  19              		.global	timer_deinit
  20              		.syntax unified
  21              		.thumb
  22              		.thumb_func
  23              		.fpu fpv4-sp-d16
  25              	timer_deinit:
  26              	.LFB116:
  27              		.file 1 "C:/Users/49542/Desktop/GD32F30x_Demo_Suites_V2.0.0/GD32F30x_Demo_Suites_V2.0.0/GD32F30x_F
   1:C:/Users/49542/Desktop/GD32F30x_Demo_Suites_V2.0.0/GD32F30x_Demo_Suites_V2.0.0/GD32F30x_Firmware_Library/GD32F30x_standard_peripheral/Source\gd32f30x_timer.c **** /*!
   2:C:/Users/49542/Desktop/GD32F30x_Demo_Suites_V2.0.0/GD32F30x_Demo_Suites_V2.0.0/GD32F30x_Firmware_Library/GD32F30x_standard_peripheral/Source\gd32f30x_timer.c ****     \file  gd32f30x_timer.c
   3:C:/Users/49542/Desktop/GD32F30x_Demo_Suites_V2.0.0/GD32F30x_Demo_Suites_V2.0.0/GD32F30x_Firmware_Library/GD32F30x_standard_peripheral/Source\gd32f30x_timer.c ****     \brief TIMER driver
   4:C:/Users/49542/Desktop/GD32F30x_Demo_Suites_V2.0.0/GD32F30x_Demo_Suites_V2.0.0/GD32F30x_Firmware_Library/GD32F30x_standard_peripheral/Source\gd32f30x_timer.c **** 
   5:C:/Users/49542/Desktop/GD32F30x_Demo_Suites_V2.0.0/GD32F30x_Demo_Suites_V2.0.0/GD32F30x_Firmware_Library/GD32F30x_standard_peripheral/Source\gd32f30x_timer.c ****     \version 2017-02-10, V1.0.0, firmware for GD32F30x
   6:C:/Users/49542/Desktop/GD32F30x_Demo_Suites_V2.0.0/GD32F30x_Demo_Suites_V2.0.0/GD32F30x_Firmware_Library/GD32F30x_standard_peripheral/Source\gd32f30x_timer.c ****     \version 2018-10-10, V1.1.0, firmware for GD32F30x
   7:C:/Users/49542/Desktop/GD32F30x_Demo_Suites_V2.0.0/GD32F30x_Demo_Suites_V2.0.0/GD32F30x_Firmware_Library/GD32F30x_standard_peripheral/Source\gd32f30x_timer.c ****     \version 2018-12-25, V2.0.0, firmware for GD32F30x
   8:C:/Users/49542/Desktop/GD32F30x_Demo_Suites_V2.0.0/GD32F30x_Demo_Suites_V2.0.0/GD32F30x_Firmware_Library/GD32F30x_standard_peripheral/Source\gd32f30x_timer.c **** */
   9:C:/Users/49542/Desktop/GD32F30x_Demo_Suites_V2.0.0/GD32F30x_Demo_Suites_V2.0.0/GD32F30x_Firmware_Library/GD32F30x_standard_peripheral/Source\gd32f30x_timer.c **** 
  10:C:/Users/49542/Desktop/GD32F30x_Demo_Suites_V2.0.0/GD32F30x_Demo_Suites_V2.0.0/GD32F30x_Firmware_Library/GD32F30x_standard_peripheral/Source\gd32f30x_timer.c **** /*
  11:C:/Users/49542/Desktop/GD32F30x_Demo_Suites_V2.0.0/GD32F30x_Demo_Suites_V2.0.0/GD32F30x_Firmware_Library/GD32F30x_standard_peripheral/Source\gd32f30x_timer.c ****     Copyright (c) 2018, GigaDevice Semiconductor Inc.
  12:C:/Users/49542/Desktop/GD32F30x_Demo_Suites_V2.0.0/GD32F30x_Demo_Suites_V2.0.0/GD32F30x_Firmware_Library/GD32F30x_standard_peripheral/Source\gd32f30x_timer.c **** 
  13:C:/Users/49542/Desktop/GD32F30x_Demo_Suites_V2.0.0/GD32F30x_Demo_Suites_V2.0.0/GD32F30x_Firmware_Library/GD32F30x_standard_peripheral/Source\gd32f30x_timer.c ****     All rights reserved.
  14:C:/Users/49542/Desktop/GD32F30x_Demo_Suites_V2.0.0/GD32F30x_Demo_Suites_V2.0.0/GD32F30x_Firmware_Library/GD32F30x_standard_peripheral/Source\gd32f30x_timer.c **** 
  15:C:/Users/49542/Desktop/GD32F30x_Demo_Suites_V2.0.0/GD32F30x_Demo_Suites_V2.0.0/GD32F30x_Firmware_Library/GD32F30x_standard_peripheral/Source\gd32f30x_timer.c ****     Redistribution and use in source and binary forms, with or without modification, 
  16:C:/Users/49542/Desktop/GD32F30x_Demo_Suites_V2.0.0/GD32F30x_Demo_Suites_V2.0.0/GD32F30x_Firmware_Library/GD32F30x_standard_peripheral/Source\gd32f30x_timer.c **** are permitted provided that the following conditions are met:
  17:C:/Users/49542/Desktop/GD32F30x_Demo_Suites_V2.0.0/GD32F30x_Demo_Suites_V2.0.0/GD32F30x_Firmware_Library/GD32F30x_standard_peripheral/Source\gd32f30x_timer.c **** 
  18:C:/Users/49542/Desktop/GD32F30x_Demo_Suites_V2.0.0/GD32F30x_Demo_Suites_V2.0.0/GD32F30x_Firmware_Library/GD32F30x_standard_peripheral/Source\gd32f30x_timer.c ****     1. Redistributions of source code must retain the above copyright notice, this 
  19:C:/Users/49542/Desktop/GD32F30x_Demo_Suites_V2.0.0/GD32F30x_Demo_Suites_V2.0.0/GD32F30x_Firmware_Library/GD32F30x_standard_peripheral/Source\gd32f30x_timer.c ****        list of conditions and the following disclaimer.
  20:C:/Users/49542/Desktop/GD32F30x_Demo_Suites_V2.0.0/GD32F30x_Demo_Suites_V2.0.0/GD32F30x_Firmware_Library/GD32F30x_standard_peripheral/Source\gd32f30x_timer.c ****     2. Redistributions in binary form must reproduce the above copyright notice, 
  21:C:/Users/49542/Desktop/GD32F30x_Demo_Suites_V2.0.0/GD32F30x_Demo_Suites_V2.0.0/GD32F30x_Firmware_Library/GD32F30x_standard_peripheral/Source\gd32f30x_timer.c ****        this list of conditions and the following disclaimer in the documentation 
  22:C:/Users/49542/Desktop/GD32F30x_Demo_Suites_V2.0.0/GD32F30x_Demo_Suites_V2.0.0/GD32F30x_Firmware_Library/GD32F30x_standard_peripheral/Source\gd32f30x_timer.c ****        and/or other materials provided with the distribution.
  23:C:/Users/49542/Desktop/GD32F30x_Demo_Suites_V2.0.0/GD32F30x_Demo_Suites_V2.0.0/GD32F30x_Firmware_Library/GD32F30x_standard_peripheral/Source\gd32f30x_timer.c ****     3. Neither the name of the copyright holder nor the names of its contributors 
  24:C:/Users/49542/Desktop/GD32F30x_Demo_Suites_V2.0.0/GD32F30x_Demo_Suites_V2.0.0/GD32F30x_Firmware_Library/GD32F30x_standard_peripheral/Source\gd32f30x_timer.c ****        may be used to endorse or promote products derived from this software without 
  25:C:/Users/49542/Desktop/GD32F30x_Demo_Suites_V2.0.0/GD32F30x_Demo_Suites_V2.0.0/GD32F30x_Firmware_Library/GD32F30x_standard_peripheral/Source\gd32f30x_timer.c ****        specific prior written permission.
  26:C:/Users/49542/Desktop/GD32F30x_Demo_Suites_V2.0.0/GD32F30x_Demo_Suites_V2.0.0/GD32F30x_Firmware_Library/GD32F30x_standard_peripheral/Source\gd32f30x_timer.c **** 
  27:C:/Users/49542/Desktop/GD32F30x_Demo_Suites_V2.0.0/GD32F30x_Demo_Suites_V2.0.0/GD32F30x_Firmware_Library/GD32F30x_standard_peripheral/Source\gd32f30x_timer.c ****     THIS SOFTWARE IS PROVIDED BY THE COPYRIGHT HOLDERS AND CONTRIBUTORS "AS IS" 
  28:C:/Users/49542/Desktop/GD32F30x_Demo_Suites_V2.0.0/GD32F30x_Demo_Suites_V2.0.0/GD32F30x_Firmware_Library/GD32F30x_standard_peripheral/Source\gd32f30x_timer.c **** AND ANY EXPRESS OR IMPLIED WARRANTIES, INCLUDING, BUT NOT LIMITED TO, THE IMPLIED 
  29:C:/Users/49542/Desktop/GD32F30x_Demo_Suites_V2.0.0/GD32F30x_Demo_Suites_V2.0.0/GD32F30x_Firmware_Library/GD32F30x_standard_peripheral/Source\gd32f30x_timer.c **** WARRANTIES OF MERCHANTABILITY AND FITNESS FOR A PARTICULAR PURPOSE ARE DISCLAIMED. 
  30:C:/Users/49542/Desktop/GD32F30x_Demo_Suites_V2.0.0/GD32F30x_Demo_Suites_V2.0.0/GD32F30x_Firmware_Library/GD32F30x_standard_peripheral/Source\gd32f30x_timer.c **** IN NO EVENT SHALL THE COPYRIGHT HOLDER OR CONTRIBUTORS BE LIABLE FOR ANY DIRECT, 
  31:C:/Users/49542/Desktop/GD32F30x_Demo_Suites_V2.0.0/GD32F30x_Demo_Suites_V2.0.0/GD32F30x_Firmware_Library/GD32F30x_standard_peripheral/Source\gd32f30x_timer.c **** INDIRECT, INCIDENTAL, SPECIAL, EXEMPLARY, OR CONSEQUENTIAL DAMAGES (INCLUDING, BUT 
ARM GAS  C:\Users\49542\AppData\Local\Temp\ccx6VnNU.s 			page 2


  32:C:/Users/49542/Desktop/GD32F30x_Demo_Suites_V2.0.0/GD32F30x_Demo_Suites_V2.0.0/GD32F30x_Firmware_Library/GD32F30x_standard_peripheral/Source\gd32f30x_timer.c **** NOT LIMITED TO, PROCUREMENT OF SUBSTITUTE GOODS OR SERVICES; LOSS OF USE, DATA, OR 
  33:C:/Users/49542/Desktop/GD32F30x_Demo_Suites_V2.0.0/GD32F30x_Demo_Suites_V2.0.0/GD32F30x_Firmware_Library/GD32F30x_standard_peripheral/Source\gd32f30x_timer.c **** PROFITS; OR BUSINESS INTERRUPTION) HOWEVER CAUSED AND ON ANY THEORY OF LIABILITY, 
  34:C:/Users/49542/Desktop/GD32F30x_Demo_Suites_V2.0.0/GD32F30x_Demo_Suites_V2.0.0/GD32F30x_Firmware_Library/GD32F30x_standard_peripheral/Source\gd32f30x_timer.c **** WHETHER IN CONTRACT, STRICT LIABILITY, OR TORT (INCLUDING NEGLIGENCE OR OTHERWISE) 
  35:C:/Users/49542/Desktop/GD32F30x_Demo_Suites_V2.0.0/GD32F30x_Demo_Suites_V2.0.0/GD32F30x_Firmware_Library/GD32F30x_standard_peripheral/Source\gd32f30x_timer.c **** ARISING IN ANY WAY OUT OF THE USE OF THIS SOFTWARE, EVEN IF ADVISED OF THE POSSIBILITY 
  36:C:/Users/49542/Desktop/GD32F30x_Demo_Suites_V2.0.0/GD32F30x_Demo_Suites_V2.0.0/GD32F30x_Firmware_Library/GD32F30x_standard_peripheral/Source\gd32f30x_timer.c **** OF SUCH DAMAGE.
  37:C:/Users/49542/Desktop/GD32F30x_Demo_Suites_V2.0.0/GD32F30x_Demo_Suites_V2.0.0/GD32F30x_Firmware_Library/GD32F30x_standard_peripheral/Source\gd32f30x_timer.c **** */
  38:C:/Users/49542/Desktop/GD32F30x_Demo_Suites_V2.0.0/GD32F30x_Demo_Suites_V2.0.0/GD32F30x_Firmware_Library/GD32F30x_standard_peripheral/Source\gd32f30x_timer.c **** 
  39:C:/Users/49542/Desktop/GD32F30x_Demo_Suites_V2.0.0/GD32F30x_Demo_Suites_V2.0.0/GD32F30x_Firmware_Library/GD32F30x_standard_peripheral/Source\gd32f30x_timer.c **** #include "gd32f30x_timer.h"
  40:C:/Users/49542/Desktop/GD32F30x_Demo_Suites_V2.0.0/GD32F30x_Demo_Suites_V2.0.0/GD32F30x_Firmware_Library/GD32F30x_standard_peripheral/Source\gd32f30x_timer.c **** 
  41:C:/Users/49542/Desktop/GD32F30x_Demo_Suites_V2.0.0/GD32F30x_Demo_Suites_V2.0.0/GD32F30x_Firmware_Library/GD32F30x_standard_peripheral/Source\gd32f30x_timer.c **** /*!
  42:C:/Users/49542/Desktop/GD32F30x_Demo_Suites_V2.0.0/GD32F30x_Demo_Suites_V2.0.0/GD32F30x_Firmware_Library/GD32F30x_standard_peripheral/Source\gd32f30x_timer.c ****     \brief      deinit a TIMER
  43:C:/Users/49542/Desktop/GD32F30x_Demo_Suites_V2.0.0/GD32F30x_Demo_Suites_V2.0.0/GD32F30x_Firmware_Library/GD32F30x_standard_peripheral/Source\gd32f30x_timer.c ****     \param[in]  timer_periph: TIMERx(x=0..13)
  44:C:/Users/49542/Desktop/GD32F30x_Demo_Suites_V2.0.0/GD32F30x_Demo_Suites_V2.0.0/GD32F30x_Firmware_Library/GD32F30x_standard_peripheral/Source\gd32f30x_timer.c ****     \param[out] none
  45:C:/Users/49542/Desktop/GD32F30x_Demo_Suites_V2.0.0/GD32F30x_Demo_Suites_V2.0.0/GD32F30x_Firmware_Library/GD32F30x_standard_peripheral/Source\gd32f30x_timer.c ****     \retval     none
  46:C:/Users/49542/Desktop/GD32F30x_Demo_Suites_V2.0.0/GD32F30x_Demo_Suites_V2.0.0/GD32F30x_Firmware_Library/GD32F30x_standard_peripheral/Source\gd32f30x_timer.c **** */
  47:C:/Users/49542/Desktop/GD32F30x_Demo_Suites_V2.0.0/GD32F30x_Demo_Suites_V2.0.0/GD32F30x_Firmware_Library/GD32F30x_standard_peripheral/Source\gd32f30x_timer.c **** void timer_deinit(uint32_t timer_periph)
  48:C:/Users/49542/Desktop/GD32F30x_Demo_Suites_V2.0.0/GD32F30x_Demo_Suites_V2.0.0/GD32F30x_Firmware_Library/GD32F30x_standard_peripheral/Source\gd32f30x_timer.c **** {
  28              		.loc 1 48 0
  29              		.cfi_startproc
  30              		@ args = 0, pretend = 0, frame = 8
  31              		@ frame_needed = 1, uses_anonymous_args = 0
  32 0000 80B5     		push	{r7, lr}
  33              	.LCFI0:
  34              		.cfi_def_cfa_offset 8
  35              		.cfi_offset 7, -8
  36              		.cfi_offset 14, -4
  37 0002 82B0     		sub	sp, sp, #8
  38              	.LCFI1:
  39              		.cfi_def_cfa_offset 16
  40 0004 00AF     		add	r7, sp, #0
  41              	.LCFI2:
  42              		.cfi_def_cfa_register 7
  43 0006 7860     		str	r0, [r7, #4]
  49:C:/Users/49542/Desktop/GD32F30x_Demo_Suites_V2.0.0/GD32F30x_Demo_Suites_V2.0.0/GD32F30x_Firmware_Library/GD32F30x_standard_peripheral/Source\gd32f30x_timer.c ****     switch(timer_periph){
  44              		.loc 1 49 0
  45 0008 7B68     		ldr	r3, [r7, #4]
  46 000a 5D4A     		ldr	r2, .L21
  47 000c 9342     		cmp	r3, r2
  48 000e 00F09880 		beq	.L3
  49 0012 5B4A     		ldr	r2, .L21
  50 0014 9342     		cmp	r3, r2
  51 0016 16D8     		bhi	.L4
  52 0018 5A4A     		ldr	r2, .L21+4
  53 001a 9342     		cmp	r3, r2
  54 001c 49D0     		beq	.L5
  55 001e 594A     		ldr	r2, .L21+4
  56 0020 9342     		cmp	r3, r2
  57 0022 06D8     		bhi	.L6
  58 0024 B3F1804F 		cmp	r3, #1073741824
  59 0028 31D0     		beq	.L7
  60 002a 574A     		ldr	r2, .L21+8
  61 002c 9342     		cmp	r3, r2
  62 002e 37D0     		beq	.L8
  50:C:/Users/49542/Desktop/GD32F30x_Demo_Suites_V2.0.0/GD32F30x_Demo_Suites_V2.0.0/GD32F30x_Firmware_Library/GD32F30x_standard_peripheral/Source\gd32f30x_timer.c ****     case TIMER0:
  51:C:/Users/49542/Desktop/GD32F30x_Demo_Suites_V2.0.0/GD32F30x_Demo_Suites_V2.0.0/GD32F30x_Firmware_Library/GD32F30x_standard_peripheral/Source\gd32f30x_timer.c ****         /* reset TIMER0 */
  52:C:/Users/49542/Desktop/GD32F30x_Demo_Suites_V2.0.0/GD32F30x_Demo_Suites_V2.0.0/GD32F30x_Firmware_Library/GD32F30x_standard_peripheral/Source\gd32f30x_timer.c ****         rcu_periph_reset_enable(RCU_TIMER0RST);
  53:C:/Users/49542/Desktop/GD32F30x_Demo_Suites_V2.0.0/GD32F30x_Demo_Suites_V2.0.0/GD32F30x_Firmware_Library/GD32F30x_standard_peripheral/Source\gd32f30x_timer.c ****         rcu_periph_reset_disable(RCU_TIMER0RST);
ARM GAS  C:\Users\49542\AppData\Local\Temp\ccx6VnNU.s 			page 3


  54:C:/Users/49542/Desktop/GD32F30x_Demo_Suites_V2.0.0/GD32F30x_Demo_Suites_V2.0.0/GD32F30x_Firmware_Library/GD32F30x_standard_peripheral/Source\gd32f30x_timer.c ****         break;
  55:C:/Users/49542/Desktop/GD32F30x_Demo_Suites_V2.0.0/GD32F30x_Demo_Suites_V2.0.0/GD32F30x_Firmware_Library/GD32F30x_standard_peripheral/Source\gd32f30x_timer.c ****     case TIMER1:
  56:C:/Users/49542/Desktop/GD32F30x_Demo_Suites_V2.0.0/GD32F30x_Demo_Suites_V2.0.0/GD32F30x_Firmware_Library/GD32F30x_standard_peripheral/Source\gd32f30x_timer.c ****         /* reset TIMER1 */
  57:C:/Users/49542/Desktop/GD32F30x_Demo_Suites_V2.0.0/GD32F30x_Demo_Suites_V2.0.0/GD32F30x_Firmware_Library/GD32F30x_standard_peripheral/Source\gd32f30x_timer.c ****         rcu_periph_reset_enable(RCU_TIMER1RST);
  58:C:/Users/49542/Desktop/GD32F30x_Demo_Suites_V2.0.0/GD32F30x_Demo_Suites_V2.0.0/GD32F30x_Firmware_Library/GD32F30x_standard_peripheral/Source\gd32f30x_timer.c ****         rcu_periph_reset_disable(RCU_TIMER1RST);
  59:C:/Users/49542/Desktop/GD32F30x_Demo_Suites_V2.0.0/GD32F30x_Demo_Suites_V2.0.0/GD32F30x_Firmware_Library/GD32F30x_standard_peripheral/Source\gd32f30x_timer.c ****         break;
  60:C:/Users/49542/Desktop/GD32F30x_Demo_Suites_V2.0.0/GD32F30x_Demo_Suites_V2.0.0/GD32F30x_Firmware_Library/GD32F30x_standard_peripheral/Source\gd32f30x_timer.c ****     case TIMER2:
  61:C:/Users/49542/Desktop/GD32F30x_Demo_Suites_V2.0.0/GD32F30x_Demo_Suites_V2.0.0/GD32F30x_Firmware_Library/GD32F30x_standard_peripheral/Source\gd32f30x_timer.c ****         /* reset TIMER2 */
  62:C:/Users/49542/Desktop/GD32F30x_Demo_Suites_V2.0.0/GD32F30x_Demo_Suites_V2.0.0/GD32F30x_Firmware_Library/GD32F30x_standard_peripheral/Source\gd32f30x_timer.c ****         rcu_periph_reset_enable(RCU_TIMER2RST);
  63:C:/Users/49542/Desktop/GD32F30x_Demo_Suites_V2.0.0/GD32F30x_Demo_Suites_V2.0.0/GD32F30x_Firmware_Library/GD32F30x_standard_peripheral/Source\gd32f30x_timer.c ****         rcu_periph_reset_disable(RCU_TIMER2RST);
  64:C:/Users/49542/Desktop/GD32F30x_Demo_Suites_V2.0.0/GD32F30x_Demo_Suites_V2.0.0/GD32F30x_Firmware_Library/GD32F30x_standard_peripheral/Source\gd32f30x_timer.c ****         break;
  65:C:/Users/49542/Desktop/GD32F30x_Demo_Suites_V2.0.0/GD32F30x_Demo_Suites_V2.0.0/GD32F30x_Firmware_Library/GD32F30x_standard_peripheral/Source\gd32f30x_timer.c ****     case TIMER3:
  66:C:/Users/49542/Desktop/GD32F30x_Demo_Suites_V2.0.0/GD32F30x_Demo_Suites_V2.0.0/GD32F30x_Firmware_Library/GD32F30x_standard_peripheral/Source\gd32f30x_timer.c ****         /* reset TIMER3 */
  67:C:/Users/49542/Desktop/GD32F30x_Demo_Suites_V2.0.0/GD32F30x_Demo_Suites_V2.0.0/GD32F30x_Firmware_Library/GD32F30x_standard_peripheral/Source\gd32f30x_timer.c ****         rcu_periph_reset_enable(RCU_TIMER3RST);
  68:C:/Users/49542/Desktop/GD32F30x_Demo_Suites_V2.0.0/GD32F30x_Demo_Suites_V2.0.0/GD32F30x_Firmware_Library/GD32F30x_standard_peripheral/Source\gd32f30x_timer.c ****         rcu_periph_reset_disable(RCU_TIMER3RST);
  69:C:/Users/49542/Desktop/GD32F30x_Demo_Suites_V2.0.0/GD32F30x_Demo_Suites_V2.0.0/GD32F30x_Firmware_Library/GD32F30x_standard_peripheral/Source\gd32f30x_timer.c ****         break;
  70:C:/Users/49542/Desktop/GD32F30x_Demo_Suites_V2.0.0/GD32F30x_Demo_Suites_V2.0.0/GD32F30x_Firmware_Library/GD32F30x_standard_peripheral/Source\gd32f30x_timer.c ****     case TIMER4:
  71:C:/Users/49542/Desktop/GD32F30x_Demo_Suites_V2.0.0/GD32F30x_Demo_Suites_V2.0.0/GD32F30x_Firmware_Library/GD32F30x_standard_peripheral/Source\gd32f30x_timer.c ****         /* reset TIMER4 */
  72:C:/Users/49542/Desktop/GD32F30x_Demo_Suites_V2.0.0/GD32F30x_Demo_Suites_V2.0.0/GD32F30x_Firmware_Library/GD32F30x_standard_peripheral/Source\gd32f30x_timer.c ****         rcu_periph_reset_enable(RCU_TIMER4RST);
  73:C:/Users/49542/Desktop/GD32F30x_Demo_Suites_V2.0.0/GD32F30x_Demo_Suites_V2.0.0/GD32F30x_Firmware_Library/GD32F30x_standard_peripheral/Source\gd32f30x_timer.c ****         rcu_periph_reset_disable(RCU_TIMER4RST);
  74:C:/Users/49542/Desktop/GD32F30x_Demo_Suites_V2.0.0/GD32F30x_Demo_Suites_V2.0.0/GD32F30x_Firmware_Library/GD32F30x_standard_peripheral/Source\gd32f30x_timer.c ****         break;
  75:C:/Users/49542/Desktop/GD32F30x_Demo_Suites_V2.0.0/GD32F30x_Demo_Suites_V2.0.0/GD32F30x_Firmware_Library/GD32F30x_standard_peripheral/Source\gd32f30x_timer.c ****     case TIMER5:
  76:C:/Users/49542/Desktop/GD32F30x_Demo_Suites_V2.0.0/GD32F30x_Demo_Suites_V2.0.0/GD32F30x_Firmware_Library/GD32F30x_standard_peripheral/Source\gd32f30x_timer.c ****         /* reset TIMER5 */
  77:C:/Users/49542/Desktop/GD32F30x_Demo_Suites_V2.0.0/GD32F30x_Demo_Suites_V2.0.0/GD32F30x_Firmware_Library/GD32F30x_standard_peripheral/Source\gd32f30x_timer.c ****         rcu_periph_reset_enable(RCU_TIMER5RST);
  78:C:/Users/49542/Desktop/GD32F30x_Demo_Suites_V2.0.0/GD32F30x_Demo_Suites_V2.0.0/GD32F30x_Firmware_Library/GD32F30x_standard_peripheral/Source\gd32f30x_timer.c ****         rcu_periph_reset_disable(RCU_TIMER5RST);
  79:C:/Users/49542/Desktop/GD32F30x_Demo_Suites_V2.0.0/GD32F30x_Demo_Suites_V2.0.0/GD32F30x_Firmware_Library/GD32F30x_standard_peripheral/Source\gd32f30x_timer.c ****         break;
  80:C:/Users/49542/Desktop/GD32F30x_Demo_Suites_V2.0.0/GD32F30x_Demo_Suites_V2.0.0/GD32F30x_Firmware_Library/GD32F30x_standard_peripheral/Source\gd32f30x_timer.c ****     case TIMER6:
  81:C:/Users/49542/Desktop/GD32F30x_Demo_Suites_V2.0.0/GD32F30x_Demo_Suites_V2.0.0/GD32F30x_Firmware_Library/GD32F30x_standard_peripheral/Source\gd32f30x_timer.c ****         /* reset TIMER6 */
  82:C:/Users/49542/Desktop/GD32F30x_Demo_Suites_V2.0.0/GD32F30x_Demo_Suites_V2.0.0/GD32F30x_Firmware_Library/GD32F30x_standard_peripheral/Source\gd32f30x_timer.c ****         rcu_periph_reset_enable(RCU_TIMER6RST);
  83:C:/Users/49542/Desktop/GD32F30x_Demo_Suites_V2.0.0/GD32F30x_Demo_Suites_V2.0.0/GD32F30x_Firmware_Library/GD32F30x_standard_peripheral/Source\gd32f30x_timer.c ****         rcu_periph_reset_disable(RCU_TIMER6RST);
  84:C:/Users/49542/Desktop/GD32F30x_Demo_Suites_V2.0.0/GD32F30x_Demo_Suites_V2.0.0/GD32F30x_Firmware_Library/GD32F30x_standard_peripheral/Source\gd32f30x_timer.c ****         break;
  85:C:/Users/49542/Desktop/GD32F30x_Demo_Suites_V2.0.0/GD32F30x_Demo_Suites_V2.0.0/GD32F30x_Firmware_Library/GD32F30x_standard_peripheral/Source\gd32f30x_timer.c ****     case TIMER7:
  86:C:/Users/49542/Desktop/GD32F30x_Demo_Suites_V2.0.0/GD32F30x_Demo_Suites_V2.0.0/GD32F30x_Firmware_Library/GD32F30x_standard_peripheral/Source\gd32f30x_timer.c ****         /* reset TIMER7 */
  87:C:/Users/49542/Desktop/GD32F30x_Demo_Suites_V2.0.0/GD32F30x_Demo_Suites_V2.0.0/GD32F30x_Firmware_Library/GD32F30x_standard_peripheral/Source\gd32f30x_timer.c ****         rcu_periph_reset_enable(RCU_TIMER7RST);
  88:C:/Users/49542/Desktop/GD32F30x_Demo_Suites_V2.0.0/GD32F30x_Demo_Suites_V2.0.0/GD32F30x_Firmware_Library/GD32F30x_standard_peripheral/Source\gd32f30x_timer.c ****         rcu_periph_reset_disable(RCU_TIMER7RST);
  89:C:/Users/49542/Desktop/GD32F30x_Demo_Suites_V2.0.0/GD32F30x_Demo_Suites_V2.0.0/GD32F30x_Firmware_Library/GD32F30x_standard_peripheral/Source\gd32f30x_timer.c ****         break;
  90:C:/Users/49542/Desktop/GD32F30x_Demo_Suites_V2.0.0/GD32F30x_Demo_Suites_V2.0.0/GD32F30x_Firmware_Library/GD32F30x_standard_peripheral/Source\gd32f30x_timer.c **** #ifndef GD32F30X_HD
  91:C:/Users/49542/Desktop/GD32F30x_Demo_Suites_V2.0.0/GD32F30x_Demo_Suites_V2.0.0/GD32F30x_Firmware_Library/GD32F30x_standard_peripheral/Source\gd32f30x_timer.c ****     case TIMER8:
  92:C:/Users/49542/Desktop/GD32F30x_Demo_Suites_V2.0.0/GD32F30x_Demo_Suites_V2.0.0/GD32F30x_Firmware_Library/GD32F30x_standard_peripheral/Source\gd32f30x_timer.c ****         /* reset TIMER8 */
  93:C:/Users/49542/Desktop/GD32F30x_Demo_Suites_V2.0.0/GD32F30x_Demo_Suites_V2.0.0/GD32F30x_Firmware_Library/GD32F30x_standard_peripheral/Source\gd32f30x_timer.c ****         rcu_periph_reset_enable(RCU_TIMER8RST);
  94:C:/Users/49542/Desktop/GD32F30x_Demo_Suites_V2.0.0/GD32F30x_Demo_Suites_V2.0.0/GD32F30x_Firmware_Library/GD32F30x_standard_peripheral/Source\gd32f30x_timer.c ****         rcu_periph_reset_disable(RCU_TIMER8RST);
  95:C:/Users/49542/Desktop/GD32F30x_Demo_Suites_V2.0.0/GD32F30x_Demo_Suites_V2.0.0/GD32F30x_Firmware_Library/GD32F30x_standard_peripheral/Source\gd32f30x_timer.c ****         break;
  96:C:/Users/49542/Desktop/GD32F30x_Demo_Suites_V2.0.0/GD32F30x_Demo_Suites_V2.0.0/GD32F30x_Firmware_Library/GD32F30x_standard_peripheral/Source\gd32f30x_timer.c ****     case TIMER9:
  97:C:/Users/49542/Desktop/GD32F30x_Demo_Suites_V2.0.0/GD32F30x_Demo_Suites_V2.0.0/GD32F30x_Firmware_Library/GD32F30x_standard_peripheral/Source\gd32f30x_timer.c ****         /* reset TIMER9 */
  98:C:/Users/49542/Desktop/GD32F30x_Demo_Suites_V2.0.0/GD32F30x_Demo_Suites_V2.0.0/GD32F30x_Firmware_Library/GD32F30x_standard_peripheral/Source\gd32f30x_timer.c ****         rcu_periph_reset_enable(RCU_TIMER9RST);
  99:C:/Users/49542/Desktop/GD32F30x_Demo_Suites_V2.0.0/GD32F30x_Demo_Suites_V2.0.0/GD32F30x_Firmware_Library/GD32F30x_standard_peripheral/Source\gd32f30x_timer.c ****         rcu_periph_reset_disable(RCU_TIMER9RST);
 100:C:/Users/49542/Desktop/GD32F30x_Demo_Suites_V2.0.0/GD32F30x_Demo_Suites_V2.0.0/GD32F30x_Firmware_Library/GD32F30x_standard_peripheral/Source\gd32f30x_timer.c ****         break;
 101:C:/Users/49542/Desktop/GD32F30x_Demo_Suites_V2.0.0/GD32F30x_Demo_Suites_V2.0.0/GD32F30x_Firmware_Library/GD32F30x_standard_peripheral/Source\gd32f30x_timer.c ****     case TIMER10:
 102:C:/Users/49542/Desktop/GD32F30x_Demo_Suites_V2.0.0/GD32F30x_Demo_Suites_V2.0.0/GD32F30x_Firmware_Library/GD32F30x_standard_peripheral/Source\gd32f30x_timer.c ****         /* reset TIMER10 */
 103:C:/Users/49542/Desktop/GD32F30x_Demo_Suites_V2.0.0/GD32F30x_Demo_Suites_V2.0.0/GD32F30x_Firmware_Library/GD32F30x_standard_peripheral/Source\gd32f30x_timer.c ****         rcu_periph_reset_enable(RCU_TIMER10RST);
 104:C:/Users/49542/Desktop/GD32F30x_Demo_Suites_V2.0.0/GD32F30x_Demo_Suites_V2.0.0/GD32F30x_Firmware_Library/GD32F30x_standard_peripheral/Source\gd32f30x_timer.c ****         rcu_periph_reset_disable(RCU_TIMER10RST);
 105:C:/Users/49542/Desktop/GD32F30x_Demo_Suites_V2.0.0/GD32F30x_Demo_Suites_V2.0.0/GD32F30x_Firmware_Library/GD32F30x_standard_peripheral/Source\gd32f30x_timer.c ****         break;
 106:C:/Users/49542/Desktop/GD32F30x_Demo_Suites_V2.0.0/GD32F30x_Demo_Suites_V2.0.0/GD32F30x_Firmware_Library/GD32F30x_standard_peripheral/Source\gd32f30x_timer.c ****     case TIMER11:
 107:C:/Users/49542/Desktop/GD32F30x_Demo_Suites_V2.0.0/GD32F30x_Demo_Suites_V2.0.0/GD32F30x_Firmware_Library/GD32F30x_standard_peripheral/Source\gd32f30x_timer.c ****         /* reset TIMER11 */
 108:C:/Users/49542/Desktop/GD32F30x_Demo_Suites_V2.0.0/GD32F30x_Demo_Suites_V2.0.0/GD32F30x_Firmware_Library/GD32F30x_standard_peripheral/Source\gd32f30x_timer.c ****         rcu_periph_reset_enable(RCU_TIMER11RST);
 109:C:/Users/49542/Desktop/GD32F30x_Demo_Suites_V2.0.0/GD32F30x_Demo_Suites_V2.0.0/GD32F30x_Firmware_Library/GD32F30x_standard_peripheral/Source\gd32f30x_timer.c ****         rcu_periph_reset_disable(RCU_TIMER11RST);
 110:C:/Users/49542/Desktop/GD32F30x_Demo_Suites_V2.0.0/GD32F30x_Demo_Suites_V2.0.0/GD32F30x_Firmware_Library/GD32F30x_standard_peripheral/Source\gd32f30x_timer.c ****         break;
ARM GAS  C:\Users\49542\AppData\Local\Temp\ccx6VnNU.s 			page 4


 111:C:/Users/49542/Desktop/GD32F30x_Demo_Suites_V2.0.0/GD32F30x_Demo_Suites_V2.0.0/GD32F30x_Firmware_Library/GD32F30x_standard_peripheral/Source\gd32f30x_timer.c ****     case TIMER12:
 112:C:/Users/49542/Desktop/GD32F30x_Demo_Suites_V2.0.0/GD32F30x_Demo_Suites_V2.0.0/GD32F30x_Firmware_Library/GD32F30x_standard_peripheral/Source\gd32f30x_timer.c ****         /* reset TIMER12 */
 113:C:/Users/49542/Desktop/GD32F30x_Demo_Suites_V2.0.0/GD32F30x_Demo_Suites_V2.0.0/GD32F30x_Firmware_Library/GD32F30x_standard_peripheral/Source\gd32f30x_timer.c ****         rcu_periph_reset_enable(RCU_TIMER12RST);
 114:C:/Users/49542/Desktop/GD32F30x_Demo_Suites_V2.0.0/GD32F30x_Demo_Suites_V2.0.0/GD32F30x_Firmware_Library/GD32F30x_standard_peripheral/Source\gd32f30x_timer.c ****         rcu_periph_reset_disable(RCU_TIMER12RST);
 115:C:/Users/49542/Desktop/GD32F30x_Demo_Suites_V2.0.0/GD32F30x_Demo_Suites_V2.0.0/GD32F30x_Firmware_Library/GD32F30x_standard_peripheral/Source\gd32f30x_timer.c ****         break;
 116:C:/Users/49542/Desktop/GD32F30x_Demo_Suites_V2.0.0/GD32F30x_Demo_Suites_V2.0.0/GD32F30x_Firmware_Library/GD32F30x_standard_peripheral/Source\gd32f30x_timer.c ****     case TIMER13:
 117:C:/Users/49542/Desktop/GD32F30x_Demo_Suites_V2.0.0/GD32F30x_Demo_Suites_V2.0.0/GD32F30x_Firmware_Library/GD32F30x_standard_peripheral/Source\gd32f30x_timer.c ****         /* reset TIMER13 */
 118:C:/Users/49542/Desktop/GD32F30x_Demo_Suites_V2.0.0/GD32F30x_Demo_Suites_V2.0.0/GD32F30x_Firmware_Library/GD32F30x_standard_peripheral/Source\gd32f30x_timer.c ****         rcu_periph_reset_enable(RCU_TIMER13RST);
 119:C:/Users/49542/Desktop/GD32F30x_Demo_Suites_V2.0.0/GD32F30x_Demo_Suites_V2.0.0/GD32F30x_Firmware_Library/GD32F30x_standard_peripheral/Source\gd32f30x_timer.c ****         rcu_periph_reset_disable(RCU_TIMER13RST);
 120:C:/Users/49542/Desktop/GD32F30x_Demo_Suites_V2.0.0/GD32F30x_Demo_Suites_V2.0.0/GD32F30x_Firmware_Library/GD32F30x_standard_peripheral/Source\gd32f30x_timer.c ****         break;
 121:C:/Users/49542/Desktop/GD32F30x_Demo_Suites_V2.0.0/GD32F30x_Demo_Suites_V2.0.0/GD32F30x_Firmware_Library/GD32F30x_standard_peripheral/Source\gd32f30x_timer.c **** #endif /* GD32F30X_HD */
 122:C:/Users/49542/Desktop/GD32F30x_Demo_Suites_V2.0.0/GD32F30x_Demo_Suites_V2.0.0/GD32F30x_Firmware_Library/GD32F30x_standard_peripheral/Source\gd32f30x_timer.c ****     default:
 123:C:/Users/49542/Desktop/GD32F30x_Demo_Suites_V2.0.0/GD32F30x_Demo_Suites_V2.0.0/GD32F30x_Firmware_Library/GD32F30x_standard_peripheral/Source\gd32f30x_timer.c ****         break;
  63              		.loc 1 123 0
  64 0030 A2E0     		b	.L20
  65              	.L6:
  49:C:/Users/49542/Desktop/GD32F30x_Demo_Suites_V2.0.0/GD32F30x_Demo_Suites_V2.0.0/GD32F30x_Firmware_Library/GD32F30x_standard_peripheral/Source\gd32f30x_timer.c ****     switch(timer_periph){
  66              		.loc 1 49 0
  67 0032 564A     		ldr	r2, .L21+12
  68 0034 9342     		cmp	r3, r2
  69 0036 4ED0     		beq	.L9
  70 0038 554A     		ldr	r2, .L21+16
  71 003a 9342     		cmp	r3, r2
  72 003c 54D0     		beq	.L10
  73 003e 554A     		ldr	r2, .L21+20
  74 0040 9342     		cmp	r3, r2
  75 0042 3FD0     		beq	.L11
  76              		.loc 1 123 0
  77 0044 98E0     		b	.L20
  78              	.L4:
  49:C:/Users/49542/Desktop/GD32F30x_Demo_Suites_V2.0.0/GD32F30x_Demo_Suites_V2.0.0/GD32F30x_Firmware_Library/GD32F30x_standard_peripheral/Source\gd32f30x_timer.c ****     switch(timer_periph){
  79              		.loc 1 49 0
  80 0046 544A     		ldr	r2, .L21+24
  81 0048 9342     		cmp	r3, r2
  82 004a 56D0     		beq	.L12
  83 004c 524A     		ldr	r2, .L21+24
  84 004e 9342     		cmp	r3, r2
  85 0050 0AD8     		bhi	.L13
  86 0052 524A     		ldr	r2, .L21+28
  87 0054 9342     		cmp	r3, r2
  88 0056 00F08680 		beq	.L14
  89 005a 514A     		ldr	r2, .L21+32
  90 005c 9342     		cmp	r3, r2
  91 005e 0DD0     		beq	.L15
  92 0060 504A     		ldr	r2, .L21+36
  93 0062 9342     		cmp	r3, r2
  94 0064 76D0     		beq	.L16
  95              		.loc 1 123 0
  96 0066 87E0     		b	.L20
  97              	.L13:
  49:C:/Users/49542/Desktop/GD32F30x_Demo_Suites_V2.0.0/GD32F30x_Demo_Suites_V2.0.0/GD32F30x_Firmware_Library/GD32F30x_standard_peripheral/Source\gd32f30x_timer.c ****     switch(timer_periph){
  98              		.loc 1 49 0
  99 0068 4F4A     		ldr	r2, .L21+40
 100 006a 9342     		cmp	r3, r2
 101 006c 57D0     		beq	.L17
 102 006e 4F4A     		ldr	r2, .L21+44
 103 0070 9342     		cmp	r3, r2
ARM GAS  C:\Users\49542\AppData\Local\Temp\ccx6VnNU.s 			page 5


 104 0072 5DD0     		beq	.L18
 105 0074 4E4A     		ldr	r2, .L21+48
 106 0076 9342     		cmp	r3, r2
 107 0078 48D0     		beq	.L19
 108              		.loc 1 123 0
 109 007a 7DE0     		b	.L20
 110              	.L15:
  52:C:/Users/49542/Desktop/GD32F30x_Demo_Suites_V2.0.0/GD32F30x_Demo_Suites_V2.0.0/GD32F30x_Firmware_Library/GD32F30x_standard_peripheral/Source\gd32f30x_timer.c ****         rcu_periph_reset_disable(RCU_TIMER0RST);
 111              		.loc 1 52 0
 112 007c 40F20B30 		movw	r0, #779
 113 0080 FFF7FEFF 		bl	rcu_periph_reset_enable
  53:C:/Users/49542/Desktop/GD32F30x_Demo_Suites_V2.0.0/GD32F30x_Demo_Suites_V2.0.0/GD32F30x_Firmware_Library/GD32F30x_standard_peripheral/Source\gd32f30x_timer.c ****         break;
 114              		.loc 1 53 0
 115 0084 40F20B30 		movw	r0, #779
 116 0088 FFF7FEFF 		bl	rcu_periph_reset_disable
  54:C:/Users/49542/Desktop/GD32F30x_Demo_Suites_V2.0.0/GD32F30x_Demo_Suites_V2.0.0/GD32F30x_Firmware_Library/GD32F30x_standard_peripheral/Source\gd32f30x_timer.c ****     case TIMER1:
 117              		.loc 1 54 0
 118 008c 74E0     		b	.L20
 119              	.L7:
  57:C:/Users/49542/Desktop/GD32F30x_Demo_Suites_V2.0.0/GD32F30x_Demo_Suites_V2.0.0/GD32F30x_Firmware_Library/GD32F30x_standard_peripheral/Source\gd32f30x_timer.c ****         rcu_periph_reset_disable(RCU_TIMER1RST);
 120              		.loc 1 57 0
 121 008e 4FF48060 		mov	r0, #1024
 122 0092 FFF7FEFF 		bl	rcu_periph_reset_enable
  58:C:/Users/49542/Desktop/GD32F30x_Demo_Suites_V2.0.0/GD32F30x_Demo_Suites_V2.0.0/GD32F30x_Firmware_Library/GD32F30x_standard_peripheral/Source\gd32f30x_timer.c ****         break;
 123              		.loc 1 58 0
 124 0096 4FF48060 		mov	r0, #1024
 125 009a FFF7FEFF 		bl	rcu_periph_reset_disable
  59:C:/Users/49542/Desktop/GD32F30x_Demo_Suites_V2.0.0/GD32F30x_Demo_Suites_V2.0.0/GD32F30x_Firmware_Library/GD32F30x_standard_peripheral/Source\gd32f30x_timer.c ****     case TIMER2:
 126              		.loc 1 59 0
 127 009e 6BE0     		b	.L20
 128              	.L8:
  62:C:/Users/49542/Desktop/GD32F30x_Demo_Suites_V2.0.0/GD32F30x_Demo_Suites_V2.0.0/GD32F30x_Firmware_Library/GD32F30x_standard_peripheral/Source\gd32f30x_timer.c ****         rcu_periph_reset_disable(RCU_TIMER2RST);
 129              		.loc 1 62 0
 130 00a0 40F20140 		movw	r0, #1025
 131 00a4 FFF7FEFF 		bl	rcu_periph_reset_enable
  63:C:/Users/49542/Desktop/GD32F30x_Demo_Suites_V2.0.0/GD32F30x_Demo_Suites_V2.0.0/GD32F30x_Firmware_Library/GD32F30x_standard_peripheral/Source\gd32f30x_timer.c ****         break;
 132              		.loc 1 63 0
 133 00a8 40F20140 		movw	r0, #1025
 134 00ac FFF7FEFF 		bl	rcu_periph_reset_disable
  64:C:/Users/49542/Desktop/GD32F30x_Demo_Suites_V2.0.0/GD32F30x_Demo_Suites_V2.0.0/GD32F30x_Firmware_Library/GD32F30x_standard_peripheral/Source\gd32f30x_timer.c ****     case TIMER3:
 135              		.loc 1 64 0
 136 00b0 62E0     		b	.L20
 137              	.L5:
  67:C:/Users/49542/Desktop/GD32F30x_Demo_Suites_V2.0.0/GD32F30x_Demo_Suites_V2.0.0/GD32F30x_Firmware_Library/GD32F30x_standard_peripheral/Source\gd32f30x_timer.c ****         rcu_periph_reset_disable(RCU_TIMER3RST);
 138              		.loc 1 67 0
 139 00b2 40F20240 		movw	r0, #1026
 140 00b6 FFF7FEFF 		bl	rcu_periph_reset_enable
  68:C:/Users/49542/Desktop/GD32F30x_Demo_Suites_V2.0.0/GD32F30x_Demo_Suites_V2.0.0/GD32F30x_Firmware_Library/GD32F30x_standard_peripheral/Source\gd32f30x_timer.c ****         break;
 141              		.loc 1 68 0
 142 00ba 40F20240 		movw	r0, #1026
 143 00be FFF7FEFF 		bl	rcu_periph_reset_disable
  69:C:/Users/49542/Desktop/GD32F30x_Demo_Suites_V2.0.0/GD32F30x_Demo_Suites_V2.0.0/GD32F30x_Firmware_Library/GD32F30x_standard_peripheral/Source\gd32f30x_timer.c ****     case TIMER4:
 144              		.loc 1 69 0
 145 00c2 59E0     		b	.L20
 146              	.L11:
  72:C:/Users/49542/Desktop/GD32F30x_Demo_Suites_V2.0.0/GD32F30x_Demo_Suites_V2.0.0/GD32F30x_Firmware_Library/GD32F30x_standard_peripheral/Source\gd32f30x_timer.c ****         rcu_periph_reset_disable(RCU_TIMER4RST);
 147              		.loc 1 72 0
ARM GAS  C:\Users\49542\AppData\Local\Temp\ccx6VnNU.s 			page 6


 148 00c4 40F20340 		movw	r0, #1027
 149 00c8 FFF7FEFF 		bl	rcu_periph_reset_enable
  73:C:/Users/49542/Desktop/GD32F30x_Demo_Suites_V2.0.0/GD32F30x_Demo_Suites_V2.0.0/GD32F30x_Firmware_Library/GD32F30x_standard_peripheral/Source\gd32f30x_timer.c ****         break;
 150              		.loc 1 73 0
 151 00cc 40F20340 		movw	r0, #1027
 152 00d0 FFF7FEFF 		bl	rcu_periph_reset_disable
  74:C:/Users/49542/Desktop/GD32F30x_Demo_Suites_V2.0.0/GD32F30x_Demo_Suites_V2.0.0/GD32F30x_Firmware_Library/GD32F30x_standard_peripheral/Source\gd32f30x_timer.c ****     case TIMER5:
 153              		.loc 1 74 0
 154 00d4 50E0     		b	.L20
 155              	.L9:
  77:C:/Users/49542/Desktop/GD32F30x_Demo_Suites_V2.0.0/GD32F30x_Demo_Suites_V2.0.0/GD32F30x_Firmware_Library/GD32F30x_standard_peripheral/Source\gd32f30x_timer.c ****         rcu_periph_reset_disable(RCU_TIMER5RST);
 156              		.loc 1 77 0
 157 00d6 40F20440 		movw	r0, #1028
 158 00da FFF7FEFF 		bl	rcu_periph_reset_enable
  78:C:/Users/49542/Desktop/GD32F30x_Demo_Suites_V2.0.0/GD32F30x_Demo_Suites_V2.0.0/GD32F30x_Firmware_Library/GD32F30x_standard_peripheral/Source\gd32f30x_timer.c ****         break;
 159              		.loc 1 78 0
 160 00de 40F20440 		movw	r0, #1028
 161 00e2 FFF7FEFF 		bl	rcu_periph_reset_disable
  79:C:/Users/49542/Desktop/GD32F30x_Demo_Suites_V2.0.0/GD32F30x_Demo_Suites_V2.0.0/GD32F30x_Firmware_Library/GD32F30x_standard_peripheral/Source\gd32f30x_timer.c ****     case TIMER6:
 162              		.loc 1 79 0
 163 00e6 47E0     		b	.L20
 164              	.L10:
  82:C:/Users/49542/Desktop/GD32F30x_Demo_Suites_V2.0.0/GD32F30x_Demo_Suites_V2.0.0/GD32F30x_Firmware_Library/GD32F30x_standard_peripheral/Source\gd32f30x_timer.c ****         rcu_periph_reset_disable(RCU_TIMER6RST);
 165              		.loc 1 82 0
 166 00e8 40F20540 		movw	r0, #1029
 167 00ec FFF7FEFF 		bl	rcu_periph_reset_enable
  83:C:/Users/49542/Desktop/GD32F30x_Demo_Suites_V2.0.0/GD32F30x_Demo_Suites_V2.0.0/GD32F30x_Firmware_Library/GD32F30x_standard_peripheral/Source\gd32f30x_timer.c ****         break;
 168              		.loc 1 83 0
 169 00f0 40F20540 		movw	r0, #1029
 170 00f4 FFF7FEFF 		bl	rcu_periph_reset_disable
  84:C:/Users/49542/Desktop/GD32F30x_Demo_Suites_V2.0.0/GD32F30x_Demo_Suites_V2.0.0/GD32F30x_Firmware_Library/GD32F30x_standard_peripheral/Source\gd32f30x_timer.c ****     case TIMER7:
 171              		.loc 1 84 0
 172 00f8 3EE0     		b	.L20
 173              	.L12:
  87:C:/Users/49542/Desktop/GD32F30x_Demo_Suites_V2.0.0/GD32F30x_Demo_Suites_V2.0.0/GD32F30x_Firmware_Library/GD32F30x_standard_peripheral/Source\gd32f30x_timer.c ****         rcu_periph_reset_disable(RCU_TIMER7RST);
 174              		.loc 1 87 0
 175 00fa 40F20D30 		movw	r0, #781
 176 00fe FFF7FEFF 		bl	rcu_periph_reset_enable
  88:C:/Users/49542/Desktop/GD32F30x_Demo_Suites_V2.0.0/GD32F30x_Demo_Suites_V2.0.0/GD32F30x_Firmware_Library/GD32F30x_standard_peripheral/Source\gd32f30x_timer.c ****         break;
 177              		.loc 1 88 0
 178 0102 40F20D30 		movw	r0, #781
 179 0106 FFF7FEFF 		bl	rcu_periph_reset_disable
  89:C:/Users/49542/Desktop/GD32F30x_Demo_Suites_V2.0.0/GD32F30x_Demo_Suites_V2.0.0/GD32F30x_Firmware_Library/GD32F30x_standard_peripheral/Source\gd32f30x_timer.c **** #ifndef GD32F30X_HD
 180              		.loc 1 89 0
 181 010a 35E0     		b	.L20
 182              	.L19:
  93:C:/Users/49542/Desktop/GD32F30x_Demo_Suites_V2.0.0/GD32F30x_Demo_Suites_V2.0.0/GD32F30x_Firmware_Library/GD32F30x_standard_peripheral/Source\gd32f30x_timer.c ****         rcu_periph_reset_disable(RCU_TIMER8RST);
 183              		.loc 1 93 0
 184 010c 40F21330 		movw	r0, #787
 185 0110 FFF7FEFF 		bl	rcu_periph_reset_enable
  94:C:/Users/49542/Desktop/GD32F30x_Demo_Suites_V2.0.0/GD32F30x_Demo_Suites_V2.0.0/GD32F30x_Firmware_Library/GD32F30x_standard_peripheral/Source\gd32f30x_timer.c ****         break;
 186              		.loc 1 94 0
 187 0114 40F21330 		movw	r0, #787
 188 0118 FFF7FEFF 		bl	rcu_periph_reset_disable
  95:C:/Users/49542/Desktop/GD32F30x_Demo_Suites_V2.0.0/GD32F30x_Demo_Suites_V2.0.0/GD32F30x_Firmware_Library/GD32F30x_standard_peripheral/Source\gd32f30x_timer.c ****     case TIMER9:
 189              		.loc 1 95 0
 190 011c 2CE0     		b	.L20
ARM GAS  C:\Users\49542\AppData\Local\Temp\ccx6VnNU.s 			page 7


 191              	.L17:
  98:C:/Users/49542/Desktop/GD32F30x_Demo_Suites_V2.0.0/GD32F30x_Demo_Suites_V2.0.0/GD32F30x_Firmware_Library/GD32F30x_standard_peripheral/Source\gd32f30x_timer.c ****         rcu_periph_reset_disable(RCU_TIMER9RST);
 192              		.loc 1 98 0
 193 011e 4FF44570 		mov	r0, #788
 194 0122 FFF7FEFF 		bl	rcu_periph_reset_enable
  99:C:/Users/49542/Desktop/GD32F30x_Demo_Suites_V2.0.0/GD32F30x_Demo_Suites_V2.0.0/GD32F30x_Firmware_Library/GD32F30x_standard_peripheral/Source\gd32f30x_timer.c ****         break;
 195              		.loc 1 99 0
 196 0126 4FF44570 		mov	r0, #788
 197 012a FFF7FEFF 		bl	rcu_periph_reset_disable
 100:C:/Users/49542/Desktop/GD32F30x_Demo_Suites_V2.0.0/GD32F30x_Demo_Suites_V2.0.0/GD32F30x_Firmware_Library/GD32F30x_standard_peripheral/Source\gd32f30x_timer.c ****     case TIMER10:
 198              		.loc 1 100 0
 199 012e 23E0     		b	.L20
 200              	.L18:
 103:C:/Users/49542/Desktop/GD32F30x_Demo_Suites_V2.0.0/GD32F30x_Demo_Suites_V2.0.0/GD32F30x_Firmware_Library/GD32F30x_standard_peripheral/Source\gd32f30x_timer.c ****         rcu_periph_reset_disable(RCU_TIMER10RST);
 201              		.loc 1 103 0
 202 0130 40F21530 		movw	r0, #789
 203 0134 FFF7FEFF 		bl	rcu_periph_reset_enable
 104:C:/Users/49542/Desktop/GD32F30x_Demo_Suites_V2.0.0/GD32F30x_Demo_Suites_V2.0.0/GD32F30x_Firmware_Library/GD32F30x_standard_peripheral/Source\gd32f30x_timer.c ****         break;
 204              		.loc 1 104 0
 205 0138 40F21530 		movw	r0, #789
 206 013c FFF7FEFF 		bl	rcu_periph_reset_disable
 105:C:/Users/49542/Desktop/GD32F30x_Demo_Suites_V2.0.0/GD32F30x_Demo_Suites_V2.0.0/GD32F30x_Firmware_Library/GD32F30x_standard_peripheral/Source\gd32f30x_timer.c ****     case TIMER11:
 207              		.loc 1 105 0
 208 0140 1AE0     		b	.L20
 209              	.L3:
 108:C:/Users/49542/Desktop/GD32F30x_Demo_Suites_V2.0.0/GD32F30x_Demo_Suites_V2.0.0/GD32F30x_Firmware_Library/GD32F30x_standard_peripheral/Source\gd32f30x_timer.c ****         rcu_periph_reset_disable(RCU_TIMER11RST);
 210              		.loc 1 108 0
 211 0142 40F20640 		movw	r0, #1030
 212 0146 FFF7FEFF 		bl	rcu_periph_reset_enable
 109:C:/Users/49542/Desktop/GD32F30x_Demo_Suites_V2.0.0/GD32F30x_Demo_Suites_V2.0.0/GD32F30x_Firmware_Library/GD32F30x_standard_peripheral/Source\gd32f30x_timer.c ****         break;
 213              		.loc 1 109 0
 214 014a 40F20640 		movw	r0, #1030
 215 014e FFF7FEFF 		bl	rcu_periph_reset_disable
 110:C:/Users/49542/Desktop/GD32F30x_Demo_Suites_V2.0.0/GD32F30x_Demo_Suites_V2.0.0/GD32F30x_Firmware_Library/GD32F30x_standard_peripheral/Source\gd32f30x_timer.c ****     case TIMER12:
 216              		.loc 1 110 0
 217 0152 11E0     		b	.L20
 218              	.L16:
 113:C:/Users/49542/Desktop/GD32F30x_Demo_Suites_V2.0.0/GD32F30x_Demo_Suites_V2.0.0/GD32F30x_Firmware_Library/GD32F30x_standard_peripheral/Source\gd32f30x_timer.c ****         rcu_periph_reset_disable(RCU_TIMER12RST);
 219              		.loc 1 113 0
 220 0154 40F20740 		movw	r0, #1031
 221 0158 FFF7FEFF 		bl	rcu_periph_reset_enable
 114:C:/Users/49542/Desktop/GD32F30x_Demo_Suites_V2.0.0/GD32F30x_Demo_Suites_V2.0.0/GD32F30x_Firmware_Library/GD32F30x_standard_peripheral/Source\gd32f30x_timer.c ****         break;
 222              		.loc 1 114 0
 223 015c 40F20740 		movw	r0, #1031
 224 0160 FFF7FEFF 		bl	rcu_periph_reset_disable
 115:C:/Users/49542/Desktop/GD32F30x_Demo_Suites_V2.0.0/GD32F30x_Demo_Suites_V2.0.0/GD32F30x_Firmware_Library/GD32F30x_standard_peripheral/Source\gd32f30x_timer.c ****     case TIMER13:
 225              		.loc 1 115 0
 226 0164 08E0     		b	.L20
 227              	.L14:
 118:C:/Users/49542/Desktop/GD32F30x_Demo_Suites_V2.0.0/GD32F30x_Demo_Suites_V2.0.0/GD32F30x_Firmware_Library/GD32F30x_standard_peripheral/Source\gd32f30x_timer.c ****         rcu_periph_reset_disable(RCU_TIMER13RST);
 228              		.loc 1 118 0
 229 0166 4FF48160 		mov	r0, #1032
 230 016a FFF7FEFF 		bl	rcu_periph_reset_enable
 119:C:/Users/49542/Desktop/GD32F30x_Demo_Suites_V2.0.0/GD32F30x_Demo_Suites_V2.0.0/GD32F30x_Firmware_Library/GD32F30x_standard_peripheral/Source\gd32f30x_timer.c ****         break;
 231              		.loc 1 119 0
 232 016e 4FF48160 		mov	r0, #1032
 233 0172 FFF7FEFF 		bl	rcu_periph_reset_disable
ARM GAS  C:\Users\49542\AppData\Local\Temp\ccx6VnNU.s 			page 8


 120:C:/Users/49542/Desktop/GD32F30x_Demo_Suites_V2.0.0/GD32F30x_Demo_Suites_V2.0.0/GD32F30x_Firmware_Library/GD32F30x_standard_peripheral/Source\gd32f30x_timer.c **** #endif /* GD32F30X_HD */
 234              		.loc 1 120 0
 235 0176 00BF     		nop
 236              	.L20:
 124:C:/Users/49542/Desktop/GD32F30x_Demo_Suites_V2.0.0/GD32F30x_Demo_Suites_V2.0.0/GD32F30x_Firmware_Library/GD32F30x_standard_peripheral/Source\gd32f30x_timer.c ****     }
 125:C:/Users/49542/Desktop/GD32F30x_Demo_Suites_V2.0.0/GD32F30x_Demo_Suites_V2.0.0/GD32F30x_Firmware_Library/GD32F30x_standard_peripheral/Source\gd32f30x_timer.c **** }
 237              		.loc 1 125 0
 238 0178 00BF     		nop
 239 017a 0837     		adds	r7, r7, #8
 240              	.LCFI3:
 241              		.cfi_def_cfa_offset 8
 242 017c BD46     		mov	sp, r7
 243              	.LCFI4:
 244              		.cfi_def_cfa_register 13
 245              		@ sp needed
 246 017e 80BD     		pop	{r7, pc}
 247              	.L22:
 248              		.align	2
 249              	.L21:
 250 0180 00180040 		.word	1073747968
 251 0184 00080040 		.word	1073743872
 252 0188 00040040 		.word	1073742848
 253 018c 00100040 		.word	1073745920
 254 0190 00140040 		.word	1073746944
 255 0194 000C0040 		.word	1073744896
 256 0198 00340140 		.word	1073820672
 257 019c 00200040 		.word	1073750016
 258 01a0 002C0140 		.word	1073818624
 259 01a4 001C0040 		.word	1073748992
 260 01a8 00500140 		.word	1073827840
 261 01ac 00540140 		.word	1073828864
 262 01b0 004C0140 		.word	1073826816
 263              		.cfi_endproc
 264              	.LFE116:
 266              		.section	.text.timer_struct_para_init,"ax",%progbits
 267              		.align	1
 268              		.global	timer_struct_para_init
 269              		.syntax unified
 270              		.thumb
 271              		.thumb_func
 272              		.fpu fpv4-sp-d16
 274              	timer_struct_para_init:
 275              	.LFB117:
 126:C:/Users/49542/Desktop/GD32F30x_Demo_Suites_V2.0.0/GD32F30x_Demo_Suites_V2.0.0/GD32F30x_Firmware_Library/GD32F30x_standard_peripheral/Source\gd32f30x_timer.c **** 
 127:C:/Users/49542/Desktop/GD32F30x_Demo_Suites_V2.0.0/GD32F30x_Demo_Suites_V2.0.0/GD32F30x_Firmware_Library/GD32F30x_standard_peripheral/Source\gd32f30x_timer.c **** /*!
 128:C:/Users/49542/Desktop/GD32F30x_Demo_Suites_V2.0.0/GD32F30x_Demo_Suites_V2.0.0/GD32F30x_Firmware_Library/GD32F30x_standard_peripheral/Source\gd32f30x_timer.c ****     \brief      initialize TIMER init parameter struct with a default value
 129:C:/Users/49542/Desktop/GD32F30x_Demo_Suites_V2.0.0/GD32F30x_Demo_Suites_V2.0.0/GD32F30x_Firmware_Library/GD32F30x_standard_peripheral/Source\gd32f30x_timer.c ****     \param[in]  initpara: init parameter struct
 130:C:/Users/49542/Desktop/GD32F30x_Demo_Suites_V2.0.0/GD32F30x_Demo_Suites_V2.0.0/GD32F30x_Firmware_Library/GD32F30x_standard_peripheral/Source\gd32f30x_timer.c ****     \param[out] none
 131:C:/Users/49542/Desktop/GD32F30x_Demo_Suites_V2.0.0/GD32F30x_Demo_Suites_V2.0.0/GD32F30x_Firmware_Library/GD32F30x_standard_peripheral/Source\gd32f30x_timer.c ****     \retval     none
 132:C:/Users/49542/Desktop/GD32F30x_Demo_Suites_V2.0.0/GD32F30x_Demo_Suites_V2.0.0/GD32F30x_Firmware_Library/GD32F30x_standard_peripheral/Source\gd32f30x_timer.c **** */
 133:C:/Users/49542/Desktop/GD32F30x_Demo_Suites_V2.0.0/GD32F30x_Demo_Suites_V2.0.0/GD32F30x_Firmware_Library/GD32F30x_standard_peripheral/Source\gd32f30x_timer.c **** void timer_struct_para_init(timer_parameter_struct* initpara)
 134:C:/Users/49542/Desktop/GD32F30x_Demo_Suites_V2.0.0/GD32F30x_Demo_Suites_V2.0.0/GD32F30x_Firmware_Library/GD32F30x_standard_peripheral/Source\gd32f30x_timer.c **** {
 276              		.loc 1 134 0
 277              		.cfi_startproc
 278              		@ args = 0, pretend = 0, frame = 8
 279              		@ frame_needed = 1, uses_anonymous_args = 0
 280              		@ link register save eliminated.
ARM GAS  C:\Users\49542\AppData\Local\Temp\ccx6VnNU.s 			page 9


 281 0000 80B4     		push	{r7}
 282              	.LCFI5:
 283              		.cfi_def_cfa_offset 4
 284              		.cfi_offset 7, -4
 285 0002 83B0     		sub	sp, sp, #12
 286              	.LCFI6:
 287              		.cfi_def_cfa_offset 16
 288 0004 00AF     		add	r7, sp, #0
 289              	.LCFI7:
 290              		.cfi_def_cfa_register 7
 291 0006 7860     		str	r0, [r7, #4]
 135:C:/Users/49542/Desktop/GD32F30x_Demo_Suites_V2.0.0/GD32F30x_Demo_Suites_V2.0.0/GD32F30x_Firmware_Library/GD32F30x_standard_peripheral/Source\gd32f30x_timer.c ****     /* initialize the init parameter struct member with the default value */
 136:C:/Users/49542/Desktop/GD32F30x_Demo_Suites_V2.0.0/GD32F30x_Demo_Suites_V2.0.0/GD32F30x_Firmware_Library/GD32F30x_standard_peripheral/Source\gd32f30x_timer.c ****     initpara->prescaler         = 0U;
 292              		.loc 1 136 0
 293 0008 7B68     		ldr	r3, [r7, #4]
 294 000a 0022     		movs	r2, #0
 295 000c 1A80     		strh	r2, [r3]	@ movhi
 137:C:/Users/49542/Desktop/GD32F30x_Demo_Suites_V2.0.0/GD32F30x_Demo_Suites_V2.0.0/GD32F30x_Firmware_Library/GD32F30x_standard_peripheral/Source\gd32f30x_timer.c ****     initpara->alignedmode       = TIMER_COUNTER_EDGE;
 296              		.loc 1 137 0
 297 000e 7B68     		ldr	r3, [r7, #4]
 298 0010 0022     		movs	r2, #0
 299 0012 5A80     		strh	r2, [r3, #2]	@ movhi
 138:C:/Users/49542/Desktop/GD32F30x_Demo_Suites_V2.0.0/GD32F30x_Demo_Suites_V2.0.0/GD32F30x_Firmware_Library/GD32F30x_standard_peripheral/Source\gd32f30x_timer.c ****     initpara->counterdirection  = TIMER_COUNTER_UP;
 300              		.loc 1 138 0
 301 0014 7B68     		ldr	r3, [r7, #4]
 302 0016 0022     		movs	r2, #0
 303 0018 9A80     		strh	r2, [r3, #4]	@ movhi
 139:C:/Users/49542/Desktop/GD32F30x_Demo_Suites_V2.0.0/GD32F30x_Demo_Suites_V2.0.0/GD32F30x_Firmware_Library/GD32F30x_standard_peripheral/Source\gd32f30x_timer.c ****     initpara->period            = 65535U;
 304              		.loc 1 139 0
 305 001a 7B68     		ldr	r3, [r7, #4]
 306 001c 4FF6FF72 		movw	r2, #65535
 307 0020 9A60     		str	r2, [r3, #8]
 140:C:/Users/49542/Desktop/GD32F30x_Demo_Suites_V2.0.0/GD32F30x_Demo_Suites_V2.0.0/GD32F30x_Firmware_Library/GD32F30x_standard_peripheral/Source\gd32f30x_timer.c ****     initpara->clockdivision     = TIMER_CKDIV_DIV1;
 308              		.loc 1 140 0
 309 0022 7B68     		ldr	r3, [r7, #4]
 310 0024 0022     		movs	r2, #0
 311 0026 DA80     		strh	r2, [r3, #6]	@ movhi
 141:C:/Users/49542/Desktop/GD32F30x_Demo_Suites_V2.0.0/GD32F30x_Demo_Suites_V2.0.0/GD32F30x_Firmware_Library/GD32F30x_standard_peripheral/Source\gd32f30x_timer.c ****     initpara->repetitioncounter = 0U;
 312              		.loc 1 141 0
 313 0028 7B68     		ldr	r3, [r7, #4]
 314 002a 0022     		movs	r2, #0
 315 002c 1A73     		strb	r2, [r3, #12]
 142:C:/Users/49542/Desktop/GD32F30x_Demo_Suites_V2.0.0/GD32F30x_Demo_Suites_V2.0.0/GD32F30x_Firmware_Library/GD32F30x_standard_peripheral/Source\gd32f30x_timer.c **** }
 316              		.loc 1 142 0
 317 002e 00BF     		nop
 318 0030 0C37     		adds	r7, r7, #12
 319              	.LCFI8:
 320              		.cfi_def_cfa_offset 4
 321 0032 BD46     		mov	sp, r7
 322              	.LCFI9:
 323              		.cfi_def_cfa_register 13
 324              		@ sp needed
 325 0034 5DF8047B 		ldr	r7, [sp], #4
 326              	.LCFI10:
 327              		.cfi_restore 7
 328              		.cfi_def_cfa_offset 0
 329 0038 7047     		bx	lr
ARM GAS  C:\Users\49542\AppData\Local\Temp\ccx6VnNU.s 			page 10


 330              		.cfi_endproc
 331              	.LFE117:
 333              		.section	.text.timer_init,"ax",%progbits
 334              		.align	1
 335              		.global	timer_init
 336              		.syntax unified
 337              		.thumb
 338              		.thumb_func
 339              		.fpu fpv4-sp-d16
 341              	timer_init:
 342              	.LFB118:
 143:C:/Users/49542/Desktop/GD32F30x_Demo_Suites_V2.0.0/GD32F30x_Demo_Suites_V2.0.0/GD32F30x_Firmware_Library/GD32F30x_standard_peripheral/Source\gd32f30x_timer.c **** 
 144:C:/Users/49542/Desktop/GD32F30x_Demo_Suites_V2.0.0/GD32F30x_Demo_Suites_V2.0.0/GD32F30x_Firmware_Library/GD32F30x_standard_peripheral/Source\gd32f30x_timer.c **** /*!
 145:C:/Users/49542/Desktop/GD32F30x_Demo_Suites_V2.0.0/GD32F30x_Demo_Suites_V2.0.0/GD32F30x_Firmware_Library/GD32F30x_standard_peripheral/Source\gd32f30x_timer.c ****     \brief      initialize TIMER counter
 146:C:/Users/49542/Desktop/GD32F30x_Demo_Suites_V2.0.0/GD32F30x_Demo_Suites_V2.0.0/GD32F30x_Firmware_Library/GD32F30x_standard_peripheral/Source\gd32f30x_timer.c ****     \param[in]  timer_periph: TIMERx(x=0..13)
 147:C:/Users/49542/Desktop/GD32F30x_Demo_Suites_V2.0.0/GD32F30x_Demo_Suites_V2.0.0/GD32F30x_Firmware_Library/GD32F30x_standard_peripheral/Source\gd32f30x_timer.c ****     \param[in]  initpara: init parameter struct
 148:C:/Users/49542/Desktop/GD32F30x_Demo_Suites_V2.0.0/GD32F30x_Demo_Suites_V2.0.0/GD32F30x_Firmware_Library/GD32F30x_standard_peripheral/Source\gd32f30x_timer.c ****                   prescaler: prescaler value of the counter clock, 0~65535
 149:C:/Users/49542/Desktop/GD32F30x_Demo_Suites_V2.0.0/GD32F30x_Demo_Suites_V2.0.0/GD32F30x_Firmware_Library/GD32F30x_standard_peripheral/Source\gd32f30x_timer.c ****                   alignedmode: TIMER_COUNTER_EDGE, TIMER_COUNTER_CENTER_DOWN, TIMER_COUNTER_CENTER_
 150:C:/Users/49542/Desktop/GD32F30x_Demo_Suites_V2.0.0/GD32F30x_Demo_Suites_V2.0.0/GD32F30x_Firmware_Library/GD32F30x_standard_peripheral/Source\gd32f30x_timer.c ****                   counterdirection: TIMER_COUNTER_UP, TIMER_COUNTER_DOWN
 151:C:/Users/49542/Desktop/GD32F30x_Demo_Suites_V2.0.0/GD32F30x_Demo_Suites_V2.0.0/GD32F30x_Firmware_Library/GD32F30x_standard_peripheral/Source\gd32f30x_timer.c ****                   period: counter auto reload value, 0~65535
 152:C:/Users/49542/Desktop/GD32F30x_Demo_Suites_V2.0.0/GD32F30x_Demo_Suites_V2.0.0/GD32F30x_Firmware_Library/GD32F30x_standard_peripheral/Source\gd32f30x_timer.c ****                   clockdivision: TIMER_CKDIV_DIV1, TIMER_CKDIV_DIV2, TIMER_CKDIV_DIV4
 153:C:/Users/49542/Desktop/GD32F30x_Demo_Suites_V2.0.0/GD32F30x_Demo_Suites_V2.0.0/GD32F30x_Firmware_Library/GD32F30x_standard_peripheral/Source\gd32f30x_timer.c ****                   repetitioncounter: counter repetition value, 0~255
 154:C:/Users/49542/Desktop/GD32F30x_Demo_Suites_V2.0.0/GD32F30x_Demo_Suites_V2.0.0/GD32F30x_Firmware_Library/GD32F30x_standard_peripheral/Source\gd32f30x_timer.c ****     \param[out] none
 155:C:/Users/49542/Desktop/GD32F30x_Demo_Suites_V2.0.0/GD32F30x_Demo_Suites_V2.0.0/GD32F30x_Firmware_Library/GD32F30x_standard_peripheral/Source\gd32f30x_timer.c ****     \retval     none
 156:C:/Users/49542/Desktop/GD32F30x_Demo_Suites_V2.0.0/GD32F30x_Demo_Suites_V2.0.0/GD32F30x_Firmware_Library/GD32F30x_standard_peripheral/Source\gd32f30x_timer.c **** */
 157:C:/Users/49542/Desktop/GD32F30x_Demo_Suites_V2.0.0/GD32F30x_Demo_Suites_V2.0.0/GD32F30x_Firmware_Library/GD32F30x_standard_peripheral/Source\gd32f30x_timer.c **** void timer_init(uint32_t timer_periph, timer_parameter_struct* initpara)
 158:C:/Users/49542/Desktop/GD32F30x_Demo_Suites_V2.0.0/GD32F30x_Demo_Suites_V2.0.0/GD32F30x_Firmware_Library/GD32F30x_standard_peripheral/Source\gd32f30x_timer.c **** {
 343              		.loc 1 158 0
 344              		.cfi_startproc
 345              		@ args = 0, pretend = 0, frame = 8
 346              		@ frame_needed = 1, uses_anonymous_args = 0
 347              		@ link register save eliminated.
 348 0000 80B4     		push	{r7}
 349              	.LCFI11:
 350              		.cfi_def_cfa_offset 4
 351              		.cfi_offset 7, -4
 352 0002 83B0     		sub	sp, sp, #12
 353              	.LCFI12:
 354              		.cfi_def_cfa_offset 16
 355 0004 00AF     		add	r7, sp, #0
 356              	.LCFI13:
 357              		.cfi_def_cfa_register 7
 358 0006 7860     		str	r0, [r7, #4]
 359 0008 3960     		str	r1, [r7]
 159:C:/Users/49542/Desktop/GD32F30x_Demo_Suites_V2.0.0/GD32F30x_Demo_Suites_V2.0.0/GD32F30x_Firmware_Library/GD32F30x_standard_peripheral/Source\gd32f30x_timer.c ****     /* configure the counter prescaler value */
 160:C:/Users/49542/Desktop/GD32F30x_Demo_Suites_V2.0.0/GD32F30x_Demo_Suites_V2.0.0/GD32F30x_Firmware_Library/GD32F30x_standard_peripheral/Source\gd32f30x_timer.c ****     TIMER_PSC(timer_periph) = (uint16_t)initpara->prescaler;
 360              		.loc 1 160 0
 361 000a 3B68     		ldr	r3, [r7]
 362 000c 1A88     		ldrh	r2, [r3]
 363 000e 7B68     		ldr	r3, [r7, #4]
 364 0010 2833     		adds	r3, r3, #40
 365 0012 1A60     		str	r2, [r3]
 161:C:/Users/49542/Desktop/GD32F30x_Demo_Suites_V2.0.0/GD32F30x_Demo_Suites_V2.0.0/GD32F30x_Firmware_Library/GD32F30x_standard_peripheral/Source\gd32f30x_timer.c **** 
 162:C:/Users/49542/Desktop/GD32F30x_Demo_Suites_V2.0.0/GD32F30x_Demo_Suites_V2.0.0/GD32F30x_Firmware_Library/GD32F30x_standard_peripheral/Source\gd32f30x_timer.c ****     /* configure the counter direction and aligned mode */
 163:C:/Users/49542/Desktop/GD32F30x_Demo_Suites_V2.0.0/GD32F30x_Demo_Suites_V2.0.0/GD32F30x_Firmware_Library/GD32F30x_standard_peripheral/Source\gd32f30x_timer.c ****     if((TIMER0 == timer_periph) || (TIMER1 == timer_periph) || (TIMER2 == timer_periph)
 366              		.loc 1 163 0
 367 0014 7B68     		ldr	r3, [r7, #4]
ARM GAS  C:\Users\49542\AppData\Local\Temp\ccx6VnNU.s 			page 11


 368 0016 324A     		ldr	r2, .L30
 369 0018 9342     		cmp	r3, r2
 370 001a 13D0     		beq	.L25
 371              		.loc 1 163 0 is_stmt 0 discriminator 1
 372 001c 7B68     		ldr	r3, [r7, #4]
 373 001e B3F1804F 		cmp	r3, #1073741824
 374 0022 0FD0     		beq	.L25
 375              		.loc 1 163 0 discriminator 2
 376 0024 7B68     		ldr	r3, [r7, #4]
 377 0026 2F4A     		ldr	r2, .L30+4
 378 0028 9342     		cmp	r3, r2
 379 002a 0BD0     		beq	.L25
 164:C:/Users/49542/Desktop/GD32F30x_Demo_Suites_V2.0.0/GD32F30x_Demo_Suites_V2.0.0/GD32F30x_Firmware_Library/GD32F30x_standard_peripheral/Source\gd32f30x_timer.c ****         || (TIMER3 == timer_periph) || (TIMER4 == timer_periph) || (TIMER7 == timer_periph)){
 380              		.loc 1 164 0 is_stmt 1
 381 002c 7B68     		ldr	r3, [r7, #4]
 382 002e 2E4A     		ldr	r2, .L30+8
 383 0030 9342     		cmp	r3, r2
 384 0032 07D0     		beq	.L25
 385              		.loc 1 164 0 is_stmt 0 discriminator 1
 386 0034 7B68     		ldr	r3, [r7, #4]
 387 0036 2D4A     		ldr	r2, .L30+12
 388 0038 9342     		cmp	r3, r2
 389 003a 03D0     		beq	.L25
 390              		.loc 1 164 0 discriminator 2
 391 003c 7B68     		ldr	r3, [r7, #4]
 392 003e 2C4A     		ldr	r2, .L30+16
 393 0040 9342     		cmp	r3, r2
 394 0042 15D1     		bne	.L26
 395              	.L25:
 165:C:/Users/49542/Desktop/GD32F30x_Demo_Suites_V2.0.0/GD32F30x_Demo_Suites_V2.0.0/GD32F30x_Firmware_Library/GD32F30x_standard_peripheral/Source\gd32f30x_timer.c ****         TIMER_CTL0(timer_periph) &= ~(uint32_t)(TIMER_CTL0_DIR|TIMER_CTL0_CAM);
 396              		.loc 1 165 0 is_stmt 1
 397 0044 7B68     		ldr	r3, [r7, #4]
 398 0046 1A68     		ldr	r2, [r3]
 399 0048 7B68     		ldr	r3, [r7, #4]
 400 004a 22F07002 		bic	r2, r2, #112
 401 004e 1A60     		str	r2, [r3]
 166:C:/Users/49542/Desktop/GD32F30x_Demo_Suites_V2.0.0/GD32F30x_Demo_Suites_V2.0.0/GD32F30x_Firmware_Library/GD32F30x_standard_peripheral/Source\gd32f30x_timer.c ****         TIMER_CTL0(timer_periph) |= (uint32_t)initpara->alignedmode;
 402              		.loc 1 166 0
 403 0050 7B68     		ldr	r3, [r7, #4]
 404 0052 1A68     		ldr	r2, [r3]
 405 0054 3B68     		ldr	r3, [r7]
 406 0056 5B88     		ldrh	r3, [r3, #2]
 407 0058 1946     		mov	r1, r3
 408 005a 7B68     		ldr	r3, [r7, #4]
 409 005c 0A43     		orrs	r2, r2, r1
 410 005e 1A60     		str	r2, [r3]
 167:C:/Users/49542/Desktop/GD32F30x_Demo_Suites_V2.0.0/GD32F30x_Demo_Suites_V2.0.0/GD32F30x_Firmware_Library/GD32F30x_standard_peripheral/Source\gd32f30x_timer.c ****         TIMER_CTL0(timer_periph) |= (uint32_t)initpara->counterdirection;
 411              		.loc 1 167 0
 412 0060 7B68     		ldr	r3, [r7, #4]
 413 0062 1A68     		ldr	r2, [r3]
 414 0064 3B68     		ldr	r3, [r7]
 415 0066 9B88     		ldrh	r3, [r3, #4]
 416 0068 1946     		mov	r1, r3
 417 006a 7B68     		ldr	r3, [r7, #4]
 418 006c 0A43     		orrs	r2, r2, r1
 419 006e 1A60     		str	r2, [r3]
 420              	.L26:
ARM GAS  C:\Users\49542\AppData\Local\Temp\ccx6VnNU.s 			page 12


 168:C:/Users/49542/Desktop/GD32F30x_Demo_Suites_V2.0.0/GD32F30x_Demo_Suites_V2.0.0/GD32F30x_Firmware_Library/GD32F30x_standard_peripheral/Source\gd32f30x_timer.c ****     }
 169:C:/Users/49542/Desktop/GD32F30x_Demo_Suites_V2.0.0/GD32F30x_Demo_Suites_V2.0.0/GD32F30x_Firmware_Library/GD32F30x_standard_peripheral/Source\gd32f30x_timer.c **** 
 170:C:/Users/49542/Desktop/GD32F30x_Demo_Suites_V2.0.0/GD32F30x_Demo_Suites_V2.0.0/GD32F30x_Firmware_Library/GD32F30x_standard_peripheral/Source\gd32f30x_timer.c ****     /* configure the autoreload value */
 171:C:/Users/49542/Desktop/GD32F30x_Demo_Suites_V2.0.0/GD32F30x_Demo_Suites_V2.0.0/GD32F30x_Firmware_Library/GD32F30x_standard_peripheral/Source\gd32f30x_timer.c ****     TIMER_CAR(timer_periph) = (uint32_t)initpara->period;
 421              		.loc 1 171 0
 422 0070 7B68     		ldr	r3, [r7, #4]
 423 0072 2C33     		adds	r3, r3, #44
 424 0074 1A46     		mov	r2, r3
 425 0076 3B68     		ldr	r3, [r7]
 426 0078 9B68     		ldr	r3, [r3, #8]
 427 007a 1360     		str	r3, [r2]
 172:C:/Users/49542/Desktop/GD32F30x_Demo_Suites_V2.0.0/GD32F30x_Demo_Suites_V2.0.0/GD32F30x_Firmware_Library/GD32F30x_standard_peripheral/Source\gd32f30x_timer.c **** 
 173:C:/Users/49542/Desktop/GD32F30x_Demo_Suites_V2.0.0/GD32F30x_Demo_Suites_V2.0.0/GD32F30x_Firmware_Library/GD32F30x_standard_peripheral/Source\gd32f30x_timer.c ****     if((TIMER5 != timer_periph) && (TIMER6 != timer_periph)){
 428              		.loc 1 173 0
 429 007c 7B68     		ldr	r3, [r7, #4]
 430 007e 1D4A     		ldr	r2, .L30+20
 431 0080 9342     		cmp	r3, r2
 432 0082 11D0     		beq	.L27
 433              		.loc 1 173 0 is_stmt 0 discriminator 1
 434 0084 7B68     		ldr	r3, [r7, #4]
 435 0086 1C4A     		ldr	r2, .L30+24
 436 0088 9342     		cmp	r3, r2
 437 008a 0DD0     		beq	.L27
 174:C:/Users/49542/Desktop/GD32F30x_Demo_Suites_V2.0.0/GD32F30x_Demo_Suites_V2.0.0/GD32F30x_Firmware_Library/GD32F30x_standard_peripheral/Source\gd32f30x_timer.c ****         /* reset the CKDIV bit */
 175:C:/Users/49542/Desktop/GD32F30x_Demo_Suites_V2.0.0/GD32F30x_Demo_Suites_V2.0.0/GD32F30x_Firmware_Library/GD32F30x_standard_peripheral/Source\gd32f30x_timer.c ****         TIMER_CTL0(timer_periph) &= ~(uint32_t)TIMER_CTL0_CKDIV;
 438              		.loc 1 175 0 is_stmt 1
 439 008c 7B68     		ldr	r3, [r7, #4]
 440 008e 1A68     		ldr	r2, [r3]
 441 0090 7B68     		ldr	r3, [r7, #4]
 442 0092 22F44072 		bic	r2, r2, #768
 443 0096 1A60     		str	r2, [r3]
 176:C:/Users/49542/Desktop/GD32F30x_Demo_Suites_V2.0.0/GD32F30x_Demo_Suites_V2.0.0/GD32F30x_Firmware_Library/GD32F30x_standard_peripheral/Source\gd32f30x_timer.c ****         TIMER_CTL0(timer_periph) |= (uint32_t)initpara->clockdivision;
 444              		.loc 1 176 0
 445 0098 7B68     		ldr	r3, [r7, #4]
 446 009a 1A68     		ldr	r2, [r3]
 447 009c 3B68     		ldr	r3, [r7]
 448 009e DB88     		ldrh	r3, [r3, #6]
 449 00a0 1946     		mov	r1, r3
 450 00a2 7B68     		ldr	r3, [r7, #4]
 451 00a4 0A43     		orrs	r2, r2, r1
 452 00a6 1A60     		str	r2, [r3]
 453              	.L27:
 177:C:/Users/49542/Desktop/GD32F30x_Demo_Suites_V2.0.0/GD32F30x_Demo_Suites_V2.0.0/GD32F30x_Firmware_Library/GD32F30x_standard_peripheral/Source\gd32f30x_timer.c ****     }
 178:C:/Users/49542/Desktop/GD32F30x_Demo_Suites_V2.0.0/GD32F30x_Demo_Suites_V2.0.0/GD32F30x_Firmware_Library/GD32F30x_standard_peripheral/Source\gd32f30x_timer.c **** 
 179:C:/Users/49542/Desktop/GD32F30x_Demo_Suites_V2.0.0/GD32F30x_Demo_Suites_V2.0.0/GD32F30x_Firmware_Library/GD32F30x_standard_peripheral/Source\gd32f30x_timer.c ****     if((TIMER0 == timer_periph) || (TIMER7 == timer_periph)){
 454              		.loc 1 179 0
 455 00a8 7B68     		ldr	r3, [r7, #4]
 456 00aa 0D4A     		ldr	r2, .L30
 457 00ac 9342     		cmp	r3, r2
 458 00ae 03D0     		beq	.L28
 459              		.loc 1 179 0 is_stmt 0 discriminator 1
 460 00b0 7B68     		ldr	r3, [r7, #4]
 461 00b2 0F4A     		ldr	r2, .L30+16
 462 00b4 9342     		cmp	r3, r2
 463 00b6 04D1     		bne	.L29
 464              	.L28:
 180:C:/Users/49542/Desktop/GD32F30x_Demo_Suites_V2.0.0/GD32F30x_Demo_Suites_V2.0.0/GD32F30x_Firmware_Library/GD32F30x_standard_peripheral/Source\gd32f30x_timer.c ****         /* configure the repetition counter value */
ARM GAS  C:\Users\49542\AppData\Local\Temp\ccx6VnNU.s 			page 13


 181:C:/Users/49542/Desktop/GD32F30x_Demo_Suites_V2.0.0/GD32F30x_Demo_Suites_V2.0.0/GD32F30x_Firmware_Library/GD32F30x_standard_peripheral/Source\gd32f30x_timer.c ****         TIMER_CREP(timer_periph) = (uint32_t)initpara->repetitioncounter;
 465              		.loc 1 181 0 is_stmt 1
 466 00b8 3B68     		ldr	r3, [r7]
 467 00ba 1A7B     		ldrb	r2, [r3, #12]	@ zero_extendqisi2
 468 00bc 7B68     		ldr	r3, [r7, #4]
 469 00be 3033     		adds	r3, r3, #48
 470 00c0 1A60     		str	r2, [r3]
 471              	.L29:
 182:C:/Users/49542/Desktop/GD32F30x_Demo_Suites_V2.0.0/GD32F30x_Demo_Suites_V2.0.0/GD32F30x_Firmware_Library/GD32F30x_standard_peripheral/Source\gd32f30x_timer.c ****     }
 183:C:/Users/49542/Desktop/GD32F30x_Demo_Suites_V2.0.0/GD32F30x_Demo_Suites_V2.0.0/GD32F30x_Firmware_Library/GD32F30x_standard_peripheral/Source\gd32f30x_timer.c **** 
 184:C:/Users/49542/Desktop/GD32F30x_Demo_Suites_V2.0.0/GD32F30x_Demo_Suites_V2.0.0/GD32F30x_Firmware_Library/GD32F30x_standard_peripheral/Source\gd32f30x_timer.c ****     /* generate an update event */
 185:C:/Users/49542/Desktop/GD32F30x_Demo_Suites_V2.0.0/GD32F30x_Demo_Suites_V2.0.0/GD32F30x_Firmware_Library/GD32F30x_standard_peripheral/Source\gd32f30x_timer.c ****     TIMER_SWEVG(timer_periph) |= (uint32_t)TIMER_SWEVG_UPG;
 472              		.loc 1 185 0
 473 00c2 7B68     		ldr	r3, [r7, #4]
 474 00c4 1433     		adds	r3, r3, #20
 475 00c6 1B68     		ldr	r3, [r3]
 476 00c8 7A68     		ldr	r2, [r7, #4]
 477 00ca 1432     		adds	r2, r2, #20
 478 00cc 43F00103 		orr	r3, r3, #1
 479 00d0 1360     		str	r3, [r2]
 186:C:/Users/49542/Desktop/GD32F30x_Demo_Suites_V2.0.0/GD32F30x_Demo_Suites_V2.0.0/GD32F30x_Firmware_Library/GD32F30x_standard_peripheral/Source\gd32f30x_timer.c **** }
 480              		.loc 1 186 0
 481 00d2 00BF     		nop
 482 00d4 0C37     		adds	r7, r7, #12
 483              	.LCFI14:
 484              		.cfi_def_cfa_offset 4
 485 00d6 BD46     		mov	sp, r7
 486              	.LCFI15:
 487              		.cfi_def_cfa_register 13
 488              		@ sp needed
 489 00d8 5DF8047B 		ldr	r7, [sp], #4
 490              	.LCFI16:
 491              		.cfi_restore 7
 492              		.cfi_def_cfa_offset 0
 493 00dc 7047     		bx	lr
 494              	.L31:
 495 00de 00BF     		.align	2
 496              	.L30:
 497 00e0 002C0140 		.word	1073818624
 498 00e4 00040040 		.word	1073742848
 499 00e8 00080040 		.word	1073743872
 500 00ec 000C0040 		.word	1073744896
 501 00f0 00340140 		.word	1073820672
 502 00f4 00100040 		.word	1073745920
 503 00f8 00140040 		.word	1073746944
 504              		.cfi_endproc
 505              	.LFE118:
 507              		.section	.text.timer_enable,"ax",%progbits
 508              		.align	1
 509              		.global	timer_enable
 510              		.syntax unified
 511              		.thumb
 512              		.thumb_func
 513              		.fpu fpv4-sp-d16
 515              	timer_enable:
 516              	.LFB119:
 187:C:/Users/49542/Desktop/GD32F30x_Demo_Suites_V2.0.0/GD32F30x_Demo_Suites_V2.0.0/GD32F30x_Firmware_Library/GD32F30x_standard_peripheral/Source\gd32f30x_timer.c **** 
ARM GAS  C:\Users\49542\AppData\Local\Temp\ccx6VnNU.s 			page 14


 188:C:/Users/49542/Desktop/GD32F30x_Demo_Suites_V2.0.0/GD32F30x_Demo_Suites_V2.0.0/GD32F30x_Firmware_Library/GD32F30x_standard_peripheral/Source\gd32f30x_timer.c **** /*!
 189:C:/Users/49542/Desktop/GD32F30x_Demo_Suites_V2.0.0/GD32F30x_Demo_Suites_V2.0.0/GD32F30x_Firmware_Library/GD32F30x_standard_peripheral/Source\gd32f30x_timer.c ****     \brief      enable a TIMER
 190:C:/Users/49542/Desktop/GD32F30x_Demo_Suites_V2.0.0/GD32F30x_Demo_Suites_V2.0.0/GD32F30x_Firmware_Library/GD32F30x_standard_peripheral/Source\gd32f30x_timer.c ****     \param[in]  timer_periph: TIMERx(x=0..13)
 191:C:/Users/49542/Desktop/GD32F30x_Demo_Suites_V2.0.0/GD32F30x_Demo_Suites_V2.0.0/GD32F30x_Firmware_Library/GD32F30x_standard_peripheral/Source\gd32f30x_timer.c ****     \param[out] none
 192:C:/Users/49542/Desktop/GD32F30x_Demo_Suites_V2.0.0/GD32F30x_Demo_Suites_V2.0.0/GD32F30x_Firmware_Library/GD32F30x_standard_peripheral/Source\gd32f30x_timer.c ****     \retval     none
 193:C:/Users/49542/Desktop/GD32F30x_Demo_Suites_V2.0.0/GD32F30x_Demo_Suites_V2.0.0/GD32F30x_Firmware_Library/GD32F30x_standard_peripheral/Source\gd32f30x_timer.c **** */
 194:C:/Users/49542/Desktop/GD32F30x_Demo_Suites_V2.0.0/GD32F30x_Demo_Suites_V2.0.0/GD32F30x_Firmware_Library/GD32F30x_standard_peripheral/Source\gd32f30x_timer.c **** void timer_enable(uint32_t timer_periph)
 195:C:/Users/49542/Desktop/GD32F30x_Demo_Suites_V2.0.0/GD32F30x_Demo_Suites_V2.0.0/GD32F30x_Firmware_Library/GD32F30x_standard_peripheral/Source\gd32f30x_timer.c **** {
 517              		.loc 1 195 0
 518              		.cfi_startproc
 519              		@ args = 0, pretend = 0, frame = 8
 520              		@ frame_needed = 1, uses_anonymous_args = 0
 521              		@ link register save eliminated.
 522 0000 80B4     		push	{r7}
 523              	.LCFI17:
 524              		.cfi_def_cfa_offset 4
 525              		.cfi_offset 7, -4
 526 0002 83B0     		sub	sp, sp, #12
 527              	.LCFI18:
 528              		.cfi_def_cfa_offset 16
 529 0004 00AF     		add	r7, sp, #0
 530              	.LCFI19:
 531              		.cfi_def_cfa_register 7
 532 0006 7860     		str	r0, [r7, #4]
 196:C:/Users/49542/Desktop/GD32F30x_Demo_Suites_V2.0.0/GD32F30x_Demo_Suites_V2.0.0/GD32F30x_Firmware_Library/GD32F30x_standard_peripheral/Source\gd32f30x_timer.c ****     TIMER_CTL0(timer_periph) |= (uint32_t)TIMER_CTL0_CEN;
 533              		.loc 1 196 0
 534 0008 7B68     		ldr	r3, [r7, #4]
 535 000a 1A68     		ldr	r2, [r3]
 536 000c 7B68     		ldr	r3, [r7, #4]
 537 000e 42F00102 		orr	r2, r2, #1
 538 0012 1A60     		str	r2, [r3]
 197:C:/Users/49542/Desktop/GD32F30x_Demo_Suites_V2.0.0/GD32F30x_Demo_Suites_V2.0.0/GD32F30x_Firmware_Library/GD32F30x_standard_peripheral/Source\gd32f30x_timer.c **** }
 539              		.loc 1 197 0
 540 0014 00BF     		nop
 541 0016 0C37     		adds	r7, r7, #12
 542              	.LCFI20:
 543              		.cfi_def_cfa_offset 4
 544 0018 BD46     		mov	sp, r7
 545              	.LCFI21:
 546              		.cfi_def_cfa_register 13
 547              		@ sp needed
 548 001a 5DF8047B 		ldr	r7, [sp], #4
 549              	.LCFI22:
 550              		.cfi_restore 7
 551              		.cfi_def_cfa_offset 0
 552 001e 7047     		bx	lr
 553              		.cfi_endproc
 554              	.LFE119:
 556              		.section	.text.timer_disable,"ax",%progbits
 557              		.align	1
 558              		.global	timer_disable
 559              		.syntax unified
 560              		.thumb
 561              		.thumb_func
 562              		.fpu fpv4-sp-d16
 564              	timer_disable:
 565              	.LFB120:
ARM GAS  C:\Users\49542\AppData\Local\Temp\ccx6VnNU.s 			page 15


 198:C:/Users/49542/Desktop/GD32F30x_Demo_Suites_V2.0.0/GD32F30x_Demo_Suites_V2.0.0/GD32F30x_Firmware_Library/GD32F30x_standard_peripheral/Source\gd32f30x_timer.c **** 
 199:C:/Users/49542/Desktop/GD32F30x_Demo_Suites_V2.0.0/GD32F30x_Demo_Suites_V2.0.0/GD32F30x_Firmware_Library/GD32F30x_standard_peripheral/Source\gd32f30x_timer.c **** /*!
 200:C:/Users/49542/Desktop/GD32F30x_Demo_Suites_V2.0.0/GD32F30x_Demo_Suites_V2.0.0/GD32F30x_Firmware_Library/GD32F30x_standard_peripheral/Source\gd32f30x_timer.c ****     \brief      disable a TIMER
 201:C:/Users/49542/Desktop/GD32F30x_Demo_Suites_V2.0.0/GD32F30x_Demo_Suites_V2.0.0/GD32F30x_Firmware_Library/GD32F30x_standard_peripheral/Source\gd32f30x_timer.c ****     \param[in]  timer_periph: TIMERx(x=0..13)
 202:C:/Users/49542/Desktop/GD32F30x_Demo_Suites_V2.0.0/GD32F30x_Demo_Suites_V2.0.0/GD32F30x_Firmware_Library/GD32F30x_standard_peripheral/Source\gd32f30x_timer.c ****     \param[out] none
 203:C:/Users/49542/Desktop/GD32F30x_Demo_Suites_V2.0.0/GD32F30x_Demo_Suites_V2.0.0/GD32F30x_Firmware_Library/GD32F30x_standard_peripheral/Source\gd32f30x_timer.c ****     \retval     none
 204:C:/Users/49542/Desktop/GD32F30x_Demo_Suites_V2.0.0/GD32F30x_Demo_Suites_V2.0.0/GD32F30x_Firmware_Library/GD32F30x_standard_peripheral/Source\gd32f30x_timer.c **** */
 205:C:/Users/49542/Desktop/GD32F30x_Demo_Suites_V2.0.0/GD32F30x_Demo_Suites_V2.0.0/GD32F30x_Firmware_Library/GD32F30x_standard_peripheral/Source\gd32f30x_timer.c **** void timer_disable(uint32_t timer_periph)
 206:C:/Users/49542/Desktop/GD32F30x_Demo_Suites_V2.0.0/GD32F30x_Demo_Suites_V2.0.0/GD32F30x_Firmware_Library/GD32F30x_standard_peripheral/Source\gd32f30x_timer.c **** {
 566              		.loc 1 206 0
 567              		.cfi_startproc
 568              		@ args = 0, pretend = 0, frame = 8
 569              		@ frame_needed = 1, uses_anonymous_args = 0
 570              		@ link register save eliminated.
 571 0000 80B4     		push	{r7}
 572              	.LCFI23:
 573              		.cfi_def_cfa_offset 4
 574              		.cfi_offset 7, -4
 575 0002 83B0     		sub	sp, sp, #12
 576              	.LCFI24:
 577              		.cfi_def_cfa_offset 16
 578 0004 00AF     		add	r7, sp, #0
 579              	.LCFI25:
 580              		.cfi_def_cfa_register 7
 581 0006 7860     		str	r0, [r7, #4]
 207:C:/Users/49542/Desktop/GD32F30x_Demo_Suites_V2.0.0/GD32F30x_Demo_Suites_V2.0.0/GD32F30x_Firmware_Library/GD32F30x_standard_peripheral/Source\gd32f30x_timer.c ****     TIMER_CTL0(timer_periph) &= ~(uint32_t)TIMER_CTL0_CEN;
 582              		.loc 1 207 0
 583 0008 7B68     		ldr	r3, [r7, #4]
 584 000a 1A68     		ldr	r2, [r3]
 585 000c 7B68     		ldr	r3, [r7, #4]
 586 000e 22F00102 		bic	r2, r2, #1
 587 0012 1A60     		str	r2, [r3]
 208:C:/Users/49542/Desktop/GD32F30x_Demo_Suites_V2.0.0/GD32F30x_Demo_Suites_V2.0.0/GD32F30x_Firmware_Library/GD32F30x_standard_peripheral/Source\gd32f30x_timer.c **** }
 588              		.loc 1 208 0
 589 0014 00BF     		nop
 590 0016 0C37     		adds	r7, r7, #12
 591              	.LCFI26:
 592              		.cfi_def_cfa_offset 4
 593 0018 BD46     		mov	sp, r7
 594              	.LCFI27:
 595              		.cfi_def_cfa_register 13
 596              		@ sp needed
 597 001a 5DF8047B 		ldr	r7, [sp], #4
 598              	.LCFI28:
 599              		.cfi_restore 7
 600              		.cfi_def_cfa_offset 0
 601 001e 7047     		bx	lr
 602              		.cfi_endproc
 603              	.LFE120:
 605              		.section	.text.timer_auto_reload_shadow_enable,"ax",%progbits
 606              		.align	1
 607              		.global	timer_auto_reload_shadow_enable
 608              		.syntax unified
 609              		.thumb
 610              		.thumb_func
 611              		.fpu fpv4-sp-d16
 613              	timer_auto_reload_shadow_enable:
ARM GAS  C:\Users\49542\AppData\Local\Temp\ccx6VnNU.s 			page 16


 614              	.LFB121:
 209:C:/Users/49542/Desktop/GD32F30x_Demo_Suites_V2.0.0/GD32F30x_Demo_Suites_V2.0.0/GD32F30x_Firmware_Library/GD32F30x_standard_peripheral/Source\gd32f30x_timer.c **** 
 210:C:/Users/49542/Desktop/GD32F30x_Demo_Suites_V2.0.0/GD32F30x_Demo_Suites_V2.0.0/GD32F30x_Firmware_Library/GD32F30x_standard_peripheral/Source\gd32f30x_timer.c **** /*!
 211:C:/Users/49542/Desktop/GD32F30x_Demo_Suites_V2.0.0/GD32F30x_Demo_Suites_V2.0.0/GD32F30x_Firmware_Library/GD32F30x_standard_peripheral/Source\gd32f30x_timer.c ****     \brief      enable the auto reload shadow function
 212:C:/Users/49542/Desktop/GD32F30x_Demo_Suites_V2.0.0/GD32F30x_Demo_Suites_V2.0.0/GD32F30x_Firmware_Library/GD32F30x_standard_peripheral/Source\gd32f30x_timer.c ****     \param[in]  timer_periph: TIMERx(x=0..13)
 213:C:/Users/49542/Desktop/GD32F30x_Demo_Suites_V2.0.0/GD32F30x_Demo_Suites_V2.0.0/GD32F30x_Firmware_Library/GD32F30x_standard_peripheral/Source\gd32f30x_timer.c ****     \param[out] none
 214:C:/Users/49542/Desktop/GD32F30x_Demo_Suites_V2.0.0/GD32F30x_Demo_Suites_V2.0.0/GD32F30x_Firmware_Library/GD32F30x_standard_peripheral/Source\gd32f30x_timer.c ****     \retval     none
 215:C:/Users/49542/Desktop/GD32F30x_Demo_Suites_V2.0.0/GD32F30x_Demo_Suites_V2.0.0/GD32F30x_Firmware_Library/GD32F30x_standard_peripheral/Source\gd32f30x_timer.c **** */
 216:C:/Users/49542/Desktop/GD32F30x_Demo_Suites_V2.0.0/GD32F30x_Demo_Suites_V2.0.0/GD32F30x_Firmware_Library/GD32F30x_standard_peripheral/Source\gd32f30x_timer.c **** void timer_auto_reload_shadow_enable(uint32_t timer_periph)
 217:C:/Users/49542/Desktop/GD32F30x_Demo_Suites_V2.0.0/GD32F30x_Demo_Suites_V2.0.0/GD32F30x_Firmware_Library/GD32F30x_standard_peripheral/Source\gd32f30x_timer.c **** {
 615              		.loc 1 217 0
 616              		.cfi_startproc
 617              		@ args = 0, pretend = 0, frame = 8
 618              		@ frame_needed = 1, uses_anonymous_args = 0
 619              		@ link register save eliminated.
 620 0000 80B4     		push	{r7}
 621              	.LCFI29:
 622              		.cfi_def_cfa_offset 4
 623              		.cfi_offset 7, -4
 624 0002 83B0     		sub	sp, sp, #12
 625              	.LCFI30:
 626              		.cfi_def_cfa_offset 16
 627 0004 00AF     		add	r7, sp, #0
 628              	.LCFI31:
 629              		.cfi_def_cfa_register 7
 630 0006 7860     		str	r0, [r7, #4]
 218:C:/Users/49542/Desktop/GD32F30x_Demo_Suites_V2.0.0/GD32F30x_Demo_Suites_V2.0.0/GD32F30x_Firmware_Library/GD32F30x_standard_peripheral/Source\gd32f30x_timer.c ****     TIMER_CTL0(timer_periph) |= (uint32_t)TIMER_CTL0_ARSE;
 631              		.loc 1 218 0
 632 0008 7B68     		ldr	r3, [r7, #4]
 633 000a 1A68     		ldr	r2, [r3]
 634 000c 7B68     		ldr	r3, [r7, #4]
 635 000e 42F08002 		orr	r2, r2, #128
 636 0012 1A60     		str	r2, [r3]
 219:C:/Users/49542/Desktop/GD32F30x_Demo_Suites_V2.0.0/GD32F30x_Demo_Suites_V2.0.0/GD32F30x_Firmware_Library/GD32F30x_standard_peripheral/Source\gd32f30x_timer.c **** }
 637              		.loc 1 219 0
 638 0014 00BF     		nop
 639 0016 0C37     		adds	r7, r7, #12
 640              	.LCFI32:
 641              		.cfi_def_cfa_offset 4
 642 0018 BD46     		mov	sp, r7
 643              	.LCFI33:
 644              		.cfi_def_cfa_register 13
 645              		@ sp needed
 646 001a 5DF8047B 		ldr	r7, [sp], #4
 647              	.LCFI34:
 648              		.cfi_restore 7
 649              		.cfi_def_cfa_offset 0
 650 001e 7047     		bx	lr
 651              		.cfi_endproc
 652              	.LFE121:
 654              		.section	.text.timer_auto_reload_shadow_disable,"ax",%progbits
 655              		.align	1
 656              		.global	timer_auto_reload_shadow_disable
 657              		.syntax unified
 658              		.thumb
 659              		.thumb_func
 660              		.fpu fpv4-sp-d16
ARM GAS  C:\Users\49542\AppData\Local\Temp\ccx6VnNU.s 			page 17


 662              	timer_auto_reload_shadow_disable:
 663              	.LFB122:
 220:C:/Users/49542/Desktop/GD32F30x_Demo_Suites_V2.0.0/GD32F30x_Demo_Suites_V2.0.0/GD32F30x_Firmware_Library/GD32F30x_standard_peripheral/Source\gd32f30x_timer.c **** 
 221:C:/Users/49542/Desktop/GD32F30x_Demo_Suites_V2.0.0/GD32F30x_Demo_Suites_V2.0.0/GD32F30x_Firmware_Library/GD32F30x_standard_peripheral/Source\gd32f30x_timer.c **** /*!
 222:C:/Users/49542/Desktop/GD32F30x_Demo_Suites_V2.0.0/GD32F30x_Demo_Suites_V2.0.0/GD32F30x_Firmware_Library/GD32F30x_standard_peripheral/Source\gd32f30x_timer.c ****     \brief      disable the auto reload shadow function
 223:C:/Users/49542/Desktop/GD32F30x_Demo_Suites_V2.0.0/GD32F30x_Demo_Suites_V2.0.0/GD32F30x_Firmware_Library/GD32F30x_standard_peripheral/Source\gd32f30x_timer.c ****     \param[in]  timer_periph: TIMERx(x=0..13)
 224:C:/Users/49542/Desktop/GD32F30x_Demo_Suites_V2.0.0/GD32F30x_Demo_Suites_V2.0.0/GD32F30x_Firmware_Library/GD32F30x_standard_peripheral/Source\gd32f30x_timer.c ****     \param[out] none
 225:C:/Users/49542/Desktop/GD32F30x_Demo_Suites_V2.0.0/GD32F30x_Demo_Suites_V2.0.0/GD32F30x_Firmware_Library/GD32F30x_standard_peripheral/Source\gd32f30x_timer.c ****     \retval     none
 226:C:/Users/49542/Desktop/GD32F30x_Demo_Suites_V2.0.0/GD32F30x_Demo_Suites_V2.0.0/GD32F30x_Firmware_Library/GD32F30x_standard_peripheral/Source\gd32f30x_timer.c **** */
 227:C:/Users/49542/Desktop/GD32F30x_Demo_Suites_V2.0.0/GD32F30x_Demo_Suites_V2.0.0/GD32F30x_Firmware_Library/GD32F30x_standard_peripheral/Source\gd32f30x_timer.c **** void timer_auto_reload_shadow_disable(uint32_t timer_periph)
 228:C:/Users/49542/Desktop/GD32F30x_Demo_Suites_V2.0.0/GD32F30x_Demo_Suites_V2.0.0/GD32F30x_Firmware_Library/GD32F30x_standard_peripheral/Source\gd32f30x_timer.c **** {
 664              		.loc 1 228 0
 665              		.cfi_startproc
 666              		@ args = 0, pretend = 0, frame = 8
 667              		@ frame_needed = 1, uses_anonymous_args = 0
 668              		@ link register save eliminated.
 669 0000 80B4     		push	{r7}
 670              	.LCFI35:
 671              		.cfi_def_cfa_offset 4
 672              		.cfi_offset 7, -4
 673 0002 83B0     		sub	sp, sp, #12
 674              	.LCFI36:
 675              		.cfi_def_cfa_offset 16
 676 0004 00AF     		add	r7, sp, #0
 677              	.LCFI37:
 678              		.cfi_def_cfa_register 7
 679 0006 7860     		str	r0, [r7, #4]
 229:C:/Users/49542/Desktop/GD32F30x_Demo_Suites_V2.0.0/GD32F30x_Demo_Suites_V2.0.0/GD32F30x_Firmware_Library/GD32F30x_standard_peripheral/Source\gd32f30x_timer.c ****     TIMER_CTL0(timer_periph) &= ~(uint32_t)TIMER_CTL0_ARSE;
 680              		.loc 1 229 0
 681 0008 7B68     		ldr	r3, [r7, #4]
 682 000a 1A68     		ldr	r2, [r3]
 683 000c 7B68     		ldr	r3, [r7, #4]
 684 000e 22F08002 		bic	r2, r2, #128
 685 0012 1A60     		str	r2, [r3]
 230:C:/Users/49542/Desktop/GD32F30x_Demo_Suites_V2.0.0/GD32F30x_Demo_Suites_V2.0.0/GD32F30x_Firmware_Library/GD32F30x_standard_peripheral/Source\gd32f30x_timer.c **** }
 686              		.loc 1 230 0
 687 0014 00BF     		nop
 688 0016 0C37     		adds	r7, r7, #12
 689              	.LCFI38:
 690              		.cfi_def_cfa_offset 4
 691 0018 BD46     		mov	sp, r7
 692              	.LCFI39:
 693              		.cfi_def_cfa_register 13
 694              		@ sp needed
 695 001a 5DF8047B 		ldr	r7, [sp], #4
 696              	.LCFI40:
 697              		.cfi_restore 7
 698              		.cfi_def_cfa_offset 0
 699 001e 7047     		bx	lr
 700              		.cfi_endproc
 701              	.LFE122:
 703              		.section	.text.timer_update_event_enable,"ax",%progbits
 704              		.align	1
 705              		.global	timer_update_event_enable
 706              		.syntax unified
 707              		.thumb
 708              		.thumb_func
ARM GAS  C:\Users\49542\AppData\Local\Temp\ccx6VnNU.s 			page 18


 709              		.fpu fpv4-sp-d16
 711              	timer_update_event_enable:
 712              	.LFB123:
 231:C:/Users/49542/Desktop/GD32F30x_Demo_Suites_V2.0.0/GD32F30x_Demo_Suites_V2.0.0/GD32F30x_Firmware_Library/GD32F30x_standard_peripheral/Source\gd32f30x_timer.c **** 
 232:C:/Users/49542/Desktop/GD32F30x_Demo_Suites_V2.0.0/GD32F30x_Demo_Suites_V2.0.0/GD32F30x_Firmware_Library/GD32F30x_standard_peripheral/Source\gd32f30x_timer.c **** /*!
 233:C:/Users/49542/Desktop/GD32F30x_Demo_Suites_V2.0.0/GD32F30x_Demo_Suites_V2.0.0/GD32F30x_Firmware_Library/GD32F30x_standard_peripheral/Source\gd32f30x_timer.c ****     \brief      enable the update event
 234:C:/Users/49542/Desktop/GD32F30x_Demo_Suites_V2.0.0/GD32F30x_Demo_Suites_V2.0.0/GD32F30x_Firmware_Library/GD32F30x_standard_peripheral/Source\gd32f30x_timer.c ****     \param[in]  timer_periph: TIMERx(x=0..13)
 235:C:/Users/49542/Desktop/GD32F30x_Demo_Suites_V2.0.0/GD32F30x_Demo_Suites_V2.0.0/GD32F30x_Firmware_Library/GD32F30x_standard_peripheral/Source\gd32f30x_timer.c ****     \param[out] none
 236:C:/Users/49542/Desktop/GD32F30x_Demo_Suites_V2.0.0/GD32F30x_Demo_Suites_V2.0.0/GD32F30x_Firmware_Library/GD32F30x_standard_peripheral/Source\gd32f30x_timer.c ****     \retval     none
 237:C:/Users/49542/Desktop/GD32F30x_Demo_Suites_V2.0.0/GD32F30x_Demo_Suites_V2.0.0/GD32F30x_Firmware_Library/GD32F30x_standard_peripheral/Source\gd32f30x_timer.c **** */
 238:C:/Users/49542/Desktop/GD32F30x_Demo_Suites_V2.0.0/GD32F30x_Demo_Suites_V2.0.0/GD32F30x_Firmware_Library/GD32F30x_standard_peripheral/Source\gd32f30x_timer.c **** void timer_update_event_enable(uint32_t timer_periph)
 239:C:/Users/49542/Desktop/GD32F30x_Demo_Suites_V2.0.0/GD32F30x_Demo_Suites_V2.0.0/GD32F30x_Firmware_Library/GD32F30x_standard_peripheral/Source\gd32f30x_timer.c **** {
 713              		.loc 1 239 0
 714              		.cfi_startproc
 715              		@ args = 0, pretend = 0, frame = 8
 716              		@ frame_needed = 1, uses_anonymous_args = 0
 717              		@ link register save eliminated.
 718 0000 80B4     		push	{r7}
 719              	.LCFI41:
 720              		.cfi_def_cfa_offset 4
 721              		.cfi_offset 7, -4
 722 0002 83B0     		sub	sp, sp, #12
 723              	.LCFI42:
 724              		.cfi_def_cfa_offset 16
 725 0004 00AF     		add	r7, sp, #0
 726              	.LCFI43:
 727              		.cfi_def_cfa_register 7
 728 0006 7860     		str	r0, [r7, #4]
 240:C:/Users/49542/Desktop/GD32F30x_Demo_Suites_V2.0.0/GD32F30x_Demo_Suites_V2.0.0/GD32F30x_Firmware_Library/GD32F30x_standard_peripheral/Source\gd32f30x_timer.c ****     TIMER_CTL0(timer_periph) &= ~(uint32_t)TIMER_CTL0_UPDIS;
 729              		.loc 1 240 0
 730 0008 7B68     		ldr	r3, [r7, #4]
 731 000a 1A68     		ldr	r2, [r3]
 732 000c 7B68     		ldr	r3, [r7, #4]
 733 000e 22F00202 		bic	r2, r2, #2
 734 0012 1A60     		str	r2, [r3]
 241:C:/Users/49542/Desktop/GD32F30x_Demo_Suites_V2.0.0/GD32F30x_Demo_Suites_V2.0.0/GD32F30x_Firmware_Library/GD32F30x_standard_peripheral/Source\gd32f30x_timer.c **** }
 735              		.loc 1 241 0
 736 0014 00BF     		nop
 737 0016 0C37     		adds	r7, r7, #12
 738              	.LCFI44:
 739              		.cfi_def_cfa_offset 4
 740 0018 BD46     		mov	sp, r7
 741              	.LCFI45:
 742              		.cfi_def_cfa_register 13
 743              		@ sp needed
 744 001a 5DF8047B 		ldr	r7, [sp], #4
 745              	.LCFI46:
 746              		.cfi_restore 7
 747              		.cfi_def_cfa_offset 0
 748 001e 7047     		bx	lr
 749              		.cfi_endproc
 750              	.LFE123:
 752              		.section	.text.timer_update_event_disable,"ax",%progbits
 753              		.align	1
 754              		.global	timer_update_event_disable
 755              		.syntax unified
 756              		.thumb
ARM GAS  C:\Users\49542\AppData\Local\Temp\ccx6VnNU.s 			page 19


 757              		.thumb_func
 758              		.fpu fpv4-sp-d16
 760              	timer_update_event_disable:
 761              	.LFB124:
 242:C:/Users/49542/Desktop/GD32F30x_Demo_Suites_V2.0.0/GD32F30x_Demo_Suites_V2.0.0/GD32F30x_Firmware_Library/GD32F30x_standard_peripheral/Source\gd32f30x_timer.c **** 
 243:C:/Users/49542/Desktop/GD32F30x_Demo_Suites_V2.0.0/GD32F30x_Demo_Suites_V2.0.0/GD32F30x_Firmware_Library/GD32F30x_standard_peripheral/Source\gd32f30x_timer.c **** /*!
 244:C:/Users/49542/Desktop/GD32F30x_Demo_Suites_V2.0.0/GD32F30x_Demo_Suites_V2.0.0/GD32F30x_Firmware_Library/GD32F30x_standard_peripheral/Source\gd32f30x_timer.c ****     \brief      disable the update event
 245:C:/Users/49542/Desktop/GD32F30x_Demo_Suites_V2.0.0/GD32F30x_Demo_Suites_V2.0.0/GD32F30x_Firmware_Library/GD32F30x_standard_peripheral/Source\gd32f30x_timer.c ****     \param[in]  timer_periph: TIMERx(x=0..13)
 246:C:/Users/49542/Desktop/GD32F30x_Demo_Suites_V2.0.0/GD32F30x_Demo_Suites_V2.0.0/GD32F30x_Firmware_Library/GD32F30x_standard_peripheral/Source\gd32f30x_timer.c ****     \param[out] none
 247:C:/Users/49542/Desktop/GD32F30x_Demo_Suites_V2.0.0/GD32F30x_Demo_Suites_V2.0.0/GD32F30x_Firmware_Library/GD32F30x_standard_peripheral/Source\gd32f30x_timer.c ****     \retval     none
 248:C:/Users/49542/Desktop/GD32F30x_Demo_Suites_V2.0.0/GD32F30x_Demo_Suites_V2.0.0/GD32F30x_Firmware_Library/GD32F30x_standard_peripheral/Source\gd32f30x_timer.c **** */
 249:C:/Users/49542/Desktop/GD32F30x_Demo_Suites_V2.0.0/GD32F30x_Demo_Suites_V2.0.0/GD32F30x_Firmware_Library/GD32F30x_standard_peripheral/Source\gd32f30x_timer.c **** void timer_update_event_disable(uint32_t timer_periph)
 250:C:/Users/49542/Desktop/GD32F30x_Demo_Suites_V2.0.0/GD32F30x_Demo_Suites_V2.0.0/GD32F30x_Firmware_Library/GD32F30x_standard_peripheral/Source\gd32f30x_timer.c **** {
 762              		.loc 1 250 0
 763              		.cfi_startproc
 764              		@ args = 0, pretend = 0, frame = 8
 765              		@ frame_needed = 1, uses_anonymous_args = 0
 766              		@ link register save eliminated.
 767 0000 80B4     		push	{r7}
 768              	.LCFI47:
 769              		.cfi_def_cfa_offset 4
 770              		.cfi_offset 7, -4
 771 0002 83B0     		sub	sp, sp, #12
 772              	.LCFI48:
 773              		.cfi_def_cfa_offset 16
 774 0004 00AF     		add	r7, sp, #0
 775              	.LCFI49:
 776              		.cfi_def_cfa_register 7
 777 0006 7860     		str	r0, [r7, #4]
 251:C:/Users/49542/Desktop/GD32F30x_Demo_Suites_V2.0.0/GD32F30x_Demo_Suites_V2.0.0/GD32F30x_Firmware_Library/GD32F30x_standard_peripheral/Source\gd32f30x_timer.c ****     TIMER_CTL0(timer_periph) |= (uint32_t) TIMER_CTL0_UPDIS;
 778              		.loc 1 251 0
 779 0008 7B68     		ldr	r3, [r7, #4]
 780 000a 1A68     		ldr	r2, [r3]
 781 000c 7B68     		ldr	r3, [r7, #4]
 782 000e 42F00202 		orr	r2, r2, #2
 783 0012 1A60     		str	r2, [r3]
 252:C:/Users/49542/Desktop/GD32F30x_Demo_Suites_V2.0.0/GD32F30x_Demo_Suites_V2.0.0/GD32F30x_Firmware_Library/GD32F30x_standard_peripheral/Source\gd32f30x_timer.c **** }
 784              		.loc 1 252 0
 785 0014 00BF     		nop
 786 0016 0C37     		adds	r7, r7, #12
 787              	.LCFI50:
 788              		.cfi_def_cfa_offset 4
 789 0018 BD46     		mov	sp, r7
 790              	.LCFI51:
 791              		.cfi_def_cfa_register 13
 792              		@ sp needed
 793 001a 5DF8047B 		ldr	r7, [sp], #4
 794              	.LCFI52:
 795              		.cfi_restore 7
 796              		.cfi_def_cfa_offset 0
 797 001e 7047     		bx	lr
 798              		.cfi_endproc
 799              	.LFE124:
 801              		.section	.text.timer_counter_alignment,"ax",%progbits
 802              		.align	1
 803              		.global	timer_counter_alignment
 804              		.syntax unified
ARM GAS  C:\Users\49542\AppData\Local\Temp\ccx6VnNU.s 			page 20


 805              		.thumb
 806              		.thumb_func
 807              		.fpu fpv4-sp-d16
 809              	timer_counter_alignment:
 810              	.LFB125:
 253:C:/Users/49542/Desktop/GD32F30x_Demo_Suites_V2.0.0/GD32F30x_Demo_Suites_V2.0.0/GD32F30x_Firmware_Library/GD32F30x_standard_peripheral/Source\gd32f30x_timer.c **** 
 254:C:/Users/49542/Desktop/GD32F30x_Demo_Suites_V2.0.0/GD32F30x_Demo_Suites_V2.0.0/GD32F30x_Firmware_Library/GD32F30x_standard_peripheral/Source\gd32f30x_timer.c **** /*!
 255:C:/Users/49542/Desktop/GD32F30x_Demo_Suites_V2.0.0/GD32F30x_Demo_Suites_V2.0.0/GD32F30x_Firmware_Library/GD32F30x_standard_peripheral/Source\gd32f30x_timer.c ****     \brief      set TIMER counter alignment mode
 256:C:/Users/49542/Desktop/GD32F30x_Demo_Suites_V2.0.0/GD32F30x_Demo_Suites_V2.0.0/GD32F30x_Firmware_Library/GD32F30x_standard_peripheral/Source\gd32f30x_timer.c ****     \param[in]  timer_periph: TIMERx(x=0..4,7)
 257:C:/Users/49542/Desktop/GD32F30x_Demo_Suites_V2.0.0/GD32F30x_Demo_Suites_V2.0.0/GD32F30x_Firmware_Library/GD32F30x_standard_peripheral/Source\gd32f30x_timer.c ****     \param[in]  aligned:
 258:C:/Users/49542/Desktop/GD32F30x_Demo_Suites_V2.0.0/GD32F30x_Demo_Suites_V2.0.0/GD32F30x_Firmware_Library/GD32F30x_standard_peripheral/Source\gd32f30x_timer.c ****                 only one parameter can be selected which is shown as below:
 259:C:/Users/49542/Desktop/GD32F30x_Demo_Suites_V2.0.0/GD32F30x_Demo_Suites_V2.0.0/GD32F30x_Firmware_Library/GD32F30x_standard_peripheral/Source\gd32f30x_timer.c ****       \arg        TIMER_COUNTER_EDGE: edge-aligned mode
 260:C:/Users/49542/Desktop/GD32F30x_Demo_Suites_V2.0.0/GD32F30x_Demo_Suites_V2.0.0/GD32F30x_Firmware_Library/GD32F30x_standard_peripheral/Source\gd32f30x_timer.c ****       \arg        TIMER_COUNTER_CENTER_DOWN: center-aligned and counting down assert mode
 261:C:/Users/49542/Desktop/GD32F30x_Demo_Suites_V2.0.0/GD32F30x_Demo_Suites_V2.0.0/GD32F30x_Firmware_Library/GD32F30x_standard_peripheral/Source\gd32f30x_timer.c ****       \arg        TIMER_COUNTER_CENTER_UP: center-aligned and counting up assert mode
 262:C:/Users/49542/Desktop/GD32F30x_Demo_Suites_V2.0.0/GD32F30x_Demo_Suites_V2.0.0/GD32F30x_Firmware_Library/GD32F30x_standard_peripheral/Source\gd32f30x_timer.c ****       \arg        TIMER_COUNTER_CENTER_BOTH: center-aligned and counting up/down assert mode
 263:C:/Users/49542/Desktop/GD32F30x_Demo_Suites_V2.0.0/GD32F30x_Demo_Suites_V2.0.0/GD32F30x_Firmware_Library/GD32F30x_standard_peripheral/Source\gd32f30x_timer.c ****     \param[out] none
 264:C:/Users/49542/Desktop/GD32F30x_Demo_Suites_V2.0.0/GD32F30x_Demo_Suites_V2.0.0/GD32F30x_Firmware_Library/GD32F30x_standard_peripheral/Source\gd32f30x_timer.c ****     \retval     none
 265:C:/Users/49542/Desktop/GD32F30x_Demo_Suites_V2.0.0/GD32F30x_Demo_Suites_V2.0.0/GD32F30x_Firmware_Library/GD32F30x_standard_peripheral/Source\gd32f30x_timer.c **** */
 266:C:/Users/49542/Desktop/GD32F30x_Demo_Suites_V2.0.0/GD32F30x_Demo_Suites_V2.0.0/GD32F30x_Firmware_Library/GD32F30x_standard_peripheral/Source\gd32f30x_timer.c **** void timer_counter_alignment(uint32_t timer_periph, uint16_t aligned)
 267:C:/Users/49542/Desktop/GD32F30x_Demo_Suites_V2.0.0/GD32F30x_Demo_Suites_V2.0.0/GD32F30x_Firmware_Library/GD32F30x_standard_peripheral/Source\gd32f30x_timer.c **** {
 811              		.loc 1 267 0
 812              		.cfi_startproc
 813              		@ args = 0, pretend = 0, frame = 8
 814              		@ frame_needed = 1, uses_anonymous_args = 0
 815              		@ link register save eliminated.
 816 0000 80B4     		push	{r7}
 817              	.LCFI53:
 818              		.cfi_def_cfa_offset 4
 819              		.cfi_offset 7, -4
 820 0002 83B0     		sub	sp, sp, #12
 821              	.LCFI54:
 822              		.cfi_def_cfa_offset 16
 823 0004 00AF     		add	r7, sp, #0
 824              	.LCFI55:
 825              		.cfi_def_cfa_register 7
 826 0006 7860     		str	r0, [r7, #4]
 827 0008 0B46     		mov	r3, r1
 828 000a 7B80     		strh	r3, [r7, #2]	@ movhi
 268:C:/Users/49542/Desktop/GD32F30x_Demo_Suites_V2.0.0/GD32F30x_Demo_Suites_V2.0.0/GD32F30x_Firmware_Library/GD32F30x_standard_peripheral/Source\gd32f30x_timer.c ****     TIMER_CTL0(timer_periph) &= ~(uint32_t)TIMER_CTL0_CAM;
 829              		.loc 1 268 0
 830 000c 7B68     		ldr	r3, [r7, #4]
 831 000e 1A68     		ldr	r2, [r3]
 832 0010 7B68     		ldr	r3, [r7, #4]
 833 0012 22F06002 		bic	r2, r2, #96
 834 0016 1A60     		str	r2, [r3]
 269:C:/Users/49542/Desktop/GD32F30x_Demo_Suites_V2.0.0/GD32F30x_Demo_Suites_V2.0.0/GD32F30x_Firmware_Library/GD32F30x_standard_peripheral/Source\gd32f30x_timer.c ****     TIMER_CTL0(timer_periph) |= (uint32_t)aligned;
 835              		.loc 1 269 0
 836 0018 7B68     		ldr	r3, [r7, #4]
 837 001a 1968     		ldr	r1, [r3]
 838 001c 7A88     		ldrh	r2, [r7, #2]
 839 001e 7B68     		ldr	r3, [r7, #4]
 840 0020 0A43     		orrs	r2, r2, r1
 841 0022 1A60     		str	r2, [r3]
 270:C:/Users/49542/Desktop/GD32F30x_Demo_Suites_V2.0.0/GD32F30x_Demo_Suites_V2.0.0/GD32F30x_Firmware_Library/GD32F30x_standard_peripheral/Source\gd32f30x_timer.c **** }
 842              		.loc 1 270 0
 843 0024 00BF     		nop
 844 0026 0C37     		adds	r7, r7, #12
ARM GAS  C:\Users\49542\AppData\Local\Temp\ccx6VnNU.s 			page 21


 845              	.LCFI56:
 846              		.cfi_def_cfa_offset 4
 847 0028 BD46     		mov	sp, r7
 848              	.LCFI57:
 849              		.cfi_def_cfa_register 13
 850              		@ sp needed
 851 002a 5DF8047B 		ldr	r7, [sp], #4
 852              	.LCFI58:
 853              		.cfi_restore 7
 854              		.cfi_def_cfa_offset 0
 855 002e 7047     		bx	lr
 856              		.cfi_endproc
 857              	.LFE125:
 859              		.section	.text.timer_counter_up_direction,"ax",%progbits
 860              		.align	1
 861              		.global	timer_counter_up_direction
 862              		.syntax unified
 863              		.thumb
 864              		.thumb_func
 865              		.fpu fpv4-sp-d16
 867              	timer_counter_up_direction:
 868              	.LFB126:
 271:C:/Users/49542/Desktop/GD32F30x_Demo_Suites_V2.0.0/GD32F30x_Demo_Suites_V2.0.0/GD32F30x_Firmware_Library/GD32F30x_standard_peripheral/Source\gd32f30x_timer.c **** 
 272:C:/Users/49542/Desktop/GD32F30x_Demo_Suites_V2.0.0/GD32F30x_Demo_Suites_V2.0.0/GD32F30x_Firmware_Library/GD32F30x_standard_peripheral/Source\gd32f30x_timer.c **** /*!
 273:C:/Users/49542/Desktop/GD32F30x_Demo_Suites_V2.0.0/GD32F30x_Demo_Suites_V2.0.0/GD32F30x_Firmware_Library/GD32F30x_standard_peripheral/Source\gd32f30x_timer.c ****     \brief      set TIMER counter up direction
 274:C:/Users/49542/Desktop/GD32F30x_Demo_Suites_V2.0.0/GD32F30x_Demo_Suites_V2.0.0/GD32F30x_Firmware_Library/GD32F30x_standard_peripheral/Source\gd32f30x_timer.c ****     \param[in]  timer_periph: TIMERx(x=0..4,7)
 275:C:/Users/49542/Desktop/GD32F30x_Demo_Suites_V2.0.0/GD32F30x_Demo_Suites_V2.0.0/GD32F30x_Firmware_Library/GD32F30x_standard_peripheral/Source\gd32f30x_timer.c ****     \param[out] none
 276:C:/Users/49542/Desktop/GD32F30x_Demo_Suites_V2.0.0/GD32F30x_Demo_Suites_V2.0.0/GD32F30x_Firmware_Library/GD32F30x_standard_peripheral/Source\gd32f30x_timer.c ****     \retval     none
 277:C:/Users/49542/Desktop/GD32F30x_Demo_Suites_V2.0.0/GD32F30x_Demo_Suites_V2.0.0/GD32F30x_Firmware_Library/GD32F30x_standard_peripheral/Source\gd32f30x_timer.c **** */
 278:C:/Users/49542/Desktop/GD32F30x_Demo_Suites_V2.0.0/GD32F30x_Demo_Suites_V2.0.0/GD32F30x_Firmware_Library/GD32F30x_standard_peripheral/Source\gd32f30x_timer.c **** void timer_counter_up_direction(uint32_t timer_periph)
 279:C:/Users/49542/Desktop/GD32F30x_Demo_Suites_V2.0.0/GD32F30x_Demo_Suites_V2.0.0/GD32F30x_Firmware_Library/GD32F30x_standard_peripheral/Source\gd32f30x_timer.c **** {
 869              		.loc 1 279 0
 870              		.cfi_startproc
 871              		@ args = 0, pretend = 0, frame = 8
 872              		@ frame_needed = 1, uses_anonymous_args = 0
 873              		@ link register save eliminated.
 874 0000 80B4     		push	{r7}
 875              	.LCFI59:
 876              		.cfi_def_cfa_offset 4
 877              		.cfi_offset 7, -4
 878 0002 83B0     		sub	sp, sp, #12
 879              	.LCFI60:
 880              		.cfi_def_cfa_offset 16
 881 0004 00AF     		add	r7, sp, #0
 882              	.LCFI61:
 883              		.cfi_def_cfa_register 7
 884 0006 7860     		str	r0, [r7, #4]
 280:C:/Users/49542/Desktop/GD32F30x_Demo_Suites_V2.0.0/GD32F30x_Demo_Suites_V2.0.0/GD32F30x_Firmware_Library/GD32F30x_standard_peripheral/Source\gd32f30x_timer.c ****     TIMER_CTL0(timer_periph) &= ~(uint32_t)TIMER_CTL0_DIR;
 885              		.loc 1 280 0
 886 0008 7B68     		ldr	r3, [r7, #4]
 887 000a 1A68     		ldr	r2, [r3]
 888 000c 7B68     		ldr	r3, [r7, #4]
 889 000e 22F01002 		bic	r2, r2, #16
 890 0012 1A60     		str	r2, [r3]
 281:C:/Users/49542/Desktop/GD32F30x_Demo_Suites_V2.0.0/GD32F30x_Demo_Suites_V2.0.0/GD32F30x_Firmware_Library/GD32F30x_standard_peripheral/Source\gd32f30x_timer.c **** }
 891              		.loc 1 281 0
 892 0014 00BF     		nop
ARM GAS  C:\Users\49542\AppData\Local\Temp\ccx6VnNU.s 			page 22


 893 0016 0C37     		adds	r7, r7, #12
 894              	.LCFI62:
 895              		.cfi_def_cfa_offset 4
 896 0018 BD46     		mov	sp, r7
 897              	.LCFI63:
 898              		.cfi_def_cfa_register 13
 899              		@ sp needed
 900 001a 5DF8047B 		ldr	r7, [sp], #4
 901              	.LCFI64:
 902              		.cfi_restore 7
 903              		.cfi_def_cfa_offset 0
 904 001e 7047     		bx	lr
 905              		.cfi_endproc
 906              	.LFE126:
 908              		.section	.text.timer_counter_down_direction,"ax",%progbits
 909              		.align	1
 910              		.global	timer_counter_down_direction
 911              		.syntax unified
 912              		.thumb
 913              		.thumb_func
 914              		.fpu fpv4-sp-d16
 916              	timer_counter_down_direction:
 917              	.LFB127:
 282:C:/Users/49542/Desktop/GD32F30x_Demo_Suites_V2.0.0/GD32F30x_Demo_Suites_V2.0.0/GD32F30x_Firmware_Library/GD32F30x_standard_peripheral/Source\gd32f30x_timer.c **** 
 283:C:/Users/49542/Desktop/GD32F30x_Demo_Suites_V2.0.0/GD32F30x_Demo_Suites_V2.0.0/GD32F30x_Firmware_Library/GD32F30x_standard_peripheral/Source\gd32f30x_timer.c **** /*!
 284:C:/Users/49542/Desktop/GD32F30x_Demo_Suites_V2.0.0/GD32F30x_Demo_Suites_V2.0.0/GD32F30x_Firmware_Library/GD32F30x_standard_peripheral/Source\gd32f30x_timer.c ****     \brief      set TIMER counter down direction
 285:C:/Users/49542/Desktop/GD32F30x_Demo_Suites_V2.0.0/GD32F30x_Demo_Suites_V2.0.0/GD32F30x_Firmware_Library/GD32F30x_standard_peripheral/Source\gd32f30x_timer.c ****     \param[in]  timer_periph: TIMERx(x=0..4,7)
 286:C:/Users/49542/Desktop/GD32F30x_Demo_Suites_V2.0.0/GD32F30x_Demo_Suites_V2.0.0/GD32F30x_Firmware_Library/GD32F30x_standard_peripheral/Source\gd32f30x_timer.c ****     \param[out] none
 287:C:/Users/49542/Desktop/GD32F30x_Demo_Suites_V2.0.0/GD32F30x_Demo_Suites_V2.0.0/GD32F30x_Firmware_Library/GD32F30x_standard_peripheral/Source\gd32f30x_timer.c ****     \retval     none
 288:C:/Users/49542/Desktop/GD32F30x_Demo_Suites_V2.0.0/GD32F30x_Demo_Suites_V2.0.0/GD32F30x_Firmware_Library/GD32F30x_standard_peripheral/Source\gd32f30x_timer.c **** */
 289:C:/Users/49542/Desktop/GD32F30x_Demo_Suites_V2.0.0/GD32F30x_Demo_Suites_V2.0.0/GD32F30x_Firmware_Library/GD32F30x_standard_peripheral/Source\gd32f30x_timer.c **** void timer_counter_down_direction(uint32_t timer_periph)
 290:C:/Users/49542/Desktop/GD32F30x_Demo_Suites_V2.0.0/GD32F30x_Demo_Suites_V2.0.0/GD32F30x_Firmware_Library/GD32F30x_standard_peripheral/Source\gd32f30x_timer.c **** {
 918              		.loc 1 290 0
 919              		.cfi_startproc
 920              		@ args = 0, pretend = 0, frame = 8
 921              		@ frame_needed = 1, uses_anonymous_args = 0
 922              		@ link register save eliminated.
 923 0000 80B4     		push	{r7}
 924              	.LCFI65:
 925              		.cfi_def_cfa_offset 4
 926              		.cfi_offset 7, -4
 927 0002 83B0     		sub	sp, sp, #12
 928              	.LCFI66:
 929              		.cfi_def_cfa_offset 16
 930 0004 00AF     		add	r7, sp, #0
 931              	.LCFI67:
 932              		.cfi_def_cfa_register 7
 933 0006 7860     		str	r0, [r7, #4]
 291:C:/Users/49542/Desktop/GD32F30x_Demo_Suites_V2.0.0/GD32F30x_Demo_Suites_V2.0.0/GD32F30x_Firmware_Library/GD32F30x_standard_peripheral/Source\gd32f30x_timer.c ****     TIMER_CTL0(timer_periph) |= (uint32_t)TIMER_CTL0_DIR;
 934              		.loc 1 291 0
 935 0008 7B68     		ldr	r3, [r7, #4]
 936 000a 1A68     		ldr	r2, [r3]
 937 000c 7B68     		ldr	r3, [r7, #4]
 938 000e 42F01002 		orr	r2, r2, #16
 939 0012 1A60     		str	r2, [r3]
 292:C:/Users/49542/Desktop/GD32F30x_Demo_Suites_V2.0.0/GD32F30x_Demo_Suites_V2.0.0/GD32F30x_Firmware_Library/GD32F30x_standard_peripheral/Source\gd32f30x_timer.c **** }
 940              		.loc 1 292 0
ARM GAS  C:\Users\49542\AppData\Local\Temp\ccx6VnNU.s 			page 23


 941 0014 00BF     		nop
 942 0016 0C37     		adds	r7, r7, #12
 943              	.LCFI68:
 944              		.cfi_def_cfa_offset 4
 945 0018 BD46     		mov	sp, r7
 946              	.LCFI69:
 947              		.cfi_def_cfa_register 13
 948              		@ sp needed
 949 001a 5DF8047B 		ldr	r7, [sp], #4
 950              	.LCFI70:
 951              		.cfi_restore 7
 952              		.cfi_def_cfa_offset 0
 953 001e 7047     		bx	lr
 954              		.cfi_endproc
 955              	.LFE127:
 957              		.section	.text.timer_prescaler_config,"ax",%progbits
 958              		.align	1
 959              		.global	timer_prescaler_config
 960              		.syntax unified
 961              		.thumb
 962              		.thumb_func
 963              		.fpu fpv4-sp-d16
 965              	timer_prescaler_config:
 966              	.LFB128:
 293:C:/Users/49542/Desktop/GD32F30x_Demo_Suites_V2.0.0/GD32F30x_Demo_Suites_V2.0.0/GD32F30x_Firmware_Library/GD32F30x_standard_peripheral/Source\gd32f30x_timer.c **** 
 294:C:/Users/49542/Desktop/GD32F30x_Demo_Suites_V2.0.0/GD32F30x_Demo_Suites_V2.0.0/GD32F30x_Firmware_Library/GD32F30x_standard_peripheral/Source\gd32f30x_timer.c **** /*!
 295:C:/Users/49542/Desktop/GD32F30x_Demo_Suites_V2.0.0/GD32F30x_Demo_Suites_V2.0.0/GD32F30x_Firmware_Library/GD32F30x_standard_peripheral/Source\gd32f30x_timer.c ****     \brief      configure TIMER prescaler
 296:C:/Users/49542/Desktop/GD32F30x_Demo_Suites_V2.0.0/GD32F30x_Demo_Suites_V2.0.0/GD32F30x_Firmware_Library/GD32F30x_standard_peripheral/Source\gd32f30x_timer.c ****     \param[in]  timer_periph: TIMERx(x=0..13)
 297:C:/Users/49542/Desktop/GD32F30x_Demo_Suites_V2.0.0/GD32F30x_Demo_Suites_V2.0.0/GD32F30x_Firmware_Library/GD32F30x_standard_peripheral/Source\gd32f30x_timer.c ****     \param[in]  prescaler: prescaler value,0~65535
 298:C:/Users/49542/Desktop/GD32F30x_Demo_Suites_V2.0.0/GD32F30x_Demo_Suites_V2.0.0/GD32F30x_Firmware_Library/GD32F30x_standard_peripheral/Source\gd32f30x_timer.c ****     \param[in]  pscreload: prescaler reload mode
 299:C:/Users/49542/Desktop/GD32F30x_Demo_Suites_V2.0.0/GD32F30x_Demo_Suites_V2.0.0/GD32F30x_Firmware_Library/GD32F30x_standard_peripheral/Source\gd32f30x_timer.c ****                 only one parameter can be selected which is shown as below:
 300:C:/Users/49542/Desktop/GD32F30x_Demo_Suites_V2.0.0/GD32F30x_Demo_Suites_V2.0.0/GD32F30x_Firmware_Library/GD32F30x_standard_peripheral/Source\gd32f30x_timer.c ****       \arg        TIMER_PSC_RELOAD_NOW: the prescaler is loaded right now
 301:C:/Users/49542/Desktop/GD32F30x_Demo_Suites_V2.0.0/GD32F30x_Demo_Suites_V2.0.0/GD32F30x_Firmware_Library/GD32F30x_standard_peripheral/Source\gd32f30x_timer.c ****       \arg        TIMER_PSC_RELOAD_UPDATE: the prescaler is loaded at the next update event
 302:C:/Users/49542/Desktop/GD32F30x_Demo_Suites_V2.0.0/GD32F30x_Demo_Suites_V2.0.0/GD32F30x_Firmware_Library/GD32F30x_standard_peripheral/Source\gd32f30x_timer.c ****     \param[out] none
 303:C:/Users/49542/Desktop/GD32F30x_Demo_Suites_V2.0.0/GD32F30x_Demo_Suites_V2.0.0/GD32F30x_Firmware_Library/GD32F30x_standard_peripheral/Source\gd32f30x_timer.c ****     \retval     none
 304:C:/Users/49542/Desktop/GD32F30x_Demo_Suites_V2.0.0/GD32F30x_Demo_Suites_V2.0.0/GD32F30x_Firmware_Library/GD32F30x_standard_peripheral/Source\gd32f30x_timer.c **** */
 305:C:/Users/49542/Desktop/GD32F30x_Demo_Suites_V2.0.0/GD32F30x_Demo_Suites_V2.0.0/GD32F30x_Firmware_Library/GD32F30x_standard_peripheral/Source\gd32f30x_timer.c **** void timer_prescaler_config(uint32_t timer_periph, uint16_t prescaler, uint8_t pscreload)
 306:C:/Users/49542/Desktop/GD32F30x_Demo_Suites_V2.0.0/GD32F30x_Demo_Suites_V2.0.0/GD32F30x_Firmware_Library/GD32F30x_standard_peripheral/Source\gd32f30x_timer.c **** {
 967              		.loc 1 306 0
 968              		.cfi_startproc
 969              		@ args = 0, pretend = 0, frame = 8
 970              		@ frame_needed = 1, uses_anonymous_args = 0
 971              		@ link register save eliminated.
 972 0000 80B4     		push	{r7}
 973              	.LCFI71:
 974              		.cfi_def_cfa_offset 4
 975              		.cfi_offset 7, -4
 976 0002 83B0     		sub	sp, sp, #12
 977              	.LCFI72:
 978              		.cfi_def_cfa_offset 16
 979 0004 00AF     		add	r7, sp, #0
 980              	.LCFI73:
 981              		.cfi_def_cfa_register 7
 982 0006 7860     		str	r0, [r7, #4]
 983 0008 0B46     		mov	r3, r1
 984 000a 7B80     		strh	r3, [r7, #2]	@ movhi
 985 000c 1346     		mov	r3, r2
ARM GAS  C:\Users\49542\AppData\Local\Temp\ccx6VnNU.s 			page 24


 986 000e 7B70     		strb	r3, [r7, #1]
 307:C:/Users/49542/Desktop/GD32F30x_Demo_Suites_V2.0.0/GD32F30x_Demo_Suites_V2.0.0/GD32F30x_Firmware_Library/GD32F30x_standard_peripheral/Source\gd32f30x_timer.c ****     TIMER_PSC(timer_periph) = (uint32_t)prescaler;
 987              		.loc 1 307 0
 988 0010 7B68     		ldr	r3, [r7, #4]
 989 0012 2833     		adds	r3, r3, #40
 990 0014 1A46     		mov	r2, r3
 991 0016 7B88     		ldrh	r3, [r7, #2]
 992 0018 1360     		str	r3, [r2]
 308:C:/Users/49542/Desktop/GD32F30x_Demo_Suites_V2.0.0/GD32F30x_Demo_Suites_V2.0.0/GD32F30x_Firmware_Library/GD32F30x_standard_peripheral/Source\gd32f30x_timer.c ****     
 309:C:/Users/49542/Desktop/GD32F30x_Demo_Suites_V2.0.0/GD32F30x_Demo_Suites_V2.0.0/GD32F30x_Firmware_Library/GD32F30x_standard_peripheral/Source\gd32f30x_timer.c ****     if(TIMER_PSC_RELOAD_NOW == pscreload){
 993              		.loc 1 309 0
 994 001a 7B78     		ldrb	r3, [r7, #1]	@ zero_extendqisi2
 995 001c 002B     		cmp	r3, #0
 996 001e 07D1     		bne	.L43
 310:C:/Users/49542/Desktop/GD32F30x_Demo_Suites_V2.0.0/GD32F30x_Demo_Suites_V2.0.0/GD32F30x_Firmware_Library/GD32F30x_standard_peripheral/Source\gd32f30x_timer.c ****         TIMER_SWEVG(timer_periph) |= (uint32_t)TIMER_SWEVG_UPG;
 997              		.loc 1 310 0
 998 0020 7B68     		ldr	r3, [r7, #4]
 999 0022 1433     		adds	r3, r3, #20
 1000 0024 1B68     		ldr	r3, [r3]
 1001 0026 7A68     		ldr	r2, [r7, #4]
 1002 0028 1432     		adds	r2, r2, #20
 1003 002a 43F00103 		orr	r3, r3, #1
 1004 002e 1360     		str	r3, [r2]
 1005              	.L43:
 311:C:/Users/49542/Desktop/GD32F30x_Demo_Suites_V2.0.0/GD32F30x_Demo_Suites_V2.0.0/GD32F30x_Firmware_Library/GD32F30x_standard_peripheral/Source\gd32f30x_timer.c ****     }
 312:C:/Users/49542/Desktop/GD32F30x_Demo_Suites_V2.0.0/GD32F30x_Demo_Suites_V2.0.0/GD32F30x_Firmware_Library/GD32F30x_standard_peripheral/Source\gd32f30x_timer.c **** }
 1006              		.loc 1 312 0
 1007 0030 00BF     		nop
 1008 0032 0C37     		adds	r7, r7, #12
 1009              	.LCFI74:
 1010              		.cfi_def_cfa_offset 4
 1011 0034 BD46     		mov	sp, r7
 1012              	.LCFI75:
 1013              		.cfi_def_cfa_register 13
 1014              		@ sp needed
 1015 0036 5DF8047B 		ldr	r7, [sp], #4
 1016              	.LCFI76:
 1017              		.cfi_restore 7
 1018              		.cfi_def_cfa_offset 0
 1019 003a 7047     		bx	lr
 1020              		.cfi_endproc
 1021              	.LFE128:
 1023              		.section	.text.timer_repetition_value_config,"ax",%progbits
 1024              		.align	1
 1025              		.global	timer_repetition_value_config
 1026              		.syntax unified
 1027              		.thumb
 1028              		.thumb_func
 1029              		.fpu fpv4-sp-d16
 1031              	timer_repetition_value_config:
 1032              	.LFB129:
 313:C:/Users/49542/Desktop/GD32F30x_Demo_Suites_V2.0.0/GD32F30x_Demo_Suites_V2.0.0/GD32F30x_Firmware_Library/GD32F30x_standard_peripheral/Source\gd32f30x_timer.c **** 
 314:C:/Users/49542/Desktop/GD32F30x_Demo_Suites_V2.0.0/GD32F30x_Demo_Suites_V2.0.0/GD32F30x_Firmware_Library/GD32F30x_standard_peripheral/Source\gd32f30x_timer.c **** /*!
 315:C:/Users/49542/Desktop/GD32F30x_Demo_Suites_V2.0.0/GD32F30x_Demo_Suites_V2.0.0/GD32F30x_Firmware_Library/GD32F30x_standard_peripheral/Source\gd32f30x_timer.c ****     \brief      configure TIMER repetition register value
 316:C:/Users/49542/Desktop/GD32F30x_Demo_Suites_V2.0.0/GD32F30x_Demo_Suites_V2.0.0/GD32F30x_Firmware_Library/GD32F30x_standard_peripheral/Source\gd32f30x_timer.c ****     \param[in]  timer_periph: TIMERx(x=0,7)
 317:C:/Users/49542/Desktop/GD32F30x_Demo_Suites_V2.0.0/GD32F30x_Demo_Suites_V2.0.0/GD32F30x_Firmware_Library/GD32F30x_standard_peripheral/Source\gd32f30x_timer.c ****     \param[in]  repetition: the counter repetition value,0~255
 318:C:/Users/49542/Desktop/GD32F30x_Demo_Suites_V2.0.0/GD32F30x_Demo_Suites_V2.0.0/GD32F30x_Firmware_Library/GD32F30x_standard_peripheral/Source\gd32f30x_timer.c ****     \param[out] none
ARM GAS  C:\Users\49542\AppData\Local\Temp\ccx6VnNU.s 			page 25


 319:C:/Users/49542/Desktop/GD32F30x_Demo_Suites_V2.0.0/GD32F30x_Demo_Suites_V2.0.0/GD32F30x_Firmware_Library/GD32F30x_standard_peripheral/Source\gd32f30x_timer.c ****     \retval     none
 320:C:/Users/49542/Desktop/GD32F30x_Demo_Suites_V2.0.0/GD32F30x_Demo_Suites_V2.0.0/GD32F30x_Firmware_Library/GD32F30x_standard_peripheral/Source\gd32f30x_timer.c **** */
 321:C:/Users/49542/Desktop/GD32F30x_Demo_Suites_V2.0.0/GD32F30x_Demo_Suites_V2.0.0/GD32F30x_Firmware_Library/GD32F30x_standard_peripheral/Source\gd32f30x_timer.c **** void timer_repetition_value_config(uint32_t timer_periph, uint16_t repetition)
 322:C:/Users/49542/Desktop/GD32F30x_Demo_Suites_V2.0.0/GD32F30x_Demo_Suites_V2.0.0/GD32F30x_Firmware_Library/GD32F30x_standard_peripheral/Source\gd32f30x_timer.c **** {
 1033              		.loc 1 322 0
 1034              		.cfi_startproc
 1035              		@ args = 0, pretend = 0, frame = 8
 1036              		@ frame_needed = 1, uses_anonymous_args = 0
 1037              		@ link register save eliminated.
 1038 0000 80B4     		push	{r7}
 1039              	.LCFI77:
 1040              		.cfi_def_cfa_offset 4
 1041              		.cfi_offset 7, -4
 1042 0002 83B0     		sub	sp, sp, #12
 1043              	.LCFI78:
 1044              		.cfi_def_cfa_offset 16
 1045 0004 00AF     		add	r7, sp, #0
 1046              	.LCFI79:
 1047              		.cfi_def_cfa_register 7
 1048 0006 7860     		str	r0, [r7, #4]
 1049 0008 0B46     		mov	r3, r1
 1050 000a 7B80     		strh	r3, [r7, #2]	@ movhi
 323:C:/Users/49542/Desktop/GD32F30x_Demo_Suites_V2.0.0/GD32F30x_Demo_Suites_V2.0.0/GD32F30x_Firmware_Library/GD32F30x_standard_peripheral/Source\gd32f30x_timer.c ****     TIMER_CREP(timer_periph) = (uint32_t)repetition;
 1051              		.loc 1 323 0
 1052 000c 7B68     		ldr	r3, [r7, #4]
 1053 000e 3033     		adds	r3, r3, #48
 1054 0010 1A46     		mov	r2, r3
 1055 0012 7B88     		ldrh	r3, [r7, #2]
 1056 0014 1360     		str	r3, [r2]
 324:C:/Users/49542/Desktop/GD32F30x_Demo_Suites_V2.0.0/GD32F30x_Demo_Suites_V2.0.0/GD32F30x_Firmware_Library/GD32F30x_standard_peripheral/Source\gd32f30x_timer.c **** } 
 1057              		.loc 1 324 0
 1058 0016 00BF     		nop
 1059 0018 0C37     		adds	r7, r7, #12
 1060              	.LCFI80:
 1061              		.cfi_def_cfa_offset 4
 1062 001a BD46     		mov	sp, r7
 1063              	.LCFI81:
 1064              		.cfi_def_cfa_register 13
 1065              		@ sp needed
 1066 001c 5DF8047B 		ldr	r7, [sp], #4
 1067              	.LCFI82:
 1068              		.cfi_restore 7
 1069              		.cfi_def_cfa_offset 0
 1070 0020 7047     		bx	lr
 1071              		.cfi_endproc
 1072              	.LFE129:
 1074              		.section	.text.timer_autoreload_value_config,"ax",%progbits
 1075              		.align	1
 1076              		.global	timer_autoreload_value_config
 1077              		.syntax unified
 1078              		.thumb
 1079              		.thumb_func
 1080              		.fpu fpv4-sp-d16
 1082              	timer_autoreload_value_config:
 1083              	.LFB130:
 325:C:/Users/49542/Desktop/GD32F30x_Demo_Suites_V2.0.0/GD32F30x_Demo_Suites_V2.0.0/GD32F30x_Firmware_Library/GD32F30x_standard_peripheral/Source\gd32f30x_timer.c ****  
 326:C:/Users/49542/Desktop/GD32F30x_Demo_Suites_V2.0.0/GD32F30x_Demo_Suites_V2.0.0/GD32F30x_Firmware_Library/GD32F30x_standard_peripheral/Source\gd32f30x_timer.c **** /*!
ARM GAS  C:\Users\49542\AppData\Local\Temp\ccx6VnNU.s 			page 26


 327:C:/Users/49542/Desktop/GD32F30x_Demo_Suites_V2.0.0/GD32F30x_Demo_Suites_V2.0.0/GD32F30x_Firmware_Library/GD32F30x_standard_peripheral/Source\gd32f30x_timer.c ****     \brief      configure TIMER autoreload register value
 328:C:/Users/49542/Desktop/GD32F30x_Demo_Suites_V2.0.0/GD32F30x_Demo_Suites_V2.0.0/GD32F30x_Firmware_Library/GD32F30x_standard_peripheral/Source\gd32f30x_timer.c ****     \param[in]  timer_periph: TIMERx(x=0..13)
 329:C:/Users/49542/Desktop/GD32F30x_Demo_Suites_V2.0.0/GD32F30x_Demo_Suites_V2.0.0/GD32F30x_Firmware_Library/GD32F30x_standard_peripheral/Source\gd32f30x_timer.c ****     \param[in]  autoreload: the counter auto-reload value,0~65535
 330:C:/Users/49542/Desktop/GD32F30x_Demo_Suites_V2.0.0/GD32F30x_Demo_Suites_V2.0.0/GD32F30x_Firmware_Library/GD32F30x_standard_peripheral/Source\gd32f30x_timer.c ****     \param[out] none
 331:C:/Users/49542/Desktop/GD32F30x_Demo_Suites_V2.0.0/GD32F30x_Demo_Suites_V2.0.0/GD32F30x_Firmware_Library/GD32F30x_standard_peripheral/Source\gd32f30x_timer.c ****     \retval     none
 332:C:/Users/49542/Desktop/GD32F30x_Demo_Suites_V2.0.0/GD32F30x_Demo_Suites_V2.0.0/GD32F30x_Firmware_Library/GD32F30x_standard_peripheral/Source\gd32f30x_timer.c **** */         
 333:C:/Users/49542/Desktop/GD32F30x_Demo_Suites_V2.0.0/GD32F30x_Demo_Suites_V2.0.0/GD32F30x_Firmware_Library/GD32F30x_standard_peripheral/Source\gd32f30x_timer.c **** void timer_autoreload_value_config(uint32_t timer_periph, uint16_t autoreload)
 334:C:/Users/49542/Desktop/GD32F30x_Demo_Suites_V2.0.0/GD32F30x_Demo_Suites_V2.0.0/GD32F30x_Firmware_Library/GD32F30x_standard_peripheral/Source\gd32f30x_timer.c **** {
 1084              		.loc 1 334 0
 1085              		.cfi_startproc
 1086              		@ args = 0, pretend = 0, frame = 8
 1087              		@ frame_needed = 1, uses_anonymous_args = 0
 1088              		@ link register save eliminated.
 1089 0000 80B4     		push	{r7}
 1090              	.LCFI83:
 1091              		.cfi_def_cfa_offset 4
 1092              		.cfi_offset 7, -4
 1093 0002 83B0     		sub	sp, sp, #12
 1094              	.LCFI84:
 1095              		.cfi_def_cfa_offset 16
 1096 0004 00AF     		add	r7, sp, #0
 1097              	.LCFI85:
 1098              		.cfi_def_cfa_register 7
 1099 0006 7860     		str	r0, [r7, #4]
 1100 0008 0B46     		mov	r3, r1
 1101 000a 7B80     		strh	r3, [r7, #2]	@ movhi
 335:C:/Users/49542/Desktop/GD32F30x_Demo_Suites_V2.0.0/GD32F30x_Demo_Suites_V2.0.0/GD32F30x_Firmware_Library/GD32F30x_standard_peripheral/Source\gd32f30x_timer.c ****     TIMER_CAR(timer_periph) = (uint32_t)autoreload;
 1102              		.loc 1 335 0
 1103 000c 7B68     		ldr	r3, [r7, #4]
 1104 000e 2C33     		adds	r3, r3, #44
 1105 0010 1A46     		mov	r2, r3
 1106 0012 7B88     		ldrh	r3, [r7, #2]
 1107 0014 1360     		str	r3, [r2]
 336:C:/Users/49542/Desktop/GD32F30x_Demo_Suites_V2.0.0/GD32F30x_Demo_Suites_V2.0.0/GD32F30x_Firmware_Library/GD32F30x_standard_peripheral/Source\gd32f30x_timer.c **** }
 1108              		.loc 1 336 0
 1109 0016 00BF     		nop
 1110 0018 0C37     		adds	r7, r7, #12
 1111              	.LCFI86:
 1112              		.cfi_def_cfa_offset 4
 1113 001a BD46     		mov	sp, r7
 1114              	.LCFI87:
 1115              		.cfi_def_cfa_register 13
 1116              		@ sp needed
 1117 001c 5DF8047B 		ldr	r7, [sp], #4
 1118              	.LCFI88:
 1119              		.cfi_restore 7
 1120              		.cfi_def_cfa_offset 0
 1121 0020 7047     		bx	lr
 1122              		.cfi_endproc
 1123              	.LFE130:
 1125              		.section	.text.timer_counter_value_config,"ax",%progbits
 1126              		.align	1
 1127              		.global	timer_counter_value_config
 1128              		.syntax unified
 1129              		.thumb
 1130              		.thumb_func
 1131              		.fpu fpv4-sp-d16
ARM GAS  C:\Users\49542\AppData\Local\Temp\ccx6VnNU.s 			page 27


 1133              	timer_counter_value_config:
 1134              	.LFB131:
 337:C:/Users/49542/Desktop/GD32F30x_Demo_Suites_V2.0.0/GD32F30x_Demo_Suites_V2.0.0/GD32F30x_Firmware_Library/GD32F30x_standard_peripheral/Source\gd32f30x_timer.c **** 
 338:C:/Users/49542/Desktop/GD32F30x_Demo_Suites_V2.0.0/GD32F30x_Demo_Suites_V2.0.0/GD32F30x_Firmware_Library/GD32F30x_standard_peripheral/Source\gd32f30x_timer.c **** /*!
 339:C:/Users/49542/Desktop/GD32F30x_Demo_Suites_V2.0.0/GD32F30x_Demo_Suites_V2.0.0/GD32F30x_Firmware_Library/GD32F30x_standard_peripheral/Source\gd32f30x_timer.c ****     \brief      configure TIMER counter register value
 340:C:/Users/49542/Desktop/GD32F30x_Demo_Suites_V2.0.0/GD32F30x_Demo_Suites_V2.0.0/GD32F30x_Firmware_Library/GD32F30x_standard_peripheral/Source\gd32f30x_timer.c ****     \param[in]  timer_periph: TIMERx(x=0..13)
 341:C:/Users/49542/Desktop/GD32F30x_Demo_Suites_V2.0.0/GD32F30x_Demo_Suites_V2.0.0/GD32F30x_Firmware_Library/GD32F30x_standard_peripheral/Source\gd32f30x_timer.c ****     \param[in]  counter: the counter value,0~65535
 342:C:/Users/49542/Desktop/GD32F30x_Demo_Suites_V2.0.0/GD32F30x_Demo_Suites_V2.0.0/GD32F30x_Firmware_Library/GD32F30x_standard_peripheral/Source\gd32f30x_timer.c ****     \param[out] none
 343:C:/Users/49542/Desktop/GD32F30x_Demo_Suites_V2.0.0/GD32F30x_Demo_Suites_V2.0.0/GD32F30x_Firmware_Library/GD32F30x_standard_peripheral/Source\gd32f30x_timer.c ****     \retval     none
 344:C:/Users/49542/Desktop/GD32F30x_Demo_Suites_V2.0.0/GD32F30x_Demo_Suites_V2.0.0/GD32F30x_Firmware_Library/GD32F30x_standard_peripheral/Source\gd32f30x_timer.c **** */         
 345:C:/Users/49542/Desktop/GD32F30x_Demo_Suites_V2.0.0/GD32F30x_Demo_Suites_V2.0.0/GD32F30x_Firmware_Library/GD32F30x_standard_peripheral/Source\gd32f30x_timer.c **** void timer_counter_value_config(uint32_t timer_periph, uint16_t counter)
 346:C:/Users/49542/Desktop/GD32F30x_Demo_Suites_V2.0.0/GD32F30x_Demo_Suites_V2.0.0/GD32F30x_Firmware_Library/GD32F30x_standard_peripheral/Source\gd32f30x_timer.c **** {
 1135              		.loc 1 346 0
 1136              		.cfi_startproc
 1137              		@ args = 0, pretend = 0, frame = 8
 1138              		@ frame_needed = 1, uses_anonymous_args = 0
 1139              		@ link register save eliminated.
 1140 0000 80B4     		push	{r7}
 1141              	.LCFI89:
 1142              		.cfi_def_cfa_offset 4
 1143              		.cfi_offset 7, -4
 1144 0002 83B0     		sub	sp, sp, #12
 1145              	.LCFI90:
 1146              		.cfi_def_cfa_offset 16
 1147 0004 00AF     		add	r7, sp, #0
 1148              	.LCFI91:
 1149              		.cfi_def_cfa_register 7
 1150 0006 7860     		str	r0, [r7, #4]
 1151 0008 0B46     		mov	r3, r1
 1152 000a 7B80     		strh	r3, [r7, #2]	@ movhi
 347:C:/Users/49542/Desktop/GD32F30x_Demo_Suites_V2.0.0/GD32F30x_Demo_Suites_V2.0.0/GD32F30x_Firmware_Library/GD32F30x_standard_peripheral/Source\gd32f30x_timer.c ****     TIMER_CNT(timer_periph) = (uint32_t)counter;
 1153              		.loc 1 347 0
 1154 000c 7B68     		ldr	r3, [r7, #4]
 1155 000e 2433     		adds	r3, r3, #36
 1156 0010 1A46     		mov	r2, r3
 1157 0012 7B88     		ldrh	r3, [r7, #2]
 1158 0014 1360     		str	r3, [r2]
 348:C:/Users/49542/Desktop/GD32F30x_Demo_Suites_V2.0.0/GD32F30x_Demo_Suites_V2.0.0/GD32F30x_Firmware_Library/GD32F30x_standard_peripheral/Source\gd32f30x_timer.c **** }
 1159              		.loc 1 348 0
 1160 0016 00BF     		nop
 1161 0018 0C37     		adds	r7, r7, #12
 1162              	.LCFI92:
 1163              		.cfi_def_cfa_offset 4
 1164 001a BD46     		mov	sp, r7
 1165              	.LCFI93:
 1166              		.cfi_def_cfa_register 13
 1167              		@ sp needed
 1168 001c 5DF8047B 		ldr	r7, [sp], #4
 1169              	.LCFI94:
 1170              		.cfi_restore 7
 1171              		.cfi_def_cfa_offset 0
 1172 0020 7047     		bx	lr
 1173              		.cfi_endproc
 1174              	.LFE131:
 1176              		.section	.text.timer_counter_read,"ax",%progbits
 1177              		.align	1
 1178              		.global	timer_counter_read
ARM GAS  C:\Users\49542\AppData\Local\Temp\ccx6VnNU.s 			page 28


 1179              		.syntax unified
 1180              		.thumb
 1181              		.thumb_func
 1182              		.fpu fpv4-sp-d16
 1184              	timer_counter_read:
 1185              	.LFB132:
 349:C:/Users/49542/Desktop/GD32F30x_Demo_Suites_V2.0.0/GD32F30x_Demo_Suites_V2.0.0/GD32F30x_Firmware_Library/GD32F30x_standard_peripheral/Source\gd32f30x_timer.c **** 
 350:C:/Users/49542/Desktop/GD32F30x_Demo_Suites_V2.0.0/GD32F30x_Demo_Suites_V2.0.0/GD32F30x_Firmware_Library/GD32F30x_standard_peripheral/Source\gd32f30x_timer.c **** /*!
 351:C:/Users/49542/Desktop/GD32F30x_Demo_Suites_V2.0.0/GD32F30x_Demo_Suites_V2.0.0/GD32F30x_Firmware_Library/GD32F30x_standard_peripheral/Source\gd32f30x_timer.c ****     \brief      read TIMER counter value
 352:C:/Users/49542/Desktop/GD32F30x_Demo_Suites_V2.0.0/GD32F30x_Demo_Suites_V2.0.0/GD32F30x_Firmware_Library/GD32F30x_standard_peripheral/Source\gd32f30x_timer.c ****     \param[in]  timer_periph: TIMERx(x=0..13)
 353:C:/Users/49542/Desktop/GD32F30x_Demo_Suites_V2.0.0/GD32F30x_Demo_Suites_V2.0.0/GD32F30x_Firmware_Library/GD32F30x_standard_peripheral/Source\gd32f30x_timer.c ****     \param[out] none
 354:C:/Users/49542/Desktop/GD32F30x_Demo_Suites_V2.0.0/GD32F30x_Demo_Suites_V2.0.0/GD32F30x_Firmware_Library/GD32F30x_standard_peripheral/Source\gd32f30x_timer.c ****     \retval     counter value
 355:C:/Users/49542/Desktop/GD32F30x_Demo_Suites_V2.0.0/GD32F30x_Demo_Suites_V2.0.0/GD32F30x_Firmware_Library/GD32F30x_standard_peripheral/Source\gd32f30x_timer.c **** */         
 356:C:/Users/49542/Desktop/GD32F30x_Demo_Suites_V2.0.0/GD32F30x_Demo_Suites_V2.0.0/GD32F30x_Firmware_Library/GD32F30x_standard_peripheral/Source\gd32f30x_timer.c **** uint32_t timer_counter_read(uint32_t timer_periph)
 357:C:/Users/49542/Desktop/GD32F30x_Demo_Suites_V2.0.0/GD32F30x_Demo_Suites_V2.0.0/GD32F30x_Firmware_Library/GD32F30x_standard_peripheral/Source\gd32f30x_timer.c **** {
 1186              		.loc 1 357 0
 1187              		.cfi_startproc
 1188              		@ args = 0, pretend = 0, frame = 16
 1189              		@ frame_needed = 1, uses_anonymous_args = 0
 1190              		@ link register save eliminated.
 1191 0000 80B4     		push	{r7}
 1192              	.LCFI95:
 1193              		.cfi_def_cfa_offset 4
 1194              		.cfi_offset 7, -4
 1195 0002 85B0     		sub	sp, sp, #20
 1196              	.LCFI96:
 1197              		.cfi_def_cfa_offset 24
 1198 0004 00AF     		add	r7, sp, #0
 1199              	.LCFI97:
 1200              		.cfi_def_cfa_register 7
 1201 0006 7860     		str	r0, [r7, #4]
 358:C:/Users/49542/Desktop/GD32F30x_Demo_Suites_V2.0.0/GD32F30x_Demo_Suites_V2.0.0/GD32F30x_Firmware_Library/GD32F30x_standard_peripheral/Source\gd32f30x_timer.c ****     uint32_t count_value = 0U;
 1202              		.loc 1 358 0
 1203 0008 0023     		movs	r3, #0
 1204 000a FB60     		str	r3, [r7, #12]
 359:C:/Users/49542/Desktop/GD32F30x_Demo_Suites_V2.0.0/GD32F30x_Demo_Suites_V2.0.0/GD32F30x_Firmware_Library/GD32F30x_standard_peripheral/Source\gd32f30x_timer.c ****     count_value = TIMER_CNT(timer_periph);
 1205              		.loc 1 359 0
 1206 000c 7B68     		ldr	r3, [r7, #4]
 1207 000e 2433     		adds	r3, r3, #36
 1208 0010 1B68     		ldr	r3, [r3]
 1209 0012 FB60     		str	r3, [r7, #12]
 360:C:/Users/49542/Desktop/GD32F30x_Demo_Suites_V2.0.0/GD32F30x_Demo_Suites_V2.0.0/GD32F30x_Firmware_Library/GD32F30x_standard_peripheral/Source\gd32f30x_timer.c ****     return (count_value);
 1210              		.loc 1 360 0
 1211 0014 FB68     		ldr	r3, [r7, #12]
 361:C:/Users/49542/Desktop/GD32F30x_Demo_Suites_V2.0.0/GD32F30x_Demo_Suites_V2.0.0/GD32F30x_Firmware_Library/GD32F30x_standard_peripheral/Source\gd32f30x_timer.c **** }
 1212              		.loc 1 361 0
 1213 0016 1846     		mov	r0, r3
 1214 0018 1437     		adds	r7, r7, #20
 1215              	.LCFI98:
 1216              		.cfi_def_cfa_offset 4
 1217 001a BD46     		mov	sp, r7
 1218              	.LCFI99:
 1219              		.cfi_def_cfa_register 13
 1220              		@ sp needed
 1221 001c 5DF8047B 		ldr	r7, [sp], #4
 1222              	.LCFI100:
 1223              		.cfi_restore 7
ARM GAS  C:\Users\49542\AppData\Local\Temp\ccx6VnNU.s 			page 29


 1224              		.cfi_def_cfa_offset 0
 1225 0020 7047     		bx	lr
 1226              		.cfi_endproc
 1227              	.LFE132:
 1229              		.section	.text.timer_prescaler_read,"ax",%progbits
 1230              		.align	1
 1231              		.global	timer_prescaler_read
 1232              		.syntax unified
 1233              		.thumb
 1234              		.thumb_func
 1235              		.fpu fpv4-sp-d16
 1237              	timer_prescaler_read:
 1238              	.LFB133:
 362:C:/Users/49542/Desktop/GD32F30x_Demo_Suites_V2.0.0/GD32F30x_Demo_Suites_V2.0.0/GD32F30x_Firmware_Library/GD32F30x_standard_peripheral/Source\gd32f30x_timer.c **** 
 363:C:/Users/49542/Desktop/GD32F30x_Demo_Suites_V2.0.0/GD32F30x_Demo_Suites_V2.0.0/GD32F30x_Firmware_Library/GD32F30x_standard_peripheral/Source\gd32f30x_timer.c **** /*!
 364:C:/Users/49542/Desktop/GD32F30x_Demo_Suites_V2.0.0/GD32F30x_Demo_Suites_V2.0.0/GD32F30x_Firmware_Library/GD32F30x_standard_peripheral/Source\gd32f30x_timer.c ****     \brief      read TIMER prescaler value
 365:C:/Users/49542/Desktop/GD32F30x_Demo_Suites_V2.0.0/GD32F30x_Demo_Suites_V2.0.0/GD32F30x_Firmware_Library/GD32F30x_standard_peripheral/Source\gd32f30x_timer.c ****     \param[in]  timer_periph: TIMERx(x=0..13)
 366:C:/Users/49542/Desktop/GD32F30x_Demo_Suites_V2.0.0/GD32F30x_Demo_Suites_V2.0.0/GD32F30x_Firmware_Library/GD32F30x_standard_peripheral/Source\gd32f30x_timer.c ****     \param[out] none
 367:C:/Users/49542/Desktop/GD32F30x_Demo_Suites_V2.0.0/GD32F30x_Demo_Suites_V2.0.0/GD32F30x_Firmware_Library/GD32F30x_standard_peripheral/Source\gd32f30x_timer.c ****     \retval     prescaler register value
 368:C:/Users/49542/Desktop/GD32F30x_Demo_Suites_V2.0.0/GD32F30x_Demo_Suites_V2.0.0/GD32F30x_Firmware_Library/GD32F30x_standard_peripheral/Source\gd32f30x_timer.c **** */         
 369:C:/Users/49542/Desktop/GD32F30x_Demo_Suites_V2.0.0/GD32F30x_Demo_Suites_V2.0.0/GD32F30x_Firmware_Library/GD32F30x_standard_peripheral/Source\gd32f30x_timer.c **** uint16_t timer_prescaler_read(uint32_t timer_periph)
 370:C:/Users/49542/Desktop/GD32F30x_Demo_Suites_V2.0.0/GD32F30x_Demo_Suites_V2.0.0/GD32F30x_Firmware_Library/GD32F30x_standard_peripheral/Source\gd32f30x_timer.c **** {
 1239              		.loc 1 370 0
 1240              		.cfi_startproc
 1241              		@ args = 0, pretend = 0, frame = 16
 1242              		@ frame_needed = 1, uses_anonymous_args = 0
 1243              		@ link register save eliminated.
 1244 0000 80B4     		push	{r7}
 1245              	.LCFI101:
 1246              		.cfi_def_cfa_offset 4
 1247              		.cfi_offset 7, -4
 1248 0002 85B0     		sub	sp, sp, #20
 1249              	.LCFI102:
 1250              		.cfi_def_cfa_offset 24
 1251 0004 00AF     		add	r7, sp, #0
 1252              	.LCFI103:
 1253              		.cfi_def_cfa_register 7
 1254 0006 7860     		str	r0, [r7, #4]
 371:C:/Users/49542/Desktop/GD32F30x_Demo_Suites_V2.0.0/GD32F30x_Demo_Suites_V2.0.0/GD32F30x_Firmware_Library/GD32F30x_standard_peripheral/Source\gd32f30x_timer.c ****     uint16_t prescaler_value = 0U;
 1255              		.loc 1 371 0
 1256 0008 0023     		movs	r3, #0
 1257 000a FB81     		strh	r3, [r7, #14]	@ movhi
 372:C:/Users/49542/Desktop/GD32F30x_Demo_Suites_V2.0.0/GD32F30x_Demo_Suites_V2.0.0/GD32F30x_Firmware_Library/GD32F30x_standard_peripheral/Source\gd32f30x_timer.c ****     prescaler_value = (uint16_t)(TIMER_PSC(timer_periph));
 1258              		.loc 1 372 0
 1259 000c 7B68     		ldr	r3, [r7, #4]
 1260 000e 2833     		adds	r3, r3, #40
 1261 0010 1B68     		ldr	r3, [r3]
 1262 0012 FB81     		strh	r3, [r7, #14]	@ movhi
 373:C:/Users/49542/Desktop/GD32F30x_Demo_Suites_V2.0.0/GD32F30x_Demo_Suites_V2.0.0/GD32F30x_Firmware_Library/GD32F30x_standard_peripheral/Source\gd32f30x_timer.c ****     return (prescaler_value);
 1263              		.loc 1 373 0
 1264 0014 FB89     		ldrh	r3, [r7, #14]
 374:C:/Users/49542/Desktop/GD32F30x_Demo_Suites_V2.0.0/GD32F30x_Demo_Suites_V2.0.0/GD32F30x_Firmware_Library/GD32F30x_standard_peripheral/Source\gd32f30x_timer.c **** }
 1265              		.loc 1 374 0
 1266 0016 1846     		mov	r0, r3
 1267 0018 1437     		adds	r7, r7, #20
 1268              	.LCFI104:
 1269              		.cfi_def_cfa_offset 4
ARM GAS  C:\Users\49542\AppData\Local\Temp\ccx6VnNU.s 			page 30


 1270 001a BD46     		mov	sp, r7
 1271              	.LCFI105:
 1272              		.cfi_def_cfa_register 13
 1273              		@ sp needed
 1274 001c 5DF8047B 		ldr	r7, [sp], #4
 1275              	.LCFI106:
 1276              		.cfi_restore 7
 1277              		.cfi_def_cfa_offset 0
 1278 0020 7047     		bx	lr
 1279              		.cfi_endproc
 1280              	.LFE133:
 1282              		.section	.text.timer_single_pulse_mode_config,"ax",%progbits
 1283              		.align	1
 1284              		.global	timer_single_pulse_mode_config
 1285              		.syntax unified
 1286              		.thumb
 1287              		.thumb_func
 1288              		.fpu fpv4-sp-d16
 1290              	timer_single_pulse_mode_config:
 1291              	.LFB134:
 375:C:/Users/49542/Desktop/GD32F30x_Demo_Suites_V2.0.0/GD32F30x_Demo_Suites_V2.0.0/GD32F30x_Firmware_Library/GD32F30x_standard_peripheral/Source\gd32f30x_timer.c **** 
 376:C:/Users/49542/Desktop/GD32F30x_Demo_Suites_V2.0.0/GD32F30x_Demo_Suites_V2.0.0/GD32F30x_Firmware_Library/GD32F30x_standard_peripheral/Source\gd32f30x_timer.c **** /*!
 377:C:/Users/49542/Desktop/GD32F30x_Demo_Suites_V2.0.0/GD32F30x_Demo_Suites_V2.0.0/GD32F30x_Firmware_Library/GD32F30x_standard_peripheral/Source\gd32f30x_timer.c ****     \brief      configure TIMER single pulse mode
 378:C:/Users/49542/Desktop/GD32F30x_Demo_Suites_V2.0.0/GD32F30x_Demo_Suites_V2.0.0/GD32F30x_Firmware_Library/GD32F30x_standard_peripheral/Source\gd32f30x_timer.c ****     \param[in]  timer_periph: TIMERx(x=0..8,11)
 379:C:/Users/49542/Desktop/GD32F30x_Demo_Suites_V2.0.0/GD32F30x_Demo_Suites_V2.0.0/GD32F30x_Firmware_Library/GD32F30x_standard_peripheral/Source\gd32f30x_timer.c ****     \param[in]  spmode:
 380:C:/Users/49542/Desktop/GD32F30x_Demo_Suites_V2.0.0/GD32F30x_Demo_Suites_V2.0.0/GD32F30x_Firmware_Library/GD32F30x_standard_peripheral/Source\gd32f30x_timer.c ****                 only one parameter can be selected which is shown as below:
 381:C:/Users/49542/Desktop/GD32F30x_Demo_Suites_V2.0.0/GD32F30x_Demo_Suites_V2.0.0/GD32F30x_Firmware_Library/GD32F30x_standard_peripheral/Source\gd32f30x_timer.c ****       \arg        TIMER_SP_MODE_SINGLE: single pulse mode
 382:C:/Users/49542/Desktop/GD32F30x_Demo_Suites_V2.0.0/GD32F30x_Demo_Suites_V2.0.0/GD32F30x_Firmware_Library/GD32F30x_standard_peripheral/Source\gd32f30x_timer.c ****       \arg        TIMER_SP_MODE_REPETITIVE: repetitive pulse mode
 383:C:/Users/49542/Desktop/GD32F30x_Demo_Suites_V2.0.0/GD32F30x_Demo_Suites_V2.0.0/GD32F30x_Firmware_Library/GD32F30x_standard_peripheral/Source\gd32f30x_timer.c ****     \param[out] none
 384:C:/Users/49542/Desktop/GD32F30x_Demo_Suites_V2.0.0/GD32F30x_Demo_Suites_V2.0.0/GD32F30x_Firmware_Library/GD32F30x_standard_peripheral/Source\gd32f30x_timer.c ****     \retval     none
 385:C:/Users/49542/Desktop/GD32F30x_Demo_Suites_V2.0.0/GD32F30x_Demo_Suites_V2.0.0/GD32F30x_Firmware_Library/GD32F30x_standard_peripheral/Source\gd32f30x_timer.c **** */
 386:C:/Users/49542/Desktop/GD32F30x_Demo_Suites_V2.0.0/GD32F30x_Demo_Suites_V2.0.0/GD32F30x_Firmware_Library/GD32F30x_standard_peripheral/Source\gd32f30x_timer.c **** void timer_single_pulse_mode_config(uint32_t timer_periph, uint32_t spmode)
 387:C:/Users/49542/Desktop/GD32F30x_Demo_Suites_V2.0.0/GD32F30x_Demo_Suites_V2.0.0/GD32F30x_Firmware_Library/GD32F30x_standard_peripheral/Source\gd32f30x_timer.c **** {
 1292              		.loc 1 387 0
 1293              		.cfi_startproc
 1294              		@ args = 0, pretend = 0, frame = 8
 1295              		@ frame_needed = 1, uses_anonymous_args = 0
 1296              		@ link register save eliminated.
 1297 0000 80B4     		push	{r7}
 1298              	.LCFI107:
 1299              		.cfi_def_cfa_offset 4
 1300              		.cfi_offset 7, -4
 1301 0002 83B0     		sub	sp, sp, #12
 1302              	.LCFI108:
 1303              		.cfi_def_cfa_offset 16
 1304 0004 00AF     		add	r7, sp, #0
 1305              	.LCFI109:
 1306              		.cfi_def_cfa_register 7
 1307 0006 7860     		str	r0, [r7, #4]
 1308 0008 3960     		str	r1, [r7]
 388:C:/Users/49542/Desktop/GD32F30x_Demo_Suites_V2.0.0/GD32F30x_Demo_Suites_V2.0.0/GD32F30x_Firmware_Library/GD32F30x_standard_peripheral/Source\gd32f30x_timer.c ****     if(TIMER_SP_MODE_SINGLE == spmode){
 1309              		.loc 1 388 0
 1310 000a 3B68     		ldr	r3, [r7]
 1311 000c 002B     		cmp	r3, #0
 1312 000e 06D1     		bne	.L52
 389:C:/Users/49542/Desktop/GD32F30x_Demo_Suites_V2.0.0/GD32F30x_Demo_Suites_V2.0.0/GD32F30x_Firmware_Library/GD32F30x_standard_peripheral/Source\gd32f30x_timer.c ****         TIMER_CTL0(timer_periph) |= (uint32_t)TIMER_CTL0_SPM;
 1313              		.loc 1 389 0
ARM GAS  C:\Users\49542\AppData\Local\Temp\ccx6VnNU.s 			page 31


 1314 0010 7B68     		ldr	r3, [r7, #4]
 1315 0012 1A68     		ldr	r2, [r3]
 1316 0014 7B68     		ldr	r3, [r7, #4]
 1317 0016 42F00802 		orr	r2, r2, #8
 1318 001a 1A60     		str	r2, [r3]
 390:C:/Users/49542/Desktop/GD32F30x_Demo_Suites_V2.0.0/GD32F30x_Demo_Suites_V2.0.0/GD32F30x_Firmware_Library/GD32F30x_standard_peripheral/Source\gd32f30x_timer.c ****     }else if(TIMER_SP_MODE_REPETITIVE == spmode){
 391:C:/Users/49542/Desktop/GD32F30x_Demo_Suites_V2.0.0/GD32F30x_Demo_Suites_V2.0.0/GD32F30x_Firmware_Library/GD32F30x_standard_peripheral/Source\gd32f30x_timer.c ****         TIMER_CTL0(timer_periph) &= ~((uint32_t)TIMER_CTL0_SPM);
 392:C:/Users/49542/Desktop/GD32F30x_Demo_Suites_V2.0.0/GD32F30x_Demo_Suites_V2.0.0/GD32F30x_Firmware_Library/GD32F30x_standard_peripheral/Source\gd32f30x_timer.c ****     }else{
 393:C:/Users/49542/Desktop/GD32F30x_Demo_Suites_V2.0.0/GD32F30x_Demo_Suites_V2.0.0/GD32F30x_Firmware_Library/GD32F30x_standard_peripheral/Source\gd32f30x_timer.c ****         /* illegal parameters */
 394:C:/Users/49542/Desktop/GD32F30x_Demo_Suites_V2.0.0/GD32F30x_Demo_Suites_V2.0.0/GD32F30x_Firmware_Library/GD32F30x_standard_peripheral/Source\gd32f30x_timer.c ****     }
 395:C:/Users/49542/Desktop/GD32F30x_Demo_Suites_V2.0.0/GD32F30x_Demo_Suites_V2.0.0/GD32F30x_Firmware_Library/GD32F30x_standard_peripheral/Source\gd32f30x_timer.c **** }
 1319              		.loc 1 395 0
 1320 001c 08E0     		b	.L54
 1321              	.L52:
 390:C:/Users/49542/Desktop/GD32F30x_Demo_Suites_V2.0.0/GD32F30x_Demo_Suites_V2.0.0/GD32F30x_Firmware_Library/GD32F30x_standard_peripheral/Source\gd32f30x_timer.c ****     }else if(TIMER_SP_MODE_REPETITIVE == spmode){
 1322              		.loc 1 390 0
 1323 001e 3B68     		ldr	r3, [r7]
 1324 0020 012B     		cmp	r3, #1
 1325 0022 05D1     		bne	.L54
 391:C:/Users/49542/Desktop/GD32F30x_Demo_Suites_V2.0.0/GD32F30x_Demo_Suites_V2.0.0/GD32F30x_Firmware_Library/GD32F30x_standard_peripheral/Source\gd32f30x_timer.c ****     }else{
 1326              		.loc 1 391 0
 1327 0024 7B68     		ldr	r3, [r7, #4]
 1328 0026 1A68     		ldr	r2, [r3]
 1329 0028 7B68     		ldr	r3, [r7, #4]
 1330 002a 22F00802 		bic	r2, r2, #8
 1331 002e 1A60     		str	r2, [r3]
 1332              	.L54:
 1333              		.loc 1 395 0
 1334 0030 00BF     		nop
 1335 0032 0C37     		adds	r7, r7, #12
 1336              	.LCFI110:
 1337              		.cfi_def_cfa_offset 4
 1338 0034 BD46     		mov	sp, r7
 1339              	.LCFI111:
 1340              		.cfi_def_cfa_register 13
 1341              		@ sp needed
 1342 0036 5DF8047B 		ldr	r7, [sp], #4
 1343              	.LCFI112:
 1344              		.cfi_restore 7
 1345              		.cfi_def_cfa_offset 0
 1346 003a 7047     		bx	lr
 1347              		.cfi_endproc
 1348              	.LFE134:
 1350              		.section	.text.timer_update_source_config,"ax",%progbits
 1351              		.align	1
 1352              		.global	timer_update_source_config
 1353              		.syntax unified
 1354              		.thumb
 1355              		.thumb_func
 1356              		.fpu fpv4-sp-d16
 1358              	timer_update_source_config:
 1359              	.LFB135:
 396:C:/Users/49542/Desktop/GD32F30x_Demo_Suites_V2.0.0/GD32F30x_Demo_Suites_V2.0.0/GD32F30x_Firmware_Library/GD32F30x_standard_peripheral/Source\gd32f30x_timer.c **** 
 397:C:/Users/49542/Desktop/GD32F30x_Demo_Suites_V2.0.0/GD32F30x_Demo_Suites_V2.0.0/GD32F30x_Firmware_Library/GD32F30x_standard_peripheral/Source\gd32f30x_timer.c **** /*!
 398:C:/Users/49542/Desktop/GD32F30x_Demo_Suites_V2.0.0/GD32F30x_Demo_Suites_V2.0.0/GD32F30x_Firmware_Library/GD32F30x_standard_peripheral/Source\gd32f30x_timer.c ****     \brief      configure TIMER update source 
 399:C:/Users/49542/Desktop/GD32F30x_Demo_Suites_V2.0.0/GD32F30x_Demo_Suites_V2.0.0/GD32F30x_Firmware_Library/GD32F30x_standard_peripheral/Source\gd32f30x_timer.c ****     \param[in]  timer_periph: TIMERx(x=0..13)
 400:C:/Users/49542/Desktop/GD32F30x_Demo_Suites_V2.0.0/GD32F30x_Demo_Suites_V2.0.0/GD32F30x_Firmware_Library/GD32F30x_standard_peripheral/Source\gd32f30x_timer.c ****     \param[in]  update: 
ARM GAS  C:\Users\49542\AppData\Local\Temp\ccx6VnNU.s 			page 32


 401:C:/Users/49542/Desktop/GD32F30x_Demo_Suites_V2.0.0/GD32F30x_Demo_Suites_V2.0.0/GD32F30x_Firmware_Library/GD32F30x_standard_peripheral/Source\gd32f30x_timer.c ****                 only one parameter can be selected which is shown as below:
 402:C:/Users/49542/Desktop/GD32F30x_Demo_Suites_V2.0.0/GD32F30x_Demo_Suites_V2.0.0/GD32F30x_Firmware_Library/GD32F30x_standard_peripheral/Source\gd32f30x_timer.c ****       \arg        TIMER_UPDATE_SRC_GLOBAL: update generate by setting of UPG bit or the counter ove
 403:C:/Users/49542/Desktop/GD32F30x_Demo_Suites_V2.0.0/GD32F30x_Demo_Suites_V2.0.0/GD32F30x_Firmware_Library/GD32F30x_standard_peripheral/Source\gd32f30x_timer.c ****       \arg        TIMER_UPDATE_SRC_REGULAR: update generate only by counter overflow/underflow
 404:C:/Users/49542/Desktop/GD32F30x_Demo_Suites_V2.0.0/GD32F30x_Demo_Suites_V2.0.0/GD32F30x_Firmware_Library/GD32F30x_standard_peripheral/Source\gd32f30x_timer.c ****     \param[out] none
 405:C:/Users/49542/Desktop/GD32F30x_Demo_Suites_V2.0.0/GD32F30x_Demo_Suites_V2.0.0/GD32F30x_Firmware_Library/GD32F30x_standard_peripheral/Source\gd32f30x_timer.c ****     \retval     none
 406:C:/Users/49542/Desktop/GD32F30x_Demo_Suites_V2.0.0/GD32F30x_Demo_Suites_V2.0.0/GD32F30x_Firmware_Library/GD32F30x_standard_peripheral/Source\gd32f30x_timer.c **** */
 407:C:/Users/49542/Desktop/GD32F30x_Demo_Suites_V2.0.0/GD32F30x_Demo_Suites_V2.0.0/GD32F30x_Firmware_Library/GD32F30x_standard_peripheral/Source\gd32f30x_timer.c **** void timer_update_source_config(uint32_t timer_periph, uint32_t update)
 408:C:/Users/49542/Desktop/GD32F30x_Demo_Suites_V2.0.0/GD32F30x_Demo_Suites_V2.0.0/GD32F30x_Firmware_Library/GD32F30x_standard_peripheral/Source\gd32f30x_timer.c **** {
 1360              		.loc 1 408 0
 1361              		.cfi_startproc
 1362              		@ args = 0, pretend = 0, frame = 8
 1363              		@ frame_needed = 1, uses_anonymous_args = 0
 1364              		@ link register save eliminated.
 1365 0000 80B4     		push	{r7}
 1366              	.LCFI113:
 1367              		.cfi_def_cfa_offset 4
 1368              		.cfi_offset 7, -4
 1369 0002 83B0     		sub	sp, sp, #12
 1370              	.LCFI114:
 1371              		.cfi_def_cfa_offset 16
 1372 0004 00AF     		add	r7, sp, #0
 1373              	.LCFI115:
 1374              		.cfi_def_cfa_register 7
 1375 0006 7860     		str	r0, [r7, #4]
 1376 0008 3960     		str	r1, [r7]
 409:C:/Users/49542/Desktop/GD32F30x_Demo_Suites_V2.0.0/GD32F30x_Demo_Suites_V2.0.0/GD32F30x_Firmware_Library/GD32F30x_standard_peripheral/Source\gd32f30x_timer.c ****     if(TIMER_UPDATE_SRC_REGULAR == update){
 1377              		.loc 1 409 0
 1378 000a 3B68     		ldr	r3, [r7]
 1379 000c 002B     		cmp	r3, #0
 1380 000e 06D1     		bne	.L56
 410:C:/Users/49542/Desktop/GD32F30x_Demo_Suites_V2.0.0/GD32F30x_Demo_Suites_V2.0.0/GD32F30x_Firmware_Library/GD32F30x_standard_peripheral/Source\gd32f30x_timer.c ****         TIMER_CTL0(timer_periph) |= (uint32_t)TIMER_CTL0_UPS;
 1381              		.loc 1 410 0
 1382 0010 7B68     		ldr	r3, [r7, #4]
 1383 0012 1A68     		ldr	r2, [r3]
 1384 0014 7B68     		ldr	r3, [r7, #4]
 1385 0016 42F00402 		orr	r2, r2, #4
 1386 001a 1A60     		str	r2, [r3]
 411:C:/Users/49542/Desktop/GD32F30x_Demo_Suites_V2.0.0/GD32F30x_Demo_Suites_V2.0.0/GD32F30x_Firmware_Library/GD32F30x_standard_peripheral/Source\gd32f30x_timer.c ****     }else if(TIMER_UPDATE_SRC_GLOBAL == update){
 412:C:/Users/49542/Desktop/GD32F30x_Demo_Suites_V2.0.0/GD32F30x_Demo_Suites_V2.0.0/GD32F30x_Firmware_Library/GD32F30x_standard_peripheral/Source\gd32f30x_timer.c ****         TIMER_CTL0(timer_periph) &= ~(uint32_t)TIMER_CTL0_UPS;
 413:C:/Users/49542/Desktop/GD32F30x_Demo_Suites_V2.0.0/GD32F30x_Demo_Suites_V2.0.0/GD32F30x_Firmware_Library/GD32F30x_standard_peripheral/Source\gd32f30x_timer.c ****     }else{
 414:C:/Users/49542/Desktop/GD32F30x_Demo_Suites_V2.0.0/GD32F30x_Demo_Suites_V2.0.0/GD32F30x_Firmware_Library/GD32F30x_standard_peripheral/Source\gd32f30x_timer.c ****         /* illegal parameters */
 415:C:/Users/49542/Desktop/GD32F30x_Demo_Suites_V2.0.0/GD32F30x_Demo_Suites_V2.0.0/GD32F30x_Firmware_Library/GD32F30x_standard_peripheral/Source\gd32f30x_timer.c ****     }
 416:C:/Users/49542/Desktop/GD32F30x_Demo_Suites_V2.0.0/GD32F30x_Demo_Suites_V2.0.0/GD32F30x_Firmware_Library/GD32F30x_standard_peripheral/Source\gd32f30x_timer.c **** }
 1387              		.loc 1 416 0
 1388 001c 08E0     		b	.L58
 1389              	.L56:
 411:C:/Users/49542/Desktop/GD32F30x_Demo_Suites_V2.0.0/GD32F30x_Demo_Suites_V2.0.0/GD32F30x_Firmware_Library/GD32F30x_standard_peripheral/Source\gd32f30x_timer.c ****     }else if(TIMER_UPDATE_SRC_GLOBAL == update){
 1390              		.loc 1 411 0
 1391 001e 3B68     		ldr	r3, [r7]
 1392 0020 012B     		cmp	r3, #1
 1393 0022 05D1     		bne	.L58
 412:C:/Users/49542/Desktop/GD32F30x_Demo_Suites_V2.0.0/GD32F30x_Demo_Suites_V2.0.0/GD32F30x_Firmware_Library/GD32F30x_standard_peripheral/Source\gd32f30x_timer.c ****     }else{
 1394              		.loc 1 412 0
 1395 0024 7B68     		ldr	r3, [r7, #4]
 1396 0026 1A68     		ldr	r2, [r3]
 1397 0028 7B68     		ldr	r3, [r7, #4]
 1398 002a 22F00402 		bic	r2, r2, #4
ARM GAS  C:\Users\49542\AppData\Local\Temp\ccx6VnNU.s 			page 33


 1399 002e 1A60     		str	r2, [r3]
 1400              	.L58:
 1401              		.loc 1 416 0
 1402 0030 00BF     		nop
 1403 0032 0C37     		adds	r7, r7, #12
 1404              	.LCFI116:
 1405              		.cfi_def_cfa_offset 4
 1406 0034 BD46     		mov	sp, r7
 1407              	.LCFI117:
 1408              		.cfi_def_cfa_register 13
 1409              		@ sp needed
 1410 0036 5DF8047B 		ldr	r7, [sp], #4
 1411              	.LCFI118:
 1412              		.cfi_restore 7
 1413              		.cfi_def_cfa_offset 0
 1414 003a 7047     		bx	lr
 1415              		.cfi_endproc
 1416              	.LFE135:
 1418              		.section	.text.timer_interrupt_enable,"ax",%progbits
 1419              		.align	1
 1420              		.global	timer_interrupt_enable
 1421              		.syntax unified
 1422              		.thumb
 1423              		.thumb_func
 1424              		.fpu fpv4-sp-d16
 1426              	timer_interrupt_enable:
 1427              	.LFB136:
 417:C:/Users/49542/Desktop/GD32F30x_Demo_Suites_V2.0.0/GD32F30x_Demo_Suites_V2.0.0/GD32F30x_Firmware_Library/GD32F30x_standard_peripheral/Source\gd32f30x_timer.c **** 
 418:C:/Users/49542/Desktop/GD32F30x_Demo_Suites_V2.0.0/GD32F30x_Demo_Suites_V2.0.0/GD32F30x_Firmware_Library/GD32F30x_standard_peripheral/Source\gd32f30x_timer.c **** /*!
 419:C:/Users/49542/Desktop/GD32F30x_Demo_Suites_V2.0.0/GD32F30x_Demo_Suites_V2.0.0/GD32F30x_Firmware_Library/GD32F30x_standard_peripheral/Source\gd32f30x_timer.c ****     \brief      enable the TIMER interrupt
 420:C:/Users/49542/Desktop/GD32F30x_Demo_Suites_V2.0.0/GD32F30x_Demo_Suites_V2.0.0/GD32F30x_Firmware_Library/GD32F30x_standard_peripheral/Source\gd32f30x_timer.c ****     \param[in]  timer_periph: please refer to the following parameters 
 421:C:/Users/49542/Desktop/GD32F30x_Demo_Suites_V2.0.0/GD32F30x_Demo_Suites_V2.0.0/GD32F30x_Firmware_Library/GD32F30x_standard_peripheral/Source\gd32f30x_timer.c ****     \param[in]  interrupt: timer interrupt enable source
 422:C:/Users/49542/Desktop/GD32F30x_Demo_Suites_V2.0.0/GD32F30x_Demo_Suites_V2.0.0/GD32F30x_Firmware_Library/GD32F30x_standard_peripheral/Source\gd32f30x_timer.c ****                 only one parameter can be selected which is shown as below:
 423:C:/Users/49542/Desktop/GD32F30x_Demo_Suites_V2.0.0/GD32F30x_Demo_Suites_V2.0.0/GD32F30x_Firmware_Library/GD32F30x_standard_peripheral/Source\gd32f30x_timer.c ****       \arg        TIMER_INT_UP: update interrupt enable, TIMERx(x=0..13)
 424:C:/Users/49542/Desktop/GD32F30x_Demo_Suites_V2.0.0/GD32F30x_Demo_Suites_V2.0.0/GD32F30x_Firmware_Library/GD32F30x_standard_peripheral/Source\gd32f30x_timer.c ****       \arg        TIMER_INT_CH0: channel 0 interrupt enable, TIMERx(x=0..4,7..13)
 425:C:/Users/49542/Desktop/GD32F30x_Demo_Suites_V2.0.0/GD32F30x_Demo_Suites_V2.0.0/GD32F30x_Firmware_Library/GD32F30x_standard_peripheral/Source\gd32f30x_timer.c ****       \arg        TIMER_INT_CH1: channel 1 interrupt enable, TIMERx(x=0..4,7,8,11)
 426:C:/Users/49542/Desktop/GD32F30x_Demo_Suites_V2.0.0/GD32F30x_Demo_Suites_V2.0.0/GD32F30x_Firmware_Library/GD32F30x_standard_peripheral/Source\gd32f30x_timer.c ****       \arg        TIMER_INT_CH2: channel 2 interrupt enable, TIMERx(x=0..4,7)
 427:C:/Users/49542/Desktop/GD32F30x_Demo_Suites_V2.0.0/GD32F30x_Demo_Suites_V2.0.0/GD32F30x_Firmware_Library/GD32F30x_standard_peripheral/Source\gd32f30x_timer.c ****       \arg        TIMER_INT_CH3: channel 3 interrupt enable , TIMERx(x=0..4,7)
 428:C:/Users/49542/Desktop/GD32F30x_Demo_Suites_V2.0.0/GD32F30x_Demo_Suites_V2.0.0/GD32F30x_Firmware_Library/GD32F30x_standard_peripheral/Source\gd32f30x_timer.c ****       \arg        TIMER_INT_CMT: commutation interrupt enable, TIMERx(x=0,7)
 429:C:/Users/49542/Desktop/GD32F30x_Demo_Suites_V2.0.0/GD32F30x_Demo_Suites_V2.0.0/GD32F30x_Firmware_Library/GD32F30x_standard_peripheral/Source\gd32f30x_timer.c ****       \arg        TIMER_INT_TRG: trigger interrupt enable, TIMERx(x=0..4,7,8,11)
 430:C:/Users/49542/Desktop/GD32F30x_Demo_Suites_V2.0.0/GD32F30x_Demo_Suites_V2.0.0/GD32F30x_Firmware_Library/GD32F30x_standard_peripheral/Source\gd32f30x_timer.c ****       \arg        TIMER_INT_BRK: break interrupt enable, TIMERx(x=0,7)
 431:C:/Users/49542/Desktop/GD32F30x_Demo_Suites_V2.0.0/GD32F30x_Demo_Suites_V2.0.0/GD32F30x_Firmware_Library/GD32F30x_standard_peripheral/Source\gd32f30x_timer.c ****     \param[out] none
 432:C:/Users/49542/Desktop/GD32F30x_Demo_Suites_V2.0.0/GD32F30x_Demo_Suites_V2.0.0/GD32F30x_Firmware_Library/GD32F30x_standard_peripheral/Source\gd32f30x_timer.c ****     \retval     none
 433:C:/Users/49542/Desktop/GD32F30x_Demo_Suites_V2.0.0/GD32F30x_Demo_Suites_V2.0.0/GD32F30x_Firmware_Library/GD32F30x_standard_peripheral/Source\gd32f30x_timer.c **** */
 434:C:/Users/49542/Desktop/GD32F30x_Demo_Suites_V2.0.0/GD32F30x_Demo_Suites_V2.0.0/GD32F30x_Firmware_Library/GD32F30x_standard_peripheral/Source\gd32f30x_timer.c **** void timer_interrupt_enable(uint32_t timer_periph, uint32_t interrupt)
 435:C:/Users/49542/Desktop/GD32F30x_Demo_Suites_V2.0.0/GD32F30x_Demo_Suites_V2.0.0/GD32F30x_Firmware_Library/GD32F30x_standard_peripheral/Source\gd32f30x_timer.c **** {
 1428              		.loc 1 435 0
 1429              		.cfi_startproc
 1430              		@ args = 0, pretend = 0, frame = 8
 1431              		@ frame_needed = 1, uses_anonymous_args = 0
 1432              		@ link register save eliminated.
 1433 0000 80B4     		push	{r7}
 1434              	.LCFI119:
 1435              		.cfi_def_cfa_offset 4
 1436              		.cfi_offset 7, -4
 1437 0002 83B0     		sub	sp, sp, #12
 1438              	.LCFI120:
ARM GAS  C:\Users\49542\AppData\Local\Temp\ccx6VnNU.s 			page 34


 1439              		.cfi_def_cfa_offset 16
 1440 0004 00AF     		add	r7, sp, #0
 1441              	.LCFI121:
 1442              		.cfi_def_cfa_register 7
 1443 0006 7860     		str	r0, [r7, #4]
 1444 0008 3960     		str	r1, [r7]
 436:C:/Users/49542/Desktop/GD32F30x_Demo_Suites_V2.0.0/GD32F30x_Demo_Suites_V2.0.0/GD32F30x_Firmware_Library/GD32F30x_standard_peripheral/Source\gd32f30x_timer.c ****     TIMER_DMAINTEN(timer_periph) |= (uint32_t) interrupt; 
 1445              		.loc 1 436 0
 1446 000a 7B68     		ldr	r3, [r7, #4]
 1447 000c 0C33     		adds	r3, r3, #12
 1448 000e 1A68     		ldr	r2, [r3]
 1449 0010 7B68     		ldr	r3, [r7, #4]
 1450 0012 0C33     		adds	r3, r3, #12
 1451 0014 1946     		mov	r1, r3
 1452 0016 3B68     		ldr	r3, [r7]
 1453 0018 1343     		orrs	r3, r3, r2
 1454 001a 0B60     		str	r3, [r1]
 437:C:/Users/49542/Desktop/GD32F30x_Demo_Suites_V2.0.0/GD32F30x_Demo_Suites_V2.0.0/GD32F30x_Firmware_Library/GD32F30x_standard_peripheral/Source\gd32f30x_timer.c **** }
 1455              		.loc 1 437 0
 1456 001c 00BF     		nop
 1457 001e 0C37     		adds	r7, r7, #12
 1458              	.LCFI122:
 1459              		.cfi_def_cfa_offset 4
 1460 0020 BD46     		mov	sp, r7
 1461              	.LCFI123:
 1462              		.cfi_def_cfa_register 13
 1463              		@ sp needed
 1464 0022 5DF8047B 		ldr	r7, [sp], #4
 1465              	.LCFI124:
 1466              		.cfi_restore 7
 1467              		.cfi_def_cfa_offset 0
 1468 0026 7047     		bx	lr
 1469              		.cfi_endproc
 1470              	.LFE136:
 1472              		.section	.text.timer_interrupt_disable,"ax",%progbits
 1473              		.align	1
 1474              		.global	timer_interrupt_disable
 1475              		.syntax unified
 1476              		.thumb
 1477              		.thumb_func
 1478              		.fpu fpv4-sp-d16
 1480              	timer_interrupt_disable:
 1481              	.LFB137:
 438:C:/Users/49542/Desktop/GD32F30x_Demo_Suites_V2.0.0/GD32F30x_Demo_Suites_V2.0.0/GD32F30x_Firmware_Library/GD32F30x_standard_peripheral/Source\gd32f30x_timer.c **** 
 439:C:/Users/49542/Desktop/GD32F30x_Demo_Suites_V2.0.0/GD32F30x_Demo_Suites_V2.0.0/GD32F30x_Firmware_Library/GD32F30x_standard_peripheral/Source\gd32f30x_timer.c **** /*!
 440:C:/Users/49542/Desktop/GD32F30x_Demo_Suites_V2.0.0/GD32F30x_Demo_Suites_V2.0.0/GD32F30x_Firmware_Library/GD32F30x_standard_peripheral/Source\gd32f30x_timer.c ****     \brief      disable the TIMER interrupt
 441:C:/Users/49542/Desktop/GD32F30x_Demo_Suites_V2.0.0/GD32F30x_Demo_Suites_V2.0.0/GD32F30x_Firmware_Library/GD32F30x_standard_peripheral/Source\gd32f30x_timer.c ****     \param[in]  timer_periph: please refer to the following parameters
 442:C:/Users/49542/Desktop/GD32F30x_Demo_Suites_V2.0.0/GD32F30x_Demo_Suites_V2.0.0/GD32F30x_Firmware_Library/GD32F30x_standard_peripheral/Source\gd32f30x_timer.c ****     \param[in]  interrupt: timer interrupt source disable 
 443:C:/Users/49542/Desktop/GD32F30x_Demo_Suites_V2.0.0/GD32F30x_Demo_Suites_V2.0.0/GD32F30x_Firmware_Library/GD32F30x_standard_peripheral/Source\gd32f30x_timer.c ****                 only one parameter can be selected which is shown as below:
 444:C:/Users/49542/Desktop/GD32F30x_Demo_Suites_V2.0.0/GD32F30x_Demo_Suites_V2.0.0/GD32F30x_Firmware_Library/GD32F30x_standard_peripheral/Source\gd32f30x_timer.c ****       \arg        TIMER_INT_UP: update interrupt disable, TIMERx(x=0..13)
 445:C:/Users/49542/Desktop/GD32F30x_Demo_Suites_V2.0.0/GD32F30x_Demo_Suites_V2.0.0/GD32F30x_Firmware_Library/GD32F30x_standard_peripheral/Source\gd32f30x_timer.c ****       \arg        TIMER_INT_CH0: channel 0 interrupt disable, TIMERx(x=0..4,7..13)
 446:C:/Users/49542/Desktop/GD32F30x_Demo_Suites_V2.0.0/GD32F30x_Demo_Suites_V2.0.0/GD32F30x_Firmware_Library/GD32F30x_standard_peripheral/Source\gd32f30x_timer.c ****       \arg        TIMER_INT_CH1: channel 1 interrupt disable, TIMERx(x=0..4,7,8,11)
 447:C:/Users/49542/Desktop/GD32F30x_Demo_Suites_V2.0.0/GD32F30x_Demo_Suites_V2.0.0/GD32F30x_Firmware_Library/GD32F30x_standard_peripheral/Source\gd32f30x_timer.c ****       \arg        TIMER_INT_CH2: channel 2 interrupt disable, TIMERx(x=0..4,7)
 448:C:/Users/49542/Desktop/GD32F30x_Demo_Suites_V2.0.0/GD32F30x_Demo_Suites_V2.0.0/GD32F30x_Firmware_Library/GD32F30x_standard_peripheral/Source\gd32f30x_timer.c ****       \arg        TIMER_INT_CH3: channel 3 interrupt disable , TIMERx(x=0..4,7)
 449:C:/Users/49542/Desktop/GD32F30x_Demo_Suites_V2.0.0/GD32F30x_Demo_Suites_V2.0.0/GD32F30x_Firmware_Library/GD32F30x_standard_peripheral/Source\gd32f30x_timer.c ****       \arg        TIMER_INT_CMT: commutation interrupt disable, TIMERx(x=0,7)
 450:C:/Users/49542/Desktop/GD32F30x_Demo_Suites_V2.0.0/GD32F30x_Demo_Suites_V2.0.0/GD32F30x_Firmware_Library/GD32F30x_standard_peripheral/Source\gd32f30x_timer.c ****       \arg        TIMER_INT_TRG: trigger interrupt disable, TIMERx(x=0..4,7,8,11)
 451:C:/Users/49542/Desktop/GD32F30x_Demo_Suites_V2.0.0/GD32F30x_Demo_Suites_V2.0.0/GD32F30x_Firmware_Library/GD32F30x_standard_peripheral/Source\gd32f30x_timer.c ****       \arg        TIMER_INT_BRK: break interrupt disable, TIMERx(x=0,7)
ARM GAS  C:\Users\49542\AppData\Local\Temp\ccx6VnNU.s 			page 35


 452:C:/Users/49542/Desktop/GD32F30x_Demo_Suites_V2.0.0/GD32F30x_Demo_Suites_V2.0.0/GD32F30x_Firmware_Library/GD32F30x_standard_peripheral/Source\gd32f30x_timer.c ****     \param[out] none
 453:C:/Users/49542/Desktop/GD32F30x_Demo_Suites_V2.0.0/GD32F30x_Demo_Suites_V2.0.0/GD32F30x_Firmware_Library/GD32F30x_standard_peripheral/Source\gd32f30x_timer.c ****     \retval     none
 454:C:/Users/49542/Desktop/GD32F30x_Demo_Suites_V2.0.0/GD32F30x_Demo_Suites_V2.0.0/GD32F30x_Firmware_Library/GD32F30x_standard_peripheral/Source\gd32f30x_timer.c **** */
 455:C:/Users/49542/Desktop/GD32F30x_Demo_Suites_V2.0.0/GD32F30x_Demo_Suites_V2.0.0/GD32F30x_Firmware_Library/GD32F30x_standard_peripheral/Source\gd32f30x_timer.c **** void timer_interrupt_disable(uint32_t timer_periph, uint32_t interrupt)
 456:C:/Users/49542/Desktop/GD32F30x_Demo_Suites_V2.0.0/GD32F30x_Demo_Suites_V2.0.0/GD32F30x_Firmware_Library/GD32F30x_standard_peripheral/Source\gd32f30x_timer.c **** {
 1482              		.loc 1 456 0
 1483              		.cfi_startproc
 1484              		@ args = 0, pretend = 0, frame = 8
 1485              		@ frame_needed = 1, uses_anonymous_args = 0
 1486              		@ link register save eliminated.
 1487 0000 80B4     		push	{r7}
 1488              	.LCFI125:
 1489              		.cfi_def_cfa_offset 4
 1490              		.cfi_offset 7, -4
 1491 0002 83B0     		sub	sp, sp, #12
 1492              	.LCFI126:
 1493              		.cfi_def_cfa_offset 16
 1494 0004 00AF     		add	r7, sp, #0
 1495              	.LCFI127:
 1496              		.cfi_def_cfa_register 7
 1497 0006 7860     		str	r0, [r7, #4]
 1498 0008 3960     		str	r1, [r7]
 457:C:/Users/49542/Desktop/GD32F30x_Demo_Suites_V2.0.0/GD32F30x_Demo_Suites_V2.0.0/GD32F30x_Firmware_Library/GD32F30x_standard_peripheral/Source\gd32f30x_timer.c ****     TIMER_DMAINTEN(timer_periph) &= (~(uint32_t)interrupt); 
 1499              		.loc 1 457 0
 1500 000a 7B68     		ldr	r3, [r7, #4]
 1501 000c 0C33     		adds	r3, r3, #12
 1502 000e 1A68     		ldr	r2, [r3]
 1503 0010 3B68     		ldr	r3, [r7]
 1504 0012 DB43     		mvns	r3, r3
 1505 0014 7968     		ldr	r1, [r7, #4]
 1506 0016 0C31     		adds	r1, r1, #12
 1507 0018 1340     		ands	r3, r3, r2
 1508 001a 0B60     		str	r3, [r1]
 458:C:/Users/49542/Desktop/GD32F30x_Demo_Suites_V2.0.0/GD32F30x_Demo_Suites_V2.0.0/GD32F30x_Firmware_Library/GD32F30x_standard_peripheral/Source\gd32f30x_timer.c **** }
 1509              		.loc 1 458 0
 1510 001c 00BF     		nop
 1511 001e 0C37     		adds	r7, r7, #12
 1512              	.LCFI128:
 1513              		.cfi_def_cfa_offset 4
 1514 0020 BD46     		mov	sp, r7
 1515              	.LCFI129:
 1516              		.cfi_def_cfa_register 13
 1517              		@ sp needed
 1518 0022 5DF8047B 		ldr	r7, [sp], #4
 1519              	.LCFI130:
 1520              		.cfi_restore 7
 1521              		.cfi_def_cfa_offset 0
 1522 0026 7047     		bx	lr
 1523              		.cfi_endproc
 1524              	.LFE137:
 1526              		.section	.text.timer_interrupt_flag_get,"ax",%progbits
 1527              		.align	1
 1528              		.global	timer_interrupt_flag_get
 1529              		.syntax unified
 1530              		.thumb
 1531              		.thumb_func
 1532              		.fpu fpv4-sp-d16
ARM GAS  C:\Users\49542\AppData\Local\Temp\ccx6VnNU.s 			page 36


 1534              	timer_interrupt_flag_get:
 1535              	.LFB138:
 459:C:/Users/49542/Desktop/GD32F30x_Demo_Suites_V2.0.0/GD32F30x_Demo_Suites_V2.0.0/GD32F30x_Firmware_Library/GD32F30x_standard_peripheral/Source\gd32f30x_timer.c **** 
 460:C:/Users/49542/Desktop/GD32F30x_Demo_Suites_V2.0.0/GD32F30x_Demo_Suites_V2.0.0/GD32F30x_Firmware_Library/GD32F30x_standard_peripheral/Source\gd32f30x_timer.c **** /*!
 461:C:/Users/49542/Desktop/GD32F30x_Demo_Suites_V2.0.0/GD32F30x_Demo_Suites_V2.0.0/GD32F30x_Firmware_Library/GD32F30x_standard_peripheral/Source\gd32f30x_timer.c ****     \brief      get timer interrupt flag
 462:C:/Users/49542/Desktop/GD32F30x_Demo_Suites_V2.0.0/GD32F30x_Demo_Suites_V2.0.0/GD32F30x_Firmware_Library/GD32F30x_standard_peripheral/Source\gd32f30x_timer.c ****     \param[in]  timer_periph: please refer to the following parameters
 463:C:/Users/49542/Desktop/GD32F30x_Demo_Suites_V2.0.0/GD32F30x_Demo_Suites_V2.0.0/GD32F30x_Firmware_Library/GD32F30x_standard_peripheral/Source\gd32f30x_timer.c ****     \param[in]  interrupt: the timer interrupt bits
 464:C:/Users/49542/Desktop/GD32F30x_Demo_Suites_V2.0.0/GD32F30x_Demo_Suites_V2.0.0/GD32F30x_Firmware_Library/GD32F30x_standard_peripheral/Source\gd32f30x_timer.c ****                 only one parameter can be selected which is shown as below:
 465:C:/Users/49542/Desktop/GD32F30x_Demo_Suites_V2.0.0/GD32F30x_Demo_Suites_V2.0.0/GD32F30x_Firmware_Library/GD32F30x_standard_peripheral/Source\gd32f30x_timer.c ****       \arg        TIMER_INT_FLAG_UP: update interrupt flag,TIMERx(x=0..13)
 466:C:/Users/49542/Desktop/GD32F30x_Demo_Suites_V2.0.0/GD32F30x_Demo_Suites_V2.0.0/GD32F30x_Firmware_Library/GD32F30x_standard_peripheral/Source\gd32f30x_timer.c ****       \arg        TIMER_INT_FLAG_CH0: channel 0 interrupt flag,TIMERx(x=0..4,7..13)
 467:C:/Users/49542/Desktop/GD32F30x_Demo_Suites_V2.0.0/GD32F30x_Demo_Suites_V2.0.0/GD32F30x_Firmware_Library/GD32F30x_standard_peripheral/Source\gd32f30x_timer.c ****       \arg        TIMER_INT_FLAG_CH1: channel 1 interrupt flag,TIMERx(x=0..4,7,8,11)
 468:C:/Users/49542/Desktop/GD32F30x_Demo_Suites_V2.0.0/GD32F30x_Demo_Suites_V2.0.0/GD32F30x_Firmware_Library/GD32F30x_standard_peripheral/Source\gd32f30x_timer.c ****       \arg        TIMER_INT_FLAG_CH2: channel 2 interrupt flag,TIMERx(x=0..4,7)
 469:C:/Users/49542/Desktop/GD32F30x_Demo_Suites_V2.0.0/GD32F30x_Demo_Suites_V2.0.0/GD32F30x_Firmware_Library/GD32F30x_standard_peripheral/Source\gd32f30x_timer.c ****       \arg        TIMER_INT_FLAG_CH3: channel 3 interrupt flag,TIMERx(x=0..4,7)
 470:C:/Users/49542/Desktop/GD32F30x_Demo_Suites_V2.0.0/GD32F30x_Demo_Suites_V2.0.0/GD32F30x_Firmware_Library/GD32F30x_standard_peripheral/Source\gd32f30x_timer.c ****       \arg        TIMER_INT_FLAG_CMT: channel commutation interrupt flag,TIMERx(x=0,7) 
 471:C:/Users/49542/Desktop/GD32F30x_Demo_Suites_V2.0.0/GD32F30x_Demo_Suites_V2.0.0/GD32F30x_Firmware_Library/GD32F30x_standard_peripheral/Source\gd32f30x_timer.c ****       \arg        TIMER_INT_FLAG_TRG: trigger interrupt flag,TIMERx(x=0,7,8,11)
 472:C:/Users/49542/Desktop/GD32F30x_Demo_Suites_V2.0.0/GD32F30x_Demo_Suites_V2.0.0/GD32F30x_Firmware_Library/GD32F30x_standard_peripheral/Source\gd32f30x_timer.c ****       \arg        TIMER_INT_FLAG_BRK:  break interrupt flag,TIMERx(x=0,7)
 473:C:/Users/49542/Desktop/GD32F30x_Demo_Suites_V2.0.0/GD32F30x_Demo_Suites_V2.0.0/GD32F30x_Firmware_Library/GD32F30x_standard_peripheral/Source\gd32f30x_timer.c ****     \param[out] none
 474:C:/Users/49542/Desktop/GD32F30x_Demo_Suites_V2.0.0/GD32F30x_Demo_Suites_V2.0.0/GD32F30x_Firmware_Library/GD32F30x_standard_peripheral/Source\gd32f30x_timer.c ****     \retval     FlagStatus: SET or RESET
 475:C:/Users/49542/Desktop/GD32F30x_Demo_Suites_V2.0.0/GD32F30x_Demo_Suites_V2.0.0/GD32F30x_Firmware_Library/GD32F30x_standard_peripheral/Source\gd32f30x_timer.c **** */
 476:C:/Users/49542/Desktop/GD32F30x_Demo_Suites_V2.0.0/GD32F30x_Demo_Suites_V2.0.0/GD32F30x_Firmware_Library/GD32F30x_standard_peripheral/Source\gd32f30x_timer.c **** FlagStatus timer_interrupt_flag_get(uint32_t timer_periph, uint32_t interrupt)
 477:C:/Users/49542/Desktop/GD32F30x_Demo_Suites_V2.0.0/GD32F30x_Demo_Suites_V2.0.0/GD32F30x_Firmware_Library/GD32F30x_standard_peripheral/Source\gd32f30x_timer.c **** {
 1536              		.loc 1 477 0
 1537              		.cfi_startproc
 1538              		@ args = 0, pretend = 0, frame = 16
 1539              		@ frame_needed = 1, uses_anonymous_args = 0
 1540              		@ link register save eliminated.
 1541 0000 80B4     		push	{r7}
 1542              	.LCFI131:
 1543              		.cfi_def_cfa_offset 4
 1544              		.cfi_offset 7, -4
 1545 0002 85B0     		sub	sp, sp, #20
 1546              	.LCFI132:
 1547              		.cfi_def_cfa_offset 24
 1548 0004 00AF     		add	r7, sp, #0
 1549              	.LCFI133:
 1550              		.cfi_def_cfa_register 7
 1551 0006 7860     		str	r0, [r7, #4]
 1552 0008 3960     		str	r1, [r7]
 478:C:/Users/49542/Desktop/GD32F30x_Demo_Suites_V2.0.0/GD32F30x_Demo_Suites_V2.0.0/GD32F30x_Firmware_Library/GD32F30x_standard_peripheral/Source\gd32f30x_timer.c ****     uint32_t val;
 479:C:/Users/49542/Desktop/GD32F30x_Demo_Suites_V2.0.0/GD32F30x_Demo_Suites_V2.0.0/GD32F30x_Firmware_Library/GD32F30x_standard_peripheral/Source\gd32f30x_timer.c ****     val = (TIMER_DMAINTEN(timer_periph) & interrupt);
 1553              		.loc 1 479 0
 1554 000a 7B68     		ldr	r3, [r7, #4]
 1555 000c 0C33     		adds	r3, r3, #12
 1556 000e 1B68     		ldr	r3, [r3]
 1557 0010 3A68     		ldr	r2, [r7]
 1558 0012 1340     		ands	r3, r3, r2
 1559 0014 FB60     		str	r3, [r7, #12]
 480:C:/Users/49542/Desktop/GD32F30x_Demo_Suites_V2.0.0/GD32F30x_Demo_Suites_V2.0.0/GD32F30x_Firmware_Library/GD32F30x_standard_peripheral/Source\gd32f30x_timer.c ****     if((RESET != (TIMER_INTF(timer_periph) & interrupt) ) && (RESET != val)){
 1560              		.loc 1 480 0
 1561 0016 7B68     		ldr	r3, [r7, #4]
 1562 0018 1033     		adds	r3, r3, #16
 1563 001a 1A68     		ldr	r2, [r3]
 1564 001c 3B68     		ldr	r3, [r7]
 1565 001e 1340     		ands	r3, r3, r2
 1566 0020 002B     		cmp	r3, #0
 1567 0022 04D0     		beq	.L62
 1568              		.loc 1 480 0 is_stmt 0 discriminator 1
ARM GAS  C:\Users\49542\AppData\Local\Temp\ccx6VnNU.s 			page 37


 1569 0024 FB68     		ldr	r3, [r7, #12]
 1570 0026 002B     		cmp	r3, #0
 1571 0028 01D0     		beq	.L62
 481:C:/Users/49542/Desktop/GD32F30x_Demo_Suites_V2.0.0/GD32F30x_Demo_Suites_V2.0.0/GD32F30x_Firmware_Library/GD32F30x_standard_peripheral/Source\gd32f30x_timer.c ****         return SET;
 1572              		.loc 1 481 0 is_stmt 1
 1573 002a 0123     		movs	r3, #1
 1574 002c 00E0     		b	.L63
 1575              	.L62:
 482:C:/Users/49542/Desktop/GD32F30x_Demo_Suites_V2.0.0/GD32F30x_Demo_Suites_V2.0.0/GD32F30x_Firmware_Library/GD32F30x_standard_peripheral/Source\gd32f30x_timer.c ****     }else{
 483:C:/Users/49542/Desktop/GD32F30x_Demo_Suites_V2.0.0/GD32F30x_Demo_Suites_V2.0.0/GD32F30x_Firmware_Library/GD32F30x_standard_peripheral/Source\gd32f30x_timer.c ****         return RESET;
 1576              		.loc 1 483 0
 1577 002e 0023     		movs	r3, #0
 1578              	.L63:
 484:C:/Users/49542/Desktop/GD32F30x_Demo_Suites_V2.0.0/GD32F30x_Demo_Suites_V2.0.0/GD32F30x_Firmware_Library/GD32F30x_standard_peripheral/Source\gd32f30x_timer.c ****     }
 485:C:/Users/49542/Desktop/GD32F30x_Demo_Suites_V2.0.0/GD32F30x_Demo_Suites_V2.0.0/GD32F30x_Firmware_Library/GD32F30x_standard_peripheral/Source\gd32f30x_timer.c **** }
 1579              		.loc 1 485 0
 1580 0030 1846     		mov	r0, r3
 1581 0032 1437     		adds	r7, r7, #20
 1582              	.LCFI134:
 1583              		.cfi_def_cfa_offset 4
 1584 0034 BD46     		mov	sp, r7
 1585              	.LCFI135:
 1586              		.cfi_def_cfa_register 13
 1587              		@ sp needed
 1588 0036 5DF8047B 		ldr	r7, [sp], #4
 1589              	.LCFI136:
 1590              		.cfi_restore 7
 1591              		.cfi_def_cfa_offset 0
 1592 003a 7047     		bx	lr
 1593              		.cfi_endproc
 1594              	.LFE138:
 1596              		.section	.text.timer_interrupt_flag_clear,"ax",%progbits
 1597              		.align	1
 1598              		.global	timer_interrupt_flag_clear
 1599              		.syntax unified
 1600              		.thumb
 1601              		.thumb_func
 1602              		.fpu fpv4-sp-d16
 1604              	timer_interrupt_flag_clear:
 1605              	.LFB139:
 486:C:/Users/49542/Desktop/GD32F30x_Demo_Suites_V2.0.0/GD32F30x_Demo_Suites_V2.0.0/GD32F30x_Firmware_Library/GD32F30x_standard_peripheral/Source\gd32f30x_timer.c **** 
 487:C:/Users/49542/Desktop/GD32F30x_Demo_Suites_V2.0.0/GD32F30x_Demo_Suites_V2.0.0/GD32F30x_Firmware_Library/GD32F30x_standard_peripheral/Source\gd32f30x_timer.c **** /*!
 488:C:/Users/49542/Desktop/GD32F30x_Demo_Suites_V2.0.0/GD32F30x_Demo_Suites_V2.0.0/GD32F30x_Firmware_Library/GD32F30x_standard_peripheral/Source\gd32f30x_timer.c ****     \brief      clear TIMER interrupt flag
 489:C:/Users/49542/Desktop/GD32F30x_Demo_Suites_V2.0.0/GD32F30x_Demo_Suites_V2.0.0/GD32F30x_Firmware_Library/GD32F30x_standard_peripheral/Source\gd32f30x_timer.c ****     \param[in]  timer_periph: please refer to the following parameters
 490:C:/Users/49542/Desktop/GD32F30x_Demo_Suites_V2.0.0/GD32F30x_Demo_Suites_V2.0.0/GD32F30x_Firmware_Library/GD32F30x_standard_peripheral/Source\gd32f30x_timer.c ****     \param[in]  interrupt: the timer interrupt bits
 491:C:/Users/49542/Desktop/GD32F30x_Demo_Suites_V2.0.0/GD32F30x_Demo_Suites_V2.0.0/GD32F30x_Firmware_Library/GD32F30x_standard_peripheral/Source\gd32f30x_timer.c ****                 only one parameter can be selected which is shown as below:
 492:C:/Users/49542/Desktop/GD32F30x_Demo_Suites_V2.0.0/GD32F30x_Demo_Suites_V2.0.0/GD32F30x_Firmware_Library/GD32F30x_standard_peripheral/Source\gd32f30x_timer.c ****       \arg        TIMER_INT_FLAG_UP: update interrupt flag,TIMERx(x=0..13)
 493:C:/Users/49542/Desktop/GD32F30x_Demo_Suites_V2.0.0/GD32F30x_Demo_Suites_V2.0.0/GD32F30x_Firmware_Library/GD32F30x_standard_peripheral/Source\gd32f30x_timer.c ****       \arg        TIMER_INT_FLAG_CH0: channel 0 interrupt flag,TIMERx(x=0..4,7..13)
 494:C:/Users/49542/Desktop/GD32F30x_Demo_Suites_V2.0.0/GD32F30x_Demo_Suites_V2.0.0/GD32F30x_Firmware_Library/GD32F30x_standard_peripheral/Source\gd32f30x_timer.c ****       \arg        TIMER_INT_FLAG_CH1: channel 1 interrupt flag,TIMERx(x=0..4,7,8,11)
 495:C:/Users/49542/Desktop/GD32F30x_Demo_Suites_V2.0.0/GD32F30x_Demo_Suites_V2.0.0/GD32F30x_Firmware_Library/GD32F30x_standard_peripheral/Source\gd32f30x_timer.c ****       \arg        TIMER_INT_FLAG_CH2: channel 2 interrupt flag,TIMERx(x=0..4,7)
 496:C:/Users/49542/Desktop/GD32F30x_Demo_Suites_V2.0.0/GD32F30x_Demo_Suites_V2.0.0/GD32F30x_Firmware_Library/GD32F30x_standard_peripheral/Source\gd32f30x_timer.c ****       \arg        TIMER_INT_FLAG_CH3: channel 3 interrupt flag,TIMERx(x=0..4,7)
 497:C:/Users/49542/Desktop/GD32F30x_Demo_Suites_V2.0.0/GD32F30x_Demo_Suites_V2.0.0/GD32F30x_Firmware_Library/GD32F30x_standard_peripheral/Source\gd32f30x_timer.c ****       \arg        TIMER_INT_FLAG_CMT: channel commutation interrupt flag,TIMERx(x=0,7) 
 498:C:/Users/49542/Desktop/GD32F30x_Demo_Suites_V2.0.0/GD32F30x_Demo_Suites_V2.0.0/GD32F30x_Firmware_Library/GD32F30x_standard_peripheral/Source\gd32f30x_timer.c ****       \arg        TIMER_INT_FLAG_TRG: trigger interrupt flag,TIMERx(x=0,7,8,11)
 499:C:/Users/49542/Desktop/GD32F30x_Demo_Suites_V2.0.0/GD32F30x_Demo_Suites_V2.0.0/GD32F30x_Firmware_Library/GD32F30x_standard_peripheral/Source\gd32f30x_timer.c ****       \arg        TIMER_INT_FLAG_BRK:  break interrupt flag,TIMERx(x=0,7)
 500:C:/Users/49542/Desktop/GD32F30x_Demo_Suites_V2.0.0/GD32F30x_Demo_Suites_V2.0.0/GD32F30x_Firmware_Library/GD32F30x_standard_peripheral/Source\gd32f30x_timer.c ****     \param[out] none
 501:C:/Users/49542/Desktop/GD32F30x_Demo_Suites_V2.0.0/GD32F30x_Demo_Suites_V2.0.0/GD32F30x_Firmware_Library/GD32F30x_standard_peripheral/Source\gd32f30x_timer.c ****     \retval     none
 502:C:/Users/49542/Desktop/GD32F30x_Demo_Suites_V2.0.0/GD32F30x_Demo_Suites_V2.0.0/GD32F30x_Firmware_Library/GD32F30x_standard_peripheral/Source\gd32f30x_timer.c **** */
ARM GAS  C:\Users\49542\AppData\Local\Temp\ccx6VnNU.s 			page 38


 503:C:/Users/49542/Desktop/GD32F30x_Demo_Suites_V2.0.0/GD32F30x_Demo_Suites_V2.0.0/GD32F30x_Firmware_Library/GD32F30x_standard_peripheral/Source\gd32f30x_timer.c **** void timer_interrupt_flag_clear(uint32_t timer_periph, uint32_t interrupt)
 504:C:/Users/49542/Desktop/GD32F30x_Demo_Suites_V2.0.0/GD32F30x_Demo_Suites_V2.0.0/GD32F30x_Firmware_Library/GD32F30x_standard_peripheral/Source\gd32f30x_timer.c **** {
 1606              		.loc 1 504 0
 1607              		.cfi_startproc
 1608              		@ args = 0, pretend = 0, frame = 8
 1609              		@ frame_needed = 1, uses_anonymous_args = 0
 1610              		@ link register save eliminated.
 1611 0000 80B4     		push	{r7}
 1612              	.LCFI137:
 1613              		.cfi_def_cfa_offset 4
 1614              		.cfi_offset 7, -4
 1615 0002 83B0     		sub	sp, sp, #12
 1616              	.LCFI138:
 1617              		.cfi_def_cfa_offset 16
 1618 0004 00AF     		add	r7, sp, #0
 1619              	.LCFI139:
 1620              		.cfi_def_cfa_register 7
 1621 0006 7860     		str	r0, [r7, #4]
 1622 0008 3960     		str	r1, [r7]
 505:C:/Users/49542/Desktop/GD32F30x_Demo_Suites_V2.0.0/GD32F30x_Demo_Suites_V2.0.0/GD32F30x_Firmware_Library/GD32F30x_standard_peripheral/Source\gd32f30x_timer.c ****     TIMER_INTF(timer_periph) &= (~(uint32_t)interrupt);
 1623              		.loc 1 505 0
 1624 000a 7B68     		ldr	r3, [r7, #4]
 1625 000c 1033     		adds	r3, r3, #16
 1626 000e 1A68     		ldr	r2, [r3]
 1627 0010 3B68     		ldr	r3, [r7]
 1628 0012 DB43     		mvns	r3, r3
 1629 0014 7968     		ldr	r1, [r7, #4]
 1630 0016 1031     		adds	r1, r1, #16
 1631 0018 1340     		ands	r3, r3, r2
 1632 001a 0B60     		str	r3, [r1]
 506:C:/Users/49542/Desktop/GD32F30x_Demo_Suites_V2.0.0/GD32F30x_Demo_Suites_V2.0.0/GD32F30x_Firmware_Library/GD32F30x_standard_peripheral/Source\gd32f30x_timer.c **** }
 1633              		.loc 1 506 0
 1634 001c 00BF     		nop
 1635 001e 0C37     		adds	r7, r7, #12
 1636              	.LCFI140:
 1637              		.cfi_def_cfa_offset 4
 1638 0020 BD46     		mov	sp, r7
 1639              	.LCFI141:
 1640              		.cfi_def_cfa_register 13
 1641              		@ sp needed
 1642 0022 5DF8047B 		ldr	r7, [sp], #4
 1643              	.LCFI142:
 1644              		.cfi_restore 7
 1645              		.cfi_def_cfa_offset 0
 1646 0026 7047     		bx	lr
 1647              		.cfi_endproc
 1648              	.LFE139:
 1650              		.section	.text.timer_flag_get,"ax",%progbits
 1651              		.align	1
 1652              		.global	timer_flag_get
 1653              		.syntax unified
 1654              		.thumb
 1655              		.thumb_func
 1656              		.fpu fpv4-sp-d16
 1658              	timer_flag_get:
 1659              	.LFB140:
 507:C:/Users/49542/Desktop/GD32F30x_Demo_Suites_V2.0.0/GD32F30x_Demo_Suites_V2.0.0/GD32F30x_Firmware_Library/GD32F30x_standard_peripheral/Source\gd32f30x_timer.c **** 
ARM GAS  C:\Users\49542\AppData\Local\Temp\ccx6VnNU.s 			page 39


 508:C:/Users/49542/Desktop/GD32F30x_Demo_Suites_V2.0.0/GD32F30x_Demo_Suites_V2.0.0/GD32F30x_Firmware_Library/GD32F30x_standard_peripheral/Source\gd32f30x_timer.c **** /*!
 509:C:/Users/49542/Desktop/GD32F30x_Demo_Suites_V2.0.0/GD32F30x_Demo_Suites_V2.0.0/GD32F30x_Firmware_Library/GD32F30x_standard_peripheral/Source\gd32f30x_timer.c ****     \brief      get TIMER flags
 510:C:/Users/49542/Desktop/GD32F30x_Demo_Suites_V2.0.0/GD32F30x_Demo_Suites_V2.0.0/GD32F30x_Firmware_Library/GD32F30x_standard_peripheral/Source\gd32f30x_timer.c ****     \param[in]  timer_periph: please refer to the following parameters
 511:C:/Users/49542/Desktop/GD32F30x_Demo_Suites_V2.0.0/GD32F30x_Demo_Suites_V2.0.0/GD32F30x_Firmware_Library/GD32F30x_standard_peripheral/Source\gd32f30x_timer.c ****     \param[in]  flag: the timer interrupt flags
 512:C:/Users/49542/Desktop/GD32F30x_Demo_Suites_V2.0.0/GD32F30x_Demo_Suites_V2.0.0/GD32F30x_Firmware_Library/GD32F30x_standard_peripheral/Source\gd32f30x_timer.c ****                 only one parameter can be selected which is shown as below:
 513:C:/Users/49542/Desktop/GD32F30x_Demo_Suites_V2.0.0/GD32F30x_Demo_Suites_V2.0.0/GD32F30x_Firmware_Library/GD32F30x_standard_peripheral/Source\gd32f30x_timer.c ****       \arg        TIMER_FLAG_UP: update flag,TIMERx(x=0..13)
 514:C:/Users/49542/Desktop/GD32F30x_Demo_Suites_V2.0.0/GD32F30x_Demo_Suites_V2.0.0/GD32F30x_Firmware_Library/GD32F30x_standard_peripheral/Source\gd32f30x_timer.c ****       \arg        TIMER_FLAG_CH0: channel 0 flag,TIMERx(x=0..4,7..13)
 515:C:/Users/49542/Desktop/GD32F30x_Demo_Suites_V2.0.0/GD32F30x_Demo_Suites_V2.0.0/GD32F30x_Firmware_Library/GD32F30x_standard_peripheral/Source\gd32f30x_timer.c ****       \arg        TIMER_FLAG_CH1: channel 1 flag,TIMERx(x=0..4,7,8,11)
 516:C:/Users/49542/Desktop/GD32F30x_Demo_Suites_V2.0.0/GD32F30x_Demo_Suites_V2.0.0/GD32F30x_Firmware_Library/GD32F30x_standard_peripheral/Source\gd32f30x_timer.c ****       \arg        TIMER_FLAG_CH2: channel 2 flag,TIMERx(x=0..4,7)
 517:C:/Users/49542/Desktop/GD32F30x_Demo_Suites_V2.0.0/GD32F30x_Demo_Suites_V2.0.0/GD32F30x_Firmware_Library/GD32F30x_standard_peripheral/Source\gd32f30x_timer.c ****       \arg        TIMER_FLAG_CH3: channel 3 flag,TIMERx(x=0..4,7)
 518:C:/Users/49542/Desktop/GD32F30x_Demo_Suites_V2.0.0/GD32F30x_Demo_Suites_V2.0.0/GD32F30x_Firmware_Library/GD32F30x_standard_peripheral/Source\gd32f30x_timer.c ****       \arg        TIMER_FLAG_CMT: channel control update flag,TIMERx(x=0,7) 
 519:C:/Users/49542/Desktop/GD32F30x_Demo_Suites_V2.0.0/GD32F30x_Demo_Suites_V2.0.0/GD32F30x_Firmware_Library/GD32F30x_standard_peripheral/Source\gd32f30x_timer.c ****       \arg        TIMER_FLAG_TRG: trigger flag,TIMERx(x=0,7,8,11) 
 520:C:/Users/49542/Desktop/GD32F30x_Demo_Suites_V2.0.0/GD32F30x_Demo_Suites_V2.0.0/GD32F30x_Firmware_Library/GD32F30x_standard_peripheral/Source\gd32f30x_timer.c ****       \arg        TIMER_FLAG_BRK: break flag,TIMERx(x=0,7)
 521:C:/Users/49542/Desktop/GD32F30x_Demo_Suites_V2.0.0/GD32F30x_Demo_Suites_V2.0.0/GD32F30x_Firmware_Library/GD32F30x_standard_peripheral/Source\gd32f30x_timer.c ****       \arg        TIMER_FLAG_CH0O: channel 0 overcapture flag,TIMERx(x=0..4,7..11)
 522:C:/Users/49542/Desktop/GD32F30x_Demo_Suites_V2.0.0/GD32F30x_Demo_Suites_V2.0.0/GD32F30x_Firmware_Library/GD32F30x_standard_peripheral/Source\gd32f30x_timer.c ****       \arg        TIMER_FLAG_CH1O: channel 1 overcapture flag,TIMERx(x=0..4,7,8,11)
 523:C:/Users/49542/Desktop/GD32F30x_Demo_Suites_V2.0.0/GD32F30x_Demo_Suites_V2.0.0/GD32F30x_Firmware_Library/GD32F30x_standard_peripheral/Source\gd32f30x_timer.c ****       \arg        TIMER_FLAG_CH2O: channel 2 overcapture flag,TIMERx(x=0..4,7)
 524:C:/Users/49542/Desktop/GD32F30x_Demo_Suites_V2.0.0/GD32F30x_Demo_Suites_V2.0.0/GD32F30x_Firmware_Library/GD32F30x_standard_peripheral/Source\gd32f30x_timer.c ****       \arg        TIMER_FLAG_CH3O: channel 3 overcapture flag,TIMERx(x=0..4,7)
 525:C:/Users/49542/Desktop/GD32F30x_Demo_Suites_V2.0.0/GD32F30x_Demo_Suites_V2.0.0/GD32F30x_Firmware_Library/GD32F30x_standard_peripheral/Source\gd32f30x_timer.c ****     \param[out] none
 526:C:/Users/49542/Desktop/GD32F30x_Demo_Suites_V2.0.0/GD32F30x_Demo_Suites_V2.0.0/GD32F30x_Firmware_Library/GD32F30x_standard_peripheral/Source\gd32f30x_timer.c ****     \retval     FlagStatus: SET or RESET
 527:C:/Users/49542/Desktop/GD32F30x_Demo_Suites_V2.0.0/GD32F30x_Demo_Suites_V2.0.0/GD32F30x_Firmware_Library/GD32F30x_standard_peripheral/Source\gd32f30x_timer.c **** */
 528:C:/Users/49542/Desktop/GD32F30x_Demo_Suites_V2.0.0/GD32F30x_Demo_Suites_V2.0.0/GD32F30x_Firmware_Library/GD32F30x_standard_peripheral/Source\gd32f30x_timer.c **** FlagStatus timer_flag_get(uint32_t timer_periph, uint32_t flag)
 529:C:/Users/49542/Desktop/GD32F30x_Demo_Suites_V2.0.0/GD32F30x_Demo_Suites_V2.0.0/GD32F30x_Firmware_Library/GD32F30x_standard_peripheral/Source\gd32f30x_timer.c **** {
 1660              		.loc 1 529 0
 1661              		.cfi_startproc
 1662              		@ args = 0, pretend = 0, frame = 8
 1663              		@ frame_needed = 1, uses_anonymous_args = 0
 1664              		@ link register save eliminated.
 1665 0000 80B4     		push	{r7}
 1666              	.LCFI143:
 1667              		.cfi_def_cfa_offset 4
 1668              		.cfi_offset 7, -4
 1669 0002 83B0     		sub	sp, sp, #12
 1670              	.LCFI144:
 1671              		.cfi_def_cfa_offset 16
 1672 0004 00AF     		add	r7, sp, #0
 1673              	.LCFI145:
 1674              		.cfi_def_cfa_register 7
 1675 0006 7860     		str	r0, [r7, #4]
 1676 0008 3960     		str	r1, [r7]
 530:C:/Users/49542/Desktop/GD32F30x_Demo_Suites_V2.0.0/GD32F30x_Demo_Suites_V2.0.0/GD32F30x_Firmware_Library/GD32F30x_standard_peripheral/Source\gd32f30x_timer.c ****     if(RESET != (TIMER_INTF(timer_periph) & flag)){
 1677              		.loc 1 530 0
 1678 000a 7B68     		ldr	r3, [r7, #4]
 1679 000c 1033     		adds	r3, r3, #16
 1680 000e 1A68     		ldr	r2, [r3]
 1681 0010 3B68     		ldr	r3, [r7]
 1682 0012 1340     		ands	r3, r3, r2
 1683 0014 002B     		cmp	r3, #0
 1684 0016 01D0     		beq	.L66
 531:C:/Users/49542/Desktop/GD32F30x_Demo_Suites_V2.0.0/GD32F30x_Demo_Suites_V2.0.0/GD32F30x_Firmware_Library/GD32F30x_standard_peripheral/Source\gd32f30x_timer.c ****         return SET;
 1685              		.loc 1 531 0
 1686 0018 0123     		movs	r3, #1
 1687 001a 00E0     		b	.L67
 1688              	.L66:
 532:C:/Users/49542/Desktop/GD32F30x_Demo_Suites_V2.0.0/GD32F30x_Demo_Suites_V2.0.0/GD32F30x_Firmware_Library/GD32F30x_standard_peripheral/Source\gd32f30x_timer.c ****     }else{
 533:C:/Users/49542/Desktop/GD32F30x_Demo_Suites_V2.0.0/GD32F30x_Demo_Suites_V2.0.0/GD32F30x_Firmware_Library/GD32F30x_standard_peripheral/Source\gd32f30x_timer.c ****         return RESET;
 1689              		.loc 1 533 0
 1690 001c 0023     		movs	r3, #0
ARM GAS  C:\Users\49542\AppData\Local\Temp\ccx6VnNU.s 			page 40


 1691              	.L67:
 534:C:/Users/49542/Desktop/GD32F30x_Demo_Suites_V2.0.0/GD32F30x_Demo_Suites_V2.0.0/GD32F30x_Firmware_Library/GD32F30x_standard_peripheral/Source\gd32f30x_timer.c ****     }
 535:C:/Users/49542/Desktop/GD32F30x_Demo_Suites_V2.0.0/GD32F30x_Demo_Suites_V2.0.0/GD32F30x_Firmware_Library/GD32F30x_standard_peripheral/Source\gd32f30x_timer.c **** }
 1692              		.loc 1 535 0
 1693 001e 1846     		mov	r0, r3
 1694 0020 0C37     		adds	r7, r7, #12
 1695              	.LCFI146:
 1696              		.cfi_def_cfa_offset 4
 1697 0022 BD46     		mov	sp, r7
 1698              	.LCFI147:
 1699              		.cfi_def_cfa_register 13
 1700              		@ sp needed
 1701 0024 5DF8047B 		ldr	r7, [sp], #4
 1702              	.LCFI148:
 1703              		.cfi_restore 7
 1704              		.cfi_def_cfa_offset 0
 1705 0028 7047     		bx	lr
 1706              		.cfi_endproc
 1707              	.LFE140:
 1709              		.section	.text.timer_flag_clear,"ax",%progbits
 1710              		.align	1
 1711              		.global	timer_flag_clear
 1712              		.syntax unified
 1713              		.thumb
 1714              		.thumb_func
 1715              		.fpu fpv4-sp-d16
 1717              	timer_flag_clear:
 1718              	.LFB141:
 536:C:/Users/49542/Desktop/GD32F30x_Demo_Suites_V2.0.0/GD32F30x_Demo_Suites_V2.0.0/GD32F30x_Firmware_Library/GD32F30x_standard_peripheral/Source\gd32f30x_timer.c **** 
 537:C:/Users/49542/Desktop/GD32F30x_Demo_Suites_V2.0.0/GD32F30x_Demo_Suites_V2.0.0/GD32F30x_Firmware_Library/GD32F30x_standard_peripheral/Source\gd32f30x_timer.c **** /*!
 538:C:/Users/49542/Desktop/GD32F30x_Demo_Suites_V2.0.0/GD32F30x_Demo_Suites_V2.0.0/GD32F30x_Firmware_Library/GD32F30x_standard_peripheral/Source\gd32f30x_timer.c ****     \brief      clear TIMER flags
 539:C:/Users/49542/Desktop/GD32F30x_Demo_Suites_V2.0.0/GD32F30x_Demo_Suites_V2.0.0/GD32F30x_Firmware_Library/GD32F30x_standard_peripheral/Source\gd32f30x_timer.c ****     \param[in]  timer_periph: please refer to the following parameters
 540:C:/Users/49542/Desktop/GD32F30x_Demo_Suites_V2.0.0/GD32F30x_Demo_Suites_V2.0.0/GD32F30x_Firmware_Library/GD32F30x_standard_peripheral/Source\gd32f30x_timer.c ****     \param[in]  flag: the timer interrupt flags
 541:C:/Users/49542/Desktop/GD32F30x_Demo_Suites_V2.0.0/GD32F30x_Demo_Suites_V2.0.0/GD32F30x_Firmware_Library/GD32F30x_standard_peripheral/Source\gd32f30x_timer.c ****                 only one parameter can be selected which is shown as below:
 542:C:/Users/49542/Desktop/GD32F30x_Demo_Suites_V2.0.0/GD32F30x_Demo_Suites_V2.0.0/GD32F30x_Firmware_Library/GD32F30x_standard_peripheral/Source\gd32f30x_timer.c ****       \arg        TIMER_FLAG_UP: update flag,TIMERx(x=0..13)
 543:C:/Users/49542/Desktop/GD32F30x_Demo_Suites_V2.0.0/GD32F30x_Demo_Suites_V2.0.0/GD32F30x_Firmware_Library/GD32F30x_standard_peripheral/Source\gd32f30x_timer.c ****       \arg        TIMER_FLAG_CH0: channel 0 flag,TIMERx(x=0..4,7..13)
 544:C:/Users/49542/Desktop/GD32F30x_Demo_Suites_V2.0.0/GD32F30x_Demo_Suites_V2.0.0/GD32F30x_Firmware_Library/GD32F30x_standard_peripheral/Source\gd32f30x_timer.c ****       \arg        TIMER_FLAG_CH1: channel 1 flag,TIMERx(x=0..4,7,8,11)
 545:C:/Users/49542/Desktop/GD32F30x_Demo_Suites_V2.0.0/GD32F30x_Demo_Suites_V2.0.0/GD32F30x_Firmware_Library/GD32F30x_standard_peripheral/Source\gd32f30x_timer.c ****       \arg        TIMER_FLAG_CH2: channel 2 flag,TIMERx(x=0..4,7)
 546:C:/Users/49542/Desktop/GD32F30x_Demo_Suites_V2.0.0/GD32F30x_Demo_Suites_V2.0.0/GD32F30x_Firmware_Library/GD32F30x_standard_peripheral/Source\gd32f30x_timer.c ****       \arg        TIMER_FLAG_CH3: channel 3 flag,TIMERx(x=0..4,7)
 547:C:/Users/49542/Desktop/GD32F30x_Demo_Suites_V2.0.0/GD32F30x_Demo_Suites_V2.0.0/GD32F30x_Firmware_Library/GD32F30x_standard_peripheral/Source\gd32f30x_timer.c ****       \arg        TIMER_FLAG_CMT: channel control update flag,TIMERx(x=0,7) 
 548:C:/Users/49542/Desktop/GD32F30x_Demo_Suites_V2.0.0/GD32F30x_Demo_Suites_V2.0.0/GD32F30x_Firmware_Library/GD32F30x_standard_peripheral/Source\gd32f30x_timer.c ****       \arg        TIMER_FLAG_TRG: trigger flag,TIMERx(x=0,7,8,11) 
 549:C:/Users/49542/Desktop/GD32F30x_Demo_Suites_V2.0.0/GD32F30x_Demo_Suites_V2.0.0/GD32F30x_Firmware_Library/GD32F30x_standard_peripheral/Source\gd32f30x_timer.c ****       \arg        TIMER_FLAG_BRK: break flag,TIMERx(x=0,7)
 550:C:/Users/49542/Desktop/GD32F30x_Demo_Suites_V2.0.0/GD32F30x_Demo_Suites_V2.0.0/GD32F30x_Firmware_Library/GD32F30x_standard_peripheral/Source\gd32f30x_timer.c ****       \arg        TIMER_FLAG_CH0O: channel 0 overcapture flag,TIMERx(x=0..4,7..11)
 551:C:/Users/49542/Desktop/GD32F30x_Demo_Suites_V2.0.0/GD32F30x_Demo_Suites_V2.0.0/GD32F30x_Firmware_Library/GD32F30x_standard_peripheral/Source\gd32f30x_timer.c ****       \arg        TIMER_FLAG_CH1O: channel 1 overcapture flag,TIMERx(x=0..4,7,8,11)
 552:C:/Users/49542/Desktop/GD32F30x_Demo_Suites_V2.0.0/GD32F30x_Demo_Suites_V2.0.0/GD32F30x_Firmware_Library/GD32F30x_standard_peripheral/Source\gd32f30x_timer.c ****       \arg        TIMER_FLAG_CH2O: channel 2 overcapture flag,TIMERx(x=0..4,7)
 553:C:/Users/49542/Desktop/GD32F30x_Demo_Suites_V2.0.0/GD32F30x_Demo_Suites_V2.0.0/GD32F30x_Firmware_Library/GD32F30x_standard_peripheral/Source\gd32f30x_timer.c ****       \arg        TIMER_FLAG_CH3O: channel 3 overcapture flag,TIMERx(x=0..4,7)
 554:C:/Users/49542/Desktop/GD32F30x_Demo_Suites_V2.0.0/GD32F30x_Demo_Suites_V2.0.0/GD32F30x_Firmware_Library/GD32F30x_standard_peripheral/Source\gd32f30x_timer.c ****     \param[out] none
 555:C:/Users/49542/Desktop/GD32F30x_Demo_Suites_V2.0.0/GD32F30x_Demo_Suites_V2.0.0/GD32F30x_Firmware_Library/GD32F30x_standard_peripheral/Source\gd32f30x_timer.c ****     \retval     none
 556:C:/Users/49542/Desktop/GD32F30x_Demo_Suites_V2.0.0/GD32F30x_Demo_Suites_V2.0.0/GD32F30x_Firmware_Library/GD32F30x_standard_peripheral/Source\gd32f30x_timer.c **** */
 557:C:/Users/49542/Desktop/GD32F30x_Demo_Suites_V2.0.0/GD32F30x_Demo_Suites_V2.0.0/GD32F30x_Firmware_Library/GD32F30x_standard_peripheral/Source\gd32f30x_timer.c **** void timer_flag_clear(uint32_t timer_periph, uint32_t flag)
 558:C:/Users/49542/Desktop/GD32F30x_Demo_Suites_V2.0.0/GD32F30x_Demo_Suites_V2.0.0/GD32F30x_Firmware_Library/GD32F30x_standard_peripheral/Source\gd32f30x_timer.c **** {
 1719              		.loc 1 558 0
 1720              		.cfi_startproc
 1721              		@ args = 0, pretend = 0, frame = 8
 1722              		@ frame_needed = 1, uses_anonymous_args = 0
 1723              		@ link register save eliminated.
 1724 0000 80B4     		push	{r7}
ARM GAS  C:\Users\49542\AppData\Local\Temp\ccx6VnNU.s 			page 41


 1725              	.LCFI149:
 1726              		.cfi_def_cfa_offset 4
 1727              		.cfi_offset 7, -4
 1728 0002 83B0     		sub	sp, sp, #12
 1729              	.LCFI150:
 1730              		.cfi_def_cfa_offset 16
 1731 0004 00AF     		add	r7, sp, #0
 1732              	.LCFI151:
 1733              		.cfi_def_cfa_register 7
 1734 0006 7860     		str	r0, [r7, #4]
 1735 0008 3960     		str	r1, [r7]
 559:C:/Users/49542/Desktop/GD32F30x_Demo_Suites_V2.0.0/GD32F30x_Demo_Suites_V2.0.0/GD32F30x_Firmware_Library/GD32F30x_standard_peripheral/Source\gd32f30x_timer.c ****     TIMER_INTF(timer_periph) &= (~(uint32_t)flag);
 1736              		.loc 1 559 0
 1737 000a 7B68     		ldr	r3, [r7, #4]
 1738 000c 1033     		adds	r3, r3, #16
 1739 000e 1A68     		ldr	r2, [r3]
 1740 0010 3B68     		ldr	r3, [r7]
 1741 0012 DB43     		mvns	r3, r3
 1742 0014 7968     		ldr	r1, [r7, #4]
 1743 0016 1031     		adds	r1, r1, #16
 1744 0018 1340     		ands	r3, r3, r2
 1745 001a 0B60     		str	r3, [r1]
 560:C:/Users/49542/Desktop/GD32F30x_Demo_Suites_V2.0.0/GD32F30x_Demo_Suites_V2.0.0/GD32F30x_Firmware_Library/GD32F30x_standard_peripheral/Source\gd32f30x_timer.c **** }
 1746              		.loc 1 560 0
 1747 001c 00BF     		nop
 1748 001e 0C37     		adds	r7, r7, #12
 1749              	.LCFI152:
 1750              		.cfi_def_cfa_offset 4
 1751 0020 BD46     		mov	sp, r7
 1752              	.LCFI153:
 1753              		.cfi_def_cfa_register 13
 1754              		@ sp needed
 1755 0022 5DF8047B 		ldr	r7, [sp], #4
 1756              	.LCFI154:
 1757              		.cfi_restore 7
 1758              		.cfi_def_cfa_offset 0
 1759 0026 7047     		bx	lr
 1760              		.cfi_endproc
 1761              	.LFE141:
 1763              		.section	.text.timer_dma_enable,"ax",%progbits
 1764              		.align	1
 1765              		.global	timer_dma_enable
 1766              		.syntax unified
 1767              		.thumb
 1768              		.thumb_func
 1769              		.fpu fpv4-sp-d16
 1771              	timer_dma_enable:
 1772              	.LFB142:
 561:C:/Users/49542/Desktop/GD32F30x_Demo_Suites_V2.0.0/GD32F30x_Demo_Suites_V2.0.0/GD32F30x_Firmware_Library/GD32F30x_standard_peripheral/Source\gd32f30x_timer.c **** 
 562:C:/Users/49542/Desktop/GD32F30x_Demo_Suites_V2.0.0/GD32F30x_Demo_Suites_V2.0.0/GD32F30x_Firmware_Library/GD32F30x_standard_peripheral/Source\gd32f30x_timer.c **** /*!
 563:C:/Users/49542/Desktop/GD32F30x_Demo_Suites_V2.0.0/GD32F30x_Demo_Suites_V2.0.0/GD32F30x_Firmware_Library/GD32F30x_standard_peripheral/Source\gd32f30x_timer.c ****     \brief      enable the TIMER DMA
 564:C:/Users/49542/Desktop/GD32F30x_Demo_Suites_V2.0.0/GD32F30x_Demo_Suites_V2.0.0/GD32F30x_Firmware_Library/GD32F30x_standard_peripheral/Source\gd32f30x_timer.c ****     \param[in]  timer_periph: please refer to the following parameters
 565:C:/Users/49542/Desktop/GD32F30x_Demo_Suites_V2.0.0/GD32F30x_Demo_Suites_V2.0.0/GD32F30x_Firmware_Library/GD32F30x_standard_peripheral/Source\gd32f30x_timer.c ****     \param[in]  dma: specify which DMA to enable
 566:C:/Users/49542/Desktop/GD32F30x_Demo_Suites_V2.0.0/GD32F30x_Demo_Suites_V2.0.0/GD32F30x_Firmware_Library/GD32F30x_standard_peripheral/Source\gd32f30x_timer.c ****                 only one parameter can be selected which is shown as below:
 567:C:/Users/49542/Desktop/GD32F30x_Demo_Suites_V2.0.0/GD32F30x_Demo_Suites_V2.0.0/GD32F30x_Firmware_Library/GD32F30x_standard_peripheral/Source\gd32f30x_timer.c ****       \arg        TIMER_DMA_UPD:  update DMA enable,TIMERx(x=0..7)
 568:C:/Users/49542/Desktop/GD32F30x_Demo_Suites_V2.0.0/GD32F30x_Demo_Suites_V2.0.0/GD32F30x_Firmware_Library/GD32F30x_standard_peripheral/Source\gd32f30x_timer.c ****       \arg        TIMER_DMA_CH0D: channel 0 DMA enable,TIMERx(x=0..4,7)
 569:C:/Users/49542/Desktop/GD32F30x_Demo_Suites_V2.0.0/GD32F30x_Demo_Suites_V2.0.0/GD32F30x_Firmware_Library/GD32F30x_standard_peripheral/Source\gd32f30x_timer.c ****       \arg        TIMER_DMA_CH1D: channel 1 DMA enable,TIMERx(x=0..4,7)
ARM GAS  C:\Users\49542\AppData\Local\Temp\ccx6VnNU.s 			page 42


 570:C:/Users/49542/Desktop/GD32F30x_Demo_Suites_V2.0.0/GD32F30x_Demo_Suites_V2.0.0/GD32F30x_Firmware_Library/GD32F30x_standard_peripheral/Source\gd32f30x_timer.c ****       \arg        TIMER_DMA_CH2D: channel 2 DMA enable,TIMERx(x=0..4,7)
 571:C:/Users/49542/Desktop/GD32F30x_Demo_Suites_V2.0.0/GD32F30x_Demo_Suites_V2.0.0/GD32F30x_Firmware_Library/GD32F30x_standard_peripheral/Source\gd32f30x_timer.c ****       \arg        TIMER_DMA_CH3D: channel 3 DMA enable,TIMERx(x=0..4,7)
 572:C:/Users/49542/Desktop/GD32F30x_Demo_Suites_V2.0.0/GD32F30x_Demo_Suites_V2.0.0/GD32F30x_Firmware_Library/GD32F30x_standard_peripheral/Source\gd32f30x_timer.c ****       \arg        TIMER_DMA_CMTD: commutation DMA request enable,TIMERx(x=0,7)
 573:C:/Users/49542/Desktop/GD32F30x_Demo_Suites_V2.0.0/GD32F30x_Demo_Suites_V2.0.0/GD32F30x_Firmware_Library/GD32F30x_standard_peripheral/Source\gd32f30x_timer.c ****       \arg        TIMER_DMA_TRGD: trigger DMA enable,TIMERx(x=0..4,7)
 574:C:/Users/49542/Desktop/GD32F30x_Demo_Suites_V2.0.0/GD32F30x_Demo_Suites_V2.0.0/GD32F30x_Firmware_Library/GD32F30x_standard_peripheral/Source\gd32f30x_timer.c ****     \param[out] none
 575:C:/Users/49542/Desktop/GD32F30x_Demo_Suites_V2.0.0/GD32F30x_Demo_Suites_V2.0.0/GD32F30x_Firmware_Library/GD32F30x_standard_peripheral/Source\gd32f30x_timer.c ****     \retval     none
 576:C:/Users/49542/Desktop/GD32F30x_Demo_Suites_V2.0.0/GD32F30x_Demo_Suites_V2.0.0/GD32F30x_Firmware_Library/GD32F30x_standard_peripheral/Source\gd32f30x_timer.c **** */
 577:C:/Users/49542/Desktop/GD32F30x_Demo_Suites_V2.0.0/GD32F30x_Demo_Suites_V2.0.0/GD32F30x_Firmware_Library/GD32F30x_standard_peripheral/Source\gd32f30x_timer.c **** void timer_dma_enable(uint32_t timer_periph, uint16_t dma)
 578:C:/Users/49542/Desktop/GD32F30x_Demo_Suites_V2.0.0/GD32F30x_Demo_Suites_V2.0.0/GD32F30x_Firmware_Library/GD32F30x_standard_peripheral/Source\gd32f30x_timer.c **** {
 1773              		.loc 1 578 0
 1774              		.cfi_startproc
 1775              		@ args = 0, pretend = 0, frame = 8
 1776              		@ frame_needed = 1, uses_anonymous_args = 0
 1777              		@ link register save eliminated.
 1778 0000 80B4     		push	{r7}
 1779              	.LCFI155:
 1780              		.cfi_def_cfa_offset 4
 1781              		.cfi_offset 7, -4
 1782 0002 83B0     		sub	sp, sp, #12
 1783              	.LCFI156:
 1784              		.cfi_def_cfa_offset 16
 1785 0004 00AF     		add	r7, sp, #0
 1786              	.LCFI157:
 1787              		.cfi_def_cfa_register 7
 1788 0006 7860     		str	r0, [r7, #4]
 1789 0008 0B46     		mov	r3, r1
 1790 000a 7B80     		strh	r3, [r7, #2]	@ movhi
 579:C:/Users/49542/Desktop/GD32F30x_Demo_Suites_V2.0.0/GD32F30x_Demo_Suites_V2.0.0/GD32F30x_Firmware_Library/GD32F30x_standard_peripheral/Source\gd32f30x_timer.c ****     TIMER_DMAINTEN(timer_periph) |= (uint32_t) dma; 
 1791              		.loc 1 579 0
 1792 000c 7B68     		ldr	r3, [r7, #4]
 1793 000e 0C33     		adds	r3, r3, #12
 1794 0010 1A68     		ldr	r2, [r3]
 1795 0012 7B88     		ldrh	r3, [r7, #2]
 1796 0014 7968     		ldr	r1, [r7, #4]
 1797 0016 0C31     		adds	r1, r1, #12
 1798 0018 1343     		orrs	r3, r3, r2
 1799 001a 0B60     		str	r3, [r1]
 580:C:/Users/49542/Desktop/GD32F30x_Demo_Suites_V2.0.0/GD32F30x_Demo_Suites_V2.0.0/GD32F30x_Firmware_Library/GD32F30x_standard_peripheral/Source\gd32f30x_timer.c **** }
 1800              		.loc 1 580 0
 1801 001c 00BF     		nop
 1802 001e 0C37     		adds	r7, r7, #12
 1803              	.LCFI158:
 1804              		.cfi_def_cfa_offset 4
 1805 0020 BD46     		mov	sp, r7
 1806              	.LCFI159:
 1807              		.cfi_def_cfa_register 13
 1808              		@ sp needed
 1809 0022 5DF8047B 		ldr	r7, [sp], #4
 1810              	.LCFI160:
 1811              		.cfi_restore 7
 1812              		.cfi_def_cfa_offset 0
 1813 0026 7047     		bx	lr
 1814              		.cfi_endproc
 1815              	.LFE142:
 1817              		.section	.text.timer_dma_disable,"ax",%progbits
 1818              		.align	1
 1819              		.global	timer_dma_disable
ARM GAS  C:\Users\49542\AppData\Local\Temp\ccx6VnNU.s 			page 43


 1820              		.syntax unified
 1821              		.thumb
 1822              		.thumb_func
 1823              		.fpu fpv4-sp-d16
 1825              	timer_dma_disable:
 1826              	.LFB143:
 581:C:/Users/49542/Desktop/GD32F30x_Demo_Suites_V2.0.0/GD32F30x_Demo_Suites_V2.0.0/GD32F30x_Firmware_Library/GD32F30x_standard_peripheral/Source\gd32f30x_timer.c **** 
 582:C:/Users/49542/Desktop/GD32F30x_Demo_Suites_V2.0.0/GD32F30x_Demo_Suites_V2.0.0/GD32F30x_Firmware_Library/GD32F30x_standard_peripheral/Source\gd32f30x_timer.c **** /*!
 583:C:/Users/49542/Desktop/GD32F30x_Demo_Suites_V2.0.0/GD32F30x_Demo_Suites_V2.0.0/GD32F30x_Firmware_Library/GD32F30x_standard_peripheral/Source\gd32f30x_timer.c ****     \brief      disable the TIMER DMA
 584:C:/Users/49542/Desktop/GD32F30x_Demo_Suites_V2.0.0/GD32F30x_Demo_Suites_V2.0.0/GD32F30x_Firmware_Library/GD32F30x_standard_peripheral/Source\gd32f30x_timer.c ****     \param[in]  timer_periph: please refer to the following parameters
 585:C:/Users/49542/Desktop/GD32F30x_Demo_Suites_V2.0.0/GD32F30x_Demo_Suites_V2.0.0/GD32F30x_Firmware_Library/GD32F30x_standard_peripheral/Source\gd32f30x_timer.c ****     \param[in]  dma: specify which DMA to enable
 586:C:/Users/49542/Desktop/GD32F30x_Demo_Suites_V2.0.0/GD32F30x_Demo_Suites_V2.0.0/GD32F30x_Firmware_Library/GD32F30x_standard_peripheral/Source\gd32f30x_timer.c ****                 one or more parameters can be selected which are shown as below:
 587:C:/Users/49542/Desktop/GD32F30x_Demo_Suites_V2.0.0/GD32F30x_Demo_Suites_V2.0.0/GD32F30x_Firmware_Library/GD32F30x_standard_peripheral/Source\gd32f30x_timer.c ****       \arg        TIMER_DMA_UPD:  update DMA ,TIMERx(x=0..7)
 588:C:/Users/49542/Desktop/GD32F30x_Demo_Suites_V2.0.0/GD32F30x_Demo_Suites_V2.0.0/GD32F30x_Firmware_Library/GD32F30x_standard_peripheral/Source\gd32f30x_timer.c ****       \arg        TIMER_DMA_CH0D: channel 0 DMA request,TIMERx(x=0..4,7)
 589:C:/Users/49542/Desktop/GD32F30x_Demo_Suites_V2.0.0/GD32F30x_Demo_Suites_V2.0.0/GD32F30x_Firmware_Library/GD32F30x_standard_peripheral/Source\gd32f30x_timer.c ****       \arg        TIMER_DMA_CH1D: channel 1 DMA request,TIMERx(x=0..4,7)
 590:C:/Users/49542/Desktop/GD32F30x_Demo_Suites_V2.0.0/GD32F30x_Demo_Suites_V2.0.0/GD32F30x_Firmware_Library/GD32F30x_standard_peripheral/Source\gd32f30x_timer.c ****       \arg        TIMER_DMA_CH2D: channel 2 DMA request,TIMERx(x=0..4,7)
 591:C:/Users/49542/Desktop/GD32F30x_Demo_Suites_V2.0.0/GD32F30x_Demo_Suites_V2.0.0/GD32F30x_Firmware_Library/GD32F30x_standard_peripheral/Source\gd32f30x_timer.c ****       \arg        TIMER_DMA_CH3D: channel 3 DMA request,TIMERx(x=0..4,7)
 592:C:/Users/49542/Desktop/GD32F30x_Demo_Suites_V2.0.0/GD32F30x_Demo_Suites_V2.0.0/GD32F30x_Firmware_Library/GD32F30x_standard_peripheral/Source\gd32f30x_timer.c ****       \arg        TIMER_DMA_CMTD: commutation DMA request ,TIMERx(x=0,7)
 593:C:/Users/49542/Desktop/GD32F30x_Demo_Suites_V2.0.0/GD32F30x_Demo_Suites_V2.0.0/GD32F30x_Firmware_Library/GD32F30x_standard_peripheral/Source\gd32f30x_timer.c ****       \arg        TIMER_DMA_TRGD: trigger DMA request,TIMERx(x=0..4,7)
 594:C:/Users/49542/Desktop/GD32F30x_Demo_Suites_V2.0.0/GD32F30x_Demo_Suites_V2.0.0/GD32F30x_Firmware_Library/GD32F30x_standard_peripheral/Source\gd32f30x_timer.c ****     \param[out] none
 595:C:/Users/49542/Desktop/GD32F30x_Demo_Suites_V2.0.0/GD32F30x_Demo_Suites_V2.0.0/GD32F30x_Firmware_Library/GD32F30x_standard_peripheral/Source\gd32f30x_timer.c ****     \retval     none
 596:C:/Users/49542/Desktop/GD32F30x_Demo_Suites_V2.0.0/GD32F30x_Demo_Suites_V2.0.0/GD32F30x_Firmware_Library/GD32F30x_standard_peripheral/Source\gd32f30x_timer.c **** */
 597:C:/Users/49542/Desktop/GD32F30x_Demo_Suites_V2.0.0/GD32F30x_Demo_Suites_V2.0.0/GD32F30x_Firmware_Library/GD32F30x_standard_peripheral/Source\gd32f30x_timer.c **** void timer_dma_disable(uint32_t timer_periph, uint16_t dma)
 598:C:/Users/49542/Desktop/GD32F30x_Demo_Suites_V2.0.0/GD32F30x_Demo_Suites_V2.0.0/GD32F30x_Firmware_Library/GD32F30x_standard_peripheral/Source\gd32f30x_timer.c **** {
 1827              		.loc 1 598 0
 1828              		.cfi_startproc
 1829              		@ args = 0, pretend = 0, frame = 8
 1830              		@ frame_needed = 1, uses_anonymous_args = 0
 1831              		@ link register save eliminated.
 1832 0000 80B4     		push	{r7}
 1833              	.LCFI161:
 1834              		.cfi_def_cfa_offset 4
 1835              		.cfi_offset 7, -4
 1836 0002 83B0     		sub	sp, sp, #12
 1837              	.LCFI162:
 1838              		.cfi_def_cfa_offset 16
 1839 0004 00AF     		add	r7, sp, #0
 1840              	.LCFI163:
 1841              		.cfi_def_cfa_register 7
 1842 0006 7860     		str	r0, [r7, #4]
 1843 0008 0B46     		mov	r3, r1
 1844 000a 7B80     		strh	r3, [r7, #2]	@ movhi
 599:C:/Users/49542/Desktop/GD32F30x_Demo_Suites_V2.0.0/GD32F30x_Demo_Suites_V2.0.0/GD32F30x_Firmware_Library/GD32F30x_standard_peripheral/Source\gd32f30x_timer.c ****     TIMER_DMAINTEN(timer_periph) &= (~(uint32_t)(dma)); 
 1845              		.loc 1 599 0
 1846 000c 7B68     		ldr	r3, [r7, #4]
 1847 000e 0C33     		adds	r3, r3, #12
 1848 0010 1A68     		ldr	r2, [r3]
 1849 0012 7B88     		ldrh	r3, [r7, #2]
 1850 0014 DB43     		mvns	r3, r3
 1851 0016 7968     		ldr	r1, [r7, #4]
 1852 0018 0C31     		adds	r1, r1, #12
 1853 001a 1340     		ands	r3, r3, r2
 1854 001c 0B60     		str	r3, [r1]
 600:C:/Users/49542/Desktop/GD32F30x_Demo_Suites_V2.0.0/GD32F30x_Demo_Suites_V2.0.0/GD32F30x_Firmware_Library/GD32F30x_standard_peripheral/Source\gd32f30x_timer.c **** }
 1855              		.loc 1 600 0
 1856 001e 00BF     		nop
 1857 0020 0C37     		adds	r7, r7, #12
ARM GAS  C:\Users\49542\AppData\Local\Temp\ccx6VnNU.s 			page 44


 1858              	.LCFI164:
 1859              		.cfi_def_cfa_offset 4
 1860 0022 BD46     		mov	sp, r7
 1861              	.LCFI165:
 1862              		.cfi_def_cfa_register 13
 1863              		@ sp needed
 1864 0024 5DF8047B 		ldr	r7, [sp], #4
 1865              	.LCFI166:
 1866              		.cfi_restore 7
 1867              		.cfi_def_cfa_offset 0
 1868 0028 7047     		bx	lr
 1869              		.cfi_endproc
 1870              	.LFE143:
 1872              		.section	.text.timer_channel_dma_request_source_select,"ax",%progbits
 1873              		.align	1
 1874              		.global	timer_channel_dma_request_source_select
 1875              		.syntax unified
 1876              		.thumb
 1877              		.thumb_func
 1878              		.fpu fpv4-sp-d16
 1880              	timer_channel_dma_request_source_select:
 1881              	.LFB144:
 601:C:/Users/49542/Desktop/GD32F30x_Demo_Suites_V2.0.0/GD32F30x_Demo_Suites_V2.0.0/GD32F30x_Firmware_Library/GD32F30x_standard_peripheral/Source\gd32f30x_timer.c **** 
 602:C:/Users/49542/Desktop/GD32F30x_Demo_Suites_V2.0.0/GD32F30x_Demo_Suites_V2.0.0/GD32F30x_Firmware_Library/GD32F30x_standard_peripheral/Source\gd32f30x_timer.c **** /*!
 603:C:/Users/49542/Desktop/GD32F30x_Demo_Suites_V2.0.0/GD32F30x_Demo_Suites_V2.0.0/GD32F30x_Firmware_Library/GD32F30x_standard_peripheral/Source\gd32f30x_timer.c ****     \brief      channel DMA request source selection
 604:C:/Users/49542/Desktop/GD32F30x_Demo_Suites_V2.0.0/GD32F30x_Demo_Suites_V2.0.0/GD32F30x_Firmware_Library/GD32F30x_standard_peripheral/Source\gd32f30x_timer.c ****     \param[in]  timer_periph: TIMERx(x=0..4,7)
 605:C:/Users/49542/Desktop/GD32F30x_Demo_Suites_V2.0.0/GD32F30x_Demo_Suites_V2.0.0/GD32F30x_Firmware_Library/GD32F30x_standard_peripheral/Source\gd32f30x_timer.c ****     \param[in]  dma_request: channel DMA request source selection
 606:C:/Users/49542/Desktop/GD32F30x_Demo_Suites_V2.0.0/GD32F30x_Demo_Suites_V2.0.0/GD32F30x_Firmware_Library/GD32F30x_standard_peripheral/Source\gd32f30x_timer.c ****                 only one parameter can be selected which is shown as below:
 607:C:/Users/49542/Desktop/GD32F30x_Demo_Suites_V2.0.0/GD32F30x_Demo_Suites_V2.0.0/GD32F30x_Firmware_Library/GD32F30x_standard_peripheral/Source\gd32f30x_timer.c ****        \arg        TIMER_DMAREQUEST_CHANNELEVENT: DMA request of channel y is sent when channel y e
 608:C:/Users/49542/Desktop/GD32F30x_Demo_Suites_V2.0.0/GD32F30x_Demo_Suites_V2.0.0/GD32F30x_Firmware_Library/GD32F30x_standard_peripheral/Source\gd32f30x_timer.c ****        \arg        TIMER_DMAREQUEST_UPDATEEVENT: DMA request of channel y is sent when update event
 609:C:/Users/49542/Desktop/GD32F30x_Demo_Suites_V2.0.0/GD32F30x_Demo_Suites_V2.0.0/GD32F30x_Firmware_Library/GD32F30x_standard_peripheral/Source\gd32f30x_timer.c ****     \param[out] none
 610:C:/Users/49542/Desktop/GD32F30x_Demo_Suites_V2.0.0/GD32F30x_Demo_Suites_V2.0.0/GD32F30x_Firmware_Library/GD32F30x_standard_peripheral/Source\gd32f30x_timer.c ****     \retval     none
 611:C:/Users/49542/Desktop/GD32F30x_Demo_Suites_V2.0.0/GD32F30x_Demo_Suites_V2.0.0/GD32F30x_Firmware_Library/GD32F30x_standard_peripheral/Source\gd32f30x_timer.c **** */
 612:C:/Users/49542/Desktop/GD32F30x_Demo_Suites_V2.0.0/GD32F30x_Demo_Suites_V2.0.0/GD32F30x_Firmware_Library/GD32F30x_standard_peripheral/Source\gd32f30x_timer.c **** void timer_channel_dma_request_source_select(uint32_t timer_periph, uint8_t dma_request)
 613:C:/Users/49542/Desktop/GD32F30x_Demo_Suites_V2.0.0/GD32F30x_Demo_Suites_V2.0.0/GD32F30x_Firmware_Library/GD32F30x_standard_peripheral/Source\gd32f30x_timer.c **** {
 1882              		.loc 1 613 0
 1883              		.cfi_startproc
 1884              		@ args = 0, pretend = 0, frame = 8
 1885              		@ frame_needed = 1, uses_anonymous_args = 0
 1886              		@ link register save eliminated.
 1887 0000 80B4     		push	{r7}
 1888              	.LCFI167:
 1889              		.cfi_def_cfa_offset 4
 1890              		.cfi_offset 7, -4
 1891 0002 83B0     		sub	sp, sp, #12
 1892              	.LCFI168:
 1893              		.cfi_def_cfa_offset 16
 1894 0004 00AF     		add	r7, sp, #0
 1895              	.LCFI169:
 1896              		.cfi_def_cfa_register 7
 1897 0006 7860     		str	r0, [r7, #4]
 1898 0008 0B46     		mov	r3, r1
 1899 000a FB70     		strb	r3, [r7, #3]
 614:C:/Users/49542/Desktop/GD32F30x_Demo_Suites_V2.0.0/GD32F30x_Demo_Suites_V2.0.0/GD32F30x_Firmware_Library/GD32F30x_standard_peripheral/Source\gd32f30x_timer.c ****     if(TIMER_DMAREQUEST_UPDATEEVENT == dma_request){
 1900              		.loc 1 614 0
 1901 000c FB78     		ldrb	r3, [r7, #3]	@ zero_extendqisi2
 1902 000e 002B     		cmp	r3, #0
ARM GAS  C:\Users\49542\AppData\Local\Temp\ccx6VnNU.s 			page 45


 1903 0010 08D1     		bne	.L72
 615:C:/Users/49542/Desktop/GD32F30x_Demo_Suites_V2.0.0/GD32F30x_Demo_Suites_V2.0.0/GD32F30x_Firmware_Library/GD32F30x_standard_peripheral/Source\gd32f30x_timer.c ****         TIMER_CTL1(timer_periph) |= (uint32_t)TIMER_CTL1_DMAS;
 1904              		.loc 1 615 0
 1905 0012 7B68     		ldr	r3, [r7, #4]
 1906 0014 0433     		adds	r3, r3, #4
 1907 0016 1B68     		ldr	r3, [r3]
 1908 0018 7A68     		ldr	r2, [r7, #4]
 1909 001a 0432     		adds	r2, r2, #4
 1910 001c 43F00803 		orr	r3, r3, #8
 1911 0020 1360     		str	r3, [r2]
 616:C:/Users/49542/Desktop/GD32F30x_Demo_Suites_V2.0.0/GD32F30x_Demo_Suites_V2.0.0/GD32F30x_Firmware_Library/GD32F30x_standard_peripheral/Source\gd32f30x_timer.c ****     }else if(TIMER_DMAREQUEST_CHANNELEVENT == dma_request){
 617:C:/Users/49542/Desktop/GD32F30x_Demo_Suites_V2.0.0/GD32F30x_Demo_Suites_V2.0.0/GD32F30x_Firmware_Library/GD32F30x_standard_peripheral/Source\gd32f30x_timer.c ****         TIMER_CTL1(timer_periph) &= ~(uint32_t)TIMER_CTL1_DMAS;
 618:C:/Users/49542/Desktop/GD32F30x_Demo_Suites_V2.0.0/GD32F30x_Demo_Suites_V2.0.0/GD32F30x_Firmware_Library/GD32F30x_standard_peripheral/Source\gd32f30x_timer.c ****     }else{
 619:C:/Users/49542/Desktop/GD32F30x_Demo_Suites_V2.0.0/GD32F30x_Demo_Suites_V2.0.0/GD32F30x_Firmware_Library/GD32F30x_standard_peripheral/Source\gd32f30x_timer.c ****         /* illegal parameters */
 620:C:/Users/49542/Desktop/GD32F30x_Demo_Suites_V2.0.0/GD32F30x_Demo_Suites_V2.0.0/GD32F30x_Firmware_Library/GD32F30x_standard_peripheral/Source\gd32f30x_timer.c ****     }
 621:C:/Users/49542/Desktop/GD32F30x_Demo_Suites_V2.0.0/GD32F30x_Demo_Suites_V2.0.0/GD32F30x_Firmware_Library/GD32F30x_standard_peripheral/Source\gd32f30x_timer.c **** }
 1912              		.loc 1 621 0
 1913 0022 0AE0     		b	.L74
 1914              	.L72:
 616:C:/Users/49542/Desktop/GD32F30x_Demo_Suites_V2.0.0/GD32F30x_Demo_Suites_V2.0.0/GD32F30x_Firmware_Library/GD32F30x_standard_peripheral/Source\gd32f30x_timer.c ****     }else if(TIMER_DMAREQUEST_CHANNELEVENT == dma_request){
 1915              		.loc 1 616 0
 1916 0024 FB78     		ldrb	r3, [r7, #3]	@ zero_extendqisi2
 1917 0026 012B     		cmp	r3, #1
 1918 0028 07D1     		bne	.L74
 617:C:/Users/49542/Desktop/GD32F30x_Demo_Suites_V2.0.0/GD32F30x_Demo_Suites_V2.0.0/GD32F30x_Firmware_Library/GD32F30x_standard_peripheral/Source\gd32f30x_timer.c ****     }else{
 1919              		.loc 1 617 0
 1920 002a 7B68     		ldr	r3, [r7, #4]
 1921 002c 0433     		adds	r3, r3, #4
 1922 002e 1B68     		ldr	r3, [r3]
 1923 0030 7A68     		ldr	r2, [r7, #4]
 1924 0032 0432     		adds	r2, r2, #4
 1925 0034 23F00803 		bic	r3, r3, #8
 1926 0038 1360     		str	r3, [r2]
 1927              	.L74:
 1928              		.loc 1 621 0
 1929 003a 00BF     		nop
 1930 003c 0C37     		adds	r7, r7, #12
 1931              	.LCFI170:
 1932              		.cfi_def_cfa_offset 4
 1933 003e BD46     		mov	sp, r7
 1934              	.LCFI171:
 1935              		.cfi_def_cfa_register 13
 1936              		@ sp needed
 1937 0040 5DF8047B 		ldr	r7, [sp], #4
 1938              	.LCFI172:
 1939              		.cfi_restore 7
 1940              		.cfi_def_cfa_offset 0
 1941 0044 7047     		bx	lr
 1942              		.cfi_endproc
 1943              	.LFE144:
 1945              		.section	.text.timer_dma_transfer_config,"ax",%progbits
 1946              		.align	1
 1947              		.global	timer_dma_transfer_config
 1948              		.syntax unified
 1949              		.thumb
 1950              		.thumb_func
 1951              		.fpu fpv4-sp-d16
ARM GAS  C:\Users\49542\AppData\Local\Temp\ccx6VnNU.s 			page 46


 1953              	timer_dma_transfer_config:
 1954              	.LFB145:
 622:C:/Users/49542/Desktop/GD32F30x_Demo_Suites_V2.0.0/GD32F30x_Demo_Suites_V2.0.0/GD32F30x_Firmware_Library/GD32F30x_standard_peripheral/Source\gd32f30x_timer.c **** 
 623:C:/Users/49542/Desktop/GD32F30x_Demo_Suites_V2.0.0/GD32F30x_Demo_Suites_V2.0.0/GD32F30x_Firmware_Library/GD32F30x_standard_peripheral/Source\gd32f30x_timer.c **** /*!
 624:C:/Users/49542/Desktop/GD32F30x_Demo_Suites_V2.0.0/GD32F30x_Demo_Suites_V2.0.0/GD32F30x_Firmware_Library/GD32F30x_standard_peripheral/Source\gd32f30x_timer.c ****     \brief      configure the TIMER DMA transfer
 625:C:/Users/49542/Desktop/GD32F30x_Demo_Suites_V2.0.0/GD32F30x_Demo_Suites_V2.0.0/GD32F30x_Firmware_Library/GD32F30x_standard_peripheral/Source\gd32f30x_timer.c ****     \param[in]  timer_periph: please refer to the following parameters
 626:C:/Users/49542/Desktop/GD32F30x_Demo_Suites_V2.0.0/GD32F30x_Demo_Suites_V2.0.0/GD32F30x_Firmware_Library/GD32F30x_standard_peripheral/Source\gd32f30x_timer.c ****     \param[in]  dma_baseaddr:
 627:C:/Users/49542/Desktop/GD32F30x_Demo_Suites_V2.0.0/GD32F30x_Demo_Suites_V2.0.0/GD32F30x_Firmware_Library/GD32F30x_standard_peripheral/Source\gd32f30x_timer.c ****                 only one parameter can be selected which is shown as below:
 628:C:/Users/49542/Desktop/GD32F30x_Demo_Suites_V2.0.0/GD32F30x_Demo_Suites_V2.0.0/GD32F30x_Firmware_Library/GD32F30x_standard_peripheral/Source\gd32f30x_timer.c ****        \arg        TIMER_DMACFG_DMATA_CTL0: DMA transfer address is TIMER_CTL0,TIMERx(x=0..4,7)
 629:C:/Users/49542/Desktop/GD32F30x_Demo_Suites_V2.0.0/GD32F30x_Demo_Suites_V2.0.0/GD32F30x_Firmware_Library/GD32F30x_standard_peripheral/Source\gd32f30x_timer.c ****        \arg        TIMER_DMACFG_DMATA_CTL1: DMA transfer address is TIMER_CTL1,TIMERx(x=0..4,7)
 630:C:/Users/49542/Desktop/GD32F30x_Demo_Suites_V2.0.0/GD32F30x_Demo_Suites_V2.0.0/GD32F30x_Firmware_Library/GD32F30x_standard_peripheral/Source\gd32f30x_timer.c ****        \arg        TIMER_DMACFG_DMATA_SMCFG: DMA transfer address is TIMER_SMCFG,TIMERx(x=0..4,7)
 631:C:/Users/49542/Desktop/GD32F30x_Demo_Suites_V2.0.0/GD32F30x_Demo_Suites_V2.0.0/GD32F30x_Firmware_Library/GD32F30x_standard_peripheral/Source\gd32f30x_timer.c ****        \arg        TIMER_DMACFG_DMATA_DMAINTEN: DMA transfer address is TIMER_DMAINTEN,TIMERx(x=0..
 632:C:/Users/49542/Desktop/GD32F30x_Demo_Suites_V2.0.0/GD32F30x_Demo_Suites_V2.0.0/GD32F30x_Firmware_Library/GD32F30x_standard_peripheral/Source\gd32f30x_timer.c ****        \arg        TIMER_DMACFG_DMATA_INTF: DMA transfer address is TIMER_INTF,TIMERx(x=0..4,7)
 633:C:/Users/49542/Desktop/GD32F30x_Demo_Suites_V2.0.0/GD32F30x_Demo_Suites_V2.0.0/GD32F30x_Firmware_Library/GD32F30x_standard_peripheral/Source\gd32f30x_timer.c ****        \arg        TIMER_DMACFG_DMATA_SWEVG: DMA transfer address is TIMER_SWEVG,TIMERx(x=0..4,7)
 634:C:/Users/49542/Desktop/GD32F30x_Demo_Suites_V2.0.0/GD32F30x_Demo_Suites_V2.0.0/GD32F30x_Firmware_Library/GD32F30x_standard_peripheral/Source\gd32f30x_timer.c ****        \arg        TIMER_DMACFG_DMATA_CHCTL0: DMA transfer address is TIMER_CHCTL0,TIMERx(x=0..4,7)
 635:C:/Users/49542/Desktop/GD32F30x_Demo_Suites_V2.0.0/GD32F30x_Demo_Suites_V2.0.0/GD32F30x_Firmware_Library/GD32F30x_standard_peripheral/Source\gd32f30x_timer.c ****        \arg        TIMER_DMACFG_DMATA_CHCTL1: DMA transfer address is TIMER_CHCTL1,TIMERx(x=0..4,7)
 636:C:/Users/49542/Desktop/GD32F30x_Demo_Suites_V2.0.0/GD32F30x_Demo_Suites_V2.0.0/GD32F30x_Firmware_Library/GD32F30x_standard_peripheral/Source\gd32f30x_timer.c ****        \arg        TIMER_DMACFG_DMATA_CHCTL2: DMA transfer address is TIMER_CHCTL2,TIMERx(x=0..4,7)
 637:C:/Users/49542/Desktop/GD32F30x_Demo_Suites_V2.0.0/GD32F30x_Demo_Suites_V2.0.0/GD32F30x_Firmware_Library/GD32F30x_standard_peripheral/Source\gd32f30x_timer.c ****        \arg        TIMER_DMACFG_DMATA_CNT: DMA transfer address is TIMER_CNT,TIMERx(x=0..4,7)
 638:C:/Users/49542/Desktop/GD32F30x_Demo_Suites_V2.0.0/GD32F30x_Demo_Suites_V2.0.0/GD32F30x_Firmware_Library/GD32F30x_standard_peripheral/Source\gd32f30x_timer.c ****        \arg        TIMER_DMACFG_DMATA_PSC: DMA transfer address is TIMER_PSC,TIMERx(x=0..4,7)
 639:C:/Users/49542/Desktop/GD32F30x_Demo_Suites_V2.0.0/GD32F30x_Demo_Suites_V2.0.0/GD32F30x_Firmware_Library/GD32F30x_standard_peripheral/Source\gd32f30x_timer.c ****        \arg        TIMER_DMACFG_DMATA_CAR: DMA transfer address is TIMER_CAR,TIMERx(x=0..4,7)
 640:C:/Users/49542/Desktop/GD32F30x_Demo_Suites_V2.0.0/GD32F30x_Demo_Suites_V2.0.0/GD32F30x_Firmware_Library/GD32F30x_standard_peripheral/Source\gd32f30x_timer.c ****        \arg        TIMER_DMACFG_DMATA_CREP: DMA transfer address is TIMER_CREP,TIMERx(x=0,7)
 641:C:/Users/49542/Desktop/GD32F30x_Demo_Suites_V2.0.0/GD32F30x_Demo_Suites_V2.0.0/GD32F30x_Firmware_Library/GD32F30x_standard_peripheral/Source\gd32f30x_timer.c ****        \arg        TIMER_DMACFG_DMATA_CH0CV: DMA transfer address is TIMER_CH0CV,TIMERx(x=0..4,7)
 642:C:/Users/49542/Desktop/GD32F30x_Demo_Suites_V2.0.0/GD32F30x_Demo_Suites_V2.0.0/GD32F30x_Firmware_Library/GD32F30x_standard_peripheral/Source\gd32f30x_timer.c ****        \arg        TIMER_DMACFG_DMATA_CH1CV: DMA transfer address is TIMER_CH1CV,TIMERx(x=0..4,7)
 643:C:/Users/49542/Desktop/GD32F30x_Demo_Suites_V2.0.0/GD32F30x_Demo_Suites_V2.0.0/GD32F30x_Firmware_Library/GD32F30x_standard_peripheral/Source\gd32f30x_timer.c ****        \arg        TIMER_DMACFG_DMATA_CH2CV: DMA transfer address is TIMER_CH2CV,TIMERx(x=0..4,7)
 644:C:/Users/49542/Desktop/GD32F30x_Demo_Suites_V2.0.0/GD32F30x_Demo_Suites_V2.0.0/GD32F30x_Firmware_Library/GD32F30x_standard_peripheral/Source\gd32f30x_timer.c ****        \arg        TIMER_DMACFG_DMATA_CH3CV: DMA transfer address is TIMER_CH3CV,TIMERx(x=0..4,7)
 645:C:/Users/49542/Desktop/GD32F30x_Demo_Suites_V2.0.0/GD32F30x_Demo_Suites_V2.0.0/GD32F30x_Firmware_Library/GD32F30x_standard_peripheral/Source\gd32f30x_timer.c ****        \arg        TIMER_DMACFG_DMATA_CCHP: DMA transfer address is TIMER_CCHP,TIMERx(x=0,7)
 646:C:/Users/49542/Desktop/GD32F30x_Demo_Suites_V2.0.0/GD32F30x_Demo_Suites_V2.0.0/GD32F30x_Firmware_Library/GD32F30x_standard_peripheral/Source\gd32f30x_timer.c ****        \arg        TIMER_DMACFG_DMATA_DMACFG: DMA transfer address is TIMER_DMACFG,TIMERx(x=0..4,7)
 647:C:/Users/49542/Desktop/GD32F30x_Demo_Suites_V2.0.0/GD32F30x_Demo_Suites_V2.0.0/GD32F30x_Firmware_Library/GD32F30x_standard_peripheral/Source\gd32f30x_timer.c ****        \arg        TIMER_DMACFG_DMATA_DMATB: DMA transfer address is TIMER_DMATB,TIMERx(x=0..4,7)
 648:C:/Users/49542/Desktop/GD32F30x_Demo_Suites_V2.0.0/GD32F30x_Demo_Suites_V2.0.0/GD32F30x_Firmware_Library/GD32F30x_standard_peripheral/Source\gd32f30x_timer.c ****     \param[in]  dma_lenth:
 649:C:/Users/49542/Desktop/GD32F30x_Demo_Suites_V2.0.0/GD32F30x_Demo_Suites_V2.0.0/GD32F30x_Firmware_Library/GD32F30x_standard_peripheral/Source\gd32f30x_timer.c ****                 only one parameter can be selected which is shown as below:
 650:C:/Users/49542/Desktop/GD32F30x_Demo_Suites_V2.0.0/GD32F30x_Demo_Suites_V2.0.0/GD32F30x_Firmware_Library/GD32F30x_standard_peripheral/Source\gd32f30x_timer.c ****        \arg        TIMER_DMACFG_DMATC_xTRANSFER(x=1..18): DMA transfer x time
 651:C:/Users/49542/Desktop/GD32F30x_Demo_Suites_V2.0.0/GD32F30x_Demo_Suites_V2.0.0/GD32F30x_Firmware_Library/GD32F30x_standard_peripheral/Source\gd32f30x_timer.c ****     \param[out] none
 652:C:/Users/49542/Desktop/GD32F30x_Demo_Suites_V2.0.0/GD32F30x_Demo_Suites_V2.0.0/GD32F30x_Firmware_Library/GD32F30x_standard_peripheral/Source\gd32f30x_timer.c ****     \retval     none
 653:C:/Users/49542/Desktop/GD32F30x_Demo_Suites_V2.0.0/GD32F30x_Demo_Suites_V2.0.0/GD32F30x_Firmware_Library/GD32F30x_standard_peripheral/Source\gd32f30x_timer.c **** */
 654:C:/Users/49542/Desktop/GD32F30x_Demo_Suites_V2.0.0/GD32F30x_Demo_Suites_V2.0.0/GD32F30x_Firmware_Library/GD32F30x_standard_peripheral/Source\gd32f30x_timer.c **** void timer_dma_transfer_config(uint32_t timer_periph, uint32_t dma_baseaddr, uint32_t dma_lenth)
 655:C:/Users/49542/Desktop/GD32F30x_Demo_Suites_V2.0.0/GD32F30x_Demo_Suites_V2.0.0/GD32F30x_Firmware_Library/GD32F30x_standard_peripheral/Source\gd32f30x_timer.c **** {
 1955              		.loc 1 655 0
 1956              		.cfi_startproc
 1957              		@ args = 0, pretend = 0, frame = 16
 1958              		@ frame_needed = 1, uses_anonymous_args = 0
 1959              		@ link register save eliminated.
 1960 0000 80B4     		push	{r7}
 1961              	.LCFI173:
 1962              		.cfi_def_cfa_offset 4
 1963              		.cfi_offset 7, -4
 1964 0002 85B0     		sub	sp, sp, #20
 1965              	.LCFI174:
 1966              		.cfi_def_cfa_offset 24
 1967 0004 00AF     		add	r7, sp, #0
 1968              	.LCFI175:
 1969              		.cfi_def_cfa_register 7
 1970 0006 F860     		str	r0, [r7, #12]
 1971 0008 B960     		str	r1, [r7, #8]
 1972 000a 7A60     		str	r2, [r7, #4]
 656:C:/Users/49542/Desktop/GD32F30x_Demo_Suites_V2.0.0/GD32F30x_Demo_Suites_V2.0.0/GD32F30x_Firmware_Library/GD32F30x_standard_peripheral/Source\gd32f30x_timer.c ****     TIMER_DMACFG(timer_periph) &= (~(uint32_t)(TIMER_DMACFG_DMATA | TIMER_DMACFG_DMATC));
 1973              		.loc 1 656 0
 1974 000c FB68     		ldr	r3, [r7, #12]
ARM GAS  C:\Users\49542\AppData\Local\Temp\ccx6VnNU.s 			page 47


 1975 000e 4833     		adds	r3, r3, #72
 1976 0010 1B68     		ldr	r3, [r3]
 1977 0012 FA68     		ldr	r2, [r7, #12]
 1978 0014 4832     		adds	r2, r2, #72
 1979 0016 23F4F853 		bic	r3, r3, #7936
 1980 001a 23F01F03 		bic	r3, r3, #31
 1981 001e 1360     		str	r3, [r2]
 657:C:/Users/49542/Desktop/GD32F30x_Demo_Suites_V2.0.0/GD32F30x_Demo_Suites_V2.0.0/GD32F30x_Firmware_Library/GD32F30x_standard_peripheral/Source\gd32f30x_timer.c ****     TIMER_DMACFG(timer_periph) |= (uint32_t)(dma_baseaddr | dma_lenth);
 1982              		.loc 1 657 0
 1983 0020 FB68     		ldr	r3, [r7, #12]
 1984 0022 4833     		adds	r3, r3, #72
 1985 0024 1A68     		ldr	r2, [r3]
 1986 0026 B968     		ldr	r1, [r7, #8]
 1987 0028 7B68     		ldr	r3, [r7, #4]
 1988 002a 0B43     		orrs	r3, r3, r1
 1989 002c F968     		ldr	r1, [r7, #12]
 1990 002e 4831     		adds	r1, r1, #72
 1991 0030 1343     		orrs	r3, r3, r2
 1992 0032 0B60     		str	r3, [r1]
 658:C:/Users/49542/Desktop/GD32F30x_Demo_Suites_V2.0.0/GD32F30x_Demo_Suites_V2.0.0/GD32F30x_Firmware_Library/GD32F30x_standard_peripheral/Source\gd32f30x_timer.c **** }
 1993              		.loc 1 658 0
 1994 0034 00BF     		nop
 1995 0036 1437     		adds	r7, r7, #20
 1996              	.LCFI176:
 1997              		.cfi_def_cfa_offset 4
 1998 0038 BD46     		mov	sp, r7
 1999              	.LCFI177:
 2000              		.cfi_def_cfa_register 13
 2001              		@ sp needed
 2002 003a 5DF8047B 		ldr	r7, [sp], #4
 2003              	.LCFI178:
 2004              		.cfi_restore 7
 2005              		.cfi_def_cfa_offset 0
 2006 003e 7047     		bx	lr
 2007              		.cfi_endproc
 2008              	.LFE145:
 2010              		.section	.text.timer_event_software_generate,"ax",%progbits
 2011              		.align	1
 2012              		.global	timer_event_software_generate
 2013              		.syntax unified
 2014              		.thumb
 2015              		.thumb_func
 2016              		.fpu fpv4-sp-d16
 2018              	timer_event_software_generate:
 2019              	.LFB146:
 659:C:/Users/49542/Desktop/GD32F30x_Demo_Suites_V2.0.0/GD32F30x_Demo_Suites_V2.0.0/GD32F30x_Firmware_Library/GD32F30x_standard_peripheral/Source\gd32f30x_timer.c **** 
 660:C:/Users/49542/Desktop/GD32F30x_Demo_Suites_V2.0.0/GD32F30x_Demo_Suites_V2.0.0/GD32F30x_Firmware_Library/GD32F30x_standard_peripheral/Source\gd32f30x_timer.c **** /*!
 661:C:/Users/49542/Desktop/GD32F30x_Demo_Suites_V2.0.0/GD32F30x_Demo_Suites_V2.0.0/GD32F30x_Firmware_Library/GD32F30x_standard_peripheral/Source\gd32f30x_timer.c ****     \brief      software generate events 
 662:C:/Users/49542/Desktop/GD32F30x_Demo_Suites_V2.0.0/GD32F30x_Demo_Suites_V2.0.0/GD32F30x_Firmware_Library/GD32F30x_standard_peripheral/Source\gd32f30x_timer.c ****     \param[in]  timer_periph: please refer to the following parameters
 663:C:/Users/49542/Desktop/GD32F30x_Demo_Suites_V2.0.0/GD32F30x_Demo_Suites_V2.0.0/GD32F30x_Firmware_Library/GD32F30x_standard_peripheral/Source\gd32f30x_timer.c ****     \param[in]  event: the timer software event generation sources
 664:C:/Users/49542/Desktop/GD32F30x_Demo_Suites_V2.0.0/GD32F30x_Demo_Suites_V2.0.0/GD32F30x_Firmware_Library/GD32F30x_standard_peripheral/Source\gd32f30x_timer.c ****                 one or more parameters can be selected which are shown as below:
 665:C:/Users/49542/Desktop/GD32F30x_Demo_Suites_V2.0.0/GD32F30x_Demo_Suites_V2.0.0/GD32F30x_Firmware_Library/GD32F30x_standard_peripheral/Source\gd32f30x_timer.c ****       \arg        TIMER_EVENT_SRC_UPG: update event,TIMERx(x=0..13)
 666:C:/Users/49542/Desktop/GD32F30x_Demo_Suites_V2.0.0/GD32F30x_Demo_Suites_V2.0.0/GD32F30x_Firmware_Library/GD32F30x_standard_peripheral/Source\gd32f30x_timer.c ****       \arg        TIMER_EVENT_SRC_CH0G: channel 0 capture or compare event generation,TIMERx(x=0..4
 667:C:/Users/49542/Desktop/GD32F30x_Demo_Suites_V2.0.0/GD32F30x_Demo_Suites_V2.0.0/GD32F30x_Firmware_Library/GD32F30x_standard_peripheral/Source\gd32f30x_timer.c ****       \arg        TIMER_EVENT_SRC_CH1G: channel 1 capture or compare event generation,TIMERx(x=0..4
 668:C:/Users/49542/Desktop/GD32F30x_Demo_Suites_V2.0.0/GD32F30x_Demo_Suites_V2.0.0/GD32F30x_Firmware_Library/GD32F30x_standard_peripheral/Source\gd32f30x_timer.c ****       \arg        TIMER_EVENT_SRC_CH2G: channel 2 capture or compare event generation,TIMERx(x=0..4
 669:C:/Users/49542/Desktop/GD32F30x_Demo_Suites_V2.0.0/GD32F30x_Demo_Suites_V2.0.0/GD32F30x_Firmware_Library/GD32F30x_standard_peripheral/Source\gd32f30x_timer.c ****       \arg        TIMER_EVENT_SRC_CH3G: channel 3 capture or compare event generation,TIMERx(x=0..4
 670:C:/Users/49542/Desktop/GD32F30x_Demo_Suites_V2.0.0/GD32F30x_Demo_Suites_V2.0.0/GD32F30x_Firmware_Library/GD32F30x_standard_peripheral/Source\gd32f30x_timer.c ****       \arg        TIMER_EVENT_SRC_CMTG: channel commutation event generation,TIMERx(x=0,7) 
ARM GAS  C:\Users\49542\AppData\Local\Temp\ccx6VnNU.s 			page 48


 671:C:/Users/49542/Desktop/GD32F30x_Demo_Suites_V2.0.0/GD32F30x_Demo_Suites_V2.0.0/GD32F30x_Firmware_Library/GD32F30x_standard_peripheral/Source\gd32f30x_timer.c ****       \arg        TIMER_EVENT_SRC_TRGG: trigger event generation,TIMERx(x=0..4,7,8,11)
 672:C:/Users/49542/Desktop/GD32F30x_Demo_Suites_V2.0.0/GD32F30x_Demo_Suites_V2.0.0/GD32F30x_Firmware_Library/GD32F30x_standard_peripheral/Source\gd32f30x_timer.c ****       \arg        TIMER_EVENT_SRC_BRKG:  break event generation,TIMERx(x=0,7)
 673:C:/Users/49542/Desktop/GD32F30x_Demo_Suites_V2.0.0/GD32F30x_Demo_Suites_V2.0.0/GD32F30x_Firmware_Library/GD32F30x_standard_peripheral/Source\gd32f30x_timer.c ****     \param[out] none
 674:C:/Users/49542/Desktop/GD32F30x_Demo_Suites_V2.0.0/GD32F30x_Demo_Suites_V2.0.0/GD32F30x_Firmware_Library/GD32F30x_standard_peripheral/Source\gd32f30x_timer.c ****     \retval     none
 675:C:/Users/49542/Desktop/GD32F30x_Demo_Suites_V2.0.0/GD32F30x_Demo_Suites_V2.0.0/GD32F30x_Firmware_Library/GD32F30x_standard_peripheral/Source\gd32f30x_timer.c **** */
 676:C:/Users/49542/Desktop/GD32F30x_Demo_Suites_V2.0.0/GD32F30x_Demo_Suites_V2.0.0/GD32F30x_Firmware_Library/GD32F30x_standard_peripheral/Source\gd32f30x_timer.c **** void timer_event_software_generate(uint32_t timer_periph, uint16_t event)
 677:C:/Users/49542/Desktop/GD32F30x_Demo_Suites_V2.0.0/GD32F30x_Demo_Suites_V2.0.0/GD32F30x_Firmware_Library/GD32F30x_standard_peripheral/Source\gd32f30x_timer.c **** {
 2020              		.loc 1 677 0
 2021              		.cfi_startproc
 2022              		@ args = 0, pretend = 0, frame = 8
 2023              		@ frame_needed = 1, uses_anonymous_args = 0
 2024              		@ link register save eliminated.
 2025 0000 80B4     		push	{r7}
 2026              	.LCFI179:
 2027              		.cfi_def_cfa_offset 4
 2028              		.cfi_offset 7, -4
 2029 0002 83B0     		sub	sp, sp, #12
 2030              	.LCFI180:
 2031              		.cfi_def_cfa_offset 16
 2032 0004 00AF     		add	r7, sp, #0
 2033              	.LCFI181:
 2034              		.cfi_def_cfa_register 7
 2035 0006 7860     		str	r0, [r7, #4]
 2036 0008 0B46     		mov	r3, r1
 2037 000a 7B80     		strh	r3, [r7, #2]	@ movhi
 678:C:/Users/49542/Desktop/GD32F30x_Demo_Suites_V2.0.0/GD32F30x_Demo_Suites_V2.0.0/GD32F30x_Firmware_Library/GD32F30x_standard_peripheral/Source\gd32f30x_timer.c ****     TIMER_SWEVG(timer_periph) |= (uint32_t)event;
 2038              		.loc 1 678 0
 2039 000c 7B68     		ldr	r3, [r7, #4]
 2040 000e 1433     		adds	r3, r3, #20
 2041 0010 1A68     		ldr	r2, [r3]
 2042 0012 7B88     		ldrh	r3, [r7, #2]
 2043 0014 7968     		ldr	r1, [r7, #4]
 2044 0016 1431     		adds	r1, r1, #20
 2045 0018 1343     		orrs	r3, r3, r2
 2046 001a 0B60     		str	r3, [r1]
 679:C:/Users/49542/Desktop/GD32F30x_Demo_Suites_V2.0.0/GD32F30x_Demo_Suites_V2.0.0/GD32F30x_Firmware_Library/GD32F30x_standard_peripheral/Source\gd32f30x_timer.c **** }
 2047              		.loc 1 679 0
 2048 001c 00BF     		nop
 2049 001e 0C37     		adds	r7, r7, #12
 2050              	.LCFI182:
 2051              		.cfi_def_cfa_offset 4
 2052 0020 BD46     		mov	sp, r7
 2053              	.LCFI183:
 2054              		.cfi_def_cfa_register 13
 2055              		@ sp needed
 2056 0022 5DF8047B 		ldr	r7, [sp], #4
 2057              	.LCFI184:
 2058              		.cfi_restore 7
 2059              		.cfi_def_cfa_offset 0
 2060 0026 7047     		bx	lr
 2061              		.cfi_endproc
 2062              	.LFE146:
 2064              		.section	.text.timer_break_struct_para_init,"ax",%progbits
 2065              		.align	1
 2066              		.global	timer_break_struct_para_init
 2067              		.syntax unified
 2068              		.thumb
ARM GAS  C:\Users\49542\AppData\Local\Temp\ccx6VnNU.s 			page 49


 2069              		.thumb_func
 2070              		.fpu fpv4-sp-d16
 2072              	timer_break_struct_para_init:
 2073              	.LFB147:
 680:C:/Users/49542/Desktop/GD32F30x_Demo_Suites_V2.0.0/GD32F30x_Demo_Suites_V2.0.0/GD32F30x_Firmware_Library/GD32F30x_standard_peripheral/Source\gd32f30x_timer.c **** 
 681:C:/Users/49542/Desktop/GD32F30x_Demo_Suites_V2.0.0/GD32F30x_Demo_Suites_V2.0.0/GD32F30x_Firmware_Library/GD32F30x_standard_peripheral/Source\gd32f30x_timer.c **** /*!
 682:C:/Users/49542/Desktop/GD32F30x_Demo_Suites_V2.0.0/GD32F30x_Demo_Suites_V2.0.0/GD32F30x_Firmware_Library/GD32F30x_standard_peripheral/Source\gd32f30x_timer.c ****     \brief      initialize TIMER break parameter struct with a default value
 683:C:/Users/49542/Desktop/GD32F30x_Demo_Suites_V2.0.0/GD32F30x_Demo_Suites_V2.0.0/GD32F30x_Firmware_Library/GD32F30x_standard_peripheral/Source\gd32f30x_timer.c ****     \param[in]  breakpara: TIMER break parameter struct
 684:C:/Users/49542/Desktop/GD32F30x_Demo_Suites_V2.0.0/GD32F30x_Demo_Suites_V2.0.0/GD32F30x_Firmware_Library/GD32F30x_standard_peripheral/Source\gd32f30x_timer.c ****     \param[out] none
 685:C:/Users/49542/Desktop/GD32F30x_Demo_Suites_V2.0.0/GD32F30x_Demo_Suites_V2.0.0/GD32F30x_Firmware_Library/GD32F30x_standard_peripheral/Source\gd32f30x_timer.c ****     \retval     none
 686:C:/Users/49542/Desktop/GD32F30x_Demo_Suites_V2.0.0/GD32F30x_Demo_Suites_V2.0.0/GD32F30x_Firmware_Library/GD32F30x_standard_peripheral/Source\gd32f30x_timer.c **** */
 687:C:/Users/49542/Desktop/GD32F30x_Demo_Suites_V2.0.0/GD32F30x_Demo_Suites_V2.0.0/GD32F30x_Firmware_Library/GD32F30x_standard_peripheral/Source\gd32f30x_timer.c **** void timer_break_struct_para_init(timer_break_parameter_struct* breakpara)
 688:C:/Users/49542/Desktop/GD32F30x_Demo_Suites_V2.0.0/GD32F30x_Demo_Suites_V2.0.0/GD32F30x_Firmware_Library/GD32F30x_standard_peripheral/Source\gd32f30x_timer.c **** {
 2074              		.loc 1 688 0
 2075              		.cfi_startproc
 2076              		@ args = 0, pretend = 0, frame = 8
 2077              		@ frame_needed = 1, uses_anonymous_args = 0
 2078              		@ link register save eliminated.
 2079 0000 80B4     		push	{r7}
 2080              	.LCFI185:
 2081              		.cfi_def_cfa_offset 4
 2082              		.cfi_offset 7, -4
 2083 0002 83B0     		sub	sp, sp, #12
 2084              	.LCFI186:
 2085              		.cfi_def_cfa_offset 16
 2086 0004 00AF     		add	r7, sp, #0
 2087              	.LCFI187:
 2088              		.cfi_def_cfa_register 7
 2089 0006 7860     		str	r0, [r7, #4]
 689:C:/Users/49542/Desktop/GD32F30x_Demo_Suites_V2.0.0/GD32F30x_Demo_Suites_V2.0.0/GD32F30x_Firmware_Library/GD32F30x_standard_peripheral/Source\gd32f30x_timer.c ****     /* initialize the break parameter struct member with the default value */
 690:C:/Users/49542/Desktop/GD32F30x_Demo_Suites_V2.0.0/GD32F30x_Demo_Suites_V2.0.0/GD32F30x_Firmware_Library/GD32F30x_standard_peripheral/Source\gd32f30x_timer.c ****     breakpara->runoffstate     = TIMER_ROS_STATE_DISABLE;
 2090              		.loc 1 690 0
 2091 0008 7B68     		ldr	r3, [r7, #4]
 2092 000a 0022     		movs	r2, #0
 2093 000c 1A80     		strh	r2, [r3]	@ movhi
 691:C:/Users/49542/Desktop/GD32F30x_Demo_Suites_V2.0.0/GD32F30x_Demo_Suites_V2.0.0/GD32F30x_Firmware_Library/GD32F30x_standard_peripheral/Source\gd32f30x_timer.c ****     breakpara->ideloffstate    = TIMER_IOS_STATE_DISABLE;
 2094              		.loc 1 691 0
 2095 000e 7B68     		ldr	r3, [r7, #4]
 2096 0010 0022     		movs	r2, #0
 2097 0012 5A80     		strh	r2, [r3, #2]	@ movhi
 692:C:/Users/49542/Desktop/GD32F30x_Demo_Suites_V2.0.0/GD32F30x_Demo_Suites_V2.0.0/GD32F30x_Firmware_Library/GD32F30x_standard_peripheral/Source\gd32f30x_timer.c ****     breakpara->deadtime        = 0U;
 2098              		.loc 1 692 0
 2099 0014 7B68     		ldr	r3, [r7, #4]
 2100 0016 0022     		movs	r2, #0
 2101 0018 9A80     		strh	r2, [r3, #4]	@ movhi
 693:C:/Users/49542/Desktop/GD32F30x_Demo_Suites_V2.0.0/GD32F30x_Demo_Suites_V2.0.0/GD32F30x_Firmware_Library/GD32F30x_standard_peripheral/Source\gd32f30x_timer.c ****     breakpara->breakpolarity   = TIMER_BREAK_POLARITY_LOW;
 2102              		.loc 1 693 0
 2103 001a 7B68     		ldr	r3, [r7, #4]
 2104 001c 0022     		movs	r2, #0
 2105 001e DA80     		strh	r2, [r3, #6]	@ movhi
 694:C:/Users/49542/Desktop/GD32F30x_Demo_Suites_V2.0.0/GD32F30x_Demo_Suites_V2.0.0/GD32F30x_Firmware_Library/GD32F30x_standard_peripheral/Source\gd32f30x_timer.c ****     breakpara->outputautostate = TIMER_OUTAUTO_DISABLE;
 2106              		.loc 1 694 0
 2107 0020 7B68     		ldr	r3, [r7, #4]
 2108 0022 0022     		movs	r2, #0
 2109 0024 1A81     		strh	r2, [r3, #8]	@ movhi
 695:C:/Users/49542/Desktop/GD32F30x_Demo_Suites_V2.0.0/GD32F30x_Demo_Suites_V2.0.0/GD32F30x_Firmware_Library/GD32F30x_standard_peripheral/Source\gd32f30x_timer.c ****     breakpara->protectmode     = TIMER_CCHP_PROT_OFF;
 2110              		.loc 1 695 0
ARM GAS  C:\Users\49542\AppData\Local\Temp\ccx6VnNU.s 			page 50


 2111 0026 7B68     		ldr	r3, [r7, #4]
 2112 0028 0022     		movs	r2, #0
 2113 002a 5A81     		strh	r2, [r3, #10]	@ movhi
 696:C:/Users/49542/Desktop/GD32F30x_Demo_Suites_V2.0.0/GD32F30x_Demo_Suites_V2.0.0/GD32F30x_Firmware_Library/GD32F30x_standard_peripheral/Source\gd32f30x_timer.c ****     breakpara->breakstate      = TIMER_BREAK_DISABLE;
 2114              		.loc 1 696 0
 2115 002c 7B68     		ldr	r3, [r7, #4]
 2116 002e 0022     		movs	r2, #0
 2117 0030 9A81     		strh	r2, [r3, #12]	@ movhi
 697:C:/Users/49542/Desktop/GD32F30x_Demo_Suites_V2.0.0/GD32F30x_Demo_Suites_V2.0.0/GD32F30x_Firmware_Library/GD32F30x_standard_peripheral/Source\gd32f30x_timer.c **** }
 2118              		.loc 1 697 0
 2119 0032 00BF     		nop
 2120 0034 0C37     		adds	r7, r7, #12
 2121              	.LCFI188:
 2122              		.cfi_def_cfa_offset 4
 2123 0036 BD46     		mov	sp, r7
 2124              	.LCFI189:
 2125              		.cfi_def_cfa_register 13
 2126              		@ sp needed
 2127 0038 5DF8047B 		ldr	r7, [sp], #4
 2128              	.LCFI190:
 2129              		.cfi_restore 7
 2130              		.cfi_def_cfa_offset 0
 2131 003c 7047     		bx	lr
 2132              		.cfi_endproc
 2133              	.LFE147:
 2135              		.section	.text.timer_break_config,"ax",%progbits
 2136              		.align	1
 2137              		.global	timer_break_config
 2138              		.syntax unified
 2139              		.thumb
 2140              		.thumb_func
 2141              		.fpu fpv4-sp-d16
 2143              	timer_break_config:
 2144              	.LFB148:
 698:C:/Users/49542/Desktop/GD32F30x_Demo_Suites_V2.0.0/GD32F30x_Demo_Suites_V2.0.0/GD32F30x_Firmware_Library/GD32F30x_standard_peripheral/Source\gd32f30x_timer.c **** 
 699:C:/Users/49542/Desktop/GD32F30x_Demo_Suites_V2.0.0/GD32F30x_Demo_Suites_V2.0.0/GD32F30x_Firmware_Library/GD32F30x_standard_peripheral/Source\gd32f30x_timer.c **** /*!
 700:C:/Users/49542/Desktop/GD32F30x_Demo_Suites_V2.0.0/GD32F30x_Demo_Suites_V2.0.0/GD32F30x_Firmware_Library/GD32F30x_standard_peripheral/Source\gd32f30x_timer.c ****     \brief      configure TIMER break function 
 701:C:/Users/49542/Desktop/GD32F30x_Demo_Suites_V2.0.0/GD32F30x_Demo_Suites_V2.0.0/GD32F30x_Firmware_Library/GD32F30x_standard_peripheral/Source\gd32f30x_timer.c ****     \param[in]  timer_periph: TIMERx(x=0,7)
 702:C:/Users/49542/Desktop/GD32F30x_Demo_Suites_V2.0.0/GD32F30x_Demo_Suites_V2.0.0/GD32F30x_Firmware_Library/GD32F30x_standard_peripheral/Source\gd32f30x_timer.c ****     \param[in]  breakpara: TIMER break parameter struct
 703:C:/Users/49542/Desktop/GD32F30x_Demo_Suites_V2.0.0/GD32F30x_Demo_Suites_V2.0.0/GD32F30x_Firmware_Library/GD32F30x_standard_peripheral/Source\gd32f30x_timer.c ****                 runoffstate: TIMER_ROS_STATE_ENABLE,TIMER_ROS_STATE_DISABLE
 704:C:/Users/49542/Desktop/GD32F30x_Demo_Suites_V2.0.0/GD32F30x_Demo_Suites_V2.0.0/GD32F30x_Firmware_Library/GD32F30x_standard_peripheral/Source\gd32f30x_timer.c ****                 ideloffstate: TIMER_IOS_STATE_ENABLE,TIMER_IOS_STATE_DISABLE
 705:C:/Users/49542/Desktop/GD32F30x_Demo_Suites_V2.0.0/GD32F30x_Demo_Suites_V2.0.0/GD32F30x_Firmware_Library/GD32F30x_standard_peripheral/Source\gd32f30x_timer.c ****                 deadtime: 0~255
 706:C:/Users/49542/Desktop/GD32F30x_Demo_Suites_V2.0.0/GD32F30x_Demo_Suites_V2.0.0/GD32F30x_Firmware_Library/GD32F30x_standard_peripheral/Source\gd32f30x_timer.c ****                 breakpolarity: TIMER_BREAK_POLARITY_LOW,TIMER_BREAK_POLARITY_HIGH
 707:C:/Users/49542/Desktop/GD32F30x_Demo_Suites_V2.0.0/GD32F30x_Demo_Suites_V2.0.0/GD32F30x_Firmware_Library/GD32F30x_standard_peripheral/Source\gd32f30x_timer.c ****                 outputautostate: TIMER_OUTAUTO_ENABLE,TIMER_OUTAUTO_DISABLE
 708:C:/Users/49542/Desktop/GD32F30x_Demo_Suites_V2.0.0/GD32F30x_Demo_Suites_V2.0.0/GD32F30x_Firmware_Library/GD32F30x_standard_peripheral/Source\gd32f30x_timer.c ****                 protectmode: TIMER_CCHP_PROT_OFF,TIMER_CCHP_PROT_0,TIMER_CCHP_PROT_1,TIMER_CCHP_PRO
 709:C:/Users/49542/Desktop/GD32F30x_Demo_Suites_V2.0.0/GD32F30x_Demo_Suites_V2.0.0/GD32F30x_Firmware_Library/GD32F30x_standard_peripheral/Source\gd32f30x_timer.c ****                 breakstate: TIMER_BREAK_ENABLE,TIMER_BREAK_DISABLE
 710:C:/Users/49542/Desktop/GD32F30x_Demo_Suites_V2.0.0/GD32F30x_Demo_Suites_V2.0.0/GD32F30x_Firmware_Library/GD32F30x_standard_peripheral/Source\gd32f30x_timer.c ****     \param[out] none
 711:C:/Users/49542/Desktop/GD32F30x_Demo_Suites_V2.0.0/GD32F30x_Demo_Suites_V2.0.0/GD32F30x_Firmware_Library/GD32F30x_standard_peripheral/Source\gd32f30x_timer.c ****     \retval     none
 712:C:/Users/49542/Desktop/GD32F30x_Demo_Suites_V2.0.0/GD32F30x_Demo_Suites_V2.0.0/GD32F30x_Firmware_Library/GD32F30x_standard_peripheral/Source\gd32f30x_timer.c **** */
 713:C:/Users/49542/Desktop/GD32F30x_Demo_Suites_V2.0.0/GD32F30x_Demo_Suites_V2.0.0/GD32F30x_Firmware_Library/GD32F30x_standard_peripheral/Source\gd32f30x_timer.c **** void timer_break_config(uint32_t timer_periph, timer_break_parameter_struct* breakpara)
 714:C:/Users/49542/Desktop/GD32F30x_Demo_Suites_V2.0.0/GD32F30x_Demo_Suites_V2.0.0/GD32F30x_Firmware_Library/GD32F30x_standard_peripheral/Source\gd32f30x_timer.c **** {
 2145              		.loc 1 714 0
 2146              		.cfi_startproc
 2147              		@ args = 0, pretend = 0, frame = 8
 2148              		@ frame_needed = 1, uses_anonymous_args = 0
 2149              		@ link register save eliminated.
 2150 0000 80B4     		push	{r7}
ARM GAS  C:\Users\49542\AppData\Local\Temp\ccx6VnNU.s 			page 51


 2151              	.LCFI191:
 2152              		.cfi_def_cfa_offset 4
 2153              		.cfi_offset 7, -4
 2154 0002 83B0     		sub	sp, sp, #12
 2155              	.LCFI192:
 2156              		.cfi_def_cfa_offset 16
 2157 0004 00AF     		add	r7, sp, #0
 2158              	.LCFI193:
 2159              		.cfi_def_cfa_register 7
 2160 0006 7860     		str	r0, [r7, #4]
 2161 0008 3960     		str	r1, [r7]
 715:C:/Users/49542/Desktop/GD32F30x_Demo_Suites_V2.0.0/GD32F30x_Demo_Suites_V2.0.0/GD32F30x_Firmware_Library/GD32F30x_standard_peripheral/Source\gd32f30x_timer.c ****     TIMER_CCHP(timer_periph) = (uint32_t)(((uint32_t)(breakpara->runoffstate))|
 2162              		.loc 1 715 0
 2163 000a 3B68     		ldr	r3, [r7]
 2164 000c 1A88     		ldrh	r2, [r3]
 716:C:/Users/49542/Desktop/GD32F30x_Demo_Suites_V2.0.0/GD32F30x_Demo_Suites_V2.0.0/GD32F30x_Firmware_Library/GD32F30x_standard_peripheral/Source\gd32f30x_timer.c ****                                           ((uint32_t)(breakpara->ideloffstate))|
 2165              		.loc 1 716 0
 2166 000e 3B68     		ldr	r3, [r7]
 2167 0010 5B88     		ldrh	r3, [r3, #2]
 715:C:/Users/49542/Desktop/GD32F30x_Demo_Suites_V2.0.0/GD32F30x_Demo_Suites_V2.0.0/GD32F30x_Firmware_Library/GD32F30x_standard_peripheral/Source\gd32f30x_timer.c ****     TIMER_CCHP(timer_periph) = (uint32_t)(((uint32_t)(breakpara->runoffstate))|
 2168              		.loc 1 715 0
 2169 0012 1343     		orrs	r3, r3, r2
 2170 0014 9AB2     		uxth	r2, r3
 717:C:/Users/49542/Desktop/GD32F30x_Demo_Suites_V2.0.0/GD32F30x_Demo_Suites_V2.0.0/GD32F30x_Firmware_Library/GD32F30x_standard_peripheral/Source\gd32f30x_timer.c ****                                           ((uint32_t)(breakpara->deadtime))|
 2171              		.loc 1 717 0
 2172 0016 3B68     		ldr	r3, [r7]
 2173 0018 9B88     		ldrh	r3, [r3, #4]
 715:C:/Users/49542/Desktop/GD32F30x_Demo_Suites_V2.0.0/GD32F30x_Demo_Suites_V2.0.0/GD32F30x_Firmware_Library/GD32F30x_standard_peripheral/Source\gd32f30x_timer.c ****     TIMER_CCHP(timer_periph) = (uint32_t)(((uint32_t)(breakpara->runoffstate))|
 2174              		.loc 1 715 0
 2175 001a 1343     		orrs	r3, r3, r2
 2176 001c 9AB2     		uxth	r2, r3
 718:C:/Users/49542/Desktop/GD32F30x_Demo_Suites_V2.0.0/GD32F30x_Demo_Suites_V2.0.0/GD32F30x_Firmware_Library/GD32F30x_standard_peripheral/Source\gd32f30x_timer.c ****                                           ((uint32_t)(breakpara->breakpolarity))|
 2177              		.loc 1 718 0
 2178 001e 3B68     		ldr	r3, [r7]
 2179 0020 DB88     		ldrh	r3, [r3, #6]
 715:C:/Users/49542/Desktop/GD32F30x_Demo_Suites_V2.0.0/GD32F30x_Demo_Suites_V2.0.0/GD32F30x_Firmware_Library/GD32F30x_standard_peripheral/Source\gd32f30x_timer.c ****                                           ((uint32_t)(breakpara->ideloffstate))|
 2180              		.loc 1 715 0
 2181 0022 1343     		orrs	r3, r3, r2
 2182 0024 9AB2     		uxth	r2, r3
 719:C:/Users/49542/Desktop/GD32F30x_Demo_Suites_V2.0.0/GD32F30x_Demo_Suites_V2.0.0/GD32F30x_Firmware_Library/GD32F30x_standard_peripheral/Source\gd32f30x_timer.c ****                                           ((uint32_t)(breakpara->outputautostate)) |
 2183              		.loc 1 719 0
 2184 0026 3B68     		ldr	r3, [r7]
 2185 0028 1B89     		ldrh	r3, [r3, #8]
 715:C:/Users/49542/Desktop/GD32F30x_Demo_Suites_V2.0.0/GD32F30x_Demo_Suites_V2.0.0/GD32F30x_Firmware_Library/GD32F30x_standard_peripheral/Source\gd32f30x_timer.c ****                                           ((uint32_t)(breakpara->ideloffstate))|
 2186              		.loc 1 715 0
 2187 002a 1343     		orrs	r3, r3, r2
 2188 002c 9AB2     		uxth	r2, r3
 720:C:/Users/49542/Desktop/GD32F30x_Demo_Suites_V2.0.0/GD32F30x_Demo_Suites_V2.0.0/GD32F30x_Firmware_Library/GD32F30x_standard_peripheral/Source\gd32f30x_timer.c ****                                           ((uint32_t)(breakpara->protectmode))|
 2189              		.loc 1 720 0
 2190 002e 3B68     		ldr	r3, [r7]
 2191 0030 5B89     		ldrh	r3, [r3, #10]
 715:C:/Users/49542/Desktop/GD32F30x_Demo_Suites_V2.0.0/GD32F30x_Demo_Suites_V2.0.0/GD32F30x_Firmware_Library/GD32F30x_standard_peripheral/Source\gd32f30x_timer.c ****                                           ((uint32_t)(breakpara->ideloffstate))|
 2192              		.loc 1 715 0
 2193 0032 1343     		orrs	r3, r3, r2
 2194 0034 9AB2     		uxth	r2, r3
 721:C:/Users/49542/Desktop/GD32F30x_Demo_Suites_V2.0.0/GD32F30x_Demo_Suites_V2.0.0/GD32F30x_Firmware_Library/GD32F30x_standard_peripheral/Source\gd32f30x_timer.c ****                                           ((uint32_t)(breakpara->breakstate))) ;
 2195              		.loc 1 721 0
ARM GAS  C:\Users\49542\AppData\Local\Temp\ccx6VnNU.s 			page 52


 2196 0036 3B68     		ldr	r3, [r7]
 2197 0038 9B89     		ldrh	r3, [r3, #12]
 715:C:/Users/49542/Desktop/GD32F30x_Demo_Suites_V2.0.0/GD32F30x_Demo_Suites_V2.0.0/GD32F30x_Firmware_Library/GD32F30x_standard_peripheral/Source\gd32f30x_timer.c ****                                           ((uint32_t)(breakpara->ideloffstate))|
 2198              		.loc 1 715 0
 2199 003a 1343     		orrs	r3, r3, r2
 2200 003c 9AB2     		uxth	r2, r3
 2201 003e 7B68     		ldr	r3, [r7, #4]
 2202 0040 4433     		adds	r3, r3, #68
 2203 0042 1A60     		str	r2, [r3]
 722:C:/Users/49542/Desktop/GD32F30x_Demo_Suites_V2.0.0/GD32F30x_Demo_Suites_V2.0.0/GD32F30x_Firmware_Library/GD32F30x_standard_peripheral/Source\gd32f30x_timer.c **** }
 2204              		.loc 1 722 0
 2205 0044 00BF     		nop
 2206 0046 0C37     		adds	r7, r7, #12
 2207              	.LCFI194:
 2208              		.cfi_def_cfa_offset 4
 2209 0048 BD46     		mov	sp, r7
 2210              	.LCFI195:
 2211              		.cfi_def_cfa_register 13
 2212              		@ sp needed
 2213 004a 5DF8047B 		ldr	r7, [sp], #4
 2214              	.LCFI196:
 2215              		.cfi_restore 7
 2216              		.cfi_def_cfa_offset 0
 2217 004e 7047     		bx	lr
 2218              		.cfi_endproc
 2219              	.LFE148:
 2221              		.section	.text.timer_break_enable,"ax",%progbits
 2222              		.align	1
 2223              		.global	timer_break_enable
 2224              		.syntax unified
 2225              		.thumb
 2226              		.thumb_func
 2227              		.fpu fpv4-sp-d16
 2229              	timer_break_enable:
 2230              	.LFB149:
 723:C:/Users/49542/Desktop/GD32F30x_Demo_Suites_V2.0.0/GD32F30x_Demo_Suites_V2.0.0/GD32F30x_Firmware_Library/GD32F30x_standard_peripheral/Source\gd32f30x_timer.c **** 
 724:C:/Users/49542/Desktop/GD32F30x_Demo_Suites_V2.0.0/GD32F30x_Demo_Suites_V2.0.0/GD32F30x_Firmware_Library/GD32F30x_standard_peripheral/Source\gd32f30x_timer.c **** /*!
 725:C:/Users/49542/Desktop/GD32F30x_Demo_Suites_V2.0.0/GD32F30x_Demo_Suites_V2.0.0/GD32F30x_Firmware_Library/GD32F30x_standard_peripheral/Source\gd32f30x_timer.c ****     \brief      enable TIMER break function
 726:C:/Users/49542/Desktop/GD32F30x_Demo_Suites_V2.0.0/GD32F30x_Demo_Suites_V2.0.0/GD32F30x_Firmware_Library/GD32F30x_standard_peripheral/Source\gd32f30x_timer.c ****     \param[in]  timer_periph: TIMERx(x=0,7)
 727:C:/Users/49542/Desktop/GD32F30x_Demo_Suites_V2.0.0/GD32F30x_Demo_Suites_V2.0.0/GD32F30x_Firmware_Library/GD32F30x_standard_peripheral/Source\gd32f30x_timer.c ****     \param[out] none
 728:C:/Users/49542/Desktop/GD32F30x_Demo_Suites_V2.0.0/GD32F30x_Demo_Suites_V2.0.0/GD32F30x_Firmware_Library/GD32F30x_standard_peripheral/Source\gd32f30x_timer.c ****     \retval     none
 729:C:/Users/49542/Desktop/GD32F30x_Demo_Suites_V2.0.0/GD32F30x_Demo_Suites_V2.0.0/GD32F30x_Firmware_Library/GD32F30x_standard_peripheral/Source\gd32f30x_timer.c **** */
 730:C:/Users/49542/Desktop/GD32F30x_Demo_Suites_V2.0.0/GD32F30x_Demo_Suites_V2.0.0/GD32F30x_Firmware_Library/GD32F30x_standard_peripheral/Source\gd32f30x_timer.c **** void timer_break_enable(uint32_t timer_periph)
 731:C:/Users/49542/Desktop/GD32F30x_Demo_Suites_V2.0.0/GD32F30x_Demo_Suites_V2.0.0/GD32F30x_Firmware_Library/GD32F30x_standard_peripheral/Source\gd32f30x_timer.c **** {
 2231              		.loc 1 731 0
 2232              		.cfi_startproc
 2233              		@ args = 0, pretend = 0, frame = 8
 2234              		@ frame_needed = 1, uses_anonymous_args = 0
 2235              		@ link register save eliminated.
 2236 0000 80B4     		push	{r7}
 2237              	.LCFI197:
 2238              		.cfi_def_cfa_offset 4
 2239              		.cfi_offset 7, -4
 2240 0002 83B0     		sub	sp, sp, #12
 2241              	.LCFI198:
 2242              		.cfi_def_cfa_offset 16
 2243 0004 00AF     		add	r7, sp, #0
ARM GAS  C:\Users\49542\AppData\Local\Temp\ccx6VnNU.s 			page 53


 2244              	.LCFI199:
 2245              		.cfi_def_cfa_register 7
 2246 0006 7860     		str	r0, [r7, #4]
 732:C:/Users/49542/Desktop/GD32F30x_Demo_Suites_V2.0.0/GD32F30x_Demo_Suites_V2.0.0/GD32F30x_Firmware_Library/GD32F30x_standard_peripheral/Source\gd32f30x_timer.c ****     TIMER_CCHP(timer_periph) |= (uint32_t)TIMER_CCHP_BRKEN;
 2247              		.loc 1 732 0
 2248 0008 7B68     		ldr	r3, [r7, #4]
 2249 000a 4433     		adds	r3, r3, #68
 2250 000c 1B68     		ldr	r3, [r3]
 2251 000e 7A68     		ldr	r2, [r7, #4]
 2252 0010 4432     		adds	r2, r2, #68
 2253 0012 43F48053 		orr	r3, r3, #4096
 2254 0016 1360     		str	r3, [r2]
 733:C:/Users/49542/Desktop/GD32F30x_Demo_Suites_V2.0.0/GD32F30x_Demo_Suites_V2.0.0/GD32F30x_Firmware_Library/GD32F30x_standard_peripheral/Source\gd32f30x_timer.c **** }
 2255              		.loc 1 733 0
 2256 0018 00BF     		nop
 2257 001a 0C37     		adds	r7, r7, #12
 2258              	.LCFI200:
 2259              		.cfi_def_cfa_offset 4
 2260 001c BD46     		mov	sp, r7
 2261              	.LCFI201:
 2262              		.cfi_def_cfa_register 13
 2263              		@ sp needed
 2264 001e 5DF8047B 		ldr	r7, [sp], #4
 2265              	.LCFI202:
 2266              		.cfi_restore 7
 2267              		.cfi_def_cfa_offset 0
 2268 0022 7047     		bx	lr
 2269              		.cfi_endproc
 2270              	.LFE149:
 2272              		.section	.text.timer_break_disable,"ax",%progbits
 2273              		.align	1
 2274              		.global	timer_break_disable
 2275              		.syntax unified
 2276              		.thumb
 2277              		.thumb_func
 2278              		.fpu fpv4-sp-d16
