ARM GAS  C:\Users\49542\AppData\Local\Temp\ccmqPkvL.s 			page 1


   1              		.cpu cortex-m4
   2              		.eabi_attribute 27, 1
   3              		.eabi_attribute 28, 1
   4              		.eabi_attribute 20, 1
   5              		.eabi_attribute 21, 1
   6              		.eabi_attribute 23, 3
   7              		.eabi_attribute 24, 1
   8              		.eabi_attribute 25, 1
   9              		.eabi_attribute 26, 1
  10              		.eabi_attribute 30, 6
  11              		.eabi_attribute 34, 1
  12              		.eabi_attribute 18, 4
  13              		.file	"gd32f30x_i2c.c"
  14              		.text
  15              	.Ltext0:
  16              		.cfi_sections	.debug_frame
  17              		.section	.text.i2c_deinit,"ax",%progbits
  18              		.align	1
  19              		.global	i2c_deinit
  20              		.syntax unified
  21              		.thumb
  22              		.thumb_func
  23              		.fpu fpv4-sp-d16
  25              	i2c_deinit:
  26              	.LFB116:
  27              		.file 1 "C:/Users/49542/Desktop/GD32F30x_Demo_Suites_V2.0.0/GD32F30x_Demo_Suites_V2.0.0/GD32F30x_F
   1:C:/Users/49542/Desktop/GD32F30x_Demo_Suites_V2.0.0/GD32F30x_Demo_Suites_V2.0.0/GD32F30x_Firmware_Library/GD32F30x_standard_peripheral/Source\gd32f30x_i2c.c **** /*!
   2:C:/Users/49542/Desktop/GD32F30x_Demo_Suites_V2.0.0/GD32F30x_Demo_Suites_V2.0.0/GD32F30x_Firmware_Library/GD32F30x_standard_peripheral/Source\gd32f30x_i2c.c ****     \file  gd32f30x_i2c.c
   3:C:/Users/49542/Desktop/GD32F30x_Demo_Suites_V2.0.0/GD32F30x_Demo_Suites_V2.0.0/GD32F30x_Firmware_Library/GD32F30x_standard_peripheral/Source\gd32f30x_i2c.c ****     \brief I2C driver
   4:C:/Users/49542/Desktop/GD32F30x_Demo_Suites_V2.0.0/GD32F30x_Demo_Suites_V2.0.0/GD32F30x_Firmware_Library/GD32F30x_standard_peripheral/Source\gd32f30x_i2c.c **** 
   5:C:/Users/49542/Desktop/GD32F30x_Demo_Suites_V2.0.0/GD32F30x_Demo_Suites_V2.0.0/GD32F30x_Firmware_Library/GD32F30x_standard_peripheral/Source\gd32f30x_i2c.c ****     \version 2017-02-10, V1.0.0, firmware for GD32F30x
   6:C:/Users/49542/Desktop/GD32F30x_Demo_Suites_V2.0.0/GD32F30x_Demo_Suites_V2.0.0/GD32F30x_Firmware_Library/GD32F30x_standard_peripheral/Source\gd32f30x_i2c.c ****     \version 2018-10-10, V1.1.0, firmware for GD32F30x
   7:C:/Users/49542/Desktop/GD32F30x_Demo_Suites_V2.0.0/GD32F30x_Demo_Suites_V2.0.0/GD32F30x_Firmware_Library/GD32F30x_standard_peripheral/Source\gd32f30x_i2c.c ****     \version 2018-12-25, V2.0.0, firmware for GD32F30x
   8:C:/Users/49542/Desktop/GD32F30x_Demo_Suites_V2.0.0/GD32F30x_Demo_Suites_V2.0.0/GD32F30x_Firmware_Library/GD32F30x_standard_peripheral/Source\gd32f30x_i2c.c **** */
   9:C:/Users/49542/Desktop/GD32F30x_Demo_Suites_V2.0.0/GD32F30x_Demo_Suites_V2.0.0/GD32F30x_Firmware_Library/GD32F30x_standard_peripheral/Source\gd32f30x_i2c.c **** 
  10:C:/Users/49542/Desktop/GD32F30x_Demo_Suites_V2.0.0/GD32F30x_Demo_Suites_V2.0.0/GD32F30x_Firmware_Library/GD32F30x_standard_peripheral/Source\gd32f30x_i2c.c **** /*
  11:C:/Users/49542/Desktop/GD32F30x_Demo_Suites_V2.0.0/GD32F30x_Demo_Suites_V2.0.0/GD32F30x_Firmware_Library/GD32F30x_standard_peripheral/Source\gd32f30x_i2c.c ****     Copyright (c) 2018, GigaDevice Semiconductor Inc.
  12:C:/Users/49542/Desktop/GD32F30x_Demo_Suites_V2.0.0/GD32F30x_Demo_Suites_V2.0.0/GD32F30x_Firmware_Library/GD32F30x_standard_peripheral/Source\gd32f30x_i2c.c **** 
  13:C:/Users/49542/Desktop/GD32F30x_Demo_Suites_V2.0.0/GD32F30x_Demo_Suites_V2.0.0/GD32F30x_Firmware_Library/GD32F30x_standard_peripheral/Source\gd32f30x_i2c.c ****     All rights reserved.
  14:C:/Users/49542/Desktop/GD32F30x_Demo_Suites_V2.0.0/GD32F30x_Demo_Suites_V2.0.0/GD32F30x_Firmware_Library/GD32F30x_standard_peripheral/Source\gd32f30x_i2c.c **** 
  15:C:/Users/49542/Desktop/GD32F30x_Demo_Suites_V2.0.0/GD32F30x_Demo_Suites_V2.0.0/GD32F30x_Firmware_Library/GD32F30x_standard_peripheral/Source\gd32f30x_i2c.c ****     Redistribution and use in source and binary forms, with or without modification, 
  16:C:/Users/49542/Desktop/GD32F30x_Demo_Suites_V2.0.0/GD32F30x_Demo_Suites_V2.0.0/GD32F30x_Firmware_Library/GD32F30x_standard_peripheral/Source\gd32f30x_i2c.c **** are permitted provided that the following conditions are met:
  17:C:/Users/49542/Desktop/GD32F30x_Demo_Suites_V2.0.0/GD32F30x_Demo_Suites_V2.0.0/GD32F30x_Firmware_Library/GD32F30x_standard_peripheral/Source\gd32f30x_i2c.c **** 
  18:C:/Users/49542/Desktop/GD32F30x_Demo_Suites_V2.0.0/GD32F30x_Demo_Suites_V2.0.0/GD32F30x_Firmware_Library/GD32F30x_standard_peripheral/Source\gd32f30x_i2c.c ****     1. Redistributions of source code must retain the above copyright notice, this 
  19:C:/Users/49542/Desktop/GD32F30x_Demo_Suites_V2.0.0/GD32F30x_Demo_Suites_V2.0.0/GD32F30x_Firmware_Library/GD32F30x_standard_peripheral/Source\gd32f30x_i2c.c ****        list of conditions and the following disclaimer.
  20:C:/Users/49542/Desktop/GD32F30x_Demo_Suites_V2.0.0/GD32F30x_Demo_Suites_V2.0.0/GD32F30x_Firmware_Library/GD32F30x_standard_peripheral/Source\gd32f30x_i2c.c ****     2. Redistributions in binary form must reproduce the above copyright notice, 
  21:C:/Users/49542/Desktop/GD32F30x_Demo_Suites_V2.0.0/GD32F30x_Demo_Suites_V2.0.0/GD32F30x_Firmware_Library/GD32F30x_standard_peripheral/Source\gd32f30x_i2c.c ****        this list of conditions and the following disclaimer in the documentation 
  22:C:/Users/49542/Desktop/GD32F30x_Demo_Suites_V2.0.0/GD32F30x_Demo_Suites_V2.0.0/GD32F30x_Firmware_Library/GD32F30x_standard_peripheral/Source\gd32f30x_i2c.c ****        and/or other materials provided with the distribution.
  23:C:/Users/49542/Desktop/GD32F30x_Demo_Suites_V2.0.0/GD32F30x_Demo_Suites_V2.0.0/GD32F30x_Firmware_Library/GD32F30x_standard_peripheral/Source\gd32f30x_i2c.c ****     3. Neither the name of the copyright holder nor the names of its contributors 
  24:C:/Users/49542/Desktop/GD32F30x_Demo_Suites_V2.0.0/GD32F30x_Demo_Suites_V2.0.0/GD32F30x_Firmware_Library/GD32F30x_standard_peripheral/Source\gd32f30x_i2c.c ****        may be used to endorse or promote products derived from this software without 
  25:C:/Users/49542/Desktop/GD32F30x_Demo_Suites_V2.0.0/GD32F30x_Demo_Suites_V2.0.0/GD32F30x_Firmware_Library/GD32F30x_standard_peripheral/Source\gd32f30x_i2c.c ****        specific prior written permission.
  26:C:/Users/49542/Desktop/GD32F30x_Demo_Suites_V2.0.0/GD32F30x_Demo_Suites_V2.0.0/GD32F30x_Firmware_Library/GD32F30x_standard_peripheral/Source\gd32f30x_i2c.c **** 
  27:C:/Users/49542/Desktop/GD32F30x_Demo_Suites_V2.0.0/GD32F30x_Demo_Suites_V2.0.0/GD32F30x_Firmware_Library/GD32F30x_standard_peripheral/Source\gd32f30x_i2c.c ****     THIS SOFTWARE IS PROVIDED BY THE COPYRIGHT HOLDERS AND CONTRIBUTORS "AS IS" 
  28:C:/Users/49542/Desktop/GD32F30x_Demo_Suites_V2.0.0/GD32F30x_Demo_Suites_V2.0.0/GD32F30x_Firmware_Library/GD32F30x_standard_peripheral/Source\gd32f30x_i2c.c **** AND ANY EXPRESS OR IMPLIED WARRANTIES, INCLUDING, BUT NOT LIMITED TO, THE IMPLIED 
  29:C:/Users/49542/Desktop/GD32F30x_Demo_Suites_V2.0.0/GD32F30x_Demo_Suites_V2.0.0/GD32F30x_Firmware_Library/GD32F30x_standard_peripheral/Source\gd32f30x_i2c.c **** WARRANTIES OF MERCHANTABILITY AND FITNESS FOR A PARTICULAR PURPOSE ARE DISCLAIMED. 
  30:C:/Users/49542/Desktop/GD32F30x_Demo_Suites_V2.0.0/GD32F30x_Demo_Suites_V2.0.0/GD32F30x_Firmware_Library/GD32F30x_standard_peripheral/Source\gd32f30x_i2c.c **** IN NO EVENT SHALL THE COPYRIGHT HOLDER OR CONTRIBUTORS BE LIABLE FOR ANY DIRECT, 
  31:C:/Users/49542/Desktop/GD32F30x_Demo_Suites_V2.0.0/GD32F30x_Demo_Suites_V2.0.0/GD32F30x_Firmware_Library/GD32F30x_standard_peripheral/Source\gd32f30x_i2c.c **** INDIRECT, INCIDENTAL, SPECIAL, EXEMPLARY, OR CONSEQUENTIAL DAMAGES (INCLUDING, BUT 
ARM GAS  C:\Users\49542\AppData\Local\Temp\ccmqPkvL.s 			page 2


  32:C:/Users/49542/Desktop/GD32F30x_Demo_Suites_V2.0.0/GD32F30x_Demo_Suites_V2.0.0/GD32F30x_Firmware_Library/GD32F30x_standard_peripheral/Source\gd32f30x_i2c.c **** NOT LIMITED TO, PROCUREMENT OF SUBSTITUTE GOODS OR SERVICES; LOSS OF USE, DATA, OR 
  33:C:/Users/49542/Desktop/GD32F30x_Demo_Suites_V2.0.0/GD32F30x_Demo_Suites_V2.0.0/GD32F30x_Firmware_Library/GD32F30x_standard_peripheral/Source\gd32f30x_i2c.c **** PROFITS; OR BUSINESS INTERRUPTION) HOWEVER CAUSED AND ON ANY THEORY OF LIABILITY, 
  34:C:/Users/49542/Desktop/GD32F30x_Demo_Suites_V2.0.0/GD32F30x_Demo_Suites_V2.0.0/GD32F30x_Firmware_Library/GD32F30x_standard_peripheral/Source\gd32f30x_i2c.c **** WHETHER IN CONTRACT, STRICT LIABILITY, OR TORT (INCLUDING NEGLIGENCE OR OTHERWISE) 
  35:C:/Users/49542/Desktop/GD32F30x_Demo_Suites_V2.0.0/GD32F30x_Demo_Suites_V2.0.0/GD32F30x_Firmware_Library/GD32F30x_standard_peripheral/Source\gd32f30x_i2c.c **** ARISING IN ANY WAY OUT OF THE USE OF THIS SOFTWARE, EVEN IF ADVISED OF THE POSSIBILITY 
  36:C:/Users/49542/Desktop/GD32F30x_Demo_Suites_V2.0.0/GD32F30x_Demo_Suites_V2.0.0/GD32F30x_Firmware_Library/GD32F30x_standard_peripheral/Source\gd32f30x_i2c.c **** OF SUCH DAMAGE.
  37:C:/Users/49542/Desktop/GD32F30x_Demo_Suites_V2.0.0/GD32F30x_Demo_Suites_V2.0.0/GD32F30x_Firmware_Library/GD32F30x_standard_peripheral/Source\gd32f30x_i2c.c **** */
  38:C:/Users/49542/Desktop/GD32F30x_Demo_Suites_V2.0.0/GD32F30x_Demo_Suites_V2.0.0/GD32F30x_Firmware_Library/GD32F30x_standard_peripheral/Source\gd32f30x_i2c.c **** 
  39:C:/Users/49542/Desktop/GD32F30x_Demo_Suites_V2.0.0/GD32F30x_Demo_Suites_V2.0.0/GD32F30x_Firmware_Library/GD32F30x_standard_peripheral/Source\gd32f30x_i2c.c **** #include "gd32f30x_i2c.h"
  40:C:/Users/49542/Desktop/GD32F30x_Demo_Suites_V2.0.0/GD32F30x_Demo_Suites_V2.0.0/GD32F30x_Firmware_Library/GD32F30x_standard_peripheral/Source\gd32f30x_i2c.c **** 
  41:C:/Users/49542/Desktop/GD32F30x_Demo_Suites_V2.0.0/GD32F30x_Demo_Suites_V2.0.0/GD32F30x_Firmware_Library/GD32F30x_standard_peripheral/Source\gd32f30x_i2c.c **** #define I2CCLK_MAX                    ((uint32_t)0x0000003CU)             /*!< i2cclk maximum value
  42:C:/Users/49542/Desktop/GD32F30x_Demo_Suites_V2.0.0/GD32F30x_Demo_Suites_V2.0.0/GD32F30x_Firmware_Library/GD32F30x_standard_peripheral/Source\gd32f30x_i2c.c **** #define I2CCLK_MIN                    ((uint32_t)0x00000002U)             /*!< i2cclk minimum value
  43:C:/Users/49542/Desktop/GD32F30x_Demo_Suites_V2.0.0/GD32F30x_Demo_Suites_V2.0.0/GD32F30x_Firmware_Library/GD32F30x_standard_peripheral/Source\gd32f30x_i2c.c **** #define I2C_FLAG_MASK                 ((uint32_t)0x0000FFFFU)             /*!< i2c flag mask */
  44:C:/Users/49542/Desktop/GD32F30x_Demo_Suites_V2.0.0/GD32F30x_Demo_Suites_V2.0.0/GD32F30x_Firmware_Library/GD32F30x_standard_peripheral/Source\gd32f30x_i2c.c **** #define I2C_ADDRESS_MASK              ((uint32_t)0x000003FFU)             /*!< i2c address mask */
  45:C:/Users/49542/Desktop/GD32F30x_Demo_Suites_V2.0.0/GD32F30x_Demo_Suites_V2.0.0/GD32F30x_Firmware_Library/GD32F30x_standard_peripheral/Source\gd32f30x_i2c.c **** 
  46:C:/Users/49542/Desktop/GD32F30x_Demo_Suites_V2.0.0/GD32F30x_Demo_Suites_V2.0.0/GD32F30x_Firmware_Library/GD32F30x_standard_peripheral/Source\gd32f30x_i2c.c **** /* I2C register bit offset */
  47:C:/Users/49542/Desktop/GD32F30x_Demo_Suites_V2.0.0/GD32F30x_Demo_Suites_V2.0.0/GD32F30x_Firmware_Library/GD32F30x_standard_peripheral/Source\gd32f30x_i2c.c **** #define STAT1_PECV_OFFSET             ((uint32_t)8U)                      /* bit offset of PECV in 
  48:C:/Users/49542/Desktop/GD32F30x_Demo_Suites_V2.0.0/GD32F30x_Demo_Suites_V2.0.0/GD32F30x_Firmware_Library/GD32F30x_standard_peripheral/Source\gd32f30x_i2c.c **** 
  49:C:/Users/49542/Desktop/GD32F30x_Demo_Suites_V2.0.0/GD32F30x_Demo_Suites_V2.0.0/GD32F30x_Firmware_Library/GD32F30x_standard_peripheral/Source\gd32f30x_i2c.c **** /*!
  50:C:/Users/49542/Desktop/GD32F30x_Demo_Suites_V2.0.0/GD32F30x_Demo_Suites_V2.0.0/GD32F30x_Firmware_Library/GD32F30x_standard_peripheral/Source\gd32f30x_i2c.c ****     \brief      reset I2C
  51:C:/Users/49542/Desktop/GD32F30x_Demo_Suites_V2.0.0/GD32F30x_Demo_Suites_V2.0.0/GD32F30x_Firmware_Library/GD32F30x_standard_peripheral/Source\gd32f30x_i2c.c ****     \param[in]  i2c_periph: I2Cx(x=0,1)
  52:C:/Users/49542/Desktop/GD32F30x_Demo_Suites_V2.0.0/GD32F30x_Demo_Suites_V2.0.0/GD32F30x_Firmware_Library/GD32F30x_standard_peripheral/Source\gd32f30x_i2c.c ****     \param[out] none
  53:C:/Users/49542/Desktop/GD32F30x_Demo_Suites_V2.0.0/GD32F30x_Demo_Suites_V2.0.0/GD32F30x_Firmware_Library/GD32F30x_standard_peripheral/Source\gd32f30x_i2c.c ****     \retval     none
  54:C:/Users/49542/Desktop/GD32F30x_Demo_Suites_V2.0.0/GD32F30x_Demo_Suites_V2.0.0/GD32F30x_Firmware_Library/GD32F30x_standard_peripheral/Source\gd32f30x_i2c.c **** */
  55:C:/Users/49542/Desktop/GD32F30x_Demo_Suites_V2.0.0/GD32F30x_Demo_Suites_V2.0.0/GD32F30x_Firmware_Library/GD32F30x_standard_peripheral/Source\gd32f30x_i2c.c **** void i2c_deinit(uint32_t i2c_periph)
  56:C:/Users/49542/Desktop/GD32F30x_Demo_Suites_V2.0.0/GD32F30x_Demo_Suites_V2.0.0/GD32F30x_Firmware_Library/GD32F30x_standard_peripheral/Source\gd32f30x_i2c.c **** {
  28              		.loc 1 56 0
  29              		.cfi_startproc
  30              		@ args = 0, pretend = 0, frame = 8
  31              		@ frame_needed = 1, uses_anonymous_args = 0
  32 0000 80B5     		push	{r7, lr}
  33              	.LCFI0:
  34              		.cfi_def_cfa_offset 8
  35              		.cfi_offset 7, -8
  36              		.cfi_offset 14, -4
  37 0002 82B0     		sub	sp, sp, #8
  38              	.LCFI1:
  39              		.cfi_def_cfa_offset 16
  40 0004 00AF     		add	r7, sp, #0
  41              	.LCFI2:
  42              		.cfi_def_cfa_register 7
  43 0006 7860     		str	r0, [r7, #4]
  57:C:/Users/49542/Desktop/GD32F30x_Demo_Suites_V2.0.0/GD32F30x_Demo_Suites_V2.0.0/GD32F30x_Firmware_Library/GD32F30x_standard_peripheral/Source\gd32f30x_i2c.c ****     switch(i2c_periph){
  44              		.loc 1 57 0
  45 0008 7B68     		ldr	r3, [r7, #4]
  46 000a 0E4A     		ldr	r2, .L6
  47 000c 9342     		cmp	r3, r2
  48 000e 03D0     		beq	.L3
  49 0010 0D4A     		ldr	r2, .L6+4
  50 0012 9342     		cmp	r3, r2
  51 0014 09D0     		beq	.L4
  58:C:/Users/49542/Desktop/GD32F30x_Demo_Suites_V2.0.0/GD32F30x_Demo_Suites_V2.0.0/GD32F30x_Firmware_Library/GD32F30x_standard_peripheral/Source\gd32f30x_i2c.c ****     case I2C0:
  59:C:/Users/49542/Desktop/GD32F30x_Demo_Suites_V2.0.0/GD32F30x_Demo_Suites_V2.0.0/GD32F30x_Firmware_Library/GD32F30x_standard_peripheral/Source\gd32f30x_i2c.c ****         /* reset I2C0 */
  60:C:/Users/49542/Desktop/GD32F30x_Demo_Suites_V2.0.0/GD32F30x_Demo_Suites_V2.0.0/GD32F30x_Firmware_Library/GD32F30x_standard_peripheral/Source\gd32f30x_i2c.c ****         rcu_periph_reset_enable(RCU_I2C0RST);
  61:C:/Users/49542/Desktop/GD32F30x_Demo_Suites_V2.0.0/GD32F30x_Demo_Suites_V2.0.0/GD32F30x_Firmware_Library/GD32F30x_standard_peripheral/Source\gd32f30x_i2c.c ****         rcu_periph_reset_disable(RCU_I2C0RST);
  62:C:/Users/49542/Desktop/GD32F30x_Demo_Suites_V2.0.0/GD32F30x_Demo_Suites_V2.0.0/GD32F30x_Firmware_Library/GD32F30x_standard_peripheral/Source\gd32f30x_i2c.c ****         break;
  63:C:/Users/49542/Desktop/GD32F30x_Demo_Suites_V2.0.0/GD32F30x_Demo_Suites_V2.0.0/GD32F30x_Firmware_Library/GD32F30x_standard_peripheral/Source\gd32f30x_i2c.c ****     case I2C1:
  64:C:/Users/49542/Desktop/GD32F30x_Demo_Suites_V2.0.0/GD32F30x_Demo_Suites_V2.0.0/GD32F30x_Firmware_Library/GD32F30x_standard_peripheral/Source\gd32f30x_i2c.c ****         /* reset I2C1 */
ARM GAS  C:\Users\49542\AppData\Local\Temp\ccmqPkvL.s 			page 3


  65:C:/Users/49542/Desktop/GD32F30x_Demo_Suites_V2.0.0/GD32F30x_Demo_Suites_V2.0.0/GD32F30x_Firmware_Library/GD32F30x_standard_peripheral/Source\gd32f30x_i2c.c ****         rcu_periph_reset_enable(RCU_I2C1RST);
  66:C:/Users/49542/Desktop/GD32F30x_Demo_Suites_V2.0.0/GD32F30x_Demo_Suites_V2.0.0/GD32F30x_Firmware_Library/GD32F30x_standard_peripheral/Source\gd32f30x_i2c.c ****         rcu_periph_reset_disable(RCU_I2C1RST);
  67:C:/Users/49542/Desktop/GD32F30x_Demo_Suites_V2.0.0/GD32F30x_Demo_Suites_V2.0.0/GD32F30x_Firmware_Library/GD32F30x_standard_peripheral/Source\gd32f30x_i2c.c ****         break;
  68:C:/Users/49542/Desktop/GD32F30x_Demo_Suites_V2.0.0/GD32F30x_Demo_Suites_V2.0.0/GD32F30x_Firmware_Library/GD32F30x_standard_peripheral/Source\gd32f30x_i2c.c ****     default:
  69:C:/Users/49542/Desktop/GD32F30x_Demo_Suites_V2.0.0/GD32F30x_Demo_Suites_V2.0.0/GD32F30x_Firmware_Library/GD32F30x_standard_peripheral/Source\gd32f30x_i2c.c ****         break;
  52              		.loc 1 69 0
  53 0016 11E0     		b	.L5
  54              	.L3:
  60:C:/Users/49542/Desktop/GD32F30x_Demo_Suites_V2.0.0/GD32F30x_Demo_Suites_V2.0.0/GD32F30x_Firmware_Library/GD32F30x_standard_peripheral/Source\gd32f30x_i2c.c ****         rcu_periph_reset_disable(RCU_I2C0RST);
  55              		.loc 1 60 0
  56 0018 40F21540 		movw	r0, #1045
  57 001c FFF7FEFF 		bl	rcu_periph_reset_enable
  61:C:/Users/49542/Desktop/GD32F30x_Demo_Suites_V2.0.0/GD32F30x_Demo_Suites_V2.0.0/GD32F30x_Firmware_Library/GD32F30x_standard_peripheral/Source\gd32f30x_i2c.c ****         break;
  58              		.loc 1 61 0
  59 0020 40F21540 		movw	r0, #1045
  60 0024 FFF7FEFF 		bl	rcu_periph_reset_disable
  62:C:/Users/49542/Desktop/GD32F30x_Demo_Suites_V2.0.0/GD32F30x_Demo_Suites_V2.0.0/GD32F30x_Firmware_Library/GD32F30x_standard_peripheral/Source\gd32f30x_i2c.c ****     case I2C1:
  61              		.loc 1 62 0
  62 0028 08E0     		b	.L5
  63              	.L4:
  65:C:/Users/49542/Desktop/GD32F30x_Demo_Suites_V2.0.0/GD32F30x_Demo_Suites_V2.0.0/GD32F30x_Firmware_Library/GD32F30x_standard_peripheral/Source\gd32f30x_i2c.c ****         rcu_periph_reset_disable(RCU_I2C1RST);
  64              		.loc 1 65 0
  65 002a 40F21640 		movw	r0, #1046
  66 002e FFF7FEFF 		bl	rcu_periph_reset_enable
  66:C:/Users/49542/Desktop/GD32F30x_Demo_Suites_V2.0.0/GD32F30x_Demo_Suites_V2.0.0/GD32F30x_Firmware_Library/GD32F30x_standard_peripheral/Source\gd32f30x_i2c.c ****         break;
  67              		.loc 1 66 0
  68 0032 40F21640 		movw	r0, #1046
  69 0036 FFF7FEFF 		bl	rcu_periph_reset_disable
  67:C:/Users/49542/Desktop/GD32F30x_Demo_Suites_V2.0.0/GD32F30x_Demo_Suites_V2.0.0/GD32F30x_Firmware_Library/GD32F30x_standard_peripheral/Source\gd32f30x_i2c.c ****     default:
  70              		.loc 1 67 0
  71 003a 00BF     		nop
  72              	.L5:
  70:C:/Users/49542/Desktop/GD32F30x_Demo_Suites_V2.0.0/GD32F30x_Demo_Suites_V2.0.0/GD32F30x_Firmware_Library/GD32F30x_standard_peripheral/Source\gd32f30x_i2c.c ****     }
  71:C:/Users/49542/Desktop/GD32F30x_Demo_Suites_V2.0.0/GD32F30x_Demo_Suites_V2.0.0/GD32F30x_Firmware_Library/GD32F30x_standard_peripheral/Source\gd32f30x_i2c.c **** }
  73              		.loc 1 71 0
  74 003c 00BF     		nop
  75 003e 0837     		adds	r7, r7, #8
  76              	.LCFI3:
  77              		.cfi_def_cfa_offset 8
  78 0040 BD46     		mov	sp, r7
  79              	.LCFI4:
  80              		.cfi_def_cfa_register 13
  81              		@ sp needed
  82 0042 80BD     		pop	{r7, pc}
  83              	.L7:
  84              		.align	2
  85              	.L6:
  86 0044 00540040 		.word	1073763328
  87 0048 00580040 		.word	1073764352
  88              		.cfi_endproc
  89              	.LFE116:
  91              		.section	.text.i2c_clock_config,"ax",%progbits
  92              		.align	1
  93              		.global	i2c_clock_config
  94              		.syntax unified
  95              		.thumb
  96              		.thumb_func
ARM GAS  C:\Users\49542\AppData\Local\Temp\ccmqPkvL.s 			page 4


  97              		.fpu fpv4-sp-d16
  99              	i2c_clock_config:
 100              	.LFB117:
  72:C:/Users/49542/Desktop/GD32F30x_Demo_Suites_V2.0.0/GD32F30x_Demo_Suites_V2.0.0/GD32F30x_Firmware_Library/GD32F30x_standard_peripheral/Source\gd32f30x_i2c.c **** 
  73:C:/Users/49542/Desktop/GD32F30x_Demo_Suites_V2.0.0/GD32F30x_Demo_Suites_V2.0.0/GD32F30x_Firmware_Library/GD32F30x_standard_peripheral/Source\gd32f30x_i2c.c **** /*!
  74:C:/Users/49542/Desktop/GD32F30x_Demo_Suites_V2.0.0/GD32F30x_Demo_Suites_V2.0.0/GD32F30x_Firmware_Library/GD32F30x_standard_peripheral/Source\gd32f30x_i2c.c ****     \brief      configure I2C clock
  75:C:/Users/49542/Desktop/GD32F30x_Demo_Suites_V2.0.0/GD32F30x_Demo_Suites_V2.0.0/GD32F30x_Firmware_Library/GD32F30x_standard_peripheral/Source\gd32f30x_i2c.c ****     \param[in]  i2c_periph: I2Cx(x=0,1)
  76:C:/Users/49542/Desktop/GD32F30x_Demo_Suites_V2.0.0/GD32F30x_Demo_Suites_V2.0.0/GD32F30x_Firmware_Library/GD32F30x_standard_peripheral/Source\gd32f30x_i2c.c ****     \param[in]  clkspeed: I2C clock speed, supports standard mode (up to 100 kHz), fast mode (up to
  77:C:/Users/49542/Desktop/GD32F30x_Demo_Suites_V2.0.0/GD32F30x_Demo_Suites_V2.0.0/GD32F30x_Firmware_Library/GD32F30x_standard_peripheral/Source\gd32f30x_i2c.c ****                           and fast mode plus (up to 1MHz)
  78:C:/Users/49542/Desktop/GD32F30x_Demo_Suites_V2.0.0/GD32F30x_Demo_Suites_V2.0.0/GD32F30x_Firmware_Library/GD32F30x_standard_peripheral/Source\gd32f30x_i2c.c ****     \param[in]  dutycyc: duty cycle in fast mode or fast mode plus
  79:C:/Users/49542/Desktop/GD32F30x_Demo_Suites_V2.0.0/GD32F30x_Demo_Suites_V2.0.0/GD32F30x_Firmware_Library/GD32F30x_standard_peripheral/Source\gd32f30x_i2c.c ****                 only one parameter can be selected which is shown as below:
  80:C:/Users/49542/Desktop/GD32F30x_Demo_Suites_V2.0.0/GD32F30x_Demo_Suites_V2.0.0/GD32F30x_Firmware_Library/GD32F30x_standard_peripheral/Source\gd32f30x_i2c.c ****       \arg        I2C_DTCY_2: T_low/T_high=2 
  81:C:/Users/49542/Desktop/GD32F30x_Demo_Suites_V2.0.0/GD32F30x_Demo_Suites_V2.0.0/GD32F30x_Firmware_Library/GD32F30x_standard_peripheral/Source\gd32f30x_i2c.c ****       \arg        I2C_DTCY_16_9: T_low/T_high=16/9
  82:C:/Users/49542/Desktop/GD32F30x_Demo_Suites_V2.0.0/GD32F30x_Demo_Suites_V2.0.0/GD32F30x_Firmware_Library/GD32F30x_standard_peripheral/Source\gd32f30x_i2c.c ****     \param[out] none
  83:C:/Users/49542/Desktop/GD32F30x_Demo_Suites_V2.0.0/GD32F30x_Demo_Suites_V2.0.0/GD32F30x_Firmware_Library/GD32F30x_standard_peripheral/Source\gd32f30x_i2c.c ****     \retval     none
  84:C:/Users/49542/Desktop/GD32F30x_Demo_Suites_V2.0.0/GD32F30x_Demo_Suites_V2.0.0/GD32F30x_Firmware_Library/GD32F30x_standard_peripheral/Source\gd32f30x_i2c.c **** */
  85:C:/Users/49542/Desktop/GD32F30x_Demo_Suites_V2.0.0/GD32F30x_Demo_Suites_V2.0.0/GD32F30x_Firmware_Library/GD32F30x_standard_peripheral/Source\gd32f30x_i2c.c **** void i2c_clock_config(uint32_t i2c_periph, uint32_t clkspeed, uint32_t dutycyc)
  86:C:/Users/49542/Desktop/GD32F30x_Demo_Suites_V2.0.0/GD32F30x_Demo_Suites_V2.0.0/GD32F30x_Firmware_Library/GD32F30x_standard_peripheral/Source\gd32f30x_i2c.c **** {
 101              		.loc 1 86 0
 102              		.cfi_startproc
 103              		@ args = 0, pretend = 0, frame = 40
 104              		@ frame_needed = 1, uses_anonymous_args = 0
 105 0000 80B5     		push	{r7, lr}
 106              	.LCFI5:
 107              		.cfi_def_cfa_offset 8
 108              		.cfi_offset 7, -8
 109              		.cfi_offset 14, -4
 110 0002 8AB0     		sub	sp, sp, #40
 111              	.LCFI6:
 112              		.cfi_def_cfa_offset 48
 113 0004 00AF     		add	r7, sp, #0
 114              	.LCFI7:
 115              		.cfi_def_cfa_register 7
 116 0006 F860     		str	r0, [r7, #12]
 117 0008 B960     		str	r1, [r7, #8]
 118 000a 7A60     		str	r2, [r7, #4]
  87:C:/Users/49542/Desktop/GD32F30x_Demo_Suites_V2.0.0/GD32F30x_Demo_Suites_V2.0.0/GD32F30x_Firmware_Library/GD32F30x_standard_peripheral/Source\gd32f30x_i2c.c ****     uint32_t pclk1, clkc, freq, risetime;
  88:C:/Users/49542/Desktop/GD32F30x_Demo_Suites_V2.0.0/GD32F30x_Demo_Suites_V2.0.0/GD32F30x_Firmware_Library/GD32F30x_standard_peripheral/Source\gd32f30x_i2c.c ****     uint32_t temp;
  89:C:/Users/49542/Desktop/GD32F30x_Demo_Suites_V2.0.0/GD32F30x_Demo_Suites_V2.0.0/GD32F30x_Firmware_Library/GD32F30x_standard_peripheral/Source\gd32f30x_i2c.c ****     
  90:C:/Users/49542/Desktop/GD32F30x_Demo_Suites_V2.0.0/GD32F30x_Demo_Suites_V2.0.0/GD32F30x_Firmware_Library/GD32F30x_standard_peripheral/Source\gd32f30x_i2c.c ****     pclk1 = rcu_clock_freq_get(CK_APB1);
 119              		.loc 1 90 0
 120 000c 0220     		movs	r0, #2
 121 000e FFF7FEFF 		bl	rcu_clock_freq_get
 122 0012 F861     		str	r0, [r7, #28]
  91:C:/Users/49542/Desktop/GD32F30x_Demo_Suites_V2.0.0/GD32F30x_Demo_Suites_V2.0.0/GD32F30x_Firmware_Library/GD32F30x_standard_peripheral/Source\gd32f30x_i2c.c ****     /* I2C peripheral clock frequency */
  92:C:/Users/49542/Desktop/GD32F30x_Demo_Suites_V2.0.0/GD32F30x_Demo_Suites_V2.0.0/GD32F30x_Firmware_Library/GD32F30x_standard_peripheral/Source\gd32f30x_i2c.c ****     freq = (uint32_t)(pclk1/1000000U);
 123              		.loc 1 92 0
 124 0014 FB69     		ldr	r3, [r7, #28]
 125 0016 794A     		ldr	r2, .L23
 126 0018 A2FB0323 		umull	r2, r3, r2, r3
 127 001c 9B0C     		lsrs	r3, r3, #18
 128 001e 3B62     		str	r3, [r7, #32]
  93:C:/Users/49542/Desktop/GD32F30x_Demo_Suites_V2.0.0/GD32F30x_Demo_Suites_V2.0.0/GD32F30x_Firmware_Library/GD32F30x_standard_peripheral/Source\gd32f30x_i2c.c ****     if(freq >= I2CCLK_MAX){
 129              		.loc 1 93 0
 130 0020 3B6A     		ldr	r3, [r7, #32]
 131 0022 3B2B     		cmp	r3, #59
 132 0024 01D9     		bls	.L9
ARM GAS  C:\Users\49542\AppData\Local\Temp\ccmqPkvL.s 			page 5


  94:C:/Users/49542/Desktop/GD32F30x_Demo_Suites_V2.0.0/GD32F30x_Demo_Suites_V2.0.0/GD32F30x_Firmware_Library/GD32F30x_standard_peripheral/Source\gd32f30x_i2c.c ****         freq = I2CCLK_MAX;
 133              		.loc 1 94 0
 134 0026 3C23     		movs	r3, #60
 135 0028 3B62     		str	r3, [r7, #32]
 136              	.L9:
  95:C:/Users/49542/Desktop/GD32F30x_Demo_Suites_V2.0.0/GD32F30x_Demo_Suites_V2.0.0/GD32F30x_Firmware_Library/GD32F30x_standard_peripheral/Source\gd32f30x_i2c.c ****     }
  96:C:/Users/49542/Desktop/GD32F30x_Demo_Suites_V2.0.0/GD32F30x_Demo_Suites_V2.0.0/GD32F30x_Firmware_Library/GD32F30x_standard_peripheral/Source\gd32f30x_i2c.c ****     temp = I2C_CTL1(i2c_periph);
 137              		.loc 1 96 0
 138 002a FB68     		ldr	r3, [r7, #12]
 139 002c 0433     		adds	r3, r3, #4
 140 002e 1B68     		ldr	r3, [r3]
 141 0030 BB61     		str	r3, [r7, #24]
  97:C:/Users/49542/Desktop/GD32F30x_Demo_Suites_V2.0.0/GD32F30x_Demo_Suites_V2.0.0/GD32F30x_Firmware_Library/GD32F30x_standard_peripheral/Source\gd32f30x_i2c.c ****     temp &= ~I2C_CTL1_I2CCLK;
 142              		.loc 1 97 0
 143 0032 BB69     		ldr	r3, [r7, #24]
 144 0034 23F07F03 		bic	r3, r3, #127
 145 0038 BB61     		str	r3, [r7, #24]
  98:C:/Users/49542/Desktop/GD32F30x_Demo_Suites_V2.0.0/GD32F30x_Demo_Suites_V2.0.0/GD32F30x_Firmware_Library/GD32F30x_standard_peripheral/Source\gd32f30x_i2c.c ****     temp |= freq;
 146              		.loc 1 98 0
 147 003a BA69     		ldr	r2, [r7, #24]
 148 003c 3B6A     		ldr	r3, [r7, #32]
 149 003e 1343     		orrs	r3, r3, r2
 150 0040 BB61     		str	r3, [r7, #24]
  99:C:/Users/49542/Desktop/GD32F30x_Demo_Suites_V2.0.0/GD32F30x_Demo_Suites_V2.0.0/GD32F30x_Firmware_Library/GD32F30x_standard_peripheral/Source\gd32f30x_i2c.c ****     
 100:C:/Users/49542/Desktop/GD32F30x_Demo_Suites_V2.0.0/GD32F30x_Demo_Suites_V2.0.0/GD32F30x_Firmware_Library/GD32F30x_standard_peripheral/Source\gd32f30x_i2c.c ****     I2C_CTL1(i2c_periph) = temp;
 151              		.loc 1 100 0
 152 0042 FB68     		ldr	r3, [r7, #12]
 153 0044 0433     		adds	r3, r3, #4
 154 0046 1A46     		mov	r2, r3
 155 0048 BB69     		ldr	r3, [r7, #24]
 156 004a 1360     		str	r3, [r2]
 101:C:/Users/49542/Desktop/GD32F30x_Demo_Suites_V2.0.0/GD32F30x_Demo_Suites_V2.0.0/GD32F30x_Firmware_Library/GD32F30x_standard_peripheral/Source\gd32f30x_i2c.c ****     
 102:C:/Users/49542/Desktop/GD32F30x_Demo_Suites_V2.0.0/GD32F30x_Demo_Suites_V2.0.0/GD32F30x_Firmware_Library/GD32F30x_standard_peripheral/Source\gd32f30x_i2c.c ****     if(100000U >= clkspeed){
 157              		.loc 1 102 0
 158 004c BB68     		ldr	r3, [r7, #8]
 159 004e 6C4A     		ldr	r2, .L23+4
 160 0050 9342     		cmp	r3, r2
 161 0052 33D8     		bhi	.L10
 103:C:/Users/49542/Desktop/GD32F30x_Demo_Suites_V2.0.0/GD32F30x_Demo_Suites_V2.0.0/GD32F30x_Firmware_Library/GD32F30x_standard_peripheral/Source\gd32f30x_i2c.c ****         /* the maximum SCL rise time is 1000ns in standard mode */
 104:C:/Users/49542/Desktop/GD32F30x_Demo_Suites_V2.0.0/GD32F30x_Demo_Suites_V2.0.0/GD32F30x_Firmware_Library/GD32F30x_standard_peripheral/Source\gd32f30x_i2c.c ****         risetime = (uint32_t)((pclk1/1000000U)+1U);
 162              		.loc 1 104 0
 163 0054 FB69     		ldr	r3, [r7, #28]
 164 0056 694A     		ldr	r2, .L23
 165 0058 A2FB0323 		umull	r2, r3, r2, r3
 166 005c 9B0C     		lsrs	r3, r3, #18
 167 005e 0133     		adds	r3, r3, #1
 168 0060 7B61     		str	r3, [r7, #20]
 105:C:/Users/49542/Desktop/GD32F30x_Demo_Suites_V2.0.0/GD32F30x_Demo_Suites_V2.0.0/GD32F30x_Firmware_Library/GD32F30x_standard_peripheral/Source\gd32f30x_i2c.c ****         if(risetime >= I2CCLK_MAX){
 169              		.loc 1 105 0
 170 0062 7B69     		ldr	r3, [r7, #20]
 171 0064 3B2B     		cmp	r3, #59
 172 0066 05D9     		bls	.L11
 106:C:/Users/49542/Desktop/GD32F30x_Demo_Suites_V2.0.0/GD32F30x_Demo_Suites_V2.0.0/GD32F30x_Firmware_Library/GD32F30x_standard_peripheral/Source\gd32f30x_i2c.c ****             I2C_RT(i2c_periph) = I2CCLK_MAX;
 173              		.loc 1 106 0
 174 0068 FB68     		ldr	r3, [r7, #12]
 175 006a 2033     		adds	r3, r3, #32
 176 006c 1A46     		mov	r2, r3
ARM GAS  C:\Users\49542\AppData\Local\Temp\ccmqPkvL.s 			page 6


 177 006e 3C23     		movs	r3, #60
 178 0070 1360     		str	r3, [r2]
 179 0072 0DE0     		b	.L12
 180              	.L11:
 107:C:/Users/49542/Desktop/GD32F30x_Demo_Suites_V2.0.0/GD32F30x_Demo_Suites_V2.0.0/GD32F30x_Firmware_Library/GD32F30x_standard_peripheral/Source\gd32f30x_i2c.c ****         }else if(risetime <= I2CCLK_MIN){
 181              		.loc 1 107 0
 182 0074 7B69     		ldr	r3, [r7, #20]
 183 0076 022B     		cmp	r3, #2
 184 0078 05D8     		bhi	.L13
 108:C:/Users/49542/Desktop/GD32F30x_Demo_Suites_V2.0.0/GD32F30x_Demo_Suites_V2.0.0/GD32F30x_Firmware_Library/GD32F30x_standard_peripheral/Source\gd32f30x_i2c.c ****             I2C_RT(i2c_periph) = I2CCLK_MIN;
 185              		.loc 1 108 0
 186 007a FB68     		ldr	r3, [r7, #12]
 187 007c 2033     		adds	r3, r3, #32
 188 007e 1A46     		mov	r2, r3
 189 0080 0223     		movs	r3, #2
 190 0082 1360     		str	r3, [r2]
 191 0084 04E0     		b	.L12
 192              	.L13:
 109:C:/Users/49542/Desktop/GD32F30x_Demo_Suites_V2.0.0/GD32F30x_Demo_Suites_V2.0.0/GD32F30x_Firmware_Library/GD32F30x_standard_peripheral/Source\gd32f30x_i2c.c ****         }else{
 110:C:/Users/49542/Desktop/GD32F30x_Demo_Suites_V2.0.0/GD32F30x_Demo_Suites_V2.0.0/GD32F30x_Firmware_Library/GD32F30x_standard_peripheral/Source\gd32f30x_i2c.c ****             I2C_RT(i2c_periph) = risetime;
 193              		.loc 1 110 0
 194 0086 FB68     		ldr	r3, [r7, #12]
 195 0088 2033     		adds	r3, r3, #32
 196 008a 1A46     		mov	r2, r3
 197 008c 7B69     		ldr	r3, [r7, #20]
 198 008e 1360     		str	r3, [r2]
 199              	.L12:
 111:C:/Users/49542/Desktop/GD32F30x_Demo_Suites_V2.0.0/GD32F30x_Demo_Suites_V2.0.0/GD32F30x_Firmware_Library/GD32F30x_standard_peripheral/Source\gd32f30x_i2c.c ****         }
 112:C:/Users/49542/Desktop/GD32F30x_Demo_Suites_V2.0.0/GD32F30x_Demo_Suites_V2.0.0/GD32F30x_Firmware_Library/GD32F30x_standard_peripheral/Source\gd32f30x_i2c.c ****         clkc = (uint32_t)(pclk1/(clkspeed*2U)); 
 200              		.loc 1 112 0
 201 0090 BB68     		ldr	r3, [r7, #8]
 202 0092 5B00     		lsls	r3, r3, #1
 203 0094 FA69     		ldr	r2, [r7, #28]
 204 0096 B2FBF3F3 		udiv	r3, r2, r3
 205 009a 7B62     		str	r3, [r7, #36]
 113:C:/Users/49542/Desktop/GD32F30x_Demo_Suites_V2.0.0/GD32F30x_Demo_Suites_V2.0.0/GD32F30x_Firmware_Library/GD32F30x_standard_peripheral/Source\gd32f30x_i2c.c ****         if(clkc < 0x04U){
 206              		.loc 1 113 0
 207 009c 7B6A     		ldr	r3, [r7, #36]
 208 009e 032B     		cmp	r3, #3
 209 00a0 01D8     		bhi	.L14
 114:C:/Users/49542/Desktop/GD32F30x_Demo_Suites_V2.0.0/GD32F30x_Demo_Suites_V2.0.0/GD32F30x_Firmware_Library/GD32F30x_standard_peripheral/Source\gd32f30x_i2c.c ****             /* the CLKC in standard mode minmum value is 4 */
 115:C:/Users/49542/Desktop/GD32F30x_Demo_Suites_V2.0.0/GD32F30x_Demo_Suites_V2.0.0/GD32F30x_Firmware_Library/GD32F30x_standard_peripheral/Source\gd32f30x_i2c.c ****             clkc = 0x04U;
 210              		.loc 1 115 0
 211 00a2 0423     		movs	r3, #4
 212 00a4 7B62     		str	r3, [r7, #36]
 213              	.L14:
 116:C:/Users/49542/Desktop/GD32F30x_Demo_Suites_V2.0.0/GD32F30x_Demo_Suites_V2.0.0/GD32F30x_Firmware_Library/GD32F30x_standard_peripheral/Source\gd32f30x_i2c.c ****         }
 117:C:/Users/49542/Desktop/GD32F30x_Demo_Suites_V2.0.0/GD32F30x_Demo_Suites_V2.0.0/GD32F30x_Firmware_Library/GD32F30x_standard_peripheral/Source\gd32f30x_i2c.c ****         I2C_CKCFG(i2c_periph) |= (I2C_CKCFG_CLKC & clkc);
 214              		.loc 1 117 0
 215 00a6 FB68     		ldr	r3, [r7, #12]
 216 00a8 1C33     		adds	r3, r3, #28
 217 00aa 1A68     		ldr	r2, [r3]
 218 00ac 7B6A     		ldr	r3, [r7, #36]
 219 00ae C3F30B03 		ubfx	r3, r3, #0, #12
 220 00b2 F968     		ldr	r1, [r7, #12]
 221 00b4 1C31     		adds	r1, r1, #28
 222 00b6 1343     		orrs	r3, r3, r2
ARM GAS  C:\Users\49542\AppData\Local\Temp\ccmqPkvL.s 			page 7


 223 00b8 0B60     		str	r3, [r1]
 118:C:/Users/49542/Desktop/GD32F30x_Demo_Suites_V2.0.0/GD32F30x_Demo_Suites_V2.0.0/GD32F30x_Firmware_Library/GD32F30x_standard_peripheral/Source\gd32f30x_i2c.c **** 
 119:C:/Users/49542/Desktop/GD32F30x_Demo_Suites_V2.0.0/GD32F30x_Demo_Suites_V2.0.0/GD32F30x_Firmware_Library/GD32F30x_standard_peripheral/Source\gd32f30x_i2c.c ****     }else if(400000U >= clkspeed){
 120:C:/Users/49542/Desktop/GD32F30x_Demo_Suites_V2.0.0/GD32F30x_Demo_Suites_V2.0.0/GD32F30x_Firmware_Library/GD32F30x_standard_peripheral/Source\gd32f30x_i2c.c ****         /* the maximum SCL rise time is 300ns in fast mode */
 121:C:/Users/49542/Desktop/GD32F30x_Demo_Suites_V2.0.0/GD32F30x_Demo_Suites_V2.0.0/GD32F30x_Firmware_Library/GD32F30x_standard_peripheral/Source\gd32f30x_i2c.c ****         I2C_RT(i2c_periph) = (uint32_t)(((freq*(uint32_t)300U)/(uint32_t)1000U)+(uint32_t)1U);
 122:C:/Users/49542/Desktop/GD32F30x_Demo_Suites_V2.0.0/GD32F30x_Demo_Suites_V2.0.0/GD32F30x_Firmware_Library/GD32F30x_standard_peripheral/Source\gd32f30x_i2c.c ****         if(I2C_DTCY_2 == dutycyc){
 123:C:/Users/49542/Desktop/GD32F30x_Demo_Suites_V2.0.0/GD32F30x_Demo_Suites_V2.0.0/GD32F30x_Firmware_Library/GD32F30x_standard_peripheral/Source\gd32f30x_i2c.c ****             /* I2C duty cycle is 2 */
 124:C:/Users/49542/Desktop/GD32F30x_Demo_Suites_V2.0.0/GD32F30x_Demo_Suites_V2.0.0/GD32F30x_Firmware_Library/GD32F30x_standard_peripheral/Source\gd32f30x_i2c.c ****             clkc = (uint32_t)(pclk1/(clkspeed*3U));
 125:C:/Users/49542/Desktop/GD32F30x_Demo_Suites_V2.0.0/GD32F30x_Demo_Suites_V2.0.0/GD32F30x_Firmware_Library/GD32F30x_standard_peripheral/Source\gd32f30x_i2c.c ****             I2C_CKCFG(i2c_periph) &= ~I2C_CKCFG_DTCY;
 126:C:/Users/49542/Desktop/GD32F30x_Demo_Suites_V2.0.0/GD32F30x_Demo_Suites_V2.0.0/GD32F30x_Firmware_Library/GD32F30x_standard_peripheral/Source\gd32f30x_i2c.c ****         }else{
 127:C:/Users/49542/Desktop/GD32F30x_Demo_Suites_V2.0.0/GD32F30x_Demo_Suites_V2.0.0/GD32F30x_Firmware_Library/GD32F30x_standard_peripheral/Source\gd32f30x_i2c.c ****             /* I2C duty cycle is 16/9 */
 128:C:/Users/49542/Desktop/GD32F30x_Demo_Suites_V2.0.0/GD32F30x_Demo_Suites_V2.0.0/GD32F30x_Firmware_Library/GD32F30x_standard_peripheral/Source\gd32f30x_i2c.c ****             clkc = (uint32_t)(pclk1/(clkspeed*25U));
 129:C:/Users/49542/Desktop/GD32F30x_Demo_Suites_V2.0.0/GD32F30x_Demo_Suites_V2.0.0/GD32F30x_Firmware_Library/GD32F30x_standard_peripheral/Source\gd32f30x_i2c.c ****             I2C_CKCFG(i2c_periph) |= I2C_CKCFG_DTCY;
 130:C:/Users/49542/Desktop/GD32F30x_Demo_Suites_V2.0.0/GD32F30x_Demo_Suites_V2.0.0/GD32F30x_Firmware_Library/GD32F30x_standard_peripheral/Source\gd32f30x_i2c.c ****         }
 131:C:/Users/49542/Desktop/GD32F30x_Demo_Suites_V2.0.0/GD32F30x_Demo_Suites_V2.0.0/GD32F30x_Firmware_Library/GD32F30x_standard_peripheral/Source\gd32f30x_i2c.c ****         if(0U == (clkc & I2C_CKCFG_CLKC)){
 132:C:/Users/49542/Desktop/GD32F30x_Demo_Suites_V2.0.0/GD32F30x_Demo_Suites_V2.0.0/GD32F30x_Firmware_Library/GD32F30x_standard_peripheral/Source\gd32f30x_i2c.c ****             /* the CLKC in fast mode minmum value is 1 */
 133:C:/Users/49542/Desktop/GD32F30x_Demo_Suites_V2.0.0/GD32F30x_Demo_Suites_V2.0.0/GD32F30x_Firmware_Library/GD32F30x_standard_peripheral/Source\gd32f30x_i2c.c ****             clkc |= 0x0001U;  
 134:C:/Users/49542/Desktop/GD32F30x_Demo_Suites_V2.0.0/GD32F30x_Demo_Suites_V2.0.0/GD32F30x_Firmware_Library/GD32F30x_standard_peripheral/Source\gd32f30x_i2c.c ****         }
 135:C:/Users/49542/Desktop/GD32F30x_Demo_Suites_V2.0.0/GD32F30x_Demo_Suites_V2.0.0/GD32F30x_Firmware_Library/GD32F30x_standard_peripheral/Source\gd32f30x_i2c.c ****         I2C_CKCFG(i2c_periph) |= I2C_CKCFG_FAST;
 136:C:/Users/49542/Desktop/GD32F30x_Demo_Suites_V2.0.0/GD32F30x_Demo_Suites_V2.0.0/GD32F30x_Firmware_Library/GD32F30x_standard_peripheral/Source\gd32f30x_i2c.c ****         I2C_CKCFG(i2c_periph) |= clkc;
 137:C:/Users/49542/Desktop/GD32F30x_Demo_Suites_V2.0.0/GD32F30x_Demo_Suites_V2.0.0/GD32F30x_Firmware_Library/GD32F30x_standard_peripheral/Source\gd32f30x_i2c.c ****     }else{
 138:C:/Users/49542/Desktop/GD32F30x_Demo_Suites_V2.0.0/GD32F30x_Demo_Suites_V2.0.0/GD32F30x_Firmware_Library/GD32F30x_standard_peripheral/Source\gd32f30x_i2c.c ****         /* fast mode plus, the maximum SCL rise time is 120ns */
 139:C:/Users/49542/Desktop/GD32F30x_Demo_Suites_V2.0.0/GD32F30x_Demo_Suites_V2.0.0/GD32F30x_Firmware_Library/GD32F30x_standard_peripheral/Source\gd32f30x_i2c.c ****         I2C_RT(i2c_periph) = (uint32_t)(((freq*(uint32_t)120U)/(uint32_t)1000U)+(uint32_t)1U);
 140:C:/Users/49542/Desktop/GD32F30x_Demo_Suites_V2.0.0/GD32F30x_Demo_Suites_V2.0.0/GD32F30x_Firmware_Library/GD32F30x_standard_peripheral/Source\gd32f30x_i2c.c ****         if(I2C_DTCY_2 == dutycyc){
 141:C:/Users/49542/Desktop/GD32F30x_Demo_Suites_V2.0.0/GD32F30x_Demo_Suites_V2.0.0/GD32F30x_Firmware_Library/GD32F30x_standard_peripheral/Source\gd32f30x_i2c.c ****             /* I2C duty cycle is 2 */
 142:C:/Users/49542/Desktop/GD32F30x_Demo_Suites_V2.0.0/GD32F30x_Demo_Suites_V2.0.0/GD32F30x_Firmware_Library/GD32F30x_standard_peripheral/Source\gd32f30x_i2c.c ****             clkc = (uint32_t)(pclk1/(clkspeed*3U));
 143:C:/Users/49542/Desktop/GD32F30x_Demo_Suites_V2.0.0/GD32F30x_Demo_Suites_V2.0.0/GD32F30x_Firmware_Library/GD32F30x_standard_peripheral/Source\gd32f30x_i2c.c ****             I2C_CKCFG(i2c_periph) &= ~I2C_CKCFG_DTCY;
 144:C:/Users/49542/Desktop/GD32F30x_Demo_Suites_V2.0.0/GD32F30x_Demo_Suites_V2.0.0/GD32F30x_Firmware_Library/GD32F30x_standard_peripheral/Source\gd32f30x_i2c.c ****         }else{
 145:C:/Users/49542/Desktop/GD32F30x_Demo_Suites_V2.0.0/GD32F30x_Demo_Suites_V2.0.0/GD32F30x_Firmware_Library/GD32F30x_standard_peripheral/Source\gd32f30x_i2c.c ****             /* I2C duty cycle is 16/9 */
 146:C:/Users/49542/Desktop/GD32F30x_Demo_Suites_V2.0.0/GD32F30x_Demo_Suites_V2.0.0/GD32F30x_Firmware_Library/GD32F30x_standard_peripheral/Source\gd32f30x_i2c.c ****             clkc = (uint32_t)(pclk1/(clkspeed*25U));
 147:C:/Users/49542/Desktop/GD32F30x_Demo_Suites_V2.0.0/GD32F30x_Demo_Suites_V2.0.0/GD32F30x_Firmware_Library/GD32F30x_standard_peripheral/Source\gd32f30x_i2c.c ****             I2C_CKCFG(i2c_periph) |= I2C_CKCFG_DTCY;
 148:C:/Users/49542/Desktop/GD32F30x_Demo_Suites_V2.0.0/GD32F30x_Demo_Suites_V2.0.0/GD32F30x_Firmware_Library/GD32F30x_standard_peripheral/Source\gd32f30x_i2c.c ****         }
 149:C:/Users/49542/Desktop/GD32F30x_Demo_Suites_V2.0.0/GD32F30x_Demo_Suites_V2.0.0/GD32F30x_Firmware_Library/GD32F30x_standard_peripheral/Source\gd32f30x_i2c.c ****         /* enable fast mode */
 150:C:/Users/49542/Desktop/GD32F30x_Demo_Suites_V2.0.0/GD32F30x_Demo_Suites_V2.0.0/GD32F30x_Firmware_Library/GD32F30x_standard_peripheral/Source\gd32f30x_i2c.c ****         I2C_CKCFG(i2c_periph) |= I2C_CKCFG_FAST;
 151:C:/Users/49542/Desktop/GD32F30x_Demo_Suites_V2.0.0/GD32F30x_Demo_Suites_V2.0.0/GD32F30x_Firmware_Library/GD32F30x_standard_peripheral/Source\gd32f30x_i2c.c ****         I2C_CKCFG(i2c_periph) |= clkc;
 152:C:/Users/49542/Desktop/GD32F30x_Demo_Suites_V2.0.0/GD32F30x_Demo_Suites_V2.0.0/GD32F30x_Firmware_Library/GD32F30x_standard_peripheral/Source\gd32f30x_i2c.c ****         /* enable I2C fast mode plus */
 153:C:/Users/49542/Desktop/GD32F30x_Demo_Suites_V2.0.0/GD32F30x_Demo_Suites_V2.0.0/GD32F30x_Firmware_Library/GD32F30x_standard_peripheral/Source\gd32f30x_i2c.c ****         I2C_FMPCFG(i2c_periph) = I2C_FMPCFG_FMPEN;
 154:C:/Users/49542/Desktop/GD32F30x_Demo_Suites_V2.0.0/GD32F30x_Demo_Suites_V2.0.0/GD32F30x_Firmware_Library/GD32F30x_standard_peripheral/Source\gd32f30x_i2c.c ****     }
 155:C:/Users/49542/Desktop/GD32F30x_Demo_Suites_V2.0.0/GD32F30x_Demo_Suites_V2.0.0/GD32F30x_Firmware_Library/GD32F30x_standard_peripheral/Source\gd32f30x_i2c.c **** }
 224              		.loc 1 155 0
 225 00ba 9BE0     		b	.L22
 226              	.L10:
 119:C:/Users/49542/Desktop/GD32F30x_Demo_Suites_V2.0.0/GD32F30x_Demo_Suites_V2.0.0/GD32F30x_Firmware_Library/GD32F30x_standard_peripheral/Source\gd32f30x_i2c.c ****         /* the maximum SCL rise time is 300ns in fast mode */
 227              		.loc 1 119 0
 228 00bc BB68     		ldr	r3, [r7, #8]
 229 00be 514A     		ldr	r2, .L23+8
 230 00c0 9342     		cmp	r3, r2
 231 00c2 4DD8     		bhi	.L16
 121:C:/Users/49542/Desktop/GD32F30x_Demo_Suites_V2.0.0/GD32F30x_Demo_Suites_V2.0.0/GD32F30x_Firmware_Library/GD32F30x_standard_peripheral/Source\gd32f30x_i2c.c ****         if(I2C_DTCY_2 == dutycyc){
 232              		.loc 1 121 0
 233 00c4 3B6A     		ldr	r3, [r7, #32]
 234 00c6 4FF49672 		mov	r2, #300
 235 00ca 02FB03F3 		mul	r3, r2, r3
 236 00ce 4E4A     		ldr	r2, .L23+12
 237 00d0 A2FB0323 		umull	r2, r3, r2, r3
 238 00d4 9B09     		lsrs	r3, r3, #6
 239 00d6 FA68     		ldr	r2, [r7, #12]
ARM GAS  C:\Users\49542\AppData\Local\Temp\ccmqPkvL.s 			page 8


 240 00d8 2032     		adds	r2, r2, #32
 241 00da 0133     		adds	r3, r3, #1
 242 00dc 1360     		str	r3, [r2]
 122:C:/Users/49542/Desktop/GD32F30x_Demo_Suites_V2.0.0/GD32F30x_Demo_Suites_V2.0.0/GD32F30x_Firmware_Library/GD32F30x_standard_peripheral/Source\gd32f30x_i2c.c ****             /* I2C duty cycle is 2 */
 243              		.loc 1 122 0
 244 00de 7B68     		ldr	r3, [r7, #4]
 245 00e0 002B     		cmp	r3, #0
 246 00e2 10D1     		bne	.L17
 124:C:/Users/49542/Desktop/GD32F30x_Demo_Suites_V2.0.0/GD32F30x_Demo_Suites_V2.0.0/GD32F30x_Firmware_Library/GD32F30x_standard_peripheral/Source\gd32f30x_i2c.c ****             I2C_CKCFG(i2c_periph) &= ~I2C_CKCFG_DTCY;
 247              		.loc 1 124 0
 248 00e4 BA68     		ldr	r2, [r7, #8]
 249 00e6 1346     		mov	r3, r2
 250 00e8 5B00     		lsls	r3, r3, #1
 251 00ea 1344     		add	r3, r3, r2
 252 00ec FA69     		ldr	r2, [r7, #28]
 253 00ee B2FBF3F3 		udiv	r3, r2, r3
 254 00f2 7B62     		str	r3, [r7, #36]
 125:C:/Users/49542/Desktop/GD32F30x_Demo_Suites_V2.0.0/GD32F30x_Demo_Suites_V2.0.0/GD32F30x_Firmware_Library/GD32F30x_standard_peripheral/Source\gd32f30x_i2c.c ****         }else{
 255              		.loc 1 125 0
 256 00f4 FB68     		ldr	r3, [r7, #12]
 257 00f6 1C33     		adds	r3, r3, #28
 258 00f8 1B68     		ldr	r3, [r3]
 259 00fa FA68     		ldr	r2, [r7, #12]
 260 00fc 1C32     		adds	r2, r2, #28
 261 00fe 23F48043 		bic	r3, r3, #16384
 262 0102 1360     		str	r3, [r2]
 263 0104 11E0     		b	.L18
 264              	.L17:
 128:C:/Users/49542/Desktop/GD32F30x_Demo_Suites_V2.0.0/GD32F30x_Demo_Suites_V2.0.0/GD32F30x_Firmware_Library/GD32F30x_standard_peripheral/Source\gd32f30x_i2c.c ****             I2C_CKCFG(i2c_periph) |= I2C_CKCFG_DTCY;
 265              		.loc 1 128 0
 266 0106 BA68     		ldr	r2, [r7, #8]
 267 0108 1346     		mov	r3, r2
 268 010a 9B00     		lsls	r3, r3, #2
 269 010c 1344     		add	r3, r3, r2
 270 010e 9A00     		lsls	r2, r3, #2
 271 0110 1344     		add	r3, r3, r2
 272 0112 FA69     		ldr	r2, [r7, #28]
 273 0114 B2FBF3F3 		udiv	r3, r2, r3
 274 0118 7B62     		str	r3, [r7, #36]
 129:C:/Users/49542/Desktop/GD32F30x_Demo_Suites_V2.0.0/GD32F30x_Demo_Suites_V2.0.0/GD32F30x_Firmware_Library/GD32F30x_standard_peripheral/Source\gd32f30x_i2c.c ****         }
 275              		.loc 1 129 0
 276 011a FB68     		ldr	r3, [r7, #12]
 277 011c 1C33     		adds	r3, r3, #28
 278 011e 1B68     		ldr	r3, [r3]
 279 0120 FA68     		ldr	r2, [r7, #12]
 280 0122 1C32     		adds	r2, r2, #28
 281 0124 43F48043 		orr	r3, r3, #16384
 282 0128 1360     		str	r3, [r2]
 283              	.L18:
 131:C:/Users/49542/Desktop/GD32F30x_Demo_Suites_V2.0.0/GD32F30x_Demo_Suites_V2.0.0/GD32F30x_Firmware_Library/GD32F30x_standard_peripheral/Source\gd32f30x_i2c.c ****             /* the CLKC in fast mode minmum value is 1 */
 284              		.loc 1 131 0
 285 012a 7B6A     		ldr	r3, [r7, #36]
 286 012c C3F30B03 		ubfx	r3, r3, #0, #12
 287 0130 002B     		cmp	r3, #0
 288 0132 03D1     		bne	.L19
 133:C:/Users/49542/Desktop/GD32F30x_Demo_Suites_V2.0.0/GD32F30x_Demo_Suites_V2.0.0/GD32F30x_Firmware_Library/GD32F30x_standard_peripheral/Source\gd32f30x_i2c.c ****         }
 289              		.loc 1 133 0
ARM GAS  C:\Users\49542\AppData\Local\Temp\ccmqPkvL.s 			page 9


 290 0134 7B6A     		ldr	r3, [r7, #36]
 291 0136 43F00103 		orr	r3, r3, #1
 292 013a 7B62     		str	r3, [r7, #36]
 293              	.L19:
 135:C:/Users/49542/Desktop/GD32F30x_Demo_Suites_V2.0.0/GD32F30x_Demo_Suites_V2.0.0/GD32F30x_Firmware_Library/GD32F30x_standard_peripheral/Source\gd32f30x_i2c.c ****         I2C_CKCFG(i2c_periph) |= clkc;
 294              		.loc 1 135 0
 295 013c FB68     		ldr	r3, [r7, #12]
 296 013e 1C33     		adds	r3, r3, #28
 297 0140 1B68     		ldr	r3, [r3]
 298 0142 FA68     		ldr	r2, [r7, #12]
 299 0144 1C32     		adds	r2, r2, #28
 300 0146 43F40043 		orr	r3, r3, #32768
 301 014a 1360     		str	r3, [r2]
 136:C:/Users/49542/Desktop/GD32F30x_Demo_Suites_V2.0.0/GD32F30x_Demo_Suites_V2.0.0/GD32F30x_Firmware_Library/GD32F30x_standard_peripheral/Source\gd32f30x_i2c.c ****     }else{
 302              		.loc 1 136 0
 303 014c FB68     		ldr	r3, [r7, #12]
 304 014e 1C33     		adds	r3, r3, #28
 305 0150 1A68     		ldr	r2, [r3]
 306 0152 FB68     		ldr	r3, [r7, #12]
 307 0154 1C33     		adds	r3, r3, #28
 308 0156 1946     		mov	r1, r3
 309 0158 7B6A     		ldr	r3, [r7, #36]
 310 015a 1343     		orrs	r3, r3, r2
 311 015c 0B60     		str	r3, [r1]
 312              		.loc 1 155 0
 313 015e 49E0     		b	.L22
 314              	.L16:
 139:C:/Users/49542/Desktop/GD32F30x_Demo_Suites_V2.0.0/GD32F30x_Demo_Suites_V2.0.0/GD32F30x_Firmware_Library/GD32F30x_standard_peripheral/Source\gd32f30x_i2c.c ****         if(I2C_DTCY_2 == dutycyc){
 315              		.loc 1 139 0
 316 0160 3A6A     		ldr	r2, [r7, #32]
 317 0162 1346     		mov	r3, r2
 318 0164 1B01     		lsls	r3, r3, #4
 319 0166 9B1A     		subs	r3, r3, r2
 320 0168 DB00     		lsls	r3, r3, #3
 321 016a 1A46     		mov	r2, r3
 322 016c 264B     		ldr	r3, .L23+12
 323 016e A3FB0223 		umull	r2, r3, r3, r2
 324 0172 9B09     		lsrs	r3, r3, #6
 325 0174 FA68     		ldr	r2, [r7, #12]
 326 0176 2032     		adds	r2, r2, #32
 327 0178 0133     		adds	r3, r3, #1
 328 017a 1360     		str	r3, [r2]
 140:C:/Users/49542/Desktop/GD32F30x_Demo_Suites_V2.0.0/GD32F30x_Demo_Suites_V2.0.0/GD32F30x_Firmware_Library/GD32F30x_standard_peripheral/Source\gd32f30x_i2c.c ****             /* I2C duty cycle is 2 */
 329              		.loc 1 140 0
 330 017c 7B68     		ldr	r3, [r7, #4]
 331 017e 002B     		cmp	r3, #0
 332 0180 10D1     		bne	.L20
 142:C:/Users/49542/Desktop/GD32F30x_Demo_Suites_V2.0.0/GD32F30x_Demo_Suites_V2.0.0/GD32F30x_Firmware_Library/GD32F30x_standard_peripheral/Source\gd32f30x_i2c.c ****             I2C_CKCFG(i2c_periph) &= ~I2C_CKCFG_DTCY;
 333              		.loc 1 142 0
 334 0182 BA68     		ldr	r2, [r7, #8]
 335 0184 1346     		mov	r3, r2
 336 0186 5B00     		lsls	r3, r3, #1
 337 0188 1344     		add	r3, r3, r2
 338 018a FA69     		ldr	r2, [r7, #28]
 339 018c B2FBF3F3 		udiv	r3, r2, r3
 340 0190 7B62     		str	r3, [r7, #36]
 143:C:/Users/49542/Desktop/GD32F30x_Demo_Suites_V2.0.0/GD32F30x_Demo_Suites_V2.0.0/GD32F30x_Firmware_Library/GD32F30x_standard_peripheral/Source\gd32f30x_i2c.c ****         }else{
ARM GAS  C:\Users\49542\AppData\Local\Temp\ccmqPkvL.s 			page 10


 341              		.loc 1 143 0
 342 0192 FB68     		ldr	r3, [r7, #12]
 343 0194 1C33     		adds	r3, r3, #28
 344 0196 1B68     		ldr	r3, [r3]
 345 0198 FA68     		ldr	r2, [r7, #12]
 346 019a 1C32     		adds	r2, r2, #28
 347 019c 23F48043 		bic	r3, r3, #16384
 348 01a0 1360     		str	r3, [r2]
 349 01a2 11E0     		b	.L21
 350              	.L20:
 146:C:/Users/49542/Desktop/GD32F30x_Demo_Suites_V2.0.0/GD32F30x_Demo_Suites_V2.0.0/GD32F30x_Firmware_Library/GD32F30x_standard_peripheral/Source\gd32f30x_i2c.c ****             I2C_CKCFG(i2c_periph) |= I2C_CKCFG_DTCY;
 351              		.loc 1 146 0
 352 01a4 BA68     		ldr	r2, [r7, #8]
 353 01a6 1346     		mov	r3, r2
 354 01a8 9B00     		lsls	r3, r3, #2
 355 01aa 1344     		add	r3, r3, r2
 356 01ac 9A00     		lsls	r2, r3, #2
 357 01ae 1344     		add	r3, r3, r2
 358 01b0 FA69     		ldr	r2, [r7, #28]
 359 01b2 B2FBF3F3 		udiv	r3, r2, r3
 360 01b6 7B62     		str	r3, [r7, #36]
 147:C:/Users/49542/Desktop/GD32F30x_Demo_Suites_V2.0.0/GD32F30x_Demo_Suites_V2.0.0/GD32F30x_Firmware_Library/GD32F30x_standard_peripheral/Source\gd32f30x_i2c.c ****         }
 361              		.loc 1 147 0
 362 01b8 FB68     		ldr	r3, [r7, #12]
 363 01ba 1C33     		adds	r3, r3, #28
 364 01bc 1B68     		ldr	r3, [r3]
 365 01be FA68     		ldr	r2, [r7, #12]
 366 01c0 1C32     		adds	r2, r2, #28
 367 01c2 43F48043 		orr	r3, r3, #16384
 368 01c6 1360     		str	r3, [r2]
 369              	.L21:
 150:C:/Users/49542/Desktop/GD32F30x_Demo_Suites_V2.0.0/GD32F30x_Demo_Suites_V2.0.0/GD32F30x_Firmware_Library/GD32F30x_standard_peripheral/Source\gd32f30x_i2c.c ****         I2C_CKCFG(i2c_periph) |= clkc;
 370              		.loc 1 150 0
 371 01c8 FB68     		ldr	r3, [r7, #12]
 372 01ca 1C33     		adds	r3, r3, #28
 373 01cc 1B68     		ldr	r3, [r3]
 374 01ce FA68     		ldr	r2, [r7, #12]
 375 01d0 1C32     		adds	r2, r2, #28
 376 01d2 43F40043 		orr	r3, r3, #32768
 377 01d6 1360     		str	r3, [r2]
 151:C:/Users/49542/Desktop/GD32F30x_Demo_Suites_V2.0.0/GD32F30x_Demo_Suites_V2.0.0/GD32F30x_Firmware_Library/GD32F30x_standard_peripheral/Source\gd32f30x_i2c.c ****         /* enable I2C fast mode plus */
 378              		.loc 1 151 0
 379 01d8 FB68     		ldr	r3, [r7, #12]
 380 01da 1C33     		adds	r3, r3, #28
 381 01dc 1A68     		ldr	r2, [r3]
 382 01de FB68     		ldr	r3, [r7, #12]
 383 01e0 1C33     		adds	r3, r3, #28
 384 01e2 1946     		mov	r1, r3
 385 01e4 7B6A     		ldr	r3, [r7, #36]
 386 01e6 1343     		orrs	r3, r3, r2
 387 01e8 0B60     		str	r3, [r1]
 153:C:/Users/49542/Desktop/GD32F30x_Demo_Suites_V2.0.0/GD32F30x_Demo_Suites_V2.0.0/GD32F30x_Firmware_Library/GD32F30x_standard_peripheral/Source\gd32f30x_i2c.c ****     }
 388              		.loc 1 153 0
 389 01ea FB68     		ldr	r3, [r7, #12]
 390 01ec 9033     		adds	r3, r3, #144
 391 01ee 1A46     		mov	r2, r3
 392 01f0 0123     		movs	r3, #1
ARM GAS  C:\Users\49542\AppData\Local\Temp\ccmqPkvL.s 			page 11


 393 01f2 1360     		str	r3, [r2]
 394              	.L22:
 395              		.loc 1 155 0
 396 01f4 00BF     		nop
 397 01f6 2837     		adds	r7, r7, #40
 398              	.LCFI8:
 399              		.cfi_def_cfa_offset 8
 400 01f8 BD46     		mov	sp, r7
 401              	.LCFI9:
 402              		.cfi_def_cfa_register 13
 403              		@ sp needed
 404 01fa 80BD     		pop	{r7, pc}
 405              	.L24:
 406              		.align	2
 407              	.L23:
 408 01fc 83DE1B43 		.word	1125899907
 409 0200 A0860100 		.word	100000
 410 0204 801A0600 		.word	400000
 411 0208 D34D6210 		.word	274877907
 412              		.cfi_endproc
 413              	.LFE117:
 415              		.section	.text.i2c_mode_addr_config,"ax",%progbits
 416              		.align	1
 417              		.global	i2c_mode_addr_config
 418              		.syntax unified
 419              		.thumb
 420              		.thumb_func
 421              		.fpu fpv4-sp-d16
 423              	i2c_mode_addr_config:
 424              	.LFB118:
 156:C:/Users/49542/Desktop/GD32F30x_Demo_Suites_V2.0.0/GD32F30x_Demo_Suites_V2.0.0/GD32F30x_Firmware_Library/GD32F30x_standard_peripheral/Source\gd32f30x_i2c.c **** 
 157:C:/Users/49542/Desktop/GD32F30x_Demo_Suites_V2.0.0/GD32F30x_Demo_Suites_V2.0.0/GD32F30x_Firmware_Library/GD32F30x_standard_peripheral/Source\gd32f30x_i2c.c **** /*!
 158:C:/Users/49542/Desktop/GD32F30x_Demo_Suites_V2.0.0/GD32F30x_Demo_Suites_V2.0.0/GD32F30x_Firmware_Library/GD32F30x_standard_peripheral/Source\gd32f30x_i2c.c ****     \brief      configure I2C address 
 159:C:/Users/49542/Desktop/GD32F30x_Demo_Suites_V2.0.0/GD32F30x_Demo_Suites_V2.0.0/GD32F30x_Firmware_Library/GD32F30x_standard_peripheral/Source\gd32f30x_i2c.c ****     \param[in]  i2c_periph: I2Cx(x=0,1)
 160:C:/Users/49542/Desktop/GD32F30x_Demo_Suites_V2.0.0/GD32F30x_Demo_Suites_V2.0.0/GD32F30x_Firmware_Library/GD32F30x_standard_peripheral/Source\gd32f30x_i2c.c ****     \param[in]  mode:
 161:C:/Users/49542/Desktop/GD32F30x_Demo_Suites_V2.0.0/GD32F30x_Demo_Suites_V2.0.0/GD32F30x_Firmware_Library/GD32F30x_standard_peripheral/Source\gd32f30x_i2c.c ****                 only one parameter can be selected which is shown as below:
 162:C:/Users/49542/Desktop/GD32F30x_Demo_Suites_V2.0.0/GD32F30x_Demo_Suites_V2.0.0/GD32F30x_Firmware_Library/GD32F30x_standard_peripheral/Source\gd32f30x_i2c.c ****       \arg        I2C_I2CMODE_ENABLE: I2C mode
 163:C:/Users/49542/Desktop/GD32F30x_Demo_Suites_V2.0.0/GD32F30x_Demo_Suites_V2.0.0/GD32F30x_Firmware_Library/GD32F30x_standard_peripheral/Source\gd32f30x_i2c.c ****       \arg        I2C_SMBUSMODE_ENABLE: SMBus mode
 164:C:/Users/49542/Desktop/GD32F30x_Demo_Suites_V2.0.0/GD32F30x_Demo_Suites_V2.0.0/GD32F30x_Firmware_Library/GD32F30x_standard_peripheral/Source\gd32f30x_i2c.c ****     \param[in]  addformat: 7bits or 10bits
 165:C:/Users/49542/Desktop/GD32F30x_Demo_Suites_V2.0.0/GD32F30x_Demo_Suites_V2.0.0/GD32F30x_Firmware_Library/GD32F30x_standard_peripheral/Source\gd32f30x_i2c.c ****                 only one parameter can be selected which is shown as below:
 166:C:/Users/49542/Desktop/GD32F30x_Demo_Suites_V2.0.0/GD32F30x_Demo_Suites_V2.0.0/GD32F30x_Firmware_Library/GD32F30x_standard_peripheral/Source\gd32f30x_i2c.c ****       \arg        I2C_ADDFORMAT_7BITS: 7bits
 167:C:/Users/49542/Desktop/GD32F30x_Demo_Suites_V2.0.0/GD32F30x_Demo_Suites_V2.0.0/GD32F30x_Firmware_Library/GD32F30x_standard_peripheral/Source\gd32f30x_i2c.c ****       \arg        I2C_ADDFORMAT_10BITS: 10bits
 168:C:/Users/49542/Desktop/GD32F30x_Demo_Suites_V2.0.0/GD32F30x_Demo_Suites_V2.0.0/GD32F30x_Firmware_Library/GD32F30x_standard_peripheral/Source\gd32f30x_i2c.c ****     \param[in]  addr: I2C address
 169:C:/Users/49542/Desktop/GD32F30x_Demo_Suites_V2.0.0/GD32F30x_Demo_Suites_V2.0.0/GD32F30x_Firmware_Library/GD32F30x_standard_peripheral/Source\gd32f30x_i2c.c ****     \param[out] none
 170:C:/Users/49542/Desktop/GD32F30x_Demo_Suites_V2.0.0/GD32F30x_Demo_Suites_V2.0.0/GD32F30x_Firmware_Library/GD32F30x_standard_peripheral/Source\gd32f30x_i2c.c ****     \retval     none
 171:C:/Users/49542/Desktop/GD32F30x_Demo_Suites_V2.0.0/GD32F30x_Demo_Suites_V2.0.0/GD32F30x_Firmware_Library/GD32F30x_standard_peripheral/Source\gd32f30x_i2c.c **** */
 172:C:/Users/49542/Desktop/GD32F30x_Demo_Suites_V2.0.0/GD32F30x_Demo_Suites_V2.0.0/GD32F30x_Firmware_Library/GD32F30x_standard_peripheral/Source\gd32f30x_i2c.c **** void i2c_mode_addr_config(uint32_t i2c_periph, uint32_t mode, uint32_t addformat, uint32_t addr)
 173:C:/Users/49542/Desktop/GD32F30x_Demo_Suites_V2.0.0/GD32F30x_Demo_Suites_V2.0.0/GD32F30x_Firmware_Library/GD32F30x_standard_peripheral/Source\gd32f30x_i2c.c **** {
 425              		.loc 1 173 0
 426              		.cfi_startproc
 427              		@ args = 0, pretend = 0, frame = 24
 428              		@ frame_needed = 1, uses_anonymous_args = 0
 429              		@ link register save eliminated.
 430 0000 80B4     		push	{r7}
 431              	.LCFI10:
 432              		.cfi_def_cfa_offset 4
 433              		.cfi_offset 7, -4
ARM GAS  C:\Users\49542\AppData\Local\Temp\ccmqPkvL.s 			page 12


 434 0002 87B0     		sub	sp, sp, #28
 435              	.LCFI11:
 436              		.cfi_def_cfa_offset 32
 437 0004 00AF     		add	r7, sp, #0
 438              	.LCFI12:
 439              		.cfi_def_cfa_register 7
 440 0006 F860     		str	r0, [r7, #12]
 441 0008 B960     		str	r1, [r7, #8]
 442 000a 7A60     		str	r2, [r7, #4]
 443 000c 3B60     		str	r3, [r7]
 174:C:/Users/49542/Desktop/GD32F30x_Demo_Suites_V2.0.0/GD32F30x_Demo_Suites_V2.0.0/GD32F30x_Firmware_Library/GD32F30x_standard_peripheral/Source\gd32f30x_i2c.c ****     /* SMBus/I2C mode selected */
 175:C:/Users/49542/Desktop/GD32F30x_Demo_Suites_V2.0.0/GD32F30x_Demo_Suites_V2.0.0/GD32F30x_Firmware_Library/GD32F30x_standard_peripheral/Source\gd32f30x_i2c.c ****     uint32_t ctl = 0U;
 444              		.loc 1 175 0
 445 000e 0023     		movs	r3, #0
 446 0010 7B61     		str	r3, [r7, #20]
 176:C:/Users/49542/Desktop/GD32F30x_Demo_Suites_V2.0.0/GD32F30x_Demo_Suites_V2.0.0/GD32F30x_Firmware_Library/GD32F30x_standard_peripheral/Source\gd32f30x_i2c.c **** 
 177:C:/Users/49542/Desktop/GD32F30x_Demo_Suites_V2.0.0/GD32F30x_Demo_Suites_V2.0.0/GD32F30x_Firmware_Library/GD32F30x_standard_peripheral/Source\gd32f30x_i2c.c ****     ctl = I2C_CTL0(i2c_periph);
 447              		.loc 1 177 0
 448 0012 FB68     		ldr	r3, [r7, #12]
 449 0014 1B68     		ldr	r3, [r3]
 450 0016 7B61     		str	r3, [r7, #20]
 178:C:/Users/49542/Desktop/GD32F30x_Demo_Suites_V2.0.0/GD32F30x_Demo_Suites_V2.0.0/GD32F30x_Firmware_Library/GD32F30x_standard_peripheral/Source\gd32f30x_i2c.c ****     ctl &= ~(I2C_CTL0_SMBEN); 
 451              		.loc 1 178 0
 452 0018 7B69     		ldr	r3, [r7, #20]
 453 001a 23F00203 		bic	r3, r3, #2
 454 001e 7B61     		str	r3, [r7, #20]
 179:C:/Users/49542/Desktop/GD32F30x_Demo_Suites_V2.0.0/GD32F30x_Demo_Suites_V2.0.0/GD32F30x_Firmware_Library/GD32F30x_standard_peripheral/Source\gd32f30x_i2c.c ****     ctl |= mode;
 455              		.loc 1 179 0
 456 0020 7A69     		ldr	r2, [r7, #20]
 457 0022 BB68     		ldr	r3, [r7, #8]
 458 0024 1343     		orrs	r3, r3, r2
 459 0026 7B61     		str	r3, [r7, #20]
 180:C:/Users/49542/Desktop/GD32F30x_Demo_Suites_V2.0.0/GD32F30x_Demo_Suites_V2.0.0/GD32F30x_Firmware_Library/GD32F30x_standard_peripheral/Source\gd32f30x_i2c.c ****     I2C_CTL0(i2c_periph) = ctl;
 460              		.loc 1 180 0
 461 0028 FB68     		ldr	r3, [r7, #12]
 462 002a 7A69     		ldr	r2, [r7, #20]
 463 002c 1A60     		str	r2, [r3]
 181:C:/Users/49542/Desktop/GD32F30x_Demo_Suites_V2.0.0/GD32F30x_Demo_Suites_V2.0.0/GD32F30x_Firmware_Library/GD32F30x_standard_peripheral/Source\gd32f30x_i2c.c ****     /* configure address */
 182:C:/Users/49542/Desktop/GD32F30x_Demo_Suites_V2.0.0/GD32F30x_Demo_Suites_V2.0.0/GD32F30x_Firmware_Library/GD32F30x_standard_peripheral/Source\gd32f30x_i2c.c ****     addr = addr & I2C_ADDRESS_MASK;
 464              		.loc 1 182 0
 465 002e 3B68     		ldr	r3, [r7]
 466 0030 C3F30903 		ubfx	r3, r3, #0, #10
 467 0034 3B60     		str	r3, [r7]
 183:C:/Users/49542/Desktop/GD32F30x_Demo_Suites_V2.0.0/GD32F30x_Demo_Suites_V2.0.0/GD32F30x_Firmware_Library/GD32F30x_standard_peripheral/Source\gd32f30x_i2c.c ****     I2C_SADDR0(i2c_periph) = (addformat | addr);
 468              		.loc 1 183 0
 469 0036 FB68     		ldr	r3, [r7, #12]
 470 0038 0833     		adds	r3, r3, #8
 471 003a 1946     		mov	r1, r3
 472 003c 7A68     		ldr	r2, [r7, #4]
 473 003e 3B68     		ldr	r3, [r7]
 474 0040 1343     		orrs	r3, r3, r2
 475 0042 0B60     		str	r3, [r1]
 184:C:/Users/49542/Desktop/GD32F30x_Demo_Suites_V2.0.0/GD32F30x_Demo_Suites_V2.0.0/GD32F30x_Firmware_Library/GD32F30x_standard_peripheral/Source\gd32f30x_i2c.c **** }
 476              		.loc 1 184 0
 477 0044 00BF     		nop
 478 0046 1C37     		adds	r7, r7, #28
 479              	.LCFI13:
ARM GAS  C:\Users\49542\AppData\Local\Temp\ccmqPkvL.s 			page 13


 480              		.cfi_def_cfa_offset 4
 481 0048 BD46     		mov	sp, r7
 482              	.LCFI14:
 483              		.cfi_def_cfa_register 13
 484              		@ sp needed
 485 004a 5DF8047B 		ldr	r7, [sp], #4
 486              	.LCFI15:
 487              		.cfi_restore 7
 488              		.cfi_def_cfa_offset 0
 489 004e 7047     		bx	lr
 490              		.cfi_endproc
 491              	.LFE118:
 493              		.section	.text.i2c_smbus_type_config,"ax",%progbits
 494              		.align	1
 495              		.global	i2c_smbus_type_config
 496              		.syntax unified
 497              		.thumb
 498              		.thumb_func
 499              		.fpu fpv4-sp-d16
 501              	i2c_smbus_type_config:
 502              	.LFB119:
 185:C:/Users/49542/Desktop/GD32F30x_Demo_Suites_V2.0.0/GD32F30x_Demo_Suites_V2.0.0/GD32F30x_Firmware_Library/GD32F30x_standard_peripheral/Source\gd32f30x_i2c.c **** 
 186:C:/Users/49542/Desktop/GD32F30x_Demo_Suites_V2.0.0/GD32F30x_Demo_Suites_V2.0.0/GD32F30x_Firmware_Library/GD32F30x_standard_peripheral/Source\gd32f30x_i2c.c **** /*!
 187:C:/Users/49542/Desktop/GD32F30x_Demo_Suites_V2.0.0/GD32F30x_Demo_Suites_V2.0.0/GD32F30x_Firmware_Library/GD32F30x_standard_peripheral/Source\gd32f30x_i2c.c ****     \brief      SMBus type selection
 188:C:/Users/49542/Desktop/GD32F30x_Demo_Suites_V2.0.0/GD32F30x_Demo_Suites_V2.0.0/GD32F30x_Firmware_Library/GD32F30x_standard_peripheral/Source\gd32f30x_i2c.c ****     \param[in]  i2c_periph: I2Cx(x=0,1)
 189:C:/Users/49542/Desktop/GD32F30x_Demo_Suites_V2.0.0/GD32F30x_Demo_Suites_V2.0.0/GD32F30x_Firmware_Library/GD32F30x_standard_peripheral/Source\gd32f30x_i2c.c ****     \param[in]  type:
 190:C:/Users/49542/Desktop/GD32F30x_Demo_Suites_V2.0.0/GD32F30x_Demo_Suites_V2.0.0/GD32F30x_Firmware_Library/GD32F30x_standard_peripheral/Source\gd32f30x_i2c.c ****                 only one parameter can be selected which is shown as below:
 191:C:/Users/49542/Desktop/GD32F30x_Demo_Suites_V2.0.0/GD32F30x_Demo_Suites_V2.0.0/GD32F30x_Firmware_Library/GD32F30x_standard_peripheral/Source\gd32f30x_i2c.c ****       \arg        I2C_SMBUS_DEVICE: device
 192:C:/Users/49542/Desktop/GD32F30x_Demo_Suites_V2.0.0/GD32F30x_Demo_Suites_V2.0.0/GD32F30x_Firmware_Library/GD32F30x_standard_peripheral/Source\gd32f30x_i2c.c ****       \arg        I2C_SMBUS_HOST: host
 193:C:/Users/49542/Desktop/GD32F30x_Demo_Suites_V2.0.0/GD32F30x_Demo_Suites_V2.0.0/GD32F30x_Firmware_Library/GD32F30x_standard_peripheral/Source\gd32f30x_i2c.c ****     \param[out] none
 194:C:/Users/49542/Desktop/GD32F30x_Demo_Suites_V2.0.0/GD32F30x_Demo_Suites_V2.0.0/GD32F30x_Firmware_Library/GD32F30x_standard_peripheral/Source\gd32f30x_i2c.c ****     \retval     none
 195:C:/Users/49542/Desktop/GD32F30x_Demo_Suites_V2.0.0/GD32F30x_Demo_Suites_V2.0.0/GD32F30x_Firmware_Library/GD32F30x_standard_peripheral/Source\gd32f30x_i2c.c **** */
 196:C:/Users/49542/Desktop/GD32F30x_Demo_Suites_V2.0.0/GD32F30x_Demo_Suites_V2.0.0/GD32F30x_Firmware_Library/GD32F30x_standard_peripheral/Source\gd32f30x_i2c.c **** void i2c_smbus_type_config(uint32_t i2c_periph, uint32_t type)
 197:C:/Users/49542/Desktop/GD32F30x_Demo_Suites_V2.0.0/GD32F30x_Demo_Suites_V2.0.0/GD32F30x_Firmware_Library/GD32F30x_standard_peripheral/Source\gd32f30x_i2c.c **** {
 503              		.loc 1 197 0
 504              		.cfi_startproc
 505              		@ args = 0, pretend = 0, frame = 8
 506              		@ frame_needed = 1, uses_anonymous_args = 0
 507              		@ link register save eliminated.
 508 0000 80B4     		push	{r7}
 509              	.LCFI16:
 510              		.cfi_def_cfa_offset 4
 511              		.cfi_offset 7, -4
 512 0002 83B0     		sub	sp, sp, #12
 513              	.LCFI17:
 514              		.cfi_def_cfa_offset 16
 515 0004 00AF     		add	r7, sp, #0
 516              	.LCFI18:
 517              		.cfi_def_cfa_register 7
 518 0006 7860     		str	r0, [r7, #4]
 519 0008 3960     		str	r1, [r7]
 198:C:/Users/49542/Desktop/GD32F30x_Demo_Suites_V2.0.0/GD32F30x_Demo_Suites_V2.0.0/GD32F30x_Firmware_Library/GD32F30x_standard_peripheral/Source\gd32f30x_i2c.c ****     if(I2C_SMBUS_HOST == type){
 520              		.loc 1 198 0
 521 000a 3B68     		ldr	r3, [r7]
 522 000c 082B     		cmp	r3, #8
 523 000e 06D1     		bne	.L27
 199:C:/Users/49542/Desktop/GD32F30x_Demo_Suites_V2.0.0/GD32F30x_Demo_Suites_V2.0.0/GD32F30x_Firmware_Library/GD32F30x_standard_peripheral/Source\gd32f30x_i2c.c ****         I2C_CTL0(i2c_periph) |= I2C_CTL0_SMBSEL;
ARM GAS  C:\Users\49542\AppData\Local\Temp\ccmqPkvL.s 			page 14


 524              		.loc 1 199 0
 525 0010 7B68     		ldr	r3, [r7, #4]
 526 0012 1A68     		ldr	r2, [r3]
 527 0014 7B68     		ldr	r3, [r7, #4]
 528 0016 42F00802 		orr	r2, r2, #8
 529 001a 1A60     		str	r2, [r3]
 200:C:/Users/49542/Desktop/GD32F30x_Demo_Suites_V2.0.0/GD32F30x_Demo_Suites_V2.0.0/GD32F30x_Firmware_Library/GD32F30x_standard_peripheral/Source\gd32f30x_i2c.c ****     }else{
 201:C:/Users/49542/Desktop/GD32F30x_Demo_Suites_V2.0.0/GD32F30x_Demo_Suites_V2.0.0/GD32F30x_Firmware_Library/GD32F30x_standard_peripheral/Source\gd32f30x_i2c.c ****         I2C_CTL0(i2c_periph) &= ~(I2C_CTL0_SMBSEL);
 202:C:/Users/49542/Desktop/GD32F30x_Demo_Suites_V2.0.0/GD32F30x_Demo_Suites_V2.0.0/GD32F30x_Firmware_Library/GD32F30x_standard_peripheral/Source\gd32f30x_i2c.c ****     }
 203:C:/Users/49542/Desktop/GD32F30x_Demo_Suites_V2.0.0/GD32F30x_Demo_Suites_V2.0.0/GD32F30x_Firmware_Library/GD32F30x_standard_peripheral/Source\gd32f30x_i2c.c **** }
 530              		.loc 1 203 0
 531 001c 05E0     		b	.L29
 532              	.L27:
 201:C:/Users/49542/Desktop/GD32F30x_Demo_Suites_V2.0.0/GD32F30x_Demo_Suites_V2.0.0/GD32F30x_Firmware_Library/GD32F30x_standard_peripheral/Source\gd32f30x_i2c.c ****     }
 533              		.loc 1 201 0
 534 001e 7B68     		ldr	r3, [r7, #4]
 535 0020 1A68     		ldr	r2, [r3]
 536 0022 7B68     		ldr	r3, [r7, #4]
 537 0024 22F00802 		bic	r2, r2, #8
 538 0028 1A60     		str	r2, [r3]
 539              	.L29:
 540              		.loc 1 203 0
 541 002a 00BF     		nop
 542 002c 0C37     		adds	r7, r7, #12
 543              	.LCFI19:
 544              		.cfi_def_cfa_offset 4
 545 002e BD46     		mov	sp, r7
 546              	.LCFI20:
 547              		.cfi_def_cfa_register 13
 548              		@ sp needed
 549 0030 5DF8047B 		ldr	r7, [sp], #4
 550              	.LCFI21:
 551              		.cfi_restore 7
 552              		.cfi_def_cfa_offset 0
 553 0034 7047     		bx	lr
 554              		.cfi_endproc
 555              	.LFE119:
 557              		.section	.text.i2c_ack_config,"ax",%progbits
 558              		.align	1
 559              		.global	i2c_ack_config
 560              		.syntax unified
 561              		.thumb
 562              		.thumb_func
 563              		.fpu fpv4-sp-d16
 565              	i2c_ack_config:
 566              	.LFB120:
 204:C:/Users/49542/Desktop/GD32F30x_Demo_Suites_V2.0.0/GD32F30x_Demo_Suites_V2.0.0/GD32F30x_Firmware_Library/GD32F30x_standard_peripheral/Source\gd32f30x_i2c.c **** 
 205:C:/Users/49542/Desktop/GD32F30x_Demo_Suites_V2.0.0/GD32F30x_Demo_Suites_V2.0.0/GD32F30x_Firmware_Library/GD32F30x_standard_peripheral/Source\gd32f30x_i2c.c **** /*!
 206:C:/Users/49542/Desktop/GD32F30x_Demo_Suites_V2.0.0/GD32F30x_Demo_Suites_V2.0.0/GD32F30x_Firmware_Library/GD32F30x_standard_peripheral/Source\gd32f30x_i2c.c ****     \brief      whether or not to send an ACK
 207:C:/Users/49542/Desktop/GD32F30x_Demo_Suites_V2.0.0/GD32F30x_Demo_Suites_V2.0.0/GD32F30x_Firmware_Library/GD32F30x_standard_peripheral/Source\gd32f30x_i2c.c ****     \param[in]  i2c_periph: I2Cx(x=0,1)
 208:C:/Users/49542/Desktop/GD32F30x_Demo_Suites_V2.0.0/GD32F30x_Demo_Suites_V2.0.0/GD32F30x_Firmware_Library/GD32F30x_standard_peripheral/Source\gd32f30x_i2c.c ****     \param[in]  ack:
 209:C:/Users/49542/Desktop/GD32F30x_Demo_Suites_V2.0.0/GD32F30x_Demo_Suites_V2.0.0/GD32F30x_Firmware_Library/GD32F30x_standard_peripheral/Source\gd32f30x_i2c.c ****                 only one parameter can be selected which is shown as below:
 210:C:/Users/49542/Desktop/GD32F30x_Demo_Suites_V2.0.0/GD32F30x_Demo_Suites_V2.0.0/GD32F30x_Firmware_Library/GD32F30x_standard_peripheral/Source\gd32f30x_i2c.c ****       \arg        I2C_ACK_ENABLE: ACK will be sent
 211:C:/Users/49542/Desktop/GD32F30x_Demo_Suites_V2.0.0/GD32F30x_Demo_Suites_V2.0.0/GD32F30x_Firmware_Library/GD32F30x_standard_peripheral/Source\gd32f30x_i2c.c ****       \arg        I2C_ACK_DISABLE: ACK will not be sent
 212:C:/Users/49542/Desktop/GD32F30x_Demo_Suites_V2.0.0/GD32F30x_Demo_Suites_V2.0.0/GD32F30x_Firmware_Library/GD32F30x_standard_peripheral/Source\gd32f30x_i2c.c ****     \param[out] none
 213:C:/Users/49542/Desktop/GD32F30x_Demo_Suites_V2.0.0/GD32F30x_Demo_Suites_V2.0.0/GD32F30x_Firmware_Library/GD32F30x_standard_peripheral/Source\gd32f30x_i2c.c ****     \retval     none
 214:C:/Users/49542/Desktop/GD32F30x_Demo_Suites_V2.0.0/GD32F30x_Demo_Suites_V2.0.0/GD32F30x_Firmware_Library/GD32F30x_standard_peripheral/Source\gd32f30x_i2c.c **** */
ARM GAS  C:\Users\49542\AppData\Local\Temp\ccmqPkvL.s 			page 15


 215:C:/Users/49542/Desktop/GD32F30x_Demo_Suites_V2.0.0/GD32F30x_Demo_Suites_V2.0.0/GD32F30x_Firmware_Library/GD32F30x_standard_peripheral/Source\gd32f30x_i2c.c **** void i2c_ack_config(uint32_t i2c_periph, uint32_t ack)
 216:C:/Users/49542/Desktop/GD32F30x_Demo_Suites_V2.0.0/GD32F30x_Demo_Suites_V2.0.0/GD32F30x_Firmware_Library/GD32F30x_standard_peripheral/Source\gd32f30x_i2c.c **** {
 567              		.loc 1 216 0
 568              		.cfi_startproc
 569              		@ args = 0, pretend = 0, frame = 8
 570              		@ frame_needed = 1, uses_anonymous_args = 0
 571              		@ link register save eliminated.
 572 0000 80B4     		push	{r7}
 573              	.LCFI22:
 574              		.cfi_def_cfa_offset 4
 575              		.cfi_offset 7, -4
 576 0002 83B0     		sub	sp, sp, #12
 577              	.LCFI23:
 578              		.cfi_def_cfa_offset 16
 579 0004 00AF     		add	r7, sp, #0
 580              	.LCFI24:
 581              		.cfi_def_cfa_register 7
 582 0006 7860     		str	r0, [r7, #4]
 583 0008 3960     		str	r1, [r7]
 217:C:/Users/49542/Desktop/GD32F30x_Demo_Suites_V2.0.0/GD32F30x_Demo_Suites_V2.0.0/GD32F30x_Firmware_Library/GD32F30x_standard_peripheral/Source\gd32f30x_i2c.c ****     if(I2C_ACK_ENABLE == ack){
 584              		.loc 1 217 0
 585 000a 3B68     		ldr	r3, [r7]
 586 000c 012B     		cmp	r3, #1
 587 000e 06D1     		bne	.L31
 218:C:/Users/49542/Desktop/GD32F30x_Demo_Suites_V2.0.0/GD32F30x_Demo_Suites_V2.0.0/GD32F30x_Firmware_Library/GD32F30x_standard_peripheral/Source\gd32f30x_i2c.c ****         I2C_CTL0(i2c_periph) |= I2C_CTL0_ACKEN;
 588              		.loc 1 218 0
 589 0010 7B68     		ldr	r3, [r7, #4]
 590 0012 1A68     		ldr	r2, [r3]
 591 0014 7B68     		ldr	r3, [r7, #4]
 592 0016 42F48062 		orr	r2, r2, #1024
 593 001a 1A60     		str	r2, [r3]
 219:C:/Users/49542/Desktop/GD32F30x_Demo_Suites_V2.0.0/GD32F30x_Demo_Suites_V2.0.0/GD32F30x_Firmware_Library/GD32F30x_standard_peripheral/Source\gd32f30x_i2c.c ****     }else{
 220:C:/Users/49542/Desktop/GD32F30x_Demo_Suites_V2.0.0/GD32F30x_Demo_Suites_V2.0.0/GD32F30x_Firmware_Library/GD32F30x_standard_peripheral/Source\gd32f30x_i2c.c ****         I2C_CTL0(i2c_periph) &= ~(I2C_CTL0_ACKEN);
 221:C:/Users/49542/Desktop/GD32F30x_Demo_Suites_V2.0.0/GD32F30x_Demo_Suites_V2.0.0/GD32F30x_Firmware_Library/GD32F30x_standard_peripheral/Source\gd32f30x_i2c.c ****     }
 222:C:/Users/49542/Desktop/GD32F30x_Demo_Suites_V2.0.0/GD32F30x_Demo_Suites_V2.0.0/GD32F30x_Firmware_Library/GD32F30x_standard_peripheral/Source\gd32f30x_i2c.c **** }
 594              		.loc 1 222 0
 595 001c 05E0     		b	.L33
 596              	.L31:
 220:C:/Users/49542/Desktop/GD32F30x_Demo_Suites_V2.0.0/GD32F30x_Demo_Suites_V2.0.0/GD32F30x_Firmware_Library/GD32F30x_standard_peripheral/Source\gd32f30x_i2c.c ****     }
 597              		.loc 1 220 0
 598 001e 7B68     		ldr	r3, [r7, #4]
 599 0020 1A68     		ldr	r2, [r3]
 600 0022 7B68     		ldr	r3, [r7, #4]
 601 0024 22F48062 		bic	r2, r2, #1024
 602 0028 1A60     		str	r2, [r3]
 603              	.L33:
 604              		.loc 1 222 0
 605 002a 00BF     		nop
 606 002c 0C37     		adds	r7, r7, #12
 607              	.LCFI25:
 608              		.cfi_def_cfa_offset 4
 609 002e BD46     		mov	sp, r7
 610              	.LCFI26:
 611              		.cfi_def_cfa_register 13
 612              		@ sp needed
 613 0030 5DF8047B 		ldr	r7, [sp], #4
 614              	.LCFI27:
ARM GAS  C:\Users\49542\AppData\Local\Temp\ccmqPkvL.s 			page 16


 615              		.cfi_restore 7
 616              		.cfi_def_cfa_offset 0
 617 0034 7047     		bx	lr
 618              		.cfi_endproc
 619              	.LFE120:
 621              		.section	.text.i2c_ackpos_config,"ax",%progbits
 622              		.align	1
 623              		.global	i2c_ackpos_config
 624              		.syntax unified
 625              		.thumb
 626              		.thumb_func
 627              		.fpu fpv4-sp-d16
 629              	i2c_ackpos_config:
 630              	.LFB121:
 223:C:/Users/49542/Desktop/GD32F30x_Demo_Suites_V2.0.0/GD32F30x_Demo_Suites_V2.0.0/GD32F30x_Firmware_Library/GD32F30x_standard_peripheral/Source\gd32f30x_i2c.c **** 
 224:C:/Users/49542/Desktop/GD32F30x_Demo_Suites_V2.0.0/GD32F30x_Demo_Suites_V2.0.0/GD32F30x_Firmware_Library/GD32F30x_standard_peripheral/Source\gd32f30x_i2c.c **** /*!
 225:C:/Users/49542/Desktop/GD32F30x_Demo_Suites_V2.0.0/GD32F30x_Demo_Suites_V2.0.0/GD32F30x_Firmware_Library/GD32F30x_standard_peripheral/Source\gd32f30x_i2c.c ****     \brief      configure I2C POAP position
 226:C:/Users/49542/Desktop/GD32F30x_Demo_Suites_V2.0.0/GD32F30x_Demo_Suites_V2.0.0/GD32F30x_Firmware_Library/GD32F30x_standard_peripheral/Source\gd32f30x_i2c.c ****     \param[in]  i2c_periph: I2Cx(x=0,1)
 227:C:/Users/49542/Desktop/GD32F30x_Demo_Suites_V2.0.0/GD32F30x_Demo_Suites_V2.0.0/GD32F30x_Firmware_Library/GD32F30x_standard_peripheral/Source\gd32f30x_i2c.c ****     \param[in]  pos:
 228:C:/Users/49542/Desktop/GD32F30x_Demo_Suites_V2.0.0/GD32F30x_Demo_Suites_V2.0.0/GD32F30x_Firmware_Library/GD32F30x_standard_peripheral/Source\gd32f30x_i2c.c ****                 only one parameter can be selected which is shown as below:
 229:C:/Users/49542/Desktop/GD32F30x_Demo_Suites_V2.0.0/GD32F30x_Demo_Suites_V2.0.0/GD32F30x_Firmware_Library/GD32F30x_standard_peripheral/Source\gd32f30x_i2c.c ****       \arg        I2C_ACKPOS_CURRENT: whether to send ACK or not for the current
 230:C:/Users/49542/Desktop/GD32F30x_Demo_Suites_V2.0.0/GD32F30x_Demo_Suites_V2.0.0/GD32F30x_Firmware_Library/GD32F30x_standard_peripheral/Source\gd32f30x_i2c.c ****       \arg        I2C_ACKPOS_NEXT: whether to send ACK or not for the next byte
 231:C:/Users/49542/Desktop/GD32F30x_Demo_Suites_V2.0.0/GD32F30x_Demo_Suites_V2.0.0/GD32F30x_Firmware_Library/GD32F30x_standard_peripheral/Source\gd32f30x_i2c.c ****     \param[out] none
 232:C:/Users/49542/Desktop/GD32F30x_Demo_Suites_V2.0.0/GD32F30x_Demo_Suites_V2.0.0/GD32F30x_Firmware_Library/GD32F30x_standard_peripheral/Source\gd32f30x_i2c.c ****     \retval     none
 233:C:/Users/49542/Desktop/GD32F30x_Demo_Suites_V2.0.0/GD32F30x_Demo_Suites_V2.0.0/GD32F30x_Firmware_Library/GD32F30x_standard_peripheral/Source\gd32f30x_i2c.c **** */
 234:C:/Users/49542/Desktop/GD32F30x_Demo_Suites_V2.0.0/GD32F30x_Demo_Suites_V2.0.0/GD32F30x_Firmware_Library/GD32F30x_standard_peripheral/Source\gd32f30x_i2c.c **** void i2c_ackpos_config(uint32_t i2c_periph, uint32_t pos)
 235:C:/Users/49542/Desktop/GD32F30x_Demo_Suites_V2.0.0/GD32F30x_Demo_Suites_V2.0.0/GD32F30x_Firmware_Library/GD32F30x_standard_peripheral/Source\gd32f30x_i2c.c **** {
 631              		.loc 1 235 0
 632              		.cfi_startproc
 633              		@ args = 0, pretend = 0, frame = 8
 634              		@ frame_needed = 1, uses_anonymous_args = 0
 635              		@ link register save eliminated.
 636 0000 80B4     		push	{r7}
 637              	.LCFI28:
 638              		.cfi_def_cfa_offset 4
 639              		.cfi_offset 7, -4
 640 0002 83B0     		sub	sp, sp, #12
 641              	.LCFI29:
 642              		.cfi_def_cfa_offset 16
 643 0004 00AF     		add	r7, sp, #0
 644              	.LCFI30:
 645              		.cfi_def_cfa_register 7
 646 0006 7860     		str	r0, [r7, #4]
 647 0008 3960     		str	r1, [r7]
 236:C:/Users/49542/Desktop/GD32F30x_Demo_Suites_V2.0.0/GD32F30x_Demo_Suites_V2.0.0/GD32F30x_Firmware_Library/GD32F30x_standard_peripheral/Source\gd32f30x_i2c.c ****     /* configure I2C POAP position */
 237:C:/Users/49542/Desktop/GD32F30x_Demo_Suites_V2.0.0/GD32F30x_Demo_Suites_V2.0.0/GD32F30x_Firmware_Library/GD32F30x_standard_peripheral/Source\gd32f30x_i2c.c ****     if(I2C_ACKPOS_NEXT == pos){
 648              		.loc 1 237 0
 649 000a 3B68     		ldr	r3, [r7]
 650 000c 002B     		cmp	r3, #0
 651 000e 06D1     		bne	.L35
 238:C:/Users/49542/Desktop/GD32F30x_Demo_Suites_V2.0.0/GD32F30x_Demo_Suites_V2.0.0/GD32F30x_Firmware_Library/GD32F30x_standard_peripheral/Source\gd32f30x_i2c.c ****         I2C_CTL0(i2c_periph) |= I2C_CTL0_POAP;
 652              		.loc 1 238 0
 653 0010 7B68     		ldr	r3, [r7, #4]
 654 0012 1A68     		ldr	r2, [r3]
 655 0014 7B68     		ldr	r3, [r7, #4]
 656 0016 42F40062 		orr	r2, r2, #2048
 657 001a 1A60     		str	r2, [r3]
ARM GAS  C:\Users\49542\AppData\Local\Temp\ccmqPkvL.s 			page 17


 239:C:/Users/49542/Desktop/GD32F30x_Demo_Suites_V2.0.0/GD32F30x_Demo_Suites_V2.0.0/GD32F30x_Firmware_Library/GD32F30x_standard_peripheral/Source\gd32f30x_i2c.c ****     }else{
 240:C:/Users/49542/Desktop/GD32F30x_Demo_Suites_V2.0.0/GD32F30x_Demo_Suites_V2.0.0/GD32F30x_Firmware_Library/GD32F30x_standard_peripheral/Source\gd32f30x_i2c.c ****         I2C_CTL0(i2c_periph) &= ~(I2C_CTL0_POAP);
 241:C:/Users/49542/Desktop/GD32F30x_Demo_Suites_V2.0.0/GD32F30x_Demo_Suites_V2.0.0/GD32F30x_Firmware_Library/GD32F30x_standard_peripheral/Source\gd32f30x_i2c.c ****     }
 242:C:/Users/49542/Desktop/GD32F30x_Demo_Suites_V2.0.0/GD32F30x_Demo_Suites_V2.0.0/GD32F30x_Firmware_Library/GD32F30x_standard_peripheral/Source\gd32f30x_i2c.c **** }
 658              		.loc 1 242 0
 659 001c 05E0     		b	.L37
 660              	.L35:
 240:C:/Users/49542/Desktop/GD32F30x_Demo_Suites_V2.0.0/GD32F30x_Demo_Suites_V2.0.0/GD32F30x_Firmware_Library/GD32F30x_standard_peripheral/Source\gd32f30x_i2c.c ****     }
 661              		.loc 1 240 0
 662 001e 7B68     		ldr	r3, [r7, #4]
 663 0020 1A68     		ldr	r2, [r3]
 664 0022 7B68     		ldr	r3, [r7, #4]
 665 0024 22F40062 		bic	r2, r2, #2048
 666 0028 1A60     		str	r2, [r3]
 667              	.L37:
 668              		.loc 1 242 0
 669 002a 00BF     		nop
 670 002c 0C37     		adds	r7, r7, #12
 671              	.LCFI31:
 672              		.cfi_def_cfa_offset 4
 673 002e BD46     		mov	sp, r7
 674              	.LCFI32:
 675              		.cfi_def_cfa_register 13
 676              		@ sp needed
 677 0030 5DF8047B 		ldr	r7, [sp], #4
 678              	.LCFI33:
 679              		.cfi_restore 7
 680              		.cfi_def_cfa_offset 0
 681 0034 7047     		bx	lr
 682              		.cfi_endproc
 683              	.LFE121:
 685              		.section	.text.i2c_master_addressing,"ax",%progbits
 686              		.align	1
 687              		.global	i2c_master_addressing
 688              		.syntax unified
 689              		.thumb
 690              		.thumb_func
 691              		.fpu fpv4-sp-d16
 693              	i2c_master_addressing:
 694              	.LFB122:
 243:C:/Users/49542/Desktop/GD32F30x_Demo_Suites_V2.0.0/GD32F30x_Demo_Suites_V2.0.0/GD32F30x_Firmware_Library/GD32F30x_standard_peripheral/Source\gd32f30x_i2c.c **** 
 244:C:/Users/49542/Desktop/GD32F30x_Demo_Suites_V2.0.0/GD32F30x_Demo_Suites_V2.0.0/GD32F30x_Firmware_Library/GD32F30x_standard_peripheral/Source\gd32f30x_i2c.c **** /*!
 245:C:/Users/49542/Desktop/GD32F30x_Demo_Suites_V2.0.0/GD32F30x_Demo_Suites_V2.0.0/GD32F30x_Firmware_Library/GD32F30x_standard_peripheral/Source\gd32f30x_i2c.c ****     \brief      master sends slave address
 246:C:/Users/49542/Desktop/GD32F30x_Demo_Suites_V2.0.0/GD32F30x_Demo_Suites_V2.0.0/GD32F30x_Firmware_Library/GD32F30x_standard_peripheral/Source\gd32f30x_i2c.c ****     \param[in]  i2c_periph: I2Cx(x=0,1)
 247:C:/Users/49542/Desktop/GD32F30x_Demo_Suites_V2.0.0/GD32F30x_Demo_Suites_V2.0.0/GD32F30x_Firmware_Library/GD32F30x_standard_peripheral/Source\gd32f30x_i2c.c ****     \param[in]  addr: slave address  
 248:C:/Users/49542/Desktop/GD32F30x_Demo_Suites_V2.0.0/GD32F30x_Demo_Suites_V2.0.0/GD32F30x_Firmware_Library/GD32F30x_standard_peripheral/Source\gd32f30x_i2c.c ****     \param[in]  trandirection: transmitter or receiver
 249:C:/Users/49542/Desktop/GD32F30x_Demo_Suites_V2.0.0/GD32F30x_Demo_Suites_V2.0.0/GD32F30x_Firmware_Library/GD32F30x_standard_peripheral/Source\gd32f30x_i2c.c ****                 only one parameter can be selected which is shown as below:
 250:C:/Users/49542/Desktop/GD32F30x_Demo_Suites_V2.0.0/GD32F30x_Demo_Suites_V2.0.0/GD32F30x_Firmware_Library/GD32F30x_standard_peripheral/Source\gd32f30x_i2c.c ****       \arg        I2C_TRANSMITTER: transmitter  
 251:C:/Users/49542/Desktop/GD32F30x_Demo_Suites_V2.0.0/GD32F30x_Demo_Suites_V2.0.0/GD32F30x_Firmware_Library/GD32F30x_standard_peripheral/Source\gd32f30x_i2c.c ****       \arg        I2C_RECEIVER:    receiver  
 252:C:/Users/49542/Desktop/GD32F30x_Demo_Suites_V2.0.0/GD32F30x_Demo_Suites_V2.0.0/GD32F30x_Firmware_Library/GD32F30x_standard_peripheral/Source\gd32f30x_i2c.c ****     \param[out] none
 253:C:/Users/49542/Desktop/GD32F30x_Demo_Suites_V2.0.0/GD32F30x_Demo_Suites_V2.0.0/GD32F30x_Firmware_Library/GD32F30x_standard_peripheral/Source\gd32f30x_i2c.c ****     \retval     none
 254:C:/Users/49542/Desktop/GD32F30x_Demo_Suites_V2.0.0/GD32F30x_Demo_Suites_V2.0.0/GD32F30x_Firmware_Library/GD32F30x_standard_peripheral/Source\gd32f30x_i2c.c **** */
 255:C:/Users/49542/Desktop/GD32F30x_Demo_Suites_V2.0.0/GD32F30x_Demo_Suites_V2.0.0/GD32F30x_Firmware_Library/GD32F30x_standard_peripheral/Source\gd32f30x_i2c.c **** void i2c_master_addressing(uint32_t i2c_periph, uint32_t addr, uint32_t trandirection)
 256:C:/Users/49542/Desktop/GD32F30x_Demo_Suites_V2.0.0/GD32F30x_Demo_Suites_V2.0.0/GD32F30x_Firmware_Library/GD32F30x_standard_peripheral/Source\gd32f30x_i2c.c **** {
 695              		.loc 1 256 0
 696              		.cfi_startproc
 697              		@ args = 0, pretend = 0, frame = 16
ARM GAS  C:\Users\49542\AppData\Local\Temp\ccmqPkvL.s 			page 18


 698              		@ frame_needed = 1, uses_anonymous_args = 0
 699              		@ link register save eliminated.
 700 0000 80B4     		push	{r7}
 701              	.LCFI34:
 702              		.cfi_def_cfa_offset 4
 703              		.cfi_offset 7, -4
 704 0002 85B0     		sub	sp, sp, #20
 705              	.LCFI35:
 706              		.cfi_def_cfa_offset 24
 707 0004 00AF     		add	r7, sp, #0
 708              	.LCFI36:
 709              		.cfi_def_cfa_register 7
 710 0006 F860     		str	r0, [r7, #12]
 711 0008 B960     		str	r1, [r7, #8]
 712 000a 7A60     		str	r2, [r7, #4]
 257:C:/Users/49542/Desktop/GD32F30x_Demo_Suites_V2.0.0/GD32F30x_Demo_Suites_V2.0.0/GD32F30x_Firmware_Library/GD32F30x_standard_peripheral/Source\gd32f30x_i2c.c ****     /* master is a transmitter or a receiver */
 258:C:/Users/49542/Desktop/GD32F30x_Demo_Suites_V2.0.0/GD32F30x_Demo_Suites_V2.0.0/GD32F30x_Firmware_Library/GD32F30x_standard_peripheral/Source\gd32f30x_i2c.c ****     if(I2C_TRANSMITTER == trandirection){
 713              		.loc 1 258 0
 714 000c 7B68     		ldr	r3, [r7, #4]
 715 000e 13F1020F 		cmn	r3, #2
 716 0012 04D1     		bne	.L39
 259:C:/Users/49542/Desktop/GD32F30x_Demo_Suites_V2.0.0/GD32F30x_Demo_Suites_V2.0.0/GD32F30x_Firmware_Library/GD32F30x_standard_peripheral/Source\gd32f30x_i2c.c ****         addr = addr & I2C_TRANSMITTER;
 717              		.loc 1 259 0
 718 0014 BB68     		ldr	r3, [r7, #8]
 719 0016 23F00103 		bic	r3, r3, #1
 720 001a BB60     		str	r3, [r7, #8]
 721 001c 03E0     		b	.L40
 722              	.L39:
 260:C:/Users/49542/Desktop/GD32F30x_Demo_Suites_V2.0.0/GD32F30x_Demo_Suites_V2.0.0/GD32F30x_Firmware_Library/GD32F30x_standard_peripheral/Source\gd32f30x_i2c.c ****     }else{
 261:C:/Users/49542/Desktop/GD32F30x_Demo_Suites_V2.0.0/GD32F30x_Demo_Suites_V2.0.0/GD32F30x_Firmware_Library/GD32F30x_standard_peripheral/Source\gd32f30x_i2c.c ****         addr = addr | I2C_RECEIVER;
 723              		.loc 1 261 0
 724 001e BB68     		ldr	r3, [r7, #8]
 725 0020 43F00103 		orr	r3, r3, #1
 726 0024 BB60     		str	r3, [r7, #8]
 727              	.L40:
 262:C:/Users/49542/Desktop/GD32F30x_Demo_Suites_V2.0.0/GD32F30x_Demo_Suites_V2.0.0/GD32F30x_Firmware_Library/GD32F30x_standard_peripheral/Source\gd32f30x_i2c.c ****     }
 263:C:/Users/49542/Desktop/GD32F30x_Demo_Suites_V2.0.0/GD32F30x_Demo_Suites_V2.0.0/GD32F30x_Firmware_Library/GD32F30x_standard_peripheral/Source\gd32f30x_i2c.c ****     /* send slave address */
 264:C:/Users/49542/Desktop/GD32F30x_Demo_Suites_V2.0.0/GD32F30x_Demo_Suites_V2.0.0/GD32F30x_Firmware_Library/GD32F30x_standard_peripheral/Source\gd32f30x_i2c.c ****     I2C_DATA(i2c_periph) = addr;
 728              		.loc 1 264 0
 729 0026 FB68     		ldr	r3, [r7, #12]
 730 0028 1033     		adds	r3, r3, #16
 731 002a 1A46     		mov	r2, r3
 732 002c BB68     		ldr	r3, [r7, #8]
 733 002e 1360     		str	r3, [r2]
 265:C:/Users/49542/Desktop/GD32F30x_Demo_Suites_V2.0.0/GD32F30x_Demo_Suites_V2.0.0/GD32F30x_Firmware_Library/GD32F30x_standard_peripheral/Source\gd32f30x_i2c.c **** }
 734              		.loc 1 265 0
 735 0030 00BF     		nop
 736 0032 1437     		adds	r7, r7, #20
 737              	.LCFI37:
 738              		.cfi_def_cfa_offset 4
 739 0034 BD46     		mov	sp, r7
 740              	.LCFI38:
 741              		.cfi_def_cfa_register 13
 742              		@ sp needed
 743 0036 5DF8047B 		ldr	r7, [sp], #4
 744              	.LCFI39:
 745              		.cfi_restore 7
ARM GAS  C:\Users\49542\AppData\Local\Temp\ccmqPkvL.s 			page 19


 746              		.cfi_def_cfa_offset 0
 747 003a 7047     		bx	lr
 748              		.cfi_endproc
 749              	.LFE122:
 751              		.section	.text.i2c_dualaddr_enable,"ax",%progbits
 752              		.align	1
 753              		.global	i2c_dualaddr_enable
 754              		.syntax unified
 755              		.thumb
 756              		.thumb_func
 757              		.fpu fpv4-sp-d16
 759              	i2c_dualaddr_enable:
 760              	.LFB123:
 266:C:/Users/49542/Desktop/GD32F30x_Demo_Suites_V2.0.0/GD32F30x_Demo_Suites_V2.0.0/GD32F30x_Firmware_Library/GD32F30x_standard_peripheral/Source\gd32f30x_i2c.c **** 
 267:C:/Users/49542/Desktop/GD32F30x_Demo_Suites_V2.0.0/GD32F30x_Demo_Suites_V2.0.0/GD32F30x_Firmware_Library/GD32F30x_standard_peripheral/Source\gd32f30x_i2c.c **** /*!
 268:C:/Users/49542/Desktop/GD32F30x_Demo_Suites_V2.0.0/GD32F30x_Demo_Suites_V2.0.0/GD32F30x_Firmware_Library/GD32F30x_standard_peripheral/Source\gd32f30x_i2c.c ****     \brief      dual-address mode switch
 269:C:/Users/49542/Desktop/GD32F30x_Demo_Suites_V2.0.0/GD32F30x_Demo_Suites_V2.0.0/GD32F30x_Firmware_Library/GD32F30x_standard_peripheral/Source\gd32f30x_i2c.c ****     \param[in]  i2c_periph: I2Cx(x=0,1)
 270:C:/Users/49542/Desktop/GD32F30x_Demo_Suites_V2.0.0/GD32F30x_Demo_Suites_V2.0.0/GD32F30x_Firmware_Library/GD32F30x_standard_peripheral/Source\gd32f30x_i2c.c ****     \param[in]  dualaddr:
 271:C:/Users/49542/Desktop/GD32F30x_Demo_Suites_V2.0.0/GD32F30x_Demo_Suites_V2.0.0/GD32F30x_Firmware_Library/GD32F30x_standard_peripheral/Source\gd32f30x_i2c.c ****                 only one parameter can be selected which is shown as below:
 272:C:/Users/49542/Desktop/GD32F30x_Demo_Suites_V2.0.0/GD32F30x_Demo_Suites_V2.0.0/GD32F30x_Firmware_Library/GD32F30x_standard_peripheral/Source\gd32f30x_i2c.c ****       \arg        I2C_DUADEN_DISABLE: disable dual-address mode  
 273:C:/Users/49542/Desktop/GD32F30x_Demo_Suites_V2.0.0/GD32F30x_Demo_Suites_V2.0.0/GD32F30x_Firmware_Library/GD32F30x_standard_peripheral/Source\gd32f30x_i2c.c ****       \arg        I2C_DUADEN_ENABLE: enable dual-address mode
 274:C:/Users/49542/Desktop/GD32F30x_Demo_Suites_V2.0.0/GD32F30x_Demo_Suites_V2.0.0/GD32F30x_Firmware_Library/GD32F30x_standard_peripheral/Source\gd32f30x_i2c.c ****     \param[out] none
 275:C:/Users/49542/Desktop/GD32F30x_Demo_Suites_V2.0.0/GD32F30x_Demo_Suites_V2.0.0/GD32F30x_Firmware_Library/GD32F30x_standard_peripheral/Source\gd32f30x_i2c.c ****     \retval     none
 276:C:/Users/49542/Desktop/GD32F30x_Demo_Suites_V2.0.0/GD32F30x_Demo_Suites_V2.0.0/GD32F30x_Firmware_Library/GD32F30x_standard_peripheral/Source\gd32f30x_i2c.c **** */
 277:C:/Users/49542/Desktop/GD32F30x_Demo_Suites_V2.0.0/GD32F30x_Demo_Suites_V2.0.0/GD32F30x_Firmware_Library/GD32F30x_standard_peripheral/Source\gd32f30x_i2c.c **** void i2c_dualaddr_enable(uint32_t i2c_periph, uint32_t dualaddr)
 278:C:/Users/49542/Desktop/GD32F30x_Demo_Suites_V2.0.0/GD32F30x_Demo_Suites_V2.0.0/GD32F30x_Firmware_Library/GD32F30x_standard_peripheral/Source\gd32f30x_i2c.c **** {
 761              		.loc 1 278 0
 762              		.cfi_startproc
 763              		@ args = 0, pretend = 0, frame = 8
 764              		@ frame_needed = 1, uses_anonymous_args = 0
 765              		@ link register save eliminated.
 766 0000 80B4     		push	{r7}
 767              	.LCFI40:
 768              		.cfi_def_cfa_offset 4
 769              		.cfi_offset 7, -4
 770 0002 83B0     		sub	sp, sp, #12
 771              	.LCFI41:
 772              		.cfi_def_cfa_offset 16
 773 0004 00AF     		add	r7, sp, #0
 774              	.LCFI42:
 775              		.cfi_def_cfa_register 7
 776 0006 7860     		str	r0, [r7, #4]
 777 0008 3960     		str	r1, [r7]
 279:C:/Users/49542/Desktop/GD32F30x_Demo_Suites_V2.0.0/GD32F30x_Demo_Suites_V2.0.0/GD32F30x_Firmware_Library/GD32F30x_standard_peripheral/Source\gd32f30x_i2c.c ****     if(I2C_DUADEN_ENABLE == dualaddr){
 778              		.loc 1 279 0
 779 000a 3B68     		ldr	r3, [r7]
 780 000c 012B     		cmp	r3, #1
 781 000e 08D1     		bne	.L42
 280:C:/Users/49542/Desktop/GD32F30x_Demo_Suites_V2.0.0/GD32F30x_Demo_Suites_V2.0.0/GD32F30x_Firmware_Library/GD32F30x_standard_peripheral/Source\gd32f30x_i2c.c ****         I2C_SADDR1(i2c_periph) |= I2C_SADDR1_DUADEN;
 782              		.loc 1 280 0
 783 0010 7B68     		ldr	r3, [r7, #4]
 784 0012 0C33     		adds	r3, r3, #12
 785 0014 1B68     		ldr	r3, [r3]
 786 0016 7A68     		ldr	r2, [r7, #4]
 787 0018 0C32     		adds	r2, r2, #12
 788 001a 43F00103 		orr	r3, r3, #1
 789 001e 1360     		str	r3, [r2]
ARM GAS  C:\Users\49542\AppData\Local\Temp\ccmqPkvL.s 			page 20


 281:C:/Users/49542/Desktop/GD32F30x_Demo_Suites_V2.0.0/GD32F30x_Demo_Suites_V2.0.0/GD32F30x_Firmware_Library/GD32F30x_standard_peripheral/Source\gd32f30x_i2c.c ****     }else{
 282:C:/Users/49542/Desktop/GD32F30x_Demo_Suites_V2.0.0/GD32F30x_Demo_Suites_V2.0.0/GD32F30x_Firmware_Library/GD32F30x_standard_peripheral/Source\gd32f30x_i2c.c ****         I2C_SADDR1(i2c_periph) &= ~(I2C_SADDR1_DUADEN);
 283:C:/Users/49542/Desktop/GD32F30x_Demo_Suites_V2.0.0/GD32F30x_Demo_Suites_V2.0.0/GD32F30x_Firmware_Library/GD32F30x_standard_peripheral/Source\gd32f30x_i2c.c ****     }
 284:C:/Users/49542/Desktop/GD32F30x_Demo_Suites_V2.0.0/GD32F30x_Demo_Suites_V2.0.0/GD32F30x_Firmware_Library/GD32F30x_standard_peripheral/Source\gd32f30x_i2c.c **** }
 790              		.loc 1 284 0
 791 0020 07E0     		b	.L44
 792              	.L42:
 282:C:/Users/49542/Desktop/GD32F30x_Demo_Suites_V2.0.0/GD32F30x_Demo_Suites_V2.0.0/GD32F30x_Firmware_Library/GD32F30x_standard_peripheral/Source\gd32f30x_i2c.c ****     }
 793              		.loc 1 282 0
 794 0022 7B68     		ldr	r3, [r7, #4]
 795 0024 0C33     		adds	r3, r3, #12
 796 0026 1B68     		ldr	r3, [r3]
 797 0028 7A68     		ldr	r2, [r7, #4]
 798 002a 0C32     		adds	r2, r2, #12
 799 002c 23F00103 		bic	r3, r3, #1
 800 0030 1360     		str	r3, [r2]
 801              	.L44:
 802              		.loc 1 284 0
 803 0032 00BF     		nop
 804 0034 0C37     		adds	r7, r7, #12
 805              	.LCFI43:
 806              		.cfi_def_cfa_offset 4
 807 0036 BD46     		mov	sp, r7
 808              	.LCFI44:
 809              		.cfi_def_cfa_register 13
 810              		@ sp needed
 811 0038 5DF8047B 		ldr	r7, [sp], #4
 812              	.LCFI45:
 813              		.cfi_restore 7
 814              		.cfi_def_cfa_offset 0
 815 003c 7047     		bx	lr
 816              		.cfi_endproc
 817              	.LFE123:
 819              		.section	.text.i2c_enable,"ax",%progbits
 820              		.align	1
 821              		.global	i2c_enable
 822              		.syntax unified
 823              		.thumb
 824              		.thumb_func
 825              		.fpu fpv4-sp-d16
 827              	i2c_enable:
 828              	.LFB124:
 285:C:/Users/49542/Desktop/GD32F30x_Demo_Suites_V2.0.0/GD32F30x_Demo_Suites_V2.0.0/GD32F30x_Firmware_Library/GD32F30x_standard_peripheral/Source\gd32f30x_i2c.c **** 
 286:C:/Users/49542/Desktop/GD32F30x_Demo_Suites_V2.0.0/GD32F30x_Demo_Suites_V2.0.0/GD32F30x_Firmware_Library/GD32F30x_standard_peripheral/Source\gd32f30x_i2c.c **** /*!
 287:C:/Users/49542/Desktop/GD32F30x_Demo_Suites_V2.0.0/GD32F30x_Demo_Suites_V2.0.0/GD32F30x_Firmware_Library/GD32F30x_standard_peripheral/Source\gd32f30x_i2c.c ****     \brief      enable I2C
 288:C:/Users/49542/Desktop/GD32F30x_Demo_Suites_V2.0.0/GD32F30x_Demo_Suites_V2.0.0/GD32F30x_Firmware_Library/GD32F30x_standard_peripheral/Source\gd32f30x_i2c.c ****     \param[in]  i2c_periph: I2Cx(x=0,1) 
 289:C:/Users/49542/Desktop/GD32F30x_Demo_Suites_V2.0.0/GD32F30x_Demo_Suites_V2.0.0/GD32F30x_Firmware_Library/GD32F30x_standard_peripheral/Source\gd32f30x_i2c.c ****     \param[out] none
 290:C:/Users/49542/Desktop/GD32F30x_Demo_Suites_V2.0.0/GD32F30x_Demo_Suites_V2.0.0/GD32F30x_Firmware_Library/GD32F30x_standard_peripheral/Source\gd32f30x_i2c.c ****     \retval     none
 291:C:/Users/49542/Desktop/GD32F30x_Demo_Suites_V2.0.0/GD32F30x_Demo_Suites_V2.0.0/GD32F30x_Firmware_Library/GD32F30x_standard_peripheral/Source\gd32f30x_i2c.c **** */
 292:C:/Users/49542/Desktop/GD32F30x_Demo_Suites_V2.0.0/GD32F30x_Demo_Suites_V2.0.0/GD32F30x_Firmware_Library/GD32F30x_standard_peripheral/Source\gd32f30x_i2c.c **** void i2c_enable(uint32_t i2c_periph)
 293:C:/Users/49542/Desktop/GD32F30x_Demo_Suites_V2.0.0/GD32F30x_Demo_Suites_V2.0.0/GD32F30x_Firmware_Library/GD32F30x_standard_peripheral/Source\gd32f30x_i2c.c **** {
 829              		.loc 1 293 0
 830              		.cfi_startproc
 831              		@ args = 0, pretend = 0, frame = 8
 832              		@ frame_needed = 1, uses_anonymous_args = 0
 833              		@ link register save eliminated.
 834 0000 80B4     		push	{r7}
ARM GAS  C:\Users\49542\AppData\Local\Temp\ccmqPkvL.s 			page 21


 835              	.LCFI46:
 836              		.cfi_def_cfa_offset 4
 837              		.cfi_offset 7, -4
 838 0002 83B0     		sub	sp, sp, #12
 839              	.LCFI47:
 840              		.cfi_def_cfa_offset 16
 841 0004 00AF     		add	r7, sp, #0
 842              	.LCFI48:
 843              		.cfi_def_cfa_register 7
 844 0006 7860     		str	r0, [r7, #4]
 294:C:/Users/49542/Desktop/GD32F30x_Demo_Suites_V2.0.0/GD32F30x_Demo_Suites_V2.0.0/GD32F30x_Firmware_Library/GD32F30x_standard_peripheral/Source\gd32f30x_i2c.c ****     I2C_CTL0(i2c_periph) |= I2C_CTL0_I2CEN;
 845              		.loc 1 294 0
 846 0008 7B68     		ldr	r3, [r7, #4]
 847 000a 1A68     		ldr	r2, [r3]
 848 000c 7B68     		ldr	r3, [r7, #4]
 849 000e 42F00102 		orr	r2, r2, #1
 850 0012 1A60     		str	r2, [r3]
 295:C:/Users/49542/Desktop/GD32F30x_Demo_Suites_V2.0.0/GD32F30x_Demo_Suites_V2.0.0/GD32F30x_Firmware_Library/GD32F30x_standard_peripheral/Source\gd32f30x_i2c.c **** }
 851              		.loc 1 295 0
 852 0014 00BF     		nop
 853 0016 0C37     		adds	r7, r7, #12
 854              	.LCFI49:
 855              		.cfi_def_cfa_offset 4
 856 0018 BD46     		mov	sp, r7
 857              	.LCFI50:
 858              		.cfi_def_cfa_register 13
 859              		@ sp needed
 860 001a 5DF8047B 		ldr	r7, [sp], #4
 861              	.LCFI51:
 862              		.cfi_restore 7
 863              		.cfi_def_cfa_offset 0
 864 001e 7047     		bx	lr
 865              		.cfi_endproc
 866              	.LFE124:
 868              		.section	.text.i2c_disable,"ax",%progbits
 869              		.align	1
 870              		.global	i2c_disable
 871              		.syntax unified
 872              		.thumb
 873              		.thumb_func
 874              		.fpu fpv4-sp-d16
 876              	i2c_disable:
 877              	.LFB125:
 296:C:/Users/49542/Desktop/GD32F30x_Demo_Suites_V2.0.0/GD32F30x_Demo_Suites_V2.0.0/GD32F30x_Firmware_Library/GD32F30x_standard_peripheral/Source\gd32f30x_i2c.c **** 
 297:C:/Users/49542/Desktop/GD32F30x_Demo_Suites_V2.0.0/GD32F30x_Demo_Suites_V2.0.0/GD32F30x_Firmware_Library/GD32F30x_standard_peripheral/Source\gd32f30x_i2c.c **** /*!
 298:C:/Users/49542/Desktop/GD32F30x_Demo_Suites_V2.0.0/GD32F30x_Demo_Suites_V2.0.0/GD32F30x_Firmware_Library/GD32F30x_standard_peripheral/Source\gd32f30x_i2c.c ****     \brief      disable I2C
 299:C:/Users/49542/Desktop/GD32F30x_Demo_Suites_V2.0.0/GD32F30x_Demo_Suites_V2.0.0/GD32F30x_Firmware_Library/GD32F30x_standard_peripheral/Source\gd32f30x_i2c.c ****     \param[in]  i2c_periph: I2Cx(x=0,1) 
 300:C:/Users/49542/Desktop/GD32F30x_Demo_Suites_V2.0.0/GD32F30x_Demo_Suites_V2.0.0/GD32F30x_Firmware_Library/GD32F30x_standard_peripheral/Source\gd32f30x_i2c.c ****     \param[out] none
 301:C:/Users/49542/Desktop/GD32F30x_Demo_Suites_V2.0.0/GD32F30x_Demo_Suites_V2.0.0/GD32F30x_Firmware_Library/GD32F30x_standard_peripheral/Source\gd32f30x_i2c.c ****     \retval     none
 302:C:/Users/49542/Desktop/GD32F30x_Demo_Suites_V2.0.0/GD32F30x_Demo_Suites_V2.0.0/GD32F30x_Firmware_Library/GD32F30x_standard_peripheral/Source\gd32f30x_i2c.c **** */
 303:C:/Users/49542/Desktop/GD32F30x_Demo_Suites_V2.0.0/GD32F30x_Demo_Suites_V2.0.0/GD32F30x_Firmware_Library/GD32F30x_standard_peripheral/Source\gd32f30x_i2c.c **** void i2c_disable(uint32_t i2c_periph)
 304:C:/Users/49542/Desktop/GD32F30x_Demo_Suites_V2.0.0/GD32F30x_Demo_Suites_V2.0.0/GD32F30x_Firmware_Library/GD32F30x_standard_peripheral/Source\gd32f30x_i2c.c **** {
 878              		.loc 1 304 0
 879              		.cfi_startproc
 880              		@ args = 0, pretend = 0, frame = 8
 881              		@ frame_needed = 1, uses_anonymous_args = 0
 882              		@ link register save eliminated.
ARM GAS  C:\Users\49542\AppData\Local\Temp\ccmqPkvL.s 			page 22


 883 0000 80B4     		push	{r7}
 884              	.LCFI52:
 885              		.cfi_def_cfa_offset 4
 886              		.cfi_offset 7, -4
 887 0002 83B0     		sub	sp, sp, #12
 888              	.LCFI53:
 889              		.cfi_def_cfa_offset 16
 890 0004 00AF     		add	r7, sp, #0
 891              	.LCFI54:
 892              		.cfi_def_cfa_register 7
 893 0006 7860     		str	r0, [r7, #4]
 305:C:/Users/49542/Desktop/GD32F30x_Demo_Suites_V2.0.0/GD32F30x_Demo_Suites_V2.0.0/GD32F30x_Firmware_Library/GD32F30x_standard_peripheral/Source\gd32f30x_i2c.c ****     I2C_CTL0(i2c_periph) &= ~(I2C_CTL0_I2CEN);
 894              		.loc 1 305 0
 895 0008 7B68     		ldr	r3, [r7, #4]
 896 000a 1A68     		ldr	r2, [r3]
 897 000c 7B68     		ldr	r3, [r7, #4]
 898 000e 22F00102 		bic	r2, r2, #1
 899 0012 1A60     		str	r2, [r3]
 306:C:/Users/49542/Desktop/GD32F30x_Demo_Suites_V2.0.0/GD32F30x_Demo_Suites_V2.0.0/GD32F30x_Firmware_Library/GD32F30x_standard_peripheral/Source\gd32f30x_i2c.c **** }
 900              		.loc 1 306 0
 901 0014 00BF     		nop
 902 0016 0C37     		adds	r7, r7, #12
 903              	.LCFI55:
 904              		.cfi_def_cfa_offset 4
 905 0018 BD46     		mov	sp, r7
 906              	.LCFI56:
 907              		.cfi_def_cfa_register 13
 908              		@ sp needed
 909 001a 5DF8047B 		ldr	r7, [sp], #4
 910              	.LCFI57:
 911              		.cfi_restore 7
 912              		.cfi_def_cfa_offset 0
 913 001e 7047     		bx	lr
 914              		.cfi_endproc
 915              	.LFE125:
 917              		.section	.text.i2c_start_on_bus,"ax",%progbits
 918              		.align	1
 919              		.global	i2c_start_on_bus
 920              		.syntax unified
 921              		.thumb
 922              		.thumb_func
 923              		.fpu fpv4-sp-d16
 925              	i2c_start_on_bus:
 926              	.LFB126:
 307:C:/Users/49542/Desktop/GD32F30x_Demo_Suites_V2.0.0/GD32F30x_Demo_Suites_V2.0.0/GD32F30x_Firmware_Library/GD32F30x_standard_peripheral/Source\gd32f30x_i2c.c **** 
 308:C:/Users/49542/Desktop/GD32F30x_Demo_Suites_V2.0.0/GD32F30x_Demo_Suites_V2.0.0/GD32F30x_Firmware_Library/GD32F30x_standard_peripheral/Source\gd32f30x_i2c.c **** /*!
 309:C:/Users/49542/Desktop/GD32F30x_Demo_Suites_V2.0.0/GD32F30x_Demo_Suites_V2.0.0/GD32F30x_Firmware_Library/GD32F30x_standard_peripheral/Source\gd32f30x_i2c.c ****     \brief      generate a START condition on I2C bus
 310:C:/Users/49542/Desktop/GD32F30x_Demo_Suites_V2.0.0/GD32F30x_Demo_Suites_V2.0.0/GD32F30x_Firmware_Library/GD32F30x_standard_peripheral/Source\gd32f30x_i2c.c ****     \param[in]  i2c_periph: I2Cx(x=0,1)
 311:C:/Users/49542/Desktop/GD32F30x_Demo_Suites_V2.0.0/GD32F30x_Demo_Suites_V2.0.0/GD32F30x_Firmware_Library/GD32F30x_standard_peripheral/Source\gd32f30x_i2c.c ****     \param[out] none
 312:C:/Users/49542/Desktop/GD32F30x_Demo_Suites_V2.0.0/GD32F30x_Demo_Suites_V2.0.0/GD32F30x_Firmware_Library/GD32F30x_standard_peripheral/Source\gd32f30x_i2c.c ****     \retval     none
 313:C:/Users/49542/Desktop/GD32F30x_Demo_Suites_V2.0.0/GD32F30x_Demo_Suites_V2.0.0/GD32F30x_Firmware_Library/GD32F30x_standard_peripheral/Source\gd32f30x_i2c.c **** */
 314:C:/Users/49542/Desktop/GD32F30x_Demo_Suites_V2.0.0/GD32F30x_Demo_Suites_V2.0.0/GD32F30x_Firmware_Library/GD32F30x_standard_peripheral/Source\gd32f30x_i2c.c **** void i2c_start_on_bus(uint32_t i2c_periph)
 315:C:/Users/49542/Desktop/GD32F30x_Demo_Suites_V2.0.0/GD32F30x_Demo_Suites_V2.0.0/GD32F30x_Firmware_Library/GD32F30x_standard_peripheral/Source\gd32f30x_i2c.c **** {
 927              		.loc 1 315 0
 928              		.cfi_startproc
 929              		@ args = 0, pretend = 0, frame = 8
 930              		@ frame_needed = 1, uses_anonymous_args = 0
ARM GAS  C:\Users\49542\AppData\Local\Temp\ccmqPkvL.s 			page 23


 931              		@ link register save eliminated.
 932 0000 80B4     		push	{r7}
 933              	.LCFI58:
 934              		.cfi_def_cfa_offset 4
 935              		.cfi_offset 7, -4
 936 0002 83B0     		sub	sp, sp, #12
 937              	.LCFI59:
 938              		.cfi_def_cfa_offset 16
 939 0004 00AF     		add	r7, sp, #0
 940              	.LCFI60:
 941              		.cfi_def_cfa_register 7
 942 0006 7860     		str	r0, [r7, #4]
 316:C:/Users/49542/Desktop/GD32F30x_Demo_Suites_V2.0.0/GD32F30x_Demo_Suites_V2.0.0/GD32F30x_Firmware_Library/GD32F30x_standard_peripheral/Source\gd32f30x_i2c.c ****     I2C_CTL0(i2c_periph) |= I2C_CTL0_START;
 943              		.loc 1 316 0
 944 0008 7B68     		ldr	r3, [r7, #4]
 945 000a 1A68     		ldr	r2, [r3]
 946 000c 7B68     		ldr	r3, [r7, #4]
 947 000e 42F48072 		orr	r2, r2, #256
 948 0012 1A60     		str	r2, [r3]
 317:C:/Users/49542/Desktop/GD32F30x_Demo_Suites_V2.0.0/GD32F30x_Demo_Suites_V2.0.0/GD32F30x_Firmware_Library/GD32F30x_standard_peripheral/Source\gd32f30x_i2c.c **** }
 949              		.loc 1 317 0
 950 0014 00BF     		nop
 951 0016 0C37     		adds	r7, r7, #12
 952              	.LCFI61:
 953              		.cfi_def_cfa_offset 4
 954 0018 BD46     		mov	sp, r7
 955              	.LCFI62:
 956              		.cfi_def_cfa_register 13
 957              		@ sp needed
 958 001a 5DF8047B 		ldr	r7, [sp], #4
 959              	.LCFI63:
 960              		.cfi_restore 7
 961              		.cfi_def_cfa_offset 0
 962 001e 7047     		bx	lr
 963              		.cfi_endproc
 964              	.LFE126:
 966              		.section	.text.i2c_stop_on_bus,"ax",%progbits
 967              		.align	1
 968              		.global	i2c_stop_on_bus
 969              		.syntax unified
 970              		.thumb
 971              		.thumb_func
 972              		.fpu fpv4-sp-d16
 974              	i2c_stop_on_bus:
 975              	.LFB127:
 318:C:/Users/49542/Desktop/GD32F30x_Demo_Suites_V2.0.0/GD32F30x_Demo_Suites_V2.0.0/GD32F30x_Firmware_Library/GD32F30x_standard_peripheral/Source\gd32f30x_i2c.c **** 
 319:C:/Users/49542/Desktop/GD32F30x_Demo_Suites_V2.0.0/GD32F30x_Demo_Suites_V2.0.0/GD32F30x_Firmware_Library/GD32F30x_standard_peripheral/Source\gd32f30x_i2c.c **** /*!
 320:C:/Users/49542/Desktop/GD32F30x_Demo_Suites_V2.0.0/GD32F30x_Demo_Suites_V2.0.0/GD32F30x_Firmware_Library/GD32F30x_standard_peripheral/Source\gd32f30x_i2c.c ****     \brief      generate a STOP condition on I2C bus
 321:C:/Users/49542/Desktop/GD32F30x_Demo_Suites_V2.0.0/GD32F30x_Demo_Suites_V2.0.0/GD32F30x_Firmware_Library/GD32F30x_standard_peripheral/Source\gd32f30x_i2c.c ****     \param[in]  i2c_periph: I2Cx(x=0,1)
 322:C:/Users/49542/Desktop/GD32F30x_Demo_Suites_V2.0.0/GD32F30x_Demo_Suites_V2.0.0/GD32F30x_Firmware_Library/GD32F30x_standard_peripheral/Source\gd32f30x_i2c.c ****     \param[out] none
 323:C:/Users/49542/Desktop/GD32F30x_Demo_Suites_V2.0.0/GD32F30x_Demo_Suites_V2.0.0/GD32F30x_Firmware_Library/GD32F30x_standard_peripheral/Source\gd32f30x_i2c.c ****     \retval     none
 324:C:/Users/49542/Desktop/GD32F30x_Demo_Suites_V2.0.0/GD32F30x_Demo_Suites_V2.0.0/GD32F30x_Firmware_Library/GD32F30x_standard_peripheral/Source\gd32f30x_i2c.c **** */
 325:C:/Users/49542/Desktop/GD32F30x_Demo_Suites_V2.0.0/GD32F30x_Demo_Suites_V2.0.0/GD32F30x_Firmware_Library/GD32F30x_standard_peripheral/Source\gd32f30x_i2c.c **** void i2c_stop_on_bus(uint32_t i2c_periph)
 326:C:/Users/49542/Desktop/GD32F30x_Demo_Suites_V2.0.0/GD32F30x_Demo_Suites_V2.0.0/GD32F30x_Firmware_Library/GD32F30x_standard_peripheral/Source\gd32f30x_i2c.c **** {
 976              		.loc 1 326 0
 977              		.cfi_startproc
 978              		@ args = 0, pretend = 0, frame = 8
ARM GAS  C:\Users\49542\AppData\Local\Temp\ccmqPkvL.s 			page 24


 979              		@ frame_needed = 1, uses_anonymous_args = 0
 980              		@ link register save eliminated.
 981 0000 80B4     		push	{r7}
 982              	.LCFI64:
 983              		.cfi_def_cfa_offset 4
 984              		.cfi_offset 7, -4
 985 0002 83B0     		sub	sp, sp, #12
 986              	.LCFI65:
 987              		.cfi_def_cfa_offset 16
 988 0004 00AF     		add	r7, sp, #0
 989              	.LCFI66:
 990              		.cfi_def_cfa_register 7
 991 0006 7860     		str	r0, [r7, #4]
 327:C:/Users/49542/Desktop/GD32F30x_Demo_Suites_V2.0.0/GD32F30x_Demo_Suites_V2.0.0/GD32F30x_Firmware_Library/GD32F30x_standard_peripheral/Source\gd32f30x_i2c.c ****     I2C_CTL0(i2c_periph) |= I2C_CTL0_STOP;
 992              		.loc 1 327 0
 993 0008 7B68     		ldr	r3, [r7, #4]
 994 000a 1A68     		ldr	r2, [r3]
 995 000c 7B68     		ldr	r3, [r7, #4]
 996 000e 42F40072 		orr	r2, r2, #512
 997 0012 1A60     		str	r2, [r3]
 328:C:/Users/49542/Desktop/GD32F30x_Demo_Suites_V2.0.0/GD32F30x_Demo_Suites_V2.0.0/GD32F30x_Firmware_Library/GD32F30x_standard_peripheral/Source\gd32f30x_i2c.c **** }
 998              		.loc 1 328 0
 999 0014 00BF     		nop
 1000 0016 0C37     		adds	r7, r7, #12
 1001              	.LCFI67:
 1002              		.cfi_def_cfa_offset 4
 1003 0018 BD46     		mov	sp, r7
 1004              	.LCFI68:
 1005              		.cfi_def_cfa_register 13
 1006              		@ sp needed
 1007 001a 5DF8047B 		ldr	r7, [sp], #4
 1008              	.LCFI69:
 1009              		.cfi_restore 7
 1010              		.cfi_def_cfa_offset 0
 1011 001e 7047     		bx	lr
 1012              		.cfi_endproc
 1013              	.LFE127:
 1015              		.section	.text.i2c_data_transmit,"ax",%progbits
 1016              		.align	1
 1017              		.global	i2c_data_transmit
 1018              		.syntax unified
 1019              		.thumb
 1020              		.thumb_func
 1021              		.fpu fpv4-sp-d16
 1023              	i2c_data_transmit:
 1024              	.LFB128:
 329:C:/Users/49542/Desktop/GD32F30x_Demo_Suites_V2.0.0/GD32F30x_Demo_Suites_V2.0.0/GD32F30x_Firmware_Library/GD32F30x_standard_peripheral/Source\gd32f30x_i2c.c **** 
 330:C:/Users/49542/Desktop/GD32F30x_Demo_Suites_V2.0.0/GD32F30x_Demo_Suites_V2.0.0/GD32F30x_Firmware_Library/GD32F30x_standard_peripheral/Source\gd32f30x_i2c.c **** /*!
 331:C:/Users/49542/Desktop/GD32F30x_Demo_Suites_V2.0.0/GD32F30x_Demo_Suites_V2.0.0/GD32F30x_Firmware_Library/GD32F30x_standard_peripheral/Source\gd32f30x_i2c.c ****     \brief      I2C transmit data function
 332:C:/Users/49542/Desktop/GD32F30x_Demo_Suites_V2.0.0/GD32F30x_Demo_Suites_V2.0.0/GD32F30x_Firmware_Library/GD32F30x_standard_peripheral/Source\gd32f30x_i2c.c ****     \param[in]  i2c_periph: I2Cx(x=0,1)
 333:C:/Users/49542/Desktop/GD32F30x_Demo_Suites_V2.0.0/GD32F30x_Demo_Suites_V2.0.0/GD32F30x_Firmware_Library/GD32F30x_standard_peripheral/Source\gd32f30x_i2c.c ****     \param[in]  data: data of transmission 
 334:C:/Users/49542/Desktop/GD32F30x_Demo_Suites_V2.0.0/GD32F30x_Demo_Suites_V2.0.0/GD32F30x_Firmware_Library/GD32F30x_standard_peripheral/Source\gd32f30x_i2c.c ****     \param[out] none
 335:C:/Users/49542/Desktop/GD32F30x_Demo_Suites_V2.0.0/GD32F30x_Demo_Suites_V2.0.0/GD32F30x_Firmware_Library/GD32F30x_standard_peripheral/Source\gd32f30x_i2c.c ****     \retval     none
 336:C:/Users/49542/Desktop/GD32F30x_Demo_Suites_V2.0.0/GD32F30x_Demo_Suites_V2.0.0/GD32F30x_Firmware_Library/GD32F30x_standard_peripheral/Source\gd32f30x_i2c.c **** */
 337:C:/Users/49542/Desktop/GD32F30x_Demo_Suites_V2.0.0/GD32F30x_Demo_Suites_V2.0.0/GD32F30x_Firmware_Library/GD32F30x_standard_peripheral/Source\gd32f30x_i2c.c **** void i2c_data_transmit(uint32_t i2c_periph, uint8_t data)
 338:C:/Users/49542/Desktop/GD32F30x_Demo_Suites_V2.0.0/GD32F30x_Demo_Suites_V2.0.0/GD32F30x_Firmware_Library/GD32F30x_standard_peripheral/Source\gd32f30x_i2c.c **** {
 1025              		.loc 1 338 0
ARM GAS  C:\Users\49542\AppData\Local\Temp\ccmqPkvL.s 			page 25


 1026              		.cfi_startproc
 1027              		@ args = 0, pretend = 0, frame = 8
 1028              		@ frame_needed = 1, uses_anonymous_args = 0
 1029              		@ link register save eliminated.
 1030 0000 80B4     		push	{r7}
 1031              	.LCFI70:
 1032              		.cfi_def_cfa_offset 4
 1033              		.cfi_offset 7, -4
 1034 0002 83B0     		sub	sp, sp, #12
 1035              	.LCFI71:
 1036              		.cfi_def_cfa_offset 16
 1037 0004 00AF     		add	r7, sp, #0
 1038              	.LCFI72:
 1039              		.cfi_def_cfa_register 7
 1040 0006 7860     		str	r0, [r7, #4]
 1041 0008 0B46     		mov	r3, r1
 1042 000a FB70     		strb	r3, [r7, #3]
 339:C:/Users/49542/Desktop/GD32F30x_Demo_Suites_V2.0.0/GD32F30x_Demo_Suites_V2.0.0/GD32F30x_Firmware_Library/GD32F30x_standard_peripheral/Source\gd32f30x_i2c.c ****     I2C_DATA(i2c_periph) = DATA_TRANS(data);
 1043              		.loc 1 339 0
 1044 000c 7B68     		ldr	r3, [r7, #4]
 1045 000e 1033     		adds	r3, r3, #16
 1046 0010 1A46     		mov	r2, r3
 1047 0012 FB78     		ldrb	r3, [r7, #3]	@ zero_extendqisi2
 1048 0014 1360     		str	r3, [r2]
 340:C:/Users/49542/Desktop/GD32F30x_Demo_Suites_V2.0.0/GD32F30x_Demo_Suites_V2.0.0/GD32F30x_Firmware_Library/GD32F30x_standard_peripheral/Source\gd32f30x_i2c.c **** }
 1049              		.loc 1 340 0
 1050 0016 00BF     		nop
 1051 0018 0C37     		adds	r7, r7, #12
 1052              	.LCFI73:
 1053              		.cfi_def_cfa_offset 4
 1054 001a BD46     		mov	sp, r7
 1055              	.LCFI74:
 1056              		.cfi_def_cfa_register 13
 1057              		@ sp needed
 1058 001c 5DF8047B 		ldr	r7, [sp], #4
 1059              	.LCFI75:
 1060              		.cfi_restore 7
 1061              		.cfi_def_cfa_offset 0
 1062 0020 7047     		bx	lr
 1063              		.cfi_endproc
 1064              	.LFE128:
 1066              		.section	.text.i2c_data_receive,"ax",%progbits
 1067              		.align	1
 1068              		.global	i2c_data_receive
 1069              		.syntax unified
 1070              		.thumb
 1071              		.thumb_func
 1072              		.fpu fpv4-sp-d16
 1074              	i2c_data_receive:
 1075              	.LFB129:
 341:C:/Users/49542/Desktop/GD32F30x_Demo_Suites_V2.0.0/GD32F30x_Demo_Suites_V2.0.0/GD32F30x_Firmware_Library/GD32F30x_standard_peripheral/Source\gd32f30x_i2c.c **** 
 342:C:/Users/49542/Desktop/GD32F30x_Demo_Suites_V2.0.0/GD32F30x_Demo_Suites_V2.0.0/GD32F30x_Firmware_Library/GD32F30x_standard_peripheral/Source\gd32f30x_i2c.c **** /*!
 343:C:/Users/49542/Desktop/GD32F30x_Demo_Suites_V2.0.0/GD32F30x_Demo_Suites_V2.0.0/GD32F30x_Firmware_Library/GD32F30x_standard_peripheral/Source\gd32f30x_i2c.c ****     \brief      I2C receive data function
 344:C:/Users/49542/Desktop/GD32F30x_Demo_Suites_V2.0.0/GD32F30x_Demo_Suites_V2.0.0/GD32F30x_Firmware_Library/GD32F30x_standard_peripheral/Source\gd32f30x_i2c.c ****     \param[in]  i2c_periph: I2Cx(x=0,1)
 345:C:/Users/49542/Desktop/GD32F30x_Demo_Suites_V2.0.0/GD32F30x_Demo_Suites_V2.0.0/GD32F30x_Firmware_Library/GD32F30x_standard_peripheral/Source\gd32f30x_i2c.c ****     \param[out] none
 346:C:/Users/49542/Desktop/GD32F30x_Demo_Suites_V2.0.0/GD32F30x_Demo_Suites_V2.0.0/GD32F30x_Firmware_Library/GD32F30x_standard_peripheral/Source\gd32f30x_i2c.c ****     \retval     data of received
 347:C:/Users/49542/Desktop/GD32F30x_Demo_Suites_V2.0.0/GD32F30x_Demo_Suites_V2.0.0/GD32F30x_Firmware_Library/GD32F30x_standard_peripheral/Source\gd32f30x_i2c.c **** */
ARM GAS  C:\Users\49542\AppData\Local\Temp\ccmqPkvL.s 			page 26


 348:C:/Users/49542/Desktop/GD32F30x_Demo_Suites_V2.0.0/GD32F30x_Demo_Suites_V2.0.0/GD32F30x_Firmware_Library/GD32F30x_standard_peripheral/Source\gd32f30x_i2c.c **** uint8_t i2c_data_receive(uint32_t i2c_periph)
 349:C:/Users/49542/Desktop/GD32F30x_Demo_Suites_V2.0.0/GD32F30x_Demo_Suites_V2.0.0/GD32F30x_Firmware_Library/GD32F30x_standard_peripheral/Source\gd32f30x_i2c.c **** {
 1076              		.loc 1 349 0
 1077              		.cfi_startproc
 1078              		@ args = 0, pretend = 0, frame = 8
 1079              		@ frame_needed = 1, uses_anonymous_args = 0
 1080              		@ link register save eliminated.
 1081 0000 80B4     		push	{r7}
 1082              	.LCFI76:
 1083              		.cfi_def_cfa_offset 4
 1084              		.cfi_offset 7, -4
 1085 0002 83B0     		sub	sp, sp, #12
 1086              	.LCFI77:
 1087              		.cfi_def_cfa_offset 16
 1088 0004 00AF     		add	r7, sp, #0
 1089              	.LCFI78:
 1090              		.cfi_def_cfa_register 7
 1091 0006 7860     		str	r0, [r7, #4]
 350:C:/Users/49542/Desktop/GD32F30x_Demo_Suites_V2.0.0/GD32F30x_Demo_Suites_V2.0.0/GD32F30x_Firmware_Library/GD32F30x_standard_peripheral/Source\gd32f30x_i2c.c ****     return (uint8_t)DATA_RECV(I2C_DATA(i2c_periph));
 1092              		.loc 1 350 0
 1093 0008 7B68     		ldr	r3, [r7, #4]
 1094 000a 1033     		adds	r3, r3, #16
 1095 000c 1B68     		ldr	r3, [r3]
 1096 000e DBB2     		uxtb	r3, r3
 351:C:/Users/49542/Desktop/GD32F30x_Demo_Suites_V2.0.0/GD32F30x_Demo_Suites_V2.0.0/GD32F30x_Firmware_Library/GD32F30x_standard_peripheral/Source\gd32f30x_i2c.c **** }
 1097              		.loc 1 351 0
 1098 0010 1846     		mov	r0, r3
 1099 0012 0C37     		adds	r7, r7, #12
 1100              	.LCFI79:
 1101              		.cfi_def_cfa_offset 4
 1102 0014 BD46     		mov	sp, r7
 1103              	.LCFI80:
 1104              		.cfi_def_cfa_register 13
 1105              		@ sp needed
 1106 0016 5DF8047B 		ldr	r7, [sp], #4
 1107              	.LCFI81:
 1108              		.cfi_restore 7
 1109              		.cfi_def_cfa_offset 0
 1110 001a 7047     		bx	lr
 1111              		.cfi_endproc
 1112              	.LFE129:
 1114              		.section	.text.i2c_dma_enable,"ax",%progbits
 1115              		.align	1
 1116              		.global	i2c_dma_enable
 1117              		.syntax unified
 1118              		.thumb
 1119              		.thumb_func
 1120              		.fpu fpv4-sp-d16
 1122              	i2c_dma_enable:
 1123              	.LFB130:
 352:C:/Users/49542/Desktop/GD32F30x_Demo_Suites_V2.0.0/GD32F30x_Demo_Suites_V2.0.0/GD32F30x_Firmware_Library/GD32F30x_standard_peripheral/Source\gd32f30x_i2c.c **** 
 353:C:/Users/49542/Desktop/GD32F30x_Demo_Suites_V2.0.0/GD32F30x_Demo_Suites_V2.0.0/GD32F30x_Firmware_Library/GD32F30x_standard_peripheral/Source\gd32f30x_i2c.c **** /*!
 354:C:/Users/49542/Desktop/GD32F30x_Demo_Suites_V2.0.0/GD32F30x_Demo_Suites_V2.0.0/GD32F30x_Firmware_Library/GD32F30x_standard_peripheral/Source\gd32f30x_i2c.c ****     \brief      enable I2C DMA mode 
 355:C:/Users/49542/Desktop/GD32F30x_Demo_Suites_V2.0.0/GD32F30x_Demo_Suites_V2.0.0/GD32F30x_Firmware_Library/GD32F30x_standard_peripheral/Source\gd32f30x_i2c.c ****     \param[in]  i2c_periph: I2Cx(x=0,1)
 356:C:/Users/49542/Desktop/GD32F30x_Demo_Suites_V2.0.0/GD32F30x_Demo_Suites_V2.0.0/GD32F30x_Firmware_Library/GD32F30x_standard_peripheral/Source\gd32f30x_i2c.c ****     \param[in]  dmastate:
 357:C:/Users/49542/Desktop/GD32F30x_Demo_Suites_V2.0.0/GD32F30x_Demo_Suites_V2.0.0/GD32F30x_Firmware_Library/GD32F30x_standard_peripheral/Source\gd32f30x_i2c.c ****                 only one parameter can be selected which is shown as below:
 358:C:/Users/49542/Desktop/GD32F30x_Demo_Suites_V2.0.0/GD32F30x_Demo_Suites_V2.0.0/GD32F30x_Firmware_Library/GD32F30x_standard_peripheral/Source\gd32f30x_i2c.c ****       \arg        I2C_DMA_ON: DMA mode enable
ARM GAS  C:\Users\49542\AppData\Local\Temp\ccmqPkvL.s 			page 27


 359:C:/Users/49542/Desktop/GD32F30x_Demo_Suites_V2.0.0/GD32F30x_Demo_Suites_V2.0.0/GD32F30x_Firmware_Library/GD32F30x_standard_peripheral/Source\gd32f30x_i2c.c ****       \arg        I2C_DMA_OFF: DMA mode disable
 360:C:/Users/49542/Desktop/GD32F30x_Demo_Suites_V2.0.0/GD32F30x_Demo_Suites_V2.0.0/GD32F30x_Firmware_Library/GD32F30x_standard_peripheral/Source\gd32f30x_i2c.c ****     \param[out] none
 361:C:/Users/49542/Desktop/GD32F30x_Demo_Suites_V2.0.0/GD32F30x_Demo_Suites_V2.0.0/GD32F30x_Firmware_Library/GD32F30x_standard_peripheral/Source\gd32f30x_i2c.c ****     \retval     none
 362:C:/Users/49542/Desktop/GD32F30x_Demo_Suites_V2.0.0/GD32F30x_Demo_Suites_V2.0.0/GD32F30x_Firmware_Library/GD32F30x_standard_peripheral/Source\gd32f30x_i2c.c **** */
 363:C:/Users/49542/Desktop/GD32F30x_Demo_Suites_V2.0.0/GD32F30x_Demo_Suites_V2.0.0/GD32F30x_Firmware_Library/GD32F30x_standard_peripheral/Source\gd32f30x_i2c.c **** void i2c_dma_enable(uint32_t i2c_periph, uint32_t dmastate)
 364:C:/Users/49542/Desktop/GD32F30x_Demo_Suites_V2.0.0/GD32F30x_Demo_Suites_V2.0.0/GD32F30x_Firmware_Library/GD32F30x_standard_peripheral/Source\gd32f30x_i2c.c **** {
 1124              		.loc 1 364 0
 1125              		.cfi_startproc
 1126              		@ args = 0, pretend = 0, frame = 16
 1127              		@ frame_needed = 1, uses_anonymous_args = 0
 1128              		@ link register save eliminated.
 1129 0000 80B4     		push	{r7}
 1130              	.LCFI82:
 1131              		.cfi_def_cfa_offset 4
 1132              		.cfi_offset 7, -4
 1133 0002 85B0     		sub	sp, sp, #20
 1134              	.LCFI83:
 1135              		.cfi_def_cfa_offset 24
 1136 0004 00AF     		add	r7, sp, #0
 1137              	.LCFI84:
 1138              		.cfi_def_cfa_register 7
 1139 0006 7860     		str	r0, [r7, #4]
 1140 0008 3960     		str	r1, [r7]
 365:C:/Users/49542/Desktop/GD32F30x_Demo_Suites_V2.0.0/GD32F30x_Demo_Suites_V2.0.0/GD32F30x_Firmware_Library/GD32F30x_standard_peripheral/Source\gd32f30x_i2c.c ****     /* configure I2C DMA function */
 366:C:/Users/49542/Desktop/GD32F30x_Demo_Suites_V2.0.0/GD32F30x_Demo_Suites_V2.0.0/GD32F30x_Firmware_Library/GD32F30x_standard_peripheral/Source\gd32f30x_i2c.c ****     uint32_t ctl = 0U;
 1141              		.loc 1 366 0
 1142 000a 0023     		movs	r3, #0
 1143 000c FB60     		str	r3, [r7, #12]
 367:C:/Users/49542/Desktop/GD32F30x_Demo_Suites_V2.0.0/GD32F30x_Demo_Suites_V2.0.0/GD32F30x_Firmware_Library/GD32F30x_standard_peripheral/Source\gd32f30x_i2c.c **** 
 368:C:/Users/49542/Desktop/GD32F30x_Demo_Suites_V2.0.0/GD32F30x_Demo_Suites_V2.0.0/GD32F30x_Firmware_Library/GD32F30x_standard_peripheral/Source\gd32f30x_i2c.c ****     ctl = I2C_CTL1(i2c_periph);
 1144              		.loc 1 368 0
 1145 000e 7B68     		ldr	r3, [r7, #4]
 1146 0010 0433     		adds	r3, r3, #4
 1147 0012 1B68     		ldr	r3, [r3]
 1148 0014 FB60     		str	r3, [r7, #12]
 369:C:/Users/49542/Desktop/GD32F30x_Demo_Suites_V2.0.0/GD32F30x_Demo_Suites_V2.0.0/GD32F30x_Firmware_Library/GD32F30x_standard_peripheral/Source\gd32f30x_i2c.c ****     ctl &= ~(I2C_CTL1_DMAON); 
 1149              		.loc 1 369 0
 1150 0016 FB68     		ldr	r3, [r7, #12]
 1151 0018 23F40063 		bic	r3, r3, #2048
 1152 001c FB60     		str	r3, [r7, #12]
 370:C:/Users/49542/Desktop/GD32F30x_Demo_Suites_V2.0.0/GD32F30x_Demo_Suites_V2.0.0/GD32F30x_Firmware_Library/GD32F30x_standard_peripheral/Source\gd32f30x_i2c.c ****     ctl |= dmastate;
 1153              		.loc 1 370 0
 1154 001e FA68     		ldr	r2, [r7, #12]
 1155 0020 3B68     		ldr	r3, [r7]
 1156 0022 1343     		orrs	r3, r3, r2
 1157 0024 FB60     		str	r3, [r7, #12]
 371:C:/Users/49542/Desktop/GD32F30x_Demo_Suites_V2.0.0/GD32F30x_Demo_Suites_V2.0.0/GD32F30x_Firmware_Library/GD32F30x_standard_peripheral/Source\gd32f30x_i2c.c ****     I2C_CTL1(i2c_periph) = ctl;
 1158              		.loc 1 371 0
 1159 0026 7B68     		ldr	r3, [r7, #4]
 1160 0028 0433     		adds	r3, r3, #4
 1161 002a 1A46     		mov	r2, r3
 1162 002c FB68     		ldr	r3, [r7, #12]
 1163 002e 1360     		str	r3, [r2]
 372:C:/Users/49542/Desktop/GD32F30x_Demo_Suites_V2.0.0/GD32F30x_Demo_Suites_V2.0.0/GD32F30x_Firmware_Library/GD32F30x_standard_peripheral/Source\gd32f30x_i2c.c **** }
 1164              		.loc 1 372 0
 1165 0030 00BF     		nop
 1166 0032 1437     		adds	r7, r7, #20
ARM GAS  C:\Users\49542\AppData\Local\Temp\ccmqPkvL.s 			page 28


 1167              	.LCFI85:
 1168              		.cfi_def_cfa_offset 4
 1169 0034 BD46     		mov	sp, r7
 1170              	.LCFI86:
 1171              		.cfi_def_cfa_register 13
 1172              		@ sp needed
 1173 0036 5DF8047B 		ldr	r7, [sp], #4
 1174              	.LCFI87:
 1175              		.cfi_restore 7
 1176              		.cfi_def_cfa_offset 0
 1177 003a 7047     		bx	lr
 1178              		.cfi_endproc
 1179              	.LFE130:
 1181              		.section	.text.i2c_dma_last_transfer_config,"ax",%progbits
 1182              		.align	1
 1183              		.global	i2c_dma_last_transfer_config
 1184              		.syntax unified
 1185              		.thumb
 1186              		.thumb_func
 1187              		.fpu fpv4-sp-d16
 1189              	i2c_dma_last_transfer_config:
 1190              	.LFB131:
 373:C:/Users/49542/Desktop/GD32F30x_Demo_Suites_V2.0.0/GD32F30x_Demo_Suites_V2.0.0/GD32F30x_Firmware_Library/GD32F30x_standard_peripheral/Source\gd32f30x_i2c.c **** 
 374:C:/Users/49542/Desktop/GD32F30x_Demo_Suites_V2.0.0/GD32F30x_Demo_Suites_V2.0.0/GD32F30x_Firmware_Library/GD32F30x_standard_peripheral/Source\gd32f30x_i2c.c **** /*!
 375:C:/Users/49542/Desktop/GD32F30x_Demo_Suites_V2.0.0/GD32F30x_Demo_Suites_V2.0.0/GD32F30x_Firmware_Library/GD32F30x_standard_peripheral/Source\gd32f30x_i2c.c ****     \brief      configure whether next DMA EOT is DMA last transfer or not
 376:C:/Users/49542/Desktop/GD32F30x_Demo_Suites_V2.0.0/GD32F30x_Demo_Suites_V2.0.0/GD32F30x_Firmware_Library/GD32F30x_standard_peripheral/Source\gd32f30x_i2c.c ****     \param[in]  i2c_periph: I2Cx(x=0,1)
 377:C:/Users/49542/Desktop/GD32F30x_Demo_Suites_V2.0.0/GD32F30x_Demo_Suites_V2.0.0/GD32F30x_Firmware_Library/GD32F30x_standard_peripheral/Source\gd32f30x_i2c.c ****     \param[in]  dmalast:
 378:C:/Users/49542/Desktop/GD32F30x_Demo_Suites_V2.0.0/GD32F30x_Demo_Suites_V2.0.0/GD32F30x_Firmware_Library/GD32F30x_standard_peripheral/Source\gd32f30x_i2c.c ****                 only one parameter can be selected which is shown as below:
 379:C:/Users/49542/Desktop/GD32F30x_Demo_Suites_V2.0.0/GD32F30x_Demo_Suites_V2.0.0/GD32F30x_Firmware_Library/GD32F30x_standard_peripheral/Source\gd32f30x_i2c.c ****       \arg        I2C_DMALST_ON: next DMA EOT is the last transfer
 380:C:/Users/49542/Desktop/GD32F30x_Demo_Suites_V2.0.0/GD32F30x_Demo_Suites_V2.0.0/GD32F30x_Firmware_Library/GD32F30x_standard_peripheral/Source\gd32f30x_i2c.c ****       \arg        I2C_DMALST_OFF: next DMA EOT is not the last transfer
 381:C:/Users/49542/Desktop/GD32F30x_Demo_Suites_V2.0.0/GD32F30x_Demo_Suites_V2.0.0/GD32F30x_Firmware_Library/GD32F30x_standard_peripheral/Source\gd32f30x_i2c.c ****     \param[out] none
 382:C:/Users/49542/Desktop/GD32F30x_Demo_Suites_V2.0.0/GD32F30x_Demo_Suites_V2.0.0/GD32F30x_Firmware_Library/GD32F30x_standard_peripheral/Source\gd32f30x_i2c.c ****     \retval     none
 383:C:/Users/49542/Desktop/GD32F30x_Demo_Suites_V2.0.0/GD32F30x_Demo_Suites_V2.0.0/GD32F30x_Firmware_Library/GD32F30x_standard_peripheral/Source\gd32f30x_i2c.c **** */
 384:C:/Users/49542/Desktop/GD32F30x_Demo_Suites_V2.0.0/GD32F30x_Demo_Suites_V2.0.0/GD32F30x_Firmware_Library/GD32F30x_standard_peripheral/Source\gd32f30x_i2c.c **** void i2c_dma_last_transfer_config(uint32_t i2c_periph, uint32_t dmalast)
 385:C:/Users/49542/Desktop/GD32F30x_Demo_Suites_V2.0.0/GD32F30x_Demo_Suites_V2.0.0/GD32F30x_Firmware_Library/GD32F30x_standard_peripheral/Source\gd32f30x_i2c.c **** {
 1191              		.loc 1 385 0
 1192              		.cfi_startproc
 1193              		@ args = 0, pretend = 0, frame = 16
 1194              		@ frame_needed = 1, uses_anonymous_args = 0
 1195              		@ link register save eliminated.
 1196 0000 80B4     		push	{r7}
 1197              	.LCFI88:
 1198              		.cfi_def_cfa_offset 4
 1199              		.cfi_offset 7, -4
 1200 0002 85B0     		sub	sp, sp, #20
 1201              	.LCFI89:
 1202              		.cfi_def_cfa_offset 24
 1203 0004 00AF     		add	r7, sp, #0
 1204              	.LCFI90:
 1205              		.cfi_def_cfa_register 7
 1206 0006 7860     		str	r0, [r7, #4]
 1207 0008 3960     		str	r1, [r7]
 386:C:/Users/49542/Desktop/GD32F30x_Demo_Suites_V2.0.0/GD32F30x_Demo_Suites_V2.0.0/GD32F30x_Firmware_Library/GD32F30x_standard_peripheral/Source\gd32f30x_i2c.c ****     /* configure DMA last transfer */
 387:C:/Users/49542/Desktop/GD32F30x_Demo_Suites_V2.0.0/GD32F30x_Demo_Suites_V2.0.0/GD32F30x_Firmware_Library/GD32F30x_standard_peripheral/Source\gd32f30x_i2c.c ****     uint32_t ctl = 0U;
 1208              		.loc 1 387 0
 1209 000a 0023     		movs	r3, #0
 1210 000c FB60     		str	r3, [r7, #12]
ARM GAS  C:\Users\49542\AppData\Local\Temp\ccmqPkvL.s 			page 29


 388:C:/Users/49542/Desktop/GD32F30x_Demo_Suites_V2.0.0/GD32F30x_Demo_Suites_V2.0.0/GD32F30x_Firmware_Library/GD32F30x_standard_peripheral/Source\gd32f30x_i2c.c ****     
 389:C:/Users/49542/Desktop/GD32F30x_Demo_Suites_V2.0.0/GD32F30x_Demo_Suites_V2.0.0/GD32F30x_Firmware_Library/GD32F30x_standard_peripheral/Source\gd32f30x_i2c.c ****     ctl = I2C_CTL1(i2c_periph);
 1211              		.loc 1 389 0
 1212 000e 7B68     		ldr	r3, [r7, #4]
 1213 0010 0433     		adds	r3, r3, #4
 1214 0012 1B68     		ldr	r3, [r3]
 1215 0014 FB60     		str	r3, [r7, #12]
 390:C:/Users/49542/Desktop/GD32F30x_Demo_Suites_V2.0.0/GD32F30x_Demo_Suites_V2.0.0/GD32F30x_Firmware_Library/GD32F30x_standard_peripheral/Source\gd32f30x_i2c.c ****     ctl &= ~(I2C_CTL1_DMALST); 
 1216              		.loc 1 390 0
 1217 0016 FB68     		ldr	r3, [r7, #12]
 1218 0018 23F48053 		bic	r3, r3, #4096
 1219 001c FB60     		str	r3, [r7, #12]
 391:C:/Users/49542/Desktop/GD32F30x_Demo_Suites_V2.0.0/GD32F30x_Demo_Suites_V2.0.0/GD32F30x_Firmware_Library/GD32F30x_standard_peripheral/Source\gd32f30x_i2c.c ****     ctl |= dmalast;
 1220              		.loc 1 391 0
 1221 001e FA68     		ldr	r2, [r7, #12]
 1222 0020 3B68     		ldr	r3, [r7]
 1223 0022 1343     		orrs	r3, r3, r2
 1224 0024 FB60     		str	r3, [r7, #12]
 392:C:/Users/49542/Desktop/GD32F30x_Demo_Suites_V2.0.0/GD32F30x_Demo_Suites_V2.0.0/GD32F30x_Firmware_Library/GD32F30x_standard_peripheral/Source\gd32f30x_i2c.c ****     I2C_CTL1(i2c_periph) = ctl;
 1225              		.loc 1 392 0
 1226 0026 7B68     		ldr	r3, [r7, #4]
 1227 0028 0433     		adds	r3, r3, #4
 1228 002a 1A46     		mov	r2, r3
 1229 002c FB68     		ldr	r3, [r7, #12]
 1230 002e 1360     		str	r3, [r2]
 393:C:/Users/49542/Desktop/GD32F30x_Demo_Suites_V2.0.0/GD32F30x_Demo_Suites_V2.0.0/GD32F30x_Firmware_Library/GD32F30x_standard_peripheral/Source\gd32f30x_i2c.c **** }
 1231              		.loc 1 393 0
 1232 0030 00BF     		nop
 1233 0032 1437     		adds	r7, r7, #20
 1234              	.LCFI91:
 1235              		.cfi_def_cfa_offset 4
 1236 0034 BD46     		mov	sp, r7
 1237              	.LCFI92:
 1238              		.cfi_def_cfa_register 13
 1239              		@ sp needed
 1240 0036 5DF8047B 		ldr	r7, [sp], #4
 1241              	.LCFI93:
 1242              		.cfi_restore 7
 1243              		.cfi_def_cfa_offset 0
 1244 003a 7047     		bx	lr
 1245              		.cfi_endproc
 1246              	.LFE131:
 1248              		.section	.text.i2c_stretch_scl_low_config,"ax",%progbits
 1249              		.align	1
 1250              		.global	i2c_stretch_scl_low_config
 1251              		.syntax unified
 1252              		.thumb
 1253              		.thumb_func
 1254              		.fpu fpv4-sp-d16
 1256              	i2c_stretch_scl_low_config:
 1257              	.LFB132:
 394:C:/Users/49542/Desktop/GD32F30x_Demo_Suites_V2.0.0/GD32F30x_Demo_Suites_V2.0.0/GD32F30x_Firmware_Library/GD32F30x_standard_peripheral/Source\gd32f30x_i2c.c **** 
 395:C:/Users/49542/Desktop/GD32F30x_Demo_Suites_V2.0.0/GD32F30x_Demo_Suites_V2.0.0/GD32F30x_Firmware_Library/GD32F30x_standard_peripheral/Source\gd32f30x_i2c.c **** /*!
 396:C:/Users/49542/Desktop/GD32F30x_Demo_Suites_V2.0.0/GD32F30x_Demo_Suites_V2.0.0/GD32F30x_Firmware_Library/GD32F30x_standard_peripheral/Source\gd32f30x_i2c.c ****     \brief      whether to stretch SCL low when data is not ready in slave mode 
 397:C:/Users/49542/Desktop/GD32F30x_Demo_Suites_V2.0.0/GD32F30x_Demo_Suites_V2.0.0/GD32F30x_Firmware_Library/GD32F30x_standard_peripheral/Source\gd32f30x_i2c.c ****     \param[in]  i2c_periph: I2Cx(x=0,1)
 398:C:/Users/49542/Desktop/GD32F30x_Demo_Suites_V2.0.0/GD32F30x_Demo_Suites_V2.0.0/GD32F30x_Firmware_Library/GD32F30x_standard_peripheral/Source\gd32f30x_i2c.c ****     \param[in]  stretchpara:
 399:C:/Users/49542/Desktop/GD32F30x_Demo_Suites_V2.0.0/GD32F30x_Demo_Suites_V2.0.0/GD32F30x_Firmware_Library/GD32F30x_standard_peripheral/Source\gd32f30x_i2c.c ****                 only one parameter can be selected which is shown as below:
ARM GAS  C:\Users\49542\AppData\Local\Temp\ccmqPkvL.s 			page 30


 400:C:/Users/49542/Desktop/GD32F30x_Demo_Suites_V2.0.0/GD32F30x_Demo_Suites_V2.0.0/GD32F30x_Firmware_Library/GD32F30x_standard_peripheral/Source\gd32f30x_i2c.c ****       \arg        I2C_SCLSTRETCH_ENABLE: SCL stretching is enabled
 401:C:/Users/49542/Desktop/GD32F30x_Demo_Suites_V2.0.0/GD32F30x_Demo_Suites_V2.0.0/GD32F30x_Firmware_Library/GD32F30x_standard_peripheral/Source\gd32f30x_i2c.c ****       \arg        I2C_SCLSTRETCH_DISABLE: SCL stretching is disabled
 402:C:/Users/49542/Desktop/GD32F30x_Demo_Suites_V2.0.0/GD32F30x_Demo_Suites_V2.0.0/GD32F30x_Firmware_Library/GD32F30x_standard_peripheral/Source\gd32f30x_i2c.c ****     \param[out] none
 403:C:/Users/49542/Desktop/GD32F30x_Demo_Suites_V2.0.0/GD32F30x_Demo_Suites_V2.0.0/GD32F30x_Firmware_Library/GD32F30x_standard_peripheral/Source\gd32f30x_i2c.c ****     \retval     none
 404:C:/Users/49542/Desktop/GD32F30x_Demo_Suites_V2.0.0/GD32F30x_Demo_Suites_V2.0.0/GD32F30x_Firmware_Library/GD32F30x_standard_peripheral/Source\gd32f30x_i2c.c **** */
 405:C:/Users/49542/Desktop/GD32F30x_Demo_Suites_V2.0.0/GD32F30x_Demo_Suites_V2.0.0/GD32F30x_Firmware_Library/GD32F30x_standard_peripheral/Source\gd32f30x_i2c.c **** void i2c_stretch_scl_low_config(uint32_t i2c_periph, uint32_t stretchpara)
 406:C:/Users/49542/Desktop/GD32F30x_Demo_Suites_V2.0.0/GD32F30x_Demo_Suites_V2.0.0/GD32F30x_Firmware_Library/GD32F30x_standard_peripheral/Source\gd32f30x_i2c.c **** {
 1258              		.loc 1 406 0
 1259              		.cfi_startproc
 1260              		@ args = 0, pretend = 0, frame = 16
 1261              		@ frame_needed = 1, uses_anonymous_args = 0
 1262              		@ link register save eliminated.
 1263 0000 80B4     		push	{r7}
 1264              	.LCFI94:
 1265              		.cfi_def_cfa_offset 4
 1266              		.cfi_offset 7, -4
 1267 0002 85B0     		sub	sp, sp, #20
 1268              	.LCFI95:
 1269              		.cfi_def_cfa_offset 24
 1270 0004 00AF     		add	r7, sp, #0
 1271              	.LCFI96:
 1272              		.cfi_def_cfa_register 7
 1273 0006 7860     		str	r0, [r7, #4]
 1274 0008 3960     		str	r1, [r7]
 407:C:/Users/49542/Desktop/GD32F30x_Demo_Suites_V2.0.0/GD32F30x_Demo_Suites_V2.0.0/GD32F30x_Firmware_Library/GD32F30x_standard_peripheral/Source\gd32f30x_i2c.c ****     /* configure I2C SCL strerching enable or disable */
 408:C:/Users/49542/Desktop/GD32F30x_Demo_Suites_V2.0.0/GD32F30x_Demo_Suites_V2.0.0/GD32F30x_Firmware_Library/GD32F30x_standard_peripheral/Source\gd32f30x_i2c.c ****     uint32_t ctl = 0U;
 1275              		.loc 1 408 0
 1276 000a 0023     		movs	r3, #0
 1277 000c FB60     		str	r3, [r7, #12]
 409:C:/Users/49542/Desktop/GD32F30x_Demo_Suites_V2.0.0/GD32F30x_Demo_Suites_V2.0.0/GD32F30x_Firmware_Library/GD32F30x_standard_peripheral/Source\gd32f30x_i2c.c ****     
 410:C:/Users/49542/Desktop/GD32F30x_Demo_Suites_V2.0.0/GD32F30x_Demo_Suites_V2.0.0/GD32F30x_Firmware_Library/GD32F30x_standard_peripheral/Source\gd32f30x_i2c.c ****     ctl = I2C_CTL0(i2c_periph);
 1278              		.loc 1 410 0
 1279 000e 7B68     		ldr	r3, [r7, #4]
 1280 0010 1B68     		ldr	r3, [r3]
 1281 0012 FB60     		str	r3, [r7, #12]
 411:C:/Users/49542/Desktop/GD32F30x_Demo_Suites_V2.0.0/GD32F30x_Demo_Suites_V2.0.0/GD32F30x_Firmware_Library/GD32F30x_standard_peripheral/Source\gd32f30x_i2c.c ****     ctl &= ~(I2C_CTL0_SS); 
 1282              		.loc 1 411 0
 1283 0014 FB68     		ldr	r3, [r7, #12]
 1284 0016 23F08003 		bic	r3, r3, #128
 1285 001a FB60     		str	r3, [r7, #12]
 412:C:/Users/49542/Desktop/GD32F30x_Demo_Suites_V2.0.0/GD32F30x_Demo_Suites_V2.0.0/GD32F30x_Firmware_Library/GD32F30x_standard_peripheral/Source\gd32f30x_i2c.c ****     ctl |= stretchpara;
 1286              		.loc 1 412 0
 1287 001c FA68     		ldr	r2, [r7, #12]
 1288 001e 3B68     		ldr	r3, [r7]
 1289 0020 1343     		orrs	r3, r3, r2
 1290 0022 FB60     		str	r3, [r7, #12]
 413:C:/Users/49542/Desktop/GD32F30x_Demo_Suites_V2.0.0/GD32F30x_Demo_Suites_V2.0.0/GD32F30x_Firmware_Library/GD32F30x_standard_peripheral/Source\gd32f30x_i2c.c ****     I2C_CTL0(i2c_periph) = ctl;
 1291              		.loc 1 413 0
 1292 0024 7B68     		ldr	r3, [r7, #4]
 1293 0026 FA68     		ldr	r2, [r7, #12]
 1294 0028 1A60     		str	r2, [r3]
 414:C:/Users/49542/Desktop/GD32F30x_Demo_Suites_V2.0.0/GD32F30x_Demo_Suites_V2.0.0/GD32F30x_Firmware_Library/GD32F30x_standard_peripheral/Source\gd32f30x_i2c.c **** }
 1295              		.loc 1 414 0
 1296 002a 00BF     		nop
 1297 002c 1437     		adds	r7, r7, #20
 1298              	.LCFI97:
 1299              		.cfi_def_cfa_offset 4
ARM GAS  C:\Users\49542\AppData\Local\Temp\ccmqPkvL.s 			page 31


 1300 002e BD46     		mov	sp, r7
 1301              	.LCFI98:
 1302              		.cfi_def_cfa_register 13
 1303              		@ sp needed
 1304 0030 5DF8047B 		ldr	r7, [sp], #4
 1305              	.LCFI99:
 1306              		.cfi_restore 7
 1307              		.cfi_def_cfa_offset 0
 1308 0034 7047     		bx	lr
 1309              		.cfi_endproc
 1310              	.LFE132:
 1312              		.section	.text.i2c_slave_response_to_gcall_config,"ax",%progbits
 1313              		.align	1
 1314              		.global	i2c_slave_response_to_gcall_config
 1315              		.syntax unified
 1316              		.thumb
 1317              		.thumb_func
 1318              		.fpu fpv4-sp-d16
 1320              	i2c_slave_response_to_gcall_config:
 1321              	.LFB133:
 415:C:/Users/49542/Desktop/GD32F30x_Demo_Suites_V2.0.0/GD32F30x_Demo_Suites_V2.0.0/GD32F30x_Firmware_Library/GD32F30x_standard_peripheral/Source\gd32f30x_i2c.c **** 
 416:C:/Users/49542/Desktop/GD32F30x_Demo_Suites_V2.0.0/GD32F30x_Demo_Suites_V2.0.0/GD32F30x_Firmware_Library/GD32F30x_standard_peripheral/Source\gd32f30x_i2c.c **** /*!
 417:C:/Users/49542/Desktop/GD32F30x_Demo_Suites_V2.0.0/GD32F30x_Demo_Suites_V2.0.0/GD32F30x_Firmware_Library/GD32F30x_standard_peripheral/Source\gd32f30x_i2c.c ****     \brief      whether or not to response to a general call 
 418:C:/Users/49542/Desktop/GD32F30x_Demo_Suites_V2.0.0/GD32F30x_Demo_Suites_V2.0.0/GD32F30x_Firmware_Library/GD32F30x_standard_peripheral/Source\gd32f30x_i2c.c ****     \param[in]  i2c_periph: I2Cx(x=0,1)
 419:C:/Users/49542/Desktop/GD32F30x_Demo_Suites_V2.0.0/GD32F30x_Demo_Suites_V2.0.0/GD32F30x_Firmware_Library/GD32F30x_standard_peripheral/Source\gd32f30x_i2c.c ****     \param[in]  gcallpara:
 420:C:/Users/49542/Desktop/GD32F30x_Demo_Suites_V2.0.0/GD32F30x_Demo_Suites_V2.0.0/GD32F30x_Firmware_Library/GD32F30x_standard_peripheral/Source\gd32f30x_i2c.c ****                 only one parameter can be selected which is shown as below:
 421:C:/Users/49542/Desktop/GD32F30x_Demo_Suites_V2.0.0/GD32F30x_Demo_Suites_V2.0.0/GD32F30x_Firmware_Library/GD32F30x_standard_peripheral/Source\gd32f30x_i2c.c ****       \arg        I2C_GCEN_ENABLE: slave will response to a general call
 422:C:/Users/49542/Desktop/GD32F30x_Demo_Suites_V2.0.0/GD32F30x_Demo_Suites_V2.0.0/GD32F30x_Firmware_Library/GD32F30x_standard_peripheral/Source\gd32f30x_i2c.c ****       \arg        I2C_GCEN_DISABLE: slave will not response to a general call
 423:C:/Users/49542/Desktop/GD32F30x_Demo_Suites_V2.0.0/GD32F30x_Demo_Suites_V2.0.0/GD32F30x_Firmware_Library/GD32F30x_standard_peripheral/Source\gd32f30x_i2c.c ****     \param[out] none
 424:C:/Users/49542/Desktop/GD32F30x_Demo_Suites_V2.0.0/GD32F30x_Demo_Suites_V2.0.0/GD32F30x_Firmware_Library/GD32F30x_standard_peripheral/Source\gd32f30x_i2c.c ****     \retval     none
 425:C:/Users/49542/Desktop/GD32F30x_Demo_Suites_V2.0.0/GD32F30x_Demo_Suites_V2.0.0/GD32F30x_Firmware_Library/GD32F30x_standard_peripheral/Source\gd32f30x_i2c.c **** */
 426:C:/Users/49542/Desktop/GD32F30x_Demo_Suites_V2.0.0/GD32F30x_Demo_Suites_V2.0.0/GD32F30x_Firmware_Library/GD32F30x_standard_peripheral/Source\gd32f30x_i2c.c **** void i2c_slave_response_to_gcall_config(uint32_t i2c_periph, uint32_t gcallpara)
 427:C:/Users/49542/Desktop/GD32F30x_Demo_Suites_V2.0.0/GD32F30x_Demo_Suites_V2.0.0/GD32F30x_Firmware_Library/GD32F30x_standard_peripheral/Source\gd32f30x_i2c.c **** {
 1322              		.loc 1 427 0
 1323              		.cfi_startproc
 1324              		@ args = 0, pretend = 0, frame = 16
 1325              		@ frame_needed = 1, uses_anonymous_args = 0
 1326              		@ link register save eliminated.
 1327 0000 80B4     		push	{r7}
 1328              	.LCFI100:
 1329              		.cfi_def_cfa_offset 4
 1330              		.cfi_offset 7, -4
 1331 0002 85B0     		sub	sp, sp, #20
 1332              	.LCFI101:
 1333              		.cfi_def_cfa_offset 24
 1334 0004 00AF     		add	r7, sp, #0
 1335              	.LCFI102:
 1336              		.cfi_def_cfa_register 7
 1337 0006 7860     		str	r0, [r7, #4]
 1338 0008 3960     		str	r1, [r7]
 428:C:/Users/49542/Desktop/GD32F30x_Demo_Suites_V2.0.0/GD32F30x_Demo_Suites_V2.0.0/GD32F30x_Firmware_Library/GD32F30x_standard_peripheral/Source\gd32f30x_i2c.c ****     /* configure slave response to a general call enable or disable */
 429:C:/Users/49542/Desktop/GD32F30x_Demo_Suites_V2.0.0/GD32F30x_Demo_Suites_V2.0.0/GD32F30x_Firmware_Library/GD32F30x_standard_peripheral/Source\gd32f30x_i2c.c ****     uint32_t ctl = 0U;
 1339              		.loc 1 429 0
 1340 000a 0023     		movs	r3, #0
 1341 000c FB60     		str	r3, [r7, #12]
 430:C:/Users/49542/Desktop/GD32F30x_Demo_Suites_V2.0.0/GD32F30x_Demo_Suites_V2.0.0/GD32F30x_Firmware_Library/GD32F30x_standard_peripheral/Source\gd32f30x_i2c.c ****     
 431:C:/Users/49542/Desktop/GD32F30x_Demo_Suites_V2.0.0/GD32F30x_Demo_Suites_V2.0.0/GD32F30x_Firmware_Library/GD32F30x_standard_peripheral/Source\gd32f30x_i2c.c ****     ctl = I2C_CTL0(i2c_periph);
ARM GAS  C:\Users\49542\AppData\Local\Temp\ccmqPkvL.s 			page 32


 1342              		.loc 1 431 0
 1343 000e 7B68     		ldr	r3, [r7, #4]
 1344 0010 1B68     		ldr	r3, [r3]
 1345 0012 FB60     		str	r3, [r7, #12]
 432:C:/Users/49542/Desktop/GD32F30x_Demo_Suites_V2.0.0/GD32F30x_Demo_Suites_V2.0.0/GD32F30x_Firmware_Library/GD32F30x_standard_peripheral/Source\gd32f30x_i2c.c ****     ctl &= ~(I2C_CTL0_GCEN); 
 1346              		.loc 1 432 0
 1347 0014 FB68     		ldr	r3, [r7, #12]
 1348 0016 23F04003 		bic	r3, r3, #64
 1349 001a FB60     		str	r3, [r7, #12]
 433:C:/Users/49542/Desktop/GD32F30x_Demo_Suites_V2.0.0/GD32F30x_Demo_Suites_V2.0.0/GD32F30x_Firmware_Library/GD32F30x_standard_peripheral/Source\gd32f30x_i2c.c ****     ctl |= gcallpara;
 1350              		.loc 1 433 0
 1351 001c FA68     		ldr	r2, [r7, #12]
 1352 001e 3B68     		ldr	r3, [r7]
 1353 0020 1343     		orrs	r3, r3, r2
 1354 0022 FB60     		str	r3, [r7, #12]
 434:C:/Users/49542/Desktop/GD32F30x_Demo_Suites_V2.0.0/GD32F30x_Demo_Suites_V2.0.0/GD32F30x_Firmware_Library/GD32F30x_standard_peripheral/Source\gd32f30x_i2c.c ****     I2C_CTL0(i2c_periph) = ctl;
 1355              		.loc 1 434 0
 1356 0024 7B68     		ldr	r3, [r7, #4]
 1357 0026 FA68     		ldr	r2, [r7, #12]
 1358 0028 1A60     		str	r2, [r3]
 435:C:/Users/49542/Desktop/GD32F30x_Demo_Suites_V2.0.0/GD32F30x_Demo_Suites_V2.0.0/GD32F30x_Firmware_Library/GD32F30x_standard_peripheral/Source\gd32f30x_i2c.c **** }
 1359              		.loc 1 435 0
 1360 002a 00BF     		nop
 1361 002c 1437     		adds	r7, r7, #20
 1362              	.LCFI103:
 1363              		.cfi_def_cfa_offset 4
 1364 002e BD46     		mov	sp, r7
 1365              	.LCFI104:
 1366              		.cfi_def_cfa_register 13
 1367              		@ sp needed
 1368 0030 5DF8047B 		ldr	r7, [sp], #4
 1369              	.LCFI105:
 1370              		.cfi_restore 7
 1371              		.cfi_def_cfa_offset 0
 1372 0034 7047     		bx	lr
 1373              		.cfi_endproc
 1374              	.LFE133:
 1376              		.section	.text.i2c_software_reset_config,"ax",%progbits
 1377              		.align	1
 1378              		.global	i2c_software_reset_config
 1379              		.syntax unified
 1380              		.thumb
 1381              		.thumb_func
 1382              		.fpu fpv4-sp-d16
 1384              	i2c_software_reset_config:
 1385              	.LFB134:
 436:C:/Users/49542/Desktop/GD32F30x_Demo_Suites_V2.0.0/GD32F30x_Demo_Suites_V2.0.0/GD32F30x_Firmware_Library/GD32F30x_standard_peripheral/Source\gd32f30x_i2c.c **** 
 437:C:/Users/49542/Desktop/GD32F30x_Demo_Suites_V2.0.0/GD32F30x_Demo_Suites_V2.0.0/GD32F30x_Firmware_Library/GD32F30x_standard_peripheral/Source\gd32f30x_i2c.c **** /*!
 438:C:/Users/49542/Desktop/GD32F30x_Demo_Suites_V2.0.0/GD32F30x_Demo_Suites_V2.0.0/GD32F30x_Firmware_Library/GD32F30x_standard_peripheral/Source\gd32f30x_i2c.c ****     \brief      software reset I2C 
 439:C:/Users/49542/Desktop/GD32F30x_Demo_Suites_V2.0.0/GD32F30x_Demo_Suites_V2.0.0/GD32F30x_Firmware_Library/GD32F30x_standard_peripheral/Source\gd32f30x_i2c.c ****     \param[in]  i2c_periph: I2Cx(x=0,1)
 440:C:/Users/49542/Desktop/GD32F30x_Demo_Suites_V2.0.0/GD32F30x_Demo_Suites_V2.0.0/GD32F30x_Firmware_Library/GD32F30x_standard_peripheral/Source\gd32f30x_i2c.c ****     \param[in]  sreset:
 441:C:/Users/49542/Desktop/GD32F30x_Demo_Suites_V2.0.0/GD32F30x_Demo_Suites_V2.0.0/GD32F30x_Firmware_Library/GD32F30x_standard_peripheral/Source\gd32f30x_i2c.c ****                 only one parameter can be selected which is shown as below:
 442:C:/Users/49542/Desktop/GD32F30x_Demo_Suites_V2.0.0/GD32F30x_Demo_Suites_V2.0.0/GD32F30x_Firmware_Library/GD32F30x_standard_peripheral/Source\gd32f30x_i2c.c ****       \arg        I2C_SRESET_SET: I2C is under reset
 443:C:/Users/49542/Desktop/GD32F30x_Demo_Suites_V2.0.0/GD32F30x_Demo_Suites_V2.0.0/GD32F30x_Firmware_Library/GD32F30x_standard_peripheral/Source\gd32f30x_i2c.c ****       \arg        I2C_SRESET_RESET: I2C is not under reset
 444:C:/Users/49542/Desktop/GD32F30x_Demo_Suites_V2.0.0/GD32F30x_Demo_Suites_V2.0.0/GD32F30x_Firmware_Library/GD32F30x_standard_peripheral/Source\gd32f30x_i2c.c ****     \param[out] none
 445:C:/Users/49542/Desktop/GD32F30x_Demo_Suites_V2.0.0/GD32F30x_Demo_Suites_V2.0.0/GD32F30x_Firmware_Library/GD32F30x_standard_peripheral/Source\gd32f30x_i2c.c ****     \retval     none
 446:C:/Users/49542/Desktop/GD32F30x_Demo_Suites_V2.0.0/GD32F30x_Demo_Suites_V2.0.0/GD32F30x_Firmware_Library/GD32F30x_standard_peripheral/Source\gd32f30x_i2c.c **** */
ARM GAS  C:\Users\49542\AppData\Local\Temp\ccmqPkvL.s 			page 33


 447:C:/Users/49542/Desktop/GD32F30x_Demo_Suites_V2.0.0/GD32F30x_Demo_Suites_V2.0.0/GD32F30x_Firmware_Library/GD32F30x_standard_peripheral/Source\gd32f30x_i2c.c **** void i2c_software_reset_config(uint32_t i2c_periph, uint32_t sreset)
 448:C:/Users/49542/Desktop/GD32F30x_Demo_Suites_V2.0.0/GD32F30x_Demo_Suites_V2.0.0/GD32F30x_Firmware_Library/GD32F30x_standard_peripheral/Source\gd32f30x_i2c.c **** {
 1386              		.loc 1 448 0
 1387              		.cfi_startproc
 1388              		@ args = 0, pretend = 0, frame = 16
 1389              		@ frame_needed = 1, uses_anonymous_args = 0
 1390              		@ link register save eliminated.
 1391 0000 80B4     		push	{r7}
 1392              	.LCFI106:
 1393              		.cfi_def_cfa_offset 4
 1394              		.cfi_offset 7, -4
 1395 0002 85B0     		sub	sp, sp, #20
 1396              	.LCFI107:
 1397              		.cfi_def_cfa_offset 24
 1398 0004 00AF     		add	r7, sp, #0
 1399              	.LCFI108:
 1400              		.cfi_def_cfa_register 7
 1401 0006 7860     		str	r0, [r7, #4]
 1402 0008 3960     		str	r1, [r7]
 449:C:/Users/49542/Desktop/GD32F30x_Demo_Suites_V2.0.0/GD32F30x_Demo_Suites_V2.0.0/GD32F30x_Firmware_Library/GD32F30x_standard_peripheral/Source\gd32f30x_i2c.c ****     /* modify CTL0 and configure software reset I2C state */
 450:C:/Users/49542/Desktop/GD32F30x_Demo_Suites_V2.0.0/GD32F30x_Demo_Suites_V2.0.0/GD32F30x_Firmware_Library/GD32F30x_standard_peripheral/Source\gd32f30x_i2c.c ****     uint32_t ctl = 0U;
 1403              		.loc 1 450 0
 1404 000a 0023     		movs	r3, #0
 1405 000c FB60     		str	r3, [r7, #12]
 451:C:/Users/49542/Desktop/GD32F30x_Demo_Suites_V2.0.0/GD32F30x_Demo_Suites_V2.0.0/GD32F30x_Firmware_Library/GD32F30x_standard_peripheral/Source\gd32f30x_i2c.c ****     
 452:C:/Users/49542/Desktop/GD32F30x_Demo_Suites_V2.0.0/GD32F30x_Demo_Suites_V2.0.0/GD32F30x_Firmware_Library/GD32F30x_standard_peripheral/Source\gd32f30x_i2c.c ****     ctl = I2C_CTL0(i2c_periph);
 1406              		.loc 1 452 0
 1407 000e 7B68     		ldr	r3, [r7, #4]
 1408 0010 1B68     		ldr	r3, [r3]
 1409 0012 FB60     		str	r3, [r7, #12]
 453:C:/Users/49542/Desktop/GD32F30x_Demo_Suites_V2.0.0/GD32F30x_Demo_Suites_V2.0.0/GD32F30x_Firmware_Library/GD32F30x_standard_peripheral/Source\gd32f30x_i2c.c ****     ctl &= ~(I2C_CTL0_SRESET); 
 1410              		.loc 1 453 0
 1411 0014 FB68     		ldr	r3, [r7, #12]
 1412 0016 23F40043 		bic	r3, r3, #32768
 1413 001a FB60     		str	r3, [r7, #12]
 454:C:/Users/49542/Desktop/GD32F30x_Demo_Suites_V2.0.0/GD32F30x_Demo_Suites_V2.0.0/GD32F30x_Firmware_Library/GD32F30x_standard_peripheral/Source\gd32f30x_i2c.c ****     ctl |= sreset;
 1414              		.loc 1 454 0
 1415 001c FA68     		ldr	r2, [r7, #12]
 1416 001e 3B68     		ldr	r3, [r7]
 1417 0020 1343     		orrs	r3, r3, r2
 1418 0022 FB60     		str	r3, [r7, #12]
 455:C:/Users/49542/Desktop/GD32F30x_Demo_Suites_V2.0.0/GD32F30x_Demo_Suites_V2.0.0/GD32F30x_Firmware_Library/GD32F30x_standard_peripheral/Source\gd32f30x_i2c.c ****     I2C_CTL0(i2c_periph) = ctl;
 1419              		.loc 1 455 0
 1420 0024 7B68     		ldr	r3, [r7, #4]
 1421 0026 FA68     		ldr	r2, [r7, #12]
 1422 0028 1A60     		str	r2, [r3]
 456:C:/Users/49542/Desktop/GD32F30x_Demo_Suites_V2.0.0/GD32F30x_Demo_Suites_V2.0.0/GD32F30x_Firmware_Library/GD32F30x_standard_peripheral/Source\gd32f30x_i2c.c **** }
 1423              		.loc 1 456 0
 1424 002a 00BF     		nop
 1425 002c 1437     		adds	r7, r7, #20
 1426              	.LCFI109:
 1427              		.cfi_def_cfa_offset 4
 1428 002e BD46     		mov	sp, r7
 1429              	.LCFI110:
 1430              		.cfi_def_cfa_register 13
 1431              		@ sp needed
 1432 0030 5DF8047B 		ldr	r7, [sp], #4
ARM GAS  C:\Users\49542\AppData\Local\Temp\ccmqPkvL.s 			page 34


 1433              	.LCFI111:
 1434              		.cfi_restore 7
 1435              		.cfi_def_cfa_offset 0
 1436 0034 7047     		bx	lr
 1437              		.cfi_endproc
 1438              	.LFE134:
 1440              		.section	.text.i2c_pec_enable,"ax",%progbits
 1441              		.align	1
 1442              		.global	i2c_pec_enable
 1443              		.syntax unified
 1444              		.thumb
 1445              		.thumb_func
 1446              		.fpu fpv4-sp-d16
 1448              	i2c_pec_enable:
 1449              	.LFB135:
 457:C:/Users/49542/Desktop/GD32F30x_Demo_Suites_V2.0.0/GD32F30x_Demo_Suites_V2.0.0/GD32F30x_Firmware_Library/GD32F30x_standard_peripheral/Source\gd32f30x_i2c.c **** 
 458:C:/Users/49542/Desktop/GD32F30x_Demo_Suites_V2.0.0/GD32F30x_Demo_Suites_V2.0.0/GD32F30x_Firmware_Library/GD32F30x_standard_peripheral/Source\gd32f30x_i2c.c **** /*!
 459:C:/Users/49542/Desktop/GD32F30x_Demo_Suites_V2.0.0/GD32F30x_Demo_Suites_V2.0.0/GD32F30x_Firmware_Library/GD32F30x_standard_peripheral/Source\gd32f30x_i2c.c ****     \brief      I2C PEC calculation on or off
 460:C:/Users/49542/Desktop/GD32F30x_Demo_Suites_V2.0.0/GD32F30x_Demo_Suites_V2.0.0/GD32F30x_Firmware_Library/GD32F30x_standard_peripheral/Source\gd32f30x_i2c.c ****     \param[in]  i2c_periph: I2Cx(x=0,1)
 461:C:/Users/49542/Desktop/GD32F30x_Demo_Suites_V2.0.0/GD32F30x_Demo_Suites_V2.0.0/GD32F30x_Firmware_Library/GD32F30x_standard_peripheral/Source\gd32f30x_i2c.c ****     \param[in]  pecpara:
 462:C:/Users/49542/Desktop/GD32F30x_Demo_Suites_V2.0.0/GD32F30x_Demo_Suites_V2.0.0/GD32F30x_Firmware_Library/GD32F30x_standard_peripheral/Source\gd32f30x_i2c.c ****                 only one parameter can be selected which is shown as below:
 463:C:/Users/49542/Desktop/GD32F30x_Demo_Suites_V2.0.0/GD32F30x_Demo_Suites_V2.0.0/GD32F30x_Firmware_Library/GD32F30x_standard_peripheral/Source\gd32f30x_i2c.c ****       \arg        I2C_PEC_ENABLE: PEC calculation on 
 464:C:/Users/49542/Desktop/GD32F30x_Demo_Suites_V2.0.0/GD32F30x_Demo_Suites_V2.0.0/GD32F30x_Firmware_Library/GD32F30x_standard_peripheral/Source\gd32f30x_i2c.c ****       \arg        I2C_PEC_DISABLE: PEC calculation off 
 465:C:/Users/49542/Desktop/GD32F30x_Demo_Suites_V2.0.0/GD32F30x_Demo_Suites_V2.0.0/GD32F30x_Firmware_Library/GD32F30x_standard_peripheral/Source\gd32f30x_i2c.c ****     \param[out] none
 466:C:/Users/49542/Desktop/GD32F30x_Demo_Suites_V2.0.0/GD32F30x_Demo_Suites_V2.0.0/GD32F30x_Firmware_Library/GD32F30x_standard_peripheral/Source\gd32f30x_i2c.c ****     \retval     none
 467:C:/Users/49542/Desktop/GD32F30x_Demo_Suites_V2.0.0/GD32F30x_Demo_Suites_V2.0.0/GD32F30x_Firmware_Library/GD32F30x_standard_peripheral/Source\gd32f30x_i2c.c **** */
 468:C:/Users/49542/Desktop/GD32F30x_Demo_Suites_V2.0.0/GD32F30x_Demo_Suites_V2.0.0/GD32F30x_Firmware_Library/GD32F30x_standard_peripheral/Source\gd32f30x_i2c.c **** void i2c_pec_enable(uint32_t i2c_periph, uint32_t pecstate)
 469:C:/Users/49542/Desktop/GD32F30x_Demo_Suites_V2.0.0/GD32F30x_Demo_Suites_V2.0.0/GD32F30x_Firmware_Library/GD32F30x_standard_peripheral/Source\gd32f30x_i2c.c **** {
 1450              		.loc 1 469 0
 1451              		.cfi_startproc
 1452              		@ args = 0, pretend = 0, frame = 16
 1453              		@ frame_needed = 1, uses_anonymous_args = 0
 1454              		@ link register save eliminated.
 1455 0000 80B4     		push	{r7}
 1456              	.LCFI112:
 1457              		.cfi_def_cfa_offset 4
 1458              		.cfi_offset 7, -4
 1459 0002 85B0     		sub	sp, sp, #20
 1460              	.LCFI113:
 1461              		.cfi_def_cfa_offset 24
 1462 0004 00AF     		add	r7, sp, #0
 1463              	.LCFI114:
 1464              		.cfi_def_cfa_register 7
 1465 0006 7860     		str	r0, [r7, #4]
 1466 0008 3960     		str	r1, [r7]
 470:C:/Users/49542/Desktop/GD32F30x_Demo_Suites_V2.0.0/GD32F30x_Demo_Suites_V2.0.0/GD32F30x_Firmware_Library/GD32F30x_standard_peripheral/Source\gd32f30x_i2c.c ****     /* on/off PEC calculation */
 471:C:/Users/49542/Desktop/GD32F30x_Demo_Suites_V2.0.0/GD32F30x_Demo_Suites_V2.0.0/GD32F30x_Firmware_Library/GD32F30x_standard_peripheral/Source\gd32f30x_i2c.c ****     uint32_t ctl = 0U;
 1467              		.loc 1 471 0
 1468 000a 0023     		movs	r3, #0
 1469 000c FB60     		str	r3, [r7, #12]
 472:C:/Users/49542/Desktop/GD32F30x_Demo_Suites_V2.0.0/GD32F30x_Demo_Suites_V2.0.0/GD32F30x_Firmware_Library/GD32F30x_standard_peripheral/Source\gd32f30x_i2c.c ****     
 473:C:/Users/49542/Desktop/GD32F30x_Demo_Suites_V2.0.0/GD32F30x_Demo_Suites_V2.0.0/GD32F30x_Firmware_Library/GD32F30x_standard_peripheral/Source\gd32f30x_i2c.c ****     ctl = I2C_CTL0(i2c_periph);
 1470              		.loc 1 473 0
 1471 000e 7B68     		ldr	r3, [r7, #4]
 1472 0010 1B68     		ldr	r3, [r3]
 1473 0012 FB60     		str	r3, [r7, #12]
 474:C:/Users/49542/Desktop/GD32F30x_Demo_Suites_V2.0.0/GD32F30x_Demo_Suites_V2.0.0/GD32F30x_Firmware_Library/GD32F30x_standard_peripheral/Source\gd32f30x_i2c.c ****     ctl &= ~(I2C_CTL0_PECEN);
ARM GAS  C:\Users\49542\AppData\Local\Temp\ccmqPkvL.s 			page 35


 1474              		.loc 1 474 0
 1475 0014 FB68     		ldr	r3, [r7, #12]
 1476 0016 23F02003 		bic	r3, r3, #32
 1477 001a FB60     		str	r3, [r7, #12]
 475:C:/Users/49542/Desktop/GD32F30x_Demo_Suites_V2.0.0/GD32F30x_Demo_Suites_V2.0.0/GD32F30x_Firmware_Library/GD32F30x_standard_peripheral/Source\gd32f30x_i2c.c ****     ctl |= pecstate;
 1478              		.loc 1 475 0
 1479 001c FA68     		ldr	r2, [r7, #12]
 1480 001e 3B68     		ldr	r3, [r7]
 1481 0020 1343     		orrs	r3, r3, r2
 1482 0022 FB60     		str	r3, [r7, #12]
 476:C:/Users/49542/Desktop/GD32F30x_Demo_Suites_V2.0.0/GD32F30x_Demo_Suites_V2.0.0/GD32F30x_Firmware_Library/GD32F30x_standard_peripheral/Source\gd32f30x_i2c.c ****     I2C_CTL0(i2c_periph) = ctl;
 1483              		.loc 1 476 0
 1484 0024 7B68     		ldr	r3, [r7, #4]
 1485 0026 FA68     		ldr	r2, [r7, #12]
 1486 0028 1A60     		str	r2, [r3]
 477:C:/Users/49542/Desktop/GD32F30x_Demo_Suites_V2.0.0/GD32F30x_Demo_Suites_V2.0.0/GD32F30x_Firmware_Library/GD32F30x_standard_peripheral/Source\gd32f30x_i2c.c **** }
 1487              		.loc 1 477 0
 1488 002a 00BF     		nop
 1489 002c 1437     		adds	r7, r7, #20
 1490              	.LCFI115:
 1491              		.cfi_def_cfa_offset 4
 1492 002e BD46     		mov	sp, r7
 1493              	.LCFI116:
 1494              		.cfi_def_cfa_register 13
 1495              		@ sp needed
 1496 0030 5DF8047B 		ldr	r7, [sp], #4
 1497              	.LCFI117:
 1498              		.cfi_restore 7
 1499              		.cfi_def_cfa_offset 0
 1500 0034 7047     		bx	lr
 1501              		.cfi_endproc
 1502              	.LFE135:
 1504              		.section	.text.i2c_pec_transfer_enable,"ax",%progbits
 1505              		.align	1
 1506              		.global	i2c_pec_transfer_enable
 1507              		.syntax unified
 1508              		.thumb
 1509              		.thumb_func
 1510              		.fpu fpv4-sp-d16
 1512              	i2c_pec_transfer_enable:
 1513              	.LFB136:
 478:C:/Users/49542/Desktop/GD32F30x_Demo_Suites_V2.0.0/GD32F30x_Demo_Suites_V2.0.0/GD32F30x_Firmware_Library/GD32F30x_standard_peripheral/Source\gd32f30x_i2c.c **** 
 479:C:/Users/49542/Desktop/GD32F30x_Demo_Suites_V2.0.0/GD32F30x_Demo_Suites_V2.0.0/GD32F30x_Firmware_Library/GD32F30x_standard_peripheral/Source\gd32f30x_i2c.c **** /*!
 480:C:/Users/49542/Desktop/GD32F30x_Demo_Suites_V2.0.0/GD32F30x_Demo_Suites_V2.0.0/GD32F30x_Firmware_Library/GD32F30x_standard_peripheral/Source\gd32f30x_i2c.c ****     \brief      I2C whether to transfer PEC value
 481:C:/Users/49542/Desktop/GD32F30x_Demo_Suites_V2.0.0/GD32F30x_Demo_Suites_V2.0.0/GD32F30x_Firmware_Library/GD32F30x_standard_peripheral/Source\gd32f30x_i2c.c ****     \param[in]  i2c_periph: I2Cx(x=0,1)
 482:C:/Users/49542/Desktop/GD32F30x_Demo_Suites_V2.0.0/GD32F30x_Demo_Suites_V2.0.0/GD32F30x_Firmware_Library/GD32F30x_standard_peripheral/Source\gd32f30x_i2c.c ****     \param[in]  pecpara:
 483:C:/Users/49542/Desktop/GD32F30x_Demo_Suites_V2.0.0/GD32F30x_Demo_Suites_V2.0.0/GD32F30x_Firmware_Library/GD32F30x_standard_peripheral/Source\gd32f30x_i2c.c ****                 only one parameter can be selected which is shown as below:
 484:C:/Users/49542/Desktop/GD32F30x_Demo_Suites_V2.0.0/GD32F30x_Demo_Suites_V2.0.0/GD32F30x_Firmware_Library/GD32F30x_standard_peripheral/Source\gd32f30x_i2c.c ****       \arg        I2C_PECTRANS_ENABLE: transfer PEC 
 485:C:/Users/49542/Desktop/GD32F30x_Demo_Suites_V2.0.0/GD32F30x_Demo_Suites_V2.0.0/GD32F30x_Firmware_Library/GD32F30x_standard_peripheral/Source\gd32f30x_i2c.c ****       \arg        I2C_PECTRANS_DISABLE: not transfer PEC 
 486:C:/Users/49542/Desktop/GD32F30x_Demo_Suites_V2.0.0/GD32F30x_Demo_Suites_V2.0.0/GD32F30x_Firmware_Library/GD32F30x_standard_peripheral/Source\gd32f30x_i2c.c ****     \param[out] none
 487:C:/Users/49542/Desktop/GD32F30x_Demo_Suites_V2.0.0/GD32F30x_Demo_Suites_V2.0.0/GD32F30x_Firmware_Library/GD32F30x_standard_peripheral/Source\gd32f30x_i2c.c ****     \retval     none
 488:C:/Users/49542/Desktop/GD32F30x_Demo_Suites_V2.0.0/GD32F30x_Demo_Suites_V2.0.0/GD32F30x_Firmware_Library/GD32F30x_standard_peripheral/Source\gd32f30x_i2c.c **** */
 489:C:/Users/49542/Desktop/GD32F30x_Demo_Suites_V2.0.0/GD32F30x_Demo_Suites_V2.0.0/GD32F30x_Firmware_Library/GD32F30x_standard_peripheral/Source\gd32f30x_i2c.c **** void i2c_pec_transfer_enable(uint32_t i2c_periph, uint32_t pecpara)
 490:C:/Users/49542/Desktop/GD32F30x_Demo_Suites_V2.0.0/GD32F30x_Demo_Suites_V2.0.0/GD32F30x_Firmware_Library/GD32F30x_standard_peripheral/Source\gd32f30x_i2c.c **** {
 1514              		.loc 1 490 0
 1515              		.cfi_startproc
 1516              		@ args = 0, pretend = 0, frame = 16
ARM GAS  C:\Users\49542\AppData\Local\Temp\ccmqPkvL.s 			page 36


 1517              		@ frame_needed = 1, uses_anonymous_args = 0
 1518              		@ link register save eliminated.
 1519 0000 80B4     		push	{r7}
 1520              	.LCFI118:
 1521              		.cfi_def_cfa_offset 4
 1522              		.cfi_offset 7, -4
 1523 0002 85B0     		sub	sp, sp, #20
 1524              	.LCFI119:
 1525              		.cfi_def_cfa_offset 24
 1526 0004 00AF     		add	r7, sp, #0
 1527              	.LCFI120:
 1528              		.cfi_def_cfa_register 7
 1529 0006 7860     		str	r0, [r7, #4]
 1530 0008 3960     		str	r1, [r7]
 491:C:/Users/49542/Desktop/GD32F30x_Demo_Suites_V2.0.0/GD32F30x_Demo_Suites_V2.0.0/GD32F30x_Firmware_Library/GD32F30x_standard_peripheral/Source\gd32f30x_i2c.c ****     /* whether to transfer PEC */
 492:C:/Users/49542/Desktop/GD32F30x_Demo_Suites_V2.0.0/GD32F30x_Demo_Suites_V2.0.0/GD32F30x_Firmware_Library/GD32F30x_standard_peripheral/Source\gd32f30x_i2c.c ****     uint32_t ctl = 0U;
 1531              		.loc 1 492 0
 1532 000a 0023     		movs	r3, #0
 1533 000c FB60     		str	r3, [r7, #12]
 493:C:/Users/49542/Desktop/GD32F30x_Demo_Suites_V2.0.0/GD32F30x_Demo_Suites_V2.0.0/GD32F30x_Firmware_Library/GD32F30x_standard_peripheral/Source\gd32f30x_i2c.c ****     
 494:C:/Users/49542/Desktop/GD32F30x_Demo_Suites_V2.0.0/GD32F30x_Demo_Suites_V2.0.0/GD32F30x_Firmware_Library/GD32F30x_standard_peripheral/Source\gd32f30x_i2c.c ****     ctl = I2C_CTL0(i2c_periph);
 1534              		.loc 1 494 0
 1535 000e 7B68     		ldr	r3, [r7, #4]
 1536 0010 1B68     		ldr	r3, [r3]
 1537 0012 FB60     		str	r3, [r7, #12]
 495:C:/Users/49542/Desktop/GD32F30x_Demo_Suites_V2.0.0/GD32F30x_Demo_Suites_V2.0.0/GD32F30x_Firmware_Library/GD32F30x_standard_peripheral/Source\gd32f30x_i2c.c ****     ctl &= ~(I2C_CTL0_PECTRANS);
 1538              		.loc 1 495 0
 1539 0014 FB68     		ldr	r3, [r7, #12]
 1540 0016 23F48053 		bic	r3, r3, #4096
 1541 001a FB60     		str	r3, [r7, #12]
 496:C:/Users/49542/Desktop/GD32F30x_Demo_Suites_V2.0.0/GD32F30x_Demo_Suites_V2.0.0/GD32F30x_Firmware_Library/GD32F30x_standard_peripheral/Source\gd32f30x_i2c.c ****     ctl |= pecpara;
 1542              		.loc 1 496 0
 1543 001c FA68     		ldr	r2, [r7, #12]
 1544 001e 3B68     		ldr	r3, [r7]
 1545 0020 1343     		orrs	r3, r3, r2
 1546 0022 FB60     		str	r3, [r7, #12]
 497:C:/Users/49542/Desktop/GD32F30x_Demo_Suites_V2.0.0/GD32F30x_Demo_Suites_V2.0.0/GD32F30x_Firmware_Library/GD32F30x_standard_peripheral/Source\gd32f30x_i2c.c ****     I2C_CTL0(i2c_periph) = ctl;
 1547              		.loc 1 497 0
 1548 0024 7B68     		ldr	r3, [r7, #4]
 1549 0026 FA68     		ldr	r2, [r7, #12]
 1550 0028 1A60     		str	r2, [r3]
 498:C:/Users/49542/Desktop/GD32F30x_Demo_Suites_V2.0.0/GD32F30x_Demo_Suites_V2.0.0/GD32F30x_Firmware_Library/GD32F30x_standard_peripheral/Source\gd32f30x_i2c.c **** }
 1551              		.loc 1 498 0
 1552 002a 00BF     		nop
 1553 002c 1437     		adds	r7, r7, #20
 1554              	.LCFI121:
 1555              		.cfi_def_cfa_offset 4
 1556 002e BD46     		mov	sp, r7
 1557              	.LCFI122:
 1558              		.cfi_def_cfa_register 13
 1559              		@ sp needed
 1560 0030 5DF8047B 		ldr	r7, [sp], #4
 1561              	.LCFI123:
 1562              		.cfi_restore 7
 1563              		.cfi_def_cfa_offset 0
 1564 0034 7047     		bx	lr
 1565              		.cfi_endproc
ARM GAS  C:\Users\49542\AppData\Local\Temp\ccmqPkvL.s 			page 37


 1566              	.LFE136:
 1568              		.section	.text.i2c_pec_value_get,"ax",%progbits
 1569              		.align	1
 1570              		.global	i2c_pec_value_get
 1571              		.syntax unified
 1572              		.thumb
 1573              		.thumb_func
 1574              		.fpu fpv4-sp-d16
 1576              	i2c_pec_value_get:
 1577              	.LFB137:
 499:C:/Users/49542/Desktop/GD32F30x_Demo_Suites_V2.0.0/GD32F30x_Demo_Suites_V2.0.0/GD32F30x_Firmware_Library/GD32F30x_standard_peripheral/Source\gd32f30x_i2c.c **** 
 500:C:/Users/49542/Desktop/GD32F30x_Demo_Suites_V2.0.0/GD32F30x_Demo_Suites_V2.0.0/GD32F30x_Firmware_Library/GD32F30x_standard_peripheral/Source\gd32f30x_i2c.c **** /*!
 501:C:/Users/49542/Desktop/GD32F30x_Demo_Suites_V2.0.0/GD32F30x_Demo_Suites_V2.0.0/GD32F30x_Firmware_Library/GD32F30x_standard_peripheral/Source\gd32f30x_i2c.c ****     \brief      get packet error checking value 
 502:C:/Users/49542/Desktop/GD32F30x_Demo_Suites_V2.0.0/GD32F30x_Demo_Suites_V2.0.0/GD32F30x_Firmware_Library/GD32F30x_standard_peripheral/Source\gd32f30x_i2c.c ****     \param[in]  i2c_periph: I2Cx(x=0,1)
 503:C:/Users/49542/Desktop/GD32F30x_Demo_Suites_V2.0.0/GD32F30x_Demo_Suites_V2.0.0/GD32F30x_Firmware_Library/GD32F30x_standard_peripheral/Source\gd32f30x_i2c.c ****     \param[out] none
 504:C:/Users/49542/Desktop/GD32F30x_Demo_Suites_V2.0.0/GD32F30x_Demo_Suites_V2.0.0/GD32F30x_Firmware_Library/GD32F30x_standard_peripheral/Source\gd32f30x_i2c.c ****     \retval     PEC value
 505:C:/Users/49542/Desktop/GD32F30x_Demo_Suites_V2.0.0/GD32F30x_Demo_Suites_V2.0.0/GD32F30x_Firmware_Library/GD32F30x_standard_peripheral/Source\gd32f30x_i2c.c **** */
 506:C:/Users/49542/Desktop/GD32F30x_Demo_Suites_V2.0.0/GD32F30x_Demo_Suites_V2.0.0/GD32F30x_Firmware_Library/GD32F30x_standard_peripheral/Source\gd32f30x_i2c.c **** uint8_t i2c_pec_value_get(uint32_t i2c_periph)
 507:C:/Users/49542/Desktop/GD32F30x_Demo_Suites_V2.0.0/GD32F30x_Demo_Suites_V2.0.0/GD32F30x_Firmware_Library/GD32F30x_standard_peripheral/Source\gd32f30x_i2c.c **** {
 1578              		.loc 1 507 0
 1579              		.cfi_startproc
 1580              		@ args = 0, pretend = 0, frame = 8
 1581              		@ frame_needed = 1, uses_anonymous_args = 0
 1582              		@ link register save eliminated.
 1583 0000 80B4     		push	{r7}
 1584              	.LCFI124:
 1585              		.cfi_def_cfa_offset 4
 1586              		.cfi_offset 7, -4
 1587 0002 83B0     		sub	sp, sp, #12
 1588              	.LCFI125:
 1589              		.cfi_def_cfa_offset 16
 1590 0004 00AF     		add	r7, sp, #0
 1591              	.LCFI126:
 1592              		.cfi_def_cfa_register 7
 1593 0006 7860     		str	r0, [r7, #4]
 508:C:/Users/49542/Desktop/GD32F30x_Demo_Suites_V2.0.0/GD32F30x_Demo_Suites_V2.0.0/GD32F30x_Firmware_Library/GD32F30x_standard_peripheral/Source\gd32f30x_i2c.c ****     return (uint8_t)((I2C_STAT1(i2c_periph) & I2C_STAT1_PECV)>>STAT1_PECV_OFFSET);
 1594              		.loc 1 508 0
 1595 0008 7B68     		ldr	r3, [r7, #4]
 1596 000a 1833     		adds	r3, r3, #24
 1597 000c 1B68     		ldr	r3, [r3]
 1598 000e 1B0A     		lsrs	r3, r3, #8
 1599 0010 DBB2     		uxtb	r3, r3
 509:C:/Users/49542/Desktop/GD32F30x_Demo_Suites_V2.0.0/GD32F30x_Demo_Suites_V2.0.0/GD32F30x_Firmware_Library/GD32F30x_standard_peripheral/Source\gd32f30x_i2c.c **** }
 1600              		.loc 1 509 0
 1601 0012 1846     		mov	r0, r3
 1602 0014 0C37     		adds	r7, r7, #12
 1603              	.LCFI127:
 1604              		.cfi_def_cfa_offset 4
 1605 0016 BD46     		mov	sp, r7
 1606              	.LCFI128:
 1607              		.cfi_def_cfa_register 13
 1608              		@ sp needed
 1609 0018 5DF8047B 		ldr	r7, [sp], #4
 1610              	.LCFI129:
 1611              		.cfi_restore 7
 1612              		.cfi_def_cfa_offset 0
 1613 001c 7047     		bx	lr
ARM GAS  C:\Users\49542\AppData\Local\Temp\ccmqPkvL.s 			page 38


 1614              		.cfi_endproc
 1615              	.LFE137:
 1617              		.section	.text.i2c_smbus_issue_alert,"ax",%progbits
 1618              		.align	1
 1619              		.global	i2c_smbus_issue_alert
 1620              		.syntax unified
 1621              		.thumb
 1622              		.thumb_func
 1623              		.fpu fpv4-sp-d16
 1625              	i2c_smbus_issue_alert:
 1626              	.LFB138:
 510:C:/Users/49542/Desktop/GD32F30x_Demo_Suites_V2.0.0/GD32F30x_Demo_Suites_V2.0.0/GD32F30x_Firmware_Library/GD32F30x_standard_peripheral/Source\gd32f30x_i2c.c **** 
 511:C:/Users/49542/Desktop/GD32F30x_Demo_Suites_V2.0.0/GD32F30x_Demo_Suites_V2.0.0/GD32F30x_Firmware_Library/GD32F30x_standard_peripheral/Source\gd32f30x_i2c.c **** /*!
 512:C:/Users/49542/Desktop/GD32F30x_Demo_Suites_V2.0.0/GD32F30x_Demo_Suites_V2.0.0/GD32F30x_Firmware_Library/GD32F30x_standard_peripheral/Source\gd32f30x_i2c.c ****     \brief      I2C issue alert through SMBA pin 
 513:C:/Users/49542/Desktop/GD32F30x_Demo_Suites_V2.0.0/GD32F30x_Demo_Suites_V2.0.0/GD32F30x_Firmware_Library/GD32F30x_standard_peripheral/Source\gd32f30x_i2c.c ****     \param[in]  i2c_periph: I2Cx(x=0,1)
 514:C:/Users/49542/Desktop/GD32F30x_Demo_Suites_V2.0.0/GD32F30x_Demo_Suites_V2.0.0/GD32F30x_Firmware_Library/GD32F30x_standard_peripheral/Source\gd32f30x_i2c.c ****     \param[in]  smbuspara:
 515:C:/Users/49542/Desktop/GD32F30x_Demo_Suites_V2.0.0/GD32F30x_Demo_Suites_V2.0.0/GD32F30x_Firmware_Library/GD32F30x_standard_peripheral/Source\gd32f30x_i2c.c ****                 only one parameter can be selected which is shown as below:
 516:C:/Users/49542/Desktop/GD32F30x_Demo_Suites_V2.0.0/GD32F30x_Demo_Suites_V2.0.0/GD32F30x_Firmware_Library/GD32F30x_standard_peripheral/Source\gd32f30x_i2c.c ****       \arg        I2C_SALTSEND_ENABLE: issue alert through SMBA pin 
 517:C:/Users/49542/Desktop/GD32F30x_Demo_Suites_V2.0.0/GD32F30x_Demo_Suites_V2.0.0/GD32F30x_Firmware_Library/GD32F30x_standard_peripheral/Source\gd32f30x_i2c.c ****       \arg        I2C_SALTSEND_DISABLE: not issue alert through SMBA pin 
 518:C:/Users/49542/Desktop/GD32F30x_Demo_Suites_V2.0.0/GD32F30x_Demo_Suites_V2.0.0/GD32F30x_Firmware_Library/GD32F30x_standard_peripheral/Source\gd32f30x_i2c.c ****     \param[out] none
 519:C:/Users/49542/Desktop/GD32F30x_Demo_Suites_V2.0.0/GD32F30x_Demo_Suites_V2.0.0/GD32F30x_Firmware_Library/GD32F30x_standard_peripheral/Source\gd32f30x_i2c.c ****     \retval     none
 520:C:/Users/49542/Desktop/GD32F30x_Demo_Suites_V2.0.0/GD32F30x_Demo_Suites_V2.0.0/GD32F30x_Firmware_Library/GD32F30x_standard_peripheral/Source\gd32f30x_i2c.c **** */
 521:C:/Users/49542/Desktop/GD32F30x_Demo_Suites_V2.0.0/GD32F30x_Demo_Suites_V2.0.0/GD32F30x_Firmware_Library/GD32F30x_standard_peripheral/Source\gd32f30x_i2c.c **** void i2c_smbus_issue_alert(uint32_t i2c_periph, uint32_t smbuspara)
 522:C:/Users/49542/Desktop/GD32F30x_Demo_Suites_V2.0.0/GD32F30x_Demo_Suites_V2.0.0/GD32F30x_Firmware_Library/GD32F30x_standard_peripheral/Source\gd32f30x_i2c.c **** {
 1627              		.loc 1 522 0
 1628              		.cfi_startproc
 1629              		@ args = 0, pretend = 0, frame = 16
 1630              		@ frame_needed = 1, uses_anonymous_args = 0
 1631              		@ link register save eliminated.
 1632 0000 80B4     		push	{r7}
 1633              	.LCFI130:
 1634              		.cfi_def_cfa_offset 4
 1635              		.cfi_offset 7, -4
 1636 0002 85B0     		sub	sp, sp, #20
 1637              	.LCFI131:
 1638              		.cfi_def_cfa_offset 24
 1639 0004 00AF     		add	r7, sp, #0
 1640              	.LCFI132:
 1641              		.cfi_def_cfa_register 7
 1642 0006 7860     		str	r0, [r7, #4]
 1643 0008 3960     		str	r1, [r7]
 523:C:/Users/49542/Desktop/GD32F30x_Demo_Suites_V2.0.0/GD32F30x_Demo_Suites_V2.0.0/GD32F30x_Firmware_Library/GD32F30x_standard_peripheral/Source\gd32f30x_i2c.c ****     /* issue alert through SMBA pin configure*/
 524:C:/Users/49542/Desktop/GD32F30x_Demo_Suites_V2.0.0/GD32F30x_Demo_Suites_V2.0.0/GD32F30x_Firmware_Library/GD32F30x_standard_peripheral/Source\gd32f30x_i2c.c ****     uint32_t ctl = 0U;
 1644              		.loc 1 524 0
 1645 000a 0023     		movs	r3, #0
 1646 000c FB60     		str	r3, [r7, #12]
 525:C:/Users/49542/Desktop/GD32F30x_Demo_Suites_V2.0.0/GD32F30x_Demo_Suites_V2.0.0/GD32F30x_Firmware_Library/GD32F30x_standard_peripheral/Source\gd32f30x_i2c.c ****     
 526:C:/Users/49542/Desktop/GD32F30x_Demo_Suites_V2.0.0/GD32F30x_Demo_Suites_V2.0.0/GD32F30x_Firmware_Library/GD32F30x_standard_peripheral/Source\gd32f30x_i2c.c ****     ctl = I2C_CTL0(i2c_periph);
 1647              		.loc 1 526 0
 1648 000e 7B68     		ldr	r3, [r7, #4]
 1649 0010 1B68     		ldr	r3, [r3]
 1650 0012 FB60     		str	r3, [r7, #12]
 527:C:/Users/49542/Desktop/GD32F30x_Demo_Suites_V2.0.0/GD32F30x_Demo_Suites_V2.0.0/GD32F30x_Firmware_Library/GD32F30x_standard_peripheral/Source\gd32f30x_i2c.c ****     ctl &= ~(I2C_CTL0_SALT);
 1651              		.loc 1 527 0
 1652 0014 FB68     		ldr	r3, [r7, #12]
 1653 0016 23F40053 		bic	r3, r3, #8192
 1654 001a FB60     		str	r3, [r7, #12]
ARM GAS  C:\Users\49542\AppData\Local\Temp\ccmqPkvL.s 			page 39


 528:C:/Users/49542/Desktop/GD32F30x_Demo_Suites_V2.0.0/GD32F30x_Demo_Suites_V2.0.0/GD32F30x_Firmware_Library/GD32F30x_standard_peripheral/Source\gd32f30x_i2c.c ****     ctl |= smbuspara;
 1655              		.loc 1 528 0
 1656 001c FA68     		ldr	r2, [r7, #12]
 1657 001e 3B68     		ldr	r3, [r7]
 1658 0020 1343     		orrs	r3, r3, r2
 1659 0022 FB60     		str	r3, [r7, #12]
 529:C:/Users/49542/Desktop/GD32F30x_Demo_Suites_V2.0.0/GD32F30x_Demo_Suites_V2.0.0/GD32F30x_Firmware_Library/GD32F30x_standard_peripheral/Source\gd32f30x_i2c.c ****     I2C_CTL0(i2c_periph) = ctl;
 1660              		.loc 1 529 0
 1661 0024 7B68     		ldr	r3, [r7, #4]
 1662 0026 FA68     		ldr	r2, [r7, #12]
 1663 0028 1A60     		str	r2, [r3]
 530:C:/Users/49542/Desktop/GD32F30x_Demo_Suites_V2.0.0/GD32F30x_Demo_Suites_V2.0.0/GD32F30x_Firmware_Library/GD32F30x_standard_peripheral/Source\gd32f30x_i2c.c **** }
 1664              		.loc 1 530 0
 1665 002a 00BF     		nop
 1666 002c 1437     		adds	r7, r7, #20
 1667              	.LCFI133:
 1668              		.cfi_def_cfa_offset 4
 1669 002e BD46     		mov	sp, r7
 1670              	.LCFI134:
 1671              		.cfi_def_cfa_register 13
 1672              		@ sp needed
 1673 0030 5DF8047B 		ldr	r7, [sp], #4
 1674              	.LCFI135:
 1675              		.cfi_restore 7
 1676              		.cfi_def_cfa_offset 0
 1677 0034 7047     		bx	lr
 1678              		.cfi_endproc
 1679              	.LFE138:
 1681              		.section	.text.i2c_smbus_arp_enable,"ax",%progbits
 1682              		.align	1
 1683              		.global	i2c_smbus_arp_enable
 1684              		.syntax unified
 1685              		.thumb
 1686              		.thumb_func
 1687              		.fpu fpv4-sp-d16
 1689              	i2c_smbus_arp_enable:
 1690              	.LFB139:
 531:C:/Users/49542/Desktop/GD32F30x_Demo_Suites_V2.0.0/GD32F30x_Demo_Suites_V2.0.0/GD32F30x_Firmware_Library/GD32F30x_standard_peripheral/Source\gd32f30x_i2c.c **** 
 532:C:/Users/49542/Desktop/GD32F30x_Demo_Suites_V2.0.0/GD32F30x_Demo_Suites_V2.0.0/GD32F30x_Firmware_Library/GD32F30x_standard_peripheral/Source\gd32f30x_i2c.c **** /*!
 533:C:/Users/49542/Desktop/GD32F30x_Demo_Suites_V2.0.0/GD32F30x_Demo_Suites_V2.0.0/GD32F30x_Firmware_Library/GD32F30x_standard_peripheral/Source\gd32f30x_i2c.c ****     \brief      enable or disable I2C ARP protocol in SMBus switch
 534:C:/Users/49542/Desktop/GD32F30x_Demo_Suites_V2.0.0/GD32F30x_Demo_Suites_V2.0.0/GD32F30x_Firmware_Library/GD32F30x_standard_peripheral/Source\gd32f30x_i2c.c ****     \param[in]  i2c_periph: I2Cx(x=0,1)
 535:C:/Users/49542/Desktop/GD32F30x_Demo_Suites_V2.0.0/GD32F30x_Demo_Suites_V2.0.0/GD32F30x_Firmware_Library/GD32F30x_standard_peripheral/Source\gd32f30x_i2c.c ****     \param[in]  smbuspara:
 536:C:/Users/49542/Desktop/GD32F30x_Demo_Suites_V2.0.0/GD32F30x_Demo_Suites_V2.0.0/GD32F30x_Firmware_Library/GD32F30x_standard_peripheral/Source\gd32f30x_i2c.c ****                 only one parameter can be selected which is shown as below:
 537:C:/Users/49542/Desktop/GD32F30x_Demo_Suites_V2.0.0/GD32F30x_Demo_Suites_V2.0.0/GD32F30x_Firmware_Library/GD32F30x_standard_peripheral/Source\gd32f30x_i2c.c ****       \arg        I2C_ARP_ENABLE: enable ARP
 538:C:/Users/49542/Desktop/GD32F30x_Demo_Suites_V2.0.0/GD32F30x_Demo_Suites_V2.0.0/GD32F30x_Firmware_Library/GD32F30x_standard_peripheral/Source\gd32f30x_i2c.c ****       \arg        I2C_ARP_DISABLE: disable ARP
 539:C:/Users/49542/Desktop/GD32F30x_Demo_Suites_V2.0.0/GD32F30x_Demo_Suites_V2.0.0/GD32F30x_Firmware_Library/GD32F30x_standard_peripheral/Source\gd32f30x_i2c.c ****     \param[out] none
 540:C:/Users/49542/Desktop/GD32F30x_Demo_Suites_V2.0.0/GD32F30x_Demo_Suites_V2.0.0/GD32F30x_Firmware_Library/GD32F30x_standard_peripheral/Source\gd32f30x_i2c.c ****     \retval     none
 541:C:/Users/49542/Desktop/GD32F30x_Demo_Suites_V2.0.0/GD32F30x_Demo_Suites_V2.0.0/GD32F30x_Firmware_Library/GD32F30x_standard_peripheral/Source\gd32f30x_i2c.c **** */
 542:C:/Users/49542/Desktop/GD32F30x_Demo_Suites_V2.0.0/GD32F30x_Demo_Suites_V2.0.0/GD32F30x_Firmware_Library/GD32F30x_standard_peripheral/Source\gd32f30x_i2c.c **** void i2c_smbus_arp_enable(uint32_t i2c_periph, uint32_t arpstate)
 543:C:/Users/49542/Desktop/GD32F30x_Demo_Suites_V2.0.0/GD32F30x_Demo_Suites_V2.0.0/GD32F30x_Firmware_Library/GD32F30x_standard_peripheral/Source\gd32f30x_i2c.c **** {
 1691              		.loc 1 543 0
 1692              		.cfi_startproc
 1693              		@ args = 0, pretend = 0, frame = 16
 1694              		@ frame_needed = 1, uses_anonymous_args = 0
 1695              		@ link register save eliminated.
 1696 0000 80B4     		push	{r7}
 1697              	.LCFI136:
ARM GAS  C:\Users\49542\AppData\Local\Temp\ccmqPkvL.s 			page 40


 1698              		.cfi_def_cfa_offset 4
 1699              		.cfi_offset 7, -4
 1700 0002 85B0     		sub	sp, sp, #20
 1701              	.LCFI137:
 1702              		.cfi_def_cfa_offset 24
 1703 0004 00AF     		add	r7, sp, #0
 1704              	.LCFI138:
 1705              		.cfi_def_cfa_register 7
 1706 0006 7860     		str	r0, [r7, #4]
 1707 0008 3960     		str	r1, [r7]
 544:C:/Users/49542/Desktop/GD32F30x_Demo_Suites_V2.0.0/GD32F30x_Demo_Suites_V2.0.0/GD32F30x_Firmware_Library/GD32F30x_standard_peripheral/Source\gd32f30x_i2c.c ****     /* enable or disable I2C ARP protocol*/
 545:C:/Users/49542/Desktop/GD32F30x_Demo_Suites_V2.0.0/GD32F30x_Demo_Suites_V2.0.0/GD32F30x_Firmware_Library/GD32F30x_standard_peripheral/Source\gd32f30x_i2c.c ****     uint32_t ctl = 0U;
 1708              		.loc 1 545 0
 1709 000a 0023     		movs	r3, #0
 1710 000c FB60     		str	r3, [r7, #12]
 546:C:/Users/49542/Desktop/GD32F30x_Demo_Suites_V2.0.0/GD32F30x_Demo_Suites_V2.0.0/GD32F30x_Firmware_Library/GD32F30x_standard_peripheral/Source\gd32f30x_i2c.c ****     
 547:C:/Users/49542/Desktop/GD32F30x_Demo_Suites_V2.0.0/GD32F30x_Demo_Suites_V2.0.0/GD32F30x_Firmware_Library/GD32F30x_standard_peripheral/Source\gd32f30x_i2c.c ****     ctl = I2C_CTL0(i2c_periph);
 1711              		.loc 1 547 0
 1712 000e 7B68     		ldr	r3, [r7, #4]
 1713 0010 1B68     		ldr	r3, [r3]
 1714 0012 FB60     		str	r3, [r7, #12]
 548:C:/Users/49542/Desktop/GD32F30x_Demo_Suites_V2.0.0/GD32F30x_Demo_Suites_V2.0.0/GD32F30x_Firmware_Library/GD32F30x_standard_peripheral/Source\gd32f30x_i2c.c ****     ctl &= ~(I2C_CTL0_ARPEN);
 1715              		.loc 1 548 0
 1716 0014 FB68     		ldr	r3, [r7, #12]
 1717 0016 23F01003 		bic	r3, r3, #16
 1718 001a FB60     		str	r3, [r7, #12]
 549:C:/Users/49542/Desktop/GD32F30x_Demo_Suites_V2.0.0/GD32F30x_Demo_Suites_V2.0.0/GD32F30x_Firmware_Library/GD32F30x_standard_peripheral/Source\gd32f30x_i2c.c ****     ctl |= arpstate;
 1719              		.loc 1 549 0
 1720 001c FA68     		ldr	r2, [r7, #12]
 1721 001e 3B68     		ldr	r3, [r7]
 1722 0020 1343     		orrs	r3, r3, r2
 1723 0022 FB60     		str	r3, [r7, #12]
 550:C:/Users/49542/Desktop/GD32F30x_Demo_Suites_V2.0.0/GD32F30x_Demo_Suites_V2.0.0/GD32F30x_Firmware_Library/GD32F30x_standard_peripheral/Source\gd32f30x_i2c.c ****     I2C_CTL0(i2c_periph) = ctl;
 1724              		.loc 1 550 0
 1725 0024 7B68     		ldr	r3, [r7, #4]
 1726 0026 FA68     		ldr	r2, [r7, #12]
 1727 0028 1A60     		str	r2, [r3]
 551:C:/Users/49542/Desktop/GD32F30x_Demo_Suites_V2.0.0/GD32F30x_Demo_Suites_V2.0.0/GD32F30x_Firmware_Library/GD32F30x_standard_peripheral/Source\gd32f30x_i2c.c **** }
 1728              		.loc 1 551 0
 1729 002a 00BF     		nop
 1730 002c 1437     		adds	r7, r7, #20
 1731              	.LCFI139:
 1732              		.cfi_def_cfa_offset 4
 1733 002e BD46     		mov	sp, r7
 1734              	.LCFI140:
 1735              		.cfi_def_cfa_register 13
 1736              		@ sp needed
 1737 0030 5DF8047B 		ldr	r7, [sp], #4
 1738              	.LCFI141:
 1739              		.cfi_restore 7
 1740              		.cfi_def_cfa_offset 0
 1741 0034 7047     		bx	lr
 1742              		.cfi_endproc
 1743              	.LFE139:
 1745              		.section	.text.i2c_flag_get,"ax",%progbits
 1746              		.align	1
 1747              		.global	i2c_flag_get
ARM GAS  C:\Users\49542\AppData\Local\Temp\ccmqPkvL.s 			page 41


 1748              		.syntax unified
 1749              		.thumb
 1750              		.thumb_func
 1751              		.fpu fpv4-sp-d16
 1753              	i2c_flag_get:
 1754              	.LFB140:
 552:C:/Users/49542/Desktop/GD32F30x_Demo_Suites_V2.0.0/GD32F30x_Demo_Suites_V2.0.0/GD32F30x_Firmware_Library/GD32F30x_standard_peripheral/Source\gd32f30x_i2c.c **** 
 553:C:/Users/49542/Desktop/GD32F30x_Demo_Suites_V2.0.0/GD32F30x_Demo_Suites_V2.0.0/GD32F30x_Firmware_Library/GD32F30x_standard_peripheral/Source\gd32f30x_i2c.c **** /*!
 554:C:/Users/49542/Desktop/GD32F30x_Demo_Suites_V2.0.0/GD32F30x_Demo_Suites_V2.0.0/GD32F30x_Firmware_Library/GD32F30x_standard_peripheral/Source\gd32f30x_i2c.c ****     \brief      check I2C flag is set or not
 555:C:/Users/49542/Desktop/GD32F30x_Demo_Suites_V2.0.0/GD32F30x_Demo_Suites_V2.0.0/GD32F30x_Firmware_Library/GD32F30x_standard_peripheral/Source\gd32f30x_i2c.c ****     \param[in]  i2c_periph: I2Cx(x=0,1)
 556:C:/Users/49542/Desktop/GD32F30x_Demo_Suites_V2.0.0/GD32F30x_Demo_Suites_V2.0.0/GD32F30x_Firmware_Library/GD32F30x_standard_peripheral/Source\gd32f30x_i2c.c ****     \param[in]  flag: I2C flags, refer to i2c_flag_enum
 557:C:/Users/49542/Desktop/GD32F30x_Demo_Suites_V2.0.0/GD32F30x_Demo_Suites_V2.0.0/GD32F30x_Firmware_Library/GD32F30x_standard_peripheral/Source\gd32f30x_i2c.c ****                 only one parameter can be selected which is shown as below:
 558:C:/Users/49542/Desktop/GD32F30x_Demo_Suites_V2.0.0/GD32F30x_Demo_Suites_V2.0.0/GD32F30x_Firmware_Library/GD32F30x_standard_peripheral/Source\gd32f30x_i2c.c ****       \arg        I2C_FLAG_SBSEND: start condition send out 
 559:C:/Users/49542/Desktop/GD32F30x_Demo_Suites_V2.0.0/GD32F30x_Demo_Suites_V2.0.0/GD32F30x_Firmware_Library/GD32F30x_standard_peripheral/Source\gd32f30x_i2c.c ****       \arg        I2C_FLAG_ADDSEND: address is sent in master mode or received and matches in slave
 560:C:/Users/49542/Desktop/GD32F30x_Demo_Suites_V2.0.0/GD32F30x_Demo_Suites_V2.0.0/GD32F30x_Firmware_Library/GD32F30x_standard_peripheral/Source\gd32f30x_i2c.c ****       \arg        I2C_FLAG_BTC: byte transmission finishes
 561:C:/Users/49542/Desktop/GD32F30x_Demo_Suites_V2.0.0/GD32F30x_Demo_Suites_V2.0.0/GD32F30x_Firmware_Library/GD32F30x_standard_peripheral/Source\gd32f30x_i2c.c ****       \arg        I2C_FLAG_ADD10SEND: header of 10-bit address is sent in master mode
 562:C:/Users/49542/Desktop/GD32F30x_Demo_Suites_V2.0.0/GD32F30x_Demo_Suites_V2.0.0/GD32F30x_Firmware_Library/GD32F30x_standard_peripheral/Source\gd32f30x_i2c.c ****       \arg        I2C_FLAG_STPDET: stop condition detected in slave mode
 563:C:/Users/49542/Desktop/GD32F30x_Demo_Suites_V2.0.0/GD32F30x_Demo_Suites_V2.0.0/GD32F30x_Firmware_Library/GD32F30x_standard_peripheral/Source\gd32f30x_i2c.c ****       \arg        I2C_FLAG_RBNE: I2C_DATA is not Empty during receiving
 564:C:/Users/49542/Desktop/GD32F30x_Demo_Suites_V2.0.0/GD32F30x_Demo_Suites_V2.0.0/GD32F30x_Firmware_Library/GD32F30x_standard_peripheral/Source\gd32f30x_i2c.c ****       \arg        I2C_FLAG_TBE: I2C_DATA is empty during transmitting
 565:C:/Users/49542/Desktop/GD32F30x_Demo_Suites_V2.0.0/GD32F30x_Demo_Suites_V2.0.0/GD32F30x_Firmware_Library/GD32F30x_standard_peripheral/Source\gd32f30x_i2c.c ****       \arg        I2C_FLAG_BERR: a bus error occurs indication a unexpected start or stop condition
 566:C:/Users/49542/Desktop/GD32F30x_Demo_Suites_V2.0.0/GD32F30x_Demo_Suites_V2.0.0/GD32F30x_Firmware_Library/GD32F30x_standard_peripheral/Source\gd32f30x_i2c.c ****       \arg        I2C_FLAG_LOSTARB: arbitration lost in master mode
 567:C:/Users/49542/Desktop/GD32F30x_Demo_Suites_V2.0.0/GD32F30x_Demo_Suites_V2.0.0/GD32F30x_Firmware_Library/GD32F30x_standard_peripheral/Source\gd32f30x_i2c.c ****       \arg        I2C_FLAG_AERR: acknowledge error
 568:C:/Users/49542/Desktop/GD32F30x_Demo_Suites_V2.0.0/GD32F30x_Demo_Suites_V2.0.0/GD32F30x_Firmware_Library/GD32F30x_standard_peripheral/Source\gd32f30x_i2c.c ****       \arg        I2C_FLAG_OUERR: overrun or underrun situation occurs in slave mode
 569:C:/Users/49542/Desktop/GD32F30x_Demo_Suites_V2.0.0/GD32F30x_Demo_Suites_V2.0.0/GD32F30x_Firmware_Library/GD32F30x_standard_peripheral/Source\gd32f30x_i2c.c ****       \arg        I2C_FLAG_PECERR: PEC error when receiving data
 570:C:/Users/49542/Desktop/GD32F30x_Demo_Suites_V2.0.0/GD32F30x_Demo_Suites_V2.0.0/GD32F30x_Firmware_Library/GD32F30x_standard_peripheral/Source\gd32f30x_i2c.c ****       \arg        I2C_FLAG_SMBTO: timeout signal in SMBus mode
 571:C:/Users/49542/Desktop/GD32F30x_Demo_Suites_V2.0.0/GD32F30x_Demo_Suites_V2.0.0/GD32F30x_Firmware_Library/GD32F30x_standard_peripheral/Source\gd32f30x_i2c.c ****       \arg        I2C_FLAG_SMBALT: SMBus alert status
 572:C:/Users/49542/Desktop/GD32F30x_Demo_Suites_V2.0.0/GD32F30x_Demo_Suites_V2.0.0/GD32F30x_Firmware_Library/GD32F30x_standard_peripheral/Source\gd32f30x_i2c.c ****       \arg        I2C_FLAG_MASTER: a flag indicating whether I2C block is in master or slave mode
 573:C:/Users/49542/Desktop/GD32F30x_Demo_Suites_V2.0.0/GD32F30x_Demo_Suites_V2.0.0/GD32F30x_Firmware_Library/GD32F30x_standard_peripheral/Source\gd32f30x_i2c.c ****       \arg        I2C_FLAG_I2CBSY: busy flag
 574:C:/Users/49542/Desktop/GD32F30x_Demo_Suites_V2.0.0/GD32F30x_Demo_Suites_V2.0.0/GD32F30x_Firmware_Library/GD32F30x_standard_peripheral/Source\gd32f30x_i2c.c ****       \arg        I2C_FLAG_TRS: whether the I2C is a transmitter or a receiver
 575:C:/Users/49542/Desktop/GD32F30x_Demo_Suites_V2.0.0/GD32F30x_Demo_Suites_V2.0.0/GD32F30x_Firmware_Library/GD32F30x_standard_peripheral/Source\gd32f30x_i2c.c ****       \arg        I2C_FLAG_RXGC: general call address (00h) received
 576:C:/Users/49542/Desktop/GD32F30x_Demo_Suites_V2.0.0/GD32F30x_Demo_Suites_V2.0.0/GD32F30x_Firmware_Library/GD32F30x_standard_peripheral/Source\gd32f30x_i2c.c ****       \arg        I2C_FLAG_DEFSMB: default address of SMBus device
 577:C:/Users/49542/Desktop/GD32F30x_Demo_Suites_V2.0.0/GD32F30x_Demo_Suites_V2.0.0/GD32F30x_Firmware_Library/GD32F30x_standard_peripheral/Source\gd32f30x_i2c.c ****       \arg        I2C_FLAG_HSTSMB: SMBus host header detected in slave mode
 578:C:/Users/49542/Desktop/GD32F30x_Demo_Suites_V2.0.0/GD32F30x_Demo_Suites_V2.0.0/GD32F30x_Firmware_Library/GD32F30x_standard_peripheral/Source\gd32f30x_i2c.c ****       \arg        I2C_FLAG_DUMOD: dual flag in slave mode indicating which address is matched in du
 579:C:/Users/49542/Desktop/GD32F30x_Demo_Suites_V2.0.0/GD32F30x_Demo_Suites_V2.0.0/GD32F30x_Firmware_Library/GD32F30x_standard_peripheral/Source\gd32f30x_i2c.c ****     \param[out] none
 580:C:/Users/49542/Desktop/GD32F30x_Demo_Suites_V2.0.0/GD32F30x_Demo_Suites_V2.0.0/GD32F30x_Firmware_Library/GD32F30x_standard_peripheral/Source\gd32f30x_i2c.c ****     \retval     FlagStatus: SET or RESET
 581:C:/Users/49542/Desktop/GD32F30x_Demo_Suites_V2.0.0/GD32F30x_Demo_Suites_V2.0.0/GD32F30x_Firmware_Library/GD32F30x_standard_peripheral/Source\gd32f30x_i2c.c **** */
 582:C:/Users/49542/Desktop/GD32F30x_Demo_Suites_V2.0.0/GD32F30x_Demo_Suites_V2.0.0/GD32F30x_Firmware_Library/GD32F30x_standard_peripheral/Source\gd32f30x_i2c.c **** FlagStatus i2c_flag_get(uint32_t i2c_periph, i2c_flag_enum flag)
 583:C:/Users/49542/Desktop/GD32F30x_Demo_Suites_V2.0.0/GD32F30x_Demo_Suites_V2.0.0/GD32F30x_Firmware_Library/GD32F30x_standard_peripheral/Source\gd32f30x_i2c.c **** {
 1755              		.loc 1 583 0
 1756              		.cfi_startproc
 1757              		@ args = 0, pretend = 0, frame = 8
 1758              		@ frame_needed = 1, uses_anonymous_args = 0
 1759              		@ link register save eliminated.
 1760 0000 80B4     		push	{r7}
 1761              	.LCFI142:
 1762              		.cfi_def_cfa_offset 4
 1763              		.cfi_offset 7, -4
 1764 0002 83B0     		sub	sp, sp, #12
 1765              	.LCFI143:
 1766              		.cfi_def_cfa_offset 16
 1767 0004 00AF     		add	r7, sp, #0
 1768              	.LCFI144:
 1769              		.cfi_def_cfa_register 7
 1770 0006 7860     		str	r0, [r7, #4]
 1771 0008 0B46     		mov	r3, r1
 1772 000a 7B80     		strh	r3, [r7, #2]	@ movhi
 584:C:/Users/49542/Desktop/GD32F30x_Demo_Suites_V2.0.0/GD32F30x_Demo_Suites_V2.0.0/GD32F30x_Firmware_Library/GD32F30x_standard_peripheral/Source\gd32f30x_i2c.c ****     if(RESET != (I2C_REG_VAL(i2c_periph, flag) & BIT(I2C_BIT_POS(flag)))){
ARM GAS  C:\Users\49542\AppData\Local\Temp\ccmqPkvL.s 			page 42


 1773              		.loc 1 584 0
 1774 000c 7B88     		ldrh	r3, [r7, #2]
 1775 000e 9B09     		lsrs	r3, r3, #6
 1776 0010 9BB2     		uxth	r3, r3
 1777 0012 1A46     		mov	r2, r3
 1778 0014 7B68     		ldr	r3, [r7, #4]
 1779 0016 1344     		add	r3, r3, r2
 1780 0018 1A68     		ldr	r2, [r3]
 1781 001a 7B88     		ldrh	r3, [r7, #2]
 1782 001c 03F01F03 		and	r3, r3, #31
 1783 0020 22FA03F3 		lsr	r3, r2, r3
 1784 0024 03F00103 		and	r3, r3, #1
 1785 0028 002B     		cmp	r3, #0
 1786 002a 01D0     		beq	.L64
 585:C:/Users/49542/Desktop/GD32F30x_Demo_Suites_V2.0.0/GD32F30x_Demo_Suites_V2.0.0/GD32F30x_Firmware_Library/GD32F30x_standard_peripheral/Source\gd32f30x_i2c.c ****         return SET;
 1787              		.loc 1 585 0
 1788 002c 0123     		movs	r3, #1
 1789 002e 00E0     		b	.L65
 1790              	.L64:
 586:C:/Users/49542/Desktop/GD32F30x_Demo_Suites_V2.0.0/GD32F30x_Demo_Suites_V2.0.0/GD32F30x_Firmware_Library/GD32F30x_standard_peripheral/Source\gd32f30x_i2c.c ****     }else{
 587:C:/Users/49542/Desktop/GD32F30x_Demo_Suites_V2.0.0/GD32F30x_Demo_Suites_V2.0.0/GD32F30x_Firmware_Library/GD32F30x_standard_peripheral/Source\gd32f30x_i2c.c ****         return RESET;
 1791              		.loc 1 587 0
 1792 0030 0023     		movs	r3, #0
 1793              	.L65:
 588:C:/Users/49542/Desktop/GD32F30x_Demo_Suites_V2.0.0/GD32F30x_Demo_Suites_V2.0.0/GD32F30x_Firmware_Library/GD32F30x_standard_peripheral/Source\gd32f30x_i2c.c ****     }
 589:C:/Users/49542/Desktop/GD32F30x_Demo_Suites_V2.0.0/GD32F30x_Demo_Suites_V2.0.0/GD32F30x_Firmware_Library/GD32F30x_standard_peripheral/Source\gd32f30x_i2c.c **** }
 1794              		.loc 1 589 0
 1795 0032 1846     		mov	r0, r3
 1796 0034 0C37     		adds	r7, r7, #12
 1797              	.LCFI145:
 1798              		.cfi_def_cfa_offset 4
 1799 0036 BD46     		mov	sp, r7
 1800              	.LCFI146:
 1801              		.cfi_def_cfa_register 13
 1802              		@ sp needed
 1803 0038 5DF8047B 		ldr	r7, [sp], #4
 1804              	.LCFI147:
 1805              		.cfi_restore 7
 1806              		.cfi_def_cfa_offset 0
 1807 003c 7047     		bx	lr
 1808              		.cfi_endproc
 1809              	.LFE140:
 1811              		.section	.text.i2c_flag_clear,"ax",%progbits
 1812              		.align	1
 1813              		.global	i2c_flag_clear
 1814              		.syntax unified
 1815              		.thumb
 1816              		.thumb_func
 1817              		.fpu fpv4-sp-d16
 1819              	i2c_flag_clear:
 1820              	.LFB141:
 590:C:/Users/49542/Desktop/GD32F30x_Demo_Suites_V2.0.0/GD32F30x_Demo_Suites_V2.0.0/GD32F30x_Firmware_Library/GD32F30x_standard_peripheral/Source\gd32f30x_i2c.c **** 
 591:C:/Users/49542/Desktop/GD32F30x_Demo_Suites_V2.0.0/GD32F30x_Demo_Suites_V2.0.0/GD32F30x_Firmware_Library/GD32F30x_standard_peripheral/Source\gd32f30x_i2c.c **** /*!
 592:C:/Users/49542/Desktop/GD32F30x_Demo_Suites_V2.0.0/GD32F30x_Demo_Suites_V2.0.0/GD32F30x_Firmware_Library/GD32F30x_standard_peripheral/Source\gd32f30x_i2c.c ****     \brief      clear I2C flag
 593:C:/Users/49542/Desktop/GD32F30x_Demo_Suites_V2.0.0/GD32F30x_Demo_Suites_V2.0.0/GD32F30x_Firmware_Library/GD32F30x_standard_peripheral/Source\gd32f30x_i2c.c ****     \param[in]  i2c_periph: I2Cx(x=0,1)
 594:C:/Users/49542/Desktop/GD32F30x_Demo_Suites_V2.0.0/GD32F30x_Demo_Suites_V2.0.0/GD32F30x_Firmware_Library/GD32F30x_standard_peripheral/Source\gd32f30x_i2c.c ****     \param[in]  flag: I2C flags, refer to i2c_flag_enum
 595:C:/Users/49542/Desktop/GD32F30x_Demo_Suites_V2.0.0/GD32F30x_Demo_Suites_V2.0.0/GD32F30x_Firmware_Library/GD32F30x_standard_peripheral/Source\gd32f30x_i2c.c ****                 only one parameter can be selected which is shown as below:
ARM GAS  C:\Users\49542\AppData\Local\Temp\ccmqPkvL.s 			page 43


 596:C:/Users/49542/Desktop/GD32F30x_Demo_Suites_V2.0.0/GD32F30x_Demo_Suites_V2.0.0/GD32F30x_Firmware_Library/GD32F30x_standard_peripheral/Source\gd32f30x_i2c.c ****       \arg       I2C_FLAG_SMBALT: SMBus Alert status
 597:C:/Users/49542/Desktop/GD32F30x_Demo_Suites_V2.0.0/GD32F30x_Demo_Suites_V2.0.0/GD32F30x_Firmware_Library/GD32F30x_standard_peripheral/Source\gd32f30x_i2c.c ****       \arg       I2C_FLAG_SMBTO: timeout signal in SMBus mode
 598:C:/Users/49542/Desktop/GD32F30x_Demo_Suites_V2.0.0/GD32F30x_Demo_Suites_V2.0.0/GD32F30x_Firmware_Library/GD32F30x_standard_peripheral/Source\gd32f30x_i2c.c ****       \arg       I2C_FLAG_PECERR: PEC error when receiving data
 599:C:/Users/49542/Desktop/GD32F30x_Demo_Suites_V2.0.0/GD32F30x_Demo_Suites_V2.0.0/GD32F30x_Firmware_Library/GD32F30x_standard_peripheral/Source\gd32f30x_i2c.c ****       \arg       I2C_FLAG_OUERR: over-run or under-run situation occurs in slave mode    
 600:C:/Users/49542/Desktop/GD32F30x_Demo_Suites_V2.0.0/GD32F30x_Demo_Suites_V2.0.0/GD32F30x_Firmware_Library/GD32F30x_standard_peripheral/Source\gd32f30x_i2c.c ****       \arg       I2C_FLAG_AERR: acknowledge error
 601:C:/Users/49542/Desktop/GD32F30x_Demo_Suites_V2.0.0/GD32F30x_Demo_Suites_V2.0.0/GD32F30x_Firmware_Library/GD32F30x_standard_peripheral/Source\gd32f30x_i2c.c ****       \arg       I2C_FLAG_LOSTARB: arbitration lost in master mode   
 602:C:/Users/49542/Desktop/GD32F30x_Demo_Suites_V2.0.0/GD32F30x_Demo_Suites_V2.0.0/GD32F30x_Firmware_Library/GD32F30x_standard_peripheral/Source\gd32f30x_i2c.c ****       \arg       I2C_FLAG_BERR: a bus error   
 603:C:/Users/49542/Desktop/GD32F30x_Demo_Suites_V2.0.0/GD32F30x_Demo_Suites_V2.0.0/GD32F30x_Firmware_Library/GD32F30x_standard_peripheral/Source\gd32f30x_i2c.c ****       \arg       I2C_FLAG_ADDSEND: cleared by reading I2C_STAT0 and reading I2C_STAT1
 604:C:/Users/49542/Desktop/GD32F30x_Demo_Suites_V2.0.0/GD32F30x_Demo_Suites_V2.0.0/GD32F30x_Firmware_Library/GD32F30x_standard_peripheral/Source\gd32f30x_i2c.c ****     \param[out] none
 605:C:/Users/49542/Desktop/GD32F30x_Demo_Suites_V2.0.0/GD32F30x_Demo_Suites_V2.0.0/GD32F30x_Firmware_Library/GD32F30x_standard_peripheral/Source\gd32f30x_i2c.c ****     \retval     none
 606:C:/Users/49542/Desktop/GD32F30x_Demo_Suites_V2.0.0/GD32F30x_Demo_Suites_V2.0.0/GD32F30x_Firmware_Library/GD32F30x_standard_peripheral/Source\gd32f30x_i2c.c **** */
 607:C:/Users/49542/Desktop/GD32F30x_Demo_Suites_V2.0.0/GD32F30x_Demo_Suites_V2.0.0/GD32F30x_Firmware_Library/GD32F30x_standard_peripheral/Source\gd32f30x_i2c.c **** void i2c_flag_clear(uint32_t i2c_periph, i2c_flag_enum flag)
 608:C:/Users/49542/Desktop/GD32F30x_Demo_Suites_V2.0.0/GD32F30x_Demo_Suites_V2.0.0/GD32F30x_Firmware_Library/GD32F30x_standard_peripheral/Source\gd32f30x_i2c.c **** {
 1821              		.loc 1 608 0
 1822              		.cfi_startproc
 1823              		@ args = 0, pretend = 0, frame = 8
 1824              		@ frame_needed = 1, uses_anonymous_args = 0
 1825              		@ link register save eliminated.
 1826 0000 80B4     		push	{r7}
 1827              	.LCFI148:
 1828              		.cfi_def_cfa_offset 4
 1829              		.cfi_offset 7, -4
 1830 0002 83B0     		sub	sp, sp, #12
 1831              	.LCFI149:
 1832              		.cfi_def_cfa_offset 16
 1833 0004 00AF     		add	r7, sp, #0
 1834              	.LCFI150:
 1835              		.cfi_def_cfa_register 7
 1836 0006 7860     		str	r0, [r7, #4]
 1837 0008 0B46     		mov	r3, r1
 1838 000a 7B80     		strh	r3, [r7, #2]	@ movhi
 609:C:/Users/49542/Desktop/GD32F30x_Demo_Suites_V2.0.0/GD32F30x_Demo_Suites_V2.0.0/GD32F30x_Firmware_Library/GD32F30x_standard_peripheral/Source\gd32f30x_i2c.c ****     if(I2C_FLAG_ADDSEND == flag){
 1839              		.loc 1 609 0
 1840 000c 7B88     		ldrh	r3, [r7, #2]
 1841 000e 40F20152 		movw	r2, #1281
 1842 0012 9342     		cmp	r3, r2
 1843 0014 06D1     		bne	.L67
 610:C:/Users/49542/Desktop/GD32F30x_Demo_Suites_V2.0.0/GD32F30x_Demo_Suites_V2.0.0/GD32F30x_Firmware_Library/GD32F30x_standard_peripheral/Source\gd32f30x_i2c.c ****         /* read I2C_STAT0 and then read I2C_STAT1 to clear ADDSEND */
 611:C:/Users/49542/Desktop/GD32F30x_Demo_Suites_V2.0.0/GD32F30x_Demo_Suites_V2.0.0/GD32F30x_Firmware_Library/GD32F30x_standard_peripheral/Source\gd32f30x_i2c.c ****         I2C_STAT0(i2c_periph);
 1844              		.loc 1 611 0
 1845 0016 7B68     		ldr	r3, [r7, #4]
 1846 0018 1433     		adds	r3, r3, #20
 1847 001a 1B68     		ldr	r3, [r3]
 612:C:/Users/49542/Desktop/GD32F30x_Demo_Suites_V2.0.0/GD32F30x_Demo_Suites_V2.0.0/GD32F30x_Firmware_Library/GD32F30x_standard_peripheral/Source\gd32f30x_i2c.c ****         I2C_STAT1(i2c_periph);
 1848              		.loc 1 612 0
 1849 001c 7B68     		ldr	r3, [r7, #4]
 1850 001e 1833     		adds	r3, r3, #24
 1851 0020 1B68     		ldr	r3, [r3]
 613:C:/Users/49542/Desktop/GD32F30x_Demo_Suites_V2.0.0/GD32F30x_Demo_Suites_V2.0.0/GD32F30x_Firmware_Library/GD32F30x_standard_peripheral/Source\gd32f30x_i2c.c ****     }else{
 614:C:/Users/49542/Desktop/GD32F30x_Demo_Suites_V2.0.0/GD32F30x_Demo_Suites_V2.0.0/GD32F30x_Firmware_Library/GD32F30x_standard_peripheral/Source\gd32f30x_i2c.c ****         I2C_REG_VAL(i2c_periph, flag) &= ~BIT(I2C_BIT_POS(flag));
 615:C:/Users/49542/Desktop/GD32F30x_Demo_Suites_V2.0.0/GD32F30x_Demo_Suites_V2.0.0/GD32F30x_Firmware_Library/GD32F30x_standard_peripheral/Source\gd32f30x_i2c.c ****     }
 616:C:/Users/49542/Desktop/GD32F30x_Demo_Suites_V2.0.0/GD32F30x_Demo_Suites_V2.0.0/GD32F30x_Firmware_Library/GD32F30x_standard_peripheral/Source\gd32f30x_i2c.c **** }
 1852              		.loc 1 616 0
 1853 0022 15E0     		b	.L69
 1854              	.L67:
 614:C:/Users/49542/Desktop/GD32F30x_Demo_Suites_V2.0.0/GD32F30x_Demo_Suites_V2.0.0/GD32F30x_Firmware_Library/GD32F30x_standard_peripheral/Source\gd32f30x_i2c.c ****     }
 1855              		.loc 1 614 0
ARM GAS  C:\Users\49542\AppData\Local\Temp\ccmqPkvL.s 			page 44


 1856 0024 7B88     		ldrh	r3, [r7, #2]
 1857 0026 9B09     		lsrs	r3, r3, #6
 1858 0028 9BB2     		uxth	r3, r3
 1859 002a 1A46     		mov	r2, r3
 1860 002c 7B68     		ldr	r3, [r7, #4]
 1861 002e 1344     		add	r3, r3, r2
 1862 0030 1A68     		ldr	r2, [r3]
 1863 0032 7B88     		ldrh	r3, [r7, #2]
 1864 0034 03F01F03 		and	r3, r3, #31
 1865 0038 0121     		movs	r1, #1
 1866 003a 01FA03F3 		lsl	r3, r1, r3
 1867 003e DB43     		mvns	r3, r3
 1868 0040 7988     		ldrh	r1, [r7, #2]
 1869 0042 8909     		lsrs	r1, r1, #6
 1870 0044 89B2     		uxth	r1, r1
 1871 0046 0846     		mov	r0, r1
 1872 0048 7968     		ldr	r1, [r7, #4]
 1873 004a 0144     		add	r1, r1, r0
 1874 004c 1340     		ands	r3, r3, r2
 1875 004e 0B60     		str	r3, [r1]
 1876              	.L69:
 1877              		.loc 1 616 0
 1878 0050 00BF     		nop
 1879 0052 0C37     		adds	r7, r7, #12
 1880              	.LCFI151:
 1881              		.cfi_def_cfa_offset 4
 1882 0054 BD46     		mov	sp, r7
 1883              	.LCFI152:
 1884              		.cfi_def_cfa_register 13
 1885              		@ sp needed
 1886 0056 5DF8047B 		ldr	r7, [sp], #4
 1887              	.LCFI153:
 1888              		.cfi_restore 7
 1889              		.cfi_def_cfa_offset 0
 1890 005a 7047     		bx	lr
 1891              		.cfi_endproc
 1892              	.LFE141:
 1894              		.section	.text.i2c_interrupt_enable,"ax",%progbits
 1895              		.align	1
 1896              		.global	i2c_interrupt_enable
 1897              		.syntax unified
 1898              		.thumb
 1899              		.thumb_func
 1900              		.fpu fpv4-sp-d16
 1902              	i2c_interrupt_enable:
 1903              	.LFB142:
 617:C:/Users/49542/Desktop/GD32F30x_Demo_Suites_V2.0.0/GD32F30x_Demo_Suites_V2.0.0/GD32F30x_Firmware_Library/GD32F30x_standard_peripheral/Source\gd32f30x_i2c.c **** 
 618:C:/Users/49542/Desktop/GD32F30x_Demo_Suites_V2.0.0/GD32F30x_Demo_Suites_V2.0.0/GD32F30x_Firmware_Library/GD32F30x_standard_peripheral/Source\gd32f30x_i2c.c **** /*!
 619:C:/Users/49542/Desktop/GD32F30x_Demo_Suites_V2.0.0/GD32F30x_Demo_Suites_V2.0.0/GD32F30x_Firmware_Library/GD32F30x_standard_peripheral/Source\gd32f30x_i2c.c ****     \brief      enable I2C interrupt
 620:C:/Users/49542/Desktop/GD32F30x_Demo_Suites_V2.0.0/GD32F30x_Demo_Suites_V2.0.0/GD32F30x_Firmware_Library/GD32F30x_standard_peripheral/Source\gd32f30x_i2c.c ****     \param[in]  i2c_periph: I2Cx(x=0,1)
 621:C:/Users/49542/Desktop/GD32F30x_Demo_Suites_V2.0.0/GD32F30x_Demo_Suites_V2.0.0/GD32F30x_Firmware_Library/GD32F30x_standard_peripheral/Source\gd32f30x_i2c.c ****     \param[in]  interrupt: I2C interrupts, refer to i2c_interrupt_enum
 622:C:/Users/49542/Desktop/GD32F30x_Demo_Suites_V2.0.0/GD32F30x_Demo_Suites_V2.0.0/GD32F30x_Firmware_Library/GD32F30x_standard_peripheral/Source\gd32f30x_i2c.c ****                 only one parameter can be selected which is shown as below:
 623:C:/Users/49542/Desktop/GD32F30x_Demo_Suites_V2.0.0/GD32F30x_Demo_Suites_V2.0.0/GD32F30x_Firmware_Library/GD32F30x_standard_peripheral/Source\gd32f30x_i2c.c ****       \arg        I2C_INT_ERR: error interrupt enable 
 624:C:/Users/49542/Desktop/GD32F30x_Demo_Suites_V2.0.0/GD32F30x_Demo_Suites_V2.0.0/GD32F30x_Firmware_Library/GD32F30x_standard_peripheral/Source\gd32f30x_i2c.c ****       \arg        I2C_INT_EV: event interrupt enable 
 625:C:/Users/49542/Desktop/GD32F30x_Demo_Suites_V2.0.0/GD32F30x_Demo_Suites_V2.0.0/GD32F30x_Firmware_Library/GD32F30x_standard_peripheral/Source\gd32f30x_i2c.c ****       \arg        I2C_INT_BUF: buffer interrupt enable
 626:C:/Users/49542/Desktop/GD32F30x_Demo_Suites_V2.0.0/GD32F30x_Demo_Suites_V2.0.0/GD32F30x_Firmware_Library/GD32F30x_standard_peripheral/Source\gd32f30x_i2c.c ****     \param[out] none
 627:C:/Users/49542/Desktop/GD32F30x_Demo_Suites_V2.0.0/GD32F30x_Demo_Suites_V2.0.0/GD32F30x_Firmware_Library/GD32F30x_standard_peripheral/Source\gd32f30x_i2c.c ****     \retval     none
ARM GAS  C:\Users\49542\AppData\Local\Temp\ccmqPkvL.s 			page 45


 628:C:/Users/49542/Desktop/GD32F30x_Demo_Suites_V2.0.0/GD32F30x_Demo_Suites_V2.0.0/GD32F30x_Firmware_Library/GD32F30x_standard_peripheral/Source\gd32f30x_i2c.c **** */
 629:C:/Users/49542/Desktop/GD32F30x_Demo_Suites_V2.0.0/GD32F30x_Demo_Suites_V2.0.0/GD32F30x_Firmware_Library/GD32F30x_standard_peripheral/Source\gd32f30x_i2c.c **** void i2c_interrupt_enable(uint32_t i2c_periph, i2c_interrupt_enum interrupt)
 630:C:/Users/49542/Desktop/GD32F30x_Demo_Suites_V2.0.0/GD32F30x_Demo_Suites_V2.0.0/GD32F30x_Firmware_Library/GD32F30x_standard_peripheral/Source\gd32f30x_i2c.c **** {
 1904              		.loc 1 630 0
 1905              		.cfi_startproc
 1906              		@ args = 0, pretend = 0, frame = 8
 1907              		@ frame_needed = 1, uses_anonymous_args = 0
 1908              		@ link register save eliminated.
 1909 0000 80B4     		push	{r7}
 1910              	.LCFI154:
 1911              		.cfi_def_cfa_offset 4
 1912              		.cfi_offset 7, -4
 1913 0002 83B0     		sub	sp, sp, #12
 1914              	.LCFI155:
 1915              		.cfi_def_cfa_offset 16
 1916 0004 00AF     		add	r7, sp, #0
 1917              	.LCFI156:
 1918              		.cfi_def_cfa_register 7
 1919 0006 7860     		str	r0, [r7, #4]
 1920 0008 0B46     		mov	r3, r1
 1921 000a 7B80     		strh	r3, [r7, #2]	@ movhi
 631:C:/Users/49542/Desktop/GD32F30x_Demo_Suites_V2.0.0/GD32F30x_Demo_Suites_V2.0.0/GD32F30x_Firmware_Library/GD32F30x_standard_peripheral/Source\gd32f30x_i2c.c ****     I2C_REG_VAL(i2c_periph, interrupt) |= BIT(I2C_BIT_POS(interrupt));
 1922              		.loc 1 631 0
 1923 000c 7B88     		ldrh	r3, [r7, #2]
 1924 000e 9B09     		lsrs	r3, r3, #6
 1925 0010 9BB2     		uxth	r3, r3
 1926 0012 1A46     		mov	r2, r3
 1927 0014 7B68     		ldr	r3, [r7, #4]
 1928 0016 1344     		add	r3, r3, r2
 1929 0018 1A68     		ldr	r2, [r3]
 1930 001a 7B88     		ldrh	r3, [r7, #2]
 1931 001c 03F01F03 		and	r3, r3, #31
 1932 0020 0121     		movs	r1, #1
 1933 0022 01FA03F3 		lsl	r3, r1, r3
 1934 0026 7988     		ldrh	r1, [r7, #2]
 1935 0028 8909     		lsrs	r1, r1, #6
 1936 002a 89B2     		uxth	r1, r1
 1937 002c 0846     		mov	r0, r1
 1938 002e 7968     		ldr	r1, [r7, #4]
 1939 0030 0144     		add	r1, r1, r0
 1940 0032 1343     		orrs	r3, r3, r2
 1941 0034 0B60     		str	r3, [r1]
 632:C:/Users/49542/Desktop/GD32F30x_Demo_Suites_V2.0.0/GD32F30x_Demo_Suites_V2.0.0/GD32F30x_Firmware_Library/GD32F30x_standard_peripheral/Source\gd32f30x_i2c.c **** }
 1942              		.loc 1 632 0
 1943 0036 00BF     		nop
 1944 0038 0C37     		adds	r7, r7, #12
 1945              	.LCFI157:
 1946              		.cfi_def_cfa_offset 4
 1947 003a BD46     		mov	sp, r7
 1948              	.LCFI158:
 1949              		.cfi_def_cfa_register 13
 1950              		@ sp needed
 1951 003c 5DF8047B 		ldr	r7, [sp], #4
 1952              	.LCFI159:
 1953              		.cfi_restore 7
 1954              		.cfi_def_cfa_offset 0
 1955 0040 7047     		bx	lr
ARM GAS  C:\Users\49542\AppData\Local\Temp\ccmqPkvL.s 			page 46


 1956              		.cfi_endproc
 1957              	.LFE142:
 1959              		.section	.text.i2c_interrupt_disable,"ax",%progbits
 1960              		.align	1
 1961              		.global	i2c_interrupt_disable
 1962              		.syntax unified
 1963              		.thumb
 1964              		.thumb_func
 1965              		.fpu fpv4-sp-d16
 1967              	i2c_interrupt_disable:
 1968              	.LFB143:
 633:C:/Users/49542/Desktop/GD32F30x_Demo_Suites_V2.0.0/GD32F30x_Demo_Suites_V2.0.0/GD32F30x_Firmware_Library/GD32F30x_standard_peripheral/Source\gd32f30x_i2c.c **** 
 634:C:/Users/49542/Desktop/GD32F30x_Demo_Suites_V2.0.0/GD32F30x_Demo_Suites_V2.0.0/GD32F30x_Firmware_Library/GD32F30x_standard_peripheral/Source\gd32f30x_i2c.c **** /*!
 635:C:/Users/49542/Desktop/GD32F30x_Demo_Suites_V2.0.0/GD32F30x_Demo_Suites_V2.0.0/GD32F30x_Firmware_Library/GD32F30x_standard_peripheral/Source\gd32f30x_i2c.c ****     \brief      disable I2C interrupt
 636:C:/Users/49542/Desktop/GD32F30x_Demo_Suites_V2.0.0/GD32F30x_Demo_Suites_V2.0.0/GD32F30x_Firmware_Library/GD32F30x_standard_peripheral/Source\gd32f30x_i2c.c ****     \param[in]  i2c_periph: I2Cx(x=0,1)
 637:C:/Users/49542/Desktop/GD32F30x_Demo_Suites_V2.0.0/GD32F30x_Demo_Suites_V2.0.0/GD32F30x_Firmware_Library/GD32F30x_standard_peripheral/Source\gd32f30x_i2c.c ****     \param[in]  interrupt: I2C interrupts, refer to i2c_flag_enum
 638:C:/Users/49542/Desktop/GD32F30x_Demo_Suites_V2.0.0/GD32F30x_Demo_Suites_V2.0.0/GD32F30x_Firmware_Library/GD32F30x_standard_peripheral/Source\gd32f30x_i2c.c ****                 only one parameter can be selected which is shown as below:
 639:C:/Users/49542/Desktop/GD32F30x_Demo_Suites_V2.0.0/GD32F30x_Demo_Suites_V2.0.0/GD32F30x_Firmware_Library/GD32F30x_standard_peripheral/Source\gd32f30x_i2c.c ****       \arg        I2C_INT_ERR: error interrupt enable 
 640:C:/Users/49542/Desktop/GD32F30x_Demo_Suites_V2.0.0/GD32F30x_Demo_Suites_V2.0.0/GD32F30x_Firmware_Library/GD32F30x_standard_peripheral/Source\gd32f30x_i2c.c ****       \arg        I2C_INT_EV: event interrupt enable 
 641:C:/Users/49542/Desktop/GD32F30x_Demo_Suites_V2.0.0/GD32F30x_Demo_Suites_V2.0.0/GD32F30x_Firmware_Library/GD32F30x_standard_peripheral/Source\gd32f30x_i2c.c ****       \arg        I2C_INT_BUF: buffer interrupt enable
 642:C:/Users/49542/Desktop/GD32F30x_Demo_Suites_V2.0.0/GD32F30x_Demo_Suites_V2.0.0/GD32F30x_Firmware_Library/GD32F30x_standard_peripheral/Source\gd32f30x_i2c.c ****     \param[out] none
 643:C:/Users/49542/Desktop/GD32F30x_Demo_Suites_V2.0.0/GD32F30x_Demo_Suites_V2.0.0/GD32F30x_Firmware_Library/GD32F30x_standard_peripheral/Source\gd32f30x_i2c.c ****     \retval     none
 644:C:/Users/49542/Desktop/GD32F30x_Demo_Suites_V2.0.0/GD32F30x_Demo_Suites_V2.0.0/GD32F30x_Firmware_Library/GD32F30x_standard_peripheral/Source\gd32f30x_i2c.c **** */
 645:C:/Users/49542/Desktop/GD32F30x_Demo_Suites_V2.0.0/GD32F30x_Demo_Suites_V2.0.0/GD32F30x_Firmware_Library/GD32F30x_standard_peripheral/Source\gd32f30x_i2c.c **** void i2c_interrupt_disable(uint32_t i2c_periph, i2c_interrupt_enum interrupt)
 646:C:/Users/49542/Desktop/GD32F30x_Demo_Suites_V2.0.0/GD32F30x_Demo_Suites_V2.0.0/GD32F30x_Firmware_Library/GD32F30x_standard_peripheral/Source\gd32f30x_i2c.c **** {
 1969              		.loc 1 646 0
 1970              		.cfi_startproc
 1971              		@ args = 0, pretend = 0, frame = 8
 1972              		@ frame_needed = 1, uses_anonymous_args = 0
 1973              		@ link register save eliminated.
 1974 0000 80B4     		push	{r7}
 1975              	.LCFI160:
 1976              		.cfi_def_cfa_offset 4
 1977              		.cfi_offset 7, -4
 1978 0002 83B0     		sub	sp, sp, #12
 1979              	.LCFI161:
 1980              		.cfi_def_cfa_offset 16
 1981 0004 00AF     		add	r7, sp, #0
 1982              	.LCFI162:
 1983              		.cfi_def_cfa_register 7
 1984 0006 7860     		str	r0, [r7, #4]
 1985 0008 0B46     		mov	r3, r1
 1986 000a 7B80     		strh	r3, [r7, #2]	@ movhi
 647:C:/Users/49542/Desktop/GD32F30x_Demo_Suites_V2.0.0/GD32F30x_Demo_Suites_V2.0.0/GD32F30x_Firmware_Library/GD32F30x_standard_peripheral/Source\gd32f30x_i2c.c ****     I2C_REG_VAL(i2c_periph, interrupt) &= ~BIT(I2C_BIT_POS(interrupt));
 1987              		.loc 1 647 0
 1988 000c 7B88     		ldrh	r3, [r7, #2]
 1989 000e 9B09     		lsrs	r3, r3, #6
 1990 0010 9BB2     		uxth	r3, r3
 1991 0012 1A46     		mov	r2, r3
 1992 0014 7B68     		ldr	r3, [r7, #4]
 1993 0016 1344     		add	r3, r3, r2
 1994 0018 1A68     		ldr	r2, [r3]
 1995 001a 7B88     		ldrh	r3, [r7, #2]
 1996 001c 03F01F03 		and	r3, r3, #31
 1997 0020 0121     		movs	r1, #1
 1998 0022 01FA03F3 		lsl	r3, r1, r3
 1999 0026 DB43     		mvns	r3, r3
ARM GAS  C:\Users\49542\AppData\Local\Temp\ccmqPkvL.s 			page 47


 2000 0028 7988     		ldrh	r1, [r7, #2]
 2001 002a 8909     		lsrs	r1, r1, #6
 2002 002c 89B2     		uxth	r1, r1
 2003 002e 0846     		mov	r0, r1
 2004 0030 7968     		ldr	r1, [r7, #4]
 2005 0032 0144     		add	r1, r1, r0
 2006 0034 1340     		ands	r3, r3, r2
 2007 0036 0B60     		str	r3, [r1]
 648:C:/Users/49542/Desktop/GD32F30x_Demo_Suites_V2.0.0/GD32F30x_Demo_Suites_V2.0.0/GD32F30x_Firmware_Library/GD32F30x_standard_peripheral/Source\gd32f30x_i2c.c **** }
 2008              		.loc 1 648 0
 2009 0038 00BF     		nop
 2010 003a 0C37     		adds	r7, r7, #12
 2011              	.LCFI163:
 2012              		.cfi_def_cfa_offset 4
 2013 003c BD46     		mov	sp, r7
 2014              	.LCFI164:
 2015              		.cfi_def_cfa_register 13
 2016              		@ sp needed
 2017 003e 5DF8047B 		ldr	r7, [sp], #4
 2018              	.LCFI165:
 2019              		.cfi_restore 7
 2020              		.cfi_def_cfa_offset 0
 2021 0042 7047     		bx	lr
 2022              		.cfi_endproc
 2023              	.LFE143:
 2025              		.section	.text.i2c_interrupt_flag_get,"ax",%progbits
 2026              		.align	1
 2027              		.global	i2c_interrupt_flag_get
 2028              		.syntax unified
 2029              		.thumb
 2030              		.thumb_func
 2031              		.fpu fpv4-sp-d16
 2033              	i2c_interrupt_flag_get:
 2034              	.LFB144:
 649:C:/Users/49542/Desktop/GD32F30x_Demo_Suites_V2.0.0/GD32F30x_Demo_Suites_V2.0.0/GD32F30x_Firmware_Library/GD32F30x_standard_peripheral/Source\gd32f30x_i2c.c **** 
 650:C:/Users/49542/Desktop/GD32F30x_Demo_Suites_V2.0.0/GD32F30x_Demo_Suites_V2.0.0/GD32F30x_Firmware_Library/GD32F30x_standard_peripheral/Source\gd32f30x_i2c.c **** /*!
 651:C:/Users/49542/Desktop/GD32F30x_Demo_Suites_V2.0.0/GD32F30x_Demo_Suites_V2.0.0/GD32F30x_Firmware_Library/GD32F30x_standard_peripheral/Source\gd32f30x_i2c.c ****     \brief      check I2C interrupt flag
 652:C:/Users/49542/Desktop/GD32F30x_Demo_Suites_V2.0.0/GD32F30x_Demo_Suites_V2.0.0/GD32F30x_Firmware_Library/GD32F30x_standard_peripheral/Source\gd32f30x_i2c.c ****     \param[in]  i2c_periph: I2Cx(x=0,1)
 653:C:/Users/49542/Desktop/GD32F30x_Demo_Suites_V2.0.0/GD32F30x_Demo_Suites_V2.0.0/GD32F30x_Firmware_Library/GD32F30x_standard_peripheral/Source\gd32f30x_i2c.c ****     \param[in]  int_flag: I2C interrupt flags, refer to i2c_interrupt_flag_enum
 654:C:/Users/49542/Desktop/GD32F30x_Demo_Suites_V2.0.0/GD32F30x_Demo_Suites_V2.0.0/GD32F30x_Firmware_Library/GD32F30x_standard_peripheral/Source\gd32f30x_i2c.c ****                 only one parameter can be selected which is shown as below:
 655:C:/Users/49542/Desktop/GD32F30x_Demo_Suites_V2.0.0/GD32F30x_Demo_Suites_V2.0.0/GD32F30x_Firmware_Library/GD32F30x_standard_peripheral/Source\gd32f30x_i2c.c ****       \arg        I2C_INT_FLAG_SBSEND: start condition sent out in master mode interrupt flag
 656:C:/Users/49542/Desktop/GD32F30x_Demo_Suites_V2.0.0/GD32F30x_Demo_Suites_V2.0.0/GD32F30x_Firmware_Library/GD32F30x_standard_peripheral/Source\gd32f30x_i2c.c ****       \arg        I2C_INT_FLAG_ADDSEND: address is sent in master mode or received and matches in s
 657:C:/Users/49542/Desktop/GD32F30x_Demo_Suites_V2.0.0/GD32F30x_Demo_Suites_V2.0.0/GD32F30x_Firmware_Library/GD32F30x_standard_peripheral/Source\gd32f30x_i2c.c ****       \arg        I2C_INT_FLAG_BTC: byte transmission finishes
 658:C:/Users/49542/Desktop/GD32F30x_Demo_Suites_V2.0.0/GD32F30x_Demo_Suites_V2.0.0/GD32F30x_Firmware_Library/GD32F30x_standard_peripheral/Source\gd32f30x_i2c.c ****       \arg        I2C_INT_FLAG_ADD10SEND: header of 10-bit address is sent in master mode interrupt
 659:C:/Users/49542/Desktop/GD32F30x_Demo_Suites_V2.0.0/GD32F30x_Demo_Suites_V2.0.0/GD32F30x_Firmware_Library/GD32F30x_standard_peripheral/Source\gd32f30x_i2c.c ****       \arg        I2C_INT_FLAG_STPDET: etop condition detected in slave mode interrupt flag
 660:C:/Users/49542/Desktop/GD32F30x_Demo_Suites_V2.0.0/GD32F30x_Demo_Suites_V2.0.0/GD32F30x_Firmware_Library/GD32F30x_standard_peripheral/Source\gd32f30x_i2c.c ****       \arg        I2C_INT_FLAG_RBNE: I2C_DATA is not Empty during receiving interrupt flag
 661:C:/Users/49542/Desktop/GD32F30x_Demo_Suites_V2.0.0/GD32F30x_Demo_Suites_V2.0.0/GD32F30x_Firmware_Library/GD32F30x_standard_peripheral/Source\gd32f30x_i2c.c ****       \arg        I2C_INT_FLAG_TBE: I2C_DATA is empty during transmitting interrupt flag
 662:C:/Users/49542/Desktop/GD32F30x_Demo_Suites_V2.0.0/GD32F30x_Demo_Suites_V2.0.0/GD32F30x_Firmware_Library/GD32F30x_standard_peripheral/Source\gd32f30x_i2c.c ****       \arg        I2C_INT_FLAG_BERR: a bus error occurs indication a unexpected start or stop condi
 663:C:/Users/49542/Desktop/GD32F30x_Demo_Suites_V2.0.0/GD32F30x_Demo_Suites_V2.0.0/GD32F30x_Firmware_Library/GD32F30x_standard_peripheral/Source\gd32f30x_i2c.c ****       \arg        I2C_INT_FLAG_LOSTARB: arbitration lost in master mode interrupt flag
 664:C:/Users/49542/Desktop/GD32F30x_Demo_Suites_V2.0.0/GD32F30x_Demo_Suites_V2.0.0/GD32F30x_Firmware_Library/GD32F30x_standard_peripheral/Source\gd32f30x_i2c.c ****       \arg        I2C_INT_FLAG_AERR: acknowledge error interrupt flag
 665:C:/Users/49542/Desktop/GD32F30x_Demo_Suites_V2.0.0/GD32F30x_Demo_Suites_V2.0.0/GD32F30x_Firmware_Library/GD32F30x_standard_peripheral/Source\gd32f30x_i2c.c ****       \arg        I2C_INT_FLAG_OUERR: over-run or under-run situation occurs in slave mode interrup
 666:C:/Users/49542/Desktop/GD32F30x_Demo_Suites_V2.0.0/GD32F30x_Demo_Suites_V2.0.0/GD32F30x_Firmware_Library/GD32F30x_standard_peripheral/Source\gd32f30x_i2c.c ****       \arg        I2C_INT_FLAG_PECERR: PEC error when receiving data interrupt flag
 667:C:/Users/49542/Desktop/GD32F30x_Demo_Suites_V2.0.0/GD32F30x_Demo_Suites_V2.0.0/GD32F30x_Firmware_Library/GD32F30x_standard_peripheral/Source\gd32f30x_i2c.c ****       \arg        I2C_INT_FLAG_SMBTO: timeout signal in SMBus mode interrupt flag
 668:C:/Users/49542/Desktop/GD32F30x_Demo_Suites_V2.0.0/GD32F30x_Demo_Suites_V2.0.0/GD32F30x_Firmware_Library/GD32F30x_standard_peripheral/Source\gd32f30x_i2c.c ****       \arg        I2C_INT_FLAG_SMBALT: SMBus Alert status interrupt flag
 669:C:/Users/49542/Desktop/GD32F30x_Demo_Suites_V2.0.0/GD32F30x_Demo_Suites_V2.0.0/GD32F30x_Firmware_Library/GD32F30x_standard_peripheral/Source\gd32f30x_i2c.c ****     \param[out] none
 670:C:/Users/49542/Desktop/GD32F30x_Demo_Suites_V2.0.0/GD32F30x_Demo_Suites_V2.0.0/GD32F30x_Firmware_Library/GD32F30x_standard_peripheral/Source\gd32f30x_i2c.c ****     \retval     FlagStatus: SET or RESET
 671:C:/Users/49542/Desktop/GD32F30x_Demo_Suites_V2.0.0/GD32F30x_Demo_Suites_V2.0.0/GD32F30x_Firmware_Library/GD32F30x_standard_peripheral/Source\gd32f30x_i2c.c **** */
ARM GAS  C:\Users\49542\AppData\Local\Temp\ccmqPkvL.s 			page 48


 672:C:/Users/49542/Desktop/GD32F30x_Demo_Suites_V2.0.0/GD32F30x_Demo_Suites_V2.0.0/GD32F30x_Firmware_Library/GD32F30x_standard_peripheral/Source\gd32f30x_i2c.c **** FlagStatus i2c_interrupt_flag_get(uint32_t i2c_periph, i2c_interrupt_flag_enum int_flag)
 673:C:/Users/49542/Desktop/GD32F30x_Demo_Suites_V2.0.0/GD32F30x_Demo_Suites_V2.0.0/GD32F30x_Firmware_Library/GD32F30x_standard_peripheral/Source\gd32f30x_i2c.c **** {
 2035              		.loc 1 673 0
 2036              		.cfi_startproc
 2037              		@ args = 0, pretend = 0, frame = 24
 2038              		@ frame_needed = 1, uses_anonymous_args = 0
 2039              		@ link register save eliminated.
 2040 0000 80B4     		push	{r7}
 2041              	.LCFI166:
 2042              		.cfi_def_cfa_offset 4
 2043              		.cfi_offset 7, -4
 2044 0002 87B0     		sub	sp, sp, #28
 2045              	.LCFI167:
 2046              		.cfi_def_cfa_offset 32
 2047 0004 00AF     		add	r7, sp, #0
 2048              	.LCFI168:
 2049              		.cfi_def_cfa_register 7
 2050 0006 7860     		str	r0, [r7, #4]
 2051 0008 3960     		str	r1, [r7]
 674:C:/Users/49542/Desktop/GD32F30x_Demo_Suites_V2.0.0/GD32F30x_Demo_Suites_V2.0.0/GD32F30x_Firmware_Library/GD32F30x_standard_peripheral/Source\gd32f30x_i2c.c ****     uint32_t intenable = 0U, flagstatus = 0U, bufie;
 2052              		.loc 1 674 0
 2053 000a 0023     		movs	r3, #0
 2054 000c 7B61     		str	r3, [r7, #20]
 2055 000e 0023     		movs	r3, #0
 2056 0010 3B61     		str	r3, [r7, #16]
 675:C:/Users/49542/Desktop/GD32F30x_Demo_Suites_V2.0.0/GD32F30x_Demo_Suites_V2.0.0/GD32F30x_Firmware_Library/GD32F30x_standard_peripheral/Source\gd32f30x_i2c.c ****     
 676:C:/Users/49542/Desktop/GD32F30x_Demo_Suites_V2.0.0/GD32F30x_Demo_Suites_V2.0.0/GD32F30x_Firmware_Library/GD32F30x_standard_peripheral/Source\gd32f30x_i2c.c ****     /* check BUFIE */
 677:C:/Users/49542/Desktop/GD32F30x_Demo_Suites_V2.0.0/GD32F30x_Demo_Suites_V2.0.0/GD32F30x_Firmware_Library/GD32F30x_standard_peripheral/Source\gd32f30x_i2c.c ****     bufie = I2C_CTL1(i2c_periph)&I2C_CTL1_BUFIE;
 2057              		.loc 1 677 0
 2058 0012 7B68     		ldr	r3, [r7, #4]
 2059 0014 0433     		adds	r3, r3, #4
 2060 0016 1B68     		ldr	r3, [r3]
 2061 0018 03F48063 		and	r3, r3, #1024
 2062 001c FB60     		str	r3, [r7, #12]
 678:C:/Users/49542/Desktop/GD32F30x_Demo_Suites_V2.0.0/GD32F30x_Demo_Suites_V2.0.0/GD32F30x_Firmware_Library/GD32F30x_standard_peripheral/Source\gd32f30x_i2c.c ****     
 679:C:/Users/49542/Desktop/GD32F30x_Demo_Suites_V2.0.0/GD32F30x_Demo_Suites_V2.0.0/GD32F30x_Firmware_Library/GD32F30x_standard_peripheral/Source\gd32f30x_i2c.c ****     /* get the interrupt enable bit status */
 680:C:/Users/49542/Desktop/GD32F30x_Demo_Suites_V2.0.0/GD32F30x_Demo_Suites_V2.0.0/GD32F30x_Firmware_Library/GD32F30x_standard_peripheral/Source\gd32f30x_i2c.c ****     intenable = (I2C_REG_VAL(i2c_periph, int_flag) & BIT(I2C_BIT_POS(int_flag)));
 2063              		.loc 1 680 0
 2064 001e 3B68     		ldr	r3, [r7]
 2065 0020 9B09     		lsrs	r3, r3, #6
 2066 0022 C3F30902 		ubfx	r2, r3, #0, #10
 2067 0026 7B68     		ldr	r3, [r7, #4]
 2068 0028 1344     		add	r3, r3, r2
 2069 002a 1A68     		ldr	r2, [r3]
 2070 002c 3B68     		ldr	r3, [r7]
 2071 002e 03F01F03 		and	r3, r3, #31
 2072 0032 0121     		movs	r1, #1
 2073 0034 01FA03F3 		lsl	r3, r1, r3
 2074 0038 1340     		ands	r3, r3, r2
 2075 003a 7B61     		str	r3, [r7, #20]
 681:C:/Users/49542/Desktop/GD32F30x_Demo_Suites_V2.0.0/GD32F30x_Demo_Suites_V2.0.0/GD32F30x_Firmware_Library/GD32F30x_standard_peripheral/Source\gd32f30x_i2c.c ****     /* get the corresponding flag bit status */
 682:C:/Users/49542/Desktop/GD32F30x_Demo_Suites_V2.0.0/GD32F30x_Demo_Suites_V2.0.0/GD32F30x_Firmware_Library/GD32F30x_standard_peripheral/Source\gd32f30x_i2c.c ****     flagstatus = (I2C_REG_VAL2(i2c_periph, int_flag) & BIT(I2C_BIT_POS2(int_flag)));
 2076              		.loc 1 682 0
 2077 003c 3B68     		ldr	r3, [r7]
 2078 003e 9A0D     		lsrs	r2, r3, #22
 2079 0040 7B68     		ldr	r3, [r7, #4]
 2080 0042 1344     		add	r3, r3, r2
ARM GAS  C:\Users\49542\AppData\Local\Temp\ccmqPkvL.s 			page 49


 2081 0044 1A68     		ldr	r2, [r3]
 2082 0046 3B68     		ldr	r3, [r7]
 2083 0048 1B0C     		lsrs	r3, r3, #16
 2084 004a 03F01F03 		and	r3, r3, #31
 2085 004e 0121     		movs	r1, #1
 2086 0050 01FA03F3 		lsl	r3, r1, r3
 2087 0054 1340     		ands	r3, r3, r2
 2088 0056 3B61     		str	r3, [r7, #16]
 683:C:/Users/49542/Desktop/GD32F30x_Demo_Suites_V2.0.0/GD32F30x_Demo_Suites_V2.0.0/GD32F30x_Firmware_Library/GD32F30x_standard_peripheral/Source\gd32f30x_i2c.c **** 
 684:C:/Users/49542/Desktop/GD32F30x_Demo_Suites_V2.0.0/GD32F30x_Demo_Suites_V2.0.0/GD32F30x_Firmware_Library/GD32F30x_standard_peripheral/Source\gd32f30x_i2c.c ****     if((I2C_INT_FLAG_RBNE == int_flag) || (I2C_INT_FLAG_TBE == int_flag)){
 2089              		.loc 1 684 0
 2090 0058 3B68     		ldr	r3, [r7]
 2091 005a 104A     		ldr	r2, .L78
 2092 005c 9342     		cmp	r3, r2
 2093 005e 03D0     		beq	.L73
 2094              		.loc 1 684 0 is_stmt 0 discriminator 1
 2095 0060 3B68     		ldr	r3, [r7]
 2096 0062 0F4A     		ldr	r2, .L78+4
 2097 0064 9342     		cmp	r3, r2
 2098 0066 0AD1     		bne	.L74
 2099              	.L73:
 685:C:/Users/49542/Desktop/GD32F30x_Demo_Suites_V2.0.0/GD32F30x_Demo_Suites_V2.0.0/GD32F30x_Firmware_Library/GD32F30x_standard_peripheral/Source\gd32f30x_i2c.c ****         if(intenable && bufie){
 2100              		.loc 1 685 0 is_stmt 1
 2101 0068 7B69     		ldr	r3, [r7, #20]
 2102 006a 002B     		cmp	r3, #0
 2103 006c 05D0     		beq	.L75
 2104              		.loc 1 685 0 is_stmt 0 discriminator 1
 2105 006e FB68     		ldr	r3, [r7, #12]
 2106 0070 002B     		cmp	r3, #0
 2107 0072 02D0     		beq	.L75
 686:C:/Users/49542/Desktop/GD32F30x_Demo_Suites_V2.0.0/GD32F30x_Demo_Suites_V2.0.0/GD32F30x_Firmware_Library/GD32F30x_standard_peripheral/Source\gd32f30x_i2c.c ****             intenable = 1U;                       
 2108              		.loc 1 686 0 is_stmt 1
 2109 0074 0123     		movs	r3, #1
 2110 0076 7B61     		str	r3, [r7, #20]
 2111 0078 01E0     		b	.L74
 2112              	.L75:
 687:C:/Users/49542/Desktop/GD32F30x_Demo_Suites_V2.0.0/GD32F30x_Demo_Suites_V2.0.0/GD32F30x_Firmware_Library/GD32F30x_standard_peripheral/Source\gd32f30x_i2c.c ****         }else{
 688:C:/Users/49542/Desktop/GD32F30x_Demo_Suites_V2.0.0/GD32F30x_Demo_Suites_V2.0.0/GD32F30x_Firmware_Library/GD32F30x_standard_peripheral/Source\gd32f30x_i2c.c ****             intenable = 0U;
 2113              		.loc 1 688 0
 2114 007a 0023     		movs	r3, #0
 2115 007c 7B61     		str	r3, [r7, #20]
 2116              	.L74:
 689:C:/Users/49542/Desktop/GD32F30x_Demo_Suites_V2.0.0/GD32F30x_Demo_Suites_V2.0.0/GD32F30x_Firmware_Library/GD32F30x_standard_peripheral/Source\gd32f30x_i2c.c ****         }
 690:C:/Users/49542/Desktop/GD32F30x_Demo_Suites_V2.0.0/GD32F30x_Demo_Suites_V2.0.0/GD32F30x_Firmware_Library/GD32F30x_standard_peripheral/Source\gd32f30x_i2c.c ****     }
 691:C:/Users/49542/Desktop/GD32F30x_Demo_Suites_V2.0.0/GD32F30x_Demo_Suites_V2.0.0/GD32F30x_Firmware_Library/GD32F30x_standard_peripheral/Source\gd32f30x_i2c.c ****     if((0U != flagstatus) && (0U != intenable)){
 2117              		.loc 1 691 0
 2118 007e 3B69     		ldr	r3, [r7, #16]
 2119 0080 002B     		cmp	r3, #0
 2120 0082 04D0     		beq	.L76
 2121              		.loc 1 691 0 is_stmt 0 discriminator 1
 2122 0084 7B69     		ldr	r3, [r7, #20]
 2123 0086 002B     		cmp	r3, #0
 2124 0088 01D0     		beq	.L76
 692:C:/Users/49542/Desktop/GD32F30x_Demo_Suites_V2.0.0/GD32F30x_Demo_Suites_V2.0.0/GD32F30x_Firmware_Library/GD32F30x_standard_peripheral/Source\gd32f30x_i2c.c ****         return SET;
 2125              		.loc 1 692 0 is_stmt 1
 2126 008a 0123     		movs	r3, #1
 2127 008c 00E0     		b	.L77
ARM GAS  C:\Users\49542\AppData\Local\Temp\ccmqPkvL.s 			page 50


 2128              	.L76:
 693:C:/Users/49542/Desktop/GD32F30x_Demo_Suites_V2.0.0/GD32F30x_Demo_Suites_V2.0.0/GD32F30x_Firmware_Library/GD32F30x_standard_peripheral/Source\gd32f30x_i2c.c ****     }else{
 694:C:/Users/49542/Desktop/GD32F30x_Demo_Suites_V2.0.0/GD32F30x_Demo_Suites_V2.0.0/GD32F30x_Firmware_Library/GD32F30x_standard_peripheral/Source\gd32f30x_i2c.c ****         return RESET; 
 2129              		.loc 1 694 0
 2130 008e 0023     		movs	r3, #0
 2131              	.L77:
 695:C:/Users/49542/Desktop/GD32F30x_Demo_Suites_V2.0.0/GD32F30x_Demo_Suites_V2.0.0/GD32F30x_Firmware_Library/GD32F30x_standard_peripheral/Source\gd32f30x_i2c.c ****     }
 696:C:/Users/49542/Desktop/GD32F30x_Demo_Suites_V2.0.0/GD32F30x_Demo_Suites_V2.0.0/GD32F30x_Firmware_Library/GD32F30x_standard_peripheral/Source\gd32f30x_i2c.c **** }
 2132              		.loc 1 696 0
 2133 0090 1846     		mov	r0, r3
 2134 0092 1C37     		adds	r7, r7, #28
 2135              	.LCFI169:
 2136              		.cfi_def_cfa_offset 4
 2137 0094 BD46     		mov	sp, r7
 2138              	.LCFI170:
 2139              		.cfi_def_cfa_register 13
 2140              		@ sp needed
 2141 0096 5DF8047B 		ldr	r7, [sp], #4
 2142              	.LCFI171:
 2143              		.cfi_restore 7
 2144              		.cfi_def_cfa_offset 0
 2145 009a 7047     		bx	lr
 2146              	.L79:
 2147              		.align	2
 2148              	.L78:
 2149 009c 09010605 		.word	84279561
 2150 00a0 09010705 		.word	84345097
 2151              		.cfi_endproc
 2152              	.LFE144:
 2154              		.section	.text.i2c_interrupt_flag_clear,"ax",%progbits
 2155              		.align	1
 2156              		.global	i2c_interrupt_flag_clear
 2157              		.syntax unified
 2158              		.thumb
 2159              		.thumb_func
 2160              		.fpu fpv4-sp-d16
 2162              	i2c_interrupt_flag_clear:
 2163              	.LFB145:
 697:C:/Users/49542/Desktop/GD32F30x_Demo_Suites_V2.0.0/GD32F30x_Demo_Suites_V2.0.0/GD32F30x_Firmware_Library/GD32F30x_standard_peripheral/Source\gd32f30x_i2c.c **** 
 698:C:/Users/49542/Desktop/GD32F30x_Demo_Suites_V2.0.0/GD32F30x_Demo_Suites_V2.0.0/GD32F30x_Firmware_Library/GD32F30x_standard_peripheral/Source\gd32f30x_i2c.c **** /*!
 699:C:/Users/49542/Desktop/GD32F30x_Demo_Suites_V2.0.0/GD32F30x_Demo_Suites_V2.0.0/GD32F30x_Firmware_Library/GD32F30x_standard_peripheral/Source\gd32f30x_i2c.c ****     \brief      clear I2C interrupt flag
 700:C:/Users/49542/Desktop/GD32F30x_Demo_Suites_V2.0.0/GD32F30x_Demo_Suites_V2.0.0/GD32F30x_Firmware_Library/GD32F30x_standard_peripheral/Source\gd32f30x_i2c.c ****     \param[in]  i2c_periph: I2Cx(x=0,1)
 701:C:/Users/49542/Desktop/GD32F30x_Demo_Suites_V2.0.0/GD32F30x_Demo_Suites_V2.0.0/GD32F30x_Firmware_Library/GD32F30x_standard_peripheral/Source\gd32f30x_i2c.c ****     \param[in]  intflag: I2C interrupt flags, refer to i2c_interrupt_flag_enum
 702:C:/Users/49542/Desktop/GD32F30x_Demo_Suites_V2.0.0/GD32F30x_Demo_Suites_V2.0.0/GD32F30x_Firmware_Library/GD32F30x_standard_peripheral/Source\gd32f30x_i2c.c ****                 only one parameter can be selected which is shown as below:
 703:C:/Users/49542/Desktop/GD32F30x_Demo_Suites_V2.0.0/GD32F30x_Demo_Suites_V2.0.0/GD32F30x_Firmware_Library/GD32F30x_standard_peripheral/Source\gd32f30x_i2c.c ****       \arg        I2C_INT_FLAG_ADDSEND: address is sent in master mode or received and matches in s
 704:C:/Users/49542/Desktop/GD32F30x_Demo_Suites_V2.0.0/GD32F30x_Demo_Suites_V2.0.0/GD32F30x_Firmware_Library/GD32F30x_standard_peripheral/Source\gd32f30x_i2c.c ****       \arg        I2C_INT_FLAG_BERR: a bus error occurs indication a unexpected start or stop condi
 705:C:/Users/49542/Desktop/GD32F30x_Demo_Suites_V2.0.0/GD32F30x_Demo_Suites_V2.0.0/GD32F30x_Firmware_Library/GD32F30x_standard_peripheral/Source\gd32f30x_i2c.c ****       \arg        I2C_INT_FLAG_LOSTARB: arbitration lost in master mode interrupt flag
 706:C:/Users/49542/Desktop/GD32F30x_Demo_Suites_V2.0.0/GD32F30x_Demo_Suites_V2.0.0/GD32F30x_Firmware_Library/GD32F30x_standard_peripheral/Source\gd32f30x_i2c.c ****       \arg        I2C_INT_FLAG_AERR: acknowledge error interrupt flag
 707:C:/Users/49542/Desktop/GD32F30x_Demo_Suites_V2.0.0/GD32F30x_Demo_Suites_V2.0.0/GD32F30x_Firmware_Library/GD32F30x_standard_peripheral/Source\gd32f30x_i2c.c ****       \arg        I2C_INT_FLAG_OUERR: over-run or under-run situation occurs in slave mode interrup
 708:C:/Users/49542/Desktop/GD32F30x_Demo_Suites_V2.0.0/GD32F30x_Demo_Suites_V2.0.0/GD32F30x_Firmware_Library/GD32F30x_standard_peripheral/Source\gd32f30x_i2c.c ****       \arg        I2C_INT_FLAG_PECERR: PEC error when receiving data interrupt flag
 709:C:/Users/49542/Desktop/GD32F30x_Demo_Suites_V2.0.0/GD32F30x_Demo_Suites_V2.0.0/GD32F30x_Firmware_Library/GD32F30x_standard_peripheral/Source\gd32f30x_i2c.c ****       \arg        I2C_INT_FLAG_SMBTO: timeout signal in SMBus mode interrupt flag
 710:C:/Users/49542/Desktop/GD32F30x_Demo_Suites_V2.0.0/GD32F30x_Demo_Suites_V2.0.0/GD32F30x_Firmware_Library/GD32F30x_standard_peripheral/Source\gd32f30x_i2c.c ****       \arg        I2C_INT_FLAG_SMBALT: SMBus Alert status interrupt flag
 711:C:/Users/49542/Desktop/GD32F30x_Demo_Suites_V2.0.0/GD32F30x_Demo_Suites_V2.0.0/GD32F30x_Firmware_Library/GD32F30x_standard_peripheral/Source\gd32f30x_i2c.c ****     \param[out] none
 712:C:/Users/49542/Desktop/GD32F30x_Demo_Suites_V2.0.0/GD32F30x_Demo_Suites_V2.0.0/GD32F30x_Firmware_Library/GD32F30x_standard_peripheral/Source\gd32f30x_i2c.c ****     \retval     none
 713:C:/Users/49542/Desktop/GD32F30x_Demo_Suites_V2.0.0/GD32F30x_Demo_Suites_V2.0.0/GD32F30x_Firmware_Library/GD32F30x_standard_peripheral/Source\gd32f30x_i2c.c **** */
 714:C:/Users/49542/Desktop/GD32F30x_Demo_Suites_V2.0.0/GD32F30x_Demo_Suites_V2.0.0/GD32F30x_Firmware_Library/GD32F30x_standard_peripheral/Source\gd32f30x_i2c.c **** void i2c_interrupt_flag_clear(uint32_t i2c_periph, i2c_interrupt_flag_enum int_flag)
 715:C:/Users/49542/Desktop/GD32F30x_Demo_Suites_V2.0.0/GD32F30x_Demo_Suites_V2.0.0/GD32F30x_Firmware_Library/GD32F30x_standard_peripheral/Source\gd32f30x_i2c.c **** {
ARM GAS  C:\Users\49542\AppData\Local\Temp\ccmqPkvL.s 			page 51


 2164              		.loc 1 715 0
 2165              		.cfi_startproc
 2166              		@ args = 0, pretend = 0, frame = 8
 2167              		@ frame_needed = 1, uses_anonymous_args = 0
 2168              		@ link register save eliminated.
 2169 0000 80B4     		push	{r7}
 2170              	.LCFI172:
 2171              		.cfi_def_cfa_offset 4
 2172              		.cfi_offset 7, -4
 2173 0002 83B0     		sub	sp, sp, #12
 2174              	.LCFI173:
 2175              		.cfi_def_cfa_offset 16
 2176 0004 00AF     		add	r7, sp, #0
 2177              	.LCFI174:
 2178              		.cfi_def_cfa_register 7
 2179 0006 7860     		str	r0, [r7, #4]
 2180 0008 3960     		str	r1, [r7]
 716:C:/Users/49542/Desktop/GD32F30x_Demo_Suites_V2.0.0/GD32F30x_Demo_Suites_V2.0.0/GD32F30x_Firmware_Library/GD32F30x_standard_peripheral/Source\gd32f30x_i2c.c ****     if(I2C_INT_FLAG_ADDSEND == int_flag){
 2181              		.loc 1 716 0
 2182 000a 3B68     		ldr	r3, [r7]
 2183 000c 114A     		ldr	r2, .L84
 2184 000e 9342     		cmp	r3, r2
 2185 0010 06D1     		bne	.L81
 717:C:/Users/49542/Desktop/GD32F30x_Demo_Suites_V2.0.0/GD32F30x_Demo_Suites_V2.0.0/GD32F30x_Firmware_Library/GD32F30x_standard_peripheral/Source\gd32f30x_i2c.c ****         /* read I2C_STAT0 and then read I2C_STAT1 to clear ADDSEND */
 718:C:/Users/49542/Desktop/GD32F30x_Demo_Suites_V2.0.0/GD32F30x_Demo_Suites_V2.0.0/GD32F30x_Firmware_Library/GD32F30x_standard_peripheral/Source\gd32f30x_i2c.c ****         I2C_STAT0(i2c_periph);
 2186              		.loc 1 718 0
 2187 0012 7B68     		ldr	r3, [r7, #4]
 2188 0014 1433     		adds	r3, r3, #20
 2189 0016 1B68     		ldr	r3, [r3]
 719:C:/Users/49542/Desktop/GD32F30x_Demo_Suites_V2.0.0/GD32F30x_Demo_Suites_V2.0.0/GD32F30x_Firmware_Library/GD32F30x_standard_peripheral/Source\gd32f30x_i2c.c ****         I2C_STAT1(i2c_periph);
 2190              		.loc 1 719 0
 2191 0018 7B68     		ldr	r3, [r7, #4]
 2192 001a 1833     		adds	r3, r3, #24
 2193 001c 1B68     		ldr	r3, [r3]
 720:C:/Users/49542/Desktop/GD32F30x_Demo_Suites_V2.0.0/GD32F30x_Demo_Suites_V2.0.0/GD32F30x_Firmware_Library/GD32F30x_standard_peripheral/Source\gd32f30x_i2c.c ****     }else{
 721:C:/Users/49542/Desktop/GD32F30x_Demo_Suites_V2.0.0/GD32F30x_Demo_Suites_V2.0.0/GD32F30x_Firmware_Library/GD32F30x_standard_peripheral/Source\gd32f30x_i2c.c ****         I2C_REG_VAL2(i2c_periph, int_flag) &= ~BIT(I2C_BIT_POS2(int_flag));
 722:C:/Users/49542/Desktop/GD32F30x_Demo_Suites_V2.0.0/GD32F30x_Demo_Suites_V2.0.0/GD32F30x_Firmware_Library/GD32F30x_standard_peripheral/Source\gd32f30x_i2c.c ****     }
 723:C:/Users/49542/Desktop/GD32F30x_Demo_Suites_V2.0.0/GD32F30x_Demo_Suites_V2.0.0/GD32F30x_Firmware_Library/GD32F30x_standard_peripheral/Source\gd32f30x_i2c.c **** }
 2194              		.loc 1 723 0
 2195 001e 12E0     		b	.L83
 2196              	.L81:
 721:C:/Users/49542/Desktop/GD32F30x_Demo_Suites_V2.0.0/GD32F30x_Demo_Suites_V2.0.0/GD32F30x_Firmware_Library/GD32F30x_standard_peripheral/Source\gd32f30x_i2c.c ****     }
 2197              		.loc 1 721 0
 2198 0020 3B68     		ldr	r3, [r7]
 2199 0022 9A0D     		lsrs	r2, r3, #22
 2200 0024 7B68     		ldr	r3, [r7, #4]
 2201 0026 1344     		add	r3, r3, r2
 2202 0028 1A68     		ldr	r2, [r3]
 2203 002a 3B68     		ldr	r3, [r7]
 2204 002c 1B0C     		lsrs	r3, r3, #16
 2205 002e 03F01F03 		and	r3, r3, #31
 2206 0032 0121     		movs	r1, #1
 2207 0034 01FA03F3 		lsl	r3, r1, r3
 2208 0038 DB43     		mvns	r3, r3
 2209 003a 3968     		ldr	r1, [r7]
 2210 003c 880D     		lsrs	r0, r1, #22
 2211 003e 7968     		ldr	r1, [r7, #4]
ARM GAS  C:\Users\49542\AppData\Local\Temp\ccmqPkvL.s 			page 52


 2212 0040 0144     		add	r1, r1, r0
 2213 0042 1340     		ands	r3, r3, r2
 2214 0044 0B60     		str	r3, [r1]
 2215              	.L83:
 2216              		.loc 1 723 0
 2217 0046 00BF     		nop
 2218 0048 0C37     		adds	r7, r7, #12
 2219              	.LCFI175:
 2220              		.cfi_def_cfa_offset 4
 2221 004a BD46     		mov	sp, r7
 2222              	.LCFI176:
 2223              		.cfi_def_cfa_register 13
 2224              		@ sp needed
 2225 004c 5DF8047B 		ldr	r7, [sp], #4
 2226              	.LCFI177:
 2227              		.cfi_restore 7
 2228              		.cfi_def_cfa_offset 0
 2229 0050 7047     		bx	lr
 2230              	.L85:
 2231 0052 00BF     		.align	2
 2232              	.L84:
 2233 0054 09010105 		.word	83951881
 2234              		.cfi_endproc
 2235              	.LFE145:
 2237              		.text
 2238              	.Letext0:
 2239              		.file 2 "c:\\users\\49542\\opensourcetools\\gnu tools arm embedded\\7 2018-q2-update\\arm-none-eab
 2240              		.file 3 "c:\\users\\49542\\opensourcetools\\gnu tools arm embedded\\7 2018-q2-update\\arm-none-eab
 2241              		.file 4 "C:/Users/49542/Desktop/GD32F30x_Demo_Suites_V2.0.0/GD32F30x_Demo_Suites_V2.0.0/GD32F30x_F
 2242              		.file 5 "C:/Users/49542/Desktop/GD32F30x_Demo_Suites_V2.0.0/GD32F30x_Demo_Suites_V2.0.0/GD32F30x_F
 2243              		.file 6 "C:/Users/49542/Desktop/GD32F30x_Demo_Suites_V2.0.0/GD32F30x_Demo_Suites_V2.0.0/GD32F30x_F
 2244              		.file 7 "C:/Users/49542/Desktop/GD32F30x_Demo_Suites_V2.0.0/GD32F30x_Demo_Suites_V2.0.0/GD32F30x_F
 2245              		.file 8 "c:\\users\\49542\\opensourcetools\\gnu tools arm embedded\\7 2018-q2-update\\arm-none-eab
 2246              		.file 9 "c:\\users\\49542\\opensourcetools\\gnu tools arm embedded\\7 2018-q2-update\\arm-none-eab
 2247              		.file 10 "c:\\users\\49542\\opensourcetools\\gnu tools arm embedded\\7 2018-q2-update\\lib\\gcc\\a
 2248              		.file 11 "c:\\users\\49542\\opensourcetools\\gnu tools arm embedded\\7 2018-q2-update\\arm-none-ea
 2249              		.file 12 "c:\\users\\49542\\opensourcetools\\gnu tools arm embedded\\7 2018-q2-update\\arm-none-ea
 2250              		.file 13 "C:/Users/49542/Desktop/GD32F30x_Demo_Suites_V2.0.0/GD32F30x_Demo_Suites_V2.0.0/GD32F30x_
ARM GAS  C:\Users\49542\AppData\Local\Temp\ccmqPkvL.s 			page 53

