ARM GAS  C:\Users\49542\AppData\Local\Temp\cctN87BC.s 			page 1


   1              		.cpu cortex-m4
   2              		.eabi_attribute 27, 1
   3              		.eabi_attribute 28, 1
   4              		.eabi_attribute 20, 1
   5              		.eabi_attribute 21, 1
   6              		.eabi_attribute 23, 3
   7              		.eabi_attribute 24, 1
   8              		.eabi_attribute 25, 1
   9              		.eabi_attribute 26, 1
  10              		.eabi_attribute 30, 6
  11              		.eabi_attribute 34, 1
  12              		.eabi_attribute 18, 4
  13              		.file	"gd32f30x_adc.c"
  14              		.text
  15              	.Ltext0:
  16              		.cfi_sections	.debug_frame
  17              		.section	.text.adc_deinit,"ax",%progbits
  18              		.align	1
  19              		.global	adc_deinit
  20              		.syntax unified
  21              		.thumb
  22              		.thumb_func
  23              		.fpu fpv4-sp-d16
  25              	adc_deinit:
  26              	.LFB116:
  27              		.file 1 "C:/Users/49542/Desktop/GD32F30x_Demo_Suites_V2.0.0/GD32F30x_Demo_Suites_V2.0.0/GD32F30x_F
   1:C:/Users/49542/Desktop/GD32F30x_Demo_Suites_V2.0.0/GD32F30x_Demo_Suites_V2.0.0/GD32F30x_Firmware_Library/GD32F30x_standard_peripheral/Source\gd32f30x_adc.c **** /*!
   2:C:/Users/49542/Desktop/GD32F30x_Demo_Suites_V2.0.0/GD32F30x_Demo_Suites_V2.0.0/GD32F30x_Firmware_Library/GD32F30x_standard_peripheral/Source\gd32f30x_adc.c ****     \file  gd32f30x_adc.c
   3:C:/Users/49542/Desktop/GD32F30x_Demo_Suites_V2.0.0/GD32F30x_Demo_Suites_V2.0.0/GD32F30x_Firmware_Library/GD32F30x_standard_peripheral/Source\gd32f30x_adc.c ****     \brief ADC driver
   4:C:/Users/49542/Desktop/GD32F30x_Demo_Suites_V2.0.0/GD32F30x_Demo_Suites_V2.0.0/GD32F30x_Firmware_Library/GD32F30x_standard_peripheral/Source\gd32f30x_adc.c **** 
   5:C:/Users/49542/Desktop/GD32F30x_Demo_Suites_V2.0.0/GD32F30x_Demo_Suites_V2.0.0/GD32F30x_Firmware_Library/GD32F30x_standard_peripheral/Source\gd32f30x_adc.c ****     \version 2017-02-10, V1.0.0, firmware for GD32F30x
   6:C:/Users/49542/Desktop/GD32F30x_Demo_Suites_V2.0.0/GD32F30x_Demo_Suites_V2.0.0/GD32F30x_Firmware_Library/GD32F30x_standard_peripheral/Source\gd32f30x_adc.c ****     \version 2018-10-10, V1.1.0, firmware for GD32F30x
   7:C:/Users/49542/Desktop/GD32F30x_Demo_Suites_V2.0.0/GD32F30x_Demo_Suites_V2.0.0/GD32F30x_Firmware_Library/GD32F30x_standard_peripheral/Source\gd32f30x_adc.c ****     \version 2018-12-25, V2.0.0, firmware for GD32F30x
   8:C:/Users/49542/Desktop/GD32F30x_Demo_Suites_V2.0.0/GD32F30x_Demo_Suites_V2.0.0/GD32F30x_Firmware_Library/GD32F30x_standard_peripheral/Source\gd32f30x_adc.c **** */
   9:C:/Users/49542/Desktop/GD32F30x_Demo_Suites_V2.0.0/GD32F30x_Demo_Suites_V2.0.0/GD32F30x_Firmware_Library/GD32F30x_standard_peripheral/Source\gd32f30x_adc.c **** 
  10:C:/Users/49542/Desktop/GD32F30x_Demo_Suites_V2.0.0/GD32F30x_Demo_Suites_V2.0.0/GD32F30x_Firmware_Library/GD32F30x_standard_peripheral/Source\gd32f30x_adc.c **** /*
  11:C:/Users/49542/Desktop/GD32F30x_Demo_Suites_V2.0.0/GD32F30x_Demo_Suites_V2.0.0/GD32F30x_Firmware_Library/GD32F30x_standard_peripheral/Source\gd32f30x_adc.c ****     Copyright (c) 2018, GigaDevice Semiconductor Inc.
  12:C:/Users/49542/Desktop/GD32F30x_Demo_Suites_V2.0.0/GD32F30x_Demo_Suites_V2.0.0/GD32F30x_Firmware_Library/GD32F30x_standard_peripheral/Source\gd32f30x_adc.c **** 
  13:C:/Users/49542/Desktop/GD32F30x_Demo_Suites_V2.0.0/GD32F30x_Demo_Suites_V2.0.0/GD32F30x_Firmware_Library/GD32F30x_standard_peripheral/Source\gd32f30x_adc.c ****     All rights reserved.
  14:C:/Users/49542/Desktop/GD32F30x_Demo_Suites_V2.0.0/GD32F30x_Demo_Suites_V2.0.0/GD32F30x_Firmware_Library/GD32F30x_standard_peripheral/Source\gd32f30x_adc.c **** 
  15:C:/Users/49542/Desktop/GD32F30x_Demo_Suites_V2.0.0/GD32F30x_Demo_Suites_V2.0.0/GD32F30x_Firmware_Library/GD32F30x_standard_peripheral/Source\gd32f30x_adc.c ****     Redistribution and use in source and binary forms, with or without modification, 
  16:C:/Users/49542/Desktop/GD32F30x_Demo_Suites_V2.0.0/GD32F30x_Demo_Suites_V2.0.0/GD32F30x_Firmware_Library/GD32F30x_standard_peripheral/Source\gd32f30x_adc.c **** are permitted provided that the following conditions are met:
  17:C:/Users/49542/Desktop/GD32F30x_Demo_Suites_V2.0.0/GD32F30x_Demo_Suites_V2.0.0/GD32F30x_Firmware_Library/GD32F30x_standard_peripheral/Source\gd32f30x_adc.c **** 
  18:C:/Users/49542/Desktop/GD32F30x_Demo_Suites_V2.0.0/GD32F30x_Demo_Suites_V2.0.0/GD32F30x_Firmware_Library/GD32F30x_standard_peripheral/Source\gd32f30x_adc.c ****     1. Redistributions of source code must retain the above copyright notice, this 
  19:C:/Users/49542/Desktop/GD32F30x_Demo_Suites_V2.0.0/GD32F30x_Demo_Suites_V2.0.0/GD32F30x_Firmware_Library/GD32F30x_standard_peripheral/Source\gd32f30x_adc.c ****        list of conditions and the following disclaimer.
  20:C:/Users/49542/Desktop/GD32F30x_Demo_Suites_V2.0.0/GD32F30x_Demo_Suites_V2.0.0/GD32F30x_Firmware_Library/GD32F30x_standard_peripheral/Source\gd32f30x_adc.c ****     2. Redistributions in binary form must reproduce the above copyright notice, 
  21:C:/Users/49542/Desktop/GD32F30x_Demo_Suites_V2.0.0/GD32F30x_Demo_Suites_V2.0.0/GD32F30x_Firmware_Library/GD32F30x_standard_peripheral/Source\gd32f30x_adc.c ****        this list of conditions and the following disclaimer in the documentation 
  22:C:/Users/49542/Desktop/GD32F30x_Demo_Suites_V2.0.0/GD32F30x_Demo_Suites_V2.0.0/GD32F30x_Firmware_Library/GD32F30x_standard_peripheral/Source\gd32f30x_adc.c ****        and/or other materials provided with the distribution.
  23:C:/Users/49542/Desktop/GD32F30x_Demo_Suites_V2.0.0/GD32F30x_Demo_Suites_V2.0.0/GD32F30x_Firmware_Library/GD32F30x_standard_peripheral/Source\gd32f30x_adc.c ****     3. Neither the name of the copyright holder nor the names of its contributors 
  24:C:/Users/49542/Desktop/GD32F30x_Demo_Suites_V2.0.0/GD32F30x_Demo_Suites_V2.0.0/GD32F30x_Firmware_Library/GD32F30x_standard_peripheral/Source\gd32f30x_adc.c ****        may be used to endorse or promote products derived from this software without 
  25:C:/Users/49542/Desktop/GD32F30x_Demo_Suites_V2.0.0/GD32F30x_Demo_Suites_V2.0.0/GD32F30x_Firmware_Library/GD32F30x_standard_peripheral/Source\gd32f30x_adc.c ****        specific prior written permission.
  26:C:/Users/49542/Desktop/GD32F30x_Demo_Suites_V2.0.0/GD32F30x_Demo_Suites_V2.0.0/GD32F30x_Firmware_Library/GD32F30x_standard_peripheral/Source\gd32f30x_adc.c **** 
  27:C:/Users/49542/Desktop/GD32F30x_Demo_Suites_V2.0.0/GD32F30x_Demo_Suites_V2.0.0/GD32F30x_Firmware_Library/GD32F30x_standard_peripheral/Source\gd32f30x_adc.c ****     THIS SOFTWARE IS PROVIDED BY THE COPYRIGHT HOLDERS AND CONTRIBUTORS "AS IS" 
  28:C:/Users/49542/Desktop/GD32F30x_Demo_Suites_V2.0.0/GD32F30x_Demo_Suites_V2.0.0/GD32F30x_Firmware_Library/GD32F30x_standard_peripheral/Source\gd32f30x_adc.c **** AND ANY EXPRESS OR IMPLIED WARRANTIES, INCLUDING, BUT NOT LIMITED TO, THE IMPLIED 
  29:C:/Users/49542/Desktop/GD32F30x_Demo_Suites_V2.0.0/GD32F30x_Demo_Suites_V2.0.0/GD32F30x_Firmware_Library/GD32F30x_standard_peripheral/Source\gd32f30x_adc.c **** WARRANTIES OF MERCHANTABILITY AND FITNESS FOR A PARTICULAR PURPOSE ARE DISCLAIMED. 
  30:C:/Users/49542/Desktop/GD32F30x_Demo_Suites_V2.0.0/GD32F30x_Demo_Suites_V2.0.0/GD32F30x_Firmware_Library/GD32F30x_standard_peripheral/Source\gd32f30x_adc.c **** IN NO EVENT SHALL THE COPYRIGHT HOLDER OR CONTRIBUTORS BE LIABLE FOR ANY DIRECT, 
  31:C:/Users/49542/Desktop/GD32F30x_Demo_Suites_V2.0.0/GD32F30x_Demo_Suites_V2.0.0/GD32F30x_Firmware_Library/GD32F30x_standard_peripheral/Source\gd32f30x_adc.c **** INDIRECT, INCIDENTAL, SPECIAL, EXEMPLARY, OR CONSEQUENTIAL DAMAGES (INCLUDING, BUT 
ARM GAS  C:\Users\49542\AppData\Local\Temp\cctN87BC.s 			page 2


  32:C:/Users/49542/Desktop/GD32F30x_Demo_Suites_V2.0.0/GD32F30x_Demo_Suites_V2.0.0/GD32F30x_Firmware_Library/GD32F30x_standard_peripheral/Source\gd32f30x_adc.c **** NOT LIMITED TO, PROCUREMENT OF SUBSTITUTE GOODS OR SERVICES; LOSS OF USE, DATA, OR 
  33:C:/Users/49542/Desktop/GD32F30x_Demo_Suites_V2.0.0/GD32F30x_Demo_Suites_V2.0.0/GD32F30x_Firmware_Library/GD32F30x_standard_peripheral/Source\gd32f30x_adc.c **** PROFITS; OR BUSINESS INTERRUPTION) HOWEVER CAUSED AND ON ANY THEORY OF LIABILITY, 
  34:C:/Users/49542/Desktop/GD32F30x_Demo_Suites_V2.0.0/GD32F30x_Demo_Suites_V2.0.0/GD32F30x_Firmware_Library/GD32F30x_standard_peripheral/Source\gd32f30x_adc.c **** WHETHER IN CONTRACT, STRICT LIABILITY, OR TORT (INCLUDING NEGLIGENCE OR OTHERWISE) 
  35:C:/Users/49542/Desktop/GD32F30x_Demo_Suites_V2.0.0/GD32F30x_Demo_Suites_V2.0.0/GD32F30x_Firmware_Library/GD32F30x_standard_peripheral/Source\gd32f30x_adc.c **** ARISING IN ANY WAY OUT OF THE USE OF THIS SOFTWARE, EVEN IF ADVISED OF THE POSSIBILITY 
  36:C:/Users/49542/Desktop/GD32F30x_Demo_Suites_V2.0.0/GD32F30x_Demo_Suites_V2.0.0/GD32F30x_Firmware_Library/GD32F30x_standard_peripheral/Source\gd32f30x_adc.c **** OF SUCH DAMAGE.
  37:C:/Users/49542/Desktop/GD32F30x_Demo_Suites_V2.0.0/GD32F30x_Demo_Suites_V2.0.0/GD32F30x_Firmware_Library/GD32F30x_standard_peripheral/Source\gd32f30x_adc.c **** */
  38:C:/Users/49542/Desktop/GD32F30x_Demo_Suites_V2.0.0/GD32F30x_Demo_Suites_V2.0.0/GD32F30x_Firmware_Library/GD32F30x_standard_peripheral/Source\gd32f30x_adc.c **** 
  39:C:/Users/49542/Desktop/GD32F30x_Demo_Suites_V2.0.0/GD32F30x_Demo_Suites_V2.0.0/GD32F30x_Firmware_Library/GD32F30x_standard_peripheral/Source\gd32f30x_adc.c **** #include "gd32f30x_adc.h"
  40:C:/Users/49542/Desktop/GD32F30x_Demo_Suites_V2.0.0/GD32F30x_Demo_Suites_V2.0.0/GD32F30x_Firmware_Library/GD32F30x_standard_peripheral/Source\gd32f30x_adc.c **** 
  41:C:/Users/49542/Desktop/GD32F30x_Demo_Suites_V2.0.0/GD32F30x_Demo_Suites_V2.0.0/GD32F30x_Firmware_Library/GD32F30x_standard_peripheral/Source\gd32f30x_adc.c **** /*!
  42:C:/Users/49542/Desktop/GD32F30x_Demo_Suites_V2.0.0/GD32F30x_Demo_Suites_V2.0.0/GD32F30x_Firmware_Library/GD32F30x_standard_peripheral/Source\gd32f30x_adc.c ****     \brief      reset ADC 
  43:C:/Users/49542/Desktop/GD32F30x_Demo_Suites_V2.0.0/GD32F30x_Demo_Suites_V2.0.0/GD32F30x_Firmware_Library/GD32F30x_standard_peripheral/Source\gd32f30x_adc.c ****     \param[in]  adc_periph: ADCx,x=0,1,2
  44:C:/Users/49542/Desktop/GD32F30x_Demo_Suites_V2.0.0/GD32F30x_Demo_Suites_V2.0.0/GD32F30x_Firmware_Library/GD32F30x_standard_peripheral/Source\gd32f30x_adc.c ****                 only one among these parameters can be selected
  45:C:/Users/49542/Desktop/GD32F30x_Demo_Suites_V2.0.0/GD32F30x_Demo_Suites_V2.0.0/GD32F30x_Firmware_Library/GD32F30x_standard_peripheral/Source\gd32f30x_adc.c ****     \param[out] none
  46:C:/Users/49542/Desktop/GD32F30x_Demo_Suites_V2.0.0/GD32F30x_Demo_Suites_V2.0.0/GD32F30x_Firmware_Library/GD32F30x_standard_peripheral/Source\gd32f30x_adc.c ****     \retval     none
  47:C:/Users/49542/Desktop/GD32F30x_Demo_Suites_V2.0.0/GD32F30x_Demo_Suites_V2.0.0/GD32F30x_Firmware_Library/GD32F30x_standard_peripheral/Source\gd32f30x_adc.c **** */
  48:C:/Users/49542/Desktop/GD32F30x_Demo_Suites_V2.0.0/GD32F30x_Demo_Suites_V2.0.0/GD32F30x_Firmware_Library/GD32F30x_standard_peripheral/Source\gd32f30x_adc.c **** void adc_deinit(uint32_t adc_periph)
  49:C:/Users/49542/Desktop/GD32F30x_Demo_Suites_V2.0.0/GD32F30x_Demo_Suites_V2.0.0/GD32F30x_Firmware_Library/GD32F30x_standard_peripheral/Source\gd32f30x_adc.c **** {
  28              		.loc 1 49 0
  29              		.cfi_startproc
  30              		@ args = 0, pretend = 0, frame = 8
  31              		@ frame_needed = 1, uses_anonymous_args = 0
  32 0000 80B5     		push	{r7, lr}
  33              	.LCFI0:
  34              		.cfi_def_cfa_offset 8
  35              		.cfi_offset 7, -8
  36              		.cfi_offset 14, -4
  37 0002 82B0     		sub	sp, sp, #8
  38              	.LCFI1:
  39              		.cfi_def_cfa_offset 16
  40 0004 00AF     		add	r7, sp, #0
  41              	.LCFI2:
  42              		.cfi_def_cfa_register 7
  43 0006 7860     		str	r0, [r7, #4]
  50:C:/Users/49542/Desktop/GD32F30x_Demo_Suites_V2.0.0/GD32F30x_Demo_Suites_V2.0.0/GD32F30x_Firmware_Library/GD32F30x_standard_peripheral/Source\gd32f30x_adc.c ****     switch(adc_periph){
  44              		.loc 1 50 0
  45 0008 7B68     		ldr	r3, [r7, #4]
  46 000a 144A     		ldr	r2, .L7
  47 000c 9342     		cmp	r3, r2
  48 000e 0FD0     		beq	.L3
  49 0010 134A     		ldr	r2, .L7+4
  50 0012 9342     		cmp	r3, r2
  51 0014 15D0     		beq	.L4
  52 0016 134A     		ldr	r2, .L7+8
  53 0018 9342     		cmp	r3, r2
  54 001a 00D0     		beq	.L5
  51:C:/Users/49542/Desktop/GD32F30x_Demo_Suites_V2.0.0/GD32F30x_Demo_Suites_V2.0.0/GD32F30x_Firmware_Library/GD32F30x_standard_peripheral/Source\gd32f30x_adc.c ****     case ADC0:
  52:C:/Users/49542/Desktop/GD32F30x_Demo_Suites_V2.0.0/GD32F30x_Demo_Suites_V2.0.0/GD32F30x_Firmware_Library/GD32F30x_standard_peripheral/Source\gd32f30x_adc.c ****         rcu_periph_reset_enable(RCU_ADC0RST);
  53:C:/Users/49542/Desktop/GD32F30x_Demo_Suites_V2.0.0/GD32F30x_Demo_Suites_V2.0.0/GD32F30x_Firmware_Library/GD32F30x_standard_peripheral/Source\gd32f30x_adc.c ****         rcu_periph_reset_disable(RCU_ADC0RST);
  54:C:/Users/49542/Desktop/GD32F30x_Demo_Suites_V2.0.0/GD32F30x_Demo_Suites_V2.0.0/GD32F30x_Firmware_Library/GD32F30x_standard_peripheral/Source\gd32f30x_adc.c ****         break;
  55:C:/Users/49542/Desktop/GD32F30x_Demo_Suites_V2.0.0/GD32F30x_Demo_Suites_V2.0.0/GD32F30x_Firmware_Library/GD32F30x_standard_peripheral/Source\gd32f30x_adc.c ****     case ADC1:
  56:C:/Users/49542/Desktop/GD32F30x_Demo_Suites_V2.0.0/GD32F30x_Demo_Suites_V2.0.0/GD32F30x_Firmware_Library/GD32F30x_standard_peripheral/Source\gd32f30x_adc.c ****         rcu_periph_reset_enable(RCU_ADC1RST);
  57:C:/Users/49542/Desktop/GD32F30x_Demo_Suites_V2.0.0/GD32F30x_Demo_Suites_V2.0.0/GD32F30x_Firmware_Library/GD32F30x_standard_peripheral/Source\gd32f30x_adc.c ****         rcu_periph_reset_disable(RCU_ADC1RST);
  58:C:/Users/49542/Desktop/GD32F30x_Demo_Suites_V2.0.0/GD32F30x_Demo_Suites_V2.0.0/GD32F30x_Firmware_Library/GD32F30x_standard_peripheral/Source\gd32f30x_adc.c ****         break;
  59:C:/Users/49542/Desktop/GD32F30x_Demo_Suites_V2.0.0/GD32F30x_Demo_Suites_V2.0.0/GD32F30x_Firmware_Library/GD32F30x_standard_peripheral/Source\gd32f30x_adc.c **** #if (defined(GD32F30X_HD) || defined(GD32F30X_XD))    
  60:C:/Users/49542/Desktop/GD32F30x_Demo_Suites_V2.0.0/GD32F30x_Demo_Suites_V2.0.0/GD32F30x_Firmware_Library/GD32F30x_standard_peripheral/Source\gd32f30x_adc.c ****     case ADC2:
  61:C:/Users/49542/Desktop/GD32F30x_Demo_Suites_V2.0.0/GD32F30x_Demo_Suites_V2.0.0/GD32F30x_Firmware_Library/GD32F30x_standard_peripheral/Source\gd32f30x_adc.c ****         rcu_periph_reset_enable(RCU_ADC2RST);
ARM GAS  C:\Users\49542\AppData\Local\Temp\cctN87BC.s 			page 3


  62:C:/Users/49542/Desktop/GD32F30x_Demo_Suites_V2.0.0/GD32F30x_Demo_Suites_V2.0.0/GD32F30x_Firmware_Library/GD32F30x_standard_peripheral/Source\gd32f30x_adc.c ****         rcu_periph_reset_disable(RCU_ADC2RST);
  63:C:/Users/49542/Desktop/GD32F30x_Demo_Suites_V2.0.0/GD32F30x_Demo_Suites_V2.0.0/GD32F30x_Firmware_Library/GD32F30x_standard_peripheral/Source\gd32f30x_adc.c ****         break;
  64:C:/Users/49542/Desktop/GD32F30x_Demo_Suites_V2.0.0/GD32F30x_Demo_Suites_V2.0.0/GD32F30x_Firmware_Library/GD32F30x_standard_peripheral/Source\gd32f30x_adc.c **** #endif    
  65:C:/Users/49542/Desktop/GD32F30x_Demo_Suites_V2.0.0/GD32F30x_Demo_Suites_V2.0.0/GD32F30x_Firmware_Library/GD32F30x_standard_peripheral/Source\gd32f30x_adc.c ****     default:
  66:C:/Users/49542/Desktop/GD32F30x_Demo_Suites_V2.0.0/GD32F30x_Demo_Suites_V2.0.0/GD32F30x_Firmware_Library/GD32F30x_standard_peripheral/Source\gd32f30x_adc.c ****         break;      
  55              		.loc 1 66 0
  56 001c 1AE0     		b	.L6
  57              	.L5:
  52:C:/Users/49542/Desktop/GD32F30x_Demo_Suites_V2.0.0/GD32F30x_Demo_Suites_V2.0.0/GD32F30x_Firmware_Library/GD32F30x_standard_peripheral/Source\gd32f30x_adc.c ****         rcu_periph_reset_disable(RCU_ADC0RST);
  58              		.loc 1 52 0
  59 001e 40F20930 		movw	r0, #777
  60 0022 FFF7FEFF 		bl	rcu_periph_reset_enable
  53:C:/Users/49542/Desktop/GD32F30x_Demo_Suites_V2.0.0/GD32F30x_Demo_Suites_V2.0.0/GD32F30x_Firmware_Library/GD32F30x_standard_peripheral/Source\gd32f30x_adc.c ****         break;
  61              		.loc 1 53 0
  62 0026 40F20930 		movw	r0, #777
  63 002a FFF7FEFF 		bl	rcu_periph_reset_disable
  54:C:/Users/49542/Desktop/GD32F30x_Demo_Suites_V2.0.0/GD32F30x_Demo_Suites_V2.0.0/GD32F30x_Firmware_Library/GD32F30x_standard_peripheral/Source\gd32f30x_adc.c ****     case ADC1:
  64              		.loc 1 54 0
  65 002e 11E0     		b	.L6
  66              	.L3:
  56:C:/Users/49542/Desktop/GD32F30x_Demo_Suites_V2.0.0/GD32F30x_Demo_Suites_V2.0.0/GD32F30x_Firmware_Library/GD32F30x_standard_peripheral/Source\gd32f30x_adc.c ****         rcu_periph_reset_disable(RCU_ADC1RST);
  67              		.loc 1 56 0
  68 0030 40F20A30 		movw	r0, #778
  69 0034 FFF7FEFF 		bl	rcu_periph_reset_enable
  57:C:/Users/49542/Desktop/GD32F30x_Demo_Suites_V2.0.0/GD32F30x_Demo_Suites_V2.0.0/GD32F30x_Firmware_Library/GD32F30x_standard_peripheral/Source\gd32f30x_adc.c ****         break;
  70              		.loc 1 57 0
  71 0038 40F20A30 		movw	r0, #778
  72 003c FFF7FEFF 		bl	rcu_periph_reset_disable
  58:C:/Users/49542/Desktop/GD32F30x_Demo_Suites_V2.0.0/GD32F30x_Demo_Suites_V2.0.0/GD32F30x_Firmware_Library/GD32F30x_standard_peripheral/Source\gd32f30x_adc.c **** #if (defined(GD32F30X_HD) || defined(GD32F30X_XD))    
  73              		.loc 1 58 0
  74 0040 08E0     		b	.L6
  75              	.L4:
  61:C:/Users/49542/Desktop/GD32F30x_Demo_Suites_V2.0.0/GD32F30x_Demo_Suites_V2.0.0/GD32F30x_Firmware_Library/GD32F30x_standard_peripheral/Source\gd32f30x_adc.c ****         rcu_periph_reset_disable(RCU_ADC2RST);
  76              		.loc 1 61 0
  77 0042 40F20F30 		movw	r0, #783
  78 0046 FFF7FEFF 		bl	rcu_periph_reset_enable
  62:C:/Users/49542/Desktop/GD32F30x_Demo_Suites_V2.0.0/GD32F30x_Demo_Suites_V2.0.0/GD32F30x_Firmware_Library/GD32F30x_standard_peripheral/Source\gd32f30x_adc.c ****         break;
  79              		.loc 1 62 0
  80 004a 40F20F30 		movw	r0, #783
  81 004e FFF7FEFF 		bl	rcu_periph_reset_disable
  63:C:/Users/49542/Desktop/GD32F30x_Demo_Suites_V2.0.0/GD32F30x_Demo_Suites_V2.0.0/GD32F30x_Firmware_Library/GD32F30x_standard_peripheral/Source\gd32f30x_adc.c **** #endif    
  82              		.loc 1 63 0
  83 0052 00BF     		nop
  84              	.L6:
  67:C:/Users/49542/Desktop/GD32F30x_Demo_Suites_V2.0.0/GD32F30x_Demo_Suites_V2.0.0/GD32F30x_Firmware_Library/GD32F30x_standard_peripheral/Source\gd32f30x_adc.c ****     }
  68:C:/Users/49542/Desktop/GD32F30x_Demo_Suites_V2.0.0/GD32F30x_Demo_Suites_V2.0.0/GD32F30x_Firmware_Library/GD32F30x_standard_peripheral/Source\gd32f30x_adc.c **** }
  85              		.loc 1 68 0
  86 0054 00BF     		nop
  87 0056 0837     		adds	r7, r7, #8
  88              	.LCFI3:
  89              		.cfi_def_cfa_offset 8
  90 0058 BD46     		mov	sp, r7
  91              	.LCFI4:
  92              		.cfi_def_cfa_register 13
  93              		@ sp needed
  94 005a 80BD     		pop	{r7, pc}
  95              	.L8:
ARM GAS  C:\Users\49542\AppData\Local\Temp\cctN87BC.s 			page 4


  96              		.align	2
  97              	.L7:
  98 005c 00280140 		.word	1073817600
  99 0060 003C0140 		.word	1073822720
 100 0064 00240140 		.word	1073816576
 101              		.cfi_endproc
 102              	.LFE116:
 104              		.section	.text.adc_enable,"ax",%progbits
 105              		.align	1
 106              		.global	adc_enable
 107              		.syntax unified
 108              		.thumb
 109              		.thumb_func
 110              		.fpu fpv4-sp-d16
 112              	adc_enable:
 113              	.LFB117:
  69:C:/Users/49542/Desktop/GD32F30x_Demo_Suites_V2.0.0/GD32F30x_Demo_Suites_V2.0.0/GD32F30x_Firmware_Library/GD32F30x_standard_peripheral/Source\gd32f30x_adc.c **** 
  70:C:/Users/49542/Desktop/GD32F30x_Demo_Suites_V2.0.0/GD32F30x_Demo_Suites_V2.0.0/GD32F30x_Firmware_Library/GD32F30x_standard_peripheral/Source\gd32f30x_adc.c **** /*!
  71:C:/Users/49542/Desktop/GD32F30x_Demo_Suites_V2.0.0/GD32F30x_Demo_Suites_V2.0.0/GD32F30x_Firmware_Library/GD32F30x_standard_peripheral/Source\gd32f30x_adc.c ****     \brief      enable ADC interface
  72:C:/Users/49542/Desktop/GD32F30x_Demo_Suites_V2.0.0/GD32F30x_Demo_Suites_V2.0.0/GD32F30x_Firmware_Library/GD32F30x_standard_peripheral/Source\gd32f30x_adc.c ****     \param[in]  adc_periph: ADCx,x=0,1,2
  73:C:/Users/49542/Desktop/GD32F30x_Demo_Suites_V2.0.0/GD32F30x_Demo_Suites_V2.0.0/GD32F30x_Firmware_Library/GD32F30x_standard_peripheral/Source\gd32f30x_adc.c ****                 only one among these parameters can be selected
  74:C:/Users/49542/Desktop/GD32F30x_Demo_Suites_V2.0.0/GD32F30x_Demo_Suites_V2.0.0/GD32F30x_Firmware_Library/GD32F30x_standard_peripheral/Source\gd32f30x_adc.c ****     \param[out] none
  75:C:/Users/49542/Desktop/GD32F30x_Demo_Suites_V2.0.0/GD32F30x_Demo_Suites_V2.0.0/GD32F30x_Firmware_Library/GD32F30x_standard_peripheral/Source\gd32f30x_adc.c ****     \retval     none
  76:C:/Users/49542/Desktop/GD32F30x_Demo_Suites_V2.0.0/GD32F30x_Demo_Suites_V2.0.0/GD32F30x_Firmware_Library/GD32F30x_standard_peripheral/Source\gd32f30x_adc.c **** */
  77:C:/Users/49542/Desktop/GD32F30x_Demo_Suites_V2.0.0/GD32F30x_Demo_Suites_V2.0.0/GD32F30x_Firmware_Library/GD32F30x_standard_peripheral/Source\gd32f30x_adc.c **** void adc_enable(uint32_t adc_periph)
  78:C:/Users/49542/Desktop/GD32F30x_Demo_Suites_V2.0.0/GD32F30x_Demo_Suites_V2.0.0/GD32F30x_Firmware_Library/GD32F30x_standard_peripheral/Source\gd32f30x_adc.c **** {
 114              		.loc 1 78 0
 115              		.cfi_startproc
 116              		@ args = 0, pretend = 0, frame = 8
 117              		@ frame_needed = 1, uses_anonymous_args = 0
 118              		@ link register save eliminated.
 119 0000 80B4     		push	{r7}
 120              	.LCFI5:
 121              		.cfi_def_cfa_offset 4
 122              		.cfi_offset 7, -4
 123 0002 83B0     		sub	sp, sp, #12
 124              	.LCFI6:
 125              		.cfi_def_cfa_offset 16
 126 0004 00AF     		add	r7, sp, #0
 127              	.LCFI7:
 128              		.cfi_def_cfa_register 7
 129 0006 7860     		str	r0, [r7, #4]
  79:C:/Users/49542/Desktop/GD32F30x_Demo_Suites_V2.0.0/GD32F30x_Demo_Suites_V2.0.0/GD32F30x_Firmware_Library/GD32F30x_standard_peripheral/Source\gd32f30x_adc.c ****     if(RESET == (ADC_CTL1(adc_periph) & ADC_CTL1_ADCON)){
 130              		.loc 1 79 0
 131 0008 7B68     		ldr	r3, [r7, #4]
 132 000a 0833     		adds	r3, r3, #8
 133 000c 1B68     		ldr	r3, [r3]
 134 000e 03F00103 		and	r3, r3, #1
 135 0012 002B     		cmp	r3, #0
 136 0014 07D1     		bne	.L11
  80:C:/Users/49542/Desktop/GD32F30x_Demo_Suites_V2.0.0/GD32F30x_Demo_Suites_V2.0.0/GD32F30x_Firmware_Library/GD32F30x_standard_peripheral/Source\gd32f30x_adc.c ****         ADC_CTL1(adc_periph) |= (uint32_t)ADC_CTL1_ADCON;
 137              		.loc 1 80 0
 138 0016 7B68     		ldr	r3, [r7, #4]
 139 0018 0833     		adds	r3, r3, #8
 140 001a 1B68     		ldr	r3, [r3]
 141 001c 7A68     		ldr	r2, [r7, #4]
 142 001e 0832     		adds	r2, r2, #8
ARM GAS  C:\Users\49542\AppData\Local\Temp\cctN87BC.s 			page 5


 143 0020 43F00103 		orr	r3, r3, #1
 144 0024 1360     		str	r3, [r2]
 145              	.L11:
  81:C:/Users/49542/Desktop/GD32F30x_Demo_Suites_V2.0.0/GD32F30x_Demo_Suites_V2.0.0/GD32F30x_Firmware_Library/GD32F30x_standard_peripheral/Source\gd32f30x_adc.c ****     }       
  82:C:/Users/49542/Desktop/GD32F30x_Demo_Suites_V2.0.0/GD32F30x_Demo_Suites_V2.0.0/GD32F30x_Firmware_Library/GD32F30x_standard_peripheral/Source\gd32f30x_adc.c **** }
 146              		.loc 1 82 0
 147 0026 00BF     		nop
 148 0028 0C37     		adds	r7, r7, #12
 149              	.LCFI8:
 150              		.cfi_def_cfa_offset 4
 151 002a BD46     		mov	sp, r7
 152              	.LCFI9:
 153              		.cfi_def_cfa_register 13
 154              		@ sp needed
 155 002c 5DF8047B 		ldr	r7, [sp], #4
 156              	.LCFI10:
 157              		.cfi_restore 7
 158              		.cfi_def_cfa_offset 0
 159 0030 7047     		bx	lr
 160              		.cfi_endproc
 161              	.LFE117:
 163              		.section	.text.adc_disable,"ax",%progbits
 164              		.align	1
 165              		.global	adc_disable
 166              		.syntax unified
 167              		.thumb
 168              		.thumb_func
 169              		.fpu fpv4-sp-d16
 171              	adc_disable:
 172              	.LFB118:
  83:C:/Users/49542/Desktop/GD32F30x_Demo_Suites_V2.0.0/GD32F30x_Demo_Suites_V2.0.0/GD32F30x_Firmware_Library/GD32F30x_standard_peripheral/Source\gd32f30x_adc.c **** 
  84:C:/Users/49542/Desktop/GD32F30x_Demo_Suites_V2.0.0/GD32F30x_Demo_Suites_V2.0.0/GD32F30x_Firmware_Library/GD32F30x_standard_peripheral/Source\gd32f30x_adc.c **** /*!
  85:C:/Users/49542/Desktop/GD32F30x_Demo_Suites_V2.0.0/GD32F30x_Demo_Suites_V2.0.0/GD32F30x_Firmware_Library/GD32F30x_standard_peripheral/Source\gd32f30x_adc.c ****     \brief      disable ADC interface
  86:C:/Users/49542/Desktop/GD32F30x_Demo_Suites_V2.0.0/GD32F30x_Demo_Suites_V2.0.0/GD32F30x_Firmware_Library/GD32F30x_standard_peripheral/Source\gd32f30x_adc.c ****     \param[in]  adc_periph: ADCx,x=0,1,2
  87:C:/Users/49542/Desktop/GD32F30x_Demo_Suites_V2.0.0/GD32F30x_Demo_Suites_V2.0.0/GD32F30x_Firmware_Library/GD32F30x_standard_peripheral/Source\gd32f30x_adc.c ****                 only one among these parameters can be selected
  88:C:/Users/49542/Desktop/GD32F30x_Demo_Suites_V2.0.0/GD32F30x_Demo_Suites_V2.0.0/GD32F30x_Firmware_Library/GD32F30x_standard_peripheral/Source\gd32f30x_adc.c ****     \param[out] none
  89:C:/Users/49542/Desktop/GD32F30x_Demo_Suites_V2.0.0/GD32F30x_Demo_Suites_V2.0.0/GD32F30x_Firmware_Library/GD32F30x_standard_peripheral/Source\gd32f30x_adc.c ****     \retval     none
  90:C:/Users/49542/Desktop/GD32F30x_Demo_Suites_V2.0.0/GD32F30x_Demo_Suites_V2.0.0/GD32F30x_Firmware_Library/GD32F30x_standard_peripheral/Source\gd32f30x_adc.c **** */
  91:C:/Users/49542/Desktop/GD32F30x_Demo_Suites_V2.0.0/GD32F30x_Demo_Suites_V2.0.0/GD32F30x_Firmware_Library/GD32F30x_standard_peripheral/Source\gd32f30x_adc.c **** void adc_disable(uint32_t adc_periph)
  92:C:/Users/49542/Desktop/GD32F30x_Demo_Suites_V2.0.0/GD32F30x_Demo_Suites_V2.0.0/GD32F30x_Firmware_Library/GD32F30x_standard_peripheral/Source\gd32f30x_adc.c **** {
 173              		.loc 1 92 0
 174              		.cfi_startproc
 175              		@ args = 0, pretend = 0, frame = 8
 176              		@ frame_needed = 1, uses_anonymous_args = 0
 177              		@ link register save eliminated.
 178 0000 80B4     		push	{r7}
 179              	.LCFI11:
 180              		.cfi_def_cfa_offset 4
 181              		.cfi_offset 7, -4
 182 0002 83B0     		sub	sp, sp, #12
 183              	.LCFI12:
 184              		.cfi_def_cfa_offset 16
 185 0004 00AF     		add	r7, sp, #0
 186              	.LCFI13:
 187              		.cfi_def_cfa_register 7
 188 0006 7860     		str	r0, [r7, #4]
  93:C:/Users/49542/Desktop/GD32F30x_Demo_Suites_V2.0.0/GD32F30x_Demo_Suites_V2.0.0/GD32F30x_Firmware_Library/GD32F30x_standard_peripheral/Source\gd32f30x_adc.c ****     ADC_CTL1(adc_periph) &= ~((uint32_t)ADC_CTL1_ADCON);
ARM GAS  C:\Users\49542\AppData\Local\Temp\cctN87BC.s 			page 6


 189              		.loc 1 93 0
 190 0008 7B68     		ldr	r3, [r7, #4]
 191 000a 0833     		adds	r3, r3, #8
 192 000c 1B68     		ldr	r3, [r3]
 193 000e 7A68     		ldr	r2, [r7, #4]
 194 0010 0832     		adds	r2, r2, #8
 195 0012 23F00103 		bic	r3, r3, #1
 196 0016 1360     		str	r3, [r2]
  94:C:/Users/49542/Desktop/GD32F30x_Demo_Suites_V2.0.0/GD32F30x_Demo_Suites_V2.0.0/GD32F30x_Firmware_Library/GD32F30x_standard_peripheral/Source\gd32f30x_adc.c **** }
 197              		.loc 1 94 0
 198 0018 00BF     		nop
 199 001a 0C37     		adds	r7, r7, #12
 200              	.LCFI14:
 201              		.cfi_def_cfa_offset 4
 202 001c BD46     		mov	sp, r7
 203              	.LCFI15:
 204              		.cfi_def_cfa_register 13
 205              		@ sp needed
 206 001e 5DF8047B 		ldr	r7, [sp], #4
 207              	.LCFI16:
 208              		.cfi_restore 7
 209              		.cfi_def_cfa_offset 0
 210 0022 7047     		bx	lr
 211              		.cfi_endproc
 212              	.LFE118:
 214              		.section	.text.adc_calibration_enable,"ax",%progbits
 215              		.align	1
 216              		.global	adc_calibration_enable
 217              		.syntax unified
 218              		.thumb
 219              		.thumb_func
 220              		.fpu fpv4-sp-d16
 222              	adc_calibration_enable:
 223              	.LFB119:
  95:C:/Users/49542/Desktop/GD32F30x_Demo_Suites_V2.0.0/GD32F30x_Demo_Suites_V2.0.0/GD32F30x_Firmware_Library/GD32F30x_standard_peripheral/Source\gd32f30x_adc.c **** 
  96:C:/Users/49542/Desktop/GD32F30x_Demo_Suites_V2.0.0/GD32F30x_Demo_Suites_V2.0.0/GD32F30x_Firmware_Library/GD32F30x_standard_peripheral/Source\gd32f30x_adc.c **** /*!
  97:C:/Users/49542/Desktop/GD32F30x_Demo_Suites_V2.0.0/GD32F30x_Demo_Suites_V2.0.0/GD32F30x_Firmware_Library/GD32F30x_standard_peripheral/Source\gd32f30x_adc.c ****     \brief      ADC calibration and reset calibration
  98:C:/Users/49542/Desktop/GD32F30x_Demo_Suites_V2.0.0/GD32F30x_Demo_Suites_V2.0.0/GD32F30x_Firmware_Library/GD32F30x_standard_peripheral/Source\gd32f30x_adc.c ****     \param[in]  adc_periph: ADCx,x=0,1,2
  99:C:/Users/49542/Desktop/GD32F30x_Demo_Suites_V2.0.0/GD32F30x_Demo_Suites_V2.0.0/GD32F30x_Firmware_Library/GD32F30x_standard_peripheral/Source\gd32f30x_adc.c ****                 only one among these parameters can be selected
 100:C:/Users/49542/Desktop/GD32F30x_Demo_Suites_V2.0.0/GD32F30x_Demo_Suites_V2.0.0/GD32F30x_Firmware_Library/GD32F30x_standard_peripheral/Source\gd32f30x_adc.c ****     \param[out] none
 101:C:/Users/49542/Desktop/GD32F30x_Demo_Suites_V2.0.0/GD32F30x_Demo_Suites_V2.0.0/GD32F30x_Firmware_Library/GD32F30x_standard_peripheral/Source\gd32f30x_adc.c ****     \retval     none
 102:C:/Users/49542/Desktop/GD32F30x_Demo_Suites_V2.0.0/GD32F30x_Demo_Suites_V2.0.0/GD32F30x_Firmware_Library/GD32F30x_standard_peripheral/Source\gd32f30x_adc.c **** */
 103:C:/Users/49542/Desktop/GD32F30x_Demo_Suites_V2.0.0/GD32F30x_Demo_Suites_V2.0.0/GD32F30x_Firmware_Library/GD32F30x_standard_peripheral/Source\gd32f30x_adc.c **** void adc_calibration_enable(uint32_t adc_periph)
 104:C:/Users/49542/Desktop/GD32F30x_Demo_Suites_V2.0.0/GD32F30x_Demo_Suites_V2.0.0/GD32F30x_Firmware_Library/GD32F30x_standard_peripheral/Source\gd32f30x_adc.c **** {
 224              		.loc 1 104 0
 225              		.cfi_startproc
 226              		@ args = 0, pretend = 0, frame = 8
 227              		@ frame_needed = 1, uses_anonymous_args = 0
 228              		@ link register save eliminated.
 229 0000 80B4     		push	{r7}
 230              	.LCFI17:
 231              		.cfi_def_cfa_offset 4
 232              		.cfi_offset 7, -4
 233 0002 83B0     		sub	sp, sp, #12
 234              	.LCFI18:
 235              		.cfi_def_cfa_offset 16
 236 0004 00AF     		add	r7, sp, #0
ARM GAS  C:\Users\49542\AppData\Local\Temp\cctN87BC.s 			page 7


 237              	.LCFI19:
 238              		.cfi_def_cfa_register 7
 239 0006 7860     		str	r0, [r7, #4]
 105:C:/Users/49542/Desktop/GD32F30x_Demo_Suites_V2.0.0/GD32F30x_Demo_Suites_V2.0.0/GD32F30x_Firmware_Library/GD32F30x_standard_peripheral/Source\gd32f30x_adc.c ****     /* reset the selected ADC calibration registers */
 106:C:/Users/49542/Desktop/GD32F30x_Demo_Suites_V2.0.0/GD32F30x_Demo_Suites_V2.0.0/GD32F30x_Firmware_Library/GD32F30x_standard_peripheral/Source\gd32f30x_adc.c ****     ADC_CTL1(adc_periph) |= (uint32_t) ADC_CTL1_RSTCLB;
 240              		.loc 1 106 0
 241 0008 7B68     		ldr	r3, [r7, #4]
 242 000a 0833     		adds	r3, r3, #8
 243 000c 1B68     		ldr	r3, [r3]
 244 000e 7A68     		ldr	r2, [r7, #4]
 245 0010 0832     		adds	r2, r2, #8
 246 0012 43F00803 		orr	r3, r3, #8
 247 0016 1360     		str	r3, [r2]
 107:C:/Users/49542/Desktop/GD32F30x_Demo_Suites_V2.0.0/GD32F30x_Demo_Suites_V2.0.0/GD32F30x_Firmware_Library/GD32F30x_standard_peripheral/Source\gd32f30x_adc.c ****     /* check the RSTCLB bit state */
 108:C:/Users/49542/Desktop/GD32F30x_Demo_Suites_V2.0.0/GD32F30x_Demo_Suites_V2.0.0/GD32F30x_Firmware_Library/GD32F30x_standard_peripheral/Source\gd32f30x_adc.c ****     while((ADC_CTL1(adc_periph) & ADC_CTL1_RSTCLB)){
 248              		.loc 1 108 0
 249 0018 00BF     		nop
 250              	.L14:
 251              		.loc 1 108 0 is_stmt 0 discriminator 1
 252 001a 7B68     		ldr	r3, [r7, #4]
 253 001c 0833     		adds	r3, r3, #8
 254 001e 1B68     		ldr	r3, [r3]
 255 0020 03F00803 		and	r3, r3, #8
 256 0024 002B     		cmp	r3, #0
 257 0026 F8D1     		bne	.L14
 109:C:/Users/49542/Desktop/GD32F30x_Demo_Suites_V2.0.0/GD32F30x_Demo_Suites_V2.0.0/GD32F30x_Firmware_Library/GD32F30x_standard_peripheral/Source\gd32f30x_adc.c ****     }
 110:C:/Users/49542/Desktop/GD32F30x_Demo_Suites_V2.0.0/GD32F30x_Demo_Suites_V2.0.0/GD32F30x_Firmware_Library/GD32F30x_standard_peripheral/Source\gd32f30x_adc.c ****     /* enable ADC calibration process */
 111:C:/Users/49542/Desktop/GD32F30x_Demo_Suites_V2.0.0/GD32F30x_Demo_Suites_V2.0.0/GD32F30x_Firmware_Library/GD32F30x_standard_peripheral/Source\gd32f30x_adc.c ****     ADC_CTL1(adc_periph) |= ADC_CTL1_CLB;
 258              		.loc 1 111 0 is_stmt 1
 259 0028 7B68     		ldr	r3, [r7, #4]
 260 002a 0833     		adds	r3, r3, #8
 261 002c 1B68     		ldr	r3, [r3]
 262 002e 7A68     		ldr	r2, [r7, #4]
 263 0030 0832     		adds	r2, r2, #8
 264 0032 43F00403 		orr	r3, r3, #4
 265 0036 1360     		str	r3, [r2]
 112:C:/Users/49542/Desktop/GD32F30x_Demo_Suites_V2.0.0/GD32F30x_Demo_Suites_V2.0.0/GD32F30x_Firmware_Library/GD32F30x_standard_peripheral/Source\gd32f30x_adc.c ****     /* check the CLB bit state */
 113:C:/Users/49542/Desktop/GD32F30x_Demo_Suites_V2.0.0/GD32F30x_Demo_Suites_V2.0.0/GD32F30x_Firmware_Library/GD32F30x_standard_peripheral/Source\gd32f30x_adc.c ****     while((ADC_CTL1(adc_periph) & ADC_CTL1_CLB)){
 266              		.loc 1 113 0
 267 0038 00BF     		nop
 268              	.L15:
 269              		.loc 1 113 0 is_stmt 0 discriminator 1
 270 003a 7B68     		ldr	r3, [r7, #4]
 271 003c 0833     		adds	r3, r3, #8
 272 003e 1B68     		ldr	r3, [r3]
 273 0040 03F00403 		and	r3, r3, #4
 274 0044 002B     		cmp	r3, #0
 275 0046 F8D1     		bne	.L15
 114:C:/Users/49542/Desktop/GD32F30x_Demo_Suites_V2.0.0/GD32F30x_Demo_Suites_V2.0.0/GD32F30x_Firmware_Library/GD32F30x_standard_peripheral/Source\gd32f30x_adc.c ****     }
 115:C:/Users/49542/Desktop/GD32F30x_Demo_Suites_V2.0.0/GD32F30x_Demo_Suites_V2.0.0/GD32F30x_Firmware_Library/GD32F30x_standard_peripheral/Source\gd32f30x_adc.c **** }
 276              		.loc 1 115 0 is_stmt 1
 277 0048 00BF     		nop
 278 004a 0C37     		adds	r7, r7, #12
 279              	.LCFI20:
 280              		.cfi_def_cfa_offset 4
 281 004c BD46     		mov	sp, r7
 282              	.LCFI21:
ARM GAS  C:\Users\49542\AppData\Local\Temp\cctN87BC.s 			page 8


 283              		.cfi_def_cfa_register 13
 284              		@ sp needed
 285 004e 5DF8047B 		ldr	r7, [sp], #4
 286              	.LCFI22:
 287              		.cfi_restore 7
 288              		.cfi_def_cfa_offset 0
 289 0052 7047     		bx	lr
 290              		.cfi_endproc
 291              	.LFE119:
 293              		.section	.text.adc_dma_mode_enable,"ax",%progbits
 294              		.align	1
 295              		.global	adc_dma_mode_enable
 296              		.syntax unified
 297              		.thumb
 298              		.thumb_func
 299              		.fpu fpv4-sp-d16
 301              	adc_dma_mode_enable:
 302              	.LFB120:
 116:C:/Users/49542/Desktop/GD32F30x_Demo_Suites_V2.0.0/GD32F30x_Demo_Suites_V2.0.0/GD32F30x_Firmware_Library/GD32F30x_standard_peripheral/Source\gd32f30x_adc.c **** 
 117:C:/Users/49542/Desktop/GD32F30x_Demo_Suites_V2.0.0/GD32F30x_Demo_Suites_V2.0.0/GD32F30x_Firmware_Library/GD32F30x_standard_peripheral/Source\gd32f30x_adc.c **** /*!
 118:C:/Users/49542/Desktop/GD32F30x_Demo_Suites_V2.0.0/GD32F30x_Demo_Suites_V2.0.0/GD32F30x_Firmware_Library/GD32F30x_standard_peripheral/Source\gd32f30x_adc.c ****     \brief      enable DMA request 
 119:C:/Users/49542/Desktop/GD32F30x_Demo_Suites_V2.0.0/GD32F30x_Demo_Suites_V2.0.0/GD32F30x_Firmware_Library/GD32F30x_standard_peripheral/Source\gd32f30x_adc.c ****     \param[in]  adc_periph: ADCx,x=0,1,2
 120:C:/Users/49542/Desktop/GD32F30x_Demo_Suites_V2.0.0/GD32F30x_Demo_Suites_V2.0.0/GD32F30x_Firmware_Library/GD32F30x_standard_peripheral/Source\gd32f30x_adc.c ****                 only one among these parameters can be selected
 121:C:/Users/49542/Desktop/GD32F30x_Demo_Suites_V2.0.0/GD32F30x_Demo_Suites_V2.0.0/GD32F30x_Firmware_Library/GD32F30x_standard_peripheral/Source\gd32f30x_adc.c ****     \param[out] none
 122:C:/Users/49542/Desktop/GD32F30x_Demo_Suites_V2.0.0/GD32F30x_Demo_Suites_V2.0.0/GD32F30x_Firmware_Library/GD32F30x_standard_peripheral/Source\gd32f30x_adc.c ****     \retval     none
 123:C:/Users/49542/Desktop/GD32F30x_Demo_Suites_V2.0.0/GD32F30x_Demo_Suites_V2.0.0/GD32F30x_Firmware_Library/GD32F30x_standard_peripheral/Source\gd32f30x_adc.c **** */
 124:C:/Users/49542/Desktop/GD32F30x_Demo_Suites_V2.0.0/GD32F30x_Demo_Suites_V2.0.0/GD32F30x_Firmware_Library/GD32F30x_standard_peripheral/Source\gd32f30x_adc.c **** void adc_dma_mode_enable(uint32_t adc_periph)
 125:C:/Users/49542/Desktop/GD32F30x_Demo_Suites_V2.0.0/GD32F30x_Demo_Suites_V2.0.0/GD32F30x_Firmware_Library/GD32F30x_standard_peripheral/Source\gd32f30x_adc.c **** {
 303              		.loc 1 125 0
 304              		.cfi_startproc
 305              		@ args = 0, pretend = 0, frame = 8
 306              		@ frame_needed = 1, uses_anonymous_args = 0
 307              		@ link register save eliminated.
 308 0000 80B4     		push	{r7}
 309              	.LCFI23:
 310              		.cfi_def_cfa_offset 4
 311              		.cfi_offset 7, -4
 312 0002 83B0     		sub	sp, sp, #12
 313              	.LCFI24:
 314              		.cfi_def_cfa_offset 16
 315 0004 00AF     		add	r7, sp, #0
 316              	.LCFI25:
 317              		.cfi_def_cfa_register 7
 318 0006 7860     		str	r0, [r7, #4]
 126:C:/Users/49542/Desktop/GD32F30x_Demo_Suites_V2.0.0/GD32F30x_Demo_Suites_V2.0.0/GD32F30x_Firmware_Library/GD32F30x_standard_peripheral/Source\gd32f30x_adc.c ****     ADC_CTL1(adc_periph) |= (uint32_t)(ADC_CTL1_DMA);
 319              		.loc 1 126 0
 320 0008 7B68     		ldr	r3, [r7, #4]
 321 000a 0833     		adds	r3, r3, #8
 322 000c 1B68     		ldr	r3, [r3]
 323 000e 7A68     		ldr	r2, [r7, #4]
 324 0010 0832     		adds	r2, r2, #8
 325 0012 43F48073 		orr	r3, r3, #256
 326 0016 1360     		str	r3, [r2]
 127:C:/Users/49542/Desktop/GD32F30x_Demo_Suites_V2.0.0/GD32F30x_Demo_Suites_V2.0.0/GD32F30x_Firmware_Library/GD32F30x_standard_peripheral/Source\gd32f30x_adc.c **** }
 327              		.loc 1 127 0
 328 0018 00BF     		nop
 329 001a 0C37     		adds	r7, r7, #12
ARM GAS  C:\Users\49542\AppData\Local\Temp\cctN87BC.s 			page 9


 330              	.LCFI26:
 331              		.cfi_def_cfa_offset 4
 332 001c BD46     		mov	sp, r7
 333              	.LCFI27:
 334              		.cfi_def_cfa_register 13
 335              		@ sp needed
 336 001e 5DF8047B 		ldr	r7, [sp], #4
 337              	.LCFI28:
 338              		.cfi_restore 7
 339              		.cfi_def_cfa_offset 0
 340 0022 7047     		bx	lr
 341              		.cfi_endproc
 342              	.LFE120:
 344              		.section	.text.adc_dma_mode_disable,"ax",%progbits
 345              		.align	1
 346              		.global	adc_dma_mode_disable
 347              		.syntax unified
 348              		.thumb
 349              		.thumb_func
 350              		.fpu fpv4-sp-d16
 352              	adc_dma_mode_disable:
 353              	.LFB121:
 128:C:/Users/49542/Desktop/GD32F30x_Demo_Suites_V2.0.0/GD32F30x_Demo_Suites_V2.0.0/GD32F30x_Firmware_Library/GD32F30x_standard_peripheral/Source\gd32f30x_adc.c **** 
 129:C:/Users/49542/Desktop/GD32F30x_Demo_Suites_V2.0.0/GD32F30x_Demo_Suites_V2.0.0/GD32F30x_Firmware_Library/GD32F30x_standard_peripheral/Source\gd32f30x_adc.c **** /*!
 130:C:/Users/49542/Desktop/GD32F30x_Demo_Suites_V2.0.0/GD32F30x_Demo_Suites_V2.0.0/GD32F30x_Firmware_Library/GD32F30x_standard_peripheral/Source\gd32f30x_adc.c ****     \brief      disable DMA request 
 131:C:/Users/49542/Desktop/GD32F30x_Demo_Suites_V2.0.0/GD32F30x_Demo_Suites_V2.0.0/GD32F30x_Firmware_Library/GD32F30x_standard_peripheral/Source\gd32f30x_adc.c ****     \param[in]  adc_periph: ADCx,x=0,1,2
 132:C:/Users/49542/Desktop/GD32F30x_Demo_Suites_V2.0.0/GD32F30x_Demo_Suites_V2.0.0/GD32F30x_Firmware_Library/GD32F30x_standard_peripheral/Source\gd32f30x_adc.c ****                 only one among these parameters can be selected
 133:C:/Users/49542/Desktop/GD32F30x_Demo_Suites_V2.0.0/GD32F30x_Demo_Suites_V2.0.0/GD32F30x_Firmware_Library/GD32F30x_standard_peripheral/Source\gd32f30x_adc.c ****     \param[out] none
 134:C:/Users/49542/Desktop/GD32F30x_Demo_Suites_V2.0.0/GD32F30x_Demo_Suites_V2.0.0/GD32F30x_Firmware_Library/GD32F30x_standard_peripheral/Source\gd32f30x_adc.c ****     \retval     none
 135:C:/Users/49542/Desktop/GD32F30x_Demo_Suites_V2.0.0/GD32F30x_Demo_Suites_V2.0.0/GD32F30x_Firmware_Library/GD32F30x_standard_peripheral/Source\gd32f30x_adc.c **** */
 136:C:/Users/49542/Desktop/GD32F30x_Demo_Suites_V2.0.0/GD32F30x_Demo_Suites_V2.0.0/GD32F30x_Firmware_Library/GD32F30x_standard_peripheral/Source\gd32f30x_adc.c **** void adc_dma_mode_disable(uint32_t adc_periph)
 137:C:/Users/49542/Desktop/GD32F30x_Demo_Suites_V2.0.0/GD32F30x_Demo_Suites_V2.0.0/GD32F30x_Firmware_Library/GD32F30x_standard_peripheral/Source\gd32f30x_adc.c **** {
 354              		.loc 1 137 0
 355              		.cfi_startproc
 356              		@ args = 0, pretend = 0, frame = 8
 357              		@ frame_needed = 1, uses_anonymous_args = 0
 358              		@ link register save eliminated.
 359 0000 80B4     		push	{r7}
 360              	.LCFI29:
 361              		.cfi_def_cfa_offset 4
 362              		.cfi_offset 7, -4
 363 0002 83B0     		sub	sp, sp, #12
 364              	.LCFI30:
 365              		.cfi_def_cfa_offset 16
 366 0004 00AF     		add	r7, sp, #0
 367              	.LCFI31:
 368              		.cfi_def_cfa_register 7
 369 0006 7860     		str	r0, [r7, #4]
 138:C:/Users/49542/Desktop/GD32F30x_Demo_Suites_V2.0.0/GD32F30x_Demo_Suites_V2.0.0/GD32F30x_Firmware_Library/GD32F30x_standard_peripheral/Source\gd32f30x_adc.c ****     ADC_CTL1(adc_periph) &= ~((uint32_t)ADC_CTL1_DMA);
 370              		.loc 1 138 0
 371 0008 7B68     		ldr	r3, [r7, #4]
 372 000a 0833     		adds	r3, r3, #8
 373 000c 1B68     		ldr	r3, [r3]
 374 000e 7A68     		ldr	r2, [r7, #4]
 375 0010 0832     		adds	r2, r2, #8
 376 0012 23F48073 		bic	r3, r3, #256
 377 0016 1360     		str	r3, [r2]
ARM GAS  C:\Users\49542\AppData\Local\Temp\cctN87BC.s 			page 10


 139:C:/Users/49542/Desktop/GD32F30x_Demo_Suites_V2.0.0/GD32F30x_Demo_Suites_V2.0.0/GD32F30x_Firmware_Library/GD32F30x_standard_peripheral/Source\gd32f30x_adc.c **** }
 378              		.loc 1 139 0
 379 0018 00BF     		nop
 380 001a 0C37     		adds	r7, r7, #12
 381              	.LCFI32:
 382              		.cfi_def_cfa_offset 4
 383 001c BD46     		mov	sp, r7
 384              	.LCFI33:
 385              		.cfi_def_cfa_register 13
 386              		@ sp needed
 387 001e 5DF8047B 		ldr	r7, [sp], #4
 388              	.LCFI34:
 389              		.cfi_restore 7
 390              		.cfi_def_cfa_offset 0
 391 0022 7047     		bx	lr
 392              		.cfi_endproc
 393              	.LFE121:
 395              		.section	.text.adc_tempsensor_vrefint_enable,"ax",%progbits
 396              		.align	1
 397              		.global	adc_tempsensor_vrefint_enable
 398              		.syntax unified
 399              		.thumb
 400              		.thumb_func
 401              		.fpu fpv4-sp-d16
 403              	adc_tempsensor_vrefint_enable:
 404              	.LFB122:
 140:C:/Users/49542/Desktop/GD32F30x_Demo_Suites_V2.0.0/GD32F30x_Demo_Suites_V2.0.0/GD32F30x_Firmware_Library/GD32F30x_standard_peripheral/Source\gd32f30x_adc.c **** 
 141:C:/Users/49542/Desktop/GD32F30x_Demo_Suites_V2.0.0/GD32F30x_Demo_Suites_V2.0.0/GD32F30x_Firmware_Library/GD32F30x_standard_peripheral/Source\gd32f30x_adc.c **** /*!
 142:C:/Users/49542/Desktop/GD32F30x_Demo_Suites_V2.0.0/GD32F30x_Demo_Suites_V2.0.0/GD32F30x_Firmware_Library/GD32F30x_standard_peripheral/Source\gd32f30x_adc.c ****     \brief      enable the temperature sensor and Vrefint channel
 143:C:/Users/49542/Desktop/GD32F30x_Demo_Suites_V2.0.0/GD32F30x_Demo_Suites_V2.0.0/GD32F30x_Firmware_Library/GD32F30x_standard_peripheral/Source\gd32f30x_adc.c ****     \param[in]  none
 144:C:/Users/49542/Desktop/GD32F30x_Demo_Suites_V2.0.0/GD32F30x_Demo_Suites_V2.0.0/GD32F30x_Firmware_Library/GD32F30x_standard_peripheral/Source\gd32f30x_adc.c ****     \param[out] none
 145:C:/Users/49542/Desktop/GD32F30x_Demo_Suites_V2.0.0/GD32F30x_Demo_Suites_V2.0.0/GD32F30x_Firmware_Library/GD32F30x_standard_peripheral/Source\gd32f30x_adc.c ****     \retval     none
 146:C:/Users/49542/Desktop/GD32F30x_Demo_Suites_V2.0.0/GD32F30x_Demo_Suites_V2.0.0/GD32F30x_Firmware_Library/GD32F30x_standard_peripheral/Source\gd32f30x_adc.c **** */
 147:C:/Users/49542/Desktop/GD32F30x_Demo_Suites_V2.0.0/GD32F30x_Demo_Suites_V2.0.0/GD32F30x_Firmware_Library/GD32F30x_standard_peripheral/Source\gd32f30x_adc.c **** void adc_tempsensor_vrefint_enable(void)
 148:C:/Users/49542/Desktop/GD32F30x_Demo_Suites_V2.0.0/GD32F30x_Demo_Suites_V2.0.0/GD32F30x_Firmware_Library/GD32F30x_standard_peripheral/Source\gd32f30x_adc.c **** {
 405              		.loc 1 148 0
 406              		.cfi_startproc
 407              		@ args = 0, pretend = 0, frame = 0
 408              		@ frame_needed = 1, uses_anonymous_args = 0
 409              		@ link register save eliminated.
 410 0000 80B4     		push	{r7}
 411              	.LCFI35:
 412              		.cfi_def_cfa_offset 4
 413              		.cfi_offset 7, -4
 414 0002 00AF     		add	r7, sp, #0
 415              	.LCFI36:
 416              		.cfi_def_cfa_register 7
 149:C:/Users/49542/Desktop/GD32F30x_Demo_Suites_V2.0.0/GD32F30x_Demo_Suites_V2.0.0/GD32F30x_Firmware_Library/GD32F30x_standard_peripheral/Source\gd32f30x_adc.c ****     /* enable the temperature sensor and Vrefint channel */
 150:C:/Users/49542/Desktop/GD32F30x_Demo_Suites_V2.0.0/GD32F30x_Demo_Suites_V2.0.0/GD32F30x_Firmware_Library/GD32F30x_standard_peripheral/Source\gd32f30x_adc.c ****     ADC_CTL1(ADC0) |= ADC_CTL1_TSVREN;
 417              		.loc 1 150 0
 418 0004 054B     		ldr	r3, .L19
 419 0006 1B68     		ldr	r3, [r3]
 420 0008 044A     		ldr	r2, .L19
 421 000a 43F40003 		orr	r3, r3, #8388608
 422 000e 1360     		str	r3, [r2]
 151:C:/Users/49542/Desktop/GD32F30x_Demo_Suites_V2.0.0/GD32F30x_Demo_Suites_V2.0.0/GD32F30x_Firmware_Library/GD32F30x_standard_peripheral/Source\gd32f30x_adc.c **** }
 423              		.loc 1 151 0
ARM GAS  C:\Users\49542\AppData\Local\Temp\cctN87BC.s 			page 11


 424 0010 00BF     		nop
 425 0012 BD46     		mov	sp, r7
 426              	.LCFI37:
 427              		.cfi_def_cfa_register 13
 428              		@ sp needed
 429 0014 5DF8047B 		ldr	r7, [sp], #4
 430              	.LCFI38:
 431              		.cfi_restore 7
 432              		.cfi_def_cfa_offset 0
 433 0018 7047     		bx	lr
 434              	.L20:
 435 001a 00BF     		.align	2
 436              	.L19:
 437 001c 08240140 		.word	1073816584
 438              		.cfi_endproc
 439              	.LFE122:
 441              		.section	.text.adc_tempsensor_vrefint_disable,"ax",%progbits
 442              		.align	1
 443              		.global	adc_tempsensor_vrefint_disable
 444              		.syntax unified
 445              		.thumb
 446              		.thumb_func
 447              		.fpu fpv4-sp-d16
 449              	adc_tempsensor_vrefint_disable:
 450              	.LFB123:
 152:C:/Users/49542/Desktop/GD32F30x_Demo_Suites_V2.0.0/GD32F30x_Demo_Suites_V2.0.0/GD32F30x_Firmware_Library/GD32F30x_standard_peripheral/Source\gd32f30x_adc.c **** 
 153:C:/Users/49542/Desktop/GD32F30x_Demo_Suites_V2.0.0/GD32F30x_Demo_Suites_V2.0.0/GD32F30x_Firmware_Library/GD32F30x_standard_peripheral/Source\gd32f30x_adc.c **** /*!
 154:C:/Users/49542/Desktop/GD32F30x_Demo_Suites_V2.0.0/GD32F30x_Demo_Suites_V2.0.0/GD32F30x_Firmware_Library/GD32F30x_standard_peripheral/Source\gd32f30x_adc.c ****     \brief      disable the temperature sensor and Vrefint channel
 155:C:/Users/49542/Desktop/GD32F30x_Demo_Suites_V2.0.0/GD32F30x_Demo_Suites_V2.0.0/GD32F30x_Firmware_Library/GD32F30x_standard_peripheral/Source\gd32f30x_adc.c ****     \param[in]  none
 156:C:/Users/49542/Desktop/GD32F30x_Demo_Suites_V2.0.0/GD32F30x_Demo_Suites_V2.0.0/GD32F30x_Firmware_Library/GD32F30x_standard_peripheral/Source\gd32f30x_adc.c ****     \param[out] none
 157:C:/Users/49542/Desktop/GD32F30x_Demo_Suites_V2.0.0/GD32F30x_Demo_Suites_V2.0.0/GD32F30x_Firmware_Library/GD32F30x_standard_peripheral/Source\gd32f30x_adc.c ****     \retval     none
 158:C:/Users/49542/Desktop/GD32F30x_Demo_Suites_V2.0.0/GD32F30x_Demo_Suites_V2.0.0/GD32F30x_Firmware_Library/GD32F30x_standard_peripheral/Source\gd32f30x_adc.c **** */
 159:C:/Users/49542/Desktop/GD32F30x_Demo_Suites_V2.0.0/GD32F30x_Demo_Suites_V2.0.0/GD32F30x_Firmware_Library/GD32F30x_standard_peripheral/Source\gd32f30x_adc.c **** void adc_tempsensor_vrefint_disable(void)
 160:C:/Users/49542/Desktop/GD32F30x_Demo_Suites_V2.0.0/GD32F30x_Demo_Suites_V2.0.0/GD32F30x_Firmware_Library/GD32F30x_standard_peripheral/Source\gd32f30x_adc.c **** {
 451              		.loc 1 160 0
 452              		.cfi_startproc
 453              		@ args = 0, pretend = 0, frame = 0
 454              		@ frame_needed = 1, uses_anonymous_args = 0
 455              		@ link register save eliminated.
 456 0000 80B4     		push	{r7}
 457              	.LCFI39:
 458              		.cfi_def_cfa_offset 4
 459              		.cfi_offset 7, -4
 460 0002 00AF     		add	r7, sp, #0
 461              	.LCFI40:
 462              		.cfi_def_cfa_register 7
 161:C:/Users/49542/Desktop/GD32F30x_Demo_Suites_V2.0.0/GD32F30x_Demo_Suites_V2.0.0/GD32F30x_Firmware_Library/GD32F30x_standard_peripheral/Source\gd32f30x_adc.c ****     /* disable the temperature sensor and Vrefint channel */
 162:C:/Users/49542/Desktop/GD32F30x_Demo_Suites_V2.0.0/GD32F30x_Demo_Suites_V2.0.0/GD32F30x_Firmware_Library/GD32F30x_standard_peripheral/Source\gd32f30x_adc.c ****     ADC_CTL1(ADC0) &= ~ADC_CTL1_TSVREN;
 463              		.loc 1 162 0
 464 0004 054B     		ldr	r3, .L22
 465 0006 1B68     		ldr	r3, [r3]
 466 0008 044A     		ldr	r2, .L22
 467 000a 23F40003 		bic	r3, r3, #8388608
 468 000e 1360     		str	r3, [r2]
 163:C:/Users/49542/Desktop/GD32F30x_Demo_Suites_V2.0.0/GD32F30x_Demo_Suites_V2.0.0/GD32F30x_Firmware_Library/GD32F30x_standard_peripheral/Source\gd32f30x_adc.c **** }
 469              		.loc 1 163 0
 470 0010 00BF     		nop
ARM GAS  C:\Users\49542\AppData\Local\Temp\cctN87BC.s 			page 12


 471 0012 BD46     		mov	sp, r7
 472              	.LCFI41:
 473              		.cfi_def_cfa_register 13
 474              		@ sp needed
 475 0014 5DF8047B 		ldr	r7, [sp], #4
 476              	.LCFI42:
 477              		.cfi_restore 7
 478              		.cfi_def_cfa_offset 0
 479 0018 7047     		bx	lr
 480              	.L23:
 481 001a 00BF     		.align	2
 482              	.L22:
 483 001c 08240140 		.word	1073816584
 484              		.cfi_endproc
 485              	.LFE123:
 487              		.section	.text.adc_resolution_config,"ax",%progbits
 488              		.align	1
 489              		.global	adc_resolution_config
 490              		.syntax unified
 491              		.thumb
 492              		.thumb_func
 493              		.fpu fpv4-sp-d16
 495              	adc_resolution_config:
 496              	.LFB124:
 164:C:/Users/49542/Desktop/GD32F30x_Demo_Suites_V2.0.0/GD32F30x_Demo_Suites_V2.0.0/GD32F30x_Firmware_Library/GD32F30x_standard_peripheral/Source\gd32f30x_adc.c **** 
 165:C:/Users/49542/Desktop/GD32F30x_Demo_Suites_V2.0.0/GD32F30x_Demo_Suites_V2.0.0/GD32F30x_Firmware_Library/GD32F30x_standard_peripheral/Source\gd32f30x_adc.c **** /*!
 166:C:/Users/49542/Desktop/GD32F30x_Demo_Suites_V2.0.0/GD32F30x_Demo_Suites_V2.0.0/GD32F30x_Firmware_Library/GD32F30x_standard_peripheral/Source\gd32f30x_adc.c ****     \brief      configure ADC resolution 
 167:C:/Users/49542/Desktop/GD32F30x_Demo_Suites_V2.0.0/GD32F30x_Demo_Suites_V2.0.0/GD32F30x_Firmware_Library/GD32F30x_standard_peripheral/Source\gd32f30x_adc.c ****     \param[in]  adc_periph: ADCx,x=0,1,2
 168:C:/Users/49542/Desktop/GD32F30x_Demo_Suites_V2.0.0/GD32F30x_Demo_Suites_V2.0.0/GD32F30x_Firmware_Library/GD32F30x_standard_peripheral/Source\gd32f30x_adc.c ****                 only one among these parameters can be selected
 169:C:/Users/49542/Desktop/GD32F30x_Demo_Suites_V2.0.0/GD32F30x_Demo_Suites_V2.0.0/GD32F30x_Firmware_Library/GD32F30x_standard_peripheral/Source\gd32f30x_adc.c ****     \param[in]  resolution: ADC resolution
 170:C:/Users/49542/Desktop/GD32F30x_Demo_Suites_V2.0.0/GD32F30x_Demo_Suites_V2.0.0/GD32F30x_Firmware_Library/GD32F30x_standard_peripheral/Source\gd32f30x_adc.c ****                 only one among these parameters can be selected
 171:C:/Users/49542/Desktop/GD32F30x_Demo_Suites_V2.0.0/GD32F30x_Demo_Suites_V2.0.0/GD32F30x_Firmware_Library/GD32F30x_standard_peripheral/Source\gd32f30x_adc.c ****       \arg        ADC_RESOLUTION_12B: 12-bit ADC resolution
 172:C:/Users/49542/Desktop/GD32F30x_Demo_Suites_V2.0.0/GD32F30x_Demo_Suites_V2.0.0/GD32F30x_Firmware_Library/GD32F30x_standard_peripheral/Source\gd32f30x_adc.c ****       \arg        ADC_RESOLUTION_10B: 10-bit ADC resolution
 173:C:/Users/49542/Desktop/GD32F30x_Demo_Suites_V2.0.0/GD32F30x_Demo_Suites_V2.0.0/GD32F30x_Firmware_Library/GD32F30x_standard_peripheral/Source\gd32f30x_adc.c ****       \arg        ADC_RESOLUTION_8B: 8-bit ADC resolution
 174:C:/Users/49542/Desktop/GD32F30x_Demo_Suites_V2.0.0/GD32F30x_Demo_Suites_V2.0.0/GD32F30x_Firmware_Library/GD32F30x_standard_peripheral/Source\gd32f30x_adc.c ****       \arg        ADC_RESOLUTION_6B: 6-bit ADC resolution
 175:C:/Users/49542/Desktop/GD32F30x_Demo_Suites_V2.0.0/GD32F30x_Demo_Suites_V2.0.0/GD32F30x_Firmware_Library/GD32F30x_standard_peripheral/Source\gd32f30x_adc.c ****     \param[out] none
 176:C:/Users/49542/Desktop/GD32F30x_Demo_Suites_V2.0.0/GD32F30x_Demo_Suites_V2.0.0/GD32F30x_Firmware_Library/GD32F30x_standard_peripheral/Source\gd32f30x_adc.c ****     \retval     none
 177:C:/Users/49542/Desktop/GD32F30x_Demo_Suites_V2.0.0/GD32F30x_Demo_Suites_V2.0.0/GD32F30x_Firmware_Library/GD32F30x_standard_peripheral/Source\gd32f30x_adc.c **** */
 178:C:/Users/49542/Desktop/GD32F30x_Demo_Suites_V2.0.0/GD32F30x_Demo_Suites_V2.0.0/GD32F30x_Firmware_Library/GD32F30x_standard_peripheral/Source\gd32f30x_adc.c **** void adc_resolution_config(uint32_t adc_periph , uint32_t resolution)
 179:C:/Users/49542/Desktop/GD32F30x_Demo_Suites_V2.0.0/GD32F30x_Demo_Suites_V2.0.0/GD32F30x_Firmware_Library/GD32F30x_standard_peripheral/Source\gd32f30x_adc.c **** {
 497              		.loc 1 179 0
 498              		.cfi_startproc
 499              		@ args = 0, pretend = 0, frame = 8
 500              		@ frame_needed = 1, uses_anonymous_args = 0
 501              		@ link register save eliminated.
 502 0000 80B4     		push	{r7}
 503              	.LCFI43:
 504              		.cfi_def_cfa_offset 4
 505              		.cfi_offset 7, -4
 506 0002 83B0     		sub	sp, sp, #12
 507              	.LCFI44:
 508              		.cfi_def_cfa_offset 16
 509 0004 00AF     		add	r7, sp, #0
 510              	.LCFI45:
 511              		.cfi_def_cfa_register 7
 512 0006 7860     		str	r0, [r7, #4]
 513 0008 3960     		str	r1, [r7]
ARM GAS  C:\Users\49542\AppData\Local\Temp\cctN87BC.s 			page 13


 180:C:/Users/49542/Desktop/GD32F30x_Demo_Suites_V2.0.0/GD32F30x_Demo_Suites_V2.0.0/GD32F30x_Firmware_Library/GD32F30x_standard_peripheral/Source\gd32f30x_adc.c ****     ADC_OVSAMPCTL(adc_periph) &= ~((uint32_t)ADC_OVSAMPCTL_DRES);
 514              		.loc 1 180 0
 515 000a 7B68     		ldr	r3, [r7, #4]
 516 000c 8033     		adds	r3, r3, #128
 517 000e 1B68     		ldr	r3, [r3]
 518 0010 7A68     		ldr	r2, [r7, #4]
 519 0012 8032     		adds	r2, r2, #128
 520 0014 23F44053 		bic	r3, r3, #12288
 521 0018 1360     		str	r3, [r2]
 181:C:/Users/49542/Desktop/GD32F30x_Demo_Suites_V2.0.0/GD32F30x_Demo_Suites_V2.0.0/GD32F30x_Firmware_Library/GD32F30x_standard_peripheral/Source\gd32f30x_adc.c ****     ADC_OVSAMPCTL(adc_periph) |= (uint32_t)resolution;
 522              		.loc 1 181 0
 523 001a 7B68     		ldr	r3, [r7, #4]
 524 001c 8033     		adds	r3, r3, #128
 525 001e 1A68     		ldr	r2, [r3]
 526 0020 7B68     		ldr	r3, [r7, #4]
 527 0022 8033     		adds	r3, r3, #128
 528 0024 1946     		mov	r1, r3
 529 0026 3B68     		ldr	r3, [r7]
 530 0028 1343     		orrs	r3, r3, r2
 531 002a 0B60     		str	r3, [r1]
 182:C:/Users/49542/Desktop/GD32F30x_Demo_Suites_V2.0.0/GD32F30x_Demo_Suites_V2.0.0/GD32F30x_Firmware_Library/GD32F30x_standard_peripheral/Source\gd32f30x_adc.c **** }
 532              		.loc 1 182 0
 533 002c 00BF     		nop
 534 002e 0C37     		adds	r7, r7, #12
 535              	.LCFI46:
 536              		.cfi_def_cfa_offset 4
 537 0030 BD46     		mov	sp, r7
 538              	.LCFI47:
 539              		.cfi_def_cfa_register 13
 540              		@ sp needed
 541 0032 5DF8047B 		ldr	r7, [sp], #4
 542              	.LCFI48:
 543              		.cfi_restore 7
 544              		.cfi_def_cfa_offset 0
 545 0036 7047     		bx	lr
 546              		.cfi_endproc
 547              	.LFE124:
 549              		.section	.text.adc_discontinuous_mode_config,"ax",%progbits
 550              		.align	1
 551              		.global	adc_discontinuous_mode_config
 552              		.syntax unified
 553              		.thumb
 554              		.thumb_func
 555              		.fpu fpv4-sp-d16
 557              	adc_discontinuous_mode_config:
 558              	.LFB125:
 183:C:/Users/49542/Desktop/GD32F30x_Demo_Suites_V2.0.0/GD32F30x_Demo_Suites_V2.0.0/GD32F30x_Firmware_Library/GD32F30x_standard_peripheral/Source\gd32f30x_adc.c **** 
 184:C:/Users/49542/Desktop/GD32F30x_Demo_Suites_V2.0.0/GD32F30x_Demo_Suites_V2.0.0/GD32F30x_Firmware_Library/GD32F30x_standard_peripheral/Source\gd32f30x_adc.c **** /*!
 185:C:/Users/49542/Desktop/GD32F30x_Demo_Suites_V2.0.0/GD32F30x_Demo_Suites_V2.0.0/GD32F30x_Firmware_Library/GD32F30x_standard_peripheral/Source\gd32f30x_adc.c ****     \brief      configure ADC discontinuous mode 
 186:C:/Users/49542/Desktop/GD32F30x_Demo_Suites_V2.0.0/GD32F30x_Demo_Suites_V2.0.0/GD32F30x_Firmware_Library/GD32F30x_standard_peripheral/Source\gd32f30x_adc.c ****     \param[in]  adc_periph: ADCx,x=0,1,2
 187:C:/Users/49542/Desktop/GD32F30x_Demo_Suites_V2.0.0/GD32F30x_Demo_Suites_V2.0.0/GD32F30x_Firmware_Library/GD32F30x_standard_peripheral/Source\gd32f30x_adc.c ****                 only one among these parameters can be selected
 188:C:/Users/49542/Desktop/GD32F30x_Demo_Suites_V2.0.0/GD32F30x_Demo_Suites_V2.0.0/GD32F30x_Firmware_Library/GD32F30x_standard_peripheral/Source\gd32f30x_adc.c ****     \param[in]  adc_channel_group: select the channel group
 189:C:/Users/49542/Desktop/GD32F30x_Demo_Suites_V2.0.0/GD32F30x_Demo_Suites_V2.0.0/GD32F30x_Firmware_Library/GD32F30x_standard_peripheral/Source\gd32f30x_adc.c ****                 only one among these parameters can be selected
 190:C:/Users/49542/Desktop/GD32F30x_Demo_Suites_V2.0.0/GD32F30x_Demo_Suites_V2.0.0/GD32F30x_Firmware_Library/GD32F30x_standard_peripheral/Source\gd32f30x_adc.c ****       \arg        ADC_REGULAR_CHANNEL: regular channel group
 191:C:/Users/49542/Desktop/GD32F30x_Demo_Suites_V2.0.0/GD32F30x_Demo_Suites_V2.0.0/GD32F30x_Firmware_Library/GD32F30x_standard_peripheral/Source\gd32f30x_adc.c ****       \arg        ADC_INSERTED_CHANNEL: inserted channel group
 192:C:/Users/49542/Desktop/GD32F30x_Demo_Suites_V2.0.0/GD32F30x_Demo_Suites_V2.0.0/GD32F30x_Firmware_Library/GD32F30x_standard_peripheral/Source\gd32f30x_adc.c ****       \arg        ADC_CHANNEL_DISCON_DISABLE: disable discontinuous mode of regular & inserted chan
 193:C:/Users/49542/Desktop/GD32F30x_Demo_Suites_V2.0.0/GD32F30x_Demo_Suites_V2.0.0/GD32F30x_Firmware_Library/GD32F30x_standard_peripheral/Source\gd32f30x_adc.c ****     \param[in]  length: number of conversions in discontinuous mode,the number can be 1..8
ARM GAS  C:\Users\49542\AppData\Local\Temp\cctN87BC.s 			page 14


 194:C:/Users/49542/Desktop/GD32F30x_Demo_Suites_V2.0.0/GD32F30x_Demo_Suites_V2.0.0/GD32F30x_Firmware_Library/GD32F30x_standard_peripheral/Source\gd32f30x_adc.c ****                         for regular channel ,the number has no effect for inserted channel
 195:C:/Users/49542/Desktop/GD32F30x_Demo_Suites_V2.0.0/GD32F30x_Demo_Suites_V2.0.0/GD32F30x_Firmware_Library/GD32F30x_standard_peripheral/Source\gd32f30x_adc.c ****     \param[out] none
 196:C:/Users/49542/Desktop/GD32F30x_Demo_Suites_V2.0.0/GD32F30x_Demo_Suites_V2.0.0/GD32F30x_Firmware_Library/GD32F30x_standard_peripheral/Source\gd32f30x_adc.c ****     \retval     none
 197:C:/Users/49542/Desktop/GD32F30x_Demo_Suites_V2.0.0/GD32F30x_Demo_Suites_V2.0.0/GD32F30x_Firmware_Library/GD32F30x_standard_peripheral/Source\gd32f30x_adc.c **** */
 198:C:/Users/49542/Desktop/GD32F30x_Demo_Suites_V2.0.0/GD32F30x_Demo_Suites_V2.0.0/GD32F30x_Firmware_Library/GD32F30x_standard_peripheral/Source\gd32f30x_adc.c **** void adc_discontinuous_mode_config(uint32_t adc_periph, uint8_t adc_channel_group, uint8_t length)
 199:C:/Users/49542/Desktop/GD32F30x_Demo_Suites_V2.0.0/GD32F30x_Demo_Suites_V2.0.0/GD32F30x_Firmware_Library/GD32F30x_standard_peripheral/Source\gd32f30x_adc.c **** {
 559              		.loc 1 199 0
 560              		.cfi_startproc
 561              		@ args = 0, pretend = 0, frame = 8
 562              		@ frame_needed = 1, uses_anonymous_args = 0
 563              		@ link register save eliminated.
 564 0000 80B4     		push	{r7}
 565              	.LCFI49:
 566              		.cfi_def_cfa_offset 4
 567              		.cfi_offset 7, -4
 568 0002 83B0     		sub	sp, sp, #12
 569              	.LCFI50:
 570              		.cfi_def_cfa_offset 16
 571 0004 00AF     		add	r7, sp, #0
 572              	.LCFI51:
 573              		.cfi_def_cfa_register 7
 574 0006 7860     		str	r0, [r7, #4]
 575 0008 0B46     		mov	r3, r1
 576 000a FB70     		strb	r3, [r7, #3]
 577 000c 1346     		mov	r3, r2
 578 000e BB70     		strb	r3, [r7, #2]
 200:C:/Users/49542/Desktop/GD32F30x_Demo_Suites_V2.0.0/GD32F30x_Demo_Suites_V2.0.0/GD32F30x_Firmware_Library/GD32F30x_standard_peripheral/Source\gd32f30x_adc.c ****     ADC_CTL0(adc_periph) &= ~((uint32_t)( ADC_CTL0_DISRC | ADC_CTL0_DISIC ));
 579              		.loc 1 200 0
 580 0010 7B68     		ldr	r3, [r7, #4]
 581 0012 0433     		adds	r3, r3, #4
 582 0014 1B68     		ldr	r3, [r3]
 583 0016 7A68     		ldr	r2, [r7, #4]
 584 0018 0432     		adds	r2, r2, #4
 585 001a 23F4C053 		bic	r3, r3, #6144
 586 001e 1360     		str	r3, [r2]
 201:C:/Users/49542/Desktop/GD32F30x_Demo_Suites_V2.0.0/GD32F30x_Demo_Suites_V2.0.0/GD32F30x_Firmware_Library/GD32F30x_standard_peripheral/Source\gd32f30x_adc.c ****     switch(adc_channel_group){
 587              		.loc 1 201 0
 588 0020 FB78     		ldrb	r3, [r7, #3]	@ zero_extendqisi2
 589 0022 012B     		cmp	r3, #1
 590 0024 02D0     		beq	.L27
 591 0026 022B     		cmp	r3, #2
 592 0028 1CD0     		beq	.L28
 202:C:/Users/49542/Desktop/GD32F30x_Demo_Suites_V2.0.0/GD32F30x_Demo_Suites_V2.0.0/GD32F30x_Firmware_Library/GD32F30x_standard_peripheral/Source\gd32f30x_adc.c ****     case ADC_REGULAR_CHANNEL:
 203:C:/Users/49542/Desktop/GD32F30x_Demo_Suites_V2.0.0/GD32F30x_Demo_Suites_V2.0.0/GD32F30x_Firmware_Library/GD32F30x_standard_peripheral/Source\gd32f30x_adc.c ****         /* config the number of conversions in discontinuous mode  */
 204:C:/Users/49542/Desktop/GD32F30x_Demo_Suites_V2.0.0/GD32F30x_Demo_Suites_V2.0.0/GD32F30x_Firmware_Library/GD32F30x_standard_peripheral/Source\gd32f30x_adc.c ****         ADC_CTL0(adc_periph) &= ~((uint32_t)ADC_CTL0_DISNUM);
 205:C:/Users/49542/Desktop/GD32F30x_Demo_Suites_V2.0.0/GD32F30x_Demo_Suites_V2.0.0/GD32F30x_Firmware_Library/GD32F30x_standard_peripheral/Source\gd32f30x_adc.c ****         ADC_CTL0(adc_periph) |= CTL0_DISNUM(((uint32_t)length - 1U));
 206:C:/Users/49542/Desktop/GD32F30x_Demo_Suites_V2.0.0/GD32F30x_Demo_Suites_V2.0.0/GD32F30x_Firmware_Library/GD32F30x_standard_peripheral/Source\gd32f30x_adc.c ****     
 207:C:/Users/49542/Desktop/GD32F30x_Demo_Suites_V2.0.0/GD32F30x_Demo_Suites_V2.0.0/GD32F30x_Firmware_Library/GD32F30x_standard_peripheral/Source\gd32f30x_adc.c ****         ADC_CTL0(adc_periph) |= (uint32_t)ADC_CTL0_DISRC;
 208:C:/Users/49542/Desktop/GD32F30x_Demo_Suites_V2.0.0/GD32F30x_Demo_Suites_V2.0.0/GD32F30x_Firmware_Library/GD32F30x_standard_peripheral/Source\gd32f30x_adc.c ****         break;
 209:C:/Users/49542/Desktop/GD32F30x_Demo_Suites_V2.0.0/GD32F30x_Demo_Suites_V2.0.0/GD32F30x_Firmware_Library/GD32F30x_standard_peripheral/Source\gd32f30x_adc.c ****     case ADC_INSERTED_CHANNEL:
 210:C:/Users/49542/Desktop/GD32F30x_Demo_Suites_V2.0.0/GD32F30x_Demo_Suites_V2.0.0/GD32F30x_Firmware_Library/GD32F30x_standard_peripheral/Source\gd32f30x_adc.c ****         ADC_CTL0(adc_periph) |= (uint32_t)ADC_CTL0_DISIC;
 211:C:/Users/49542/Desktop/GD32F30x_Demo_Suites_V2.0.0/GD32F30x_Demo_Suites_V2.0.0/GD32F30x_Firmware_Library/GD32F30x_standard_peripheral/Source\gd32f30x_adc.c ****         break;
 212:C:/Users/49542/Desktop/GD32F30x_Demo_Suites_V2.0.0/GD32F30x_Demo_Suites_V2.0.0/GD32F30x_Firmware_Library/GD32F30x_standard_peripheral/Source\gd32f30x_adc.c ****     case ADC_CHANNEL_DISCON_DISABLE:
 213:C:/Users/49542/Desktop/GD32F30x_Demo_Suites_V2.0.0/GD32F30x_Demo_Suites_V2.0.0/GD32F30x_Firmware_Library/GD32F30x_standard_peripheral/Source\gd32f30x_adc.c ****     default:
 214:C:/Users/49542/Desktop/GD32F30x_Demo_Suites_V2.0.0/GD32F30x_Demo_Suites_V2.0.0/GD32F30x_Firmware_Library/GD32F30x_standard_peripheral/Source\gd32f30x_adc.c ****         break;
 593              		.loc 1 214 0
 594 002a 24E0     		b	.L29
ARM GAS  C:\Users\49542\AppData\Local\Temp\cctN87BC.s 			page 15


 595              	.L27:
 204:C:/Users/49542/Desktop/GD32F30x_Demo_Suites_V2.0.0/GD32F30x_Demo_Suites_V2.0.0/GD32F30x_Firmware_Library/GD32F30x_standard_peripheral/Source\gd32f30x_adc.c ****         ADC_CTL0(adc_periph) |= CTL0_DISNUM(((uint32_t)length - 1U));
 596              		.loc 1 204 0
 597 002c 7B68     		ldr	r3, [r7, #4]
 598 002e 0433     		adds	r3, r3, #4
 599 0030 1B68     		ldr	r3, [r3]
 600 0032 7A68     		ldr	r2, [r7, #4]
 601 0034 0432     		adds	r2, r2, #4
 602 0036 23F46043 		bic	r3, r3, #57344
 603 003a 1360     		str	r3, [r2]
 205:C:/Users/49542/Desktop/GD32F30x_Demo_Suites_V2.0.0/GD32F30x_Demo_Suites_V2.0.0/GD32F30x_Firmware_Library/GD32F30x_standard_peripheral/Source\gd32f30x_adc.c ****     
 604              		.loc 1 205 0
 605 003c 7B68     		ldr	r3, [r7, #4]
 606 003e 0433     		adds	r3, r3, #4
 607 0040 1A68     		ldr	r2, [r3]
 608 0042 BB78     		ldrb	r3, [r7, #2]	@ zero_extendqisi2
 609 0044 013B     		subs	r3, r3, #1
 610 0046 5B03     		lsls	r3, r3, #13
 611 0048 9BB2     		uxth	r3, r3
 612 004a 7968     		ldr	r1, [r7, #4]
 613 004c 0431     		adds	r1, r1, #4
 614 004e 1343     		orrs	r3, r3, r2
 615 0050 0B60     		str	r3, [r1]
 207:C:/Users/49542/Desktop/GD32F30x_Demo_Suites_V2.0.0/GD32F30x_Demo_Suites_V2.0.0/GD32F30x_Firmware_Library/GD32F30x_standard_peripheral/Source\gd32f30x_adc.c ****         break;
 616              		.loc 1 207 0
 617 0052 7B68     		ldr	r3, [r7, #4]
 618 0054 0433     		adds	r3, r3, #4
 619 0056 1B68     		ldr	r3, [r3]
 620 0058 7A68     		ldr	r2, [r7, #4]
 621 005a 0432     		adds	r2, r2, #4
 622 005c 43F40063 		orr	r3, r3, #2048
 623 0060 1360     		str	r3, [r2]
 208:C:/Users/49542/Desktop/GD32F30x_Demo_Suites_V2.0.0/GD32F30x_Demo_Suites_V2.0.0/GD32F30x_Firmware_Library/GD32F30x_standard_peripheral/Source\gd32f30x_adc.c ****     case ADC_INSERTED_CHANNEL:
 624              		.loc 1 208 0
 625 0062 08E0     		b	.L29
 626              	.L28:
 210:C:/Users/49542/Desktop/GD32F30x_Demo_Suites_V2.0.0/GD32F30x_Demo_Suites_V2.0.0/GD32F30x_Firmware_Library/GD32F30x_standard_peripheral/Source\gd32f30x_adc.c ****         break;
 627              		.loc 1 210 0
 628 0064 7B68     		ldr	r3, [r7, #4]
 629 0066 0433     		adds	r3, r3, #4
 630 0068 1B68     		ldr	r3, [r3]
 631 006a 7A68     		ldr	r2, [r7, #4]
 632 006c 0432     		adds	r2, r2, #4
 633 006e 43F48053 		orr	r3, r3, #4096
 634 0072 1360     		str	r3, [r2]
 211:C:/Users/49542/Desktop/GD32F30x_Demo_Suites_V2.0.0/GD32F30x_Demo_Suites_V2.0.0/GD32F30x_Firmware_Library/GD32F30x_standard_peripheral/Source\gd32f30x_adc.c ****     case ADC_CHANNEL_DISCON_DISABLE:
 635              		.loc 1 211 0
 636 0074 00BF     		nop
 637              	.L29:
 215:C:/Users/49542/Desktop/GD32F30x_Demo_Suites_V2.0.0/GD32F30x_Demo_Suites_V2.0.0/GD32F30x_Firmware_Library/GD32F30x_standard_peripheral/Source\gd32f30x_adc.c ****     }
 216:C:/Users/49542/Desktop/GD32F30x_Demo_Suites_V2.0.0/GD32F30x_Demo_Suites_V2.0.0/GD32F30x_Firmware_Library/GD32F30x_standard_peripheral/Source\gd32f30x_adc.c **** }
 638              		.loc 1 216 0
 639 0076 00BF     		nop
 640 0078 0C37     		adds	r7, r7, #12
 641              	.LCFI52:
 642              		.cfi_def_cfa_offset 4
 643 007a BD46     		mov	sp, r7
ARM GAS  C:\Users\49542\AppData\Local\Temp\cctN87BC.s 			page 16


 644              	.LCFI53:
 645              		.cfi_def_cfa_register 13
 646              		@ sp needed
 647 007c 5DF8047B 		ldr	r7, [sp], #4
 648              	.LCFI54:
 649              		.cfi_restore 7
 650              		.cfi_def_cfa_offset 0
 651 0080 7047     		bx	lr
 652              		.cfi_endproc
 653              	.LFE125:
 655              		.section	.text.adc_mode_config,"ax",%progbits
 656              		.align	1
 657              		.global	adc_mode_config
 658              		.syntax unified
 659              		.thumb
 660              		.thumb_func
 661              		.fpu fpv4-sp-d16
 663              	adc_mode_config:
 664              	.LFB126:
 217:C:/Users/49542/Desktop/GD32F30x_Demo_Suites_V2.0.0/GD32F30x_Demo_Suites_V2.0.0/GD32F30x_Firmware_Library/GD32F30x_standard_peripheral/Source\gd32f30x_adc.c **** 
 218:C:/Users/49542/Desktop/GD32F30x_Demo_Suites_V2.0.0/GD32F30x_Demo_Suites_V2.0.0/GD32F30x_Firmware_Library/GD32F30x_standard_peripheral/Source\gd32f30x_adc.c **** /*!
 219:C:/Users/49542/Desktop/GD32F30x_Demo_Suites_V2.0.0/GD32F30x_Demo_Suites_V2.0.0/GD32F30x_Firmware_Library/GD32F30x_standard_peripheral/Source\gd32f30x_adc.c ****     \brief      configure the ADC sync mode
 220:C:/Users/49542/Desktop/GD32F30x_Demo_Suites_V2.0.0/GD32F30x_Demo_Suites_V2.0.0/GD32F30x_Firmware_Library/GD32F30x_standard_peripheral/Source\gd32f30x_adc.c ****     \param[in]  mode: ADC mode
 221:C:/Users/49542/Desktop/GD32F30x_Demo_Suites_V2.0.0/GD32F30x_Demo_Suites_V2.0.0/GD32F30x_Firmware_Library/GD32F30x_standard_peripheral/Source\gd32f30x_adc.c ****                 only one among these parameters can be selected
 222:C:/Users/49542/Desktop/GD32F30x_Demo_Suites_V2.0.0/GD32F30x_Demo_Suites_V2.0.0/GD32F30x_Firmware_Library/GD32F30x_standard_peripheral/Source\gd32f30x_adc.c ****       \arg        ADC_MODE_FREE: all the ADCs work independently
 223:C:/Users/49542/Desktop/GD32F30x_Demo_Suites_V2.0.0/GD32F30x_Demo_Suites_V2.0.0/GD32F30x_Firmware_Library/GD32F30x_standard_peripheral/Source\gd32f30x_adc.c ****       \arg        ADC_DAUL_REGULAL_PARALLEL_INSERTED_PARALLEL: ADC0 and ADC1 work in combined regul
 224:C:/Users/49542/Desktop/GD32F30x_Demo_Suites_V2.0.0/GD32F30x_Demo_Suites_V2.0.0/GD32F30x_Firmware_Library/GD32F30x_standard_peripheral/Source\gd32f30x_adc.c ****       \arg        ADC_DAUL_REGULAL_PARALLEL_INSERTED_ROTATION: ADC0 and ADC1 work in combined regul
 225:C:/Users/49542/Desktop/GD32F30x_Demo_Suites_V2.0.0/GD32F30x_Demo_Suites_V2.0.0/GD32F30x_Firmware_Library/GD32F30x_standard_peripheral/Source\gd32f30x_adc.c ****       \arg        ADC_DAUL_INSERTED_PARALLEL_REGULAL_FOLLOWUP_FAST: ADC0 and ADC1 work in combined 
 226:C:/Users/49542/Desktop/GD32F30x_Demo_Suites_V2.0.0/GD32F30x_Demo_Suites_V2.0.0/GD32F30x_Firmware_Library/GD32F30x_standard_peripheral/Source\gd32f30x_adc.c ****       \arg        ADC_DAUL_INSERTED_PARALLEL_REGULAL_FOLLOWUP_SLOW: ADC0 and ADC1 work in combined 
 227:C:/Users/49542/Desktop/GD32F30x_Demo_Suites_V2.0.0/GD32F30x_Demo_Suites_V2.0.0/GD32F30x_Firmware_Library/GD32F30x_standard_peripheral/Source\gd32f30x_adc.c ****       \arg        ADC_DAUL_INSERTED_PARALLEL: ADC0 and ADC1 work in inserted parallel mode only
 228:C:/Users/49542/Desktop/GD32F30x_Demo_Suites_V2.0.0/GD32F30x_Demo_Suites_V2.0.0/GD32F30x_Firmware_Library/GD32F30x_standard_peripheral/Source\gd32f30x_adc.c ****       \arg        ADC_DAUL_REGULAL_PARALLEL: ADC0 and ADC1 work in regular parallel mode only
 229:C:/Users/49542/Desktop/GD32F30x_Demo_Suites_V2.0.0/GD32F30x_Demo_Suites_V2.0.0/GD32F30x_Firmware_Library/GD32F30x_standard_peripheral/Source\gd32f30x_adc.c ****       \arg        ADC_DAUL_REGULAL_FOLLOWUP_FAST: ADC0 and ADC1 work in follow-up fast mode only
 230:C:/Users/49542/Desktop/GD32F30x_Demo_Suites_V2.0.0/GD32F30x_Demo_Suites_V2.0.0/GD32F30x_Firmware_Library/GD32F30x_standard_peripheral/Source\gd32f30x_adc.c ****       \arg        ADC_DAUL_REGULAL_FOLLOWUP_SLOW: ADC0 and ADC1 work in follow-up slow mode only
 231:C:/Users/49542/Desktop/GD32F30x_Demo_Suites_V2.0.0/GD32F30x_Demo_Suites_V2.0.0/GD32F30x_Firmware_Library/GD32F30x_standard_peripheral/Source\gd32f30x_adc.c ****       \arg        ADC_DAUL_INSERTED_TRRIGGER_ROTATION: ADC0 and ADC1 work in trigger rotation mode 
 232:C:/Users/49542/Desktop/GD32F30x_Demo_Suites_V2.0.0/GD32F30x_Demo_Suites_V2.0.0/GD32F30x_Firmware_Library/GD32F30x_standard_peripheral/Source\gd32f30x_adc.c ****     \param[out] none
 233:C:/Users/49542/Desktop/GD32F30x_Demo_Suites_V2.0.0/GD32F30x_Demo_Suites_V2.0.0/GD32F30x_Firmware_Library/GD32F30x_standard_peripheral/Source\gd32f30x_adc.c ****     \retval     none
 234:C:/Users/49542/Desktop/GD32F30x_Demo_Suites_V2.0.0/GD32F30x_Demo_Suites_V2.0.0/GD32F30x_Firmware_Library/GD32F30x_standard_peripheral/Source\gd32f30x_adc.c **** */
 235:C:/Users/49542/Desktop/GD32F30x_Demo_Suites_V2.0.0/GD32F30x_Demo_Suites_V2.0.0/GD32F30x_Firmware_Library/GD32F30x_standard_peripheral/Source\gd32f30x_adc.c **** void adc_mode_config(uint32_t mode)
 236:C:/Users/49542/Desktop/GD32F30x_Demo_Suites_V2.0.0/GD32F30x_Demo_Suites_V2.0.0/GD32F30x_Firmware_Library/GD32F30x_standard_peripheral/Source\gd32f30x_adc.c **** {
 665              		.loc 1 236 0
 666              		.cfi_startproc
 667              		@ args = 0, pretend = 0, frame = 8
 668              		@ frame_needed = 1, uses_anonymous_args = 0
 669              		@ link register save eliminated.
 670 0000 80B4     		push	{r7}
 671              	.LCFI55:
 672              		.cfi_def_cfa_offset 4
 673              		.cfi_offset 7, -4
 674 0002 83B0     		sub	sp, sp, #12
 675              	.LCFI56:
 676              		.cfi_def_cfa_offset 16
 677 0004 00AF     		add	r7, sp, #0
 678              	.LCFI57:
 679              		.cfi_def_cfa_register 7
 680 0006 7860     		str	r0, [r7, #4]
 237:C:/Users/49542/Desktop/GD32F30x_Demo_Suites_V2.0.0/GD32F30x_Demo_Suites_V2.0.0/GD32F30x_Firmware_Library/GD32F30x_standard_peripheral/Source\gd32f30x_adc.c ****     ADC_CTL0(ADC0) &= ~(ADC_CTL0_SYNCM);
 681              		.loc 1 237 0
ARM GAS  C:\Users\49542\AppData\Local\Temp\cctN87BC.s 			page 17


 682 0008 084B     		ldr	r3, .L31
 683 000a 1B68     		ldr	r3, [r3]
 684 000c 074A     		ldr	r2, .L31
 685 000e 23F47023 		bic	r3, r3, #983040
 686 0012 1360     		str	r3, [r2]
 238:C:/Users/49542/Desktop/GD32F30x_Demo_Suites_V2.0.0/GD32F30x_Demo_Suites_V2.0.0/GD32F30x_Firmware_Library/GD32F30x_standard_peripheral/Source\gd32f30x_adc.c ****     ADC_CTL0(ADC0) |= mode;
 687              		.loc 1 238 0
 688 0014 054B     		ldr	r3, .L31
 689 0016 1A68     		ldr	r2, [r3]
 690 0018 0449     		ldr	r1, .L31
 691 001a 7B68     		ldr	r3, [r7, #4]
 692 001c 1343     		orrs	r3, r3, r2
 693 001e 0B60     		str	r3, [r1]
 239:C:/Users/49542/Desktop/GD32F30x_Demo_Suites_V2.0.0/GD32F30x_Demo_Suites_V2.0.0/GD32F30x_Firmware_Library/GD32F30x_standard_peripheral/Source\gd32f30x_adc.c **** }
 694              		.loc 1 239 0
 695 0020 00BF     		nop
 696 0022 0C37     		adds	r7, r7, #12
 697              	.LCFI58:
 698              		.cfi_def_cfa_offset 4
 699 0024 BD46     		mov	sp, r7
 700              	.LCFI59:
 701              		.cfi_def_cfa_register 13
 702              		@ sp needed
 703 0026 5DF8047B 		ldr	r7, [sp], #4
 704              	.LCFI60:
 705              		.cfi_restore 7
 706              		.cfi_def_cfa_offset 0
 707 002a 7047     		bx	lr
 708              	.L32:
 709              		.align	2
 710              	.L31:
 711 002c 04240140 		.word	1073816580
 712              		.cfi_endproc
 713              	.LFE126:
 715              		.section	.text.adc_special_function_config,"ax",%progbits
 716              		.align	1
 717              		.global	adc_special_function_config
 718              		.syntax unified
 719              		.thumb
 720              		.thumb_func
 721              		.fpu fpv4-sp-d16
 723              	adc_special_function_config:
 724              	.LFB127:
 240:C:/Users/49542/Desktop/GD32F30x_Demo_Suites_V2.0.0/GD32F30x_Demo_Suites_V2.0.0/GD32F30x_Firmware_Library/GD32F30x_standard_peripheral/Source\gd32f30x_adc.c **** 
 241:C:/Users/49542/Desktop/GD32F30x_Demo_Suites_V2.0.0/GD32F30x_Demo_Suites_V2.0.0/GD32F30x_Firmware_Library/GD32F30x_standard_peripheral/Source\gd32f30x_adc.c **** /*!
 242:C:/Users/49542/Desktop/GD32F30x_Demo_Suites_V2.0.0/GD32F30x_Demo_Suites_V2.0.0/GD32F30x_Firmware_Library/GD32F30x_standard_peripheral/Source\gd32f30x_adc.c ****     \brief      enable or disable ADC special function
 243:C:/Users/49542/Desktop/GD32F30x_Demo_Suites_V2.0.0/GD32F30x_Demo_Suites_V2.0.0/GD32F30x_Firmware_Library/GD32F30x_standard_peripheral/Source\gd32f30x_adc.c ****     \param[in]  adc_periph: ADCx,x=0,1,2
 244:C:/Users/49542/Desktop/GD32F30x_Demo_Suites_V2.0.0/GD32F30x_Demo_Suites_V2.0.0/GD32F30x_Firmware_Library/GD32F30x_standard_peripheral/Source\gd32f30x_adc.c ****                 only one among these parameters can be selected
 245:C:/Users/49542/Desktop/GD32F30x_Demo_Suites_V2.0.0/GD32F30x_Demo_Suites_V2.0.0/GD32F30x_Firmware_Library/GD32F30x_standard_peripheral/Source\gd32f30x_adc.c ****     \param[in]  function: the function to config
 246:C:/Users/49542/Desktop/GD32F30x_Demo_Suites_V2.0.0/GD32F30x_Demo_Suites_V2.0.0/GD32F30x_Firmware_Library/GD32F30x_standard_peripheral/Source\gd32f30x_adc.c ****                 one or more parameters can be selected below
 247:C:/Users/49542/Desktop/GD32F30x_Demo_Suites_V2.0.0/GD32F30x_Demo_Suites_V2.0.0/GD32F30x_Firmware_Library/GD32F30x_standard_peripheral/Source\gd32f30x_adc.c ****       \arg        ADC_SCAN_MODE: scan mode select
 248:C:/Users/49542/Desktop/GD32F30x_Demo_Suites_V2.0.0/GD32F30x_Demo_Suites_V2.0.0/GD32F30x_Firmware_Library/GD32F30x_standard_peripheral/Source\gd32f30x_adc.c ****       \arg        ADC_INSERTED_CHANNEL_AUTO: inserted channel group convert automatically
 249:C:/Users/49542/Desktop/GD32F30x_Demo_Suites_V2.0.0/GD32F30x_Demo_Suites_V2.0.0/GD32F30x_Firmware_Library/GD32F30x_standard_peripheral/Source\gd32f30x_adc.c ****       \arg        ADC_CONTINUOUS_MODE: continuous mode select
 250:C:/Users/49542/Desktop/GD32F30x_Demo_Suites_V2.0.0/GD32F30x_Demo_Suites_V2.0.0/GD32F30x_Firmware_Library/GD32F30x_standard_peripheral/Source\gd32f30x_adc.c ****     \param[in]  newvalue: ENABLE or DISABLE
 251:C:/Users/49542/Desktop/GD32F30x_Demo_Suites_V2.0.0/GD32F30x_Demo_Suites_V2.0.0/GD32F30x_Firmware_Library/GD32F30x_standard_peripheral/Source\gd32f30x_adc.c ****     \param[out] none
 252:C:/Users/49542/Desktop/GD32F30x_Demo_Suites_V2.0.0/GD32F30x_Demo_Suites_V2.0.0/GD32F30x_Firmware_Library/GD32F30x_standard_peripheral/Source\gd32f30x_adc.c ****     \retval     none
 253:C:/Users/49542/Desktop/GD32F30x_Demo_Suites_V2.0.0/GD32F30x_Demo_Suites_V2.0.0/GD32F30x_Firmware_Library/GD32F30x_standard_peripheral/Source\gd32f30x_adc.c **** */
ARM GAS  C:\Users\49542\AppData\Local\Temp\cctN87BC.s 			page 18


 254:C:/Users/49542/Desktop/GD32F30x_Demo_Suites_V2.0.0/GD32F30x_Demo_Suites_V2.0.0/GD32F30x_Firmware_Library/GD32F30x_standard_peripheral/Source\gd32f30x_adc.c **** void adc_special_function_config(uint32_t adc_periph , uint32_t function , ControlStatus newvalue)
 255:C:/Users/49542/Desktop/GD32F30x_Demo_Suites_V2.0.0/GD32F30x_Demo_Suites_V2.0.0/GD32F30x_Firmware_Library/GD32F30x_standard_peripheral/Source\gd32f30x_adc.c **** {
 725              		.loc 1 255 0
 726              		.cfi_startproc
 727              		@ args = 0, pretend = 0, frame = 16
 728              		@ frame_needed = 1, uses_anonymous_args = 0
 729              		@ link register save eliminated.
 730 0000 80B4     		push	{r7}
 731              	.LCFI61:
 732              		.cfi_def_cfa_offset 4
 733              		.cfi_offset 7, -4
 734 0002 85B0     		sub	sp, sp, #20
 735              	.LCFI62:
 736              		.cfi_def_cfa_offset 24
 737 0004 00AF     		add	r7, sp, #0
 738              	.LCFI63:
 739              		.cfi_def_cfa_register 7
 740 0006 F860     		str	r0, [r7, #12]
 741 0008 B960     		str	r1, [r7, #8]
 742 000a 1346     		mov	r3, r2
 743 000c FB71     		strb	r3, [r7, #7]
 256:C:/Users/49542/Desktop/GD32F30x_Demo_Suites_V2.0.0/GD32F30x_Demo_Suites_V2.0.0/GD32F30x_Firmware_Library/GD32F30x_standard_peripheral/Source\gd32f30x_adc.c ****     if(newvalue){
 744              		.loc 1 256 0
 745 000e FB79     		ldrb	r3, [r7, #7]	@ zero_extendqisi2
 746 0010 002B     		cmp	r3, #0
 747 0012 27D0     		beq	.L34
 257:C:/Users/49542/Desktop/GD32F30x_Demo_Suites_V2.0.0/GD32F30x_Demo_Suites_V2.0.0/GD32F30x_Firmware_Library/GD32F30x_standard_peripheral/Source\gd32f30x_adc.c ****         if(0U != (function & ADC_SCAN_MODE)){
 748              		.loc 1 257 0
 749 0014 BB68     		ldr	r3, [r7, #8]
 750 0016 03F48073 		and	r3, r3, #256
 751 001a 002B     		cmp	r3, #0
 752 001c 07D0     		beq	.L35
 258:C:/Users/49542/Desktop/GD32F30x_Demo_Suites_V2.0.0/GD32F30x_Demo_Suites_V2.0.0/GD32F30x_Firmware_Library/GD32F30x_standard_peripheral/Source\gd32f30x_adc.c ****             ADC_CTL0(adc_periph) |= ADC_SCAN_MODE;
 753              		.loc 1 258 0
 754 001e FB68     		ldr	r3, [r7, #12]
 755 0020 0433     		adds	r3, r3, #4
 756 0022 1B68     		ldr	r3, [r3]
 757 0024 FA68     		ldr	r2, [r7, #12]
 758 0026 0432     		adds	r2, r2, #4
 759 0028 43F48073 		orr	r3, r3, #256
 760 002c 1360     		str	r3, [r2]
 761              	.L35:
 259:C:/Users/49542/Desktop/GD32F30x_Demo_Suites_V2.0.0/GD32F30x_Demo_Suites_V2.0.0/GD32F30x_Firmware_Library/GD32F30x_standard_peripheral/Source\gd32f30x_adc.c ****         }
 260:C:/Users/49542/Desktop/GD32F30x_Demo_Suites_V2.0.0/GD32F30x_Demo_Suites_V2.0.0/GD32F30x_Firmware_Library/GD32F30x_standard_peripheral/Source\gd32f30x_adc.c ****         if(0U != (function & ADC_INSERTED_CHANNEL_AUTO)){
 762              		.loc 1 260 0
 763 002e BB68     		ldr	r3, [r7, #8]
 764 0030 03F48063 		and	r3, r3, #1024
 765 0034 002B     		cmp	r3, #0
 766 0036 07D0     		beq	.L36
 261:C:/Users/49542/Desktop/GD32F30x_Demo_Suites_V2.0.0/GD32F30x_Demo_Suites_V2.0.0/GD32F30x_Firmware_Library/GD32F30x_standard_peripheral/Source\gd32f30x_adc.c ****             ADC_CTL0(adc_periph) |= ADC_INSERTED_CHANNEL_AUTO;
 767              		.loc 1 261 0
 768 0038 FB68     		ldr	r3, [r7, #12]
 769 003a 0433     		adds	r3, r3, #4
 770 003c 1B68     		ldr	r3, [r3]
 771 003e FA68     		ldr	r2, [r7, #12]
 772 0040 0432     		adds	r2, r2, #4
 773 0042 43F48063 		orr	r3, r3, #1024
ARM GAS  C:\Users\49542\AppData\Local\Temp\cctN87BC.s 			page 19


 774 0046 1360     		str	r3, [r2]
 775              	.L36:
 262:C:/Users/49542/Desktop/GD32F30x_Demo_Suites_V2.0.0/GD32F30x_Demo_Suites_V2.0.0/GD32F30x_Firmware_Library/GD32F30x_standard_peripheral/Source\gd32f30x_adc.c ****         } 
 263:C:/Users/49542/Desktop/GD32F30x_Demo_Suites_V2.0.0/GD32F30x_Demo_Suites_V2.0.0/GD32F30x_Firmware_Library/GD32F30x_standard_peripheral/Source\gd32f30x_adc.c ****         if(0U != (function & ADC_CONTINUOUS_MODE)){
 776              		.loc 1 263 0
 777 0048 BB68     		ldr	r3, [r7, #8]
 778 004a 03F00203 		and	r3, r3, #2
 779 004e 002B     		cmp	r3, #0
 780 0050 2FD0     		beq	.L41
 264:C:/Users/49542/Desktop/GD32F30x_Demo_Suites_V2.0.0/GD32F30x_Demo_Suites_V2.0.0/GD32F30x_Firmware_Library/GD32F30x_standard_peripheral/Source\gd32f30x_adc.c ****             ADC_CTL1(adc_periph) |= ADC_CONTINUOUS_MODE;
 781              		.loc 1 264 0
 782 0052 FB68     		ldr	r3, [r7, #12]
 783 0054 0833     		adds	r3, r3, #8
 784 0056 1B68     		ldr	r3, [r3]
 785 0058 FA68     		ldr	r2, [r7, #12]
 786 005a 0832     		adds	r2, r2, #8
 787 005c 43F00203 		orr	r3, r3, #2
 788 0060 1360     		str	r3, [r2]
 265:C:/Users/49542/Desktop/GD32F30x_Demo_Suites_V2.0.0/GD32F30x_Demo_Suites_V2.0.0/GD32F30x_Firmware_Library/GD32F30x_standard_peripheral/Source\gd32f30x_adc.c ****         }        
 266:C:/Users/49542/Desktop/GD32F30x_Demo_Suites_V2.0.0/GD32F30x_Demo_Suites_V2.0.0/GD32F30x_Firmware_Library/GD32F30x_standard_peripheral/Source\gd32f30x_adc.c ****     }else{
 267:C:/Users/49542/Desktop/GD32F30x_Demo_Suites_V2.0.0/GD32F30x_Demo_Suites_V2.0.0/GD32F30x_Firmware_Library/GD32F30x_standard_peripheral/Source\gd32f30x_adc.c ****         if(0U != (function & ADC_SCAN_MODE)){
 268:C:/Users/49542/Desktop/GD32F30x_Demo_Suites_V2.0.0/GD32F30x_Demo_Suites_V2.0.0/GD32F30x_Firmware_Library/GD32F30x_standard_peripheral/Source\gd32f30x_adc.c ****             ADC_CTL0(adc_periph) &= ~ADC_SCAN_MODE;
 269:C:/Users/49542/Desktop/GD32F30x_Demo_Suites_V2.0.0/GD32F30x_Demo_Suites_V2.0.0/GD32F30x_Firmware_Library/GD32F30x_standard_peripheral/Source\gd32f30x_adc.c ****         }
 270:C:/Users/49542/Desktop/GD32F30x_Demo_Suites_V2.0.0/GD32F30x_Demo_Suites_V2.0.0/GD32F30x_Firmware_Library/GD32F30x_standard_peripheral/Source\gd32f30x_adc.c ****         if(0U != (function & ADC_INSERTED_CHANNEL_AUTO)){
 271:C:/Users/49542/Desktop/GD32F30x_Demo_Suites_V2.0.0/GD32F30x_Demo_Suites_V2.0.0/GD32F30x_Firmware_Library/GD32F30x_standard_peripheral/Source\gd32f30x_adc.c ****             ADC_CTL0(adc_periph) &= ~ADC_INSERTED_CHANNEL_AUTO;
 272:C:/Users/49542/Desktop/GD32F30x_Demo_Suites_V2.0.0/GD32F30x_Demo_Suites_V2.0.0/GD32F30x_Firmware_Library/GD32F30x_standard_peripheral/Source\gd32f30x_adc.c ****         } 
 273:C:/Users/49542/Desktop/GD32F30x_Demo_Suites_V2.0.0/GD32F30x_Demo_Suites_V2.0.0/GD32F30x_Firmware_Library/GD32F30x_standard_peripheral/Source\gd32f30x_adc.c ****         if(0U != (function & ADC_CONTINUOUS_MODE)){
 274:C:/Users/49542/Desktop/GD32F30x_Demo_Suites_V2.0.0/GD32F30x_Demo_Suites_V2.0.0/GD32F30x_Firmware_Library/GD32F30x_standard_peripheral/Source\gd32f30x_adc.c ****             ADC_CTL1(adc_periph) &= ~ADC_CONTINUOUS_MODE;
 275:C:/Users/49542/Desktop/GD32F30x_Demo_Suites_V2.0.0/GD32F30x_Demo_Suites_V2.0.0/GD32F30x_Firmware_Library/GD32F30x_standard_peripheral/Source\gd32f30x_adc.c ****         }       
 276:C:/Users/49542/Desktop/GD32F30x_Demo_Suites_V2.0.0/GD32F30x_Demo_Suites_V2.0.0/GD32F30x_Firmware_Library/GD32F30x_standard_peripheral/Source\gd32f30x_adc.c ****     }
 277:C:/Users/49542/Desktop/GD32F30x_Demo_Suites_V2.0.0/GD32F30x_Demo_Suites_V2.0.0/GD32F30x_Firmware_Library/GD32F30x_standard_peripheral/Source\gd32f30x_adc.c **** }
 789              		.loc 1 277 0
 790 0062 26E0     		b	.L41
 791              	.L34:
 267:C:/Users/49542/Desktop/GD32F30x_Demo_Suites_V2.0.0/GD32F30x_Demo_Suites_V2.0.0/GD32F30x_Firmware_Library/GD32F30x_standard_peripheral/Source\gd32f30x_adc.c ****             ADC_CTL0(adc_periph) &= ~ADC_SCAN_MODE;
 792              		.loc 1 267 0
 793 0064 BB68     		ldr	r3, [r7, #8]
 794 0066 03F48073 		and	r3, r3, #256
 795 006a 002B     		cmp	r3, #0
 796 006c 07D0     		beq	.L39
 268:C:/Users/49542/Desktop/GD32F30x_Demo_Suites_V2.0.0/GD32F30x_Demo_Suites_V2.0.0/GD32F30x_Firmware_Library/GD32F30x_standard_peripheral/Source\gd32f30x_adc.c ****         }
 797              		.loc 1 268 0
 798 006e FB68     		ldr	r3, [r7, #12]
 799 0070 0433     		adds	r3, r3, #4
 800 0072 1B68     		ldr	r3, [r3]
 801 0074 FA68     		ldr	r2, [r7, #12]
 802 0076 0432     		adds	r2, r2, #4
 803 0078 23F48073 		bic	r3, r3, #256
 804 007c 1360     		str	r3, [r2]
 805              	.L39:
 270:C:/Users/49542/Desktop/GD32F30x_Demo_Suites_V2.0.0/GD32F30x_Demo_Suites_V2.0.0/GD32F30x_Firmware_Library/GD32F30x_standard_peripheral/Source\gd32f30x_adc.c ****             ADC_CTL0(adc_periph) &= ~ADC_INSERTED_CHANNEL_AUTO;
 806              		.loc 1 270 0
 807 007e BB68     		ldr	r3, [r7, #8]
 808 0080 03F48063 		and	r3, r3, #1024
 809 0084 002B     		cmp	r3, #0
 810 0086 07D0     		beq	.L40
 271:C:/Users/49542/Desktop/GD32F30x_Demo_Suites_V2.0.0/GD32F30x_Demo_Suites_V2.0.0/GD32F30x_Firmware_Library/GD32F30x_standard_peripheral/Source\gd32f30x_adc.c ****         } 
ARM GAS  C:\Users\49542\AppData\Local\Temp\cctN87BC.s 			page 20


 811              		.loc 1 271 0
 812 0088 FB68     		ldr	r3, [r7, #12]
 813 008a 0433     		adds	r3, r3, #4
 814 008c 1B68     		ldr	r3, [r3]
 815 008e FA68     		ldr	r2, [r7, #12]
 816 0090 0432     		adds	r2, r2, #4
 817 0092 23F48063 		bic	r3, r3, #1024
 818 0096 1360     		str	r3, [r2]
 819              	.L40:
 273:C:/Users/49542/Desktop/GD32F30x_Demo_Suites_V2.0.0/GD32F30x_Demo_Suites_V2.0.0/GD32F30x_Firmware_Library/GD32F30x_standard_peripheral/Source\gd32f30x_adc.c ****             ADC_CTL1(adc_periph) &= ~ADC_CONTINUOUS_MODE;
 820              		.loc 1 273 0
 821 0098 BB68     		ldr	r3, [r7, #8]
 822 009a 03F00203 		and	r3, r3, #2
 823 009e 002B     		cmp	r3, #0
 824 00a0 07D0     		beq	.L41
 274:C:/Users/49542/Desktop/GD32F30x_Demo_Suites_V2.0.0/GD32F30x_Demo_Suites_V2.0.0/GD32F30x_Firmware_Library/GD32F30x_standard_peripheral/Source\gd32f30x_adc.c ****         }       
 825              		.loc 1 274 0
 826 00a2 FB68     		ldr	r3, [r7, #12]
 827 00a4 0833     		adds	r3, r3, #8
 828 00a6 1B68     		ldr	r3, [r3]
 829 00a8 FA68     		ldr	r2, [r7, #12]
 830 00aa 0832     		adds	r2, r2, #8
 831 00ac 23F00203 		bic	r3, r3, #2
 832 00b0 1360     		str	r3, [r2]
 833              	.L41:
 834              		.loc 1 277 0
 835 00b2 00BF     		nop
 836 00b4 1437     		adds	r7, r7, #20
 837              	.LCFI64:
 838              		.cfi_def_cfa_offset 4
 839 00b6 BD46     		mov	sp, r7
 840              	.LCFI65:
 841              		.cfi_def_cfa_register 13
 842              		@ sp needed
 843 00b8 5DF8047B 		ldr	r7, [sp], #4
 844              	.LCFI66:
 845              		.cfi_restore 7
 846              		.cfi_def_cfa_offset 0
 847 00bc 7047     		bx	lr
 848              		.cfi_endproc
 849              	.LFE127:
 851              		.section	.text.adc_data_alignment_config,"ax",%progbits
 852              		.align	1
 853              		.global	adc_data_alignment_config
 854              		.syntax unified
 855              		.thumb
 856              		.thumb_func
 857              		.fpu fpv4-sp-d16
 859              	adc_data_alignment_config:
 860              	.LFB128:
 278:C:/Users/49542/Desktop/GD32F30x_Demo_Suites_V2.0.0/GD32F30x_Demo_Suites_V2.0.0/GD32F30x_Firmware_Library/GD32F30x_standard_peripheral/Source\gd32f30x_adc.c **** 
 279:C:/Users/49542/Desktop/GD32F30x_Demo_Suites_V2.0.0/GD32F30x_Demo_Suites_V2.0.0/GD32F30x_Firmware_Library/GD32F30x_standard_peripheral/Source\gd32f30x_adc.c **** /*!
 280:C:/Users/49542/Desktop/GD32F30x_Demo_Suites_V2.0.0/GD32F30x_Demo_Suites_V2.0.0/GD32F30x_Firmware_Library/GD32F30x_standard_peripheral/Source\gd32f30x_adc.c ****     \brief      configure ADC data alignment 
 281:C:/Users/49542/Desktop/GD32F30x_Demo_Suites_V2.0.0/GD32F30x_Demo_Suites_V2.0.0/GD32F30x_Firmware_Library/GD32F30x_standard_peripheral/Source\gd32f30x_adc.c ****     \param[in]  adc_periph: ADCx,x=0,1,2
 282:C:/Users/49542/Desktop/GD32F30x_Demo_Suites_V2.0.0/GD32F30x_Demo_Suites_V2.0.0/GD32F30x_Firmware_Library/GD32F30x_standard_peripheral/Source\gd32f30x_adc.c ****                 only one among these parameters can be selected
 283:C:/Users/49542/Desktop/GD32F30x_Demo_Suites_V2.0.0/GD32F30x_Demo_Suites_V2.0.0/GD32F30x_Firmware_Library/GD32F30x_standard_peripheral/Source\gd32f30x_adc.c ****     \param[in]  data_alignment: data alignment select
 284:C:/Users/49542/Desktop/GD32F30x_Demo_Suites_V2.0.0/GD32F30x_Demo_Suites_V2.0.0/GD32F30x_Firmware_Library/GD32F30x_standard_peripheral/Source\gd32f30x_adc.c ****                 only one parameter can be selected
ARM GAS  C:\Users\49542\AppData\Local\Temp\cctN87BC.s 			page 21


 285:C:/Users/49542/Desktop/GD32F30x_Demo_Suites_V2.0.0/GD32F30x_Demo_Suites_V2.0.0/GD32F30x_Firmware_Library/GD32F30x_standard_peripheral/Source\gd32f30x_adc.c ****       \arg        ADC_DATAALIGN_RIGHT: LSB alignment
 286:C:/Users/49542/Desktop/GD32F30x_Demo_Suites_V2.0.0/GD32F30x_Demo_Suites_V2.0.0/GD32F30x_Firmware_Library/GD32F30x_standard_peripheral/Source\gd32f30x_adc.c ****       \arg        ADC_DATAALIGN_LEFT: MSB alignment
 287:C:/Users/49542/Desktop/GD32F30x_Demo_Suites_V2.0.0/GD32F30x_Demo_Suites_V2.0.0/GD32F30x_Firmware_Library/GD32F30x_standard_peripheral/Source\gd32f30x_adc.c ****     \param[out] none
 288:C:/Users/49542/Desktop/GD32F30x_Demo_Suites_V2.0.0/GD32F30x_Demo_Suites_V2.0.0/GD32F30x_Firmware_Library/GD32F30x_standard_peripheral/Source\gd32f30x_adc.c ****     \retval     none
 289:C:/Users/49542/Desktop/GD32F30x_Demo_Suites_V2.0.0/GD32F30x_Demo_Suites_V2.0.0/GD32F30x_Firmware_Library/GD32F30x_standard_peripheral/Source\gd32f30x_adc.c **** */
 290:C:/Users/49542/Desktop/GD32F30x_Demo_Suites_V2.0.0/GD32F30x_Demo_Suites_V2.0.0/GD32F30x_Firmware_Library/GD32F30x_standard_peripheral/Source\gd32f30x_adc.c **** void adc_data_alignment_config(uint32_t adc_periph , uint32_t data_alignment)
 291:C:/Users/49542/Desktop/GD32F30x_Demo_Suites_V2.0.0/GD32F30x_Demo_Suites_V2.0.0/GD32F30x_Firmware_Library/GD32F30x_standard_peripheral/Source\gd32f30x_adc.c **** {
 861              		.loc 1 291 0
 862              		.cfi_startproc
 863              		@ args = 0, pretend = 0, frame = 8
 864              		@ frame_needed = 1, uses_anonymous_args = 0
 865              		@ link register save eliminated.
 866 0000 80B4     		push	{r7}
 867              	.LCFI67:
 868              		.cfi_def_cfa_offset 4
 869              		.cfi_offset 7, -4
 870 0002 83B0     		sub	sp, sp, #12
 871              	.LCFI68:
 872              		.cfi_def_cfa_offset 16
 873 0004 00AF     		add	r7, sp, #0
 874              	.LCFI69:
 875              		.cfi_def_cfa_register 7
 876 0006 7860     		str	r0, [r7, #4]
 877 0008 3960     		str	r1, [r7]
 292:C:/Users/49542/Desktop/GD32F30x_Demo_Suites_V2.0.0/GD32F30x_Demo_Suites_V2.0.0/GD32F30x_Firmware_Library/GD32F30x_standard_peripheral/Source\gd32f30x_adc.c ****     if(ADC_DATAALIGN_RIGHT != data_alignment){
 878              		.loc 1 292 0
 879 000a 3B68     		ldr	r3, [r7]
 880 000c 002B     		cmp	r3, #0
 881 000e 08D0     		beq	.L43
 293:C:/Users/49542/Desktop/GD32F30x_Demo_Suites_V2.0.0/GD32F30x_Demo_Suites_V2.0.0/GD32F30x_Firmware_Library/GD32F30x_standard_peripheral/Source\gd32f30x_adc.c ****         ADC_CTL1(adc_periph) |= ADC_CTL1_DAL;
 882              		.loc 1 293 0
 883 0010 7B68     		ldr	r3, [r7, #4]
 884 0012 0833     		adds	r3, r3, #8
 885 0014 1B68     		ldr	r3, [r3]
 886 0016 7A68     		ldr	r2, [r7, #4]
 887 0018 0832     		adds	r2, r2, #8
 888 001a 43F40063 		orr	r3, r3, #2048
 889 001e 1360     		str	r3, [r2]
 294:C:/Users/49542/Desktop/GD32F30x_Demo_Suites_V2.0.0/GD32F30x_Demo_Suites_V2.0.0/GD32F30x_Firmware_Library/GD32F30x_standard_peripheral/Source\gd32f30x_adc.c ****     }else{
 295:C:/Users/49542/Desktop/GD32F30x_Demo_Suites_V2.0.0/GD32F30x_Demo_Suites_V2.0.0/GD32F30x_Firmware_Library/GD32F30x_standard_peripheral/Source\gd32f30x_adc.c ****         ADC_CTL1(adc_periph) &= ~((uint32_t)ADC_CTL1_DAL);
 296:C:/Users/49542/Desktop/GD32F30x_Demo_Suites_V2.0.0/GD32F30x_Demo_Suites_V2.0.0/GD32F30x_Firmware_Library/GD32F30x_standard_peripheral/Source\gd32f30x_adc.c ****     }
 297:C:/Users/49542/Desktop/GD32F30x_Demo_Suites_V2.0.0/GD32F30x_Demo_Suites_V2.0.0/GD32F30x_Firmware_Library/GD32F30x_standard_peripheral/Source\gd32f30x_adc.c **** }
 890              		.loc 1 297 0
 891 0020 07E0     		b	.L45
 892              	.L43:
 295:C:/Users/49542/Desktop/GD32F30x_Demo_Suites_V2.0.0/GD32F30x_Demo_Suites_V2.0.0/GD32F30x_Firmware_Library/GD32F30x_standard_peripheral/Source\gd32f30x_adc.c ****     }
 893              		.loc 1 295 0
 894 0022 7B68     		ldr	r3, [r7, #4]
 895 0024 0833     		adds	r3, r3, #8
 896 0026 1B68     		ldr	r3, [r3]
 897 0028 7A68     		ldr	r2, [r7, #4]
 898 002a 0832     		adds	r2, r2, #8
 899 002c 23F40063 		bic	r3, r3, #2048
 900 0030 1360     		str	r3, [r2]
 901              	.L45:
 902              		.loc 1 297 0
 903 0032 00BF     		nop
ARM GAS  C:\Users\49542\AppData\Local\Temp\cctN87BC.s 			page 22


 904 0034 0C37     		adds	r7, r7, #12
 905              	.LCFI70:
 906              		.cfi_def_cfa_offset 4
 907 0036 BD46     		mov	sp, r7
 908              	.LCFI71:
 909              		.cfi_def_cfa_register 13
 910              		@ sp needed
 911 0038 5DF8047B 		ldr	r7, [sp], #4
 912              	.LCFI72:
 913              		.cfi_restore 7
 914              		.cfi_def_cfa_offset 0
 915 003c 7047     		bx	lr
 916              		.cfi_endproc
 917              	.LFE128:
 919              		.section	.text.adc_channel_length_config,"ax",%progbits
 920              		.align	1
 921              		.global	adc_channel_length_config
 922              		.syntax unified
 923              		.thumb
 924              		.thumb_func
 925              		.fpu fpv4-sp-d16
 927              	adc_channel_length_config:
 928              	.LFB129:
 298:C:/Users/49542/Desktop/GD32F30x_Demo_Suites_V2.0.0/GD32F30x_Demo_Suites_V2.0.0/GD32F30x_Firmware_Library/GD32F30x_standard_peripheral/Source\gd32f30x_adc.c **** 
 299:C:/Users/49542/Desktop/GD32F30x_Demo_Suites_V2.0.0/GD32F30x_Demo_Suites_V2.0.0/GD32F30x_Firmware_Library/GD32F30x_standard_peripheral/Source\gd32f30x_adc.c **** /*!
 300:C:/Users/49542/Desktop/GD32F30x_Demo_Suites_V2.0.0/GD32F30x_Demo_Suites_V2.0.0/GD32F30x_Firmware_Library/GD32F30x_standard_peripheral/Source\gd32f30x_adc.c ****     \brief      configure the length of regular channel group or inserted channel group
 301:C:/Users/49542/Desktop/GD32F30x_Demo_Suites_V2.0.0/GD32F30x_Demo_Suites_V2.0.0/GD32F30x_Firmware_Library/GD32F30x_standard_peripheral/Source\gd32f30x_adc.c ****     \param[in]  adc_periph: ADCx,x=0,1,2
 302:C:/Users/49542/Desktop/GD32F30x_Demo_Suites_V2.0.0/GD32F30x_Demo_Suites_V2.0.0/GD32F30x_Firmware_Library/GD32F30x_standard_peripheral/Source\gd32f30x_adc.c ****                 only one among these parameters can be selected
 303:C:/Users/49542/Desktop/GD32F30x_Demo_Suites_V2.0.0/GD32F30x_Demo_Suites_V2.0.0/GD32F30x_Firmware_Library/GD32F30x_standard_peripheral/Source\gd32f30x_adc.c ****     \param[in]  adc_channel_group: select the channel group
 304:C:/Users/49542/Desktop/GD32F30x_Demo_Suites_V2.0.0/GD32F30x_Demo_Suites_V2.0.0/GD32F30x_Firmware_Library/GD32F30x_standard_peripheral/Source\gd32f30x_adc.c ****                 only one parameter can be selected
 305:C:/Users/49542/Desktop/GD32F30x_Demo_Suites_V2.0.0/GD32F30x_Demo_Suites_V2.0.0/GD32F30x_Firmware_Library/GD32F30x_standard_peripheral/Source\gd32f30x_adc.c ****       \arg        ADC_REGULAR_CHANNEL: regular channel group
 306:C:/Users/49542/Desktop/GD32F30x_Demo_Suites_V2.0.0/GD32F30x_Demo_Suites_V2.0.0/GD32F30x_Firmware_Library/GD32F30x_standard_peripheral/Source\gd32f30x_adc.c ****       \arg        ADC_INSERTED_CHANNEL: inserted channel group
 307:C:/Users/49542/Desktop/GD32F30x_Demo_Suites_V2.0.0/GD32F30x_Demo_Suites_V2.0.0/GD32F30x_Firmware_Library/GD32F30x_standard_peripheral/Source\gd32f30x_adc.c ****     \param[in]  length: the length of the channel
 308:C:/Users/49542/Desktop/GD32F30x_Demo_Suites_V2.0.0/GD32F30x_Demo_Suites_V2.0.0/GD32F30x_Firmware_Library/GD32F30x_standard_peripheral/Source\gd32f30x_adc.c ****                         regular channel 1-16
 309:C:/Users/49542/Desktop/GD32F30x_Demo_Suites_V2.0.0/GD32F30x_Demo_Suites_V2.0.0/GD32F30x_Firmware_Library/GD32F30x_standard_peripheral/Source\gd32f30x_adc.c ****                         inserted channel 1-4
 310:C:/Users/49542/Desktop/GD32F30x_Demo_Suites_V2.0.0/GD32F30x_Demo_Suites_V2.0.0/GD32F30x_Firmware_Library/GD32F30x_standard_peripheral/Source\gd32f30x_adc.c ****     \param[out] none
 311:C:/Users/49542/Desktop/GD32F30x_Demo_Suites_V2.0.0/GD32F30x_Demo_Suites_V2.0.0/GD32F30x_Firmware_Library/GD32F30x_standard_peripheral/Source\gd32f30x_adc.c ****     \retval     none
 312:C:/Users/49542/Desktop/GD32F30x_Demo_Suites_V2.0.0/GD32F30x_Demo_Suites_V2.0.0/GD32F30x_Firmware_Library/GD32F30x_standard_peripheral/Source\gd32f30x_adc.c **** */
 313:C:/Users/49542/Desktop/GD32F30x_Demo_Suites_V2.0.0/GD32F30x_Demo_Suites_V2.0.0/GD32F30x_Firmware_Library/GD32F30x_standard_peripheral/Source\gd32f30x_adc.c **** void adc_channel_length_config(uint32_t adc_periph, uint8_t adc_channel_group, uint32_t length)
 314:C:/Users/49542/Desktop/GD32F30x_Demo_Suites_V2.0.0/GD32F30x_Demo_Suites_V2.0.0/GD32F30x_Firmware_Library/GD32F30x_standard_peripheral/Source\gd32f30x_adc.c **** {
 929              		.loc 1 314 0
 930              		.cfi_startproc
 931              		@ args = 0, pretend = 0, frame = 16
 932              		@ frame_needed = 1, uses_anonymous_args = 0
 933              		@ link register save eliminated.
 934 0000 80B4     		push	{r7}
 935              	.LCFI73:
 936              		.cfi_def_cfa_offset 4
 937              		.cfi_offset 7, -4
 938 0002 85B0     		sub	sp, sp, #20
 939              	.LCFI74:
 940              		.cfi_def_cfa_offset 24
 941 0004 00AF     		add	r7, sp, #0
 942              	.LCFI75:
 943              		.cfi_def_cfa_register 7
 944 0006 F860     		str	r0, [r7, #12]
 945 0008 0B46     		mov	r3, r1
ARM GAS  C:\Users\49542\AppData\Local\Temp\cctN87BC.s 			page 23


 946 000a 7A60     		str	r2, [r7, #4]
 947 000c FB72     		strb	r3, [r7, #11]
 315:C:/Users/49542/Desktop/GD32F30x_Demo_Suites_V2.0.0/GD32F30x_Demo_Suites_V2.0.0/GD32F30x_Firmware_Library/GD32F30x_standard_peripheral/Source\gd32f30x_adc.c ****     switch(adc_channel_group){
 948              		.loc 1 315 0
 949 000e FB7A     		ldrb	r3, [r7, #11]	@ zero_extendqisi2
 950 0010 012B     		cmp	r3, #1
 951 0012 02D0     		beq	.L48
 952 0014 022B     		cmp	r3, #2
 953 0016 15D0     		beq	.L49
 316:C:/Users/49542/Desktop/GD32F30x_Demo_Suites_V2.0.0/GD32F30x_Demo_Suites_V2.0.0/GD32F30x_Firmware_Library/GD32F30x_standard_peripheral/Source\gd32f30x_adc.c ****     case ADC_REGULAR_CHANNEL:
 317:C:/Users/49542/Desktop/GD32F30x_Demo_Suites_V2.0.0/GD32F30x_Demo_Suites_V2.0.0/GD32F30x_Firmware_Library/GD32F30x_standard_peripheral/Source\gd32f30x_adc.c ****         ADC_RSQ0(adc_periph) &= ~((uint32_t)ADC_RSQ0_RL);
 318:C:/Users/49542/Desktop/GD32F30x_Demo_Suites_V2.0.0/GD32F30x_Demo_Suites_V2.0.0/GD32F30x_Firmware_Library/GD32F30x_standard_peripheral/Source\gd32f30x_adc.c ****         ADC_RSQ0(adc_periph) |= RSQ0_RL((uint32_t)(length-1U));
 319:C:/Users/49542/Desktop/GD32F30x_Demo_Suites_V2.0.0/GD32F30x_Demo_Suites_V2.0.0/GD32F30x_Firmware_Library/GD32F30x_standard_peripheral/Source\gd32f30x_adc.c **** 
 320:C:/Users/49542/Desktop/GD32F30x_Demo_Suites_V2.0.0/GD32F30x_Demo_Suites_V2.0.0/GD32F30x_Firmware_Library/GD32F30x_standard_peripheral/Source\gd32f30x_adc.c ****         break;
 321:C:/Users/49542/Desktop/GD32F30x_Demo_Suites_V2.0.0/GD32F30x_Demo_Suites_V2.0.0/GD32F30x_Firmware_Library/GD32F30x_standard_peripheral/Source\gd32f30x_adc.c ****     case ADC_INSERTED_CHANNEL:
 322:C:/Users/49542/Desktop/GD32F30x_Demo_Suites_V2.0.0/GD32F30x_Demo_Suites_V2.0.0/GD32F30x_Firmware_Library/GD32F30x_standard_peripheral/Source\gd32f30x_adc.c ****         ADC_ISQ(adc_periph) &= ~((uint32_t)ADC_ISQ_IL);
 323:C:/Users/49542/Desktop/GD32F30x_Demo_Suites_V2.0.0/GD32F30x_Demo_Suites_V2.0.0/GD32F30x_Firmware_Library/GD32F30x_standard_peripheral/Source\gd32f30x_adc.c ****         ADC_ISQ(adc_periph) |= ISQ_IL((uint32_t)(length-1U));
 324:C:/Users/49542/Desktop/GD32F30x_Demo_Suites_V2.0.0/GD32F30x_Demo_Suites_V2.0.0/GD32F30x_Firmware_Library/GD32F30x_standard_peripheral/Source\gd32f30x_adc.c ****     
 325:C:/Users/49542/Desktop/GD32F30x_Demo_Suites_V2.0.0/GD32F30x_Demo_Suites_V2.0.0/GD32F30x_Firmware_Library/GD32F30x_standard_peripheral/Source\gd32f30x_adc.c ****         break;
 326:C:/Users/49542/Desktop/GD32F30x_Demo_Suites_V2.0.0/GD32F30x_Demo_Suites_V2.0.0/GD32F30x_Firmware_Library/GD32F30x_standard_peripheral/Source\gd32f30x_adc.c ****     default:
 327:C:/Users/49542/Desktop/GD32F30x_Demo_Suites_V2.0.0/GD32F30x_Demo_Suites_V2.0.0/GD32F30x_Firmware_Library/GD32F30x_standard_peripheral/Source\gd32f30x_adc.c ****         break;
 954              		.loc 1 327 0
 955 0018 29E0     		b	.L50
 956              	.L48:
 317:C:/Users/49542/Desktop/GD32F30x_Demo_Suites_V2.0.0/GD32F30x_Demo_Suites_V2.0.0/GD32F30x_Firmware_Library/GD32F30x_standard_peripheral/Source\gd32f30x_adc.c ****         ADC_RSQ0(adc_periph) |= RSQ0_RL((uint32_t)(length-1U));
 957              		.loc 1 317 0
 958 001a FB68     		ldr	r3, [r7, #12]
 959 001c 2C33     		adds	r3, r3, #44
 960 001e 1B68     		ldr	r3, [r3]
 961 0020 FA68     		ldr	r2, [r7, #12]
 962 0022 2C32     		adds	r2, r2, #44
 963 0024 23F47003 		bic	r3, r3, #15728640
 964 0028 1360     		str	r3, [r2]
 318:C:/Users/49542/Desktop/GD32F30x_Demo_Suites_V2.0.0/GD32F30x_Demo_Suites_V2.0.0/GD32F30x_Firmware_Library/GD32F30x_standard_peripheral/Source\gd32f30x_adc.c **** 
 965              		.loc 1 318 0
 966 002a FB68     		ldr	r3, [r7, #12]
 967 002c 2C33     		adds	r3, r3, #44
 968 002e 1A68     		ldr	r2, [r3]
 969 0030 7B68     		ldr	r3, [r7, #4]
 970 0032 013B     		subs	r3, r3, #1
 971 0034 1B05     		lsls	r3, r3, #20
 972 0036 03F47003 		and	r3, r3, #15728640
 973 003a F968     		ldr	r1, [r7, #12]
 974 003c 2C31     		adds	r1, r1, #44
 975 003e 1343     		orrs	r3, r3, r2
 976 0040 0B60     		str	r3, [r1]
 320:C:/Users/49542/Desktop/GD32F30x_Demo_Suites_V2.0.0/GD32F30x_Demo_Suites_V2.0.0/GD32F30x_Firmware_Library/GD32F30x_standard_peripheral/Source\gd32f30x_adc.c ****     case ADC_INSERTED_CHANNEL:
 977              		.loc 1 320 0
 978 0042 14E0     		b	.L50
 979              	.L49:
 322:C:/Users/49542/Desktop/GD32F30x_Demo_Suites_V2.0.0/GD32F30x_Demo_Suites_V2.0.0/GD32F30x_Firmware_Library/GD32F30x_standard_peripheral/Source\gd32f30x_adc.c ****         ADC_ISQ(adc_periph) |= ISQ_IL((uint32_t)(length-1U));
 980              		.loc 1 322 0
 981 0044 FB68     		ldr	r3, [r7, #12]
 982 0046 3833     		adds	r3, r3, #56
 983 0048 1B68     		ldr	r3, [r3]
 984 004a FA68     		ldr	r2, [r7, #12]
 985 004c 3832     		adds	r2, r2, #56
ARM GAS  C:\Users\49542\AppData\Local\Temp\cctN87BC.s 			page 24


 986 004e 23F44013 		bic	r3, r3, #3145728
 987 0052 1360     		str	r3, [r2]
 323:C:/Users/49542/Desktop/GD32F30x_Demo_Suites_V2.0.0/GD32F30x_Demo_Suites_V2.0.0/GD32F30x_Firmware_Library/GD32F30x_standard_peripheral/Source\gd32f30x_adc.c ****     
 988              		.loc 1 323 0
 989 0054 FB68     		ldr	r3, [r7, #12]
 990 0056 3833     		adds	r3, r3, #56
 991 0058 1A68     		ldr	r2, [r3]
 992 005a 7B68     		ldr	r3, [r7, #4]
 993 005c 013B     		subs	r3, r3, #1
 994 005e 1B05     		lsls	r3, r3, #20
 995 0060 03F44013 		and	r3, r3, #3145728
 996 0064 F968     		ldr	r1, [r7, #12]
 997 0066 3831     		adds	r1, r1, #56
 998 0068 1343     		orrs	r3, r3, r2
 999 006a 0B60     		str	r3, [r1]
 325:C:/Users/49542/Desktop/GD32F30x_Demo_Suites_V2.0.0/GD32F30x_Demo_Suites_V2.0.0/GD32F30x_Firmware_Library/GD32F30x_standard_peripheral/Source\gd32f30x_adc.c ****     default:
 1000              		.loc 1 325 0
 1001 006c 00BF     		nop
 1002              	.L50:
 328:C:/Users/49542/Desktop/GD32F30x_Demo_Suites_V2.0.0/GD32F30x_Demo_Suites_V2.0.0/GD32F30x_Firmware_Library/GD32F30x_standard_peripheral/Source\gd32f30x_adc.c ****     }
 329:C:/Users/49542/Desktop/GD32F30x_Demo_Suites_V2.0.0/GD32F30x_Demo_Suites_V2.0.0/GD32F30x_Firmware_Library/GD32F30x_standard_peripheral/Source\gd32f30x_adc.c **** }
 1003              		.loc 1 329 0
 1004 006e 00BF     		nop
 1005 0070 1437     		adds	r7, r7, #20
 1006              	.LCFI76:
 1007              		.cfi_def_cfa_offset 4
 1008 0072 BD46     		mov	sp, r7
 1009              	.LCFI77:
 1010              		.cfi_def_cfa_register 13
 1011              		@ sp needed
 1012 0074 5DF8047B 		ldr	r7, [sp], #4
 1013              	.LCFI78:
 1014              		.cfi_restore 7
 1015              		.cfi_def_cfa_offset 0
 1016 0078 7047     		bx	lr
 1017              		.cfi_endproc
 1018              	.LFE129:
 1020              		.section	.text.adc_regular_channel_config,"ax",%progbits
 1021              		.align	1
 1022              		.global	adc_regular_channel_config
 1023              		.syntax unified
 1024              		.thumb
 1025              		.thumb_func
 1026              		.fpu fpv4-sp-d16
 1028              	adc_regular_channel_config:
 1029              	.LFB130:
 330:C:/Users/49542/Desktop/GD32F30x_Demo_Suites_V2.0.0/GD32F30x_Demo_Suites_V2.0.0/GD32F30x_Firmware_Library/GD32F30x_standard_peripheral/Source\gd32f30x_adc.c **** 
 331:C:/Users/49542/Desktop/GD32F30x_Demo_Suites_V2.0.0/GD32F30x_Demo_Suites_V2.0.0/GD32F30x_Firmware_Library/GD32F30x_standard_peripheral/Source\gd32f30x_adc.c **** /*!
 332:C:/Users/49542/Desktop/GD32F30x_Demo_Suites_V2.0.0/GD32F30x_Demo_Suites_V2.0.0/GD32F30x_Firmware_Library/GD32F30x_standard_peripheral/Source\gd32f30x_adc.c ****     \brief      configure ADC regular channel 
 333:C:/Users/49542/Desktop/GD32F30x_Demo_Suites_V2.0.0/GD32F30x_Demo_Suites_V2.0.0/GD32F30x_Firmware_Library/GD32F30x_standard_peripheral/Source\gd32f30x_adc.c ****     \param[in]  adc_periph: ADCx,x=0,1,2
 334:C:/Users/49542/Desktop/GD32F30x_Demo_Suites_V2.0.0/GD32F30x_Demo_Suites_V2.0.0/GD32F30x_Firmware_Library/GD32F30x_standard_peripheral/Source\gd32f30x_adc.c ****                 only one among these parameters can be selected
 335:C:/Users/49542/Desktop/GD32F30x_Demo_Suites_V2.0.0/GD32F30x_Demo_Suites_V2.0.0/GD32F30x_Firmware_Library/GD32F30x_standard_peripheral/Source\gd32f30x_adc.c ****     \param[in]  rank: the regular group sequence rank,this parameter must be between 0 to 15
 336:C:/Users/49542/Desktop/GD32F30x_Demo_Suites_V2.0.0/GD32F30x_Demo_Suites_V2.0.0/GD32F30x_Firmware_Library/GD32F30x_standard_peripheral/Source\gd32f30x_adc.c ****     \param[in]  adc_channel: the selected ADC channel
 337:C:/Users/49542/Desktop/GD32F30x_Demo_Suites_V2.0.0/GD32F30x_Demo_Suites_V2.0.0/GD32F30x_Firmware_Library/GD32F30x_standard_peripheral/Source\gd32f30x_adc.c ****                 only one among these parameters can be selected
 338:C:/Users/49542/Desktop/GD32F30x_Demo_Suites_V2.0.0/GD32F30x_Demo_Suites_V2.0.0/GD32F30x_Firmware_Library/GD32F30x_standard_peripheral/Source\gd32f30x_adc.c ****       \arg        ADC_CHANNEL_x(x=0..17)(x=16 and x=17 are only for ADC0): ADC Channelx 
 339:C:/Users/49542/Desktop/GD32F30x_Demo_Suites_V2.0.0/GD32F30x_Demo_Suites_V2.0.0/GD32F30x_Firmware_Library/GD32F30x_standard_peripheral/Source\gd32f30x_adc.c ****     \param[in]  sample_time: the sample time value
 340:C:/Users/49542/Desktop/GD32F30x_Demo_Suites_V2.0.0/GD32F30x_Demo_Suites_V2.0.0/GD32F30x_Firmware_Library/GD32F30x_standard_peripheral/Source\gd32f30x_adc.c ****                 only one parameter can be selected
ARM GAS  C:\Users\49542\AppData\Local\Temp\cctN87BC.s 			page 25


 341:C:/Users/49542/Desktop/GD32F30x_Demo_Suites_V2.0.0/GD32F30x_Demo_Suites_V2.0.0/GD32F30x_Firmware_Library/GD32F30x_standard_peripheral/Source\gd32f30x_adc.c ****       \arg        ADC_SAMPLETIME_1POINT5: 1.5 cycles
 342:C:/Users/49542/Desktop/GD32F30x_Demo_Suites_V2.0.0/GD32F30x_Demo_Suites_V2.0.0/GD32F30x_Firmware_Library/GD32F30x_standard_peripheral/Source\gd32f30x_adc.c ****       \arg        ADC_SAMPLETIME_7POINT5: 7.5 cycles
 343:C:/Users/49542/Desktop/GD32F30x_Demo_Suites_V2.0.0/GD32F30x_Demo_Suites_V2.0.0/GD32F30x_Firmware_Library/GD32F30x_standard_peripheral/Source\gd32f30x_adc.c ****       \arg        ADC_SAMPLETIME_13POINT5: 13.5 cycles
 344:C:/Users/49542/Desktop/GD32F30x_Demo_Suites_V2.0.0/GD32F30x_Demo_Suites_V2.0.0/GD32F30x_Firmware_Library/GD32F30x_standard_peripheral/Source\gd32f30x_adc.c ****       \arg        ADC_SAMPLETIME_28POINT5: 28.5 cycles
 345:C:/Users/49542/Desktop/GD32F30x_Demo_Suites_V2.0.0/GD32F30x_Demo_Suites_V2.0.0/GD32F30x_Firmware_Library/GD32F30x_standard_peripheral/Source\gd32f30x_adc.c ****       \arg        ADC_SAMPLETIME_41POINT5: 41.5 cycles
 346:C:/Users/49542/Desktop/GD32F30x_Demo_Suites_V2.0.0/GD32F30x_Demo_Suites_V2.0.0/GD32F30x_Firmware_Library/GD32F30x_standard_peripheral/Source\gd32f30x_adc.c ****       \arg        ADC_SAMPLETIME_55POINT5: 55.5 cycles
 347:C:/Users/49542/Desktop/GD32F30x_Demo_Suites_V2.0.0/GD32F30x_Demo_Suites_V2.0.0/GD32F30x_Firmware_Library/GD32F30x_standard_peripheral/Source\gd32f30x_adc.c ****       \arg        ADC_SAMPLETIME_71POINT5: 71.5 cycles
 348:C:/Users/49542/Desktop/GD32F30x_Demo_Suites_V2.0.0/GD32F30x_Demo_Suites_V2.0.0/GD32F30x_Firmware_Library/GD32F30x_standard_peripheral/Source\gd32f30x_adc.c ****       \arg        ADC_SAMPLETIME_239POINT5: 239.5 cycles
 349:C:/Users/49542/Desktop/GD32F30x_Demo_Suites_V2.0.0/GD32F30x_Demo_Suites_V2.0.0/GD32F30x_Firmware_Library/GD32F30x_standard_peripheral/Source\gd32f30x_adc.c ****     \param[out] none
 350:C:/Users/49542/Desktop/GD32F30x_Demo_Suites_V2.0.0/GD32F30x_Demo_Suites_V2.0.0/GD32F30x_Firmware_Library/GD32F30x_standard_peripheral/Source\gd32f30x_adc.c ****     \retval     none
 351:C:/Users/49542/Desktop/GD32F30x_Demo_Suites_V2.0.0/GD32F30x_Demo_Suites_V2.0.0/GD32F30x_Firmware_Library/GD32F30x_standard_peripheral/Source\gd32f30x_adc.c **** */
 352:C:/Users/49542/Desktop/GD32F30x_Demo_Suites_V2.0.0/GD32F30x_Demo_Suites_V2.0.0/GD32F30x_Firmware_Library/GD32F30x_standard_peripheral/Source\gd32f30x_adc.c **** void adc_regular_channel_config(uint32_t adc_periph , uint8_t rank , uint8_t adc_channel , uint32_t
 353:C:/Users/49542/Desktop/GD32F30x_Demo_Suites_V2.0.0/GD32F30x_Demo_Suites_V2.0.0/GD32F30x_Firmware_Library/GD32F30x_standard_peripheral/Source\gd32f30x_adc.c **** {
 1030              		.loc 1 353 0
 1031              		.cfi_startproc
 1032              		@ args = 0, pretend = 0, frame = 24
 1033              		@ frame_needed = 1, uses_anonymous_args = 0
 1034              		@ link register save eliminated.
 1035 0000 80B4     		push	{r7}
 1036              	.LCFI79:
 1037              		.cfi_def_cfa_offset 4
 1038              		.cfi_offset 7, -4
 1039 0002 87B0     		sub	sp, sp, #28
 1040              	.LCFI80:
 1041              		.cfi_def_cfa_offset 32
 1042 0004 00AF     		add	r7, sp, #0
 1043              	.LCFI81:
 1044              		.cfi_def_cfa_register 7
 1045 0006 F860     		str	r0, [r7, #12]
 1046 0008 7B60     		str	r3, [r7, #4]
 1047 000a 0B46     		mov	r3, r1
 1048 000c FB72     		strb	r3, [r7, #11]
 1049 000e 1346     		mov	r3, r2
 1050 0010 BB72     		strb	r3, [r7, #10]
 354:C:/Users/49542/Desktop/GD32F30x_Demo_Suites_V2.0.0/GD32F30x_Demo_Suites_V2.0.0/GD32F30x_Firmware_Library/GD32F30x_standard_peripheral/Source\gd32f30x_adc.c ****     uint32_t rsq,sampt;
 355:C:/Users/49542/Desktop/GD32F30x_Demo_Suites_V2.0.0/GD32F30x_Demo_Suites_V2.0.0/GD32F30x_Firmware_Library/GD32F30x_standard_peripheral/Source\gd32f30x_adc.c ****     
 356:C:/Users/49542/Desktop/GD32F30x_Demo_Suites_V2.0.0/GD32F30x_Demo_Suites_V2.0.0/GD32F30x_Firmware_Library/GD32F30x_standard_peripheral/Source\gd32f30x_adc.c ****     /* ADC regular sequence config */
 357:C:/Users/49542/Desktop/GD32F30x_Demo_Suites_V2.0.0/GD32F30x_Demo_Suites_V2.0.0/GD32F30x_Firmware_Library/GD32F30x_standard_peripheral/Source\gd32f30x_adc.c ****     if(rank < 6U){
 1051              		.loc 1 357 0
 1052 0012 FB7A     		ldrb	r3, [r7, #11]	@ zero_extendqisi2
 1053 0014 052B     		cmp	r3, #5
 1054 0016 1ED8     		bhi	.L52
 358:C:/Users/49542/Desktop/GD32F30x_Demo_Suites_V2.0.0/GD32F30x_Demo_Suites_V2.0.0/GD32F30x_Firmware_Library/GD32F30x_standard_peripheral/Source\gd32f30x_adc.c ****         rsq = ADC_RSQ2(adc_periph);
 1055              		.loc 1 358 0
 1056 0018 FB68     		ldr	r3, [r7, #12]
 1057 001a 3433     		adds	r3, r3, #52
 1058 001c 1B68     		ldr	r3, [r3]
 1059 001e 7B61     		str	r3, [r7, #20]
 359:C:/Users/49542/Desktop/GD32F30x_Demo_Suites_V2.0.0/GD32F30x_Demo_Suites_V2.0.0/GD32F30x_Firmware_Library/GD32F30x_standard_peripheral/Source\gd32f30x_adc.c ****         rsq &=  ~((uint32_t)(ADC_RSQX_RSQN << (5U*rank)));
 1060              		.loc 1 359 0
 1061 0020 FA7A     		ldrb	r2, [r7, #11]	@ zero_extendqisi2
 1062 0022 1346     		mov	r3, r2
 1063 0024 9B00     		lsls	r3, r3, #2
 1064 0026 1344     		add	r3, r3, r2
 1065 0028 1F22     		movs	r2, #31
 1066 002a 02FA03F3 		lsl	r3, r2, r3
 1067 002e DB43     		mvns	r3, r3
ARM GAS  C:\Users\49542\AppData\Local\Temp\cctN87BC.s 			page 26


 1068 0030 7A69     		ldr	r2, [r7, #20]
 1069 0032 1340     		ands	r3, r3, r2
 1070 0034 7B61     		str	r3, [r7, #20]
 360:C:/Users/49542/Desktop/GD32F30x_Demo_Suites_V2.0.0/GD32F30x_Demo_Suites_V2.0.0/GD32F30x_Firmware_Library/GD32F30x_standard_peripheral/Source\gd32f30x_adc.c ****         rsq |= ((uint32_t)adc_channel << (5U*rank));
 1071              		.loc 1 360 0
 1072 0036 B97A     		ldrb	r1, [r7, #10]	@ zero_extendqisi2
 1073 0038 FA7A     		ldrb	r2, [r7, #11]	@ zero_extendqisi2
 1074 003a 1346     		mov	r3, r2
 1075 003c 9B00     		lsls	r3, r3, #2
 1076 003e 1344     		add	r3, r3, r2
 1077 0040 01FA03F3 		lsl	r3, r1, r3
 1078 0044 7A69     		ldr	r2, [r7, #20]
 1079 0046 1343     		orrs	r3, r3, r2
 1080 0048 7B61     		str	r3, [r7, #20]
 361:C:/Users/49542/Desktop/GD32F30x_Demo_Suites_V2.0.0/GD32F30x_Demo_Suites_V2.0.0/GD32F30x_Firmware_Library/GD32F30x_standard_peripheral/Source\gd32f30x_adc.c ****         ADC_RSQ2(adc_periph) = rsq;
 1081              		.loc 1 361 0
 1082 004a FB68     		ldr	r3, [r7, #12]
 1083 004c 3433     		adds	r3, r3, #52
 1084 004e 1A46     		mov	r2, r3
 1085 0050 7B69     		ldr	r3, [r7, #20]
 1086 0052 1360     		str	r3, [r2]
 1087 0054 46E0     		b	.L53
 1088              	.L52:
 362:C:/Users/49542/Desktop/GD32F30x_Demo_Suites_V2.0.0/GD32F30x_Demo_Suites_V2.0.0/GD32F30x_Firmware_Library/GD32F30x_standard_peripheral/Source\gd32f30x_adc.c ****     }else if(rank < 12U){
 1089              		.loc 1 362 0
 1090 0056 FB7A     		ldrb	r3, [r7, #11]	@ zero_extendqisi2
 1091 0058 0B2B     		cmp	r3, #11
 1092 005a 20D8     		bhi	.L54
 363:C:/Users/49542/Desktop/GD32F30x_Demo_Suites_V2.0.0/GD32F30x_Demo_Suites_V2.0.0/GD32F30x_Firmware_Library/GD32F30x_standard_peripheral/Source\gd32f30x_adc.c ****         rsq = ADC_RSQ1(adc_periph);
 1093              		.loc 1 363 0
 1094 005c FB68     		ldr	r3, [r7, #12]
 1095 005e 3033     		adds	r3, r3, #48
 1096 0060 1B68     		ldr	r3, [r3]
 1097 0062 7B61     		str	r3, [r7, #20]
 364:C:/Users/49542/Desktop/GD32F30x_Demo_Suites_V2.0.0/GD32F30x_Demo_Suites_V2.0.0/GD32F30x_Firmware_Library/GD32F30x_standard_peripheral/Source\gd32f30x_adc.c ****         rsq &= ~((uint32_t)(ADC_RSQX_RSQN << (5U*(rank-6U))));
 1098              		.loc 1 364 0
 1099 0064 FA7A     		ldrb	r2, [r7, #11]	@ zero_extendqisi2
 1100 0066 1346     		mov	r3, r2
 1101 0068 9B00     		lsls	r3, r3, #2
 1102 006a 1344     		add	r3, r3, r2
 1103 006c 1E3B     		subs	r3, r3, #30
 1104 006e 1F22     		movs	r2, #31
 1105 0070 02FA03F3 		lsl	r3, r2, r3
 1106 0074 DB43     		mvns	r3, r3
 1107 0076 7A69     		ldr	r2, [r7, #20]
 1108 0078 1340     		ands	r3, r3, r2
 1109 007a 7B61     		str	r3, [r7, #20]
 365:C:/Users/49542/Desktop/GD32F30x_Demo_Suites_V2.0.0/GD32F30x_Demo_Suites_V2.0.0/GD32F30x_Firmware_Library/GD32F30x_standard_peripheral/Source\gd32f30x_adc.c ****         rsq |= ((uint32_t)adc_channel << (5U*(rank-6U)));
 1110              		.loc 1 365 0
 1111 007c B97A     		ldrb	r1, [r7, #10]	@ zero_extendqisi2
 1112 007e FA7A     		ldrb	r2, [r7, #11]	@ zero_extendqisi2
 1113 0080 1346     		mov	r3, r2
 1114 0082 9B00     		lsls	r3, r3, #2
 1115 0084 1344     		add	r3, r3, r2
 1116 0086 1E3B     		subs	r3, r3, #30
 1117 0088 01FA03F3 		lsl	r3, r1, r3
 1118 008c 7A69     		ldr	r2, [r7, #20]
ARM GAS  C:\Users\49542\AppData\Local\Temp\cctN87BC.s 			page 27


 1119 008e 1343     		orrs	r3, r3, r2
 1120 0090 7B61     		str	r3, [r7, #20]
 366:C:/Users/49542/Desktop/GD32F30x_Demo_Suites_V2.0.0/GD32F30x_Demo_Suites_V2.0.0/GD32F30x_Firmware_Library/GD32F30x_standard_peripheral/Source\gd32f30x_adc.c ****         ADC_RSQ1(adc_periph) = rsq;
 1121              		.loc 1 366 0
 1122 0092 FB68     		ldr	r3, [r7, #12]
 1123 0094 3033     		adds	r3, r3, #48
 1124 0096 1A46     		mov	r2, r3
 1125 0098 7B69     		ldr	r3, [r7, #20]
 1126 009a 1360     		str	r3, [r2]
 1127 009c 22E0     		b	.L53
 1128              	.L54:
 367:C:/Users/49542/Desktop/GD32F30x_Demo_Suites_V2.0.0/GD32F30x_Demo_Suites_V2.0.0/GD32F30x_Firmware_Library/GD32F30x_standard_peripheral/Source\gd32f30x_adc.c ****     }else if(rank < 16U){
 1129              		.loc 1 367 0
 1130 009e FB7A     		ldrb	r3, [r7, #11]	@ zero_extendqisi2
 1131 00a0 0F2B     		cmp	r3, #15
 1132 00a2 1FD8     		bhi	.L53
 368:C:/Users/49542/Desktop/GD32F30x_Demo_Suites_V2.0.0/GD32F30x_Demo_Suites_V2.0.0/GD32F30x_Firmware_Library/GD32F30x_standard_peripheral/Source\gd32f30x_adc.c ****         rsq = ADC_RSQ0(adc_periph);
 1133              		.loc 1 368 0
 1134 00a4 FB68     		ldr	r3, [r7, #12]
 1135 00a6 2C33     		adds	r3, r3, #44
 1136 00a8 1B68     		ldr	r3, [r3]
 1137 00aa 7B61     		str	r3, [r7, #20]
 369:C:/Users/49542/Desktop/GD32F30x_Demo_Suites_V2.0.0/GD32F30x_Demo_Suites_V2.0.0/GD32F30x_Firmware_Library/GD32F30x_standard_peripheral/Source\gd32f30x_adc.c ****         rsq &= ~((uint32_t)(ADC_RSQX_RSQN << (5U*(rank-12U))));
 1138              		.loc 1 369 0
 1139 00ac FA7A     		ldrb	r2, [r7, #11]	@ zero_extendqisi2
 1140 00ae 1346     		mov	r3, r2
 1141 00b0 9B00     		lsls	r3, r3, #2
 1142 00b2 1344     		add	r3, r3, r2
 1143 00b4 3C3B     		subs	r3, r3, #60
 1144 00b6 1F22     		movs	r2, #31
 1145 00b8 02FA03F3 		lsl	r3, r2, r3
 1146 00bc DB43     		mvns	r3, r3
 1147 00be 7A69     		ldr	r2, [r7, #20]
 1148 00c0 1340     		ands	r3, r3, r2
 1149 00c2 7B61     		str	r3, [r7, #20]
 370:C:/Users/49542/Desktop/GD32F30x_Demo_Suites_V2.0.0/GD32F30x_Demo_Suites_V2.0.0/GD32F30x_Firmware_Library/GD32F30x_standard_peripheral/Source\gd32f30x_adc.c ****         rsq |= ((uint32_t)adc_channel << (5U*(rank-12U)));
 1150              		.loc 1 370 0
 1151 00c4 B97A     		ldrb	r1, [r7, #10]	@ zero_extendqisi2
 1152 00c6 FA7A     		ldrb	r2, [r7, #11]	@ zero_extendqisi2
 1153 00c8 1346     		mov	r3, r2
 1154 00ca 9B00     		lsls	r3, r3, #2
 1155 00cc 1344     		add	r3, r3, r2
 1156 00ce 3C3B     		subs	r3, r3, #60
 1157 00d0 01FA03F3 		lsl	r3, r1, r3
 1158 00d4 7A69     		ldr	r2, [r7, #20]
 1159 00d6 1343     		orrs	r3, r3, r2
 1160 00d8 7B61     		str	r3, [r7, #20]
 371:C:/Users/49542/Desktop/GD32F30x_Demo_Suites_V2.0.0/GD32F30x_Demo_Suites_V2.0.0/GD32F30x_Firmware_Library/GD32F30x_standard_peripheral/Source\gd32f30x_adc.c ****         ADC_RSQ0(adc_periph) = rsq;
 1161              		.loc 1 371 0
 1162 00da FB68     		ldr	r3, [r7, #12]
 1163 00dc 2C33     		adds	r3, r3, #44
 1164 00de 1A46     		mov	r2, r3
 1165 00e0 7B69     		ldr	r3, [r7, #20]
 1166 00e2 1360     		str	r3, [r2]
 1167              	.L53:
 372:C:/Users/49542/Desktop/GD32F30x_Demo_Suites_V2.0.0/GD32F30x_Demo_Suites_V2.0.0/GD32F30x_Firmware_Library/GD32F30x_standard_peripheral/Source\gd32f30x_adc.c ****     }else{
 373:C:/Users/49542/Desktop/GD32F30x_Demo_Suites_V2.0.0/GD32F30x_Demo_Suites_V2.0.0/GD32F30x_Firmware_Library/GD32F30x_standard_peripheral/Source\gd32f30x_adc.c ****     }
ARM GAS  C:\Users\49542\AppData\Local\Temp\cctN87BC.s 			page 28


 374:C:/Users/49542/Desktop/GD32F30x_Demo_Suites_V2.0.0/GD32F30x_Demo_Suites_V2.0.0/GD32F30x_Firmware_Library/GD32F30x_standard_peripheral/Source\gd32f30x_adc.c ****     
 375:C:/Users/49542/Desktop/GD32F30x_Demo_Suites_V2.0.0/GD32F30x_Demo_Suites_V2.0.0/GD32F30x_Firmware_Library/GD32F30x_standard_peripheral/Source\gd32f30x_adc.c ****     /* ADC sampling time config */
 376:C:/Users/49542/Desktop/GD32F30x_Demo_Suites_V2.0.0/GD32F30x_Demo_Suites_V2.0.0/GD32F30x_Firmware_Library/GD32F30x_standard_peripheral/Source\gd32f30x_adc.c ****     if(adc_channel < 10U){
 1168              		.loc 1 376 0
 1169 00e4 BB7A     		ldrb	r3, [r7, #10]	@ zero_extendqisi2
 1170 00e6 092B     		cmp	r3, #9
 1171 00e8 1ED8     		bhi	.L55
 377:C:/Users/49542/Desktop/GD32F30x_Demo_Suites_V2.0.0/GD32F30x_Demo_Suites_V2.0.0/GD32F30x_Firmware_Library/GD32F30x_standard_peripheral/Source\gd32f30x_adc.c ****         sampt = ADC_SAMPT1(adc_periph);
 1172              		.loc 1 377 0
 1173 00ea FB68     		ldr	r3, [r7, #12]
 1174 00ec 1033     		adds	r3, r3, #16
 1175 00ee 1B68     		ldr	r3, [r3]
 1176 00f0 3B61     		str	r3, [r7, #16]
 378:C:/Users/49542/Desktop/GD32F30x_Demo_Suites_V2.0.0/GD32F30x_Demo_Suites_V2.0.0/GD32F30x_Firmware_Library/GD32F30x_standard_peripheral/Source\gd32f30x_adc.c ****         sampt &= ~((uint32_t)(ADC_SAMPTX_SPTN << (3U*adc_channel)));
 1177              		.loc 1 378 0
 1178 00f2 BA7A     		ldrb	r2, [r7, #10]	@ zero_extendqisi2
 1179 00f4 1346     		mov	r3, r2
 1180 00f6 5B00     		lsls	r3, r3, #1
 1181 00f8 1344     		add	r3, r3, r2
 1182 00fa 0722     		movs	r2, #7
 1183 00fc 02FA03F3 		lsl	r3, r2, r3
 1184 0100 DB43     		mvns	r3, r3
 1185 0102 3A69     		ldr	r2, [r7, #16]
 1186 0104 1340     		ands	r3, r3, r2
 1187 0106 3B61     		str	r3, [r7, #16]
 379:C:/Users/49542/Desktop/GD32F30x_Demo_Suites_V2.0.0/GD32F30x_Demo_Suites_V2.0.0/GD32F30x_Firmware_Library/GD32F30x_standard_peripheral/Source\gd32f30x_adc.c ****         sampt |= (uint32_t)(sample_time << (3U*adc_channel));
 1188              		.loc 1 379 0
 1189 0108 BA7A     		ldrb	r2, [r7, #10]	@ zero_extendqisi2
 1190 010a 1346     		mov	r3, r2
 1191 010c 5B00     		lsls	r3, r3, #1
 1192 010e 1344     		add	r3, r3, r2
 1193 0110 7A68     		ldr	r2, [r7, #4]
 1194 0112 02FA03F3 		lsl	r3, r2, r3
 1195 0116 3A69     		ldr	r2, [r7, #16]
 1196 0118 1343     		orrs	r3, r3, r2
 1197 011a 3B61     		str	r3, [r7, #16]
 380:C:/Users/49542/Desktop/GD32F30x_Demo_Suites_V2.0.0/GD32F30x_Demo_Suites_V2.0.0/GD32F30x_Firmware_Library/GD32F30x_standard_peripheral/Source\gd32f30x_adc.c ****         ADC_SAMPT1(adc_periph) = sampt;
 1198              		.loc 1 380 0
 1199 011c FB68     		ldr	r3, [r7, #12]
 1200 011e 1033     		adds	r3, r3, #16
 1201 0120 1A46     		mov	r2, r3
 1202 0122 3B69     		ldr	r3, [r7, #16]
 1203 0124 1360     		str	r3, [r2]
 381:C:/Users/49542/Desktop/GD32F30x_Demo_Suites_V2.0.0/GD32F30x_Demo_Suites_V2.0.0/GD32F30x_Firmware_Library/GD32F30x_standard_peripheral/Source\gd32f30x_adc.c ****     }else if(adc_channel < 18U){
 382:C:/Users/49542/Desktop/GD32F30x_Demo_Suites_V2.0.0/GD32F30x_Demo_Suites_V2.0.0/GD32F30x_Firmware_Library/GD32F30x_standard_peripheral/Source\gd32f30x_adc.c ****         sampt = ADC_SAMPT0(adc_periph);
 383:C:/Users/49542/Desktop/GD32F30x_Demo_Suites_V2.0.0/GD32F30x_Demo_Suites_V2.0.0/GD32F30x_Firmware_Library/GD32F30x_standard_peripheral/Source\gd32f30x_adc.c ****         sampt &= ~((uint32_t)(ADC_SAMPTX_SPTN << (3U*(adc_channel-10U))));
 384:C:/Users/49542/Desktop/GD32F30x_Demo_Suites_V2.0.0/GD32F30x_Demo_Suites_V2.0.0/GD32F30x_Firmware_Library/GD32F30x_standard_peripheral/Source\gd32f30x_adc.c ****         sampt |= (uint32_t)(sample_time << (3U*(adc_channel-10U)));
 385:C:/Users/49542/Desktop/GD32F30x_Demo_Suites_V2.0.0/GD32F30x_Demo_Suites_V2.0.0/GD32F30x_Firmware_Library/GD32F30x_standard_peripheral/Source\gd32f30x_adc.c ****         ADC_SAMPT0(adc_periph) = sampt;
 386:C:/Users/49542/Desktop/GD32F30x_Demo_Suites_V2.0.0/GD32F30x_Demo_Suites_V2.0.0/GD32F30x_Firmware_Library/GD32F30x_standard_peripheral/Source\gd32f30x_adc.c ****     }else{
 387:C:/Users/49542/Desktop/GD32F30x_Demo_Suites_V2.0.0/GD32F30x_Demo_Suites_V2.0.0/GD32F30x_Firmware_Library/GD32F30x_standard_peripheral/Source\gd32f30x_adc.c ****     }
 388:C:/Users/49542/Desktop/GD32F30x_Demo_Suites_V2.0.0/GD32F30x_Demo_Suites_V2.0.0/GD32F30x_Firmware_Library/GD32F30x_standard_peripheral/Source\gd32f30x_adc.c **** }
 1204              		.loc 1 388 0
 1205 0126 22E0     		b	.L57
 1206              	.L55:
 381:C:/Users/49542/Desktop/GD32F30x_Demo_Suites_V2.0.0/GD32F30x_Demo_Suites_V2.0.0/GD32F30x_Firmware_Library/GD32F30x_standard_peripheral/Source\gd32f30x_adc.c ****     }else if(adc_channel < 18U){
 1207              		.loc 1 381 0
 1208 0128 BB7A     		ldrb	r3, [r7, #10]	@ zero_extendqisi2
ARM GAS  C:\Users\49542\AppData\Local\Temp\cctN87BC.s 			page 29


 1209 012a 112B     		cmp	r3, #17
 1210 012c 1FD8     		bhi	.L57
 382:C:/Users/49542/Desktop/GD32F30x_Demo_Suites_V2.0.0/GD32F30x_Demo_Suites_V2.0.0/GD32F30x_Firmware_Library/GD32F30x_standard_peripheral/Source\gd32f30x_adc.c ****         sampt &= ~((uint32_t)(ADC_SAMPTX_SPTN << (3U*(adc_channel-10U))));
 1211              		.loc 1 382 0
 1212 012e FB68     		ldr	r3, [r7, #12]
 1213 0130 0C33     		adds	r3, r3, #12
 1214 0132 1B68     		ldr	r3, [r3]
 1215 0134 3B61     		str	r3, [r7, #16]
 383:C:/Users/49542/Desktop/GD32F30x_Demo_Suites_V2.0.0/GD32F30x_Demo_Suites_V2.0.0/GD32F30x_Firmware_Library/GD32F30x_standard_peripheral/Source\gd32f30x_adc.c ****         sampt |= (uint32_t)(sample_time << (3U*(adc_channel-10U)));
 1216              		.loc 1 383 0
 1217 0136 BA7A     		ldrb	r2, [r7, #10]	@ zero_extendqisi2
 1218 0138 1346     		mov	r3, r2
 1219 013a 5B00     		lsls	r3, r3, #1
 1220 013c 1344     		add	r3, r3, r2
 1221 013e 1E3B     		subs	r3, r3, #30
 1222 0140 0722     		movs	r2, #7
 1223 0142 02FA03F3 		lsl	r3, r2, r3
 1224 0146 DB43     		mvns	r3, r3
 1225 0148 3A69     		ldr	r2, [r7, #16]
 1226 014a 1340     		ands	r3, r3, r2
 1227 014c 3B61     		str	r3, [r7, #16]
 384:C:/Users/49542/Desktop/GD32F30x_Demo_Suites_V2.0.0/GD32F30x_Demo_Suites_V2.0.0/GD32F30x_Firmware_Library/GD32F30x_standard_peripheral/Source\gd32f30x_adc.c ****         ADC_SAMPT0(adc_periph) = sampt;
 1228              		.loc 1 384 0
 1229 014e BA7A     		ldrb	r2, [r7, #10]	@ zero_extendqisi2
 1230 0150 1346     		mov	r3, r2
 1231 0152 5B00     		lsls	r3, r3, #1
 1232 0154 1344     		add	r3, r3, r2
 1233 0156 1E3B     		subs	r3, r3, #30
 1234 0158 7A68     		ldr	r2, [r7, #4]
 1235 015a 02FA03F3 		lsl	r3, r2, r3
 1236 015e 3A69     		ldr	r2, [r7, #16]
 1237 0160 1343     		orrs	r3, r3, r2
 1238 0162 3B61     		str	r3, [r7, #16]
 385:C:/Users/49542/Desktop/GD32F30x_Demo_Suites_V2.0.0/GD32F30x_Demo_Suites_V2.0.0/GD32F30x_Firmware_Library/GD32F30x_standard_peripheral/Source\gd32f30x_adc.c ****     }else{
 1239              		.loc 1 385 0
 1240 0164 FB68     		ldr	r3, [r7, #12]
 1241 0166 0C33     		adds	r3, r3, #12
 1242 0168 1A46     		mov	r2, r3
 1243 016a 3B69     		ldr	r3, [r7, #16]
 1244 016c 1360     		str	r3, [r2]
 1245              	.L57:
 1246              		.loc 1 388 0
 1247 016e 00BF     		nop
 1248 0170 1C37     		adds	r7, r7, #28
 1249              	.LCFI82:
 1250              		.cfi_def_cfa_offset 4
 1251 0172 BD46     		mov	sp, r7
 1252              	.LCFI83:
 1253              		.cfi_def_cfa_register 13
 1254              		@ sp needed
 1255 0174 5DF8047B 		ldr	r7, [sp], #4
 1256              	.LCFI84:
 1257              		.cfi_restore 7
 1258              		.cfi_def_cfa_offset 0
 1259 0178 7047     		bx	lr
 1260              		.cfi_endproc
 1261              	.LFE130:
ARM GAS  C:\Users\49542\AppData\Local\Temp\cctN87BC.s 			page 30


 1263              		.section	.text.adc_inserted_channel_config,"ax",%progbits
 1264              		.align	1
 1265              		.global	adc_inserted_channel_config
 1266              		.syntax unified
 1267              		.thumb
 1268              		.thumb_func
 1269              		.fpu fpv4-sp-d16
 1271              	adc_inserted_channel_config:
 1272              	.LFB131:
 389:C:/Users/49542/Desktop/GD32F30x_Demo_Suites_V2.0.0/GD32F30x_Demo_Suites_V2.0.0/GD32F30x_Firmware_Library/GD32F30x_standard_peripheral/Source\gd32f30x_adc.c **** 
 390:C:/Users/49542/Desktop/GD32F30x_Demo_Suites_V2.0.0/GD32F30x_Demo_Suites_V2.0.0/GD32F30x_Firmware_Library/GD32F30x_standard_peripheral/Source\gd32f30x_adc.c **** /*!
 391:C:/Users/49542/Desktop/GD32F30x_Demo_Suites_V2.0.0/GD32F30x_Demo_Suites_V2.0.0/GD32F30x_Firmware_Library/GD32F30x_standard_peripheral/Source\gd32f30x_adc.c ****     \brief      configure ADC inserted channel 
 392:C:/Users/49542/Desktop/GD32F30x_Demo_Suites_V2.0.0/GD32F30x_Demo_Suites_V2.0.0/GD32F30x_Firmware_Library/GD32F30x_standard_peripheral/Source\gd32f30x_adc.c ****     \param[in]  adc_periph: ADCx,x=0,1,2
 393:C:/Users/49542/Desktop/GD32F30x_Demo_Suites_V2.0.0/GD32F30x_Demo_Suites_V2.0.0/GD32F30x_Firmware_Library/GD32F30x_standard_peripheral/Source\gd32f30x_adc.c ****                 only one among these parameters can be selected
 394:C:/Users/49542/Desktop/GD32F30x_Demo_Suites_V2.0.0/GD32F30x_Demo_Suites_V2.0.0/GD32F30x_Firmware_Library/GD32F30x_standard_peripheral/Source\gd32f30x_adc.c ****     \param[in]  rank: the inserted group sequencer rank,this parameter must be between 0 to 3
 395:C:/Users/49542/Desktop/GD32F30x_Demo_Suites_V2.0.0/GD32F30x_Demo_Suites_V2.0.0/GD32F30x_Firmware_Library/GD32F30x_standard_peripheral/Source\gd32f30x_adc.c ****     \param[in]  adc_channel: the selected ADC channel
 396:C:/Users/49542/Desktop/GD32F30x_Demo_Suites_V2.0.0/GD32F30x_Demo_Suites_V2.0.0/GD32F30x_Firmware_Library/GD32F30x_standard_peripheral/Source\gd32f30x_adc.c ****                 only one among these parameters can be selected
 397:C:/Users/49542/Desktop/GD32F30x_Demo_Suites_V2.0.0/GD32F30x_Demo_Suites_V2.0.0/GD32F30x_Firmware_Library/GD32F30x_standard_peripheral/Source\gd32f30x_adc.c ****       \arg        ADC_CHANNEL_x(x=0..17)(x=16 and x=17 are only for ADC0): ADC Channelx
 398:C:/Users/49542/Desktop/GD32F30x_Demo_Suites_V2.0.0/GD32F30x_Demo_Suites_V2.0.0/GD32F30x_Firmware_Library/GD32F30x_standard_peripheral/Source\gd32f30x_adc.c ****     \param[in]  sample_time: The sample time value
 399:C:/Users/49542/Desktop/GD32F30x_Demo_Suites_V2.0.0/GD32F30x_Demo_Suites_V2.0.0/GD32F30x_Firmware_Library/GD32F30x_standard_peripheral/Source\gd32f30x_adc.c ****                 only one parameter can be selected
 400:C:/Users/49542/Desktop/GD32F30x_Demo_Suites_V2.0.0/GD32F30x_Demo_Suites_V2.0.0/GD32F30x_Firmware_Library/GD32F30x_standard_peripheral/Source\gd32f30x_adc.c ****       \arg        ADC_SAMPLETIME_1POINT5: 1.5 cycles
 401:C:/Users/49542/Desktop/GD32F30x_Demo_Suites_V2.0.0/GD32F30x_Demo_Suites_V2.0.0/GD32F30x_Firmware_Library/GD32F30x_standard_peripheral/Source\gd32f30x_adc.c ****       \arg        ADC_SAMPLETIME_7POINT5: 7.5 cycles
 402:C:/Users/49542/Desktop/GD32F30x_Demo_Suites_V2.0.0/GD32F30x_Demo_Suites_V2.0.0/GD32F30x_Firmware_Library/GD32F30x_standard_peripheral/Source\gd32f30x_adc.c ****       \arg        ADC_SAMPLETIME_13POINT5: 13.5 cycles
 403:C:/Users/49542/Desktop/GD32F30x_Demo_Suites_V2.0.0/GD32F30x_Demo_Suites_V2.0.0/GD32F30x_Firmware_Library/GD32F30x_standard_peripheral/Source\gd32f30x_adc.c ****       \arg        ADC_SAMPLETIME_28POINT5: 28.5 cycles
 404:C:/Users/49542/Desktop/GD32F30x_Demo_Suites_V2.0.0/GD32F30x_Demo_Suites_V2.0.0/GD32F30x_Firmware_Library/GD32F30x_standard_peripheral/Source\gd32f30x_adc.c ****       \arg        ADC_SAMPLETIME_41POINT5: 41.5 cycles
 405:C:/Users/49542/Desktop/GD32F30x_Demo_Suites_V2.0.0/GD32F30x_Demo_Suites_V2.0.0/GD32F30x_Firmware_Library/GD32F30x_standard_peripheral/Source\gd32f30x_adc.c ****       \arg        ADC_SAMPLETIME_55POINT5: 55.5 cycles
 406:C:/Users/49542/Desktop/GD32F30x_Demo_Suites_V2.0.0/GD32F30x_Demo_Suites_V2.0.0/GD32F30x_Firmware_Library/GD32F30x_standard_peripheral/Source\gd32f30x_adc.c ****       \arg        ADC_SAMPLETIME_71POINT5: 71.5 cycles
 407:C:/Users/49542/Desktop/GD32F30x_Demo_Suites_V2.0.0/GD32F30x_Demo_Suites_V2.0.0/GD32F30x_Firmware_Library/GD32F30x_standard_peripheral/Source\gd32f30x_adc.c ****       \arg        ADC_SAMPLETIME_239POINT5: 239.5 cycles
 408:C:/Users/49542/Desktop/GD32F30x_Demo_Suites_V2.0.0/GD32F30x_Demo_Suites_V2.0.0/GD32F30x_Firmware_Library/GD32F30x_standard_peripheral/Source\gd32f30x_adc.c ****     \param[out] none
 409:C:/Users/49542/Desktop/GD32F30x_Demo_Suites_V2.0.0/GD32F30x_Demo_Suites_V2.0.0/GD32F30x_Firmware_Library/GD32F30x_standard_peripheral/Source\gd32f30x_adc.c ****     \retval     none
 410:C:/Users/49542/Desktop/GD32F30x_Demo_Suites_V2.0.0/GD32F30x_Demo_Suites_V2.0.0/GD32F30x_Firmware_Library/GD32F30x_standard_peripheral/Source\gd32f30x_adc.c **** */
 411:C:/Users/49542/Desktop/GD32F30x_Demo_Suites_V2.0.0/GD32F30x_Demo_Suites_V2.0.0/GD32F30x_Firmware_Library/GD32F30x_standard_peripheral/Source\gd32f30x_adc.c **** void adc_inserted_channel_config(uint32_t adc_periph , uint8_t rank , uint8_t adc_channel , uint32_
 412:C:/Users/49542/Desktop/GD32F30x_Demo_Suites_V2.0.0/GD32F30x_Demo_Suites_V2.0.0/GD32F30x_Firmware_Library/GD32F30x_standard_peripheral/Source\gd32f30x_adc.c **** {
 1273              		.loc 1 412 0
 1274              		.cfi_startproc
 1275              		@ args = 0, pretend = 0, frame = 32
 1276              		@ frame_needed = 1, uses_anonymous_args = 0
 1277              		@ link register save eliminated.
 1278 0000 80B4     		push	{r7}
 1279              	.LCFI85:
 1280              		.cfi_def_cfa_offset 4
 1281              		.cfi_offset 7, -4
 1282 0002 89B0     		sub	sp, sp, #36
 1283              	.LCFI86:
 1284              		.cfi_def_cfa_offset 40
 1285 0004 00AF     		add	r7, sp, #0
 1286              	.LCFI87:
 1287              		.cfi_def_cfa_register 7
 1288 0006 F860     		str	r0, [r7, #12]
 1289 0008 7B60     		str	r3, [r7, #4]
 1290 000a 0B46     		mov	r3, r1
 1291 000c FB72     		strb	r3, [r7, #11]
 1292 000e 1346     		mov	r3, r2
 1293 0010 BB72     		strb	r3, [r7, #10]
 413:C:/Users/49542/Desktop/GD32F30x_Demo_Suites_V2.0.0/GD32F30x_Demo_Suites_V2.0.0/GD32F30x_Firmware_Library/GD32F30x_standard_peripheral/Source\gd32f30x_adc.c ****     uint8_t inserted_length;
 414:C:/Users/49542/Desktop/GD32F30x_Demo_Suites_V2.0.0/GD32F30x_Demo_Suites_V2.0.0/GD32F30x_Firmware_Library/GD32F30x_standard_peripheral/Source\gd32f30x_adc.c ****     uint32_t isq,sampt;
 415:C:/Users/49542/Desktop/GD32F30x_Demo_Suites_V2.0.0/GD32F30x_Demo_Suites_V2.0.0/GD32F30x_Firmware_Library/GD32F30x_standard_peripheral/Source\gd32f30x_adc.c **** 
ARM GAS  C:\Users\49542\AppData\Local\Temp\cctN87BC.s 			page 31


 416:C:/Users/49542/Desktop/GD32F30x_Demo_Suites_V2.0.0/GD32F30x_Demo_Suites_V2.0.0/GD32F30x_Firmware_Library/GD32F30x_standard_peripheral/Source\gd32f30x_adc.c ****     inserted_length = (uint8_t)GET_BITS(ADC_ISQ(adc_periph) , 20U , 21U);
 1294              		.loc 1 416 0
 1295 0012 FB68     		ldr	r3, [r7, #12]
 1296 0014 3833     		adds	r3, r3, #56
 1297 0016 1B68     		ldr	r3, [r3]
 1298 0018 1B0D     		lsrs	r3, r3, #20
 1299 001a DBB2     		uxtb	r3, r3
 1300 001c 03F00303 		and	r3, r3, #3
 1301 0020 FB77     		strb	r3, [r7, #31]
 417:C:/Users/49542/Desktop/GD32F30x_Demo_Suites_V2.0.0/GD32F30x_Demo_Suites_V2.0.0/GD32F30x_Firmware_Library/GD32F30x_standard_peripheral/Source\gd32f30x_adc.c ****   
 418:C:/Users/49542/Desktop/GD32F30x_Demo_Suites_V2.0.0/GD32F30x_Demo_Suites_V2.0.0/GD32F30x_Firmware_Library/GD32F30x_standard_peripheral/Source\gd32f30x_adc.c ****     isq = ADC_ISQ(adc_periph);
 1302              		.loc 1 418 0
 1303 0022 FB68     		ldr	r3, [r7, #12]
 1304 0024 3833     		adds	r3, r3, #56
 1305 0026 1B68     		ldr	r3, [r3]
 1306 0028 BB61     		str	r3, [r7, #24]
 419:C:/Users/49542/Desktop/GD32F30x_Demo_Suites_V2.0.0/GD32F30x_Demo_Suites_V2.0.0/GD32F30x_Firmware_Library/GD32F30x_standard_peripheral/Source\gd32f30x_adc.c ****     isq &= ~((uint32_t)(ADC_ISQ_ISQN << (15U-(inserted_length-rank)*5U)));
 1307              		.loc 1 419 0
 1308 002a FA7F     		ldrb	r2, [r7, #31]	@ zero_extendqisi2
 1309 002c FB7A     		ldrb	r3, [r7, #11]	@ zero_extendqisi2
 1310 002e D31A     		subs	r3, r2, r3
 1311 0030 1A46     		mov	r2, r3
 1312 0032 1346     		mov	r3, r2
 1313 0034 9B00     		lsls	r3, r3, #2
 1314 0036 1344     		add	r3, r3, r2
 1315 0038 C3F10F03 		rsb	r3, r3, #15
 1316 003c 1F22     		movs	r2, #31
 1317 003e 02FA03F3 		lsl	r3, r2, r3
 1318 0042 DB43     		mvns	r3, r3
 1319 0044 BA69     		ldr	r2, [r7, #24]
 1320 0046 1340     		ands	r3, r3, r2
 1321 0048 BB61     		str	r3, [r7, #24]
 420:C:/Users/49542/Desktop/GD32F30x_Demo_Suites_V2.0.0/GD32F30x_Demo_Suites_V2.0.0/GD32F30x_Firmware_Library/GD32F30x_standard_peripheral/Source\gd32f30x_adc.c ****     isq |= ((uint32_t)adc_channel << (15U-(inserted_length-rank)*5U));
 1322              		.loc 1 420 0
 1323 004a BA7A     		ldrb	r2, [r7, #10]	@ zero_extendqisi2
 1324 004c F97F     		ldrb	r1, [r7, #31]	@ zero_extendqisi2
 1325 004e FB7A     		ldrb	r3, [r7, #11]	@ zero_extendqisi2
 1326 0050 CB1A     		subs	r3, r1, r3
 1327 0052 1946     		mov	r1, r3
 1328 0054 0B46     		mov	r3, r1
 1329 0056 9B00     		lsls	r3, r3, #2
 1330 0058 0B44     		add	r3, r3, r1
 1331 005a C3F10F03 		rsb	r3, r3, #15
 1332 005e 02FA03F3 		lsl	r3, r2, r3
 1333 0062 BA69     		ldr	r2, [r7, #24]
 1334 0064 1343     		orrs	r3, r3, r2
 1335 0066 BB61     		str	r3, [r7, #24]
 421:C:/Users/49542/Desktop/GD32F30x_Demo_Suites_V2.0.0/GD32F30x_Demo_Suites_V2.0.0/GD32F30x_Firmware_Library/GD32F30x_standard_peripheral/Source\gd32f30x_adc.c ****     ADC_ISQ(adc_periph) = isq;
 1336              		.loc 1 421 0
 1337 0068 FB68     		ldr	r3, [r7, #12]
 1338 006a 3833     		adds	r3, r3, #56
 1339 006c 1A46     		mov	r2, r3
 1340 006e BB69     		ldr	r3, [r7, #24]
 1341 0070 1360     		str	r3, [r2]
 422:C:/Users/49542/Desktop/GD32F30x_Demo_Suites_V2.0.0/GD32F30x_Demo_Suites_V2.0.0/GD32F30x_Firmware_Library/GD32F30x_standard_peripheral/Source\gd32f30x_adc.c **** 
 423:C:/Users/49542/Desktop/GD32F30x_Demo_Suites_V2.0.0/GD32F30x_Demo_Suites_V2.0.0/GD32F30x_Firmware_Library/GD32F30x_standard_peripheral/Source\gd32f30x_adc.c ****     /* ADC sampling time config */  
 424:C:/Users/49542/Desktop/GD32F30x_Demo_Suites_V2.0.0/GD32F30x_Demo_Suites_V2.0.0/GD32F30x_Firmware_Library/GD32F30x_standard_peripheral/Source\gd32f30x_adc.c ****     if(adc_channel < 10U){
ARM GAS  C:\Users\49542\AppData\Local\Temp\cctN87BC.s 			page 32


 1342              		.loc 1 424 0
 1343 0072 BB7A     		ldrb	r3, [r7, #10]	@ zero_extendqisi2
 1344 0074 092B     		cmp	r3, #9
 1345 0076 1ED8     		bhi	.L59
 425:C:/Users/49542/Desktop/GD32F30x_Demo_Suites_V2.0.0/GD32F30x_Demo_Suites_V2.0.0/GD32F30x_Firmware_Library/GD32F30x_standard_peripheral/Source\gd32f30x_adc.c ****         sampt = ADC_SAMPT1(adc_periph);
 1346              		.loc 1 425 0
 1347 0078 FB68     		ldr	r3, [r7, #12]
 1348 007a 1033     		adds	r3, r3, #16
 1349 007c 1B68     		ldr	r3, [r3]
 1350 007e 7B61     		str	r3, [r7, #20]
 426:C:/Users/49542/Desktop/GD32F30x_Demo_Suites_V2.0.0/GD32F30x_Demo_Suites_V2.0.0/GD32F30x_Firmware_Library/GD32F30x_standard_peripheral/Source\gd32f30x_adc.c ****         sampt &= ~((uint32_t)(ADC_SAMPTX_SPTN << (3U*adc_channel)));
 1351              		.loc 1 426 0
 1352 0080 BA7A     		ldrb	r2, [r7, #10]	@ zero_extendqisi2
 1353 0082 1346     		mov	r3, r2
 1354 0084 5B00     		lsls	r3, r3, #1
 1355 0086 1344     		add	r3, r3, r2
 1356 0088 0722     		movs	r2, #7
 1357 008a 02FA03F3 		lsl	r3, r2, r3
 1358 008e DB43     		mvns	r3, r3
 1359 0090 7A69     		ldr	r2, [r7, #20]
 1360 0092 1340     		ands	r3, r3, r2
 1361 0094 7B61     		str	r3, [r7, #20]
 427:C:/Users/49542/Desktop/GD32F30x_Demo_Suites_V2.0.0/GD32F30x_Demo_Suites_V2.0.0/GD32F30x_Firmware_Library/GD32F30x_standard_peripheral/Source\gd32f30x_adc.c ****         sampt |= (uint32_t) sample_time << (3U*adc_channel);
 1362              		.loc 1 427 0
 1363 0096 BA7A     		ldrb	r2, [r7, #10]	@ zero_extendqisi2
 1364 0098 1346     		mov	r3, r2
 1365 009a 5B00     		lsls	r3, r3, #1
 1366 009c 1344     		add	r3, r3, r2
 1367 009e 7A68     		ldr	r2, [r7, #4]
 1368 00a0 02FA03F3 		lsl	r3, r2, r3
 1369 00a4 7A69     		ldr	r2, [r7, #20]
 1370 00a6 1343     		orrs	r3, r3, r2
 1371 00a8 7B61     		str	r3, [r7, #20]
 428:C:/Users/49542/Desktop/GD32F30x_Demo_Suites_V2.0.0/GD32F30x_Demo_Suites_V2.0.0/GD32F30x_Firmware_Library/GD32F30x_standard_peripheral/Source\gd32f30x_adc.c ****         ADC_SAMPT1(adc_periph) = sampt;
 1372              		.loc 1 428 0
 1373 00aa FB68     		ldr	r3, [r7, #12]
 1374 00ac 1033     		adds	r3, r3, #16
 1375 00ae 1A46     		mov	r2, r3
 1376 00b0 7B69     		ldr	r3, [r7, #20]
 1377 00b2 1360     		str	r3, [r2]
 429:C:/Users/49542/Desktop/GD32F30x_Demo_Suites_V2.0.0/GD32F30x_Demo_Suites_V2.0.0/GD32F30x_Firmware_Library/GD32F30x_standard_peripheral/Source\gd32f30x_adc.c ****     }else if(adc_channel < 18U){
 430:C:/Users/49542/Desktop/GD32F30x_Demo_Suites_V2.0.0/GD32F30x_Demo_Suites_V2.0.0/GD32F30x_Firmware_Library/GD32F30x_standard_peripheral/Source\gd32f30x_adc.c ****         sampt = ADC_SAMPT0(adc_periph);
 431:C:/Users/49542/Desktop/GD32F30x_Demo_Suites_V2.0.0/GD32F30x_Demo_Suites_V2.0.0/GD32F30x_Firmware_Library/GD32F30x_standard_peripheral/Source\gd32f30x_adc.c ****         sampt &= ~((uint32_t)(ADC_SAMPTX_SPTN << (3U*(adc_channel-10U))));
 432:C:/Users/49542/Desktop/GD32F30x_Demo_Suites_V2.0.0/GD32F30x_Demo_Suites_V2.0.0/GD32F30x_Firmware_Library/GD32F30x_standard_peripheral/Source\gd32f30x_adc.c ****         sampt |= ((uint32_t)sample_time << (3U*(adc_channel-10U)));
 433:C:/Users/49542/Desktop/GD32F30x_Demo_Suites_V2.0.0/GD32F30x_Demo_Suites_V2.0.0/GD32F30x_Firmware_Library/GD32F30x_standard_peripheral/Source\gd32f30x_adc.c ****         ADC_SAMPT0(adc_periph) = sampt;
 434:C:/Users/49542/Desktop/GD32F30x_Demo_Suites_V2.0.0/GD32F30x_Demo_Suites_V2.0.0/GD32F30x_Firmware_Library/GD32F30x_standard_peripheral/Source\gd32f30x_adc.c ****     }else{
 435:C:/Users/49542/Desktop/GD32F30x_Demo_Suites_V2.0.0/GD32F30x_Demo_Suites_V2.0.0/GD32F30x_Firmware_Library/GD32F30x_standard_peripheral/Source\gd32f30x_adc.c ****     }
 436:C:/Users/49542/Desktop/GD32F30x_Demo_Suites_V2.0.0/GD32F30x_Demo_Suites_V2.0.0/GD32F30x_Firmware_Library/GD32F30x_standard_peripheral/Source\gd32f30x_adc.c **** }
 1378              		.loc 1 436 0
 1379 00b4 22E0     		b	.L61
 1380              	.L59:
 429:C:/Users/49542/Desktop/GD32F30x_Demo_Suites_V2.0.0/GD32F30x_Demo_Suites_V2.0.0/GD32F30x_Firmware_Library/GD32F30x_standard_peripheral/Source\gd32f30x_adc.c ****     }else if(adc_channel < 18U){
 1381              		.loc 1 429 0
 1382 00b6 BB7A     		ldrb	r3, [r7, #10]	@ zero_extendqisi2
 1383 00b8 112B     		cmp	r3, #17
 1384 00ba 1FD8     		bhi	.L61
 430:C:/Users/49542/Desktop/GD32F30x_Demo_Suites_V2.0.0/GD32F30x_Demo_Suites_V2.0.0/GD32F30x_Firmware_Library/GD32F30x_standard_peripheral/Source\gd32f30x_adc.c ****         sampt &= ~((uint32_t)(ADC_SAMPTX_SPTN << (3U*(adc_channel-10U))));
ARM GAS  C:\Users\49542\AppData\Local\Temp\cctN87BC.s 			page 33


 1385              		.loc 1 430 0
 1386 00bc FB68     		ldr	r3, [r7, #12]
 1387 00be 0C33     		adds	r3, r3, #12
 1388 00c0 1B68     		ldr	r3, [r3]
 1389 00c2 7B61     		str	r3, [r7, #20]
 431:C:/Users/49542/Desktop/GD32F30x_Demo_Suites_V2.0.0/GD32F30x_Demo_Suites_V2.0.0/GD32F30x_Firmware_Library/GD32F30x_standard_peripheral/Source\gd32f30x_adc.c ****         sampt |= ((uint32_t)sample_time << (3U*(adc_channel-10U)));
 1390              		.loc 1 431 0
 1391 00c4 BA7A     		ldrb	r2, [r7, #10]	@ zero_extendqisi2
 1392 00c6 1346     		mov	r3, r2
 1393 00c8 5B00     		lsls	r3, r3, #1
 1394 00ca 1344     		add	r3, r3, r2
 1395 00cc 1E3B     		subs	r3, r3, #30
 1396 00ce 0722     		movs	r2, #7
 1397 00d0 02FA03F3 		lsl	r3, r2, r3
 1398 00d4 DB43     		mvns	r3, r3
 1399 00d6 7A69     		ldr	r2, [r7, #20]
 1400 00d8 1340     		ands	r3, r3, r2
 1401 00da 7B61     		str	r3, [r7, #20]
 432:C:/Users/49542/Desktop/GD32F30x_Demo_Suites_V2.0.0/GD32F30x_Demo_Suites_V2.0.0/GD32F30x_Firmware_Library/GD32F30x_standard_peripheral/Source\gd32f30x_adc.c ****         ADC_SAMPT0(adc_periph) = sampt;
 1402              		.loc 1 432 0
 1403 00dc BA7A     		ldrb	r2, [r7, #10]	@ zero_extendqisi2
 1404 00de 1346     		mov	r3, r2
 1405 00e0 5B00     		lsls	r3, r3, #1
 1406 00e2 1344     		add	r3, r3, r2
 1407 00e4 1E3B     		subs	r3, r3, #30
 1408 00e6 7A68     		ldr	r2, [r7, #4]
 1409 00e8 02FA03F3 		lsl	r3, r2, r3
 1410 00ec 7A69     		ldr	r2, [r7, #20]
 1411 00ee 1343     		orrs	r3, r3, r2
 1412 00f0 7B61     		str	r3, [r7, #20]
 433:C:/Users/49542/Desktop/GD32F30x_Demo_Suites_V2.0.0/GD32F30x_Demo_Suites_V2.0.0/GD32F30x_Firmware_Library/GD32F30x_standard_peripheral/Source\gd32f30x_adc.c ****     }else{
 1413              		.loc 1 433 0
 1414 00f2 FB68     		ldr	r3, [r7, #12]
 1415 00f4 0C33     		adds	r3, r3, #12
 1416 00f6 1A46     		mov	r2, r3
 1417 00f8 7B69     		ldr	r3, [r7, #20]
 1418 00fa 1360     		str	r3, [r2]
 1419              	.L61:
 1420              		.loc 1 436 0
 1421 00fc 00BF     		nop
 1422 00fe 2437     		adds	r7, r7, #36
 1423              	.LCFI88:
 1424              		.cfi_def_cfa_offset 4
 1425 0100 BD46     		mov	sp, r7
 1426              	.LCFI89:
 1427              		.cfi_def_cfa_register 13
 1428              		@ sp needed
 1429 0102 5DF8047B 		ldr	r7, [sp], #4
 1430              	.LCFI90:
 1431              		.cfi_restore 7
 1432              		.cfi_def_cfa_offset 0
 1433 0106 7047     		bx	lr
 1434              		.cfi_endproc
 1435              	.LFE131:
 1437              		.section	.text.adc_inserted_channel_offset_config,"ax",%progbits
 1438              		.align	1
 1439              		.global	adc_inserted_channel_offset_config
ARM GAS  C:\Users\49542\AppData\Local\Temp\cctN87BC.s 			page 34


 1440              		.syntax unified
 1441              		.thumb
 1442              		.thumb_func
 1443              		.fpu fpv4-sp-d16
 1445              	adc_inserted_channel_offset_config:
 1446              	.LFB132:
 437:C:/Users/49542/Desktop/GD32F30x_Demo_Suites_V2.0.0/GD32F30x_Demo_Suites_V2.0.0/GD32F30x_Firmware_Library/GD32F30x_standard_peripheral/Source\gd32f30x_adc.c **** 
 438:C:/Users/49542/Desktop/GD32F30x_Demo_Suites_V2.0.0/GD32F30x_Demo_Suites_V2.0.0/GD32F30x_Firmware_Library/GD32F30x_standard_peripheral/Source\gd32f30x_adc.c **** /*!
 439:C:/Users/49542/Desktop/GD32F30x_Demo_Suites_V2.0.0/GD32F30x_Demo_Suites_V2.0.0/GD32F30x_Firmware_Library/GD32F30x_standard_peripheral/Source\gd32f30x_adc.c ****     \brief      configure ADC inserted channel offset 
 440:C:/Users/49542/Desktop/GD32F30x_Demo_Suites_V2.0.0/GD32F30x_Demo_Suites_V2.0.0/GD32F30x_Firmware_Library/GD32F30x_standard_peripheral/Source\gd32f30x_adc.c ****     \param[in]  adc_periph: ADCx,x=0,1,2
 441:C:/Users/49542/Desktop/GD32F30x_Demo_Suites_V2.0.0/GD32F30x_Demo_Suites_V2.0.0/GD32F30x_Firmware_Library/GD32F30x_standard_peripheral/Source\gd32f30x_adc.c ****                 only one among these parameters can be selected
 442:C:/Users/49542/Desktop/GD32F30x_Demo_Suites_V2.0.0/GD32F30x_Demo_Suites_V2.0.0/GD32F30x_Firmware_Library/GD32F30x_standard_peripheral/Source\gd32f30x_adc.c ****     \param[in]  inserted_channel : insert channel select
 443:C:/Users/49542/Desktop/GD32F30x_Demo_Suites_V2.0.0/GD32F30x_Demo_Suites_V2.0.0/GD32F30x_Firmware_Library/GD32F30x_standard_peripheral/Source\gd32f30x_adc.c ****                 only one parameter can be selected
 444:C:/Users/49542/Desktop/GD32F30x_Demo_Suites_V2.0.0/GD32F30x_Demo_Suites_V2.0.0/GD32F30x_Firmware_Library/GD32F30x_standard_peripheral/Source\gd32f30x_adc.c ****       \arg        ADC_INSERTED_CHANNEL_0: inserted channel0
 445:C:/Users/49542/Desktop/GD32F30x_Demo_Suites_V2.0.0/GD32F30x_Demo_Suites_V2.0.0/GD32F30x_Firmware_Library/GD32F30x_standard_peripheral/Source\gd32f30x_adc.c ****       \arg        ADC_INSERTED_CHANNEL_1: inserted channel1
 446:C:/Users/49542/Desktop/GD32F30x_Demo_Suites_V2.0.0/GD32F30x_Demo_Suites_V2.0.0/GD32F30x_Firmware_Library/GD32F30x_standard_peripheral/Source\gd32f30x_adc.c ****       \arg        ADC_INSERTED_CHANNEL_2: inserted channel2
 447:C:/Users/49542/Desktop/GD32F30x_Demo_Suites_V2.0.0/GD32F30x_Demo_Suites_V2.0.0/GD32F30x_Firmware_Library/GD32F30x_standard_peripheral/Source\gd32f30x_adc.c ****       \arg        ADC_INSERTED_CHANNEL_3: inserted channel3
 448:C:/Users/49542/Desktop/GD32F30x_Demo_Suites_V2.0.0/GD32F30x_Demo_Suites_V2.0.0/GD32F30x_Firmware_Library/GD32F30x_standard_peripheral/Source\gd32f30x_adc.c ****     \param[in]  offset : the offset data
 449:C:/Users/49542/Desktop/GD32F30x_Demo_Suites_V2.0.0/GD32F30x_Demo_Suites_V2.0.0/GD32F30x_Firmware_Library/GD32F30x_standard_peripheral/Source\gd32f30x_adc.c ****     \param[out] none
 450:C:/Users/49542/Desktop/GD32F30x_Demo_Suites_V2.0.0/GD32F30x_Demo_Suites_V2.0.0/GD32F30x_Firmware_Library/GD32F30x_standard_peripheral/Source\gd32f30x_adc.c ****     \retval     none
 451:C:/Users/49542/Desktop/GD32F30x_Demo_Suites_V2.0.0/GD32F30x_Demo_Suites_V2.0.0/GD32F30x_Firmware_Library/GD32F30x_standard_peripheral/Source\gd32f30x_adc.c **** */
 452:C:/Users/49542/Desktop/GD32F30x_Demo_Suites_V2.0.0/GD32F30x_Demo_Suites_V2.0.0/GD32F30x_Firmware_Library/GD32F30x_standard_peripheral/Source\gd32f30x_adc.c **** void adc_inserted_channel_offset_config(uint32_t adc_periph , uint8_t inserted_channel , uint16_t o
 453:C:/Users/49542/Desktop/GD32F30x_Demo_Suites_V2.0.0/GD32F30x_Demo_Suites_V2.0.0/GD32F30x_Firmware_Library/GD32F30x_standard_peripheral/Source\gd32f30x_adc.c **** {
 1447              		.loc 1 453 0
 1448              		.cfi_startproc
 1449              		@ args = 0, pretend = 0, frame = 16
 1450              		@ frame_needed = 1, uses_anonymous_args = 0
 1451              		@ link register save eliminated.
 1452 0000 80B4     		push	{r7}
 1453              	.LCFI91:
 1454              		.cfi_def_cfa_offset 4
 1455              		.cfi_offset 7, -4
 1456 0002 85B0     		sub	sp, sp, #20
 1457              	.LCFI92:
 1458              		.cfi_def_cfa_offset 24
 1459 0004 00AF     		add	r7, sp, #0
 1460              	.LCFI93:
 1461              		.cfi_def_cfa_register 7
 1462 0006 7860     		str	r0, [r7, #4]
 1463 0008 0B46     		mov	r3, r1
 1464 000a FB70     		strb	r3, [r7, #3]
 1465 000c 1346     		mov	r3, r2	@ movhi
 1466 000e 3B80     		strh	r3, [r7]	@ movhi
 454:C:/Users/49542/Desktop/GD32F30x_Demo_Suites_V2.0.0/GD32F30x_Demo_Suites_V2.0.0/GD32F30x_Firmware_Library/GD32F30x_standard_peripheral/Source\gd32f30x_adc.c ****     uint8_t inserted_length;
 455:C:/Users/49542/Desktop/GD32F30x_Demo_Suites_V2.0.0/GD32F30x_Demo_Suites_V2.0.0/GD32F30x_Firmware_Library/GD32F30x_standard_peripheral/Source\gd32f30x_adc.c ****     uint32_t num = 0U;
 1467              		.loc 1 455 0
 1468 0010 0023     		movs	r3, #0
 1469 0012 FB60     		str	r3, [r7, #12]
 456:C:/Users/49542/Desktop/GD32F30x_Demo_Suites_V2.0.0/GD32F30x_Demo_Suites_V2.0.0/GD32F30x_Firmware_Library/GD32F30x_standard_peripheral/Source\gd32f30x_adc.c **** 
 457:C:/Users/49542/Desktop/GD32F30x_Demo_Suites_V2.0.0/GD32F30x_Demo_Suites_V2.0.0/GD32F30x_Firmware_Library/GD32F30x_standard_peripheral/Source\gd32f30x_adc.c ****     inserted_length = (uint8_t)GET_BITS(ADC_ISQ(adc_periph) , 20U , 21U);
 1470              		.loc 1 457 0
 1471 0014 7B68     		ldr	r3, [r7, #4]
 1472 0016 3833     		adds	r3, r3, #56
 1473 0018 1B68     		ldr	r3, [r3]
 1474 001a 1B0D     		lsrs	r3, r3, #20
 1475 001c DBB2     		uxtb	r3, r3
 1476 001e 03F00303 		and	r3, r3, #3
ARM GAS  C:\Users\49542\AppData\Local\Temp\cctN87BC.s 			page 35


 1477 0022 FB72     		strb	r3, [r7, #11]
 458:C:/Users/49542/Desktop/GD32F30x_Demo_Suites_V2.0.0/GD32F30x_Demo_Suites_V2.0.0/GD32F30x_Firmware_Library/GD32F30x_standard_peripheral/Source\gd32f30x_adc.c ****     num = 3U - (inserted_length - inserted_channel);
 1478              		.loc 1 458 0
 1479 0024 FA7A     		ldrb	r2, [r7, #11]	@ zero_extendqisi2
 1480 0026 FB78     		ldrb	r3, [r7, #3]	@ zero_extendqisi2
 1481 0028 D31A     		subs	r3, r2, r3
 1482 002a C3F10303 		rsb	r3, r3, #3
 1483 002e FB60     		str	r3, [r7, #12]
 459:C:/Users/49542/Desktop/GD32F30x_Demo_Suites_V2.0.0/GD32F30x_Demo_Suites_V2.0.0/GD32F30x_Firmware_Library/GD32F30x_standard_peripheral/Source\gd32f30x_adc.c ****     
 460:C:/Users/49542/Desktop/GD32F30x_Demo_Suites_V2.0.0/GD32F30x_Demo_Suites_V2.0.0/GD32F30x_Firmware_Library/GD32F30x_standard_peripheral/Source\gd32f30x_adc.c ****     if(num <= 3U){
 1484              		.loc 1 460 0
 1485 0030 FB68     		ldr	r3, [r7, #12]
 1486 0032 032B     		cmp	r3, #3
 1487 0034 0AD8     		bhi	.L64
 461:C:/Users/49542/Desktop/GD32F30x_Demo_Suites_V2.0.0/GD32F30x_Demo_Suites_V2.0.0/GD32F30x_Firmware_Library/GD32F30x_standard_peripheral/Source\gd32f30x_adc.c ****         /* calculate the offset of the register */
 462:C:/Users/49542/Desktop/GD32F30x_Demo_Suites_V2.0.0/GD32F30x_Demo_Suites_V2.0.0/GD32F30x_Firmware_Library/GD32F30x_standard_peripheral/Source\gd32f30x_adc.c ****         num = num * 4U;
 1488              		.loc 1 462 0
 1489 0036 FB68     		ldr	r3, [r7, #12]
 1490 0038 9B00     		lsls	r3, r3, #2
 1491 003a FB60     		str	r3, [r7, #12]
 463:C:/Users/49542/Desktop/GD32F30x_Demo_Suites_V2.0.0/GD32F30x_Demo_Suites_V2.0.0/GD32F30x_Firmware_Library/GD32F30x_standard_peripheral/Source\gd32f30x_adc.c ****         /* config the offset of the selected channels */
 464:C:/Users/49542/Desktop/GD32F30x_Demo_Suites_V2.0.0/GD32F30x_Demo_Suites_V2.0.0/GD32F30x_Firmware_Library/GD32F30x_standard_peripheral/Source\gd32f30x_adc.c ****         REG32((adc_periph) + 0x14U + num) = IOFFX_IOFF((uint32_t)offset);
 1492              		.loc 1 464 0
 1493 003c 3B88     		ldrh	r3, [r7]
 1494 003e 7968     		ldr	r1, [r7, #4]
 1495 0040 FA68     		ldr	r2, [r7, #12]
 1496 0042 0A44     		add	r2, r2, r1
 1497 0044 1432     		adds	r2, r2, #20
 1498 0046 C3F30B03 		ubfx	r3, r3, #0, #12
 1499 004a 1360     		str	r3, [r2]
 1500              	.L64:
 465:C:/Users/49542/Desktop/GD32F30x_Demo_Suites_V2.0.0/GD32F30x_Demo_Suites_V2.0.0/GD32F30x_Firmware_Library/GD32F30x_standard_peripheral/Source\gd32f30x_adc.c ****     }  
 466:C:/Users/49542/Desktop/GD32F30x_Demo_Suites_V2.0.0/GD32F30x_Demo_Suites_V2.0.0/GD32F30x_Firmware_Library/GD32F30x_standard_peripheral/Source\gd32f30x_adc.c **** }
 1501              		.loc 1 466 0
 1502 004c 00BF     		nop
 1503 004e 1437     		adds	r7, r7, #20
 1504              	.LCFI94:
 1505              		.cfi_def_cfa_offset 4
 1506 0050 BD46     		mov	sp, r7
 1507              	.LCFI95:
 1508              		.cfi_def_cfa_register 13
 1509              		@ sp needed
 1510 0052 5DF8047B 		ldr	r7, [sp], #4
 1511              	.LCFI96:
 1512              		.cfi_restore 7
 1513              		.cfi_def_cfa_offset 0
 1514 0056 7047     		bx	lr
 1515              		.cfi_endproc
 1516              	.LFE132:
 1518              		.section	.text.adc_external_trigger_config,"ax",%progbits
 1519              		.align	1
 1520              		.global	adc_external_trigger_config
 1521              		.syntax unified
 1522              		.thumb
 1523              		.thumb_func
 1524              		.fpu fpv4-sp-d16
 1526              	adc_external_trigger_config:
ARM GAS  C:\Users\49542\AppData\Local\Temp\cctN87BC.s 			page 36


 1527              	.LFB133:
 467:C:/Users/49542/Desktop/GD32F30x_Demo_Suites_V2.0.0/GD32F30x_Demo_Suites_V2.0.0/GD32F30x_Firmware_Library/GD32F30x_standard_peripheral/Source\gd32f30x_adc.c **** 
 468:C:/Users/49542/Desktop/GD32F30x_Demo_Suites_V2.0.0/GD32F30x_Demo_Suites_V2.0.0/GD32F30x_Firmware_Library/GD32F30x_standard_peripheral/Source\gd32f30x_adc.c **** /*!
 469:C:/Users/49542/Desktop/GD32F30x_Demo_Suites_V2.0.0/GD32F30x_Demo_Suites_V2.0.0/GD32F30x_Firmware_Library/GD32F30x_standard_peripheral/Source\gd32f30x_adc.c ****     \brief      enable ADC external trigger 
 470:C:/Users/49542/Desktop/GD32F30x_Demo_Suites_V2.0.0/GD32F30x_Demo_Suites_V2.0.0/GD32F30x_Firmware_Library/GD32F30x_standard_peripheral/Source\gd32f30x_adc.c ****     \param[in]  adc_periph: ADCx,x=0,1,2
 471:C:/Users/49542/Desktop/GD32F30x_Demo_Suites_V2.0.0/GD32F30x_Demo_Suites_V2.0.0/GD32F30x_Firmware_Library/GD32F30x_standard_peripheral/Source\gd32f30x_adc.c ****                 only one among these parameters can be selected
 472:C:/Users/49542/Desktop/GD32F30x_Demo_Suites_V2.0.0/GD32F30x_Demo_Suites_V2.0.0/GD32F30x_Firmware_Library/GD32F30x_standard_peripheral/Source\gd32f30x_adc.c ****     \param[in]  adc_channel_group: select the channel group
 473:C:/Users/49542/Desktop/GD32F30x_Demo_Suites_V2.0.0/GD32F30x_Demo_Suites_V2.0.0/GD32F30x_Firmware_Library/GD32F30x_standard_peripheral/Source\gd32f30x_adc.c ****                 one or more parameters can be selected
 474:C:/Users/49542/Desktop/GD32F30x_Demo_Suites_V2.0.0/GD32F30x_Demo_Suites_V2.0.0/GD32F30x_Firmware_Library/GD32F30x_standard_peripheral/Source\gd32f30x_adc.c ****       \arg        ADC_REGULAR_CHANNEL: regular channel group
 475:C:/Users/49542/Desktop/GD32F30x_Demo_Suites_V2.0.0/GD32F30x_Demo_Suites_V2.0.0/GD32F30x_Firmware_Library/GD32F30x_standard_peripheral/Source\gd32f30x_adc.c ****       \arg        ADC_INSERTED_CHANNEL: inserted channel group
 476:C:/Users/49542/Desktop/GD32F30x_Demo_Suites_V2.0.0/GD32F30x_Demo_Suites_V2.0.0/GD32F30x_Firmware_Library/GD32F30x_standard_peripheral/Source\gd32f30x_adc.c ****     \param[in]  newvalue: ENABLE or DISABLE
 477:C:/Users/49542/Desktop/GD32F30x_Demo_Suites_V2.0.0/GD32F30x_Demo_Suites_V2.0.0/GD32F30x_Firmware_Library/GD32F30x_standard_peripheral/Source\gd32f30x_adc.c ****     \param[out] none
 478:C:/Users/49542/Desktop/GD32F30x_Demo_Suites_V2.0.0/GD32F30x_Demo_Suites_V2.0.0/GD32F30x_Firmware_Library/GD32F30x_standard_peripheral/Source\gd32f30x_adc.c ****     \retval     none
 479:C:/Users/49542/Desktop/GD32F30x_Demo_Suites_V2.0.0/GD32F30x_Demo_Suites_V2.0.0/GD32F30x_Firmware_Library/GD32F30x_standard_peripheral/Source\gd32f30x_adc.c **** */
 480:C:/Users/49542/Desktop/GD32F30x_Demo_Suites_V2.0.0/GD32F30x_Demo_Suites_V2.0.0/GD32F30x_Firmware_Library/GD32F30x_standard_peripheral/Source\gd32f30x_adc.c **** void adc_external_trigger_config(uint32_t adc_periph, uint8_t adc_channel_group, ControlStatus newv
 481:C:/Users/49542/Desktop/GD32F30x_Demo_Suites_V2.0.0/GD32F30x_Demo_Suites_V2.0.0/GD32F30x_Firmware_Library/GD32F30x_standard_peripheral/Source\gd32f30x_adc.c **** {
 1528              		.loc 1 481 0
 1529              		.cfi_startproc
 1530              		@ args = 0, pretend = 0, frame = 8
 1531              		@ frame_needed = 1, uses_anonymous_args = 0
 1532              		@ link register save eliminated.
 1533 0000 80B4     		push	{r7}
 1534              	.LCFI97:
 1535              		.cfi_def_cfa_offset 4
 1536              		.cfi_offset 7, -4
 1537 0002 83B0     		sub	sp, sp, #12
 1538              	.LCFI98:
 1539              		.cfi_def_cfa_offset 16
 1540 0004 00AF     		add	r7, sp, #0
 1541              	.LCFI99:
 1542              		.cfi_def_cfa_register 7
 1543 0006 7860     		str	r0, [r7, #4]
 1544 0008 0B46     		mov	r3, r1
 1545 000a FB70     		strb	r3, [r7, #3]
 1546 000c 1346     		mov	r3, r2
 1547 000e BB70     		strb	r3, [r7, #2]
 482:C:/Users/49542/Desktop/GD32F30x_Demo_Suites_V2.0.0/GD32F30x_Demo_Suites_V2.0.0/GD32F30x_Firmware_Library/GD32F30x_standard_peripheral/Source\gd32f30x_adc.c ****     if(newvalue){
 1548              		.loc 1 482 0
 1549 0010 BB78     		ldrb	r3, [r7, #2]	@ zero_extendqisi2
 1550 0012 002B     		cmp	r3, #0
 1551 0014 1AD0     		beq	.L66
 483:C:/Users/49542/Desktop/GD32F30x_Demo_Suites_V2.0.0/GD32F30x_Demo_Suites_V2.0.0/GD32F30x_Firmware_Library/GD32F30x_standard_peripheral/Source\gd32f30x_adc.c ****         if(0U != (adc_channel_group & ADC_REGULAR_CHANNEL)){
 1552              		.loc 1 483 0
 1553 0016 FB78     		ldrb	r3, [r7, #3]	@ zero_extendqisi2
 1554 0018 03F00103 		and	r3, r3, #1
 1555 001c 002B     		cmp	r3, #0
 1556 001e 07D0     		beq	.L67
 484:C:/Users/49542/Desktop/GD32F30x_Demo_Suites_V2.0.0/GD32F30x_Demo_Suites_V2.0.0/GD32F30x_Firmware_Library/GD32F30x_standard_peripheral/Source\gd32f30x_adc.c ****             ADC_CTL1(adc_periph) |= ADC_CTL1_ETERC;
 1557              		.loc 1 484 0
 1558 0020 7B68     		ldr	r3, [r7, #4]
 1559 0022 0833     		adds	r3, r3, #8
 1560 0024 1B68     		ldr	r3, [r3]
 1561 0026 7A68     		ldr	r2, [r7, #4]
 1562 0028 0832     		adds	r2, r2, #8
 1563 002a 43F48013 		orr	r3, r3, #1048576
 1564 002e 1360     		str	r3, [r2]
 1565              	.L67:
ARM GAS  C:\Users\49542\AppData\Local\Temp\cctN87BC.s 			page 37


 485:C:/Users/49542/Desktop/GD32F30x_Demo_Suites_V2.0.0/GD32F30x_Demo_Suites_V2.0.0/GD32F30x_Firmware_Library/GD32F30x_standard_peripheral/Source\gd32f30x_adc.c ****         }
 486:C:/Users/49542/Desktop/GD32F30x_Demo_Suites_V2.0.0/GD32F30x_Demo_Suites_V2.0.0/GD32F30x_Firmware_Library/GD32F30x_standard_peripheral/Source\gd32f30x_adc.c ****         if(0U != (adc_channel_group & ADC_INSERTED_CHANNEL)){
 1566              		.loc 1 486 0
 1567 0030 FB78     		ldrb	r3, [r7, #3]	@ zero_extendqisi2
 1568 0032 03F00203 		and	r3, r3, #2
 1569 0036 002B     		cmp	r3, #0
 1570 0038 22D0     		beq	.L71
 487:C:/Users/49542/Desktop/GD32F30x_Demo_Suites_V2.0.0/GD32F30x_Demo_Suites_V2.0.0/GD32F30x_Firmware_Library/GD32F30x_standard_peripheral/Source\gd32f30x_adc.c ****             ADC_CTL1(adc_periph) |= ADC_CTL1_ETEIC;
 1571              		.loc 1 487 0
 1572 003a 7B68     		ldr	r3, [r7, #4]
 1573 003c 0833     		adds	r3, r3, #8
 1574 003e 1B68     		ldr	r3, [r3]
 1575 0040 7A68     		ldr	r2, [r7, #4]
 1576 0042 0832     		adds	r2, r2, #8
 1577 0044 43F40043 		orr	r3, r3, #32768
 1578 0048 1360     		str	r3, [r2]
 488:C:/Users/49542/Desktop/GD32F30x_Demo_Suites_V2.0.0/GD32F30x_Demo_Suites_V2.0.0/GD32F30x_Firmware_Library/GD32F30x_standard_peripheral/Source\gd32f30x_adc.c ****         }        
 489:C:/Users/49542/Desktop/GD32F30x_Demo_Suites_V2.0.0/GD32F30x_Demo_Suites_V2.0.0/GD32F30x_Firmware_Library/GD32F30x_standard_peripheral/Source\gd32f30x_adc.c ****     }else{
 490:C:/Users/49542/Desktop/GD32F30x_Demo_Suites_V2.0.0/GD32F30x_Demo_Suites_V2.0.0/GD32F30x_Firmware_Library/GD32F30x_standard_peripheral/Source\gd32f30x_adc.c ****         if(0U != (adc_channel_group & ADC_REGULAR_CHANNEL)){
 491:C:/Users/49542/Desktop/GD32F30x_Demo_Suites_V2.0.0/GD32F30x_Demo_Suites_V2.0.0/GD32F30x_Firmware_Library/GD32F30x_standard_peripheral/Source\gd32f30x_adc.c ****             ADC_CTL1(adc_periph) &= ~ADC_CTL1_ETERC;
 492:C:/Users/49542/Desktop/GD32F30x_Demo_Suites_V2.0.0/GD32F30x_Demo_Suites_V2.0.0/GD32F30x_Firmware_Library/GD32F30x_standard_peripheral/Source\gd32f30x_adc.c ****         }
 493:C:/Users/49542/Desktop/GD32F30x_Demo_Suites_V2.0.0/GD32F30x_Demo_Suites_V2.0.0/GD32F30x_Firmware_Library/GD32F30x_standard_peripheral/Source\gd32f30x_adc.c ****         if(0U != (adc_channel_group & ADC_INSERTED_CHANNEL)){
 494:C:/Users/49542/Desktop/GD32F30x_Demo_Suites_V2.0.0/GD32F30x_Demo_Suites_V2.0.0/GD32F30x_Firmware_Library/GD32F30x_standard_peripheral/Source\gd32f30x_adc.c ****             ADC_CTL1(adc_periph) &= ~ADC_CTL1_ETEIC;
 495:C:/Users/49542/Desktop/GD32F30x_Demo_Suites_V2.0.0/GD32F30x_Demo_Suites_V2.0.0/GD32F30x_Firmware_Library/GD32F30x_standard_peripheral/Source\gd32f30x_adc.c ****         }      
 496:C:/Users/49542/Desktop/GD32F30x_Demo_Suites_V2.0.0/GD32F30x_Demo_Suites_V2.0.0/GD32F30x_Firmware_Library/GD32F30x_standard_peripheral/Source\gd32f30x_adc.c ****     }
 497:C:/Users/49542/Desktop/GD32F30x_Demo_Suites_V2.0.0/GD32F30x_Demo_Suites_V2.0.0/GD32F30x_Firmware_Library/GD32F30x_standard_peripheral/Source\gd32f30x_adc.c **** }
 1579              		.loc 1 497 0
 1580 004a 19E0     		b	.L71
 1581              	.L66:
 490:C:/Users/49542/Desktop/GD32F30x_Demo_Suites_V2.0.0/GD32F30x_Demo_Suites_V2.0.0/GD32F30x_Firmware_Library/GD32F30x_standard_peripheral/Source\gd32f30x_adc.c ****             ADC_CTL1(adc_periph) &= ~ADC_CTL1_ETERC;
 1582              		.loc 1 490 0
 1583 004c FB78     		ldrb	r3, [r7, #3]	@ zero_extendqisi2
 1584 004e 03F00103 		and	r3, r3, #1
 1585 0052 002B     		cmp	r3, #0
 1586 0054 07D0     		beq	.L70
 491:C:/Users/49542/Desktop/GD32F30x_Demo_Suites_V2.0.0/GD32F30x_Demo_Suites_V2.0.0/GD32F30x_Firmware_Library/GD32F30x_standard_peripheral/Source\gd32f30x_adc.c ****         }
 1587              		.loc 1 491 0
 1588 0056 7B68     		ldr	r3, [r7, #4]
 1589 0058 0833     		adds	r3, r3, #8
 1590 005a 1B68     		ldr	r3, [r3]
 1591 005c 7A68     		ldr	r2, [r7, #4]
 1592 005e 0832     		adds	r2, r2, #8
 1593 0060 23F48013 		bic	r3, r3, #1048576
 1594 0064 1360     		str	r3, [r2]
 1595              	.L70:
 493:C:/Users/49542/Desktop/GD32F30x_Demo_Suites_V2.0.0/GD32F30x_Demo_Suites_V2.0.0/GD32F30x_Firmware_Library/GD32F30x_standard_peripheral/Source\gd32f30x_adc.c ****             ADC_CTL1(adc_periph) &= ~ADC_CTL1_ETEIC;
 1596              		.loc 1 493 0
 1597 0066 FB78     		ldrb	r3, [r7, #3]	@ zero_extendqisi2
 1598 0068 03F00203 		and	r3, r3, #2
 1599 006c 002B     		cmp	r3, #0
 1600 006e 07D0     		beq	.L71
 494:C:/Users/49542/Desktop/GD32F30x_Demo_Suites_V2.0.0/GD32F30x_Demo_Suites_V2.0.0/GD32F30x_Firmware_Library/GD32F30x_standard_peripheral/Source\gd32f30x_adc.c ****         }      
 1601              		.loc 1 494 0
 1602 0070 7B68     		ldr	r3, [r7, #4]
 1603 0072 0833     		adds	r3, r3, #8
 1604 0074 1B68     		ldr	r3, [r3]
 1605 0076 7A68     		ldr	r2, [r7, #4]
ARM GAS  C:\Users\49542\AppData\Local\Temp\cctN87BC.s 			page 38


 1606 0078 0832     		adds	r2, r2, #8
 1607 007a 23F40043 		bic	r3, r3, #32768
 1608 007e 1360     		str	r3, [r2]
 1609              	.L71:
 1610              		.loc 1 497 0
 1611 0080 00BF     		nop
 1612 0082 0C37     		adds	r7, r7, #12
 1613              	.LCFI100:
 1614              		.cfi_def_cfa_offset 4
 1615 0084 BD46     		mov	sp, r7
 1616              	.LCFI101:
 1617              		.cfi_def_cfa_register 13
 1618              		@ sp needed
 1619 0086 5DF8047B 		ldr	r7, [sp], #4
 1620              	.LCFI102:
 1621              		.cfi_restore 7
 1622              		.cfi_def_cfa_offset 0
 1623 008a 7047     		bx	lr
 1624              		.cfi_endproc
 1625              	.LFE133:
 1627              		.section	.text.adc_external_trigger_source_config,"ax",%progbits
 1628              		.align	1
 1629              		.global	adc_external_trigger_source_config
 1630              		.syntax unified
 1631              		.thumb
 1632              		.thumb_func
 1633              		.fpu fpv4-sp-d16
 1635              	adc_external_trigger_source_config:
 1636              	.LFB134:
 498:C:/Users/49542/Desktop/GD32F30x_Demo_Suites_V2.0.0/GD32F30x_Demo_Suites_V2.0.0/GD32F30x_Firmware_Library/GD32F30x_standard_peripheral/Source\gd32f30x_adc.c **** 
 499:C:/Users/49542/Desktop/GD32F30x_Demo_Suites_V2.0.0/GD32F30x_Demo_Suites_V2.0.0/GD32F30x_Firmware_Library/GD32F30x_standard_peripheral/Source\gd32f30x_adc.c **** /*!
 500:C:/Users/49542/Desktop/GD32F30x_Demo_Suites_V2.0.0/GD32F30x_Demo_Suites_V2.0.0/GD32F30x_Firmware_Library/GD32F30x_standard_peripheral/Source\gd32f30x_adc.c ****     \brief      configure ADC external trigger source 
 501:C:/Users/49542/Desktop/GD32F30x_Demo_Suites_V2.0.0/GD32F30x_Demo_Suites_V2.0.0/GD32F30x_Firmware_Library/GD32F30x_standard_peripheral/Source\gd32f30x_adc.c ****     \param[in]  adc_periph: ADCx,x=0,1,2
 502:C:/Users/49542/Desktop/GD32F30x_Demo_Suites_V2.0.0/GD32F30x_Demo_Suites_V2.0.0/GD32F30x_Firmware_Library/GD32F30x_standard_peripheral/Source\gd32f30x_adc.c ****                 only one among these parameters can be selected
 503:C:/Users/49542/Desktop/GD32F30x_Demo_Suites_V2.0.0/GD32F30x_Demo_Suites_V2.0.0/GD32F30x_Firmware_Library/GD32F30x_standard_peripheral/Source\gd32f30x_adc.c ****     \param[in]  adc_channel_group: select the channel group
 504:C:/Users/49542/Desktop/GD32F30x_Demo_Suites_V2.0.0/GD32F30x_Demo_Suites_V2.0.0/GD32F30x_Firmware_Library/GD32F30x_standard_peripheral/Source\gd32f30x_adc.c ****                 only one parameter can be selected
 505:C:/Users/49542/Desktop/GD32F30x_Demo_Suites_V2.0.0/GD32F30x_Demo_Suites_V2.0.0/GD32F30x_Firmware_Library/GD32F30x_standard_peripheral/Source\gd32f30x_adc.c ****       \arg        ADC_REGULAR_CHANNEL: regular channel group
 506:C:/Users/49542/Desktop/GD32F30x_Demo_Suites_V2.0.0/GD32F30x_Demo_Suites_V2.0.0/GD32F30x_Firmware_Library/GD32F30x_standard_peripheral/Source\gd32f30x_adc.c ****       \arg        ADC_INSERTED_CHANNEL: inserted channel group
 507:C:/Users/49542/Desktop/GD32F30x_Demo_Suites_V2.0.0/GD32F30x_Demo_Suites_V2.0.0/GD32F30x_Firmware_Library/GD32F30x_standard_peripheral/Source\gd32f30x_adc.c ****     \param[in]  external_trigger_source: regular or inserted group trigger source
 508:C:/Users/49542/Desktop/GD32F30x_Demo_Suites_V2.0.0/GD32F30x_Demo_Suites_V2.0.0/GD32F30x_Firmware_Library/GD32F30x_standard_peripheral/Source\gd32f30x_adc.c ****                 only one parameter can be selected
 509:C:/Users/49542/Desktop/GD32F30x_Demo_Suites_V2.0.0/GD32F30x_Demo_Suites_V2.0.0/GD32F30x_Firmware_Library/GD32F30x_standard_peripheral/Source\gd32f30x_adc.c ****                 for regular channel:
 510:C:/Users/49542/Desktop/GD32F30x_Demo_Suites_V2.0.0/GD32F30x_Demo_Suites_V2.0.0/GD32F30x_Firmware_Library/GD32F30x_standard_peripheral/Source\gd32f30x_adc.c ****       \arg        ADC0_1_EXTTRIG_REGULAR_T0_CH0: timer 0 CC0 event select 
 511:C:/Users/49542/Desktop/GD32F30x_Demo_Suites_V2.0.0/GD32F30x_Demo_Suites_V2.0.0/GD32F30x_Firmware_Library/GD32F30x_standard_peripheral/Source\gd32f30x_adc.c ****       \arg        ADC0_1_EXTTRIG_REGULAR_T0_CH1: timer 0 CC1 event select 
 512:C:/Users/49542/Desktop/GD32F30x_Demo_Suites_V2.0.0/GD32F30x_Demo_Suites_V2.0.0/GD32F30x_Firmware_Library/GD32F30x_standard_peripheral/Source\gd32f30x_adc.c ****       \arg        ADC0_1_EXTTRIG_REGULAR_T0_CH2: timer 0 CC2 event select 
 513:C:/Users/49542/Desktop/GD32F30x_Demo_Suites_V2.0.0/GD32F30x_Demo_Suites_V2.0.0/GD32F30x_Firmware_Library/GD32F30x_standard_peripheral/Source\gd32f30x_adc.c ****       \arg        ADC0_1_EXTTRIG_REGULAR_T1_CH1: timer 1 CC1 event select 
 514:C:/Users/49542/Desktop/GD32F30x_Demo_Suites_V2.0.0/GD32F30x_Demo_Suites_V2.0.0/GD32F30x_Firmware_Library/GD32F30x_standard_peripheral/Source\gd32f30x_adc.c ****       \arg        ADC0_1_EXTTRIG_REGULAR_T2_TRGO: timer 2 TRGO event select 
 515:C:/Users/49542/Desktop/GD32F30x_Demo_Suites_V2.0.0/GD32F30x_Demo_Suites_V2.0.0/GD32F30x_Firmware_Library/GD32F30x_standard_peripheral/Source\gd32f30x_adc.c ****       \arg        ADC0_1_EXTTRIG_REGULAR_T3_CH3: timer 3 CC3 event select 
 516:C:/Users/49542/Desktop/GD32F30x_Demo_Suites_V2.0.0/GD32F30x_Demo_Suites_V2.0.0/GD32F30x_Firmware_Library/GD32F30x_standard_peripheral/Source\gd32f30x_adc.c ****       \arg        ADC0_1_EXTTRIG_REGULAR_T7_TRGO: timer 7 TRGO event select 
 517:C:/Users/49542/Desktop/GD32F30x_Demo_Suites_V2.0.0/GD32F30x_Demo_Suites_V2.0.0/GD32F30x_Firmware_Library/GD32F30x_standard_peripheral/Source\gd32f30x_adc.c ****       \arg        ADC0_1_EXTTRIG_REGULAR_EXTI_11 : external interrupt line 11 
 518:C:/Users/49542/Desktop/GD32F30x_Demo_Suites_V2.0.0/GD32F30x_Demo_Suites_V2.0.0/GD32F30x_Firmware_Library/GD32F30x_standard_peripheral/Source\gd32f30x_adc.c ****       \arg        ADC2_EXTTRIG_REGULAR_T2_CH0: timer 2 CC0 event select 
 519:C:/Users/49542/Desktop/GD32F30x_Demo_Suites_V2.0.0/GD32F30x_Demo_Suites_V2.0.0/GD32F30x_Firmware_Library/GD32F30x_standard_peripheral/Source\gd32f30x_adc.c ****       \arg        ADC2_EXTTRIG_REGULAR_T1_CH2: timer 1 CC2 event select 
 520:C:/Users/49542/Desktop/GD32F30x_Demo_Suites_V2.0.0/GD32F30x_Demo_Suites_V2.0.0/GD32F30x_Firmware_Library/GD32F30x_standard_peripheral/Source\gd32f30x_adc.c ****       \arg        ADC2_EXTTRIG_REGULAR_T0_CH2: timer 0 CC2 event select 
 521:C:/Users/49542/Desktop/GD32F30x_Demo_Suites_V2.0.0/GD32F30x_Demo_Suites_V2.0.0/GD32F30x_Firmware_Library/GD32F30x_standard_peripheral/Source\gd32f30x_adc.c ****       \arg        ADC2_EXTTRIG_REGULAR_T7_CH0: timer 7 CC0 event select 
 522:C:/Users/49542/Desktop/GD32F30x_Demo_Suites_V2.0.0/GD32F30x_Demo_Suites_V2.0.0/GD32F30x_Firmware_Library/GD32F30x_standard_peripheral/Source\gd32f30x_adc.c ****       \arg        ADC2_EXTTRIG_REGULAR_T7_TRGO: timer 7 TRGO event select 
 523:C:/Users/49542/Desktop/GD32F30x_Demo_Suites_V2.0.0/GD32F30x_Demo_Suites_V2.0.0/GD32F30x_Firmware_Library/GD32F30x_standard_peripheral/Source\gd32f30x_adc.c ****       \arg        ADC2_EXTTRIG_REGULAR_T4_CH0: timer 4 CC0 event select 
 524:C:/Users/49542/Desktop/GD32F30x_Demo_Suites_V2.0.0/GD32F30x_Demo_Suites_V2.0.0/GD32F30x_Firmware_Library/GD32F30x_standard_peripheral/Source\gd32f30x_adc.c ****       \arg        ADC2_EXTTRIG_REGULAR_T4_CH2: timer 4 CC2 event select
 525:C:/Users/49542/Desktop/GD32F30x_Demo_Suites_V2.0.0/GD32F30x_Demo_Suites_V2.0.0/GD32F30x_Firmware_Library/GD32F30x_standard_peripheral/Source\gd32f30x_adc.c ****       \arg        ADC0_1_2_EXTTRIG_REGULAR_NONE: software trigger      
ARM GAS  C:\Users\49542\AppData\Local\Temp\cctN87BC.s 			page 39


 526:C:/Users/49542/Desktop/GD32F30x_Demo_Suites_V2.0.0/GD32F30x_Demo_Suites_V2.0.0/GD32F30x_Firmware_Library/GD32F30x_standard_peripheral/Source\gd32f30x_adc.c ****                 for inserted channel:
 527:C:/Users/49542/Desktop/GD32F30x_Demo_Suites_V2.0.0/GD32F30x_Demo_Suites_V2.0.0/GD32F30x_Firmware_Library/GD32F30x_standard_peripheral/Source\gd32f30x_adc.c ****       \arg        ADC0_1_EXTTRIG_INSERTED_T0_TRGO: timer 0 TRGO event select 
 528:C:/Users/49542/Desktop/GD32F30x_Demo_Suites_V2.0.0/GD32F30x_Demo_Suites_V2.0.0/GD32F30x_Firmware_Library/GD32F30x_standard_peripheral/Source\gd32f30x_adc.c ****       \arg        ADC0_1_EXTTRIG_INSERTED_T0_CH3: timer 0 CC3 event select 
 529:C:/Users/49542/Desktop/GD32F30x_Demo_Suites_V2.0.0/GD32F30x_Demo_Suites_V2.0.0/GD32F30x_Firmware_Library/GD32F30x_standard_peripheral/Source\gd32f30x_adc.c ****       \arg        ADC0_1_EXTTRIG_INSERTED_T1_TRGO: timer 1 TRGO event select 
 530:C:/Users/49542/Desktop/GD32F30x_Demo_Suites_V2.0.0/GD32F30x_Demo_Suites_V2.0.0/GD32F30x_Firmware_Library/GD32F30x_standard_peripheral/Source\gd32f30x_adc.c ****       \arg        ADC0_1_EXTTRIG_INSERTED_T1_CH0: timer 1 CC0 event select 
 531:C:/Users/49542/Desktop/GD32F30x_Demo_Suites_V2.0.0/GD32F30x_Demo_Suites_V2.0.0/GD32F30x_Firmware_Library/GD32F30x_standard_peripheral/Source\gd32f30x_adc.c ****       \arg        ADC0_1_EXTTRIG_INSERTED_T2_CH3: timer 2 CC3 event select 
 532:C:/Users/49542/Desktop/GD32F30x_Demo_Suites_V2.0.0/GD32F30x_Demo_Suites_V2.0.0/GD32F30x_Firmware_Library/GD32F30x_standard_peripheral/Source\gd32f30x_adc.c ****       \arg        ADC0_1_EXTTRIG_INSERTED_T3_TRGO: timer 3 TRGO event select 
 533:C:/Users/49542/Desktop/GD32F30x_Demo_Suites_V2.0.0/GD32F30x_Demo_Suites_V2.0.0/GD32F30x_Firmware_Library/GD32F30x_standard_peripheral/Source\gd32f30x_adc.c ****       \arg        ADC0_1_EXTTRIG_INSERTED_EXTI_15: external interrupt line 15 
 534:C:/Users/49542/Desktop/GD32F30x_Demo_Suites_V2.0.0/GD32F30x_Demo_Suites_V2.0.0/GD32F30x_Firmware_Library/GD32F30x_standard_peripheral/Source\gd32f30x_adc.c ****       \arg        ADC0_1_EXTTRIG_INSERTED_T7_CH3: timer 7 CC3 event select 
 535:C:/Users/49542/Desktop/GD32F30x_Demo_Suites_V2.0.0/GD32F30x_Demo_Suites_V2.0.0/GD32F30x_Firmware_Library/GD32F30x_standard_peripheral/Source\gd32f30x_adc.c ****       \arg        ADC2_EXTTRIG_INSERTED_T0_TRGO: timer 0 TRGO event select 
 536:C:/Users/49542/Desktop/GD32F30x_Demo_Suites_V2.0.0/GD32F30x_Demo_Suites_V2.0.0/GD32F30x_Firmware_Library/GD32F30x_standard_peripheral/Source\gd32f30x_adc.c ****       \arg        ADC2_EXTTRIG_INSERTED_T0_CH3: timer 0 CC3 event select 
 537:C:/Users/49542/Desktop/GD32F30x_Demo_Suites_V2.0.0/GD32F30x_Demo_Suites_V2.0.0/GD32F30x_Firmware_Library/GD32F30x_standard_peripheral/Source\gd32f30x_adc.c ****       \arg        ADC2_EXTTRIG_INSERTED_T3_CH2: timer 3 CC2 event select 
 538:C:/Users/49542/Desktop/GD32F30x_Demo_Suites_V2.0.0/GD32F30x_Demo_Suites_V2.0.0/GD32F30x_Firmware_Library/GD32F30x_standard_peripheral/Source\gd32f30x_adc.c ****       \arg        ADC2_EXTTRIG_INSERTED_T7_CH1: timer 7 CC1 event select 
 539:C:/Users/49542/Desktop/GD32F30x_Demo_Suites_V2.0.0/GD32F30x_Demo_Suites_V2.0.0/GD32F30x_Firmware_Library/GD32F30x_standard_peripheral/Source\gd32f30x_adc.c ****       \arg        ADC2_EXTTRIG_INSERTED_T7_CH3: timer 7 CC3 event select 
 540:C:/Users/49542/Desktop/GD32F30x_Demo_Suites_V2.0.0/GD32F30x_Demo_Suites_V2.0.0/GD32F30x_Firmware_Library/GD32F30x_standard_peripheral/Source\gd32f30x_adc.c ****       \arg        ADC2_EXTTRIG_INSERTED_T4_TRGO: timer 4 TRGO event select
 541:C:/Users/49542/Desktop/GD32F30x_Demo_Suites_V2.0.0/GD32F30x_Demo_Suites_V2.0.0/GD32F30x_Firmware_Library/GD32F30x_standard_peripheral/Source\gd32f30x_adc.c ****       \arg        ADC2_EXTTRIG_INSERTED_T4_CH3: timer 4 CC3 event select
 542:C:/Users/49542/Desktop/GD32F30x_Demo_Suites_V2.0.0/GD32F30x_Demo_Suites_V2.0.0/GD32F30x_Firmware_Library/GD32F30x_standard_peripheral/Source\gd32f30x_adc.c ****       \arg        ADC0_1_2_EXTTRIG_INSERTED_NONE: software trigger      
 543:C:/Users/49542/Desktop/GD32F30x_Demo_Suites_V2.0.0/GD32F30x_Demo_Suites_V2.0.0/GD32F30x_Firmware_Library/GD32F30x_standard_peripheral/Source\gd32f30x_adc.c ****     \param[out] none
 544:C:/Users/49542/Desktop/GD32F30x_Demo_Suites_V2.0.0/GD32F30x_Demo_Suites_V2.0.0/GD32F30x_Firmware_Library/GD32F30x_standard_peripheral/Source\gd32f30x_adc.c ****     \retval     none
 545:C:/Users/49542/Desktop/GD32F30x_Demo_Suites_V2.0.0/GD32F30x_Demo_Suites_V2.0.0/GD32F30x_Firmware_Library/GD32F30x_standard_peripheral/Source\gd32f30x_adc.c **** */
 546:C:/Users/49542/Desktop/GD32F30x_Demo_Suites_V2.0.0/GD32F30x_Demo_Suites_V2.0.0/GD32F30x_Firmware_Library/GD32F30x_standard_peripheral/Source\gd32f30x_adc.c **** void adc_external_trigger_source_config(uint32_t adc_periph, uint8_t adc_channel_group, uint32_t ex
 547:C:/Users/49542/Desktop/GD32F30x_Demo_Suites_V2.0.0/GD32F30x_Demo_Suites_V2.0.0/GD32F30x_Firmware_Library/GD32F30x_standard_peripheral/Source\gd32f30x_adc.c **** {   
 1637              		.loc 1 547 0
 1638              		.cfi_startproc
 1639              		@ args = 0, pretend = 0, frame = 16
 1640              		@ frame_needed = 1, uses_anonymous_args = 0
 1641              		@ link register save eliminated.
 1642 0000 80B4     		push	{r7}
 1643              	.LCFI103:
 1644              		.cfi_def_cfa_offset 4
 1645              		.cfi_offset 7, -4
 1646 0002 85B0     		sub	sp, sp, #20
 1647              	.LCFI104:
 1648              		.cfi_def_cfa_offset 24
 1649 0004 00AF     		add	r7, sp, #0
 1650              	.LCFI105:
 1651              		.cfi_def_cfa_register 7
 1652 0006 F860     		str	r0, [r7, #12]
 1653 0008 0B46     		mov	r3, r1
 1654 000a 7A60     		str	r2, [r7, #4]
 1655 000c FB72     		strb	r3, [r7, #11]
 548:C:/Users/49542/Desktop/GD32F30x_Demo_Suites_V2.0.0/GD32F30x_Demo_Suites_V2.0.0/GD32F30x_Firmware_Library/GD32F30x_standard_peripheral/Source\gd32f30x_adc.c ****     switch(adc_channel_group){
 1656              		.loc 1 548 0
 1657 000e FB7A     		ldrb	r3, [r7, #11]	@ zero_extendqisi2
 1658 0010 012B     		cmp	r3, #1
 1659 0012 02D0     		beq	.L74
 1660 0014 022B     		cmp	r3, #2
 1661 0016 12D0     		beq	.L75
 549:C:/Users/49542/Desktop/GD32F30x_Demo_Suites_V2.0.0/GD32F30x_Demo_Suites_V2.0.0/GD32F30x_Firmware_Library/GD32F30x_standard_peripheral/Source\gd32f30x_adc.c ****     case ADC_REGULAR_CHANNEL:
 550:C:/Users/49542/Desktop/GD32F30x_Demo_Suites_V2.0.0/GD32F30x_Demo_Suites_V2.0.0/GD32F30x_Firmware_Library/GD32F30x_standard_peripheral/Source\gd32f30x_adc.c ****         ADC_CTL1(adc_periph) &= ~((uint32_t)ADC_CTL1_ETSRC);
 551:C:/Users/49542/Desktop/GD32F30x_Demo_Suites_V2.0.0/GD32F30x_Demo_Suites_V2.0.0/GD32F30x_Firmware_Library/GD32F30x_standard_peripheral/Source\gd32f30x_adc.c ****         ADC_CTL1(adc_periph) |= (uint32_t)external_trigger_source;
 552:C:/Users/49542/Desktop/GD32F30x_Demo_Suites_V2.0.0/GD32F30x_Demo_Suites_V2.0.0/GD32F30x_Firmware_Library/GD32F30x_standard_peripheral/Source\gd32f30x_adc.c ****         break;
 553:C:/Users/49542/Desktop/GD32F30x_Demo_Suites_V2.0.0/GD32F30x_Demo_Suites_V2.0.0/GD32F30x_Firmware_Library/GD32F30x_standard_peripheral/Source\gd32f30x_adc.c ****     case ADC_INSERTED_CHANNEL:
 554:C:/Users/49542/Desktop/GD32F30x_Demo_Suites_V2.0.0/GD32F30x_Demo_Suites_V2.0.0/GD32F30x_Firmware_Library/GD32F30x_standard_peripheral/Source\gd32f30x_adc.c ****         ADC_CTL1(adc_periph) &= ~((uint32_t)ADC_CTL1_ETSIC);
 555:C:/Users/49542/Desktop/GD32F30x_Demo_Suites_V2.0.0/GD32F30x_Demo_Suites_V2.0.0/GD32F30x_Firmware_Library/GD32F30x_standard_peripheral/Source\gd32f30x_adc.c ****         ADC_CTL1(adc_periph) |= (uint32_t)external_trigger_source;
 556:C:/Users/49542/Desktop/GD32F30x_Demo_Suites_V2.0.0/GD32F30x_Demo_Suites_V2.0.0/GD32F30x_Firmware_Library/GD32F30x_standard_peripheral/Source\gd32f30x_adc.c ****         break;
 557:C:/Users/49542/Desktop/GD32F30x_Demo_Suites_V2.0.0/GD32F30x_Demo_Suites_V2.0.0/GD32F30x_Firmware_Library/GD32F30x_standard_peripheral/Source\gd32f30x_adc.c ****     default:
ARM GAS  C:\Users\49542\AppData\Local\Temp\cctN87BC.s 			page 40


 558:C:/Users/49542/Desktop/GD32F30x_Demo_Suites_V2.0.0/GD32F30x_Demo_Suites_V2.0.0/GD32F30x_Firmware_Library/GD32F30x_standard_peripheral/Source\gd32f30x_adc.c ****         break;
 1662              		.loc 1 558 0
 1663 0018 23E0     		b	.L76
 1664              	.L74:
 550:C:/Users/49542/Desktop/GD32F30x_Demo_Suites_V2.0.0/GD32F30x_Demo_Suites_V2.0.0/GD32F30x_Firmware_Library/GD32F30x_standard_peripheral/Source\gd32f30x_adc.c ****         ADC_CTL1(adc_periph) |= (uint32_t)external_trigger_source;
 1665              		.loc 1 550 0
 1666 001a FB68     		ldr	r3, [r7, #12]
 1667 001c 0833     		adds	r3, r3, #8
 1668 001e 1B68     		ldr	r3, [r3]
 1669 0020 FA68     		ldr	r2, [r7, #12]
 1670 0022 0832     		adds	r2, r2, #8
 1671 0024 23F46023 		bic	r3, r3, #917504
 1672 0028 1360     		str	r3, [r2]
 551:C:/Users/49542/Desktop/GD32F30x_Demo_Suites_V2.0.0/GD32F30x_Demo_Suites_V2.0.0/GD32F30x_Firmware_Library/GD32F30x_standard_peripheral/Source\gd32f30x_adc.c ****         break;
 1673              		.loc 1 551 0
 1674 002a FB68     		ldr	r3, [r7, #12]
 1675 002c 0833     		adds	r3, r3, #8
 1676 002e 1A68     		ldr	r2, [r3]
 1677 0030 FB68     		ldr	r3, [r7, #12]
 1678 0032 0833     		adds	r3, r3, #8
 1679 0034 1946     		mov	r1, r3
 1680 0036 7B68     		ldr	r3, [r7, #4]
 1681 0038 1343     		orrs	r3, r3, r2
 1682 003a 0B60     		str	r3, [r1]
 552:C:/Users/49542/Desktop/GD32F30x_Demo_Suites_V2.0.0/GD32F30x_Demo_Suites_V2.0.0/GD32F30x_Firmware_Library/GD32F30x_standard_peripheral/Source\gd32f30x_adc.c ****     case ADC_INSERTED_CHANNEL:
 1683              		.loc 1 552 0
 1684 003c 11E0     		b	.L76
 1685              	.L75:
 554:C:/Users/49542/Desktop/GD32F30x_Demo_Suites_V2.0.0/GD32F30x_Demo_Suites_V2.0.0/GD32F30x_Firmware_Library/GD32F30x_standard_peripheral/Source\gd32f30x_adc.c ****         ADC_CTL1(adc_periph) |= (uint32_t)external_trigger_source;
 1686              		.loc 1 554 0
 1687 003e FB68     		ldr	r3, [r7, #12]
 1688 0040 0833     		adds	r3, r3, #8
 1689 0042 1B68     		ldr	r3, [r3]
 1690 0044 FA68     		ldr	r2, [r7, #12]
 1691 0046 0832     		adds	r2, r2, #8
 1692 0048 23F4E043 		bic	r3, r3, #28672
 1693 004c 1360     		str	r3, [r2]
 555:C:/Users/49542/Desktop/GD32F30x_Demo_Suites_V2.0.0/GD32F30x_Demo_Suites_V2.0.0/GD32F30x_Firmware_Library/GD32F30x_standard_peripheral/Source\gd32f30x_adc.c ****         break;
 1694              		.loc 1 555 0
 1695 004e FB68     		ldr	r3, [r7, #12]
 1696 0050 0833     		adds	r3, r3, #8
 1697 0052 1A68     		ldr	r2, [r3]
 1698 0054 FB68     		ldr	r3, [r7, #12]
 1699 0056 0833     		adds	r3, r3, #8
 1700 0058 1946     		mov	r1, r3
 1701 005a 7B68     		ldr	r3, [r7, #4]
 1702 005c 1343     		orrs	r3, r3, r2
 1703 005e 0B60     		str	r3, [r1]
 556:C:/Users/49542/Desktop/GD32F30x_Demo_Suites_V2.0.0/GD32F30x_Demo_Suites_V2.0.0/GD32F30x_Firmware_Library/GD32F30x_standard_peripheral/Source\gd32f30x_adc.c ****     default:
 1704              		.loc 1 556 0
 1705 0060 00BF     		nop
 1706              	.L76:
 559:C:/Users/49542/Desktop/GD32F30x_Demo_Suites_V2.0.0/GD32F30x_Demo_Suites_V2.0.0/GD32F30x_Firmware_Library/GD32F30x_standard_peripheral/Source\gd32f30x_adc.c ****     }
 560:C:/Users/49542/Desktop/GD32F30x_Demo_Suites_V2.0.0/GD32F30x_Demo_Suites_V2.0.0/GD32F30x_Firmware_Library/GD32F30x_standard_peripheral/Source\gd32f30x_adc.c **** }
 1707              		.loc 1 560 0
 1708 0062 00BF     		nop
 1709 0064 1437     		adds	r7, r7, #20
ARM GAS  C:\Users\49542\AppData\Local\Temp\cctN87BC.s 			page 41


 1710              	.LCFI106:
 1711              		.cfi_def_cfa_offset 4
 1712 0066 BD46     		mov	sp, r7
 1713              	.LCFI107:
 1714              		.cfi_def_cfa_register 13
 1715              		@ sp needed
 1716 0068 5DF8047B 		ldr	r7, [sp], #4
 1717              	.LCFI108:
 1718              		.cfi_restore 7
 1719              		.cfi_def_cfa_offset 0
 1720 006c 7047     		bx	lr
 1721              		.cfi_endproc
 1722              	.LFE134:
 1724              		.section	.text.adc_software_trigger_enable,"ax",%progbits
 1725              		.align	1
 1726              		.global	adc_software_trigger_enable
 1727              		.syntax unified
 1728              		.thumb
 1729              		.thumb_func
 1730              		.fpu fpv4-sp-d16
 1732              	adc_software_trigger_enable:
 1733              	.LFB135:
 561:C:/Users/49542/Desktop/GD32F30x_Demo_Suites_V2.0.0/GD32F30x_Demo_Suites_V2.0.0/GD32F30x_Firmware_Library/GD32F30x_standard_peripheral/Source\gd32f30x_adc.c **** 
 562:C:/Users/49542/Desktop/GD32F30x_Demo_Suites_V2.0.0/GD32F30x_Demo_Suites_V2.0.0/GD32F30x_Firmware_Library/GD32F30x_standard_peripheral/Source\gd32f30x_adc.c **** /*!
 563:C:/Users/49542/Desktop/GD32F30x_Demo_Suites_V2.0.0/GD32F30x_Demo_Suites_V2.0.0/GD32F30x_Firmware_Library/GD32F30x_standard_peripheral/Source\gd32f30x_adc.c ****     \brief      enable ADC software trigger 
 564:C:/Users/49542/Desktop/GD32F30x_Demo_Suites_V2.0.0/GD32F30x_Demo_Suites_V2.0.0/GD32F30x_Firmware_Library/GD32F30x_standard_peripheral/Source\gd32f30x_adc.c ****     \param[in]  adc_periph: ADCx,x=0,1,2
 565:C:/Users/49542/Desktop/GD32F30x_Demo_Suites_V2.0.0/GD32F30x_Demo_Suites_V2.0.0/GD32F30x_Firmware_Library/GD32F30x_standard_peripheral/Source\gd32f30x_adc.c ****                 only one among these parameters can be selected
 566:C:/Users/49542/Desktop/GD32F30x_Demo_Suites_V2.0.0/GD32F30x_Demo_Suites_V2.0.0/GD32F30x_Firmware_Library/GD32F30x_standard_peripheral/Source\gd32f30x_adc.c ****     \param[in]  adc_channel_group: select the channel group
 567:C:/Users/49542/Desktop/GD32F30x_Demo_Suites_V2.0.0/GD32F30x_Demo_Suites_V2.0.0/GD32F30x_Firmware_Library/GD32F30x_standard_peripheral/Source\gd32f30x_adc.c ****                 one or more parameters can be selected
 568:C:/Users/49542/Desktop/GD32F30x_Demo_Suites_V2.0.0/GD32F30x_Demo_Suites_V2.0.0/GD32F30x_Firmware_Library/GD32F30x_standard_peripheral/Source\gd32f30x_adc.c ****       \arg        ADC_REGULAR_CHANNEL: regular channel group
 569:C:/Users/49542/Desktop/GD32F30x_Demo_Suites_V2.0.0/GD32F30x_Demo_Suites_V2.0.0/GD32F30x_Firmware_Library/GD32F30x_standard_peripheral/Source\gd32f30x_adc.c ****       \arg        ADC_INSERTED_CHANNEL: inserted channel group
 570:C:/Users/49542/Desktop/GD32F30x_Demo_Suites_V2.0.0/GD32F30x_Demo_Suites_V2.0.0/GD32F30x_Firmware_Library/GD32F30x_standard_peripheral/Source\gd32f30x_adc.c ****     \param[out] none
 571:C:/Users/49542/Desktop/GD32F30x_Demo_Suites_V2.0.0/GD32F30x_Demo_Suites_V2.0.0/GD32F30x_Firmware_Library/GD32F30x_standard_peripheral/Source\gd32f30x_adc.c ****     \retval     none
 572:C:/Users/49542/Desktop/GD32F30x_Demo_Suites_V2.0.0/GD32F30x_Demo_Suites_V2.0.0/GD32F30x_Firmware_Library/GD32F30x_standard_peripheral/Source\gd32f30x_adc.c **** */
 573:C:/Users/49542/Desktop/GD32F30x_Demo_Suites_V2.0.0/GD32F30x_Demo_Suites_V2.0.0/GD32F30x_Firmware_Library/GD32F30x_standard_peripheral/Source\gd32f30x_adc.c **** void adc_software_trigger_enable(uint32_t adc_periph , uint8_t adc_channel_group)
 574:C:/Users/49542/Desktop/GD32F30x_Demo_Suites_V2.0.0/GD32F30x_Demo_Suites_V2.0.0/GD32F30x_Firmware_Library/GD32F30x_standard_peripheral/Source\gd32f30x_adc.c **** {
 1734              		.loc 1 574 0
 1735              		.cfi_startproc
 1736              		@ args = 0, pretend = 0, frame = 8
 1737              		@ frame_needed = 1, uses_anonymous_args = 0
 1738              		@ link register save eliminated.
 1739 0000 80B4     		push	{r7}
 1740              	.LCFI109:
 1741              		.cfi_def_cfa_offset 4
 1742              		.cfi_offset 7, -4
 1743 0002 83B0     		sub	sp, sp, #12
 1744              	.LCFI110:
 1745              		.cfi_def_cfa_offset 16
 1746 0004 00AF     		add	r7, sp, #0
 1747              	.LCFI111:
 1748              		.cfi_def_cfa_register 7
 1749 0006 7860     		str	r0, [r7, #4]
 1750 0008 0B46     		mov	r3, r1
 1751 000a FB70     		strb	r3, [r7, #3]
 575:C:/Users/49542/Desktop/GD32F30x_Demo_Suites_V2.0.0/GD32F30x_Demo_Suites_V2.0.0/GD32F30x_Firmware_Library/GD32F30x_standard_peripheral/Source\gd32f30x_adc.c ****     if(0U != (adc_channel_group & ADC_REGULAR_CHANNEL)){
 1752              		.loc 1 575 0
 1753 000c FB78     		ldrb	r3, [r7, #3]	@ zero_extendqisi2
ARM GAS  C:\Users\49542\AppData\Local\Temp\cctN87BC.s 			page 42


 1754 000e 03F00103 		and	r3, r3, #1
 1755 0012 002B     		cmp	r3, #0
 1756 0014 07D0     		beq	.L78
 576:C:/Users/49542/Desktop/GD32F30x_Demo_Suites_V2.0.0/GD32F30x_Demo_Suites_V2.0.0/GD32F30x_Firmware_Library/GD32F30x_standard_peripheral/Source\gd32f30x_adc.c ****         ADC_CTL1(adc_periph) |= ADC_CTL1_SWRCST;
 1757              		.loc 1 576 0
 1758 0016 7B68     		ldr	r3, [r7, #4]
 1759 0018 0833     		adds	r3, r3, #8
 1760 001a 1B68     		ldr	r3, [r3]
 1761 001c 7A68     		ldr	r2, [r7, #4]
 1762 001e 0832     		adds	r2, r2, #8
 1763 0020 43F48003 		orr	r3, r3, #4194304
 1764 0024 1360     		str	r3, [r2]
 1765              	.L78:
 577:C:/Users/49542/Desktop/GD32F30x_Demo_Suites_V2.0.0/GD32F30x_Demo_Suites_V2.0.0/GD32F30x_Firmware_Library/GD32F30x_standard_peripheral/Source\gd32f30x_adc.c ****     }
 578:C:/Users/49542/Desktop/GD32F30x_Demo_Suites_V2.0.0/GD32F30x_Demo_Suites_V2.0.0/GD32F30x_Firmware_Library/GD32F30x_standard_peripheral/Source\gd32f30x_adc.c ****     if(0U != (adc_channel_group & ADC_INSERTED_CHANNEL)){
 1766              		.loc 1 578 0
 1767 0026 FB78     		ldrb	r3, [r7, #3]	@ zero_extendqisi2
 1768 0028 03F00203 		and	r3, r3, #2
 1769 002c 002B     		cmp	r3, #0
 1770 002e 07D0     		beq	.L80
 579:C:/Users/49542/Desktop/GD32F30x_Demo_Suites_V2.0.0/GD32F30x_Demo_Suites_V2.0.0/GD32F30x_Firmware_Library/GD32F30x_standard_peripheral/Source\gd32f30x_adc.c ****         ADC_CTL1(adc_periph) |= ADC_CTL1_SWICST;
 1771              		.loc 1 579 0
 1772 0030 7B68     		ldr	r3, [r7, #4]
 1773 0032 0833     		adds	r3, r3, #8
 1774 0034 1B68     		ldr	r3, [r3]
 1775 0036 7A68     		ldr	r2, [r7, #4]
 1776 0038 0832     		adds	r2, r2, #8
 1777 003a 43F40013 		orr	r3, r3, #2097152
 1778 003e 1360     		str	r3, [r2]
 1779              	.L80:
 580:C:/Users/49542/Desktop/GD32F30x_Demo_Suites_V2.0.0/GD32F30x_Demo_Suites_V2.0.0/GD32F30x_Firmware_Library/GD32F30x_standard_peripheral/Source\gd32f30x_adc.c ****     }
 581:C:/Users/49542/Desktop/GD32F30x_Demo_Suites_V2.0.0/GD32F30x_Demo_Suites_V2.0.0/GD32F30x_Firmware_Library/GD32F30x_standard_peripheral/Source\gd32f30x_adc.c **** }
 1780              		.loc 1 581 0
 1781 0040 00BF     		nop
 1782 0042 0C37     		adds	r7, r7, #12
 1783              	.LCFI112:
 1784              		.cfi_def_cfa_offset 4
 1785 0044 BD46     		mov	sp, r7
 1786              	.LCFI113:
 1787              		.cfi_def_cfa_register 13
 1788              		@ sp needed
 1789 0046 5DF8047B 		ldr	r7, [sp], #4
 1790              	.LCFI114:
 1791              		.cfi_restore 7
 1792              		.cfi_def_cfa_offset 0
 1793 004a 7047     		bx	lr
 1794              		.cfi_endproc
 1795              	.LFE135:
 1797              		.section	.text.adc_regular_data_read,"ax",%progbits
 1798              		.align	1
 1799              		.global	adc_regular_data_read
 1800              		.syntax unified
 1801              		.thumb
 1802              		.thumb_func
 1803              		.fpu fpv4-sp-d16
 1805              	adc_regular_data_read:
 1806              	.LFB136:
ARM GAS  C:\Users\49542\AppData\Local\Temp\cctN87BC.s 			page 43


 582:C:/Users/49542/Desktop/GD32F30x_Demo_Suites_V2.0.0/GD32F30x_Demo_Suites_V2.0.0/GD32F30x_Firmware_Library/GD32F30x_standard_peripheral/Source\gd32f30x_adc.c **** 
 583:C:/Users/49542/Desktop/GD32F30x_Demo_Suites_V2.0.0/GD32F30x_Demo_Suites_V2.0.0/GD32F30x_Firmware_Library/GD32F30x_standard_peripheral/Source\gd32f30x_adc.c **** /*!
 584:C:/Users/49542/Desktop/GD32F30x_Demo_Suites_V2.0.0/GD32F30x_Demo_Suites_V2.0.0/GD32F30x_Firmware_Library/GD32F30x_standard_peripheral/Source\gd32f30x_adc.c ****     \brief      read ADC regular group data register 
 585:C:/Users/49542/Desktop/GD32F30x_Demo_Suites_V2.0.0/GD32F30x_Demo_Suites_V2.0.0/GD32F30x_Firmware_Library/GD32F30x_standard_peripheral/Source\gd32f30x_adc.c ****     \param[in]  adc_periph: ADCx,x=0,1,2
 586:C:/Users/49542/Desktop/GD32F30x_Demo_Suites_V2.0.0/GD32F30x_Demo_Suites_V2.0.0/GD32F30x_Firmware_Library/GD32F30x_standard_peripheral/Source\gd32f30x_adc.c ****                 only one among these parameters can be selected
 587:C:/Users/49542/Desktop/GD32F30x_Demo_Suites_V2.0.0/GD32F30x_Demo_Suites_V2.0.0/GD32F30x_Firmware_Library/GD32F30x_standard_peripheral/Source\gd32f30x_adc.c ****     \param[in]  none
 588:C:/Users/49542/Desktop/GD32F30x_Demo_Suites_V2.0.0/GD32F30x_Demo_Suites_V2.0.0/GD32F30x_Firmware_Library/GD32F30x_standard_peripheral/Source\gd32f30x_adc.c ****     \param[out] none
 589:C:/Users/49542/Desktop/GD32F30x_Demo_Suites_V2.0.0/GD32F30x_Demo_Suites_V2.0.0/GD32F30x_Firmware_Library/GD32F30x_standard_peripheral/Source\gd32f30x_adc.c ****     \retval     the conversion value
 590:C:/Users/49542/Desktop/GD32F30x_Demo_Suites_V2.0.0/GD32F30x_Demo_Suites_V2.0.0/GD32F30x_Firmware_Library/GD32F30x_standard_peripheral/Source\gd32f30x_adc.c **** */
 591:C:/Users/49542/Desktop/GD32F30x_Demo_Suites_V2.0.0/GD32F30x_Demo_Suites_V2.0.0/GD32F30x_Firmware_Library/GD32F30x_standard_peripheral/Source\gd32f30x_adc.c **** uint16_t adc_regular_data_read(uint32_t adc_periph)
 592:C:/Users/49542/Desktop/GD32F30x_Demo_Suites_V2.0.0/GD32F30x_Demo_Suites_V2.0.0/GD32F30x_Firmware_Library/GD32F30x_standard_peripheral/Source\gd32f30x_adc.c **** {
 1807              		.loc 1 592 0
 1808              		.cfi_startproc
 1809              		@ args = 0, pretend = 0, frame = 8
 1810              		@ frame_needed = 1, uses_anonymous_args = 0
 1811              		@ link register save eliminated.
 1812 0000 80B4     		push	{r7}
 1813              	.LCFI115:
 1814              		.cfi_def_cfa_offset 4
 1815              		.cfi_offset 7, -4
 1816 0002 83B0     		sub	sp, sp, #12
 1817              	.LCFI116:
 1818              		.cfi_def_cfa_offset 16
 1819 0004 00AF     		add	r7, sp, #0
 1820              	.LCFI117:
 1821              		.cfi_def_cfa_register 7
 1822 0006 7860     		str	r0, [r7, #4]
 593:C:/Users/49542/Desktop/GD32F30x_Demo_Suites_V2.0.0/GD32F30x_Demo_Suites_V2.0.0/GD32F30x_Firmware_Library/GD32F30x_standard_peripheral/Source\gd32f30x_adc.c ****     return (uint16_t)(ADC_RDATA(adc_periph));
 1823              		.loc 1 593 0
 1824 0008 7B68     		ldr	r3, [r7, #4]
 1825 000a 4C33     		adds	r3, r3, #76
 1826 000c 1B68     		ldr	r3, [r3]
 1827 000e 9BB2     		uxth	r3, r3
 594:C:/Users/49542/Desktop/GD32F30x_Demo_Suites_V2.0.0/GD32F30x_Demo_Suites_V2.0.0/GD32F30x_Firmware_Library/GD32F30x_standard_peripheral/Source\gd32f30x_adc.c **** }
 1828              		.loc 1 594 0
 1829 0010 1846     		mov	r0, r3
 1830 0012 0C37     		adds	r7, r7, #12
 1831              	.LCFI118:
 1832              		.cfi_def_cfa_offset 4
 1833 0014 BD46     		mov	sp, r7
 1834              	.LCFI119:
 1835              		.cfi_def_cfa_register 13
 1836              		@ sp needed
 1837 0016 5DF8047B 		ldr	r7, [sp], #4
 1838              	.LCFI120:
 1839              		.cfi_restore 7
 1840              		.cfi_def_cfa_offset 0
 1841 001a 7047     		bx	lr
 1842              		.cfi_endproc
 1843              	.LFE136:
 1845              		.section	.text.adc_inserted_data_read,"ax",%progbits
 1846              		.align	1
 1847              		.global	adc_inserted_data_read
 1848              		.syntax unified
 1849              		.thumb
 1850              		.thumb_func
 1851              		.fpu fpv4-sp-d16
ARM GAS  C:\Users\49542\AppData\Local\Temp\cctN87BC.s 			page 44


 1853              	adc_inserted_data_read:
 1854              	.LFB137:
 595:C:/Users/49542/Desktop/GD32F30x_Demo_Suites_V2.0.0/GD32F30x_Demo_Suites_V2.0.0/GD32F30x_Firmware_Library/GD32F30x_standard_peripheral/Source\gd32f30x_adc.c **** 
 596:C:/Users/49542/Desktop/GD32F30x_Demo_Suites_V2.0.0/GD32F30x_Demo_Suites_V2.0.0/GD32F30x_Firmware_Library/GD32F30x_standard_peripheral/Source\gd32f30x_adc.c **** /*!
 597:C:/Users/49542/Desktop/GD32F30x_Demo_Suites_V2.0.0/GD32F30x_Demo_Suites_V2.0.0/GD32F30x_Firmware_Library/GD32F30x_standard_peripheral/Source\gd32f30x_adc.c ****     \brief      read ADC inserted group data register 
 598:C:/Users/49542/Desktop/GD32F30x_Demo_Suites_V2.0.0/GD32F30x_Demo_Suites_V2.0.0/GD32F30x_Firmware_Library/GD32F30x_standard_peripheral/Source\gd32f30x_adc.c ****     \param[in]  adc_periph: ADCx,x=0,1,2
 599:C:/Users/49542/Desktop/GD32F30x_Demo_Suites_V2.0.0/GD32F30x_Demo_Suites_V2.0.0/GD32F30x_Firmware_Library/GD32F30x_standard_peripheral/Source\gd32f30x_adc.c ****                 only one among these parameters can be selected
 600:C:/Users/49542/Desktop/GD32F30x_Demo_Suites_V2.0.0/GD32F30x_Demo_Suites_V2.0.0/GD32F30x_Firmware_Library/GD32F30x_standard_peripheral/Source\gd32f30x_adc.c ****     \param[in]  inserted_channel : insert channel select
 601:C:/Users/49542/Desktop/GD32F30x_Demo_Suites_V2.0.0/GD32F30x_Demo_Suites_V2.0.0/GD32F30x_Firmware_Library/GD32F30x_standard_peripheral/Source\gd32f30x_adc.c ****                 only one parameter can be selected
 602:C:/Users/49542/Desktop/GD32F30x_Demo_Suites_V2.0.0/GD32F30x_Demo_Suites_V2.0.0/GD32F30x_Firmware_Library/GD32F30x_standard_peripheral/Source\gd32f30x_adc.c ****       \arg        ADC_INSERTED_CHANNEL_0: inserted Channel0
 603:C:/Users/49542/Desktop/GD32F30x_Demo_Suites_V2.0.0/GD32F30x_Demo_Suites_V2.0.0/GD32F30x_Firmware_Library/GD32F30x_standard_peripheral/Source\gd32f30x_adc.c ****       \arg        ADC_INSERTED_CHANNEL_1: inserted channel1
 604:C:/Users/49542/Desktop/GD32F30x_Demo_Suites_V2.0.0/GD32F30x_Demo_Suites_V2.0.0/GD32F30x_Firmware_Library/GD32F30x_standard_peripheral/Source\gd32f30x_adc.c ****       \arg        ADC_INSERTED_CHANNEL_2: inserted Channel2
 605:C:/Users/49542/Desktop/GD32F30x_Demo_Suites_V2.0.0/GD32F30x_Demo_Suites_V2.0.0/GD32F30x_Firmware_Library/GD32F30x_standard_peripheral/Source\gd32f30x_adc.c ****       \arg        ADC_INSERTED_CHANNEL_3: inserted Channel3
 606:C:/Users/49542/Desktop/GD32F30x_Demo_Suites_V2.0.0/GD32F30x_Demo_Suites_V2.0.0/GD32F30x_Firmware_Library/GD32F30x_standard_peripheral/Source\gd32f30x_adc.c ****     \param[out] none
 607:C:/Users/49542/Desktop/GD32F30x_Demo_Suites_V2.0.0/GD32F30x_Demo_Suites_V2.0.0/GD32F30x_Firmware_Library/GD32F30x_standard_peripheral/Source\gd32f30x_adc.c ****     \retval     the conversion value
 608:C:/Users/49542/Desktop/GD32F30x_Demo_Suites_V2.0.0/GD32F30x_Demo_Suites_V2.0.0/GD32F30x_Firmware_Library/GD32F30x_standard_peripheral/Source\gd32f30x_adc.c **** */
 609:C:/Users/49542/Desktop/GD32F30x_Demo_Suites_V2.0.0/GD32F30x_Demo_Suites_V2.0.0/GD32F30x_Firmware_Library/GD32F30x_standard_peripheral/Source\gd32f30x_adc.c **** uint16_t adc_inserted_data_read(uint32_t adc_periph , uint8_t inserted_channel)
 610:C:/Users/49542/Desktop/GD32F30x_Demo_Suites_V2.0.0/GD32F30x_Demo_Suites_V2.0.0/GD32F30x_Firmware_Library/GD32F30x_standard_peripheral/Source\gd32f30x_adc.c **** {
 1855              		.loc 1 610 0
 1856              		.cfi_startproc
 1857              		@ args = 0, pretend = 0, frame = 16
 1858              		@ frame_needed = 1, uses_anonymous_args = 0
 1859              		@ link register save eliminated.
 1860 0000 80B4     		push	{r7}
 1861              	.LCFI121:
 1862              		.cfi_def_cfa_offset 4
 1863              		.cfi_offset 7, -4
 1864 0002 85B0     		sub	sp, sp, #20
 1865              	.LCFI122:
 1866              		.cfi_def_cfa_offset 24
 1867 0004 00AF     		add	r7, sp, #0
 1868              	.LCFI123:
 1869              		.cfi_def_cfa_register 7
 1870 0006 7860     		str	r0, [r7, #4]
 1871 0008 0B46     		mov	r3, r1
 1872 000a FB70     		strb	r3, [r7, #3]
 611:C:/Users/49542/Desktop/GD32F30x_Demo_Suites_V2.0.0/GD32F30x_Demo_Suites_V2.0.0/GD32F30x_Firmware_Library/GD32F30x_standard_peripheral/Source\gd32f30x_adc.c ****     uint32_t idata;
 612:C:/Users/49542/Desktop/GD32F30x_Demo_Suites_V2.0.0/GD32F30x_Demo_Suites_V2.0.0/GD32F30x_Firmware_Library/GD32F30x_standard_peripheral/Source\gd32f30x_adc.c ****     /* read the data of the selected channel */
 613:C:/Users/49542/Desktop/GD32F30x_Demo_Suites_V2.0.0/GD32F30x_Demo_Suites_V2.0.0/GD32F30x_Firmware_Library/GD32F30x_standard_peripheral/Source\gd32f30x_adc.c ****     switch(inserted_channel){
 1873              		.loc 1 613 0
 1874 000c FB78     		ldrb	r3, [r7, #3]	@ zero_extendqisi2
 1875 000e 032B     		cmp	r3, #3
 1876 0010 1ED8     		bhi	.L84
 1877 0012 01A2     		adr	r2, .L86
 1878 0014 52F823F0 		ldr	pc, [r2, r3, lsl #2]
 1879              		.p2align 2
 1880              	.L86:
 1881 0018 29000000 		.word	.L85+1
 1882 001c 33000000 		.word	.L87+1
 1883 0020 3D000000 		.word	.L88+1
 1884 0024 47000000 		.word	.L89+1
 1885              		.p2align 1
 1886              	.L85:
 614:C:/Users/49542/Desktop/GD32F30x_Demo_Suites_V2.0.0/GD32F30x_Demo_Suites_V2.0.0/GD32F30x_Firmware_Library/GD32F30x_standard_peripheral/Source\gd32f30x_adc.c ****     case ADC_INSERTED_CHANNEL_0:
 615:C:/Users/49542/Desktop/GD32F30x_Demo_Suites_V2.0.0/GD32F30x_Demo_Suites_V2.0.0/GD32F30x_Firmware_Library/GD32F30x_standard_peripheral/Source\gd32f30x_adc.c ****         idata = ADC_IDATA0(adc_periph);
 1887              		.loc 1 615 0
 1888 0028 7B68     		ldr	r3, [r7, #4]
ARM GAS  C:\Users\49542\AppData\Local\Temp\cctN87BC.s 			page 45


 1889 002a 3C33     		adds	r3, r3, #60
 1890 002c 1B68     		ldr	r3, [r3]
 1891 002e FB60     		str	r3, [r7, #12]
 616:C:/Users/49542/Desktop/GD32F30x_Demo_Suites_V2.0.0/GD32F30x_Demo_Suites_V2.0.0/GD32F30x_Firmware_Library/GD32F30x_standard_peripheral/Source\gd32f30x_adc.c ****         break;
 1892              		.loc 1 616 0
 1893 0030 11E0     		b	.L90
 1894              	.L87:
 617:C:/Users/49542/Desktop/GD32F30x_Demo_Suites_V2.0.0/GD32F30x_Demo_Suites_V2.0.0/GD32F30x_Firmware_Library/GD32F30x_standard_peripheral/Source\gd32f30x_adc.c ****     case ADC_INSERTED_CHANNEL_1:
 618:C:/Users/49542/Desktop/GD32F30x_Demo_Suites_V2.0.0/GD32F30x_Demo_Suites_V2.0.0/GD32F30x_Firmware_Library/GD32F30x_standard_peripheral/Source\gd32f30x_adc.c ****         idata = ADC_IDATA1(adc_periph);
 1895              		.loc 1 618 0
 1896 0032 7B68     		ldr	r3, [r7, #4]
 1897 0034 4033     		adds	r3, r3, #64
 1898 0036 1B68     		ldr	r3, [r3]
 1899 0038 FB60     		str	r3, [r7, #12]
 619:C:/Users/49542/Desktop/GD32F30x_Demo_Suites_V2.0.0/GD32F30x_Demo_Suites_V2.0.0/GD32F30x_Firmware_Library/GD32F30x_standard_peripheral/Source\gd32f30x_adc.c ****         break;
 1900              		.loc 1 619 0
 1901 003a 0CE0     		b	.L90
 1902              	.L88:
 620:C:/Users/49542/Desktop/GD32F30x_Demo_Suites_V2.0.0/GD32F30x_Demo_Suites_V2.0.0/GD32F30x_Firmware_Library/GD32F30x_standard_peripheral/Source\gd32f30x_adc.c ****     case ADC_INSERTED_CHANNEL_2:
 621:C:/Users/49542/Desktop/GD32F30x_Demo_Suites_V2.0.0/GD32F30x_Demo_Suites_V2.0.0/GD32F30x_Firmware_Library/GD32F30x_standard_peripheral/Source\gd32f30x_adc.c ****         idata = ADC_IDATA2(adc_periph);
 1903              		.loc 1 621 0
 1904 003c 7B68     		ldr	r3, [r7, #4]
 1905 003e 4433     		adds	r3, r3, #68
 1906 0040 1B68     		ldr	r3, [r3]
 1907 0042 FB60     		str	r3, [r7, #12]
 622:C:/Users/49542/Desktop/GD32F30x_Demo_Suites_V2.0.0/GD32F30x_Demo_Suites_V2.0.0/GD32F30x_Firmware_Library/GD32F30x_standard_peripheral/Source\gd32f30x_adc.c ****         break;
 1908              		.loc 1 622 0
 1909 0044 07E0     		b	.L90
 1910              	.L89:
 623:C:/Users/49542/Desktop/GD32F30x_Demo_Suites_V2.0.0/GD32F30x_Demo_Suites_V2.0.0/GD32F30x_Firmware_Library/GD32F30x_standard_peripheral/Source\gd32f30x_adc.c ****     case ADC_INSERTED_CHANNEL_3:
 624:C:/Users/49542/Desktop/GD32F30x_Demo_Suites_V2.0.0/GD32F30x_Demo_Suites_V2.0.0/GD32F30x_Firmware_Library/GD32F30x_standard_peripheral/Source\gd32f30x_adc.c ****         idata = ADC_IDATA3(adc_periph);
 1911              		.loc 1 624 0
 1912 0046 7B68     		ldr	r3, [r7, #4]
 1913 0048 4833     		adds	r3, r3, #72
 1914 004a 1B68     		ldr	r3, [r3]
 1915 004c FB60     		str	r3, [r7, #12]
 625:C:/Users/49542/Desktop/GD32F30x_Demo_Suites_V2.0.0/GD32F30x_Demo_Suites_V2.0.0/GD32F30x_Firmware_Library/GD32F30x_standard_peripheral/Source\gd32f30x_adc.c ****         break;
 1916              		.loc 1 625 0
 1917 004e 02E0     		b	.L90
 1918              	.L84:
 626:C:/Users/49542/Desktop/GD32F30x_Demo_Suites_V2.0.0/GD32F30x_Demo_Suites_V2.0.0/GD32F30x_Firmware_Library/GD32F30x_standard_peripheral/Source\gd32f30x_adc.c ****     default:
 627:C:/Users/49542/Desktop/GD32F30x_Demo_Suites_V2.0.0/GD32F30x_Demo_Suites_V2.0.0/GD32F30x_Firmware_Library/GD32F30x_standard_peripheral/Source\gd32f30x_adc.c ****         idata = 0U;
 1919              		.loc 1 627 0
 1920 0050 0023     		movs	r3, #0
 1921 0052 FB60     		str	r3, [r7, #12]
 628:C:/Users/49542/Desktop/GD32F30x_Demo_Suites_V2.0.0/GD32F30x_Demo_Suites_V2.0.0/GD32F30x_Firmware_Library/GD32F30x_standard_peripheral/Source\gd32f30x_adc.c ****         break;
 1922              		.loc 1 628 0
 1923 0054 00BF     		nop
 1924              	.L90:
 629:C:/Users/49542/Desktop/GD32F30x_Demo_Suites_V2.0.0/GD32F30x_Demo_Suites_V2.0.0/GD32F30x_Firmware_Library/GD32F30x_standard_peripheral/Source\gd32f30x_adc.c ****     }
 630:C:/Users/49542/Desktop/GD32F30x_Demo_Suites_V2.0.0/GD32F30x_Demo_Suites_V2.0.0/GD32F30x_Firmware_Library/GD32F30x_standard_peripheral/Source\gd32f30x_adc.c ****     return (uint16_t)idata;
 1925              		.loc 1 630 0
 1926 0056 FB68     		ldr	r3, [r7, #12]
 1927 0058 9BB2     		uxth	r3, r3
 631:C:/Users/49542/Desktop/GD32F30x_Demo_Suites_V2.0.0/GD32F30x_Demo_Suites_V2.0.0/GD32F30x_Firmware_Library/GD32F30x_standard_peripheral/Source\gd32f30x_adc.c **** }
 1928              		.loc 1 631 0
 1929 005a 1846     		mov	r0, r3
ARM GAS  C:\Users\49542\AppData\Local\Temp\cctN87BC.s 			page 46


 1930 005c 1437     		adds	r7, r7, #20
 1931              	.LCFI124:
 1932              		.cfi_def_cfa_offset 4
 1933 005e BD46     		mov	sp, r7
 1934              	.LCFI125:
 1935              		.cfi_def_cfa_register 13
 1936              		@ sp needed
 1937 0060 5DF8047B 		ldr	r7, [sp], #4
 1938              	.LCFI126:
 1939              		.cfi_restore 7
 1940              		.cfi_def_cfa_offset 0
 1941 0064 7047     		bx	lr
 1942              		.cfi_endproc
 1943              	.LFE137:
 1945 0066 00BF     		.section	.text.adc_sync_mode_convert_value_read,"ax",%progbits
 1946              		.align	1
 1947              		.global	adc_sync_mode_convert_value_read
 1948              		.syntax unified
 1949              		.thumb
 1950              		.thumb_func
 1951              		.fpu fpv4-sp-d16
 1953              	adc_sync_mode_convert_value_read:
 1954              	.LFB138:
 632:C:/Users/49542/Desktop/GD32F30x_Demo_Suites_V2.0.0/GD32F30x_Demo_Suites_V2.0.0/GD32F30x_Firmware_Library/GD32F30x_standard_peripheral/Source\gd32f30x_adc.c **** 
 633:C:/Users/49542/Desktop/GD32F30x_Demo_Suites_V2.0.0/GD32F30x_Demo_Suites_V2.0.0/GD32F30x_Firmware_Library/GD32F30x_standard_peripheral/Source\gd32f30x_adc.c **** /*!
 634:C:/Users/49542/Desktop/GD32F30x_Demo_Suites_V2.0.0/GD32F30x_Demo_Suites_V2.0.0/GD32F30x_Firmware_Library/GD32F30x_standard_peripheral/Source\gd32f30x_adc.c ****     \brief      read the last ADC0 and ADC1 conversion result data in sync mode
 635:C:/Users/49542/Desktop/GD32F30x_Demo_Suites_V2.0.0/GD32F30x_Demo_Suites_V2.0.0/GD32F30x_Firmware_Library/GD32F30x_standard_peripheral/Source\gd32f30x_adc.c ****     \param[in]  none
 636:C:/Users/49542/Desktop/GD32F30x_Demo_Suites_V2.0.0/GD32F30x_Demo_Suites_V2.0.0/GD32F30x_Firmware_Library/GD32F30x_standard_peripheral/Source\gd32f30x_adc.c ****     \param[out] none
 637:C:/Users/49542/Desktop/GD32F30x_Demo_Suites_V2.0.0/GD32F30x_Demo_Suites_V2.0.0/GD32F30x_Firmware_Library/GD32F30x_standard_peripheral/Source\gd32f30x_adc.c ****     \retval     the conversion value
 638:C:/Users/49542/Desktop/GD32F30x_Demo_Suites_V2.0.0/GD32F30x_Demo_Suites_V2.0.0/GD32F30x_Firmware_Library/GD32F30x_standard_peripheral/Source\gd32f30x_adc.c **** */
 639:C:/Users/49542/Desktop/GD32F30x_Demo_Suites_V2.0.0/GD32F30x_Demo_Suites_V2.0.0/GD32F30x_Firmware_Library/GD32F30x_standard_peripheral/Source\gd32f30x_adc.c **** uint32_t adc_sync_mode_convert_value_read(void)
 640:C:/Users/49542/Desktop/GD32F30x_Demo_Suites_V2.0.0/GD32F30x_Demo_Suites_V2.0.0/GD32F30x_Firmware_Library/GD32F30x_standard_peripheral/Source\gd32f30x_adc.c **** {
 1955              		.loc 1 640 0
 1956              		.cfi_startproc
 1957              		@ args = 0, pretend = 0, frame = 0
 1958              		@ frame_needed = 1, uses_anonymous_args = 0
 1959              		@ link register save eliminated.
 1960 0000 80B4     		push	{r7}
 1961              	.LCFI127:
 1962              		.cfi_def_cfa_offset 4
 1963              		.cfi_offset 7, -4
 1964 0002 00AF     		add	r7, sp, #0
 1965              	.LCFI128:
 1966              		.cfi_def_cfa_register 7
 641:C:/Users/49542/Desktop/GD32F30x_Demo_Suites_V2.0.0/GD32F30x_Demo_Suites_V2.0.0/GD32F30x_Firmware_Library/GD32F30x_standard_peripheral/Source\gd32f30x_adc.c ****     /* return conversion value */
 642:C:/Users/49542/Desktop/GD32F30x_Demo_Suites_V2.0.0/GD32F30x_Demo_Suites_V2.0.0/GD32F30x_Firmware_Library/GD32F30x_standard_peripheral/Source\gd32f30x_adc.c ****     return ADC_RDATA(ADC0);
 1967              		.loc 1 642 0
 1968 0004 034B     		ldr	r3, .L94
 1969 0006 1B68     		ldr	r3, [r3]
 643:C:/Users/49542/Desktop/GD32F30x_Demo_Suites_V2.0.0/GD32F30x_Demo_Suites_V2.0.0/GD32F30x_Firmware_Library/GD32F30x_standard_peripheral/Source\gd32f30x_adc.c **** }
 1970              		.loc 1 643 0
 1971 0008 1846     		mov	r0, r3
 1972 000a BD46     		mov	sp, r7
 1973              	.LCFI129:
 1974              		.cfi_def_cfa_register 13
 1975              		@ sp needed
 1976 000c 5DF8047B 		ldr	r7, [sp], #4
ARM GAS  C:\Users\49542\AppData\Local\Temp\cctN87BC.s 			page 47


 1977              	.LCFI130:
 1978              		.cfi_restore 7
 1979              		.cfi_def_cfa_offset 0
 1980 0010 7047     		bx	lr
 1981              	.L95:
 1982 0012 00BF     		.align	2
 1983              	.L94:
 1984 0014 4C240140 		.word	1073816652
 1985              		.cfi_endproc
 1986              	.LFE138:
 1988              		.section	.text.adc_flag_get,"ax",%progbits
 1989              		.align	1
 1990              		.global	adc_flag_get
 1991              		.syntax unified
 1992              		.thumb
 1993              		.thumb_func
 1994              		.fpu fpv4-sp-d16
 1996              	adc_flag_get:
 1997              	.LFB139:
 644:C:/Users/49542/Desktop/GD32F30x_Demo_Suites_V2.0.0/GD32F30x_Demo_Suites_V2.0.0/GD32F30x_Firmware_Library/GD32F30x_standard_peripheral/Source\gd32f30x_adc.c **** 
 645:C:/Users/49542/Desktop/GD32F30x_Demo_Suites_V2.0.0/GD32F30x_Demo_Suites_V2.0.0/GD32F30x_Firmware_Library/GD32F30x_standard_peripheral/Source\gd32f30x_adc.c **** /*!
 646:C:/Users/49542/Desktop/GD32F30x_Demo_Suites_V2.0.0/GD32F30x_Demo_Suites_V2.0.0/GD32F30x_Firmware_Library/GD32F30x_standard_peripheral/Source\gd32f30x_adc.c ****     \brief      get the ADC flag bits
 647:C:/Users/49542/Desktop/GD32F30x_Demo_Suites_V2.0.0/GD32F30x_Demo_Suites_V2.0.0/GD32F30x_Firmware_Library/GD32F30x_standard_peripheral/Source\gd32f30x_adc.c ****     \param[in]  adc_periph: ADCx,x=0,1,2
 648:C:/Users/49542/Desktop/GD32F30x_Demo_Suites_V2.0.0/GD32F30x_Demo_Suites_V2.0.0/GD32F30x_Firmware_Library/GD32F30x_standard_peripheral/Source\gd32f30x_adc.c ****                 only one among these parameters can be selected
 649:C:/Users/49542/Desktop/GD32F30x_Demo_Suites_V2.0.0/GD32F30x_Demo_Suites_V2.0.0/GD32F30x_Firmware_Library/GD32F30x_standard_peripheral/Source\gd32f30x_adc.c ****     \param[in]  adc_flag: the adc flag bits
 650:C:/Users/49542/Desktop/GD32F30x_Demo_Suites_V2.0.0/GD32F30x_Demo_Suites_V2.0.0/GD32F30x_Firmware_Library/GD32F30x_standard_peripheral/Source\gd32f30x_adc.c ****                 only one parameter can be selected
 651:C:/Users/49542/Desktop/GD32F30x_Demo_Suites_V2.0.0/GD32F30x_Demo_Suites_V2.0.0/GD32F30x_Firmware_Library/GD32F30x_standard_peripheral/Source\gd32f30x_adc.c ****       \arg        ADC_FLAG_WDE: analog watchdog event flag
 652:C:/Users/49542/Desktop/GD32F30x_Demo_Suites_V2.0.0/GD32F30x_Demo_Suites_V2.0.0/GD32F30x_Firmware_Library/GD32F30x_standard_peripheral/Source\gd32f30x_adc.c ****       \arg        ADC_FLAG_EOC: end of group conversion flag
 653:C:/Users/49542/Desktop/GD32F30x_Demo_Suites_V2.0.0/GD32F30x_Demo_Suites_V2.0.0/GD32F30x_Firmware_Library/GD32F30x_standard_peripheral/Source\gd32f30x_adc.c ****       \arg        ADC_FLAG_EOIC: end of inserted group conversion flag
 654:C:/Users/49542/Desktop/GD32F30x_Demo_Suites_V2.0.0/GD32F30x_Demo_Suites_V2.0.0/GD32F30x_Firmware_Library/GD32F30x_standard_peripheral/Source\gd32f30x_adc.c ****       \arg        ADC_FLAG_STIC: start flag of inserted channel group
 655:C:/Users/49542/Desktop/GD32F30x_Demo_Suites_V2.0.0/GD32F30x_Demo_Suites_V2.0.0/GD32F30x_Firmware_Library/GD32F30x_standard_peripheral/Source\gd32f30x_adc.c ****       \arg        ADC_FLAG_STRC: start flag of regular channel group
 656:C:/Users/49542/Desktop/GD32F30x_Demo_Suites_V2.0.0/GD32F30x_Demo_Suites_V2.0.0/GD32F30x_Firmware_Library/GD32F30x_standard_peripheral/Source\gd32f30x_adc.c ****     \param[out] none
 657:C:/Users/49542/Desktop/GD32F30x_Demo_Suites_V2.0.0/GD32F30x_Demo_Suites_V2.0.0/GD32F30x_Firmware_Library/GD32F30x_standard_peripheral/Source\gd32f30x_adc.c ****     \retval     FlagStatus: SET or RESET
 658:C:/Users/49542/Desktop/GD32F30x_Demo_Suites_V2.0.0/GD32F30x_Demo_Suites_V2.0.0/GD32F30x_Firmware_Library/GD32F30x_standard_peripheral/Source\gd32f30x_adc.c **** */
 659:C:/Users/49542/Desktop/GD32F30x_Demo_Suites_V2.0.0/GD32F30x_Demo_Suites_V2.0.0/GD32F30x_Firmware_Library/GD32F30x_standard_peripheral/Source\gd32f30x_adc.c **** FlagStatus adc_flag_get(uint32_t adc_periph , uint32_t adc_flag)
 660:C:/Users/49542/Desktop/GD32F30x_Demo_Suites_V2.0.0/GD32F30x_Demo_Suites_V2.0.0/GD32F30x_Firmware_Library/GD32F30x_standard_peripheral/Source\gd32f30x_adc.c **** {
 1998              		.loc 1 660 0
 1999              		.cfi_startproc
 2000              		@ args = 0, pretend = 0, frame = 16
 2001              		@ frame_needed = 1, uses_anonymous_args = 0
 2002              		@ link register save eliminated.
 2003 0000 80B4     		push	{r7}
 2004              	.LCFI131:
 2005              		.cfi_def_cfa_offset 4
 2006              		.cfi_offset 7, -4
 2007 0002 85B0     		sub	sp, sp, #20
 2008              	.LCFI132:
 2009              		.cfi_def_cfa_offset 24
 2010 0004 00AF     		add	r7, sp, #0
 2011              	.LCFI133:
 2012              		.cfi_def_cfa_register 7
 2013 0006 7860     		str	r0, [r7, #4]
 2014 0008 3960     		str	r1, [r7]
 661:C:/Users/49542/Desktop/GD32F30x_Demo_Suites_V2.0.0/GD32F30x_Demo_Suites_V2.0.0/GD32F30x_Firmware_Library/GD32F30x_standard_peripheral/Source\gd32f30x_adc.c ****     FlagStatus reval = RESET;
 2015              		.loc 1 661 0
 2016 000a 0023     		movs	r3, #0
 2017 000c FB73     		strb	r3, [r7, #15]
ARM GAS  C:\Users\49542\AppData\Local\Temp\cctN87BC.s 			page 48


 662:C:/Users/49542/Desktop/GD32F30x_Demo_Suites_V2.0.0/GD32F30x_Demo_Suites_V2.0.0/GD32F30x_Firmware_Library/GD32F30x_standard_peripheral/Source\gd32f30x_adc.c ****     if(ADC_STAT(adc_periph) & adc_flag){
 2018              		.loc 1 662 0
 2019 000e 7B68     		ldr	r3, [r7, #4]
 2020 0010 1A68     		ldr	r2, [r3]
 2021 0012 3B68     		ldr	r3, [r7]
 2022 0014 1340     		ands	r3, r3, r2
 2023 0016 002B     		cmp	r3, #0
 2024 0018 01D0     		beq	.L97
 663:C:/Users/49542/Desktop/GD32F30x_Demo_Suites_V2.0.0/GD32F30x_Demo_Suites_V2.0.0/GD32F30x_Firmware_Library/GD32F30x_standard_peripheral/Source\gd32f30x_adc.c ****         reval = SET;
 2025              		.loc 1 663 0
 2026 001a 0123     		movs	r3, #1
 2027 001c FB73     		strb	r3, [r7, #15]
 2028              	.L97:
 664:C:/Users/49542/Desktop/GD32F30x_Demo_Suites_V2.0.0/GD32F30x_Demo_Suites_V2.0.0/GD32F30x_Firmware_Library/GD32F30x_standard_peripheral/Source\gd32f30x_adc.c ****     }
 665:C:/Users/49542/Desktop/GD32F30x_Demo_Suites_V2.0.0/GD32F30x_Demo_Suites_V2.0.0/GD32F30x_Firmware_Library/GD32F30x_standard_peripheral/Source\gd32f30x_adc.c ****     return reval;
 2029              		.loc 1 665 0
 2030 001e FB7B     		ldrb	r3, [r7, #15]	@ zero_extendqisi2
 666:C:/Users/49542/Desktop/GD32F30x_Demo_Suites_V2.0.0/GD32F30x_Demo_Suites_V2.0.0/GD32F30x_Firmware_Library/GD32F30x_standard_peripheral/Source\gd32f30x_adc.c **** }
 2031              		.loc 1 666 0
 2032 0020 1846     		mov	r0, r3
 2033 0022 1437     		adds	r7, r7, #20
 2034              	.LCFI134:
 2035              		.cfi_def_cfa_offset 4
 2036 0024 BD46     		mov	sp, r7
 2037              	.LCFI135:
 2038              		.cfi_def_cfa_register 13
 2039              		@ sp needed
 2040 0026 5DF8047B 		ldr	r7, [sp], #4
 2041              	.LCFI136:
 2042              		.cfi_restore 7
 2043              		.cfi_def_cfa_offset 0
 2044 002a 7047     		bx	lr
 2045              		.cfi_endproc
 2046              	.LFE139:
 2048              		.section	.text.adc_flag_clear,"ax",%progbits
 2049              		.align	1
 2050              		.global	adc_flag_clear
 2051              		.syntax unified
 2052              		.thumb
 2053              		.thumb_func
 2054              		.fpu fpv4-sp-d16
 2056              	adc_flag_clear:
 2057              	.LFB140:
 667:C:/Users/49542/Desktop/GD32F30x_Demo_Suites_V2.0.0/GD32F30x_Demo_Suites_V2.0.0/GD32F30x_Firmware_Library/GD32F30x_standard_peripheral/Source\gd32f30x_adc.c **** 
 668:C:/Users/49542/Desktop/GD32F30x_Demo_Suites_V2.0.0/GD32F30x_Demo_Suites_V2.0.0/GD32F30x_Firmware_Library/GD32F30x_standard_peripheral/Source\gd32f30x_adc.c **** /*!
 669:C:/Users/49542/Desktop/GD32F30x_Demo_Suites_V2.0.0/GD32F30x_Demo_Suites_V2.0.0/GD32F30x_Firmware_Library/GD32F30x_standard_peripheral/Source\gd32f30x_adc.c ****     \brief      clear the ADC flag bits
 670:C:/Users/49542/Desktop/GD32F30x_Demo_Suites_V2.0.0/GD32F30x_Demo_Suites_V2.0.0/GD32F30x_Firmware_Library/GD32F30x_standard_peripheral/Source\gd32f30x_adc.c ****     \param[in]  adc_periph: ADCx,x=0,1,2
 671:C:/Users/49542/Desktop/GD32F30x_Demo_Suites_V2.0.0/GD32F30x_Demo_Suites_V2.0.0/GD32F30x_Firmware_Library/GD32F30x_standard_peripheral/Source\gd32f30x_adc.c ****                 only one among these parameters can be selected
 672:C:/Users/49542/Desktop/GD32F30x_Demo_Suites_V2.0.0/GD32F30x_Demo_Suites_V2.0.0/GD32F30x_Firmware_Library/GD32F30x_standard_peripheral/Source\gd32f30x_adc.c ****     \param[in]  adc_flag: the adc flag bits
 673:C:/Users/49542/Desktop/GD32F30x_Demo_Suites_V2.0.0/GD32F30x_Demo_Suites_V2.0.0/GD32F30x_Firmware_Library/GD32F30x_standard_peripheral/Source\gd32f30x_adc.c ****                 one or more parameters can be selected
 674:C:/Users/49542/Desktop/GD32F30x_Demo_Suites_V2.0.0/GD32F30x_Demo_Suites_V2.0.0/GD32F30x_Firmware_Library/GD32F30x_standard_peripheral/Source\gd32f30x_adc.c ****       \arg        ADC_FLAG_WDE: analog watchdog event flag
 675:C:/Users/49542/Desktop/GD32F30x_Demo_Suites_V2.0.0/GD32F30x_Demo_Suites_V2.0.0/GD32F30x_Firmware_Library/GD32F30x_standard_peripheral/Source\gd32f30x_adc.c ****       \arg        ADC_FLAG_EOC: end of group conversion flag
 676:C:/Users/49542/Desktop/GD32F30x_Demo_Suites_V2.0.0/GD32F30x_Demo_Suites_V2.0.0/GD32F30x_Firmware_Library/GD32F30x_standard_peripheral/Source\gd32f30x_adc.c ****       \arg        ADC_FLAG_EOIC: end of inserted group conversion flag
 677:C:/Users/49542/Desktop/GD32F30x_Demo_Suites_V2.0.0/GD32F30x_Demo_Suites_V2.0.0/GD32F30x_Firmware_Library/GD32F30x_standard_peripheral/Source\gd32f30x_adc.c ****       \arg        ADC_FLAG_STIC: start flag of inserted channel group
 678:C:/Users/49542/Desktop/GD32F30x_Demo_Suites_V2.0.0/GD32F30x_Demo_Suites_V2.0.0/GD32F30x_Firmware_Library/GD32F30x_standard_peripheral/Source\gd32f30x_adc.c ****       \arg        ADC_FLAG_STRC: start flag of regular channel group
 679:C:/Users/49542/Desktop/GD32F30x_Demo_Suites_V2.0.0/GD32F30x_Demo_Suites_V2.0.0/GD32F30x_Firmware_Library/GD32F30x_standard_peripheral/Source\gd32f30x_adc.c ****     \param[out] none
 680:C:/Users/49542/Desktop/GD32F30x_Demo_Suites_V2.0.0/GD32F30x_Demo_Suites_V2.0.0/GD32F30x_Firmware_Library/GD32F30x_standard_peripheral/Source\gd32f30x_adc.c ****     \retval     none
ARM GAS  C:\Users\49542\AppData\Local\Temp\cctN87BC.s 			page 49


 681:C:/Users/49542/Desktop/GD32F30x_Demo_Suites_V2.0.0/GD32F30x_Demo_Suites_V2.0.0/GD32F30x_Firmware_Library/GD32F30x_standard_peripheral/Source\gd32f30x_adc.c **** */
 682:C:/Users/49542/Desktop/GD32F30x_Demo_Suites_V2.0.0/GD32F30x_Demo_Suites_V2.0.0/GD32F30x_Firmware_Library/GD32F30x_standard_peripheral/Source\gd32f30x_adc.c **** void adc_flag_clear(uint32_t adc_periph , uint32_t adc_flag)
 683:C:/Users/49542/Desktop/GD32F30x_Demo_Suites_V2.0.0/GD32F30x_Demo_Suites_V2.0.0/GD32F30x_Firmware_Library/GD32F30x_standard_peripheral/Source\gd32f30x_adc.c **** {
 2058              		.loc 1 683 0
 2059              		.cfi_startproc
 2060              		@ args = 0, pretend = 0, frame = 8
 2061              		@ frame_needed = 1, uses_anonymous_args = 0
 2062              		@ link register save eliminated.
 2063 0000 80B4     		push	{r7}
 2064              	.LCFI137:
 2065              		.cfi_def_cfa_offset 4
 2066              		.cfi_offset 7, -4
 2067 0002 83B0     		sub	sp, sp, #12
 2068              	.LCFI138:
 2069              		.cfi_def_cfa_offset 16
 2070 0004 00AF     		add	r7, sp, #0
 2071              	.LCFI139:
 2072              		.cfi_def_cfa_register 7
 2073 0006 7860     		str	r0, [r7, #4]
 2074 0008 3960     		str	r1, [r7]
 684:C:/Users/49542/Desktop/GD32F30x_Demo_Suites_V2.0.0/GD32F30x_Demo_Suites_V2.0.0/GD32F30x_Firmware_Library/GD32F30x_standard_peripheral/Source\gd32f30x_adc.c ****     ADC_STAT(adc_periph) &= ~((uint32_t)adc_flag);
 2075              		.loc 1 684 0
 2076 000a 7B68     		ldr	r3, [r7, #4]
 2077 000c 1968     		ldr	r1, [r3]
 2078 000e 3B68     		ldr	r3, [r7]
 2079 0010 DA43     		mvns	r2, r3
 2080 0012 7B68     		ldr	r3, [r7, #4]
 2081 0014 0A40     		ands	r2, r2, r1
 2082 0016 1A60     		str	r2, [r3]
 685:C:/Users/49542/Desktop/GD32F30x_Demo_Suites_V2.0.0/GD32F30x_Demo_Suites_V2.0.0/GD32F30x_Firmware_Library/GD32F30x_standard_peripheral/Source\gd32f30x_adc.c **** }
 2083              		.loc 1 685 0
 2084 0018 00BF     		nop
 2085 001a 0C37     		adds	r7, r7, #12
 2086              	.LCFI140:
 2087              		.cfi_def_cfa_offset 4
 2088 001c BD46     		mov	sp, r7
 2089              	.LCFI141:
 2090              		.cfi_def_cfa_register 13
 2091              		@ sp needed
 2092 001e 5DF8047B 		ldr	r7, [sp], #4
 2093              	.LCFI142:
 2094              		.cfi_restore 7
 2095              		.cfi_def_cfa_offset 0
 2096 0022 7047     		bx	lr
 2097              		.cfi_endproc
 2098              	.LFE140:
 2100              		.section	.text.adc_interrupt_flag_get,"ax",%progbits
 2101              		.align	1
 2102              		.global	adc_interrupt_flag_get
 2103              		.syntax unified
 2104              		.thumb
 2105              		.thumb_func
 2106              		.fpu fpv4-sp-d16
 2108              	adc_interrupt_flag_get:
 2109              	.LFB141:
 686:C:/Users/49542/Desktop/GD32F30x_Demo_Suites_V2.0.0/GD32F30x_Demo_Suites_V2.0.0/GD32F30x_Firmware_Library/GD32F30x_standard_peripheral/Source\gd32f30x_adc.c **** 
 687:C:/Users/49542/Desktop/GD32F30x_Demo_Suites_V2.0.0/GD32F30x_Demo_Suites_V2.0.0/GD32F30x_Firmware_Library/GD32F30x_standard_peripheral/Source\gd32f30x_adc.c **** /*!
ARM GAS  C:\Users\49542\AppData\Local\Temp\cctN87BC.s 			page 50


 688:C:/Users/49542/Desktop/GD32F30x_Demo_Suites_V2.0.0/GD32F30x_Demo_Suites_V2.0.0/GD32F30x_Firmware_Library/GD32F30x_standard_peripheral/Source\gd32f30x_adc.c ****     \brief      get the ADC interrupt bits
 689:C:/Users/49542/Desktop/GD32F30x_Demo_Suites_V2.0.0/GD32F30x_Demo_Suites_V2.0.0/GD32F30x_Firmware_Library/GD32F30x_standard_peripheral/Source\gd32f30x_adc.c ****     \param[in]  adc_periph: ADCx,x=0,1,2
 690:C:/Users/49542/Desktop/GD32F30x_Demo_Suites_V2.0.0/GD32F30x_Demo_Suites_V2.0.0/GD32F30x_Firmware_Library/GD32F30x_standard_peripheral/Source\gd32f30x_adc.c ****                 only one among these parameters can be selected
 691:C:/Users/49542/Desktop/GD32F30x_Demo_Suites_V2.0.0/GD32F30x_Demo_Suites_V2.0.0/GD32F30x_Firmware_Library/GD32F30x_standard_peripheral/Source\gd32f30x_adc.c ****     \param[in]  adc_interrupt: the adc interrupt bits
 692:C:/Users/49542/Desktop/GD32F30x_Demo_Suites_V2.0.0/GD32F30x_Demo_Suites_V2.0.0/GD32F30x_Firmware_Library/GD32F30x_standard_peripheral/Source\gd32f30x_adc.c ****                 only oneparameter can be selected
 693:C:/Users/49542/Desktop/GD32F30x_Demo_Suites_V2.0.0/GD32F30x_Demo_Suites_V2.0.0/GD32F30x_Firmware_Library/GD32F30x_standard_peripheral/Source\gd32f30x_adc.c ****       \arg        ADC_INT_FLAG_WDE: analog watchdog interrupt
 694:C:/Users/49542/Desktop/GD32F30x_Demo_Suites_V2.0.0/GD32F30x_Demo_Suites_V2.0.0/GD32F30x_Firmware_Library/GD32F30x_standard_peripheral/Source\gd32f30x_adc.c ****       \arg        ADC_INT_FLAG_EOC: end of group conversion interrupt
 695:C:/Users/49542/Desktop/GD32F30x_Demo_Suites_V2.0.0/GD32F30x_Demo_Suites_V2.0.0/GD32F30x_Firmware_Library/GD32F30x_standard_peripheral/Source\gd32f30x_adc.c ****       \arg        ADC_INT_FLAG_EOIC: end of inserted group conversion interrupt
 696:C:/Users/49542/Desktop/GD32F30x_Demo_Suites_V2.0.0/GD32F30x_Demo_Suites_V2.0.0/GD32F30x_Firmware_Library/GD32F30x_standard_peripheral/Source\gd32f30x_adc.c ****     \param[out] none
 697:C:/Users/49542/Desktop/GD32F30x_Demo_Suites_V2.0.0/GD32F30x_Demo_Suites_V2.0.0/GD32F30x_Firmware_Library/GD32F30x_standard_peripheral/Source\gd32f30x_adc.c ****     \retval     FlagStatus: SET or RESET
 698:C:/Users/49542/Desktop/GD32F30x_Demo_Suites_V2.0.0/GD32F30x_Demo_Suites_V2.0.0/GD32F30x_Firmware_Library/GD32F30x_standard_peripheral/Source\gd32f30x_adc.c **** */
 699:C:/Users/49542/Desktop/GD32F30x_Demo_Suites_V2.0.0/GD32F30x_Demo_Suites_V2.0.0/GD32F30x_Firmware_Library/GD32F30x_standard_peripheral/Source\gd32f30x_adc.c **** FlagStatus adc_interrupt_flag_get(uint32_t adc_periph , uint32_t adc_interrupt)
 700:C:/Users/49542/Desktop/GD32F30x_Demo_Suites_V2.0.0/GD32F30x_Demo_Suites_V2.0.0/GD32F30x_Firmware_Library/GD32F30x_standard_peripheral/Source\gd32f30x_adc.c **** {
 2110              		.loc 1 700 0
 2111              		.cfi_startproc
 2112              		@ args = 0, pretend = 0, frame = 16
 2113              		@ frame_needed = 1, uses_anonymous_args = 0
 2114              		@ link register save eliminated.
 2115 0000 80B4     		push	{r7}
 2116              	.LCFI143:
 2117              		.cfi_def_cfa_offset 4
 2118              		.cfi_offset 7, -4
 2119 0002 85B0     		sub	sp, sp, #20
 2120              	.LCFI144:
 2121              		.cfi_def_cfa_offset 24
 2122 0004 00AF     		add	r7, sp, #0
 2123              	.LCFI145:
 2124              		.cfi_def_cfa_register 7
 2125 0006 7860     		str	r0, [r7, #4]
 2126 0008 3960     		str	r1, [r7]
 701:C:/Users/49542/Desktop/GD32F30x_Demo_Suites_V2.0.0/GD32F30x_Demo_Suites_V2.0.0/GD32F30x_Firmware_Library/GD32F30x_standard_peripheral/Source\gd32f30x_adc.c ****     FlagStatus interrupt_flag = RESET;
 2127              		.loc 1 701 0
 2128 000a 0023     		movs	r3, #0
 2129 000c FB73     		strb	r3, [r7, #15]
 702:C:/Users/49542/Desktop/GD32F30x_Demo_Suites_V2.0.0/GD32F30x_Demo_Suites_V2.0.0/GD32F30x_Firmware_Library/GD32F30x_standard_peripheral/Source\gd32f30x_adc.c ****     uint32_t state;
 703:C:/Users/49542/Desktop/GD32F30x_Demo_Suites_V2.0.0/GD32F30x_Demo_Suites_V2.0.0/GD32F30x_Firmware_Library/GD32F30x_standard_peripheral/Source\gd32f30x_adc.c ****     /* check the interrupt bits */
 704:C:/Users/49542/Desktop/GD32F30x_Demo_Suites_V2.0.0/GD32F30x_Demo_Suites_V2.0.0/GD32F30x_Firmware_Library/GD32F30x_standard_peripheral/Source\gd32f30x_adc.c ****     switch(adc_interrupt){
 2130              		.loc 1 704 0
 2131 000e 3B68     		ldr	r3, [r7]
 2132 0010 022B     		cmp	r3, #2
 2133 0012 16D0     		beq	.L102
 2134 0014 042B     		cmp	r3, #4
 2135 0016 26D0     		beq	.L103
 2136 0018 012B     		cmp	r3, #1
 2137 001a 00D0     		beq	.L104
 705:C:/Users/49542/Desktop/GD32F30x_Demo_Suites_V2.0.0/GD32F30x_Demo_Suites_V2.0.0/GD32F30x_Firmware_Library/GD32F30x_standard_peripheral/Source\gd32f30x_adc.c ****     case ADC_INT_FLAG_WDE:
 706:C:/Users/49542/Desktop/GD32F30x_Demo_Suites_V2.0.0/GD32F30x_Demo_Suites_V2.0.0/GD32F30x_Firmware_Library/GD32F30x_standard_peripheral/Source\gd32f30x_adc.c ****         state = ADC_STAT(adc_periph) & ADC_STAT_WDE;
 707:C:/Users/49542/Desktop/GD32F30x_Demo_Suites_V2.0.0/GD32F30x_Demo_Suites_V2.0.0/GD32F30x_Firmware_Library/GD32F30x_standard_peripheral/Source\gd32f30x_adc.c ****         if((ADC_CTL0(adc_periph) & ADC_CTL0_WDEIE) && state){
 708:C:/Users/49542/Desktop/GD32F30x_Demo_Suites_V2.0.0/GD32F30x_Demo_Suites_V2.0.0/GD32F30x_Firmware_Library/GD32F30x_standard_peripheral/Source\gd32f30x_adc.c ****           interrupt_flag = SET;
 709:C:/Users/49542/Desktop/GD32F30x_Demo_Suites_V2.0.0/GD32F30x_Demo_Suites_V2.0.0/GD32F30x_Firmware_Library/GD32F30x_standard_peripheral/Source\gd32f30x_adc.c ****         }
 710:C:/Users/49542/Desktop/GD32F30x_Demo_Suites_V2.0.0/GD32F30x_Demo_Suites_V2.0.0/GD32F30x_Firmware_Library/GD32F30x_standard_peripheral/Source\gd32f30x_adc.c ****         break;
 711:C:/Users/49542/Desktop/GD32F30x_Demo_Suites_V2.0.0/GD32F30x_Demo_Suites_V2.0.0/GD32F30x_Firmware_Library/GD32F30x_standard_peripheral/Source\gd32f30x_adc.c ****     case ADC_INT_FLAG_EOC:
 712:C:/Users/49542/Desktop/GD32F30x_Demo_Suites_V2.0.0/GD32F30x_Demo_Suites_V2.0.0/GD32F30x_Firmware_Library/GD32F30x_standard_peripheral/Source\gd32f30x_adc.c ****         state = ADC_STAT(adc_periph) & ADC_STAT_EOC;
 713:C:/Users/49542/Desktop/GD32F30x_Demo_Suites_V2.0.0/GD32F30x_Demo_Suites_V2.0.0/GD32F30x_Firmware_Library/GD32F30x_standard_peripheral/Source\gd32f30x_adc.c ****           if((ADC_CTL0(adc_periph) & ADC_CTL0_EOCIE) && state){
 714:C:/Users/49542/Desktop/GD32F30x_Demo_Suites_V2.0.0/GD32F30x_Demo_Suites_V2.0.0/GD32F30x_Firmware_Library/GD32F30x_standard_peripheral/Source\gd32f30x_adc.c ****             interrupt_flag = SET;
 715:C:/Users/49542/Desktop/GD32F30x_Demo_Suites_V2.0.0/GD32F30x_Demo_Suites_V2.0.0/GD32F30x_Firmware_Library/GD32F30x_standard_peripheral/Source\gd32f30x_adc.c ****           }
 716:C:/Users/49542/Desktop/GD32F30x_Demo_Suites_V2.0.0/GD32F30x_Demo_Suites_V2.0.0/GD32F30x_Firmware_Library/GD32F30x_standard_peripheral/Source\gd32f30x_adc.c ****         break;
ARM GAS  C:\Users\49542\AppData\Local\Temp\cctN87BC.s 			page 51


 717:C:/Users/49542/Desktop/GD32F30x_Demo_Suites_V2.0.0/GD32F30x_Demo_Suites_V2.0.0/GD32F30x_Firmware_Library/GD32F30x_standard_peripheral/Source\gd32f30x_adc.c ****     case ADC_INT_FLAG_EOIC:
 718:C:/Users/49542/Desktop/GD32F30x_Demo_Suites_V2.0.0/GD32F30x_Demo_Suites_V2.0.0/GD32F30x_Firmware_Library/GD32F30x_standard_peripheral/Source\gd32f30x_adc.c ****         state = ADC_STAT(adc_periph) & ADC_STAT_EOIC;
 719:C:/Users/49542/Desktop/GD32F30x_Demo_Suites_V2.0.0/GD32F30x_Demo_Suites_V2.0.0/GD32F30x_Firmware_Library/GD32F30x_standard_peripheral/Source\gd32f30x_adc.c ****         if((ADC_CTL0(adc_periph) & ADC_CTL0_EOICIE) && state){
 720:C:/Users/49542/Desktop/GD32F30x_Demo_Suites_V2.0.0/GD32F30x_Demo_Suites_V2.0.0/GD32F30x_Firmware_Library/GD32F30x_standard_peripheral/Source\gd32f30x_adc.c ****             interrupt_flag = SET;
 721:C:/Users/49542/Desktop/GD32F30x_Demo_Suites_V2.0.0/GD32F30x_Demo_Suites_V2.0.0/GD32F30x_Firmware_Library/GD32F30x_standard_peripheral/Source\gd32f30x_adc.c ****         }
 722:C:/Users/49542/Desktop/GD32F30x_Demo_Suites_V2.0.0/GD32F30x_Demo_Suites_V2.0.0/GD32F30x_Firmware_Library/GD32F30x_standard_peripheral/Source\gd32f30x_adc.c ****         break;
 723:C:/Users/49542/Desktop/GD32F30x_Demo_Suites_V2.0.0/GD32F30x_Demo_Suites_V2.0.0/GD32F30x_Firmware_Library/GD32F30x_standard_peripheral/Source\gd32f30x_adc.c ****     default:
 724:C:/Users/49542/Desktop/GD32F30x_Demo_Suites_V2.0.0/GD32F30x_Demo_Suites_V2.0.0/GD32F30x_Firmware_Library/GD32F30x_standard_peripheral/Source\gd32f30x_adc.c ****         break;
 2138              		.loc 1 724 0
 2139 001c 3AE0     		b	.L106
 2140              	.L104:
 706:C:/Users/49542/Desktop/GD32F30x_Demo_Suites_V2.0.0/GD32F30x_Demo_Suites_V2.0.0/GD32F30x_Firmware_Library/GD32F30x_standard_peripheral/Source\gd32f30x_adc.c ****         if((ADC_CTL0(adc_periph) & ADC_CTL0_WDEIE) && state){
 2141              		.loc 1 706 0
 2142 001e 7B68     		ldr	r3, [r7, #4]
 2143 0020 1B68     		ldr	r3, [r3]
 2144 0022 03F00103 		and	r3, r3, #1
 2145 0026 BB60     		str	r3, [r7, #8]
 707:C:/Users/49542/Desktop/GD32F30x_Demo_Suites_V2.0.0/GD32F30x_Demo_Suites_V2.0.0/GD32F30x_Firmware_Library/GD32F30x_standard_peripheral/Source\gd32f30x_adc.c ****           interrupt_flag = SET;
 2146              		.loc 1 707 0
 2147 0028 7B68     		ldr	r3, [r7, #4]
 2148 002a 0433     		adds	r3, r3, #4
 2149 002c 1B68     		ldr	r3, [r3]
 2150 002e 03F04003 		and	r3, r3, #64
 2151 0032 002B     		cmp	r3, #0
 2152 0034 29D0     		beq	.L110
 707:C:/Users/49542/Desktop/GD32F30x_Demo_Suites_V2.0.0/GD32F30x_Demo_Suites_V2.0.0/GD32F30x_Firmware_Library/GD32F30x_standard_peripheral/Source\gd32f30x_adc.c ****           interrupt_flag = SET;
 2153              		.loc 1 707 0 is_stmt 0 discriminator 1
 2154 0036 BB68     		ldr	r3, [r7, #8]
 2155 0038 002B     		cmp	r3, #0
 2156 003a 26D0     		beq	.L110
 708:C:/Users/49542/Desktop/GD32F30x_Demo_Suites_V2.0.0/GD32F30x_Demo_Suites_V2.0.0/GD32F30x_Firmware_Library/GD32F30x_standard_peripheral/Source\gd32f30x_adc.c ****         }
 2157              		.loc 1 708 0 is_stmt 1
 2158 003c 0123     		movs	r3, #1
 2159 003e FB73     		strb	r3, [r7, #15]
 710:C:/Users/49542/Desktop/GD32F30x_Demo_Suites_V2.0.0/GD32F30x_Demo_Suites_V2.0.0/GD32F30x_Firmware_Library/GD32F30x_standard_peripheral/Source\gd32f30x_adc.c ****     case ADC_INT_FLAG_EOC:
 2160              		.loc 1 710 0
 2161 0040 23E0     		b	.L110
 2162              	.L102:
 712:C:/Users/49542/Desktop/GD32F30x_Demo_Suites_V2.0.0/GD32F30x_Demo_Suites_V2.0.0/GD32F30x_Firmware_Library/GD32F30x_standard_peripheral/Source\gd32f30x_adc.c ****           if((ADC_CTL0(adc_periph) & ADC_CTL0_EOCIE) && state){
 2163              		.loc 1 712 0
 2164 0042 7B68     		ldr	r3, [r7, #4]
 2165 0044 1B68     		ldr	r3, [r3]
 2166 0046 03F00203 		and	r3, r3, #2
 2167 004a BB60     		str	r3, [r7, #8]
 713:C:/Users/49542/Desktop/GD32F30x_Demo_Suites_V2.0.0/GD32F30x_Demo_Suites_V2.0.0/GD32F30x_Firmware_Library/GD32F30x_standard_peripheral/Source\gd32f30x_adc.c ****             interrupt_flag = SET;
 2168              		.loc 1 713 0
 2169 004c 7B68     		ldr	r3, [r7, #4]
 2170 004e 0433     		adds	r3, r3, #4
 2171 0050 1B68     		ldr	r3, [r3]
 2172 0052 03F02003 		and	r3, r3, #32
 2173 0056 002B     		cmp	r3, #0
 2174 0058 19D0     		beq	.L111
 713:C:/Users/49542/Desktop/GD32F30x_Demo_Suites_V2.0.0/GD32F30x_Demo_Suites_V2.0.0/GD32F30x_Firmware_Library/GD32F30x_standard_peripheral/Source\gd32f30x_adc.c ****             interrupt_flag = SET;
 2175              		.loc 1 713 0 is_stmt 0 discriminator 1
 2176 005a BB68     		ldr	r3, [r7, #8]
 2177 005c 002B     		cmp	r3, #0
 2178 005e 16D0     		beq	.L111
ARM GAS  C:\Users\49542\AppData\Local\Temp\cctN87BC.s 			page 52


 714:C:/Users/49542/Desktop/GD32F30x_Demo_Suites_V2.0.0/GD32F30x_Demo_Suites_V2.0.0/GD32F30x_Firmware_Library/GD32F30x_standard_peripheral/Source\gd32f30x_adc.c ****           }
 2179              		.loc 1 714 0 is_stmt 1
 2180 0060 0123     		movs	r3, #1
 2181 0062 FB73     		strb	r3, [r7, #15]
 716:C:/Users/49542/Desktop/GD32F30x_Demo_Suites_V2.0.0/GD32F30x_Demo_Suites_V2.0.0/GD32F30x_Firmware_Library/GD32F30x_standard_peripheral/Source\gd32f30x_adc.c ****     case ADC_INT_FLAG_EOIC:
 2182              		.loc 1 716 0
 2183 0064 13E0     		b	.L111
 2184              	.L103:
 718:C:/Users/49542/Desktop/GD32F30x_Demo_Suites_V2.0.0/GD32F30x_Demo_Suites_V2.0.0/GD32F30x_Firmware_Library/GD32F30x_standard_peripheral/Source\gd32f30x_adc.c ****         if((ADC_CTL0(adc_periph) & ADC_CTL0_EOICIE) && state){
 2185              		.loc 1 718 0
 2186 0066 7B68     		ldr	r3, [r7, #4]
 2187 0068 1B68     		ldr	r3, [r3]
 2188 006a 03F00403 		and	r3, r3, #4
 2189 006e BB60     		str	r3, [r7, #8]
 719:C:/Users/49542/Desktop/GD32F30x_Demo_Suites_V2.0.0/GD32F30x_Demo_Suites_V2.0.0/GD32F30x_Firmware_Library/GD32F30x_standard_peripheral/Source\gd32f30x_adc.c ****             interrupt_flag = SET;
 2190              		.loc 1 719 0
 2191 0070 7B68     		ldr	r3, [r7, #4]
 2192 0072 0433     		adds	r3, r3, #4
 2193 0074 1B68     		ldr	r3, [r3]
 2194 0076 03F08003 		and	r3, r3, #128
 2195 007a 002B     		cmp	r3, #0
 2196 007c 09D0     		beq	.L112
 719:C:/Users/49542/Desktop/GD32F30x_Demo_Suites_V2.0.0/GD32F30x_Demo_Suites_V2.0.0/GD32F30x_Firmware_Library/GD32F30x_standard_peripheral/Source\gd32f30x_adc.c ****             interrupt_flag = SET;
 2197              		.loc 1 719 0 is_stmt 0 discriminator 1
 2198 007e BB68     		ldr	r3, [r7, #8]
 2199 0080 002B     		cmp	r3, #0
 2200 0082 06D0     		beq	.L112
 720:C:/Users/49542/Desktop/GD32F30x_Demo_Suites_V2.0.0/GD32F30x_Demo_Suites_V2.0.0/GD32F30x_Firmware_Library/GD32F30x_standard_peripheral/Source\gd32f30x_adc.c ****         }
 2201              		.loc 1 720 0 is_stmt 1
 2202 0084 0123     		movs	r3, #1
 2203 0086 FB73     		strb	r3, [r7, #15]
 722:C:/Users/49542/Desktop/GD32F30x_Demo_Suites_V2.0.0/GD32F30x_Demo_Suites_V2.0.0/GD32F30x_Firmware_Library/GD32F30x_standard_peripheral/Source\gd32f30x_adc.c ****     default:
 2204              		.loc 1 722 0
 2205 0088 03E0     		b	.L112
 2206              	.L110:
 710:C:/Users/49542/Desktop/GD32F30x_Demo_Suites_V2.0.0/GD32F30x_Demo_Suites_V2.0.0/GD32F30x_Firmware_Library/GD32F30x_standard_peripheral/Source\gd32f30x_adc.c ****     case ADC_INT_FLAG_EOC:
 2207              		.loc 1 710 0
 2208 008a 00BF     		nop
 2209 008c 02E0     		b	.L106
 2210              	.L111:
 716:C:/Users/49542/Desktop/GD32F30x_Demo_Suites_V2.0.0/GD32F30x_Demo_Suites_V2.0.0/GD32F30x_Firmware_Library/GD32F30x_standard_peripheral/Source\gd32f30x_adc.c ****     case ADC_INT_FLAG_EOIC:
 2211              		.loc 1 716 0
 2212 008e 00BF     		nop
 2213 0090 00E0     		b	.L106
 2214              	.L112:
 722:C:/Users/49542/Desktop/GD32F30x_Demo_Suites_V2.0.0/GD32F30x_Demo_Suites_V2.0.0/GD32F30x_Firmware_Library/GD32F30x_standard_peripheral/Source\gd32f30x_adc.c ****     default:
 2215              		.loc 1 722 0
 2216 0092 00BF     		nop
 2217              	.L106:
 725:C:/Users/49542/Desktop/GD32F30x_Demo_Suites_V2.0.0/GD32F30x_Demo_Suites_V2.0.0/GD32F30x_Firmware_Library/GD32F30x_standard_peripheral/Source\gd32f30x_adc.c ****     }
 726:C:/Users/49542/Desktop/GD32F30x_Demo_Suites_V2.0.0/GD32F30x_Demo_Suites_V2.0.0/GD32F30x_Firmware_Library/GD32F30x_standard_peripheral/Source\gd32f30x_adc.c ****     return interrupt_flag;
 2218              		.loc 1 726 0
 2219 0094 FB7B     		ldrb	r3, [r7, #15]	@ zero_extendqisi2
 727:C:/Users/49542/Desktop/GD32F30x_Demo_Suites_V2.0.0/GD32F30x_Demo_Suites_V2.0.0/GD32F30x_Firmware_Library/GD32F30x_standard_peripheral/Source\gd32f30x_adc.c **** }
 2220              		.loc 1 727 0
 2221 0096 1846     		mov	r0, r3
 2222 0098 1437     		adds	r7, r7, #20
ARM GAS  C:\Users\49542\AppData\Local\Temp\cctN87BC.s 			page 53


 2223              	.LCFI146:
 2224              		.cfi_def_cfa_offset 4
 2225 009a BD46     		mov	sp, r7
 2226              	.LCFI147:
 2227              		.cfi_def_cfa_register 13
 2228              		@ sp needed
 2229 009c 5DF8047B 		ldr	r7, [sp], #4
 2230              	.LCFI148:
 2231              		.cfi_restore 7
 2232              		.cfi_def_cfa_offset 0
 2233 00a0 7047     		bx	lr
 2234              		.cfi_endproc
 2235              	.LFE141:
 2237              		.section	.text.adc_interrupt_flag_clear,"ax",%progbits
 2238              		.align	1
 2239              		.global	adc_interrupt_flag_clear
 2240              		.syntax unified
 2241              		.thumb
 2242              		.thumb_func
 2243              		.fpu fpv4-sp-d16
 2245              	adc_interrupt_flag_clear:
 2246              	.LFB142:
 728:C:/Users/49542/Desktop/GD32F30x_Demo_Suites_V2.0.0/GD32F30x_Demo_Suites_V2.0.0/GD32F30x_Firmware_Library/GD32F30x_standard_peripheral/Source\gd32f30x_adc.c **** 
 729:C:/Users/49542/Desktop/GD32F30x_Demo_Suites_V2.0.0/GD32F30x_Demo_Suites_V2.0.0/GD32F30x_Firmware_Library/GD32F30x_standard_peripheral/Source\gd32f30x_adc.c **** /*!
 730:C:/Users/49542/Desktop/GD32F30x_Demo_Suites_V2.0.0/GD32F30x_Demo_Suites_V2.0.0/GD32F30x_Firmware_Library/GD32F30x_standard_peripheral/Source\gd32f30x_adc.c ****     \brief      clear the ADC flag
 731:C:/Users/49542/Desktop/GD32F30x_Demo_Suites_V2.0.0/GD32F30x_Demo_Suites_V2.0.0/GD32F30x_Firmware_Library/GD32F30x_standard_peripheral/Source\gd32f30x_adc.c ****     \param[in]  adc_periph: ADCx,x=0,1,2
 732:C:/Users/49542/Desktop/GD32F30x_Demo_Suites_V2.0.0/GD32F30x_Demo_Suites_V2.0.0/GD32F30x_Firmware_Library/GD32F30x_standard_peripheral/Source\gd32f30x_adc.c ****                 only one among these parameters can be selected
 733:C:/Users/49542/Desktop/GD32F30x_Demo_Suites_V2.0.0/GD32F30x_Demo_Suites_V2.0.0/GD32F30x_Firmware_Library/GD32F30x_standard_peripheral/Source\gd32f30x_adc.c ****     \param[in]  adc_interrupt: the adc status flag
 734:C:/Users/49542/Desktop/GD32F30x_Demo_Suites_V2.0.0/GD32F30x_Demo_Suites_V2.0.0/GD32F30x_Firmware_Library/GD32F30x_standard_peripheral/Source\gd32f30x_adc.c ****                 one or more parameters can be selected
 735:C:/Users/49542/Desktop/GD32F30x_Demo_Suites_V2.0.0/GD32F30x_Demo_Suites_V2.0.0/GD32F30x_Firmware_Library/GD32F30x_standard_peripheral/Source\gd32f30x_adc.c ****       \arg        ADC_INT_FLAG_WDE: analog watchdog interrupt
 736:C:/Users/49542/Desktop/GD32F30x_Demo_Suites_V2.0.0/GD32F30x_Demo_Suites_V2.0.0/GD32F30x_Firmware_Library/GD32F30x_standard_peripheral/Source\gd32f30x_adc.c ****       \arg        ADC_INT_FLAG_EOC: end of group conversion interrupt
 737:C:/Users/49542/Desktop/GD32F30x_Demo_Suites_V2.0.0/GD32F30x_Demo_Suites_V2.0.0/GD32F30x_Firmware_Library/GD32F30x_standard_peripheral/Source\gd32f30x_adc.c ****       \arg        ADC_INT_FLAG_EOIC: end of inserted group conversion interrupt
 738:C:/Users/49542/Desktop/GD32F30x_Demo_Suites_V2.0.0/GD32F30x_Demo_Suites_V2.0.0/GD32F30x_Firmware_Library/GD32F30x_standard_peripheral/Source\gd32f30x_adc.c ****     \param[out] none
 739:C:/Users/49542/Desktop/GD32F30x_Demo_Suites_V2.0.0/GD32F30x_Demo_Suites_V2.0.0/GD32F30x_Firmware_Library/GD32F30x_standard_peripheral/Source\gd32f30x_adc.c ****     \retval     none
 740:C:/Users/49542/Desktop/GD32F30x_Demo_Suites_V2.0.0/GD32F30x_Demo_Suites_V2.0.0/GD32F30x_Firmware_Library/GD32F30x_standard_peripheral/Source\gd32f30x_adc.c **** */
 741:C:/Users/49542/Desktop/GD32F30x_Demo_Suites_V2.0.0/GD32F30x_Demo_Suites_V2.0.0/GD32F30x_Firmware_Library/GD32F30x_standard_peripheral/Source\gd32f30x_adc.c **** void adc_interrupt_flag_clear(uint32_t adc_periph , uint32_t adc_interrupt)
 742:C:/Users/49542/Desktop/GD32F30x_Demo_Suites_V2.0.0/GD32F30x_Demo_Suites_V2.0.0/GD32F30x_Firmware_Library/GD32F30x_standard_peripheral/Source\gd32f30x_adc.c **** {
 2247              		.loc 1 742 0
 2248              		.cfi_startproc
 2249              		@ args = 0, pretend = 0, frame = 8
 2250              		@ frame_needed = 1, uses_anonymous_args = 0
 2251              		@ link register save eliminated.
 2252 0000 80B4     		push	{r7}
 2253              	.LCFI149:
 2254              		.cfi_def_cfa_offset 4
 2255              		.cfi_offset 7, -4
 2256 0002 83B0     		sub	sp, sp, #12
 2257              	.LCFI150:
 2258              		.cfi_def_cfa_offset 16
 2259 0004 00AF     		add	r7, sp, #0
 2260              	.LCFI151:
 2261              		.cfi_def_cfa_register 7
