ARM GAS  C:\Users\49542\AppData\Local\Temp\ccb6xhB5.s 			page 1


   1              		.cpu cortex-m4
   2              		.eabi_attribute 27, 1
   3              		.eabi_attribute 28, 1
   4              		.eabi_attribute 20, 1
   5              		.eabi_attribute 21, 1
   6              		.eabi_attribute 23, 3
   7              		.eabi_attribute 24, 1
   8              		.eabi_attribute 25, 1
   9              		.eabi_attribute 26, 1
  10              		.eabi_attribute 30, 6
  11              		.eabi_attribute 34, 1
  12              		.eabi_attribute 18, 4
  13              		.file	"gd32f30x_dma.c"
  14              		.text
  15              	.Ltext0:
  16              		.cfi_sections	.debug_frame
  17              		.section	.text.dma_deinit,"ax",%progbits
  18              		.align	1
  19              		.global	dma_deinit
  20              		.syntax unified
  21              		.thumb
  22              		.thumb_func
  23              		.fpu fpv4-sp-d16
  25              	dma_deinit:
  26              	.LFB116:
  27              		.file 1 "C:/Users/49542/Desktop/GD32F30x_Demo_Suites_V2.0.0/GD32F30x_Demo_Suites_V2.0.0/GD32F30x_F
   1:C:/Users/49542/Desktop/GD32F30x_Demo_Suites_V2.0.0/GD32F30x_Demo_Suites_V2.0.0/GD32F30x_Firmware_Library/GD32F30x_standard_peripheral/Source\gd32f30x_dma.c **** /*!
   2:C:/Users/49542/Desktop/GD32F30x_Demo_Suites_V2.0.0/GD32F30x_Demo_Suites_V2.0.0/GD32F30x_Firmware_Library/GD32F30x_standard_peripheral/Source\gd32f30x_dma.c ****     \file  gd32f30x_dma.c
   3:C:/Users/49542/Desktop/GD32F30x_Demo_Suites_V2.0.0/GD32F30x_Demo_Suites_V2.0.0/GD32F30x_Firmware_Library/GD32F30x_standard_peripheral/Source\gd32f30x_dma.c ****     \brief DMA driver
   4:C:/Users/49542/Desktop/GD32F30x_Demo_Suites_V2.0.0/GD32F30x_Demo_Suites_V2.0.0/GD32F30x_Firmware_Library/GD32F30x_standard_peripheral/Source\gd32f30x_dma.c **** 
   5:C:/Users/49542/Desktop/GD32F30x_Demo_Suites_V2.0.0/GD32F30x_Demo_Suites_V2.0.0/GD32F30x_Firmware_Library/GD32F30x_standard_peripheral/Source\gd32f30x_dma.c ****     \version 2017-02-10, V1.0.0, firmware for GD32F30x
   6:C:/Users/49542/Desktop/GD32F30x_Demo_Suites_V2.0.0/GD32F30x_Demo_Suites_V2.0.0/GD32F30x_Firmware_Library/GD32F30x_standard_peripheral/Source\gd32f30x_dma.c ****     \version 2018-10-10, V1.1.0, firmware for GD32F30x
   7:C:/Users/49542/Desktop/GD32F30x_Demo_Suites_V2.0.0/GD32F30x_Demo_Suites_V2.0.0/GD32F30x_Firmware_Library/GD32F30x_standard_peripheral/Source\gd32f30x_dma.c ****     \version 2018-12-25, V2.0.0, firmware for GD32F30x
   8:C:/Users/49542/Desktop/GD32F30x_Demo_Suites_V2.0.0/GD32F30x_Demo_Suites_V2.0.0/GD32F30x_Firmware_Library/GD32F30x_standard_peripheral/Source\gd32f30x_dma.c **** */
   9:C:/Users/49542/Desktop/GD32F30x_Demo_Suites_V2.0.0/GD32F30x_Demo_Suites_V2.0.0/GD32F30x_Firmware_Library/GD32F30x_standard_peripheral/Source\gd32f30x_dma.c **** 
  10:C:/Users/49542/Desktop/GD32F30x_Demo_Suites_V2.0.0/GD32F30x_Demo_Suites_V2.0.0/GD32F30x_Firmware_Library/GD32F30x_standard_peripheral/Source\gd32f30x_dma.c **** /*
  11:C:/Users/49542/Desktop/GD32F30x_Demo_Suites_V2.0.0/GD32F30x_Demo_Suites_V2.0.0/GD32F30x_Firmware_Library/GD32F30x_standard_peripheral/Source\gd32f30x_dma.c ****     Copyright (c) 2018, GigaDevice Semiconductor Inc.
  12:C:/Users/49542/Desktop/GD32F30x_Demo_Suites_V2.0.0/GD32F30x_Demo_Suites_V2.0.0/GD32F30x_Firmware_Library/GD32F30x_standard_peripheral/Source\gd32f30x_dma.c **** 
  13:C:/Users/49542/Desktop/GD32F30x_Demo_Suites_V2.0.0/GD32F30x_Demo_Suites_V2.0.0/GD32F30x_Firmware_Library/GD32F30x_standard_peripheral/Source\gd32f30x_dma.c ****     All rights reserved.
  14:C:/Users/49542/Desktop/GD32F30x_Demo_Suites_V2.0.0/GD32F30x_Demo_Suites_V2.0.0/GD32F30x_Firmware_Library/GD32F30x_standard_peripheral/Source\gd32f30x_dma.c **** 
  15:C:/Users/49542/Desktop/GD32F30x_Demo_Suites_V2.0.0/GD32F30x_Demo_Suites_V2.0.0/GD32F30x_Firmware_Library/GD32F30x_standard_peripheral/Source\gd32f30x_dma.c ****     Redistribution and use in source and binary forms, with or without modification, 
  16:C:/Users/49542/Desktop/GD32F30x_Demo_Suites_V2.0.0/GD32F30x_Demo_Suites_V2.0.0/GD32F30x_Firmware_Library/GD32F30x_standard_peripheral/Source\gd32f30x_dma.c **** are permitted provided that the following conditions are met:
  17:C:/Users/49542/Desktop/GD32F30x_Demo_Suites_V2.0.0/GD32F30x_Demo_Suites_V2.0.0/GD32F30x_Firmware_Library/GD32F30x_standard_peripheral/Source\gd32f30x_dma.c **** 
  18:C:/Users/49542/Desktop/GD32F30x_Demo_Suites_V2.0.0/GD32F30x_Demo_Suites_V2.0.0/GD32F30x_Firmware_Library/GD32F30x_standard_peripheral/Source\gd32f30x_dma.c ****     1. Redistributions of source code must retain the above copyright notice, this 
  19:C:/Users/49542/Desktop/GD32F30x_Demo_Suites_V2.0.0/GD32F30x_Demo_Suites_V2.0.0/GD32F30x_Firmware_Library/GD32F30x_standard_peripheral/Source\gd32f30x_dma.c ****        list of conditions and the following disclaimer.
  20:C:/Users/49542/Desktop/GD32F30x_Demo_Suites_V2.0.0/GD32F30x_Demo_Suites_V2.0.0/GD32F30x_Firmware_Library/GD32F30x_standard_peripheral/Source\gd32f30x_dma.c ****     2. Redistributions in binary form must reproduce the above copyright notice, 
  21:C:/Users/49542/Desktop/GD32F30x_Demo_Suites_V2.0.0/GD32F30x_Demo_Suites_V2.0.0/GD32F30x_Firmware_Library/GD32F30x_standard_peripheral/Source\gd32f30x_dma.c ****        this list of conditions and the following disclaimer in the documentation 
  22:C:/Users/49542/Desktop/GD32F30x_Demo_Suites_V2.0.0/GD32F30x_Demo_Suites_V2.0.0/GD32F30x_Firmware_Library/GD32F30x_standard_peripheral/Source\gd32f30x_dma.c ****        and/or other materials provided with the distribution.
  23:C:/Users/49542/Desktop/GD32F30x_Demo_Suites_V2.0.0/GD32F30x_Demo_Suites_V2.0.0/GD32F30x_Firmware_Library/GD32F30x_standard_peripheral/Source\gd32f30x_dma.c ****     3. Neither the name of the copyright holder nor the names of its contributors 
  24:C:/Users/49542/Desktop/GD32F30x_Demo_Suites_V2.0.0/GD32F30x_Demo_Suites_V2.0.0/GD32F30x_Firmware_Library/GD32F30x_standard_peripheral/Source\gd32f30x_dma.c ****        may be used to endorse or promote products derived from this software without 
  25:C:/Users/49542/Desktop/GD32F30x_Demo_Suites_V2.0.0/GD32F30x_Demo_Suites_V2.0.0/GD32F30x_Firmware_Library/GD32F30x_standard_peripheral/Source\gd32f30x_dma.c ****        specific prior written permission.
  26:C:/Users/49542/Desktop/GD32F30x_Demo_Suites_V2.0.0/GD32F30x_Demo_Suites_V2.0.0/GD32F30x_Firmware_Library/GD32F30x_standard_peripheral/Source\gd32f30x_dma.c **** 
  27:C:/Users/49542/Desktop/GD32F30x_Demo_Suites_V2.0.0/GD32F30x_Demo_Suites_V2.0.0/GD32F30x_Firmware_Library/GD32F30x_standard_peripheral/Source\gd32f30x_dma.c ****     THIS SOFTWARE IS PROVIDED BY THE COPYRIGHT HOLDERS AND CONTRIBUTORS "AS IS" 
  28:C:/Users/49542/Desktop/GD32F30x_Demo_Suites_V2.0.0/GD32F30x_Demo_Suites_V2.0.0/GD32F30x_Firmware_Library/GD32F30x_standard_peripheral/Source\gd32f30x_dma.c **** AND ANY EXPRESS OR IMPLIED WARRANTIES, INCLUDING, BUT NOT LIMITED TO, THE IMPLIED 
  29:C:/Users/49542/Desktop/GD32F30x_Demo_Suites_V2.0.0/GD32F30x_Demo_Suites_V2.0.0/GD32F30x_Firmware_Library/GD32F30x_standard_peripheral/Source\gd32f30x_dma.c **** WARRANTIES OF MERCHANTABILITY AND FITNESS FOR A PARTICULAR PURPOSE ARE DISCLAIMED. 
  30:C:/Users/49542/Desktop/GD32F30x_Demo_Suites_V2.0.0/GD32F30x_Demo_Suites_V2.0.0/GD32F30x_Firmware_Library/GD32F30x_standard_peripheral/Source\gd32f30x_dma.c **** IN NO EVENT SHALL THE COPYRIGHT HOLDER OR CONTRIBUTORS BE LIABLE FOR ANY DIRECT, 
  31:C:/Users/49542/Desktop/GD32F30x_Demo_Suites_V2.0.0/GD32F30x_Demo_Suites_V2.0.0/GD32F30x_Firmware_Library/GD32F30x_standard_peripheral/Source\gd32f30x_dma.c **** INDIRECT, INCIDENTAL, SPECIAL, EXEMPLARY, OR CONSEQUENTIAL DAMAGES (INCLUDING, BUT 
ARM GAS  C:\Users\49542\AppData\Local\Temp\ccb6xhB5.s 			page 2


  32:C:/Users/49542/Desktop/GD32F30x_Demo_Suites_V2.0.0/GD32F30x_Demo_Suites_V2.0.0/GD32F30x_Firmware_Library/GD32F30x_standard_peripheral/Source\gd32f30x_dma.c **** NOT LIMITED TO, PROCUREMENT OF SUBSTITUTE GOODS OR SERVICES; LOSS OF USE, DATA, OR 
  33:C:/Users/49542/Desktop/GD32F30x_Demo_Suites_V2.0.0/GD32F30x_Demo_Suites_V2.0.0/GD32F30x_Firmware_Library/GD32F30x_standard_peripheral/Source\gd32f30x_dma.c **** PROFITS; OR BUSINESS INTERRUPTION) HOWEVER CAUSED AND ON ANY THEORY OF LIABILITY, 
  34:C:/Users/49542/Desktop/GD32F30x_Demo_Suites_V2.0.0/GD32F30x_Demo_Suites_V2.0.0/GD32F30x_Firmware_Library/GD32F30x_standard_peripheral/Source\gd32f30x_dma.c **** WHETHER IN CONTRACT, STRICT LIABILITY, OR TORT (INCLUDING NEGLIGENCE OR OTHERWISE) 
  35:C:/Users/49542/Desktop/GD32F30x_Demo_Suites_V2.0.0/GD32F30x_Demo_Suites_V2.0.0/GD32F30x_Firmware_Library/GD32F30x_standard_peripheral/Source\gd32f30x_dma.c **** ARISING IN ANY WAY OUT OF THE USE OF THIS SOFTWARE, EVEN IF ADVISED OF THE POSSIBILITY 
  36:C:/Users/49542/Desktop/GD32F30x_Demo_Suites_V2.0.0/GD32F30x_Demo_Suites_V2.0.0/GD32F30x_Firmware_Library/GD32F30x_standard_peripheral/Source\gd32f30x_dma.c **** OF SUCH DAMAGE.
  37:C:/Users/49542/Desktop/GD32F30x_Demo_Suites_V2.0.0/GD32F30x_Demo_Suites_V2.0.0/GD32F30x_Firmware_Library/GD32F30x_standard_peripheral/Source\gd32f30x_dma.c **** */
  38:C:/Users/49542/Desktop/GD32F30x_Demo_Suites_V2.0.0/GD32F30x_Demo_Suites_V2.0.0/GD32F30x_Firmware_Library/GD32F30x_standard_peripheral/Source\gd32f30x_dma.c **** 
  39:C:/Users/49542/Desktop/GD32F30x_Demo_Suites_V2.0.0/GD32F30x_Demo_Suites_V2.0.0/GD32F30x_Firmware_Library/GD32F30x_standard_peripheral/Source\gd32f30x_dma.c **** #include "gd32f30x_dma.h"
  40:C:/Users/49542/Desktop/GD32F30x_Demo_Suites_V2.0.0/GD32F30x_Demo_Suites_V2.0.0/GD32F30x_Firmware_Library/GD32F30x_standard_peripheral/Source\gd32f30x_dma.c **** 
  41:C:/Users/49542/Desktop/GD32F30x_Demo_Suites_V2.0.0/GD32F30x_Demo_Suites_V2.0.0/GD32F30x_Firmware_Library/GD32F30x_standard_peripheral/Source\gd32f30x_dma.c **** #define DMA_WRONG_HANDLE        while(1){}
  42:C:/Users/49542/Desktop/GD32F30x_Demo_Suites_V2.0.0/GD32F30x_Demo_Suites_V2.0.0/GD32F30x_Firmware_Library/GD32F30x_standard_peripheral/Source\gd32f30x_dma.c **** 
  43:C:/Users/49542/Desktop/GD32F30x_Demo_Suites_V2.0.0/GD32F30x_Demo_Suites_V2.0.0/GD32F30x_Firmware_Library/GD32F30x_standard_peripheral/Source\gd32f30x_dma.c **** /* check whether peripheral matches channels or not */
  44:C:/Users/49542/Desktop/GD32F30x_Demo_Suites_V2.0.0/GD32F30x_Demo_Suites_V2.0.0/GD32F30x_Firmware_Library/GD32F30x_standard_peripheral/Source\gd32f30x_dma.c **** static ErrStatus dma_periph_and_channel_check(uint32_t dma_periph, dma_channel_enum channelx);
  45:C:/Users/49542/Desktop/GD32F30x_Demo_Suites_V2.0.0/GD32F30x_Demo_Suites_V2.0.0/GD32F30x_Firmware_Library/GD32F30x_standard_peripheral/Source\gd32f30x_dma.c **** 
  46:C:/Users/49542/Desktop/GD32F30x_Demo_Suites_V2.0.0/GD32F30x_Demo_Suites_V2.0.0/GD32F30x_Firmware_Library/GD32F30x_standard_peripheral/Source\gd32f30x_dma.c **** /*!
  47:C:/Users/49542/Desktop/GD32F30x_Demo_Suites_V2.0.0/GD32F30x_Demo_Suites_V2.0.0/GD32F30x_Firmware_Library/GD32F30x_standard_peripheral/Source\gd32f30x_dma.c ****     \brief      deinitialize DMA a channel registers 
  48:C:/Users/49542/Desktop/GD32F30x_Demo_Suites_V2.0.0/GD32F30x_Demo_Suites_V2.0.0/GD32F30x_Firmware_Library/GD32F30x_standard_peripheral/Source\gd32f30x_dma.c ****     \param[in]  dma_periph: DMAx(x=0,1)
  49:C:/Users/49542/Desktop/GD32F30x_Demo_Suites_V2.0.0/GD32F30x_Demo_Suites_V2.0.0/GD32F30x_Firmware_Library/GD32F30x_standard_peripheral/Source\gd32f30x_dma.c ****       \arg        DMAx(x=0,1)
  50:C:/Users/49542/Desktop/GD32F30x_Demo_Suites_V2.0.0/GD32F30x_Demo_Suites_V2.0.0/GD32F30x_Firmware_Library/GD32F30x_standard_peripheral/Source\gd32f30x_dma.c ****     \param[in]  channelx: specify which DMA channel is deinitialized
  51:C:/Users/49542/Desktop/GD32F30x_Demo_Suites_V2.0.0/GD32F30x_Demo_Suites_V2.0.0/GD32F30x_Firmware_Library/GD32F30x_standard_peripheral/Source\gd32f30x_dma.c ****                 only one parameter can be selected which is shown as below:
  52:C:/Users/49542/Desktop/GD32F30x_Demo_Suites_V2.0.0/GD32F30x_Demo_Suites_V2.0.0/GD32F30x_Firmware_Library/GD32F30x_standard_peripheral/Source\gd32f30x_dma.c ****       \arg        DMA0: DMA_CHx(x=0..6), DMA1: DMA_CHx(x=0..4)
  53:C:/Users/49542/Desktop/GD32F30x_Demo_Suites_V2.0.0/GD32F30x_Demo_Suites_V2.0.0/GD32F30x_Firmware_Library/GD32F30x_standard_peripheral/Source\gd32f30x_dma.c ****     \param[out] none
  54:C:/Users/49542/Desktop/GD32F30x_Demo_Suites_V2.0.0/GD32F30x_Demo_Suites_V2.0.0/GD32F30x_Firmware_Library/GD32F30x_standard_peripheral/Source\gd32f30x_dma.c ****     \retval     none
  55:C:/Users/49542/Desktop/GD32F30x_Demo_Suites_V2.0.0/GD32F30x_Demo_Suites_V2.0.0/GD32F30x_Firmware_Library/GD32F30x_standard_peripheral/Source\gd32f30x_dma.c **** */
  56:C:/Users/49542/Desktop/GD32F30x_Demo_Suites_V2.0.0/GD32F30x_Demo_Suites_V2.0.0/GD32F30x_Firmware_Library/GD32F30x_standard_peripheral/Source\gd32f30x_dma.c **** void dma_deinit(uint32_t dma_periph, dma_channel_enum channelx)
  57:C:/Users/49542/Desktop/GD32F30x_Demo_Suites_V2.0.0/GD32F30x_Demo_Suites_V2.0.0/GD32F30x_Firmware_Library/GD32F30x_standard_peripheral/Source\gd32f30x_dma.c **** {
  28              		.loc 1 57 0
  29              		.cfi_startproc
  30              		@ args = 0, pretend = 0, frame = 8
  31              		@ frame_needed = 1, uses_anonymous_args = 0
  32 0000 80B5     		push	{r7, lr}
  33              	.LCFI0:
  34              		.cfi_def_cfa_offset 8
  35              		.cfi_offset 7, -8
  36              		.cfi_offset 14, -4
  37 0002 82B0     		sub	sp, sp, #8
  38              	.LCFI1:
  39              		.cfi_def_cfa_offset 16
  40 0004 00AF     		add	r7, sp, #0
  41              	.LCFI2:
  42              		.cfi_def_cfa_register 7
  43 0006 7860     		str	r0, [r7, #4]
  44 0008 0B46     		mov	r3, r1
  45 000a FB70     		strb	r3, [r7, #3]
  58:C:/Users/49542/Desktop/GD32F30x_Demo_Suites_V2.0.0/GD32F30x_Demo_Suites_V2.0.0/GD32F30x_Firmware_Library/GD32F30x_standard_peripheral/Source\gd32f30x_dma.c ****     if(ERROR == dma_periph_and_channel_check(dma_periph, channelx)){
  46              		.loc 1 58 0
  47 000c FB78     		ldrb	r3, [r7, #3]	@ zero_extendqisi2
  48 000e 1946     		mov	r1, r3
  49 0010 7868     		ldr	r0, [r7, #4]
  50 0012 FFF7FEFF 		bl	dma_periph_and_channel_check
  51 0016 0346     		mov	r3, r0
  52 0018 002B     		cmp	r3, #0
  53 001a 00D1     		bne	.L2
  54              	.L3:
  59:C:/Users/49542/Desktop/GD32F30x_Demo_Suites_V2.0.0/GD32F30x_Demo_Suites_V2.0.0/GD32F30x_Firmware_Library/GD32F30x_standard_peripheral/Source\gd32f30x_dma.c ****         DMA_WRONG_HANDLE
  55              		.loc 1 59 0 discriminator 1
  56 001c FEE7     		b	.L3
ARM GAS  C:\Users\49542\AppData\Local\Temp\ccb6xhB5.s 			page 3


  57              	.L2:
  60:C:/Users/49542/Desktop/GD32F30x_Demo_Suites_V2.0.0/GD32F30x_Demo_Suites_V2.0.0/GD32F30x_Firmware_Library/GD32F30x_standard_peripheral/Source\gd32f30x_dma.c ****     }
  61:C:/Users/49542/Desktop/GD32F30x_Demo_Suites_V2.0.0/GD32F30x_Demo_Suites_V2.0.0/GD32F30x_Firmware_Library/GD32F30x_standard_peripheral/Source\gd32f30x_dma.c ****     
  62:C:/Users/49542/Desktop/GD32F30x_Demo_Suites_V2.0.0/GD32F30x_Demo_Suites_V2.0.0/GD32F30x_Firmware_Library/GD32F30x_standard_peripheral/Source\gd32f30x_dma.c ****     /* disable DMA a channel */
  63:C:/Users/49542/Desktop/GD32F30x_Demo_Suites_V2.0.0/GD32F30x_Demo_Suites_V2.0.0/GD32F30x_Firmware_Library/GD32F30x_standard_peripheral/Source\gd32f30x_dma.c ****     DMA_CHCTL(dma_periph, channelx) &= ~DMA_CHXCTL_CHEN;
  58              		.loc 1 63 0
  59 001e FA78     		ldrb	r2, [r7, #3]	@ zero_extendqisi2
  60 0020 1346     		mov	r3, r2
  61 0022 9B00     		lsls	r3, r3, #2
  62 0024 1344     		add	r3, r3, r2
  63 0026 9B00     		lsls	r3, r3, #2
  64 0028 1A46     		mov	r2, r3
  65 002a 7B68     		ldr	r3, [r7, #4]
  66 002c 1344     		add	r3, r3, r2
  67 002e 0833     		adds	r3, r3, #8
  68 0030 1968     		ldr	r1, [r3]
  69 0032 FA78     		ldrb	r2, [r7, #3]	@ zero_extendqisi2
  70 0034 1346     		mov	r3, r2
  71 0036 9B00     		lsls	r3, r3, #2
  72 0038 1344     		add	r3, r3, r2
  73 003a 9B00     		lsls	r3, r3, #2
  74 003c 1A46     		mov	r2, r3
  75 003e 7B68     		ldr	r3, [r7, #4]
  76 0040 1344     		add	r3, r3, r2
  77 0042 0833     		adds	r3, r3, #8
  78 0044 1A46     		mov	r2, r3
  79 0046 21F00103 		bic	r3, r1, #1
  80 004a 1360     		str	r3, [r2]
  64:C:/Users/49542/Desktop/GD32F30x_Demo_Suites_V2.0.0/GD32F30x_Demo_Suites_V2.0.0/GD32F30x_Firmware_Library/GD32F30x_standard_peripheral/Source\gd32f30x_dma.c ****     /* reset DMA channel registers */
  65:C:/Users/49542/Desktop/GD32F30x_Demo_Suites_V2.0.0/GD32F30x_Demo_Suites_V2.0.0/GD32F30x_Firmware_Library/GD32F30x_standard_peripheral/Source\gd32f30x_dma.c ****     DMA_CHCTL(dma_periph, channelx) = DMA_CHCTL_RESET_VALUE;
  81              		.loc 1 65 0
  82 004c FA78     		ldrb	r2, [r7, #3]	@ zero_extendqisi2
  83 004e 1346     		mov	r3, r2
  84 0050 9B00     		lsls	r3, r3, #2
  85 0052 1344     		add	r3, r3, r2
  86 0054 9B00     		lsls	r3, r3, #2
  87 0056 1A46     		mov	r2, r3
  88 0058 7B68     		ldr	r3, [r7, #4]
  89 005a 1344     		add	r3, r3, r2
  90 005c 0833     		adds	r3, r3, #8
  91 005e 1A46     		mov	r2, r3
  92 0060 0023     		movs	r3, #0
  93 0062 1360     		str	r3, [r2]
  66:C:/Users/49542/Desktop/GD32F30x_Demo_Suites_V2.0.0/GD32F30x_Demo_Suites_V2.0.0/GD32F30x_Firmware_Library/GD32F30x_standard_peripheral/Source\gd32f30x_dma.c ****     DMA_CHCNT(dma_periph, channelx) = DMA_CHCNT_RESET_VALUE;
  94              		.loc 1 66 0
  95 0064 FA78     		ldrb	r2, [r7, #3]	@ zero_extendqisi2
  96 0066 1346     		mov	r3, r2
  97 0068 9B00     		lsls	r3, r3, #2
  98 006a 1344     		add	r3, r3, r2
  99 006c 9B00     		lsls	r3, r3, #2
 100 006e 1A46     		mov	r2, r3
 101 0070 7B68     		ldr	r3, [r7, #4]
 102 0072 1344     		add	r3, r3, r2
 103 0074 0C33     		adds	r3, r3, #12
 104 0076 1A46     		mov	r2, r3
 105 0078 0023     		movs	r3, #0
 106 007a 1360     		str	r3, [r2]
ARM GAS  C:\Users\49542\AppData\Local\Temp\ccb6xhB5.s 			page 4


  67:C:/Users/49542/Desktop/GD32F30x_Demo_Suites_V2.0.0/GD32F30x_Demo_Suites_V2.0.0/GD32F30x_Firmware_Library/GD32F30x_standard_peripheral/Source\gd32f30x_dma.c ****     DMA_CHPADDR(dma_periph, channelx) = DMA_CHPADDR_RESET_VALUE;
 107              		.loc 1 67 0
 108 007c FA78     		ldrb	r2, [r7, #3]	@ zero_extendqisi2
 109 007e 1346     		mov	r3, r2
 110 0080 9B00     		lsls	r3, r3, #2
 111 0082 1344     		add	r3, r3, r2
 112 0084 9B00     		lsls	r3, r3, #2
 113 0086 1A46     		mov	r2, r3
 114 0088 7B68     		ldr	r3, [r7, #4]
 115 008a 1344     		add	r3, r3, r2
 116 008c 1033     		adds	r3, r3, #16
 117 008e 1A46     		mov	r2, r3
 118 0090 0023     		movs	r3, #0
 119 0092 1360     		str	r3, [r2]
  68:C:/Users/49542/Desktop/GD32F30x_Demo_Suites_V2.0.0/GD32F30x_Demo_Suites_V2.0.0/GD32F30x_Firmware_Library/GD32F30x_standard_peripheral/Source\gd32f30x_dma.c ****     DMA_CHMADDR(dma_periph, channelx) = DMA_CHMADDR_RESET_VALUE;
 120              		.loc 1 68 0
 121 0094 FA78     		ldrb	r2, [r7, #3]	@ zero_extendqisi2
 122 0096 1346     		mov	r3, r2
 123 0098 9B00     		lsls	r3, r3, #2
 124 009a 1344     		add	r3, r3, r2
 125 009c 9B00     		lsls	r3, r3, #2
 126 009e 1A46     		mov	r2, r3
 127 00a0 7B68     		ldr	r3, [r7, #4]
 128 00a2 1344     		add	r3, r3, r2
 129 00a4 1433     		adds	r3, r3, #20
 130 00a6 1A46     		mov	r2, r3
 131 00a8 0023     		movs	r3, #0
 132 00aa 1360     		str	r3, [r2]
  69:C:/Users/49542/Desktop/GD32F30x_Demo_Suites_V2.0.0/GD32F30x_Demo_Suites_V2.0.0/GD32F30x_Firmware_Library/GD32F30x_standard_peripheral/Source\gd32f30x_dma.c ****     DMA_INTC(dma_periph) |= DMA_FLAG_ADD(DMA_CHINTF_RESET_VALUE, channelx);
 133              		.loc 1 69 0
 134 00ac 7B68     		ldr	r3, [r7, #4]
 135 00ae 0433     		adds	r3, r3, #4
 136 00b0 1A68     		ldr	r2, [r3]
 137 00b2 FB78     		ldrb	r3, [r7, #3]	@ zero_extendqisi2
 138 00b4 9B00     		lsls	r3, r3, #2
 139 00b6 0F21     		movs	r1, #15
 140 00b8 01FA03F3 		lsl	r3, r1, r3
 141 00bc 7968     		ldr	r1, [r7, #4]
 142 00be 0431     		adds	r1, r1, #4
 143 00c0 1343     		orrs	r3, r3, r2
 144 00c2 0B60     		str	r3, [r1]
  70:C:/Users/49542/Desktop/GD32F30x_Demo_Suites_V2.0.0/GD32F30x_Demo_Suites_V2.0.0/GD32F30x_Firmware_Library/GD32F30x_standard_peripheral/Source\gd32f30x_dma.c **** }
 145              		.loc 1 70 0
 146 00c4 00BF     		nop
 147 00c6 0837     		adds	r7, r7, #8
 148              	.LCFI3:
 149              		.cfi_def_cfa_offset 8
 150 00c8 BD46     		mov	sp, r7
 151              	.LCFI4:
 152              		.cfi_def_cfa_register 13
 153              		@ sp needed
 154 00ca 80BD     		pop	{r7, pc}
 155              		.cfi_endproc
 156              	.LFE116:
 158              		.section	.text.dma_struct_para_init,"ax",%progbits
 159              		.align	1
 160              		.global	dma_struct_para_init
ARM GAS  C:\Users\49542\AppData\Local\Temp\ccb6xhB5.s 			page 5


 161              		.syntax unified
 162              		.thumb
 163              		.thumb_func
 164              		.fpu fpv4-sp-d16
 166              	dma_struct_para_init:
 167              	.LFB117:
  71:C:/Users/49542/Desktop/GD32F30x_Demo_Suites_V2.0.0/GD32F30x_Demo_Suites_V2.0.0/GD32F30x_Firmware_Library/GD32F30x_standard_peripheral/Source\gd32f30x_dma.c **** 
  72:C:/Users/49542/Desktop/GD32F30x_Demo_Suites_V2.0.0/GD32F30x_Demo_Suites_V2.0.0/GD32F30x_Firmware_Library/GD32F30x_standard_peripheral/Source\gd32f30x_dma.c **** /*!
  73:C:/Users/49542/Desktop/GD32F30x_Demo_Suites_V2.0.0/GD32F30x_Demo_Suites_V2.0.0/GD32F30x_Firmware_Library/GD32F30x_standard_peripheral/Source\gd32f30x_dma.c ****     \brief      initialize the parameters of DMA struct with the default values
  74:C:/Users/49542/Desktop/GD32F30x_Demo_Suites_V2.0.0/GD32F30x_Demo_Suites_V2.0.0/GD32F30x_Firmware_Library/GD32F30x_standard_peripheral/Source\gd32f30x_dma.c ****     \param[in]  init_struct: the initialization data needed to initialize DMA channel
  75:C:/Users/49542/Desktop/GD32F30x_Demo_Suites_V2.0.0/GD32F30x_Demo_Suites_V2.0.0/GD32F30x_Firmware_Library/GD32F30x_standard_peripheral/Source\gd32f30x_dma.c ****     \param[out] none
  76:C:/Users/49542/Desktop/GD32F30x_Demo_Suites_V2.0.0/GD32F30x_Demo_Suites_V2.0.0/GD32F30x_Firmware_Library/GD32F30x_standard_peripheral/Source\gd32f30x_dma.c ****     \retval     none
  77:C:/Users/49542/Desktop/GD32F30x_Demo_Suites_V2.0.0/GD32F30x_Demo_Suites_V2.0.0/GD32F30x_Firmware_Library/GD32F30x_standard_peripheral/Source\gd32f30x_dma.c **** */
  78:C:/Users/49542/Desktop/GD32F30x_Demo_Suites_V2.0.0/GD32F30x_Demo_Suites_V2.0.0/GD32F30x_Firmware_Library/GD32F30x_standard_peripheral/Source\gd32f30x_dma.c **** void dma_struct_para_init(dma_parameter_struct* init_struct)
  79:C:/Users/49542/Desktop/GD32F30x_Demo_Suites_V2.0.0/GD32F30x_Demo_Suites_V2.0.0/GD32F30x_Firmware_Library/GD32F30x_standard_peripheral/Source\gd32f30x_dma.c **** {
 168              		.loc 1 79 0
 169              		.cfi_startproc
 170              		@ args = 0, pretend = 0, frame = 8
 171              		@ frame_needed = 1, uses_anonymous_args = 0
 172              		@ link register save eliminated.
 173 0000 80B4     		push	{r7}
 174              	.LCFI5:
 175              		.cfi_def_cfa_offset 4
 176              		.cfi_offset 7, -4
 177 0002 83B0     		sub	sp, sp, #12
 178              	.LCFI6:
 179              		.cfi_def_cfa_offset 16
 180 0004 00AF     		add	r7, sp, #0
 181              	.LCFI7:
 182              		.cfi_def_cfa_register 7
 183 0006 7860     		str	r0, [r7, #4]
  80:C:/Users/49542/Desktop/GD32F30x_Demo_Suites_V2.0.0/GD32F30x_Demo_Suites_V2.0.0/GD32F30x_Firmware_Library/GD32F30x_standard_peripheral/Source\gd32f30x_dma.c ****     /* set the DMA struct with the default values */
  81:C:/Users/49542/Desktop/GD32F30x_Demo_Suites_V2.0.0/GD32F30x_Demo_Suites_V2.0.0/GD32F30x_Firmware_Library/GD32F30x_standard_peripheral/Source\gd32f30x_dma.c ****     init_struct->periph_addr  = 0U;
 184              		.loc 1 81 0
 185 0008 7B68     		ldr	r3, [r7, #4]
 186 000a 0022     		movs	r2, #0
 187 000c 1A60     		str	r2, [r3]
  82:C:/Users/49542/Desktop/GD32F30x_Demo_Suites_V2.0.0/GD32F30x_Demo_Suites_V2.0.0/GD32F30x_Firmware_Library/GD32F30x_standard_peripheral/Source\gd32f30x_dma.c ****     init_struct->periph_width = 0U; 
 188              		.loc 1 82 0
 189 000e 7B68     		ldr	r3, [r7, #4]
 190 0010 0022     		movs	r2, #0
 191 0012 5A60     		str	r2, [r3, #4]
  83:C:/Users/49542/Desktop/GD32F30x_Demo_Suites_V2.0.0/GD32F30x_Demo_Suites_V2.0.0/GD32F30x_Firmware_Library/GD32F30x_standard_peripheral/Source\gd32f30x_dma.c ****     init_struct->periph_inc   = DMA_PERIPH_INCREASE_DISABLE;
 192              		.loc 1 83 0
 193 0014 7B68     		ldr	r3, [r7, #4]
 194 0016 0022     		movs	r2, #0
 195 0018 1A76     		strb	r2, [r3, #24]
  84:C:/Users/49542/Desktop/GD32F30x_Demo_Suites_V2.0.0/GD32F30x_Demo_Suites_V2.0.0/GD32F30x_Firmware_Library/GD32F30x_standard_peripheral/Source\gd32f30x_dma.c ****     init_struct->memory_addr  = 0U;
 196              		.loc 1 84 0
 197 001a 7B68     		ldr	r3, [r7, #4]
 198 001c 0022     		movs	r2, #0
 199 001e 9A60     		str	r2, [r3, #8]
  85:C:/Users/49542/Desktop/GD32F30x_Demo_Suites_V2.0.0/GD32F30x_Demo_Suites_V2.0.0/GD32F30x_Firmware_Library/GD32F30x_standard_peripheral/Source\gd32f30x_dma.c ****     init_struct->memory_width = 0U;
 200              		.loc 1 85 0
 201 0020 7B68     		ldr	r3, [r7, #4]
 202 0022 0022     		movs	r2, #0
 203 0024 DA60     		str	r2, [r3, #12]
ARM GAS  C:\Users\49542\AppData\Local\Temp\ccb6xhB5.s 			page 6


  86:C:/Users/49542/Desktop/GD32F30x_Demo_Suites_V2.0.0/GD32F30x_Demo_Suites_V2.0.0/GD32F30x_Firmware_Library/GD32F30x_standard_peripheral/Source\gd32f30x_dma.c ****     init_struct->memory_inc   = DMA_MEMORY_INCREASE_DISABLE;
 204              		.loc 1 86 0
 205 0026 7B68     		ldr	r3, [r7, #4]
 206 0028 0022     		movs	r2, #0
 207 002a 5A76     		strb	r2, [r3, #25]
  87:C:/Users/49542/Desktop/GD32F30x_Demo_Suites_V2.0.0/GD32F30x_Demo_Suites_V2.0.0/GD32F30x_Firmware_Library/GD32F30x_standard_peripheral/Source\gd32f30x_dma.c ****     init_struct->number       = 0U;
 208              		.loc 1 87 0
 209 002c 7B68     		ldr	r3, [r7, #4]
 210 002e 0022     		movs	r2, #0
 211 0030 1A61     		str	r2, [r3, #16]
  88:C:/Users/49542/Desktop/GD32F30x_Demo_Suites_V2.0.0/GD32F30x_Demo_Suites_V2.0.0/GD32F30x_Firmware_Library/GD32F30x_standard_peripheral/Source\gd32f30x_dma.c ****     init_struct->direction    = DMA_PERIPHERAL_TO_MEMORY;
 212              		.loc 1 88 0
 213 0032 7B68     		ldr	r3, [r7, #4]
 214 0034 0022     		movs	r2, #0
 215 0036 9A76     		strb	r2, [r3, #26]
  89:C:/Users/49542/Desktop/GD32F30x_Demo_Suites_V2.0.0/GD32F30x_Demo_Suites_V2.0.0/GD32F30x_Firmware_Library/GD32F30x_standard_peripheral/Source\gd32f30x_dma.c ****     init_struct->priority     = DMA_PRIORITY_LOW;
 216              		.loc 1 89 0
 217 0038 7B68     		ldr	r3, [r7, #4]
 218 003a 0022     		movs	r2, #0
 219 003c 5A61     		str	r2, [r3, #20]
  90:C:/Users/49542/Desktop/GD32F30x_Demo_Suites_V2.0.0/GD32F30x_Demo_Suites_V2.0.0/GD32F30x_Firmware_Library/GD32F30x_standard_peripheral/Source\gd32f30x_dma.c **** }
 220              		.loc 1 90 0
 221 003e 00BF     		nop
 222 0040 0C37     		adds	r7, r7, #12
 223              	.LCFI8:
 224              		.cfi_def_cfa_offset 4
 225 0042 BD46     		mov	sp, r7
 226              	.LCFI9:
 227              		.cfi_def_cfa_register 13
 228              		@ sp needed
 229 0044 5DF8047B 		ldr	r7, [sp], #4
 230              	.LCFI10:
 231              		.cfi_restore 7
 232              		.cfi_def_cfa_offset 0
 233 0048 7047     		bx	lr
 234              		.cfi_endproc
 235              	.LFE117:
 237              		.section	.text.dma_init,"ax",%progbits
 238              		.align	1
 239              		.global	dma_init
 240              		.syntax unified
 241              		.thumb
 242              		.thumb_func
 243              		.fpu fpv4-sp-d16
 245              	dma_init:
 246              	.LFB118:
  91:C:/Users/49542/Desktop/GD32F30x_Demo_Suites_V2.0.0/GD32F30x_Demo_Suites_V2.0.0/GD32F30x_Firmware_Library/GD32F30x_standard_peripheral/Source\gd32f30x_dma.c **** 
  92:C:/Users/49542/Desktop/GD32F30x_Demo_Suites_V2.0.0/GD32F30x_Demo_Suites_V2.0.0/GD32F30x_Firmware_Library/GD32F30x_standard_peripheral/Source\gd32f30x_dma.c **** /*!
  93:C:/Users/49542/Desktop/GD32F30x_Demo_Suites_V2.0.0/GD32F30x_Demo_Suites_V2.0.0/GD32F30x_Firmware_Library/GD32F30x_standard_peripheral/Source\gd32f30x_dma.c ****     \brief      initialize DMA channel
  94:C:/Users/49542/Desktop/GD32F30x_Demo_Suites_V2.0.0/GD32F30x_Demo_Suites_V2.0.0/GD32F30x_Firmware_Library/GD32F30x_standard_peripheral/Source\gd32f30x_dma.c ****     \param[in]  dma_periph: DMAx(x=0,1)
  95:C:/Users/49542/Desktop/GD32F30x_Demo_Suites_V2.0.0/GD32F30x_Demo_Suites_V2.0.0/GD32F30x_Firmware_Library/GD32F30x_standard_peripheral/Source\gd32f30x_dma.c ****       \arg        DMAx(x=0,1)
  96:C:/Users/49542/Desktop/GD32F30x_Demo_Suites_V2.0.0/GD32F30x_Demo_Suites_V2.0.0/GD32F30x_Firmware_Library/GD32F30x_standard_peripheral/Source\gd32f30x_dma.c ****     \param[in]  channelx: specify which DMA channel is initialized
  97:C:/Users/49542/Desktop/GD32F30x_Demo_Suites_V2.0.0/GD32F30x_Demo_Suites_V2.0.0/GD32F30x_Firmware_Library/GD32F30x_standard_peripheral/Source\gd32f30x_dma.c ****                 only one parameter can be selected which is shown as below:
  98:C:/Users/49542/Desktop/GD32F30x_Demo_Suites_V2.0.0/GD32F30x_Demo_Suites_V2.0.0/GD32F30x_Firmware_Library/GD32F30x_standard_peripheral/Source\gd32f30x_dma.c ****       \arg        DMA0: DMA_CHx(x=0..6), DMA1: DMA_CHx(x=0..4)
  99:C:/Users/49542/Desktop/GD32F30x_Demo_Suites_V2.0.0/GD32F30x_Demo_Suites_V2.0.0/GD32F30x_Firmware_Library/GD32F30x_standard_peripheral/Source\gd32f30x_dma.c ****     \param[in]  init_struct: the data needed to initialize DMA channel
 100:C:/Users/49542/Desktop/GD32F30x_Demo_Suites_V2.0.0/GD32F30x_Demo_Suites_V2.0.0/GD32F30x_Firmware_Library/GD32F30x_standard_peripheral/Source\gd32f30x_dma.c ****                   periph_addr: peripheral base address
 101:C:/Users/49542/Desktop/GD32F30x_Demo_Suites_V2.0.0/GD32F30x_Demo_Suites_V2.0.0/GD32F30x_Firmware_Library/GD32F30x_standard_peripheral/Source\gd32f30x_dma.c ****                   periph_width: DMA_PERIPHERAL_WIDTH_8BIT, DMA_PERIPHERAL_WIDTH_16BIT, DMA_PERIPHER
ARM GAS  C:\Users\49542\AppData\Local\Temp\ccb6xhB5.s 			page 7


 102:C:/Users/49542/Desktop/GD32F30x_Demo_Suites_V2.0.0/GD32F30x_Demo_Suites_V2.0.0/GD32F30x_Firmware_Library/GD32F30x_standard_peripheral/Source\gd32f30x_dma.c ****                   periph_inc: DMA_PERIPH_INCREASE_ENABLE, DMA_PERIPH_INCREASE_DISABLE 
 103:C:/Users/49542/Desktop/GD32F30x_Demo_Suites_V2.0.0/GD32F30x_Demo_Suites_V2.0.0/GD32F30x_Firmware_Library/GD32F30x_standard_peripheral/Source\gd32f30x_dma.c ****                   memory_addr: memory base address
 104:C:/Users/49542/Desktop/GD32F30x_Demo_Suites_V2.0.0/GD32F30x_Demo_Suites_V2.0.0/GD32F30x_Firmware_Library/GD32F30x_standard_peripheral/Source\gd32f30x_dma.c ****                   memory_width: DMA_MEMORY_WIDTH_8BIT, DMA_MEMORY_WIDTH_16BIT, DMA_MEMORY_WIDTH_32B
 105:C:/Users/49542/Desktop/GD32F30x_Demo_Suites_V2.0.0/GD32F30x_Demo_Suites_V2.0.0/GD32F30x_Firmware_Library/GD32F30x_standard_peripheral/Source\gd32f30x_dma.c ****                   memory_inc: DMA_MEMORY_INCREASE_ENABLE, DMA_MEMORY_INCREASE_DISABLE
 106:C:/Users/49542/Desktop/GD32F30x_Demo_Suites_V2.0.0/GD32F30x_Demo_Suites_V2.0.0/GD32F30x_Firmware_Library/GD32F30x_standard_peripheral/Source\gd32f30x_dma.c ****                   direction: DMA_PERIPHERAL_TO_MEMORY, DMA_MEMORY_TO_PERIPHERAL
 107:C:/Users/49542/Desktop/GD32F30x_Demo_Suites_V2.0.0/GD32F30x_Demo_Suites_V2.0.0/GD32F30x_Firmware_Library/GD32F30x_standard_peripheral/Source\gd32f30x_dma.c ****                   number: the number of remaining data to be transferred by the DMA
 108:C:/Users/49542/Desktop/GD32F30x_Demo_Suites_V2.0.0/GD32F30x_Demo_Suites_V2.0.0/GD32F30x_Firmware_Library/GD32F30x_standard_peripheral/Source\gd32f30x_dma.c ****                   priority: DMA_PRIORITY_LOW, DMA_PRIORITY_MEDIUM, DMA_PRIORITY_HIGH, DMA_PRIORITY_
 109:C:/Users/49542/Desktop/GD32F30x_Demo_Suites_V2.0.0/GD32F30x_Demo_Suites_V2.0.0/GD32F30x_Firmware_Library/GD32F30x_standard_peripheral/Source\gd32f30x_dma.c ****     \param[out] none
 110:C:/Users/49542/Desktop/GD32F30x_Demo_Suites_V2.0.0/GD32F30x_Demo_Suites_V2.0.0/GD32F30x_Firmware_Library/GD32F30x_standard_peripheral/Source\gd32f30x_dma.c ****     \retval     none
 111:C:/Users/49542/Desktop/GD32F30x_Demo_Suites_V2.0.0/GD32F30x_Demo_Suites_V2.0.0/GD32F30x_Firmware_Library/GD32F30x_standard_peripheral/Source\gd32f30x_dma.c **** */
 112:C:/Users/49542/Desktop/GD32F30x_Demo_Suites_V2.0.0/GD32F30x_Demo_Suites_V2.0.0/GD32F30x_Firmware_Library/GD32F30x_standard_peripheral/Source\gd32f30x_dma.c **** void dma_init(uint32_t dma_periph, dma_channel_enum channelx, dma_parameter_struct* init_struct)
 113:C:/Users/49542/Desktop/GD32F30x_Demo_Suites_V2.0.0/GD32F30x_Demo_Suites_V2.0.0/GD32F30x_Firmware_Library/GD32F30x_standard_peripheral/Source\gd32f30x_dma.c **** {
 247              		.loc 1 113 0
 248              		.cfi_startproc
 249              		@ args = 0, pretend = 0, frame = 24
 250              		@ frame_needed = 1, uses_anonymous_args = 0
 251 0000 80B5     		push	{r7, lr}
 252              	.LCFI11:
 253              		.cfi_def_cfa_offset 8
 254              		.cfi_offset 7, -8
 255              		.cfi_offset 14, -4
 256 0002 86B0     		sub	sp, sp, #24
 257              	.LCFI12:
 258              		.cfi_def_cfa_offset 32
 259 0004 00AF     		add	r7, sp, #0
 260              	.LCFI13:
 261              		.cfi_def_cfa_register 7
 262 0006 F860     		str	r0, [r7, #12]
 263 0008 0B46     		mov	r3, r1
 264 000a 7A60     		str	r2, [r7, #4]
 265 000c FB72     		strb	r3, [r7, #11]
 114:C:/Users/49542/Desktop/GD32F30x_Demo_Suites_V2.0.0/GD32F30x_Demo_Suites_V2.0.0/GD32F30x_Firmware_Library/GD32F30x_standard_peripheral/Source\gd32f30x_dma.c ****     uint32_t ctl;
 115:C:/Users/49542/Desktop/GD32F30x_Demo_Suites_V2.0.0/GD32F30x_Demo_Suites_V2.0.0/GD32F30x_Firmware_Library/GD32F30x_standard_peripheral/Source\gd32f30x_dma.c ****     
 116:C:/Users/49542/Desktop/GD32F30x_Demo_Suites_V2.0.0/GD32F30x_Demo_Suites_V2.0.0/GD32F30x_Firmware_Library/GD32F30x_standard_peripheral/Source\gd32f30x_dma.c ****     if(ERROR == dma_periph_and_channel_check(dma_periph, channelx)){
 266              		.loc 1 116 0
 267 000e FB7A     		ldrb	r3, [r7, #11]	@ zero_extendqisi2
 268 0010 1946     		mov	r1, r3
 269 0012 F868     		ldr	r0, [r7, #12]
 270 0014 FFF7FEFF 		bl	dma_periph_and_channel_check
 271 0018 0346     		mov	r3, r0
 272 001a 002B     		cmp	r3, #0
 273 001c 00D1     		bne	.L6
 274              	.L7:
 117:C:/Users/49542/Desktop/GD32F30x_Demo_Suites_V2.0.0/GD32F30x_Demo_Suites_V2.0.0/GD32F30x_Firmware_Library/GD32F30x_standard_peripheral/Source\gd32f30x_dma.c ****         DMA_WRONG_HANDLE
 275              		.loc 1 117 0 discriminator 1
 276 001e FEE7     		b	.L7
 277              	.L6:
 118:C:/Users/49542/Desktop/GD32F30x_Demo_Suites_V2.0.0/GD32F30x_Demo_Suites_V2.0.0/GD32F30x_Firmware_Library/GD32F30x_standard_peripheral/Source\gd32f30x_dma.c ****     }
 119:C:/Users/49542/Desktop/GD32F30x_Demo_Suites_V2.0.0/GD32F30x_Demo_Suites_V2.0.0/GD32F30x_Firmware_Library/GD32F30x_standard_peripheral/Source\gd32f30x_dma.c ****     
 120:C:/Users/49542/Desktop/GD32F30x_Demo_Suites_V2.0.0/GD32F30x_Demo_Suites_V2.0.0/GD32F30x_Firmware_Library/GD32F30x_standard_peripheral/Source\gd32f30x_dma.c ****     /* configure peripheral base address */
 121:C:/Users/49542/Desktop/GD32F30x_Demo_Suites_V2.0.0/GD32F30x_Demo_Suites_V2.0.0/GD32F30x_Firmware_Library/GD32F30x_standard_peripheral/Source\gd32f30x_dma.c ****     DMA_CHPADDR(dma_periph, channelx) = init_struct->periph_addr;
 278              		.loc 1 121 0
 279 0020 FA7A     		ldrb	r2, [r7, #11]	@ zero_extendqisi2
 280 0022 1346     		mov	r3, r2
 281 0024 9B00     		lsls	r3, r3, #2
 282 0026 1344     		add	r3, r3, r2
 283 0028 9B00     		lsls	r3, r3, #2
ARM GAS  C:\Users\49542\AppData\Local\Temp\ccb6xhB5.s 			page 8


 284 002a 1A46     		mov	r2, r3
 285 002c FB68     		ldr	r3, [r7, #12]
 286 002e 1344     		add	r3, r3, r2
 287 0030 1033     		adds	r3, r3, #16
 288 0032 1A46     		mov	r2, r3
 289 0034 7B68     		ldr	r3, [r7, #4]
 290 0036 1B68     		ldr	r3, [r3]
 291 0038 1360     		str	r3, [r2]
 122:C:/Users/49542/Desktop/GD32F30x_Demo_Suites_V2.0.0/GD32F30x_Demo_Suites_V2.0.0/GD32F30x_Firmware_Library/GD32F30x_standard_peripheral/Source\gd32f30x_dma.c ****     
 123:C:/Users/49542/Desktop/GD32F30x_Demo_Suites_V2.0.0/GD32F30x_Demo_Suites_V2.0.0/GD32F30x_Firmware_Library/GD32F30x_standard_peripheral/Source\gd32f30x_dma.c ****     /* configure memory base address */
 124:C:/Users/49542/Desktop/GD32F30x_Demo_Suites_V2.0.0/GD32F30x_Demo_Suites_V2.0.0/GD32F30x_Firmware_Library/GD32F30x_standard_peripheral/Source\gd32f30x_dma.c ****     DMA_CHMADDR(dma_periph, channelx) = init_struct->memory_addr;
 292              		.loc 1 124 0
 293 003a FA7A     		ldrb	r2, [r7, #11]	@ zero_extendqisi2
 294 003c 1346     		mov	r3, r2
 295 003e 9B00     		lsls	r3, r3, #2
 296 0040 1344     		add	r3, r3, r2
 297 0042 9B00     		lsls	r3, r3, #2
 298 0044 1A46     		mov	r2, r3
 299 0046 FB68     		ldr	r3, [r7, #12]
 300 0048 1344     		add	r3, r3, r2
 301 004a 1433     		adds	r3, r3, #20
 302 004c 1A46     		mov	r2, r3
 303 004e 7B68     		ldr	r3, [r7, #4]
 304 0050 9B68     		ldr	r3, [r3, #8]
 305 0052 1360     		str	r3, [r2]
 125:C:/Users/49542/Desktop/GD32F30x_Demo_Suites_V2.0.0/GD32F30x_Demo_Suites_V2.0.0/GD32F30x_Firmware_Library/GD32F30x_standard_peripheral/Source\gd32f30x_dma.c ****     
 126:C:/Users/49542/Desktop/GD32F30x_Demo_Suites_V2.0.0/GD32F30x_Demo_Suites_V2.0.0/GD32F30x_Firmware_Library/GD32F30x_standard_peripheral/Source\gd32f30x_dma.c ****     /* configure the number of remaining data to be transferred */
 127:C:/Users/49542/Desktop/GD32F30x_Demo_Suites_V2.0.0/GD32F30x_Demo_Suites_V2.0.0/GD32F30x_Firmware_Library/GD32F30x_standard_peripheral/Source\gd32f30x_dma.c ****     DMA_CHCNT(dma_periph, channelx) = (init_struct->number & DMA_CHANNEL_CNT_MASK);
 306              		.loc 1 127 0
 307 0054 7B68     		ldr	r3, [r7, #4]
 308 0056 1969     		ldr	r1, [r3, #16]
 309 0058 FA7A     		ldrb	r2, [r7, #11]	@ zero_extendqisi2
 310 005a 1346     		mov	r3, r2
 311 005c 9B00     		lsls	r3, r3, #2
 312 005e 1344     		add	r3, r3, r2
 313 0060 9B00     		lsls	r3, r3, #2
 314 0062 1A46     		mov	r2, r3
 315 0064 FB68     		ldr	r3, [r7, #12]
 316 0066 1344     		add	r3, r3, r2
 317 0068 0C33     		adds	r3, r3, #12
 318 006a 1A46     		mov	r2, r3
 319 006c 8BB2     		uxth	r3, r1
 320 006e 1360     		str	r3, [r2]
 128:C:/Users/49542/Desktop/GD32F30x_Demo_Suites_V2.0.0/GD32F30x_Demo_Suites_V2.0.0/GD32F30x_Firmware_Library/GD32F30x_standard_peripheral/Source\gd32f30x_dma.c ****     
 129:C:/Users/49542/Desktop/GD32F30x_Demo_Suites_V2.0.0/GD32F30x_Demo_Suites_V2.0.0/GD32F30x_Firmware_Library/GD32F30x_standard_peripheral/Source\gd32f30x_dma.c ****     /* configure peripheral transfer width,memory transfer width and priority */
 130:C:/Users/49542/Desktop/GD32F30x_Demo_Suites_V2.0.0/GD32F30x_Demo_Suites_V2.0.0/GD32F30x_Firmware_Library/GD32F30x_standard_peripheral/Source\gd32f30x_dma.c ****     ctl = DMA_CHCTL(dma_periph, channelx);
 321              		.loc 1 130 0
 322 0070 FA7A     		ldrb	r2, [r7, #11]	@ zero_extendqisi2
 323 0072 1346     		mov	r3, r2
 324 0074 9B00     		lsls	r3, r3, #2
 325 0076 1344     		add	r3, r3, r2
 326 0078 9B00     		lsls	r3, r3, #2
 327 007a 1A46     		mov	r2, r3
 328 007c FB68     		ldr	r3, [r7, #12]
 329 007e 1344     		add	r3, r3, r2
 330 0080 0833     		adds	r3, r3, #8
 331 0082 1B68     		ldr	r3, [r3]
ARM GAS  C:\Users\49542\AppData\Local\Temp\ccb6xhB5.s 			page 9


 332 0084 7B61     		str	r3, [r7, #20]
 131:C:/Users/49542/Desktop/GD32F30x_Demo_Suites_V2.0.0/GD32F30x_Demo_Suites_V2.0.0/GD32F30x_Firmware_Library/GD32F30x_standard_peripheral/Source\gd32f30x_dma.c ****     ctl &= ~(DMA_CHXCTL_PWIDTH | DMA_CHXCTL_MWIDTH | DMA_CHXCTL_PRIO);
 333              		.loc 1 131 0
 334 0086 7B69     		ldr	r3, [r7, #20]
 335 0088 23F47C53 		bic	r3, r3, #16128
 336 008c 7B61     		str	r3, [r7, #20]
 132:C:/Users/49542/Desktop/GD32F30x_Demo_Suites_V2.0.0/GD32F30x_Demo_Suites_V2.0.0/GD32F30x_Firmware_Library/GD32F30x_standard_peripheral/Source\gd32f30x_dma.c ****     ctl |= (init_struct->periph_width | init_struct->memory_width | init_struct->priority);
 337              		.loc 1 132 0
 338 008e 7B68     		ldr	r3, [r7, #4]
 339 0090 5A68     		ldr	r2, [r3, #4]
 340 0092 7B68     		ldr	r3, [r7, #4]
 341 0094 DB68     		ldr	r3, [r3, #12]
 342 0096 1A43     		orrs	r2, r2, r3
 343 0098 7B68     		ldr	r3, [r7, #4]
 344 009a 5B69     		ldr	r3, [r3, #20]
 345 009c 1343     		orrs	r3, r3, r2
 346 009e 7A69     		ldr	r2, [r7, #20]
 347 00a0 1343     		orrs	r3, r3, r2
 348 00a2 7B61     		str	r3, [r7, #20]
 133:C:/Users/49542/Desktop/GD32F30x_Demo_Suites_V2.0.0/GD32F30x_Demo_Suites_V2.0.0/GD32F30x_Firmware_Library/GD32F30x_standard_peripheral/Source\gd32f30x_dma.c ****     DMA_CHCTL(dma_periph, channelx) = ctl;
 349              		.loc 1 133 0
 350 00a4 FA7A     		ldrb	r2, [r7, #11]	@ zero_extendqisi2
 351 00a6 1346     		mov	r3, r2
 352 00a8 9B00     		lsls	r3, r3, #2
 353 00aa 1344     		add	r3, r3, r2
 354 00ac 9B00     		lsls	r3, r3, #2
 355 00ae 1A46     		mov	r2, r3
 356 00b0 FB68     		ldr	r3, [r7, #12]
 357 00b2 1344     		add	r3, r3, r2
 358 00b4 0833     		adds	r3, r3, #8
 359 00b6 1A46     		mov	r2, r3
 360 00b8 7B69     		ldr	r3, [r7, #20]
 361 00ba 1360     		str	r3, [r2]
 134:C:/Users/49542/Desktop/GD32F30x_Demo_Suites_V2.0.0/GD32F30x_Demo_Suites_V2.0.0/GD32F30x_Firmware_Library/GD32F30x_standard_peripheral/Source\gd32f30x_dma.c **** 
 135:C:/Users/49542/Desktop/GD32F30x_Demo_Suites_V2.0.0/GD32F30x_Demo_Suites_V2.0.0/GD32F30x_Firmware_Library/GD32F30x_standard_peripheral/Source\gd32f30x_dma.c ****     /* configure peripheral increasing mode */
 136:C:/Users/49542/Desktop/GD32F30x_Demo_Suites_V2.0.0/GD32F30x_Demo_Suites_V2.0.0/GD32F30x_Firmware_Library/GD32F30x_standard_peripheral/Source\gd32f30x_dma.c ****     if(DMA_PERIPH_INCREASE_ENABLE == init_struct->periph_inc){
 362              		.loc 1 136 0
 363 00bc 7B68     		ldr	r3, [r7, #4]
 364 00be 1B7E     		ldrb	r3, [r3, #24]	@ zero_extendqisi2
 365 00c0 012B     		cmp	r3, #1
 366 00c2 17D1     		bne	.L8
 137:C:/Users/49542/Desktop/GD32F30x_Demo_Suites_V2.0.0/GD32F30x_Demo_Suites_V2.0.0/GD32F30x_Firmware_Library/GD32F30x_standard_peripheral/Source\gd32f30x_dma.c ****         DMA_CHCTL(dma_periph, channelx) |= DMA_CHXCTL_PNAGA;
 367              		.loc 1 137 0
 368 00c4 FA7A     		ldrb	r2, [r7, #11]	@ zero_extendqisi2
 369 00c6 1346     		mov	r3, r2
 370 00c8 9B00     		lsls	r3, r3, #2
 371 00ca 1344     		add	r3, r3, r2
 372 00cc 9B00     		lsls	r3, r3, #2
 373 00ce 1A46     		mov	r2, r3
 374 00d0 FB68     		ldr	r3, [r7, #12]
 375 00d2 1344     		add	r3, r3, r2
 376 00d4 0833     		adds	r3, r3, #8
 377 00d6 1968     		ldr	r1, [r3]
 378 00d8 FA7A     		ldrb	r2, [r7, #11]	@ zero_extendqisi2
 379 00da 1346     		mov	r3, r2
 380 00dc 9B00     		lsls	r3, r3, #2
 381 00de 1344     		add	r3, r3, r2
ARM GAS  C:\Users\49542\AppData\Local\Temp\ccb6xhB5.s 			page 10


 382 00e0 9B00     		lsls	r3, r3, #2
 383 00e2 1A46     		mov	r2, r3
 384 00e4 FB68     		ldr	r3, [r7, #12]
 385 00e6 1344     		add	r3, r3, r2
 386 00e8 0833     		adds	r3, r3, #8
 387 00ea 1A46     		mov	r2, r3
 388 00ec 41F04003 		orr	r3, r1, #64
 389 00f0 1360     		str	r3, [r2]
 390 00f2 16E0     		b	.L9
 391              	.L8:
 138:C:/Users/49542/Desktop/GD32F30x_Demo_Suites_V2.0.0/GD32F30x_Demo_Suites_V2.0.0/GD32F30x_Firmware_Library/GD32F30x_standard_peripheral/Source\gd32f30x_dma.c ****     }else{
 139:C:/Users/49542/Desktop/GD32F30x_Demo_Suites_V2.0.0/GD32F30x_Demo_Suites_V2.0.0/GD32F30x_Firmware_Library/GD32F30x_standard_peripheral/Source\gd32f30x_dma.c ****         DMA_CHCTL(dma_periph, channelx) &= ~DMA_CHXCTL_PNAGA;
 392              		.loc 1 139 0
 393 00f4 FA7A     		ldrb	r2, [r7, #11]	@ zero_extendqisi2
 394 00f6 1346     		mov	r3, r2
 395 00f8 9B00     		lsls	r3, r3, #2
 396 00fa 1344     		add	r3, r3, r2
 397 00fc 9B00     		lsls	r3, r3, #2
 398 00fe 1A46     		mov	r2, r3
 399 0100 FB68     		ldr	r3, [r7, #12]
 400 0102 1344     		add	r3, r3, r2
 401 0104 0833     		adds	r3, r3, #8
 402 0106 1968     		ldr	r1, [r3]
 403 0108 FA7A     		ldrb	r2, [r7, #11]	@ zero_extendqisi2
 404 010a 1346     		mov	r3, r2
 405 010c 9B00     		lsls	r3, r3, #2
 406 010e 1344     		add	r3, r3, r2
 407 0110 9B00     		lsls	r3, r3, #2
 408 0112 1A46     		mov	r2, r3
 409 0114 FB68     		ldr	r3, [r7, #12]
 410 0116 1344     		add	r3, r3, r2
 411 0118 0833     		adds	r3, r3, #8
 412 011a 1A46     		mov	r2, r3
 413 011c 21F04003 		bic	r3, r1, #64
 414 0120 1360     		str	r3, [r2]
 415              	.L9:
 140:C:/Users/49542/Desktop/GD32F30x_Demo_Suites_V2.0.0/GD32F30x_Demo_Suites_V2.0.0/GD32F30x_Firmware_Library/GD32F30x_standard_peripheral/Source\gd32f30x_dma.c ****     }
 141:C:/Users/49542/Desktop/GD32F30x_Demo_Suites_V2.0.0/GD32F30x_Demo_Suites_V2.0.0/GD32F30x_Firmware_Library/GD32F30x_standard_peripheral/Source\gd32f30x_dma.c **** 
 142:C:/Users/49542/Desktop/GD32F30x_Demo_Suites_V2.0.0/GD32F30x_Demo_Suites_V2.0.0/GD32F30x_Firmware_Library/GD32F30x_standard_peripheral/Source\gd32f30x_dma.c ****     /* configure memory increasing mode */
 143:C:/Users/49542/Desktop/GD32F30x_Demo_Suites_V2.0.0/GD32F30x_Demo_Suites_V2.0.0/GD32F30x_Firmware_Library/GD32F30x_standard_peripheral/Source\gd32f30x_dma.c ****     if(DMA_MEMORY_INCREASE_ENABLE == init_struct->memory_inc){
 416              		.loc 1 143 0
 417 0122 7B68     		ldr	r3, [r7, #4]
 418 0124 5B7E     		ldrb	r3, [r3, #25]	@ zero_extendqisi2
 419 0126 012B     		cmp	r3, #1
 420 0128 17D1     		bne	.L10
 144:C:/Users/49542/Desktop/GD32F30x_Demo_Suites_V2.0.0/GD32F30x_Demo_Suites_V2.0.0/GD32F30x_Firmware_Library/GD32F30x_standard_peripheral/Source\gd32f30x_dma.c ****         DMA_CHCTL(dma_periph, channelx) |= DMA_CHXCTL_MNAGA;
 421              		.loc 1 144 0
 422 012a FA7A     		ldrb	r2, [r7, #11]	@ zero_extendqisi2
 423 012c 1346     		mov	r3, r2
 424 012e 9B00     		lsls	r3, r3, #2
 425 0130 1344     		add	r3, r3, r2
 426 0132 9B00     		lsls	r3, r3, #2
 427 0134 1A46     		mov	r2, r3
 428 0136 FB68     		ldr	r3, [r7, #12]
 429 0138 1344     		add	r3, r3, r2
 430 013a 0833     		adds	r3, r3, #8
 431 013c 1968     		ldr	r1, [r3]
ARM GAS  C:\Users\49542\AppData\Local\Temp\ccb6xhB5.s 			page 11


 432 013e FA7A     		ldrb	r2, [r7, #11]	@ zero_extendqisi2
 433 0140 1346     		mov	r3, r2
 434 0142 9B00     		lsls	r3, r3, #2
 435 0144 1344     		add	r3, r3, r2
 436 0146 9B00     		lsls	r3, r3, #2
 437 0148 1A46     		mov	r2, r3
 438 014a FB68     		ldr	r3, [r7, #12]
 439 014c 1344     		add	r3, r3, r2
 440 014e 0833     		adds	r3, r3, #8
 441 0150 1A46     		mov	r2, r3
 442 0152 41F08003 		orr	r3, r1, #128
 443 0156 1360     		str	r3, [r2]
 444 0158 16E0     		b	.L11
 445              	.L10:
 145:C:/Users/49542/Desktop/GD32F30x_Demo_Suites_V2.0.0/GD32F30x_Demo_Suites_V2.0.0/GD32F30x_Firmware_Library/GD32F30x_standard_peripheral/Source\gd32f30x_dma.c ****     }else{
 146:C:/Users/49542/Desktop/GD32F30x_Demo_Suites_V2.0.0/GD32F30x_Demo_Suites_V2.0.0/GD32F30x_Firmware_Library/GD32F30x_standard_peripheral/Source\gd32f30x_dma.c ****         DMA_CHCTL(dma_periph, channelx) &= ~DMA_CHXCTL_MNAGA;
 446              		.loc 1 146 0
 447 015a FA7A     		ldrb	r2, [r7, #11]	@ zero_extendqisi2
 448 015c 1346     		mov	r3, r2
 449 015e 9B00     		lsls	r3, r3, #2
 450 0160 1344     		add	r3, r3, r2
 451 0162 9B00     		lsls	r3, r3, #2
 452 0164 1A46     		mov	r2, r3
 453 0166 FB68     		ldr	r3, [r7, #12]
 454 0168 1344     		add	r3, r3, r2
 455 016a 0833     		adds	r3, r3, #8
 456 016c 1968     		ldr	r1, [r3]
 457 016e FA7A     		ldrb	r2, [r7, #11]	@ zero_extendqisi2
 458 0170 1346     		mov	r3, r2
 459 0172 9B00     		lsls	r3, r3, #2
 460 0174 1344     		add	r3, r3, r2
 461 0176 9B00     		lsls	r3, r3, #2
 462 0178 1A46     		mov	r2, r3
 463 017a FB68     		ldr	r3, [r7, #12]
 464 017c 1344     		add	r3, r3, r2
 465 017e 0833     		adds	r3, r3, #8
 466 0180 1A46     		mov	r2, r3
 467 0182 21F08003 		bic	r3, r1, #128
 468 0186 1360     		str	r3, [r2]
 469              	.L11:
 147:C:/Users/49542/Desktop/GD32F30x_Demo_Suites_V2.0.0/GD32F30x_Demo_Suites_V2.0.0/GD32F30x_Firmware_Library/GD32F30x_standard_peripheral/Source\gd32f30x_dma.c ****     }
 148:C:/Users/49542/Desktop/GD32F30x_Demo_Suites_V2.0.0/GD32F30x_Demo_Suites_V2.0.0/GD32F30x_Firmware_Library/GD32F30x_standard_peripheral/Source\gd32f30x_dma.c ****     
 149:C:/Users/49542/Desktop/GD32F30x_Demo_Suites_V2.0.0/GD32F30x_Demo_Suites_V2.0.0/GD32F30x_Firmware_Library/GD32F30x_standard_peripheral/Source\gd32f30x_dma.c ****     /* configure the direction of data transfer */
 150:C:/Users/49542/Desktop/GD32F30x_Demo_Suites_V2.0.0/GD32F30x_Demo_Suites_V2.0.0/GD32F30x_Firmware_Library/GD32F30x_standard_peripheral/Source\gd32f30x_dma.c ****     if(DMA_PERIPHERAL_TO_MEMORY == init_struct->direction){
 470              		.loc 1 150 0
 471 0188 7B68     		ldr	r3, [r7, #4]
 472 018a 9B7E     		ldrb	r3, [r3, #26]	@ zero_extendqisi2
 473 018c 002B     		cmp	r3, #0
 474 018e 17D1     		bne	.L12
 151:C:/Users/49542/Desktop/GD32F30x_Demo_Suites_V2.0.0/GD32F30x_Demo_Suites_V2.0.0/GD32F30x_Firmware_Library/GD32F30x_standard_peripheral/Source\gd32f30x_dma.c ****         DMA_CHCTL(dma_periph, channelx) &= ~DMA_CHXCTL_DIR;
 475              		.loc 1 151 0
 476 0190 FA7A     		ldrb	r2, [r7, #11]	@ zero_extendqisi2
 477 0192 1346     		mov	r3, r2
 478 0194 9B00     		lsls	r3, r3, #2
 479 0196 1344     		add	r3, r3, r2
 480 0198 9B00     		lsls	r3, r3, #2
 481 019a 1A46     		mov	r2, r3
ARM GAS  C:\Users\49542\AppData\Local\Temp\ccb6xhB5.s 			page 12


 482 019c FB68     		ldr	r3, [r7, #12]
 483 019e 1344     		add	r3, r3, r2
 484 01a0 0833     		adds	r3, r3, #8
 485 01a2 1968     		ldr	r1, [r3]
 486 01a4 FA7A     		ldrb	r2, [r7, #11]	@ zero_extendqisi2
 487 01a6 1346     		mov	r3, r2
 488 01a8 9B00     		lsls	r3, r3, #2
 489 01aa 1344     		add	r3, r3, r2
 490 01ac 9B00     		lsls	r3, r3, #2
 491 01ae 1A46     		mov	r2, r3
 492 01b0 FB68     		ldr	r3, [r7, #12]
 493 01b2 1344     		add	r3, r3, r2
 494 01b4 0833     		adds	r3, r3, #8
 495 01b6 1A46     		mov	r2, r3
 496 01b8 21F01003 		bic	r3, r1, #16
 497 01bc 1360     		str	r3, [r2]
 152:C:/Users/49542/Desktop/GD32F30x_Demo_Suites_V2.0.0/GD32F30x_Demo_Suites_V2.0.0/GD32F30x_Firmware_Library/GD32F30x_standard_peripheral/Source\gd32f30x_dma.c ****     }else{
 153:C:/Users/49542/Desktop/GD32F30x_Demo_Suites_V2.0.0/GD32F30x_Demo_Suites_V2.0.0/GD32F30x_Firmware_Library/GD32F30x_standard_peripheral/Source\gd32f30x_dma.c ****         DMA_CHCTL(dma_periph, channelx) |= DMA_CHXCTL_DIR;
 154:C:/Users/49542/Desktop/GD32F30x_Demo_Suites_V2.0.0/GD32F30x_Demo_Suites_V2.0.0/GD32F30x_Firmware_Library/GD32F30x_standard_peripheral/Source\gd32f30x_dma.c ****     } 
 155:C:/Users/49542/Desktop/GD32F30x_Demo_Suites_V2.0.0/GD32F30x_Demo_Suites_V2.0.0/GD32F30x_Firmware_Library/GD32F30x_standard_peripheral/Source\gd32f30x_dma.c **** }
 498              		.loc 1 155 0
 499 01be 16E0     		b	.L14
 500              	.L12:
 153:C:/Users/49542/Desktop/GD32F30x_Demo_Suites_V2.0.0/GD32F30x_Demo_Suites_V2.0.0/GD32F30x_Firmware_Library/GD32F30x_standard_peripheral/Source\gd32f30x_dma.c ****     } 
 501              		.loc 1 153 0
 502 01c0 FA7A     		ldrb	r2, [r7, #11]	@ zero_extendqisi2
 503 01c2 1346     		mov	r3, r2
 504 01c4 9B00     		lsls	r3, r3, #2
 505 01c6 1344     		add	r3, r3, r2
 506 01c8 9B00     		lsls	r3, r3, #2
 507 01ca 1A46     		mov	r2, r3
 508 01cc FB68     		ldr	r3, [r7, #12]
 509 01ce 1344     		add	r3, r3, r2
 510 01d0 0833     		adds	r3, r3, #8
 511 01d2 1968     		ldr	r1, [r3]
 512 01d4 FA7A     		ldrb	r2, [r7, #11]	@ zero_extendqisi2
 513 01d6 1346     		mov	r3, r2
 514 01d8 9B00     		lsls	r3, r3, #2
 515 01da 1344     		add	r3, r3, r2
 516 01dc 9B00     		lsls	r3, r3, #2
 517 01de 1A46     		mov	r2, r3
 518 01e0 FB68     		ldr	r3, [r7, #12]
 519 01e2 1344     		add	r3, r3, r2
 520 01e4 0833     		adds	r3, r3, #8
 521 01e6 1A46     		mov	r2, r3
 522 01e8 41F01003 		orr	r3, r1, #16
 523 01ec 1360     		str	r3, [r2]
 524              	.L14:
 525              		.loc 1 155 0
 526 01ee 00BF     		nop
 527 01f0 1837     		adds	r7, r7, #24
 528              	.LCFI14:
 529              		.cfi_def_cfa_offset 8
 530 01f2 BD46     		mov	sp, r7
 531              	.LCFI15:
 532              		.cfi_def_cfa_register 13
 533              		@ sp needed
ARM GAS  C:\Users\49542\AppData\Local\Temp\ccb6xhB5.s 			page 13


 534 01f4 80BD     		pop	{r7, pc}
 535              		.cfi_endproc
 536              	.LFE118:
 538              		.section	.text.dma_circulation_enable,"ax",%progbits
 539              		.align	1
 540              		.global	dma_circulation_enable
 541              		.syntax unified
 542              		.thumb
 543              		.thumb_func
 544              		.fpu fpv4-sp-d16
 546              	dma_circulation_enable:
 547              	.LFB119:
 156:C:/Users/49542/Desktop/GD32F30x_Demo_Suites_V2.0.0/GD32F30x_Demo_Suites_V2.0.0/GD32F30x_Firmware_Library/GD32F30x_standard_peripheral/Source\gd32f30x_dma.c **** 
 157:C:/Users/49542/Desktop/GD32F30x_Demo_Suites_V2.0.0/GD32F30x_Demo_Suites_V2.0.0/GD32F30x_Firmware_Library/GD32F30x_standard_peripheral/Source\gd32f30x_dma.c **** /*!
 158:C:/Users/49542/Desktop/GD32F30x_Demo_Suites_V2.0.0/GD32F30x_Demo_Suites_V2.0.0/GD32F30x_Firmware_Library/GD32F30x_standard_peripheral/Source\gd32f30x_dma.c ****     \brief      enable DMA circulation mode  
 159:C:/Users/49542/Desktop/GD32F30x_Demo_Suites_V2.0.0/GD32F30x_Demo_Suites_V2.0.0/GD32F30x_Firmware_Library/GD32F30x_standard_peripheral/Source\gd32f30x_dma.c ****     \param[in]  dma_periph: DMAx(x=0,1)
 160:C:/Users/49542/Desktop/GD32F30x_Demo_Suites_V2.0.0/GD32F30x_Demo_Suites_V2.0.0/GD32F30x_Firmware_Library/GD32F30x_standard_peripheral/Source\gd32f30x_dma.c ****       \arg        DMAx(x=0,1)
 161:C:/Users/49542/Desktop/GD32F30x_Demo_Suites_V2.0.0/GD32F30x_Demo_Suites_V2.0.0/GD32F30x_Firmware_Library/GD32F30x_standard_peripheral/Source\gd32f30x_dma.c ****     \param[in]  channelx: specify which DMA channel 
 162:C:/Users/49542/Desktop/GD32F30x_Demo_Suites_V2.0.0/GD32F30x_Demo_Suites_V2.0.0/GD32F30x_Firmware_Library/GD32F30x_standard_peripheral/Source\gd32f30x_dma.c ****                 only one parameter can be selected which is shown as below:
 163:C:/Users/49542/Desktop/GD32F30x_Demo_Suites_V2.0.0/GD32F30x_Demo_Suites_V2.0.0/GD32F30x_Firmware_Library/GD32F30x_standard_peripheral/Source\gd32f30x_dma.c ****       \arg        DMA0: DMA_CHx(x=0..6), DMA1: DMA_CHx(x=0..4)
 164:C:/Users/49542/Desktop/GD32F30x_Demo_Suites_V2.0.0/GD32F30x_Demo_Suites_V2.0.0/GD32F30x_Firmware_Library/GD32F30x_standard_peripheral/Source\gd32f30x_dma.c ****     \param[out] none
 165:C:/Users/49542/Desktop/GD32F30x_Demo_Suites_V2.0.0/GD32F30x_Demo_Suites_V2.0.0/GD32F30x_Firmware_Library/GD32F30x_standard_peripheral/Source\gd32f30x_dma.c ****     \retval     none 
 166:C:/Users/49542/Desktop/GD32F30x_Demo_Suites_V2.0.0/GD32F30x_Demo_Suites_V2.0.0/GD32F30x_Firmware_Library/GD32F30x_standard_peripheral/Source\gd32f30x_dma.c **** */
 167:C:/Users/49542/Desktop/GD32F30x_Demo_Suites_V2.0.0/GD32F30x_Demo_Suites_V2.0.0/GD32F30x_Firmware_Library/GD32F30x_standard_peripheral/Source\gd32f30x_dma.c **** void dma_circulation_enable(uint32_t dma_periph, dma_channel_enum channelx)
 168:C:/Users/49542/Desktop/GD32F30x_Demo_Suites_V2.0.0/GD32F30x_Demo_Suites_V2.0.0/GD32F30x_Firmware_Library/GD32F30x_standard_peripheral/Source\gd32f30x_dma.c **** {
 548              		.loc 1 168 0
 549              		.cfi_startproc
 550              		@ args = 0, pretend = 0, frame = 8
 551              		@ frame_needed = 1, uses_anonymous_args = 0
 552 0000 80B5     		push	{r7, lr}
 553              	.LCFI16:
 554              		.cfi_def_cfa_offset 8
 555              		.cfi_offset 7, -8
 556              		.cfi_offset 14, -4
 557 0002 82B0     		sub	sp, sp, #8
 558              	.LCFI17:
 559              		.cfi_def_cfa_offset 16
 560 0004 00AF     		add	r7, sp, #0
 561              	.LCFI18:
 562              		.cfi_def_cfa_register 7
 563 0006 7860     		str	r0, [r7, #4]
 564 0008 0B46     		mov	r3, r1
 565 000a FB70     		strb	r3, [r7, #3]
 169:C:/Users/49542/Desktop/GD32F30x_Demo_Suites_V2.0.0/GD32F30x_Demo_Suites_V2.0.0/GD32F30x_Firmware_Library/GD32F30x_standard_peripheral/Source\gd32f30x_dma.c ****     if(ERROR == dma_periph_and_channel_check(dma_periph, channelx)){
 566              		.loc 1 169 0
 567 000c FB78     		ldrb	r3, [r7, #3]	@ zero_extendqisi2
 568 000e 1946     		mov	r1, r3
 569 0010 7868     		ldr	r0, [r7, #4]
 570 0012 FFF7FEFF 		bl	dma_periph_and_channel_check
 571 0016 0346     		mov	r3, r0
 572 0018 002B     		cmp	r3, #0
 573 001a 00D1     		bne	.L16
 574              	.L17:
 170:C:/Users/49542/Desktop/GD32F30x_Demo_Suites_V2.0.0/GD32F30x_Demo_Suites_V2.0.0/GD32F30x_Firmware_Library/GD32F30x_standard_peripheral/Source\gd32f30x_dma.c ****         DMA_WRONG_HANDLE
 575              		.loc 1 170 0 discriminator 1
 576 001c FEE7     		b	.L17
 577              	.L16:
ARM GAS  C:\Users\49542\AppData\Local\Temp\ccb6xhB5.s 			page 14


 171:C:/Users/49542/Desktop/GD32F30x_Demo_Suites_V2.0.0/GD32F30x_Demo_Suites_V2.0.0/GD32F30x_Firmware_Library/GD32F30x_standard_peripheral/Source\gd32f30x_dma.c ****     }
 172:C:/Users/49542/Desktop/GD32F30x_Demo_Suites_V2.0.0/GD32F30x_Demo_Suites_V2.0.0/GD32F30x_Firmware_Library/GD32F30x_standard_peripheral/Source\gd32f30x_dma.c **** 
 173:C:/Users/49542/Desktop/GD32F30x_Demo_Suites_V2.0.0/GD32F30x_Demo_Suites_V2.0.0/GD32F30x_Firmware_Library/GD32F30x_standard_peripheral/Source\gd32f30x_dma.c ****     DMA_CHCTL(dma_periph, channelx) |= DMA_CHXCTL_CMEN;
 578              		.loc 1 173 0
 579 001e FA78     		ldrb	r2, [r7, #3]	@ zero_extendqisi2
 580 0020 1346     		mov	r3, r2
 581 0022 9B00     		lsls	r3, r3, #2
 582 0024 1344     		add	r3, r3, r2
 583 0026 9B00     		lsls	r3, r3, #2
 584 0028 1A46     		mov	r2, r3
 585 002a 7B68     		ldr	r3, [r7, #4]
 586 002c 1344     		add	r3, r3, r2
 587 002e 0833     		adds	r3, r3, #8
 588 0030 1968     		ldr	r1, [r3]
 589 0032 FA78     		ldrb	r2, [r7, #3]	@ zero_extendqisi2
 590 0034 1346     		mov	r3, r2
 591 0036 9B00     		lsls	r3, r3, #2
 592 0038 1344     		add	r3, r3, r2
 593 003a 9B00     		lsls	r3, r3, #2
 594 003c 1A46     		mov	r2, r3
 595 003e 7B68     		ldr	r3, [r7, #4]
 596 0040 1344     		add	r3, r3, r2
 597 0042 0833     		adds	r3, r3, #8
 598 0044 1A46     		mov	r2, r3
 599 0046 41F02003 		orr	r3, r1, #32
 600 004a 1360     		str	r3, [r2]
 174:C:/Users/49542/Desktop/GD32F30x_Demo_Suites_V2.0.0/GD32F30x_Demo_Suites_V2.0.0/GD32F30x_Firmware_Library/GD32F30x_standard_peripheral/Source\gd32f30x_dma.c **** }
 601              		.loc 1 174 0
 602 004c 00BF     		nop
 603 004e 0837     		adds	r7, r7, #8
 604              	.LCFI19:
 605              		.cfi_def_cfa_offset 8
 606 0050 BD46     		mov	sp, r7
 607              	.LCFI20:
 608              		.cfi_def_cfa_register 13
 609              		@ sp needed
 610 0052 80BD     		pop	{r7, pc}
 611              		.cfi_endproc
 612              	.LFE119:
 614              		.section	.text.dma_circulation_disable,"ax",%progbits
 615              		.align	1
 616              		.global	dma_circulation_disable
 617              		.syntax unified
 618              		.thumb
 619              		.thumb_func
 620              		.fpu fpv4-sp-d16
 622              	dma_circulation_disable:
 623              	.LFB120:
 175:C:/Users/49542/Desktop/GD32F30x_Demo_Suites_V2.0.0/GD32F30x_Demo_Suites_V2.0.0/GD32F30x_Firmware_Library/GD32F30x_standard_peripheral/Source\gd32f30x_dma.c **** 
 176:C:/Users/49542/Desktop/GD32F30x_Demo_Suites_V2.0.0/GD32F30x_Demo_Suites_V2.0.0/GD32F30x_Firmware_Library/GD32F30x_standard_peripheral/Source\gd32f30x_dma.c **** /*!
 177:C:/Users/49542/Desktop/GD32F30x_Demo_Suites_V2.0.0/GD32F30x_Demo_Suites_V2.0.0/GD32F30x_Firmware_Library/GD32F30x_standard_peripheral/Source\gd32f30x_dma.c ****     \brief      disable DMA circulation mode  
 178:C:/Users/49542/Desktop/GD32F30x_Demo_Suites_V2.0.0/GD32F30x_Demo_Suites_V2.0.0/GD32F30x_Firmware_Library/GD32F30x_standard_peripheral/Source\gd32f30x_dma.c ****     \param[in]  dma_periph: DMAx(x=0,1)
 179:C:/Users/49542/Desktop/GD32F30x_Demo_Suites_V2.0.0/GD32F30x_Demo_Suites_V2.0.0/GD32F30x_Firmware_Library/GD32F30x_standard_peripheral/Source\gd32f30x_dma.c ****       \arg        DMAx(x=0,1)
 180:C:/Users/49542/Desktop/GD32F30x_Demo_Suites_V2.0.0/GD32F30x_Demo_Suites_V2.0.0/GD32F30x_Firmware_Library/GD32F30x_standard_peripheral/Source\gd32f30x_dma.c ****     \param[in]  channelx: specify which DMA channel 
 181:C:/Users/49542/Desktop/GD32F30x_Demo_Suites_V2.0.0/GD32F30x_Demo_Suites_V2.0.0/GD32F30x_Firmware_Library/GD32F30x_standard_peripheral/Source\gd32f30x_dma.c ****                 only one parameter can be selected which is shown as below:
 182:C:/Users/49542/Desktop/GD32F30x_Demo_Suites_V2.0.0/GD32F30x_Demo_Suites_V2.0.0/GD32F30x_Firmware_Library/GD32F30x_standard_peripheral/Source\gd32f30x_dma.c ****       \arg        DMA0: DMA_CHx(x=0..6), DMA1: DMA_CHx(x=0..4)
 183:C:/Users/49542/Desktop/GD32F30x_Demo_Suites_V2.0.0/GD32F30x_Demo_Suites_V2.0.0/GD32F30x_Firmware_Library/GD32F30x_standard_peripheral/Source\gd32f30x_dma.c ****     \param[out] none
ARM GAS  C:\Users\49542\AppData\Local\Temp\ccb6xhB5.s 			page 15


 184:C:/Users/49542/Desktop/GD32F30x_Demo_Suites_V2.0.0/GD32F30x_Demo_Suites_V2.0.0/GD32F30x_Firmware_Library/GD32F30x_standard_peripheral/Source\gd32f30x_dma.c ****     \retval     none 
 185:C:/Users/49542/Desktop/GD32F30x_Demo_Suites_V2.0.0/GD32F30x_Demo_Suites_V2.0.0/GD32F30x_Firmware_Library/GD32F30x_standard_peripheral/Source\gd32f30x_dma.c **** */
 186:C:/Users/49542/Desktop/GD32F30x_Demo_Suites_V2.0.0/GD32F30x_Demo_Suites_V2.0.0/GD32F30x_Firmware_Library/GD32F30x_standard_peripheral/Source\gd32f30x_dma.c **** void dma_circulation_disable(uint32_t dma_periph, dma_channel_enum channelx)
 187:C:/Users/49542/Desktop/GD32F30x_Demo_Suites_V2.0.0/GD32F30x_Demo_Suites_V2.0.0/GD32F30x_Firmware_Library/GD32F30x_standard_peripheral/Source\gd32f30x_dma.c **** {
 624              		.loc 1 187 0
 625              		.cfi_startproc
 626              		@ args = 0, pretend = 0, frame = 8
 627              		@ frame_needed = 1, uses_anonymous_args = 0
 628 0000 80B5     		push	{r7, lr}
 629              	.LCFI21:
 630              		.cfi_def_cfa_offset 8
 631              		.cfi_offset 7, -8
 632              		.cfi_offset 14, -4
 633 0002 82B0     		sub	sp, sp, #8
 634              	.LCFI22:
 635              		.cfi_def_cfa_offset 16
 636 0004 00AF     		add	r7, sp, #0
 637              	.LCFI23:
 638              		.cfi_def_cfa_register 7
 639 0006 7860     		str	r0, [r7, #4]
 640 0008 0B46     		mov	r3, r1
 641 000a FB70     		strb	r3, [r7, #3]
 188:C:/Users/49542/Desktop/GD32F30x_Demo_Suites_V2.0.0/GD32F30x_Demo_Suites_V2.0.0/GD32F30x_Firmware_Library/GD32F30x_standard_peripheral/Source\gd32f30x_dma.c ****     if(ERROR == dma_periph_and_channel_check(dma_periph, channelx)){
 642              		.loc 1 188 0
 643 000c FB78     		ldrb	r3, [r7, #3]	@ zero_extendqisi2
 644 000e 1946     		mov	r1, r3
 645 0010 7868     		ldr	r0, [r7, #4]
 646 0012 FFF7FEFF 		bl	dma_periph_and_channel_check
 647 0016 0346     		mov	r3, r0
 648 0018 002B     		cmp	r3, #0
 649 001a 00D1     		bne	.L19
 650              	.L20:
 189:C:/Users/49542/Desktop/GD32F30x_Demo_Suites_V2.0.0/GD32F30x_Demo_Suites_V2.0.0/GD32F30x_Firmware_Library/GD32F30x_standard_peripheral/Source\gd32f30x_dma.c ****         DMA_WRONG_HANDLE
 651              		.loc 1 189 0 discriminator 1
 652 001c FEE7     		b	.L20
 653              	.L19:
 190:C:/Users/49542/Desktop/GD32F30x_Demo_Suites_V2.0.0/GD32F30x_Demo_Suites_V2.0.0/GD32F30x_Firmware_Library/GD32F30x_standard_peripheral/Source\gd32f30x_dma.c ****     }
 191:C:/Users/49542/Desktop/GD32F30x_Demo_Suites_V2.0.0/GD32F30x_Demo_Suites_V2.0.0/GD32F30x_Firmware_Library/GD32F30x_standard_peripheral/Source\gd32f30x_dma.c ****     
 192:C:/Users/49542/Desktop/GD32F30x_Demo_Suites_V2.0.0/GD32F30x_Demo_Suites_V2.0.0/GD32F30x_Firmware_Library/GD32F30x_standard_peripheral/Source\gd32f30x_dma.c ****     DMA_CHCTL(dma_periph, channelx) &= ~DMA_CHXCTL_CMEN;
 654              		.loc 1 192 0
 655 001e FA78     		ldrb	r2, [r7, #3]	@ zero_extendqisi2
 656 0020 1346     		mov	r3, r2
 657 0022 9B00     		lsls	r3, r3, #2
 658 0024 1344     		add	r3, r3, r2
 659 0026 9B00     		lsls	r3, r3, #2
 660 0028 1A46     		mov	r2, r3
 661 002a 7B68     		ldr	r3, [r7, #4]
 662 002c 1344     		add	r3, r3, r2
 663 002e 0833     		adds	r3, r3, #8
 664 0030 1968     		ldr	r1, [r3]
 665 0032 FA78     		ldrb	r2, [r7, #3]	@ zero_extendqisi2
 666 0034 1346     		mov	r3, r2
 667 0036 9B00     		lsls	r3, r3, #2
 668 0038 1344     		add	r3, r3, r2
 669 003a 9B00     		lsls	r3, r3, #2
 670 003c 1A46     		mov	r2, r3
 671 003e 7B68     		ldr	r3, [r7, #4]
ARM GAS  C:\Users\49542\AppData\Local\Temp\ccb6xhB5.s 			page 16


 672 0040 1344     		add	r3, r3, r2
 673 0042 0833     		adds	r3, r3, #8
 674 0044 1A46     		mov	r2, r3
 675 0046 21F02003 		bic	r3, r1, #32
 676 004a 1360     		str	r3, [r2]
 193:C:/Users/49542/Desktop/GD32F30x_Demo_Suites_V2.0.0/GD32F30x_Demo_Suites_V2.0.0/GD32F30x_Firmware_Library/GD32F30x_standard_peripheral/Source\gd32f30x_dma.c **** }
 677              		.loc 1 193 0
 678 004c 00BF     		nop
 679 004e 0837     		adds	r7, r7, #8
 680              	.LCFI24:
 681              		.cfi_def_cfa_offset 8
 682 0050 BD46     		mov	sp, r7
 683              	.LCFI25:
 684              		.cfi_def_cfa_register 13
 685              		@ sp needed
 686 0052 80BD     		pop	{r7, pc}
 687              		.cfi_endproc
 688              	.LFE120:
 690              		.section	.text.dma_memory_to_memory_enable,"ax",%progbits
 691              		.align	1
 692              		.global	dma_memory_to_memory_enable
 693              		.syntax unified
 694              		.thumb
 695              		.thumb_func
 696              		.fpu fpv4-sp-d16
 698              	dma_memory_to_memory_enable:
 699              	.LFB121:
 194:C:/Users/49542/Desktop/GD32F30x_Demo_Suites_V2.0.0/GD32F30x_Demo_Suites_V2.0.0/GD32F30x_Firmware_Library/GD32F30x_standard_peripheral/Source\gd32f30x_dma.c **** 
 195:C:/Users/49542/Desktop/GD32F30x_Demo_Suites_V2.0.0/GD32F30x_Demo_Suites_V2.0.0/GD32F30x_Firmware_Library/GD32F30x_standard_peripheral/Source\gd32f30x_dma.c **** /*!
 196:C:/Users/49542/Desktop/GD32F30x_Demo_Suites_V2.0.0/GD32F30x_Demo_Suites_V2.0.0/GD32F30x_Firmware_Library/GD32F30x_standard_peripheral/Source\gd32f30x_dma.c ****     \brief      enable memory to memory mode
 197:C:/Users/49542/Desktop/GD32F30x_Demo_Suites_V2.0.0/GD32F30x_Demo_Suites_V2.0.0/GD32F30x_Firmware_Library/GD32F30x_standard_peripheral/Source\gd32f30x_dma.c ****     \param[in]  dma_periph: DMAx(x=0,1)
 198:C:/Users/49542/Desktop/GD32F30x_Demo_Suites_V2.0.0/GD32F30x_Demo_Suites_V2.0.0/GD32F30x_Firmware_Library/GD32F30x_standard_peripheral/Source\gd32f30x_dma.c ****       \arg        DMAx(x=0,1)
 199:C:/Users/49542/Desktop/GD32F30x_Demo_Suites_V2.0.0/GD32F30x_Demo_Suites_V2.0.0/GD32F30x_Firmware_Library/GD32F30x_standard_peripheral/Source\gd32f30x_dma.c ****     \param[in]  channelx: specify which DMA channel 
 200:C:/Users/49542/Desktop/GD32F30x_Demo_Suites_V2.0.0/GD32F30x_Demo_Suites_V2.0.0/GD32F30x_Firmware_Library/GD32F30x_standard_peripheral/Source\gd32f30x_dma.c ****                 only one parameter can be selected which is shown as below:
 201:C:/Users/49542/Desktop/GD32F30x_Demo_Suites_V2.0.0/GD32F30x_Demo_Suites_V2.0.0/GD32F30x_Firmware_Library/GD32F30x_standard_peripheral/Source\gd32f30x_dma.c ****       \arg        DMA0: DMA_CHx(x=0..6), DMA1: DMA_CHx(x=0..4)
 202:C:/Users/49542/Desktop/GD32F30x_Demo_Suites_V2.0.0/GD32F30x_Demo_Suites_V2.0.0/GD32F30x_Firmware_Library/GD32F30x_standard_peripheral/Source\gd32f30x_dma.c ****     \param[out] none
 203:C:/Users/49542/Desktop/GD32F30x_Demo_Suites_V2.0.0/GD32F30x_Demo_Suites_V2.0.0/GD32F30x_Firmware_Library/GD32F30x_standard_peripheral/Source\gd32f30x_dma.c ****     \retval     none
 204:C:/Users/49542/Desktop/GD32F30x_Demo_Suites_V2.0.0/GD32F30x_Demo_Suites_V2.0.0/GD32F30x_Firmware_Library/GD32F30x_standard_peripheral/Source\gd32f30x_dma.c **** */
 205:C:/Users/49542/Desktop/GD32F30x_Demo_Suites_V2.0.0/GD32F30x_Demo_Suites_V2.0.0/GD32F30x_Firmware_Library/GD32F30x_standard_peripheral/Source\gd32f30x_dma.c **** void dma_memory_to_memory_enable(uint32_t dma_periph, dma_channel_enum channelx)
 206:C:/Users/49542/Desktop/GD32F30x_Demo_Suites_V2.0.0/GD32F30x_Demo_Suites_V2.0.0/GD32F30x_Firmware_Library/GD32F30x_standard_peripheral/Source\gd32f30x_dma.c **** {
 700              		.loc 1 206 0
 701              		.cfi_startproc
 702              		@ args = 0, pretend = 0, frame = 8
 703              		@ frame_needed = 1, uses_anonymous_args = 0
 704 0000 80B5     		push	{r7, lr}
 705              	.LCFI26:
 706              		.cfi_def_cfa_offset 8
 707              		.cfi_offset 7, -8
 708              		.cfi_offset 14, -4
 709 0002 82B0     		sub	sp, sp, #8
 710              	.LCFI27:
 711              		.cfi_def_cfa_offset 16
 712 0004 00AF     		add	r7, sp, #0
 713              	.LCFI28:
 714              		.cfi_def_cfa_register 7
 715 0006 7860     		str	r0, [r7, #4]
 716 0008 0B46     		mov	r3, r1
ARM GAS  C:\Users\49542\AppData\Local\Temp\ccb6xhB5.s 			page 17


 717 000a FB70     		strb	r3, [r7, #3]
 207:C:/Users/49542/Desktop/GD32F30x_Demo_Suites_V2.0.0/GD32F30x_Demo_Suites_V2.0.0/GD32F30x_Firmware_Library/GD32F30x_standard_peripheral/Source\gd32f30x_dma.c ****     if(ERROR == dma_periph_and_channel_check(dma_periph, channelx)){
 718              		.loc 1 207 0
 719 000c FB78     		ldrb	r3, [r7, #3]	@ zero_extendqisi2
 720 000e 1946     		mov	r1, r3
 721 0010 7868     		ldr	r0, [r7, #4]
 722 0012 FFF7FEFF 		bl	dma_periph_and_channel_check
 723 0016 0346     		mov	r3, r0
 724 0018 002B     		cmp	r3, #0
 725 001a 00D1     		bne	.L22
 726              	.L23:
 208:C:/Users/49542/Desktop/GD32F30x_Demo_Suites_V2.0.0/GD32F30x_Demo_Suites_V2.0.0/GD32F30x_Firmware_Library/GD32F30x_standard_peripheral/Source\gd32f30x_dma.c ****         DMA_WRONG_HANDLE
 727              		.loc 1 208 0 discriminator 1
 728 001c FEE7     		b	.L23
 729              	.L22:
 209:C:/Users/49542/Desktop/GD32F30x_Demo_Suites_V2.0.0/GD32F30x_Demo_Suites_V2.0.0/GD32F30x_Firmware_Library/GD32F30x_standard_peripheral/Source\gd32f30x_dma.c ****     }
 210:C:/Users/49542/Desktop/GD32F30x_Demo_Suites_V2.0.0/GD32F30x_Demo_Suites_V2.0.0/GD32F30x_Firmware_Library/GD32F30x_standard_peripheral/Source\gd32f30x_dma.c ****     
 211:C:/Users/49542/Desktop/GD32F30x_Demo_Suites_V2.0.0/GD32F30x_Demo_Suites_V2.0.0/GD32F30x_Firmware_Library/GD32F30x_standard_peripheral/Source\gd32f30x_dma.c ****     DMA_CHCTL(dma_periph, channelx) |= DMA_CHXCTL_M2M;
 730              		.loc 1 211 0
 731 001e FA78     		ldrb	r2, [r7, #3]	@ zero_extendqisi2
 732 0020 1346     		mov	r3, r2
 733 0022 9B00     		lsls	r3, r3, #2
 734 0024 1344     		add	r3, r3, r2
 735 0026 9B00     		lsls	r3, r3, #2
 736 0028 1A46     		mov	r2, r3
 737 002a 7B68     		ldr	r3, [r7, #4]
 738 002c 1344     		add	r3, r3, r2
 739 002e 0833     		adds	r3, r3, #8
 740 0030 1968     		ldr	r1, [r3]
 741 0032 FA78     		ldrb	r2, [r7, #3]	@ zero_extendqisi2
 742 0034 1346     		mov	r3, r2
 743 0036 9B00     		lsls	r3, r3, #2
 744 0038 1344     		add	r3, r3, r2
 745 003a 9B00     		lsls	r3, r3, #2
 746 003c 1A46     		mov	r2, r3
 747 003e 7B68     		ldr	r3, [r7, #4]
 748 0040 1344     		add	r3, r3, r2
 749 0042 0833     		adds	r3, r3, #8
 750 0044 1A46     		mov	r2, r3
 751 0046 41F48043 		orr	r3, r1, #16384
 752 004a 1360     		str	r3, [r2]
 212:C:/Users/49542/Desktop/GD32F30x_Demo_Suites_V2.0.0/GD32F30x_Demo_Suites_V2.0.0/GD32F30x_Firmware_Library/GD32F30x_standard_peripheral/Source\gd32f30x_dma.c **** }
 753              		.loc 1 212 0
 754 004c 00BF     		nop
 755 004e 0837     		adds	r7, r7, #8
 756              	.LCFI29:
 757              		.cfi_def_cfa_offset 8
 758 0050 BD46     		mov	sp, r7
 759              	.LCFI30:
 760              		.cfi_def_cfa_register 13
 761              		@ sp needed
 762 0052 80BD     		pop	{r7, pc}
 763              		.cfi_endproc
 764              	.LFE121:
 766              		.section	.text.dma_memory_to_memory_disable,"ax",%progbits
 767              		.align	1
 768              		.global	dma_memory_to_memory_disable
ARM GAS  C:\Users\49542\AppData\Local\Temp\ccb6xhB5.s 			page 18


 769              		.syntax unified
 770              		.thumb
 771              		.thumb_func
 772              		.fpu fpv4-sp-d16
 774              	dma_memory_to_memory_disable:
 775              	.LFB122:
 213:C:/Users/49542/Desktop/GD32F30x_Demo_Suites_V2.0.0/GD32F30x_Demo_Suites_V2.0.0/GD32F30x_Firmware_Library/GD32F30x_standard_peripheral/Source\gd32f30x_dma.c **** 
 214:C:/Users/49542/Desktop/GD32F30x_Demo_Suites_V2.0.0/GD32F30x_Demo_Suites_V2.0.0/GD32F30x_Firmware_Library/GD32F30x_standard_peripheral/Source\gd32f30x_dma.c **** /*!
 215:C:/Users/49542/Desktop/GD32F30x_Demo_Suites_V2.0.0/GD32F30x_Demo_Suites_V2.0.0/GD32F30x_Firmware_Library/GD32F30x_standard_peripheral/Source\gd32f30x_dma.c ****     \brief      disable memory to memory mode
 216:C:/Users/49542/Desktop/GD32F30x_Demo_Suites_V2.0.0/GD32F30x_Demo_Suites_V2.0.0/GD32F30x_Firmware_Library/GD32F30x_standard_peripheral/Source\gd32f30x_dma.c ****     \param[in]  dma_periph: DMAx(x=0,1)
 217:C:/Users/49542/Desktop/GD32F30x_Demo_Suites_V2.0.0/GD32F30x_Demo_Suites_V2.0.0/GD32F30x_Firmware_Library/GD32F30x_standard_peripheral/Source\gd32f30x_dma.c ****       \arg        DMAx(x=0,1)
 218:C:/Users/49542/Desktop/GD32F30x_Demo_Suites_V2.0.0/GD32F30x_Demo_Suites_V2.0.0/GD32F30x_Firmware_Library/GD32F30x_standard_peripheral/Source\gd32f30x_dma.c ****     \param[in]  channelx: specify which DMA channel 
 219:C:/Users/49542/Desktop/GD32F30x_Demo_Suites_V2.0.0/GD32F30x_Demo_Suites_V2.0.0/GD32F30x_Firmware_Library/GD32F30x_standard_peripheral/Source\gd32f30x_dma.c ****                 only one parameter can be selected which is shown as below:
 220:C:/Users/49542/Desktop/GD32F30x_Demo_Suites_V2.0.0/GD32F30x_Demo_Suites_V2.0.0/GD32F30x_Firmware_Library/GD32F30x_standard_peripheral/Source\gd32f30x_dma.c ****       \arg        DMA0: DMA_CHx(x=0..6), DMA1: DMA_CHx(x=0..4)
 221:C:/Users/49542/Desktop/GD32F30x_Demo_Suites_V2.0.0/GD32F30x_Demo_Suites_V2.0.0/GD32F30x_Firmware_Library/GD32F30x_standard_peripheral/Source\gd32f30x_dma.c ****     \param[out] none
 222:C:/Users/49542/Desktop/GD32F30x_Demo_Suites_V2.0.0/GD32F30x_Demo_Suites_V2.0.0/GD32F30x_Firmware_Library/GD32F30x_standard_peripheral/Source\gd32f30x_dma.c ****     \retval     none
 223:C:/Users/49542/Desktop/GD32F30x_Demo_Suites_V2.0.0/GD32F30x_Demo_Suites_V2.0.0/GD32F30x_Firmware_Library/GD32F30x_standard_peripheral/Source\gd32f30x_dma.c **** */
 224:C:/Users/49542/Desktop/GD32F30x_Demo_Suites_V2.0.0/GD32F30x_Demo_Suites_V2.0.0/GD32F30x_Firmware_Library/GD32F30x_standard_peripheral/Source\gd32f30x_dma.c **** void dma_memory_to_memory_disable(uint32_t dma_periph, dma_channel_enum channelx)
 225:C:/Users/49542/Desktop/GD32F30x_Demo_Suites_V2.0.0/GD32F30x_Demo_Suites_V2.0.0/GD32F30x_Firmware_Library/GD32F30x_standard_peripheral/Source\gd32f30x_dma.c **** {
 776              		.loc 1 225 0
 777              		.cfi_startproc
 778              		@ args = 0, pretend = 0, frame = 8
 779              		@ frame_needed = 1, uses_anonymous_args = 0
 780 0000 80B5     		push	{r7, lr}
 781              	.LCFI31:
 782              		.cfi_def_cfa_offset 8
 783              		.cfi_offset 7, -8
 784              		.cfi_offset 14, -4
 785 0002 82B0     		sub	sp, sp, #8
 786              	.LCFI32:
 787              		.cfi_def_cfa_offset 16
 788 0004 00AF     		add	r7, sp, #0
 789              	.LCFI33:
 790              		.cfi_def_cfa_register 7
 791 0006 7860     		str	r0, [r7, #4]
 792 0008 0B46     		mov	r3, r1
 793 000a FB70     		strb	r3, [r7, #3]
 226:C:/Users/49542/Desktop/GD32F30x_Demo_Suites_V2.0.0/GD32F30x_Demo_Suites_V2.0.0/GD32F30x_Firmware_Library/GD32F30x_standard_peripheral/Source\gd32f30x_dma.c ****     if(ERROR == dma_periph_and_channel_check(dma_periph, channelx)){
 794              		.loc 1 226 0
 795 000c FB78     		ldrb	r3, [r7, #3]	@ zero_extendqisi2
 796 000e 1946     		mov	r1, r3
 797 0010 7868     		ldr	r0, [r7, #4]
 798 0012 FFF7FEFF 		bl	dma_periph_and_channel_check
 799 0016 0346     		mov	r3, r0
 800 0018 002B     		cmp	r3, #0
 801 001a 00D1     		bne	.L25
 802              	.L26:
 227:C:/Users/49542/Desktop/GD32F30x_Demo_Suites_V2.0.0/GD32F30x_Demo_Suites_V2.0.0/GD32F30x_Firmware_Library/GD32F30x_standard_peripheral/Source\gd32f30x_dma.c ****         DMA_WRONG_HANDLE
 803              		.loc 1 227 0 discriminator 1
 804 001c FEE7     		b	.L26
 805              	.L25:
 228:C:/Users/49542/Desktop/GD32F30x_Demo_Suites_V2.0.0/GD32F30x_Demo_Suites_V2.0.0/GD32F30x_Firmware_Library/GD32F30x_standard_peripheral/Source\gd32f30x_dma.c ****     }
 229:C:/Users/49542/Desktop/GD32F30x_Demo_Suites_V2.0.0/GD32F30x_Demo_Suites_V2.0.0/GD32F30x_Firmware_Library/GD32F30x_standard_peripheral/Source\gd32f30x_dma.c ****     
 230:C:/Users/49542/Desktop/GD32F30x_Demo_Suites_V2.0.0/GD32F30x_Demo_Suites_V2.0.0/GD32F30x_Firmware_Library/GD32F30x_standard_peripheral/Source\gd32f30x_dma.c ****     DMA_CHCTL(dma_periph, channelx) &= ~DMA_CHXCTL_M2M;
 806              		.loc 1 230 0
 807 001e FA78     		ldrb	r2, [r7, #3]	@ zero_extendqisi2
 808 0020 1346     		mov	r3, r2
ARM GAS  C:\Users\49542\AppData\Local\Temp\ccb6xhB5.s 			page 19


 809 0022 9B00     		lsls	r3, r3, #2
 810 0024 1344     		add	r3, r3, r2
 811 0026 9B00     		lsls	r3, r3, #2
 812 0028 1A46     		mov	r2, r3
 813 002a 7B68     		ldr	r3, [r7, #4]
 814 002c 1344     		add	r3, r3, r2
 815 002e 0833     		adds	r3, r3, #8
 816 0030 1968     		ldr	r1, [r3]
 817 0032 FA78     		ldrb	r2, [r7, #3]	@ zero_extendqisi2
 818 0034 1346     		mov	r3, r2
 819 0036 9B00     		lsls	r3, r3, #2
 820 0038 1344     		add	r3, r3, r2
 821 003a 9B00     		lsls	r3, r3, #2
 822 003c 1A46     		mov	r2, r3
 823 003e 7B68     		ldr	r3, [r7, #4]
 824 0040 1344     		add	r3, r3, r2
 825 0042 0833     		adds	r3, r3, #8
 826 0044 1A46     		mov	r2, r3
 827 0046 21F48043 		bic	r3, r1, #16384
 828 004a 1360     		str	r3, [r2]
 231:C:/Users/49542/Desktop/GD32F30x_Demo_Suites_V2.0.0/GD32F30x_Demo_Suites_V2.0.0/GD32F30x_Firmware_Library/GD32F30x_standard_peripheral/Source\gd32f30x_dma.c **** }
 829              		.loc 1 231 0
 830 004c 00BF     		nop
 831 004e 0837     		adds	r7, r7, #8
 832              	.LCFI34:
 833              		.cfi_def_cfa_offset 8
 834 0050 BD46     		mov	sp, r7
 835              	.LCFI35:
 836              		.cfi_def_cfa_register 13
 837              		@ sp needed
 838 0052 80BD     		pop	{r7, pc}
 839              		.cfi_endproc
 840              	.LFE122:
 842              		.section	.text.dma_channel_enable,"ax",%progbits
 843              		.align	1
 844              		.global	dma_channel_enable
 845              		.syntax unified
 846              		.thumb
 847              		.thumb_func
 848              		.fpu fpv4-sp-d16
 850              	dma_channel_enable:
 851              	.LFB123:
 232:C:/Users/49542/Desktop/GD32F30x_Demo_Suites_V2.0.0/GD32F30x_Demo_Suites_V2.0.0/GD32F30x_Firmware_Library/GD32F30x_standard_peripheral/Source\gd32f30x_dma.c **** 
 233:C:/Users/49542/Desktop/GD32F30x_Demo_Suites_V2.0.0/GD32F30x_Demo_Suites_V2.0.0/GD32F30x_Firmware_Library/GD32F30x_standard_peripheral/Source\gd32f30x_dma.c **** /*!
 234:C:/Users/49542/Desktop/GD32F30x_Demo_Suites_V2.0.0/GD32F30x_Demo_Suites_V2.0.0/GD32F30x_Firmware_Library/GD32F30x_standard_peripheral/Source\gd32f30x_dma.c ****     \brief      enable DMA channel 
 235:C:/Users/49542/Desktop/GD32F30x_Demo_Suites_V2.0.0/GD32F30x_Demo_Suites_V2.0.0/GD32F30x_Firmware_Library/GD32F30x_standard_peripheral/Source\gd32f30x_dma.c ****     \param[in]  dma_periph: DMAx(x=0,1)
 236:C:/Users/49542/Desktop/GD32F30x_Demo_Suites_V2.0.0/GD32F30x_Demo_Suites_V2.0.0/GD32F30x_Firmware_Library/GD32F30x_standard_peripheral/Source\gd32f30x_dma.c ****       \arg        DMAx(x=0,1)
 237:C:/Users/49542/Desktop/GD32F30x_Demo_Suites_V2.0.0/GD32F30x_Demo_Suites_V2.0.0/GD32F30x_Firmware_Library/GD32F30x_standard_peripheral/Source\gd32f30x_dma.c ****     \param[in]  channelx: specify which DMA channel 
 238:C:/Users/49542/Desktop/GD32F30x_Demo_Suites_V2.0.0/GD32F30x_Demo_Suites_V2.0.0/GD32F30x_Firmware_Library/GD32F30x_standard_peripheral/Source\gd32f30x_dma.c ****                 only one parameter can be selected which is shown as below:
 239:C:/Users/49542/Desktop/GD32F30x_Demo_Suites_V2.0.0/GD32F30x_Demo_Suites_V2.0.0/GD32F30x_Firmware_Library/GD32F30x_standard_peripheral/Source\gd32f30x_dma.c ****       \arg        DMA0: DMA_CHx(x=0..6), DMA1: DMA_CHx(x=0..4)
 240:C:/Users/49542/Desktop/GD32F30x_Demo_Suites_V2.0.0/GD32F30x_Demo_Suites_V2.0.0/GD32F30x_Firmware_Library/GD32F30x_standard_peripheral/Source\gd32f30x_dma.c ****     \param[out] none
 241:C:/Users/49542/Desktop/GD32F30x_Demo_Suites_V2.0.0/GD32F30x_Demo_Suites_V2.0.0/GD32F30x_Firmware_Library/GD32F30x_standard_peripheral/Source\gd32f30x_dma.c ****     \retval     none 
 242:C:/Users/49542/Desktop/GD32F30x_Demo_Suites_V2.0.0/GD32F30x_Demo_Suites_V2.0.0/GD32F30x_Firmware_Library/GD32F30x_standard_peripheral/Source\gd32f30x_dma.c **** */
 243:C:/Users/49542/Desktop/GD32F30x_Demo_Suites_V2.0.0/GD32F30x_Demo_Suites_V2.0.0/GD32F30x_Firmware_Library/GD32F30x_standard_peripheral/Source\gd32f30x_dma.c **** void dma_channel_enable(uint32_t dma_periph, dma_channel_enum channelx)
 244:C:/Users/49542/Desktop/GD32F30x_Demo_Suites_V2.0.0/GD32F30x_Demo_Suites_V2.0.0/GD32F30x_Firmware_Library/GD32F30x_standard_peripheral/Source\gd32f30x_dma.c **** {
 852              		.loc 1 244 0
 853              		.cfi_startproc
ARM GAS  C:\Users\49542\AppData\Local\Temp\ccb6xhB5.s 			page 20


 854              		@ args = 0, pretend = 0, frame = 8
 855              		@ frame_needed = 1, uses_anonymous_args = 0
 856 0000 80B5     		push	{r7, lr}
 857              	.LCFI36:
 858              		.cfi_def_cfa_offset 8
 859              		.cfi_offset 7, -8
 860              		.cfi_offset 14, -4
 861 0002 82B0     		sub	sp, sp, #8
 862              	.LCFI37:
 863              		.cfi_def_cfa_offset 16
 864 0004 00AF     		add	r7, sp, #0
 865              	.LCFI38:
 866              		.cfi_def_cfa_register 7
 867 0006 7860     		str	r0, [r7, #4]
 868 0008 0B46     		mov	r3, r1
 869 000a FB70     		strb	r3, [r7, #3]
 245:C:/Users/49542/Desktop/GD32F30x_Demo_Suites_V2.0.0/GD32F30x_Demo_Suites_V2.0.0/GD32F30x_Firmware_Library/GD32F30x_standard_peripheral/Source\gd32f30x_dma.c ****     if(ERROR == dma_periph_and_channel_check(dma_periph, channelx)){
 870              		.loc 1 245 0
 871 000c FB78     		ldrb	r3, [r7, #3]	@ zero_extendqisi2
 872 000e 1946     		mov	r1, r3
 873 0010 7868     		ldr	r0, [r7, #4]
 874 0012 FFF7FEFF 		bl	dma_periph_and_channel_check
 875 0016 0346     		mov	r3, r0
 876 0018 002B     		cmp	r3, #0
 877 001a 00D1     		bne	.L28
 878              	.L29:
 246:C:/Users/49542/Desktop/GD32F30x_Demo_Suites_V2.0.0/GD32F30x_Demo_Suites_V2.0.0/GD32F30x_Firmware_Library/GD32F30x_standard_peripheral/Source\gd32f30x_dma.c ****         DMA_WRONG_HANDLE
 879              		.loc 1 246 0 discriminator 1
 880 001c FEE7     		b	.L29
 881              	.L28:
 247:C:/Users/49542/Desktop/GD32F30x_Demo_Suites_V2.0.0/GD32F30x_Demo_Suites_V2.0.0/GD32F30x_Firmware_Library/GD32F30x_standard_peripheral/Source\gd32f30x_dma.c ****     }
 248:C:/Users/49542/Desktop/GD32F30x_Demo_Suites_V2.0.0/GD32F30x_Demo_Suites_V2.0.0/GD32F30x_Firmware_Library/GD32F30x_standard_peripheral/Source\gd32f30x_dma.c ****     
 249:C:/Users/49542/Desktop/GD32F30x_Demo_Suites_V2.0.0/GD32F30x_Demo_Suites_V2.0.0/GD32F30x_Firmware_Library/GD32F30x_standard_peripheral/Source\gd32f30x_dma.c ****     DMA_CHCTL(dma_periph, channelx) |= DMA_CHXCTL_CHEN;
 882              		.loc 1 249 0
 883 001e FA78     		ldrb	r2, [r7, #3]	@ zero_extendqisi2
 884 0020 1346     		mov	r3, r2
 885 0022 9B00     		lsls	r3, r3, #2
 886 0024 1344     		add	r3, r3, r2
 887 0026 9B00     		lsls	r3, r3, #2
 888 0028 1A46     		mov	r2, r3
 889 002a 7B68     		ldr	r3, [r7, #4]
 890 002c 1344     		add	r3, r3, r2
 891 002e 0833     		adds	r3, r3, #8
 892 0030 1968     		ldr	r1, [r3]
 893 0032 FA78     		ldrb	r2, [r7, #3]	@ zero_extendqisi2
 894 0034 1346     		mov	r3, r2
 895 0036 9B00     		lsls	r3, r3, #2
 896 0038 1344     		add	r3, r3, r2
 897 003a 9B00     		lsls	r3, r3, #2
 898 003c 1A46     		mov	r2, r3
 899 003e 7B68     		ldr	r3, [r7, #4]
 900 0040 1344     		add	r3, r3, r2
 901 0042 0833     		adds	r3, r3, #8
 902 0044 1A46     		mov	r2, r3
 903 0046 41F00103 		orr	r3, r1, #1
 904 004a 1360     		str	r3, [r2]
 250:C:/Users/49542/Desktop/GD32F30x_Demo_Suites_V2.0.0/GD32F30x_Demo_Suites_V2.0.0/GD32F30x_Firmware_Library/GD32F30x_standard_peripheral/Source\gd32f30x_dma.c **** }
ARM GAS  C:\Users\49542\AppData\Local\Temp\ccb6xhB5.s 			page 21


 905              		.loc 1 250 0
 906 004c 00BF     		nop
 907 004e 0837     		adds	r7, r7, #8
 908              	.LCFI39:
 909              		.cfi_def_cfa_offset 8
 910 0050 BD46     		mov	sp, r7
 911              	.LCFI40:
 912              		.cfi_def_cfa_register 13
 913              		@ sp needed
 914 0052 80BD     		pop	{r7, pc}
 915              		.cfi_endproc
 916              	.LFE123:
 918              		.section	.text.dma_channel_disable,"ax",%progbits
 919              		.align	1
 920              		.global	dma_channel_disable
 921              		.syntax unified
 922              		.thumb
 923              		.thumb_func
 924              		.fpu fpv4-sp-d16
 926              	dma_channel_disable:
 927              	.LFB124:
 251:C:/Users/49542/Desktop/GD32F30x_Demo_Suites_V2.0.0/GD32F30x_Demo_Suites_V2.0.0/GD32F30x_Firmware_Library/GD32F30x_standard_peripheral/Source\gd32f30x_dma.c **** 
 252:C:/Users/49542/Desktop/GD32F30x_Demo_Suites_V2.0.0/GD32F30x_Demo_Suites_V2.0.0/GD32F30x_Firmware_Library/GD32F30x_standard_peripheral/Source\gd32f30x_dma.c **** /*!
 253:C:/Users/49542/Desktop/GD32F30x_Demo_Suites_V2.0.0/GD32F30x_Demo_Suites_V2.0.0/GD32F30x_Firmware_Library/GD32F30x_standard_peripheral/Source\gd32f30x_dma.c ****     \brief      disable DMA channel 
 254:C:/Users/49542/Desktop/GD32F30x_Demo_Suites_V2.0.0/GD32F30x_Demo_Suites_V2.0.0/GD32F30x_Firmware_Library/GD32F30x_standard_peripheral/Source\gd32f30x_dma.c ****     \param[in]  dma_periph: DMAx(x=0,1)
 255:C:/Users/49542/Desktop/GD32F30x_Demo_Suites_V2.0.0/GD32F30x_Demo_Suites_V2.0.0/GD32F30x_Firmware_Library/GD32F30x_standard_peripheral/Source\gd32f30x_dma.c ****       \arg        DMAx(x=0,1)
 256:C:/Users/49542/Desktop/GD32F30x_Demo_Suites_V2.0.0/GD32F30x_Demo_Suites_V2.0.0/GD32F30x_Firmware_Library/GD32F30x_standard_peripheral/Source\gd32f30x_dma.c ****     \param[in]  channelx: specify which DMA channel 
 257:C:/Users/49542/Desktop/GD32F30x_Demo_Suites_V2.0.0/GD32F30x_Demo_Suites_V2.0.0/GD32F30x_Firmware_Library/GD32F30x_standard_peripheral/Source\gd32f30x_dma.c ****                 only one parameter can be selected which is shown as below:
 258:C:/Users/49542/Desktop/GD32F30x_Demo_Suites_V2.0.0/GD32F30x_Demo_Suites_V2.0.0/GD32F30x_Firmware_Library/GD32F30x_standard_peripheral/Source\gd32f30x_dma.c ****       \arg        DMA0: DMA_CHx(x=0..6), DMA1: DMA_CHx(x=0..4)
 259:C:/Users/49542/Desktop/GD32F30x_Demo_Suites_V2.0.0/GD32F30x_Demo_Suites_V2.0.0/GD32F30x_Firmware_Library/GD32F30x_standard_peripheral/Source\gd32f30x_dma.c ****     \param[out] none
 260:C:/Users/49542/Desktop/GD32F30x_Demo_Suites_V2.0.0/GD32F30x_Demo_Suites_V2.0.0/GD32F30x_Firmware_Library/GD32F30x_standard_peripheral/Source\gd32f30x_dma.c ****     \retval     none 
 261:C:/Users/49542/Desktop/GD32F30x_Demo_Suites_V2.0.0/GD32F30x_Demo_Suites_V2.0.0/GD32F30x_Firmware_Library/GD32F30x_standard_peripheral/Source\gd32f30x_dma.c **** */
 262:C:/Users/49542/Desktop/GD32F30x_Demo_Suites_V2.0.0/GD32F30x_Demo_Suites_V2.0.0/GD32F30x_Firmware_Library/GD32F30x_standard_peripheral/Source\gd32f30x_dma.c **** void dma_channel_disable(uint32_t dma_periph, dma_channel_enum channelx)
 263:C:/Users/49542/Desktop/GD32F30x_Demo_Suites_V2.0.0/GD32F30x_Demo_Suites_V2.0.0/GD32F30x_Firmware_Library/GD32F30x_standard_peripheral/Source\gd32f30x_dma.c **** {
 928              		.loc 1 263 0
 929              		.cfi_startproc
 930              		@ args = 0, pretend = 0, frame = 8
 931              		@ frame_needed = 1, uses_anonymous_args = 0
 932 0000 80B5     		push	{r7, lr}
 933              	.LCFI41:
 934              		.cfi_def_cfa_offset 8
 935              		.cfi_offset 7, -8
 936              		.cfi_offset 14, -4
 937 0002 82B0     		sub	sp, sp, #8
 938              	.LCFI42:
 939              		.cfi_def_cfa_offset 16
 940 0004 00AF     		add	r7, sp, #0
 941              	.LCFI43:
 942              		.cfi_def_cfa_register 7
 943 0006 7860     		str	r0, [r7, #4]
 944 0008 0B46     		mov	r3, r1
 945 000a FB70     		strb	r3, [r7, #3]
 264:C:/Users/49542/Desktop/GD32F30x_Demo_Suites_V2.0.0/GD32F30x_Demo_Suites_V2.0.0/GD32F30x_Firmware_Library/GD32F30x_standard_peripheral/Source\gd32f30x_dma.c ****     if(ERROR == dma_periph_and_channel_check(dma_periph, channelx)){
 946              		.loc 1 264 0
 947 000c FB78     		ldrb	r3, [r7, #3]	@ zero_extendqisi2
 948 000e 1946     		mov	r1, r3
 949 0010 7868     		ldr	r0, [r7, #4]
ARM GAS  C:\Users\49542\AppData\Local\Temp\ccb6xhB5.s 			page 22


 950 0012 FFF7FEFF 		bl	dma_periph_and_channel_check
 951 0016 0346     		mov	r3, r0
 952 0018 002B     		cmp	r3, #0
 953 001a 00D1     		bne	.L31
 954              	.L32:
 265:C:/Users/49542/Desktop/GD32F30x_Demo_Suites_V2.0.0/GD32F30x_Demo_Suites_V2.0.0/GD32F30x_Firmware_Library/GD32F30x_standard_peripheral/Source\gd32f30x_dma.c ****         DMA_WRONG_HANDLE
 955              		.loc 1 265 0 discriminator 1
 956 001c FEE7     		b	.L32
 957              	.L31:
 266:C:/Users/49542/Desktop/GD32F30x_Demo_Suites_V2.0.0/GD32F30x_Demo_Suites_V2.0.0/GD32F30x_Firmware_Library/GD32F30x_standard_peripheral/Source\gd32f30x_dma.c ****     }
 267:C:/Users/49542/Desktop/GD32F30x_Demo_Suites_V2.0.0/GD32F30x_Demo_Suites_V2.0.0/GD32F30x_Firmware_Library/GD32F30x_standard_peripheral/Source\gd32f30x_dma.c ****     
 268:C:/Users/49542/Desktop/GD32F30x_Demo_Suites_V2.0.0/GD32F30x_Demo_Suites_V2.0.0/GD32F30x_Firmware_Library/GD32F30x_standard_peripheral/Source\gd32f30x_dma.c ****     DMA_CHCTL(dma_periph, channelx) &= ~DMA_CHXCTL_CHEN;
 958              		.loc 1 268 0
 959 001e FA78     		ldrb	r2, [r7, #3]	@ zero_extendqisi2
 960 0020 1346     		mov	r3, r2
 961 0022 9B00     		lsls	r3, r3, #2
 962 0024 1344     		add	r3, r3, r2
 963 0026 9B00     		lsls	r3, r3, #2
 964 0028 1A46     		mov	r2, r3
 965 002a 7B68     		ldr	r3, [r7, #4]
 966 002c 1344     		add	r3, r3, r2
 967 002e 0833     		adds	r3, r3, #8
 968 0030 1968     		ldr	r1, [r3]
 969 0032 FA78     		ldrb	r2, [r7, #3]	@ zero_extendqisi2
 970 0034 1346     		mov	r3, r2
 971 0036 9B00     		lsls	r3, r3, #2
 972 0038 1344     		add	r3, r3, r2
 973 003a 9B00     		lsls	r3, r3, #2
 974 003c 1A46     		mov	r2, r3
 975 003e 7B68     		ldr	r3, [r7, #4]
 976 0040 1344     		add	r3, r3, r2
 977 0042 0833     		adds	r3, r3, #8
 978 0044 1A46     		mov	r2, r3
 979 0046 21F00103 		bic	r3, r1, #1
 980 004a 1360     		str	r3, [r2]
 269:C:/Users/49542/Desktop/GD32F30x_Demo_Suites_V2.0.0/GD32F30x_Demo_Suites_V2.0.0/GD32F30x_Firmware_Library/GD32F30x_standard_peripheral/Source\gd32f30x_dma.c **** }
 981              		.loc 1 269 0
 982 004c 00BF     		nop
 983 004e 0837     		adds	r7, r7, #8
 984              	.LCFI44:
 985              		.cfi_def_cfa_offset 8
 986 0050 BD46     		mov	sp, r7
 987              	.LCFI45:
 988              		.cfi_def_cfa_register 13
 989              		@ sp needed
 990 0052 80BD     		pop	{r7, pc}
 991              		.cfi_endproc
 992              	.LFE124:
 994              		.section	.text.dma_periph_address_config,"ax",%progbits
 995              		.align	1
 996              		.global	dma_periph_address_config
 997              		.syntax unified
 998              		.thumb
 999              		.thumb_func
 1000              		.fpu fpv4-sp-d16
 1002              	dma_periph_address_config:
 1003              	.LFB125:
ARM GAS  C:\Users\49542\AppData\Local\Temp\ccb6xhB5.s 			page 23


 270:C:/Users/49542/Desktop/GD32F30x_Demo_Suites_V2.0.0/GD32F30x_Demo_Suites_V2.0.0/GD32F30x_Firmware_Library/GD32F30x_standard_peripheral/Source\gd32f30x_dma.c **** 
 271:C:/Users/49542/Desktop/GD32F30x_Demo_Suites_V2.0.0/GD32F30x_Demo_Suites_V2.0.0/GD32F30x_Firmware_Library/GD32F30x_standard_peripheral/Source\gd32f30x_dma.c **** /*!
 272:C:/Users/49542/Desktop/GD32F30x_Demo_Suites_V2.0.0/GD32F30x_Demo_Suites_V2.0.0/GD32F30x_Firmware_Library/GD32F30x_standard_peripheral/Source\gd32f30x_dma.c ****     \brief      set DMA peripheral base address  
 273:C:/Users/49542/Desktop/GD32F30x_Demo_Suites_V2.0.0/GD32F30x_Demo_Suites_V2.0.0/GD32F30x_Firmware_Library/GD32F30x_standard_peripheral/Source\gd32f30x_dma.c ****     \param[in]  dma_periph: DMAx(x=0,1)
 274:C:/Users/49542/Desktop/GD32F30x_Demo_Suites_V2.0.0/GD32F30x_Demo_Suites_V2.0.0/GD32F30x_Firmware_Library/GD32F30x_standard_peripheral/Source\gd32f30x_dma.c ****       \arg        DMAx(x=0,1)
 275:C:/Users/49542/Desktop/GD32F30x_Demo_Suites_V2.0.0/GD32F30x_Demo_Suites_V2.0.0/GD32F30x_Firmware_Library/GD32F30x_standard_peripheral/Source\gd32f30x_dma.c ****     \param[in]  channelx: specify which DMA channel to set peripheral base address 
 276:C:/Users/49542/Desktop/GD32F30x_Demo_Suites_V2.0.0/GD32F30x_Demo_Suites_V2.0.0/GD32F30x_Firmware_Library/GD32F30x_standard_peripheral/Source\gd32f30x_dma.c ****                 only one parameter can be selected which is shown as below:
 277:C:/Users/49542/Desktop/GD32F30x_Demo_Suites_V2.0.0/GD32F30x_Demo_Suites_V2.0.0/GD32F30x_Firmware_Library/GD32F30x_standard_peripheral/Source\gd32f30x_dma.c ****       \arg        DMA0: DMA_CHx(x=0..6), DMA1: DMA_CHx(x=0..4)
 278:C:/Users/49542/Desktop/GD32F30x_Demo_Suites_V2.0.0/GD32F30x_Demo_Suites_V2.0.0/GD32F30x_Firmware_Library/GD32F30x_standard_peripheral/Source\gd32f30x_dma.c ****     \param[in]  address: peripheral base address
 279:C:/Users/49542/Desktop/GD32F30x_Demo_Suites_V2.0.0/GD32F30x_Demo_Suites_V2.0.0/GD32F30x_Firmware_Library/GD32F30x_standard_peripheral/Source\gd32f30x_dma.c ****     \param[out] none
 280:C:/Users/49542/Desktop/GD32F30x_Demo_Suites_V2.0.0/GD32F30x_Demo_Suites_V2.0.0/GD32F30x_Firmware_Library/GD32F30x_standard_peripheral/Source\gd32f30x_dma.c ****     \retval     none 
 281:C:/Users/49542/Desktop/GD32F30x_Demo_Suites_V2.0.0/GD32F30x_Demo_Suites_V2.0.0/GD32F30x_Firmware_Library/GD32F30x_standard_peripheral/Source\gd32f30x_dma.c **** */
 282:C:/Users/49542/Desktop/GD32F30x_Demo_Suites_V2.0.0/GD32F30x_Demo_Suites_V2.0.0/GD32F30x_Firmware_Library/GD32F30x_standard_peripheral/Source\gd32f30x_dma.c **** void dma_periph_address_config(uint32_t dma_periph, dma_channel_enum channelx, uint32_t address)
 283:C:/Users/49542/Desktop/GD32F30x_Demo_Suites_V2.0.0/GD32F30x_Demo_Suites_V2.0.0/GD32F30x_Firmware_Library/GD32F30x_standard_peripheral/Source\gd32f30x_dma.c **** {
 1004              		.loc 1 283 0
 1005              		.cfi_startproc
 1006              		@ args = 0, pretend = 0, frame = 16
 1007              		@ frame_needed = 1, uses_anonymous_args = 0
 1008 0000 80B5     		push	{r7, lr}
 1009              	.LCFI46:
 1010              		.cfi_def_cfa_offset 8
 1011              		.cfi_offset 7, -8
 1012              		.cfi_offset 14, -4
 1013 0002 84B0     		sub	sp, sp, #16
 1014              	.LCFI47:
 1015              		.cfi_def_cfa_offset 24
 1016 0004 00AF     		add	r7, sp, #0
 1017              	.LCFI48:
 1018              		.cfi_def_cfa_register 7
 1019 0006 F860     		str	r0, [r7, #12]
 1020 0008 0B46     		mov	r3, r1
 1021 000a 7A60     		str	r2, [r7, #4]
 1022 000c FB72     		strb	r3, [r7, #11]
 284:C:/Users/49542/Desktop/GD32F30x_Demo_Suites_V2.0.0/GD32F30x_Demo_Suites_V2.0.0/GD32F30x_Firmware_Library/GD32F30x_standard_peripheral/Source\gd32f30x_dma.c ****     if(ERROR == dma_periph_and_channel_check(dma_periph, channelx)){
 1023              		.loc 1 284 0
 1024 000e FB7A     		ldrb	r3, [r7, #11]	@ zero_extendqisi2
 1025 0010 1946     		mov	r1, r3
 1026 0012 F868     		ldr	r0, [r7, #12]
 1027 0014 FFF7FEFF 		bl	dma_periph_and_channel_check
 1028 0018 0346     		mov	r3, r0
 1029 001a 002B     		cmp	r3, #0
 1030 001c 00D1     		bne	.L34
 1031              	.L35:
 285:C:/Users/49542/Desktop/GD32F30x_Demo_Suites_V2.0.0/GD32F30x_Demo_Suites_V2.0.0/GD32F30x_Firmware_Library/GD32F30x_standard_peripheral/Source\gd32f30x_dma.c ****         DMA_WRONG_HANDLE
 1032              		.loc 1 285 0 discriminator 1
 1033 001e FEE7     		b	.L35
 1034              	.L34:
 286:C:/Users/49542/Desktop/GD32F30x_Demo_Suites_V2.0.0/GD32F30x_Demo_Suites_V2.0.0/GD32F30x_Firmware_Library/GD32F30x_standard_peripheral/Source\gd32f30x_dma.c ****     }
 287:C:/Users/49542/Desktop/GD32F30x_Demo_Suites_V2.0.0/GD32F30x_Demo_Suites_V2.0.0/GD32F30x_Firmware_Library/GD32F30x_standard_peripheral/Source\gd32f30x_dma.c ****     
 288:C:/Users/49542/Desktop/GD32F30x_Demo_Suites_V2.0.0/GD32F30x_Demo_Suites_V2.0.0/GD32F30x_Firmware_Library/GD32F30x_standard_peripheral/Source\gd32f30x_dma.c ****     DMA_CHPADDR(dma_periph, channelx) = address;
 1035              		.loc 1 288 0
 1036 0020 FA7A     		ldrb	r2, [r7, #11]	@ zero_extendqisi2
 1037 0022 1346     		mov	r3, r2
 1038 0024 9B00     		lsls	r3, r3, #2
 1039 0026 1344     		add	r3, r3, r2
 1040 0028 9B00     		lsls	r3, r3, #2
 1041 002a 1A46     		mov	r2, r3
ARM GAS  C:\Users\49542\AppData\Local\Temp\ccb6xhB5.s 			page 24


 1042 002c FB68     		ldr	r3, [r7, #12]
 1043 002e 1344     		add	r3, r3, r2
 1044 0030 1033     		adds	r3, r3, #16
 1045 0032 1A46     		mov	r2, r3
 1046 0034 7B68     		ldr	r3, [r7, #4]
 1047 0036 1360     		str	r3, [r2]
 289:C:/Users/49542/Desktop/GD32F30x_Demo_Suites_V2.0.0/GD32F30x_Demo_Suites_V2.0.0/GD32F30x_Firmware_Library/GD32F30x_standard_peripheral/Source\gd32f30x_dma.c **** }
 1048              		.loc 1 289 0
 1049 0038 00BF     		nop
 1050 003a 1037     		adds	r7, r7, #16
 1051              	.LCFI49:
 1052              		.cfi_def_cfa_offset 8
 1053 003c BD46     		mov	sp, r7
 1054              	.LCFI50:
 1055              		.cfi_def_cfa_register 13
 1056              		@ sp needed
 1057 003e 80BD     		pop	{r7, pc}
 1058              		.cfi_endproc
 1059              	.LFE125:
 1061              		.section	.text.dma_memory_address_config,"ax",%progbits
 1062              		.align	1
 1063              		.global	dma_memory_address_config
 1064              		.syntax unified
 1065              		.thumb
 1066              		.thumb_func
 1067              		.fpu fpv4-sp-d16
 1069              	dma_memory_address_config:
 1070              	.LFB126:
 290:C:/Users/49542/Desktop/GD32F30x_Demo_Suites_V2.0.0/GD32F30x_Demo_Suites_V2.0.0/GD32F30x_Firmware_Library/GD32F30x_standard_peripheral/Source\gd32f30x_dma.c **** 
 291:C:/Users/49542/Desktop/GD32F30x_Demo_Suites_V2.0.0/GD32F30x_Demo_Suites_V2.0.0/GD32F30x_Firmware_Library/GD32F30x_standard_peripheral/Source\gd32f30x_dma.c **** /*!
 292:C:/Users/49542/Desktop/GD32F30x_Demo_Suites_V2.0.0/GD32F30x_Demo_Suites_V2.0.0/GD32F30x_Firmware_Library/GD32F30x_standard_peripheral/Source\gd32f30x_dma.c ****     \brief      set DMA memory base address  
 293:C:/Users/49542/Desktop/GD32F30x_Demo_Suites_V2.0.0/GD32F30x_Demo_Suites_V2.0.0/GD32F30x_Firmware_Library/GD32F30x_standard_peripheral/Source\gd32f30x_dma.c ****     \param[in]  dma_periph: DMAx(x=0,1)
 294:C:/Users/49542/Desktop/GD32F30x_Demo_Suites_V2.0.0/GD32F30x_Demo_Suites_V2.0.0/GD32F30x_Firmware_Library/GD32F30x_standard_peripheral/Source\gd32f30x_dma.c ****       \arg        DMAx(x=0,1)
 295:C:/Users/49542/Desktop/GD32F30x_Demo_Suites_V2.0.0/GD32F30x_Demo_Suites_V2.0.0/GD32F30x_Firmware_Library/GD32F30x_standard_peripheral/Source\gd32f30x_dma.c ****     \param[in]  channelx: specify which DMA channel to set memory base address 
 296:C:/Users/49542/Desktop/GD32F30x_Demo_Suites_V2.0.0/GD32F30x_Demo_Suites_V2.0.0/GD32F30x_Firmware_Library/GD32F30x_standard_peripheral/Source\gd32f30x_dma.c ****                 only one parameter can be selected which is shown as below:
 297:C:/Users/49542/Desktop/GD32F30x_Demo_Suites_V2.0.0/GD32F30x_Demo_Suites_V2.0.0/GD32F30x_Firmware_Library/GD32F30x_standard_peripheral/Source\gd32f30x_dma.c ****       \arg        DMA0: DMA_CHx(x=0..6), DMA1: DMA_CHx(x=0..4)
 298:C:/Users/49542/Desktop/GD32F30x_Demo_Suites_V2.0.0/GD32F30x_Demo_Suites_V2.0.0/GD32F30x_Firmware_Library/GD32F30x_standard_peripheral/Source\gd32f30x_dma.c ****     \param[in]  address: memory base address
 299:C:/Users/49542/Desktop/GD32F30x_Demo_Suites_V2.0.0/GD32F30x_Demo_Suites_V2.0.0/GD32F30x_Firmware_Library/GD32F30x_standard_peripheral/Source\gd32f30x_dma.c ****     \param[out] none
 300:C:/Users/49542/Desktop/GD32F30x_Demo_Suites_V2.0.0/GD32F30x_Demo_Suites_V2.0.0/GD32F30x_Firmware_Library/GD32F30x_standard_peripheral/Source\gd32f30x_dma.c ****     \retval     none 
 301:C:/Users/49542/Desktop/GD32F30x_Demo_Suites_V2.0.0/GD32F30x_Demo_Suites_V2.0.0/GD32F30x_Firmware_Library/GD32F30x_standard_peripheral/Source\gd32f30x_dma.c **** */
 302:C:/Users/49542/Desktop/GD32F30x_Demo_Suites_V2.0.0/GD32F30x_Demo_Suites_V2.0.0/GD32F30x_Firmware_Library/GD32F30x_standard_peripheral/Source\gd32f30x_dma.c **** void dma_memory_address_config(uint32_t dma_periph, dma_channel_enum channelx, uint32_t address)
 303:C:/Users/49542/Desktop/GD32F30x_Demo_Suites_V2.0.0/GD32F30x_Demo_Suites_V2.0.0/GD32F30x_Firmware_Library/GD32F30x_standard_peripheral/Source\gd32f30x_dma.c **** {
 1071              		.loc 1 303 0
 1072              		.cfi_startproc
 1073              		@ args = 0, pretend = 0, frame = 16
 1074              		@ frame_needed = 1, uses_anonymous_args = 0
 1075 0000 80B5     		push	{r7, lr}
 1076              	.LCFI51:
 1077              		.cfi_def_cfa_offset 8
 1078              		.cfi_offset 7, -8
 1079              		.cfi_offset 14, -4
 1080 0002 84B0     		sub	sp, sp, #16
 1081              	.LCFI52:
 1082              		.cfi_def_cfa_offset 24
 1083 0004 00AF     		add	r7, sp, #0
 1084              	.LCFI53:
 1085              		.cfi_def_cfa_register 7
ARM GAS  C:\Users\49542\AppData\Local\Temp\ccb6xhB5.s 			page 25


 1086 0006 F860     		str	r0, [r7, #12]
 1087 0008 0B46     		mov	r3, r1
 1088 000a 7A60     		str	r2, [r7, #4]
 1089 000c FB72     		strb	r3, [r7, #11]
 304:C:/Users/49542/Desktop/GD32F30x_Demo_Suites_V2.0.0/GD32F30x_Demo_Suites_V2.0.0/GD32F30x_Firmware_Library/GD32F30x_standard_peripheral/Source\gd32f30x_dma.c ****     if(ERROR == dma_periph_and_channel_check(dma_periph, channelx)){
 1090              		.loc 1 304 0
 1091 000e FB7A     		ldrb	r3, [r7, #11]	@ zero_extendqisi2
 1092 0010 1946     		mov	r1, r3
 1093 0012 F868     		ldr	r0, [r7, #12]
 1094 0014 FFF7FEFF 		bl	dma_periph_and_channel_check
 1095 0018 0346     		mov	r3, r0
 1096 001a 002B     		cmp	r3, #0
 1097 001c 00D1     		bne	.L37
 1098              	.L38:
 305:C:/Users/49542/Desktop/GD32F30x_Demo_Suites_V2.0.0/GD32F30x_Demo_Suites_V2.0.0/GD32F30x_Firmware_Library/GD32F30x_standard_peripheral/Source\gd32f30x_dma.c ****         DMA_WRONG_HANDLE
 1099              		.loc 1 305 0 discriminator 1
 1100 001e FEE7     		b	.L38
 1101              	.L37:
 306:C:/Users/49542/Desktop/GD32F30x_Demo_Suites_V2.0.0/GD32F30x_Demo_Suites_V2.0.0/GD32F30x_Firmware_Library/GD32F30x_standard_peripheral/Source\gd32f30x_dma.c ****     }
 307:C:/Users/49542/Desktop/GD32F30x_Demo_Suites_V2.0.0/GD32F30x_Demo_Suites_V2.0.0/GD32F30x_Firmware_Library/GD32F30x_standard_peripheral/Source\gd32f30x_dma.c ****     
 308:C:/Users/49542/Desktop/GD32F30x_Demo_Suites_V2.0.0/GD32F30x_Demo_Suites_V2.0.0/GD32F30x_Firmware_Library/GD32F30x_standard_peripheral/Source\gd32f30x_dma.c ****     DMA_CHMADDR(dma_periph, channelx) = address;
 1102              		.loc 1 308 0
 1103 0020 FA7A     		ldrb	r2, [r7, #11]	@ zero_extendqisi2
 1104 0022 1346     		mov	r3, r2
 1105 0024 9B00     		lsls	r3, r3, #2
 1106 0026 1344     		add	r3, r3, r2
 1107 0028 9B00     		lsls	r3, r3, #2
 1108 002a 1A46     		mov	r2, r3
 1109 002c FB68     		ldr	r3, [r7, #12]
 1110 002e 1344     		add	r3, r3, r2
 1111 0030 1433     		adds	r3, r3, #20
 1112 0032 1A46     		mov	r2, r3
 1113 0034 7B68     		ldr	r3, [r7, #4]
 1114 0036 1360     		str	r3, [r2]
 309:C:/Users/49542/Desktop/GD32F30x_Demo_Suites_V2.0.0/GD32F30x_Demo_Suites_V2.0.0/GD32F30x_Firmware_Library/GD32F30x_standard_peripheral/Source\gd32f30x_dma.c **** }
 1115              		.loc 1 309 0
 1116 0038 00BF     		nop
 1117 003a 1037     		adds	r7, r7, #16
 1118              	.LCFI54:
 1119              		.cfi_def_cfa_offset 8
 1120 003c BD46     		mov	sp, r7
 1121              	.LCFI55:
 1122              		.cfi_def_cfa_register 13
 1123              		@ sp needed
 1124 003e 80BD     		pop	{r7, pc}
 1125              		.cfi_endproc
 1126              	.LFE126:
 1128              		.section	.text.dma_transfer_number_config,"ax",%progbits
 1129              		.align	1
 1130              		.global	dma_transfer_number_config
 1131              		.syntax unified
 1132              		.thumb
 1133              		.thumb_func
 1134              		.fpu fpv4-sp-d16
 1136              	dma_transfer_number_config:
 1137              	.LFB127:
 310:C:/Users/49542/Desktop/GD32F30x_Demo_Suites_V2.0.0/GD32F30x_Demo_Suites_V2.0.0/GD32F30x_Firmware_Library/GD32F30x_standard_peripheral/Source\gd32f30x_dma.c **** 
ARM GAS  C:\Users\49542\AppData\Local\Temp\ccb6xhB5.s 			page 26


 311:C:/Users/49542/Desktop/GD32F30x_Demo_Suites_V2.0.0/GD32F30x_Demo_Suites_V2.0.0/GD32F30x_Firmware_Library/GD32F30x_standard_peripheral/Source\gd32f30x_dma.c **** /*!
 312:C:/Users/49542/Desktop/GD32F30x_Demo_Suites_V2.0.0/GD32F30x_Demo_Suites_V2.0.0/GD32F30x_Firmware_Library/GD32F30x_standard_peripheral/Source\gd32f30x_dma.c ****     \brief      set the number of remaining data to be transferred by the DMA 
 313:C:/Users/49542/Desktop/GD32F30x_Demo_Suites_V2.0.0/GD32F30x_Demo_Suites_V2.0.0/GD32F30x_Firmware_Library/GD32F30x_standard_peripheral/Source\gd32f30x_dma.c ****     \param[in]  dma_periph: DMAx(x=0,1)
 314:C:/Users/49542/Desktop/GD32F30x_Demo_Suites_V2.0.0/GD32F30x_Demo_Suites_V2.0.0/GD32F30x_Firmware_Library/GD32F30x_standard_peripheral/Source\gd32f30x_dma.c ****       \arg        DMAx(x=0,1)
 315:C:/Users/49542/Desktop/GD32F30x_Demo_Suites_V2.0.0/GD32F30x_Demo_Suites_V2.0.0/GD32F30x_Firmware_Library/GD32F30x_standard_peripheral/Source\gd32f30x_dma.c ****     \param[in]  channelx: specify which DMA channel to set number 
 316:C:/Users/49542/Desktop/GD32F30x_Demo_Suites_V2.0.0/GD32F30x_Demo_Suites_V2.0.0/GD32F30x_Firmware_Library/GD32F30x_standard_peripheral/Source\gd32f30x_dma.c ****                 only one parameter can be selected which is shown as below:
 317:C:/Users/49542/Desktop/GD32F30x_Demo_Suites_V2.0.0/GD32F30x_Demo_Suites_V2.0.0/GD32F30x_Firmware_Library/GD32F30x_standard_peripheral/Source\gd32f30x_dma.c ****       \arg        DMA0: DMA_CHx(x=0..6), DMA1: DMA_CHx(x=0..4)
 318:C:/Users/49542/Desktop/GD32F30x_Demo_Suites_V2.0.0/GD32F30x_Demo_Suites_V2.0.0/GD32F30x_Firmware_Library/GD32F30x_standard_peripheral/Source\gd32f30x_dma.c ****     \param[in]  number: the number of remaining data to be transferred by the DMA
 319:C:/Users/49542/Desktop/GD32F30x_Demo_Suites_V2.0.0/GD32F30x_Demo_Suites_V2.0.0/GD32F30x_Firmware_Library/GD32F30x_standard_peripheral/Source\gd32f30x_dma.c ****     \param[out] none
 320:C:/Users/49542/Desktop/GD32F30x_Demo_Suites_V2.0.0/GD32F30x_Demo_Suites_V2.0.0/GD32F30x_Firmware_Library/GD32F30x_standard_peripheral/Source\gd32f30x_dma.c ****     \retval     none 
 321:C:/Users/49542/Desktop/GD32F30x_Demo_Suites_V2.0.0/GD32F30x_Demo_Suites_V2.0.0/GD32F30x_Firmware_Library/GD32F30x_standard_peripheral/Source\gd32f30x_dma.c **** */
 322:C:/Users/49542/Desktop/GD32F30x_Demo_Suites_V2.0.0/GD32F30x_Demo_Suites_V2.0.0/GD32F30x_Firmware_Library/GD32F30x_standard_peripheral/Source\gd32f30x_dma.c **** void dma_transfer_number_config(uint32_t dma_periph, dma_channel_enum channelx, uint32_t number)
 323:C:/Users/49542/Desktop/GD32F30x_Demo_Suites_V2.0.0/GD32F30x_Demo_Suites_V2.0.0/GD32F30x_Firmware_Library/GD32F30x_standard_peripheral/Source\gd32f30x_dma.c **** {
 1138              		.loc 1 323 0
 1139              		.cfi_startproc
 1140              		@ args = 0, pretend = 0, frame = 16
 1141              		@ frame_needed = 1, uses_anonymous_args = 0
 1142 0000 80B5     		push	{r7, lr}
 1143              	.LCFI56:
 1144              		.cfi_def_cfa_offset 8
 1145              		.cfi_offset 7, -8
 1146              		.cfi_offset 14, -4
 1147 0002 84B0     		sub	sp, sp, #16
 1148              	.LCFI57:
 1149              		.cfi_def_cfa_offset 24
 1150 0004 00AF     		add	r7, sp, #0
 1151              	.LCFI58:
 1152              		.cfi_def_cfa_register 7
 1153 0006 F860     		str	r0, [r7, #12]
 1154 0008 0B46     		mov	r3, r1
 1155 000a 7A60     		str	r2, [r7, #4]
 1156 000c FB72     		strb	r3, [r7, #11]
 324:C:/Users/49542/Desktop/GD32F30x_Demo_Suites_V2.0.0/GD32F30x_Demo_Suites_V2.0.0/GD32F30x_Firmware_Library/GD32F30x_standard_peripheral/Source\gd32f30x_dma.c ****     if(ERROR == dma_periph_and_channel_check(dma_periph, channelx)){
 1157              		.loc 1 324 0
 1158 000e FB7A     		ldrb	r3, [r7, #11]	@ zero_extendqisi2
 1159 0010 1946     		mov	r1, r3
 1160 0012 F868     		ldr	r0, [r7, #12]
 1161 0014 FFF7FEFF 		bl	dma_periph_and_channel_check
 1162 0018 0346     		mov	r3, r0
 1163 001a 002B     		cmp	r3, #0
 1164 001c 00D1     		bne	.L40
 1165              	.L41:
 325:C:/Users/49542/Desktop/GD32F30x_Demo_Suites_V2.0.0/GD32F30x_Demo_Suites_V2.0.0/GD32F30x_Firmware_Library/GD32F30x_standard_peripheral/Source\gd32f30x_dma.c ****         DMA_WRONG_HANDLE
 1166              		.loc 1 325 0 discriminator 1
 1167 001e FEE7     		b	.L41
 1168              	.L40:
 326:C:/Users/49542/Desktop/GD32F30x_Demo_Suites_V2.0.0/GD32F30x_Demo_Suites_V2.0.0/GD32F30x_Firmware_Library/GD32F30x_standard_peripheral/Source\gd32f30x_dma.c ****     }
 327:C:/Users/49542/Desktop/GD32F30x_Demo_Suites_V2.0.0/GD32F30x_Demo_Suites_V2.0.0/GD32F30x_Firmware_Library/GD32F30x_standard_peripheral/Source\gd32f30x_dma.c ****     
 328:C:/Users/49542/Desktop/GD32F30x_Demo_Suites_V2.0.0/GD32F30x_Demo_Suites_V2.0.0/GD32F30x_Firmware_Library/GD32F30x_standard_peripheral/Source\gd32f30x_dma.c ****     DMA_CHCNT(dma_periph, channelx) = (number & DMA_CHANNEL_CNT_MASK);
 1169              		.loc 1 328 0
 1170 0020 FA7A     		ldrb	r2, [r7, #11]	@ zero_extendqisi2
 1171 0022 1346     		mov	r3, r2
 1172 0024 9B00     		lsls	r3, r3, #2
 1173 0026 1344     		add	r3, r3, r2
 1174 0028 9B00     		lsls	r3, r3, #2
 1175 002a 1A46     		mov	r2, r3
 1176 002c FB68     		ldr	r3, [r7, #12]
ARM GAS  C:\Users\49542\AppData\Local\Temp\ccb6xhB5.s 			page 27


 1177 002e 1344     		add	r3, r3, r2
 1178 0030 0C33     		adds	r3, r3, #12
 1179 0032 1A46     		mov	r2, r3
 1180 0034 7B68     		ldr	r3, [r7, #4]
 1181 0036 9BB2     		uxth	r3, r3
 1182 0038 1360     		str	r3, [r2]
 329:C:/Users/49542/Desktop/GD32F30x_Demo_Suites_V2.0.0/GD32F30x_Demo_Suites_V2.0.0/GD32F30x_Firmware_Library/GD32F30x_standard_peripheral/Source\gd32f30x_dma.c **** }
 1183              		.loc 1 329 0
 1184 003a 00BF     		nop
 1185 003c 1037     		adds	r7, r7, #16
 1186              	.LCFI59:
 1187              		.cfi_def_cfa_offset 8
 1188 003e BD46     		mov	sp, r7
 1189              	.LCFI60:
 1190              		.cfi_def_cfa_register 13
 1191              		@ sp needed
 1192 0040 80BD     		pop	{r7, pc}
 1193              		.cfi_endproc
 1194              	.LFE127:
 1196              		.section	.text.dma_transfer_number_get,"ax",%progbits
 1197              		.align	1
 1198              		.global	dma_transfer_number_get
 1199              		.syntax unified
 1200              		.thumb
 1201              		.thumb_func
 1202              		.fpu fpv4-sp-d16
 1204              	dma_transfer_number_get:
 1205              	.LFB128:
 330:C:/Users/49542/Desktop/GD32F30x_Demo_Suites_V2.0.0/GD32F30x_Demo_Suites_V2.0.0/GD32F30x_Firmware_Library/GD32F30x_standard_peripheral/Source\gd32f30x_dma.c **** 
 331:C:/Users/49542/Desktop/GD32F30x_Demo_Suites_V2.0.0/GD32F30x_Demo_Suites_V2.0.0/GD32F30x_Firmware_Library/GD32F30x_standard_peripheral/Source\gd32f30x_dma.c **** /*!
 332:C:/Users/49542/Desktop/GD32F30x_Demo_Suites_V2.0.0/GD32F30x_Demo_Suites_V2.0.0/GD32F30x_Firmware_Library/GD32F30x_standard_peripheral/Source\gd32f30x_dma.c ****     \brief      get the number of remaining data to be transferred by the DMA  
 333:C:/Users/49542/Desktop/GD32F30x_Demo_Suites_V2.0.0/GD32F30x_Demo_Suites_V2.0.0/GD32F30x_Firmware_Library/GD32F30x_standard_peripheral/Source\gd32f30x_dma.c ****     \param[in]  dma_periph: DMAx(x=0,1)
 334:C:/Users/49542/Desktop/GD32F30x_Demo_Suites_V2.0.0/GD32F30x_Demo_Suites_V2.0.0/GD32F30x_Firmware_Library/GD32F30x_standard_peripheral/Source\gd32f30x_dma.c ****       \arg        DMAx(x=0,1)
 335:C:/Users/49542/Desktop/GD32F30x_Demo_Suites_V2.0.0/GD32F30x_Demo_Suites_V2.0.0/GD32F30x_Firmware_Library/GD32F30x_standard_peripheral/Source\gd32f30x_dma.c ****     \param[in]  channelx: specify which DMA channel to set number 
 336:C:/Users/49542/Desktop/GD32F30x_Demo_Suites_V2.0.0/GD32F30x_Demo_Suites_V2.0.0/GD32F30x_Firmware_Library/GD32F30x_standard_peripheral/Source\gd32f30x_dma.c ****                 only one parameter can be selected which is shown as below:
 337:C:/Users/49542/Desktop/GD32F30x_Demo_Suites_V2.0.0/GD32F30x_Demo_Suites_V2.0.0/GD32F30x_Firmware_Library/GD32F30x_standard_peripheral/Source\gd32f30x_dma.c ****       \arg        DMA0: DMA_CHx(x=0..6), DMA1: DMA_CHx(x=0..4)
 338:C:/Users/49542/Desktop/GD32F30x_Demo_Suites_V2.0.0/GD32F30x_Demo_Suites_V2.0.0/GD32F30x_Firmware_Library/GD32F30x_standard_peripheral/Source\gd32f30x_dma.c ****     \param[out] none
 339:C:/Users/49542/Desktop/GD32F30x_Demo_Suites_V2.0.0/GD32F30x_Demo_Suites_V2.0.0/GD32F30x_Firmware_Library/GD32F30x_standard_peripheral/Source\gd32f30x_dma.c ****     \retval     uint32_t: the number of remaining data to be transferred by the DMA 
 340:C:/Users/49542/Desktop/GD32F30x_Demo_Suites_V2.0.0/GD32F30x_Demo_Suites_V2.0.0/GD32F30x_Firmware_Library/GD32F30x_standard_peripheral/Source\gd32f30x_dma.c **** */
 341:C:/Users/49542/Desktop/GD32F30x_Demo_Suites_V2.0.0/GD32F30x_Demo_Suites_V2.0.0/GD32F30x_Firmware_Library/GD32F30x_standard_peripheral/Source\gd32f30x_dma.c **** uint32_t dma_transfer_number_get(uint32_t dma_periph, dma_channel_enum channelx)
 342:C:/Users/49542/Desktop/GD32F30x_Demo_Suites_V2.0.0/GD32F30x_Demo_Suites_V2.0.0/GD32F30x_Firmware_Library/GD32F30x_standard_peripheral/Source\gd32f30x_dma.c **** {
 1206              		.loc 1 342 0
 1207              		.cfi_startproc
 1208              		@ args = 0, pretend = 0, frame = 8
 1209              		@ frame_needed = 1, uses_anonymous_args = 0
 1210 0000 80B5     		push	{r7, lr}
 1211              	.LCFI61:
 1212              		.cfi_def_cfa_offset 8
 1213              		.cfi_offset 7, -8
 1214              		.cfi_offset 14, -4
 1215 0002 82B0     		sub	sp, sp, #8
 1216              	.LCFI62:
 1217              		.cfi_def_cfa_offset 16
 1218 0004 00AF     		add	r7, sp, #0
 1219              	.LCFI63:
 1220              		.cfi_def_cfa_register 7
 1221 0006 7860     		str	r0, [r7, #4]
ARM GAS  C:\Users\49542\AppData\Local\Temp\ccb6xhB5.s 			page 28


 1222 0008 0B46     		mov	r3, r1
 1223 000a FB70     		strb	r3, [r7, #3]
 343:C:/Users/49542/Desktop/GD32F30x_Demo_Suites_V2.0.0/GD32F30x_Demo_Suites_V2.0.0/GD32F30x_Firmware_Library/GD32F30x_standard_peripheral/Source\gd32f30x_dma.c ****     if(ERROR == dma_periph_and_channel_check(dma_periph, channelx)){
 1224              		.loc 1 343 0
 1225 000c FB78     		ldrb	r3, [r7, #3]	@ zero_extendqisi2
 1226 000e 1946     		mov	r1, r3
 1227 0010 7868     		ldr	r0, [r7, #4]
 1228 0012 FFF7FEFF 		bl	dma_periph_and_channel_check
 1229 0016 0346     		mov	r3, r0
 1230 0018 002B     		cmp	r3, #0
 1231 001a 00D1     		bne	.L43
 1232              	.L44:
 344:C:/Users/49542/Desktop/GD32F30x_Demo_Suites_V2.0.0/GD32F30x_Demo_Suites_V2.0.0/GD32F30x_Firmware_Library/GD32F30x_standard_peripheral/Source\gd32f30x_dma.c ****         DMA_WRONG_HANDLE
 1233              		.loc 1 344 0 discriminator 1
 1234 001c FEE7     		b	.L44
 1235              	.L43:
 345:C:/Users/49542/Desktop/GD32F30x_Demo_Suites_V2.0.0/GD32F30x_Demo_Suites_V2.0.0/GD32F30x_Firmware_Library/GD32F30x_standard_peripheral/Source\gd32f30x_dma.c ****     }
 346:C:/Users/49542/Desktop/GD32F30x_Demo_Suites_V2.0.0/GD32F30x_Demo_Suites_V2.0.0/GD32F30x_Firmware_Library/GD32F30x_standard_peripheral/Source\gd32f30x_dma.c ****     
 347:C:/Users/49542/Desktop/GD32F30x_Demo_Suites_V2.0.0/GD32F30x_Demo_Suites_V2.0.0/GD32F30x_Firmware_Library/GD32F30x_standard_peripheral/Source\gd32f30x_dma.c ****     return (uint32_t)DMA_CHCNT(dma_periph, channelx);
 1236              		.loc 1 347 0
 1237 001e FA78     		ldrb	r2, [r7, #3]	@ zero_extendqisi2
 1238 0020 1346     		mov	r3, r2
 1239 0022 9B00     		lsls	r3, r3, #2
 1240 0024 1344     		add	r3, r3, r2
 1241 0026 9B00     		lsls	r3, r3, #2
 1242 0028 1A46     		mov	r2, r3
 1243 002a 7B68     		ldr	r3, [r7, #4]
 1244 002c 1344     		add	r3, r3, r2
 1245 002e 0C33     		adds	r3, r3, #12
 1246 0030 1B68     		ldr	r3, [r3]
 348:C:/Users/49542/Desktop/GD32F30x_Demo_Suites_V2.0.0/GD32F30x_Demo_Suites_V2.0.0/GD32F30x_Firmware_Library/GD32F30x_standard_peripheral/Source\gd32f30x_dma.c **** }
 1247              		.loc 1 348 0
 1248 0032 1846     		mov	r0, r3
 1249 0034 0837     		adds	r7, r7, #8
 1250              	.LCFI64:
 1251              		.cfi_def_cfa_offset 8
 1252 0036 BD46     		mov	sp, r7
 1253              	.LCFI65:
 1254              		.cfi_def_cfa_register 13
 1255              		@ sp needed
 1256 0038 80BD     		pop	{r7, pc}
 1257              		.cfi_endproc
 1258              	.LFE128:
 1260              		.section	.text.dma_priority_config,"ax",%progbits
 1261              		.align	1
 1262              		.global	dma_priority_config
 1263              		.syntax unified
 1264              		.thumb
 1265              		.thumb_func
 1266              		.fpu fpv4-sp-d16
 1268              	dma_priority_config:
 1269              	.LFB129:
 349:C:/Users/49542/Desktop/GD32F30x_Demo_Suites_V2.0.0/GD32F30x_Demo_Suites_V2.0.0/GD32F30x_Firmware_Library/GD32F30x_standard_peripheral/Source\gd32f30x_dma.c **** 
 350:C:/Users/49542/Desktop/GD32F30x_Demo_Suites_V2.0.0/GD32F30x_Demo_Suites_V2.0.0/GD32F30x_Firmware_Library/GD32F30x_standard_peripheral/Source\gd32f30x_dma.c **** /*!
 351:C:/Users/49542/Desktop/GD32F30x_Demo_Suites_V2.0.0/GD32F30x_Demo_Suites_V2.0.0/GD32F30x_Firmware_Library/GD32F30x_standard_peripheral/Source\gd32f30x_dma.c ****     \brief      configure priority level of DMA channel 
 352:C:/Users/49542/Desktop/GD32F30x_Demo_Suites_V2.0.0/GD32F30x_Demo_Suites_V2.0.0/GD32F30x_Firmware_Library/GD32F30x_standard_peripheral/Source\gd32f30x_dma.c ****     \param[in]  dma_periph: DMAx(x=0,1)
 353:C:/Users/49542/Desktop/GD32F30x_Demo_Suites_V2.0.0/GD32F30x_Demo_Suites_V2.0.0/GD32F30x_Firmware_Library/GD32F30x_standard_peripheral/Source\gd32f30x_dma.c ****       \arg        DMAx(x=0,1)
ARM GAS  C:\Users\49542\AppData\Local\Temp\ccb6xhB5.s 			page 29


 354:C:/Users/49542/Desktop/GD32F30x_Demo_Suites_V2.0.0/GD32F30x_Demo_Suites_V2.0.0/GD32F30x_Firmware_Library/GD32F30x_standard_peripheral/Source\gd32f30x_dma.c ****     \param[in]  channelx: specify which DMA channel 
 355:C:/Users/49542/Desktop/GD32F30x_Demo_Suites_V2.0.0/GD32F30x_Demo_Suites_V2.0.0/GD32F30x_Firmware_Library/GD32F30x_standard_peripheral/Source\gd32f30x_dma.c ****                 only one parameter can be selected which is shown as below:
 356:C:/Users/49542/Desktop/GD32F30x_Demo_Suites_V2.0.0/GD32F30x_Demo_Suites_V2.0.0/GD32F30x_Firmware_Library/GD32F30x_standard_peripheral/Source\gd32f30x_dma.c ****       \arg        DMA0: DMA_CHx(x=0..6), DMA1: DMA_CHx(x=0..4)
 357:C:/Users/49542/Desktop/GD32F30x_Demo_Suites_V2.0.0/GD32F30x_Demo_Suites_V2.0.0/GD32F30x_Firmware_Library/GD32F30x_standard_peripheral/Source\gd32f30x_dma.c ****     \param[in]  priority: priority Level of this channel
 358:C:/Users/49542/Desktop/GD32F30x_Demo_Suites_V2.0.0/GD32F30x_Demo_Suites_V2.0.0/GD32F30x_Firmware_Library/GD32F30x_standard_peripheral/Source\gd32f30x_dma.c ****                 only one parameter can be selected which is shown as below:
 359:C:/Users/49542/Desktop/GD32F30x_Demo_Suites_V2.0.0/GD32F30x_Demo_Suites_V2.0.0/GD32F30x_Firmware_Library/GD32F30x_standard_peripheral/Source\gd32f30x_dma.c ****       \arg        DMA_PRIORITY_LOW: low priority
 360:C:/Users/49542/Desktop/GD32F30x_Demo_Suites_V2.0.0/GD32F30x_Demo_Suites_V2.0.0/GD32F30x_Firmware_Library/GD32F30x_standard_peripheral/Source\gd32f30x_dma.c ****       \arg        DMA_PRIORITY_MEDIUM: medium priority
 361:C:/Users/49542/Desktop/GD32F30x_Demo_Suites_V2.0.0/GD32F30x_Demo_Suites_V2.0.0/GD32F30x_Firmware_Library/GD32F30x_standard_peripheral/Source\gd32f30x_dma.c ****       \arg        DMA_PRIORITY_HIGH: high priority
 362:C:/Users/49542/Desktop/GD32F30x_Demo_Suites_V2.0.0/GD32F30x_Demo_Suites_V2.0.0/GD32F30x_Firmware_Library/GD32F30x_standard_peripheral/Source\gd32f30x_dma.c ****       \arg        DMA_PRIORITY_ULTRA_HIGH: ultra high priority
 363:C:/Users/49542/Desktop/GD32F30x_Demo_Suites_V2.0.0/GD32F30x_Demo_Suites_V2.0.0/GD32F30x_Firmware_Library/GD32F30x_standard_peripheral/Source\gd32f30x_dma.c ****     \param[out] none
 364:C:/Users/49542/Desktop/GD32F30x_Demo_Suites_V2.0.0/GD32F30x_Demo_Suites_V2.0.0/GD32F30x_Firmware_Library/GD32F30x_standard_peripheral/Source\gd32f30x_dma.c ****     \retval     none 
 365:C:/Users/49542/Desktop/GD32F30x_Demo_Suites_V2.0.0/GD32F30x_Demo_Suites_V2.0.0/GD32F30x_Firmware_Library/GD32F30x_standard_peripheral/Source\gd32f30x_dma.c **** */
 366:C:/Users/49542/Desktop/GD32F30x_Demo_Suites_V2.0.0/GD32F30x_Demo_Suites_V2.0.0/GD32F30x_Firmware_Library/GD32F30x_standard_peripheral/Source\gd32f30x_dma.c **** void dma_priority_config(uint32_t dma_periph, dma_channel_enum channelx, uint32_t priority)
 367:C:/Users/49542/Desktop/GD32F30x_Demo_Suites_V2.0.0/GD32F30x_Demo_Suites_V2.0.0/GD32F30x_Firmware_Library/GD32F30x_standard_peripheral/Source\gd32f30x_dma.c **** {
 1270              		.loc 1 367 0
 1271              		.cfi_startproc
 1272              		@ args = 0, pretend = 0, frame = 24
 1273              		@ frame_needed = 1, uses_anonymous_args = 0
 1274 0000 80B5     		push	{r7, lr}
 1275              	.LCFI66:
 1276              		.cfi_def_cfa_offset 8
 1277              		.cfi_offset 7, -8
 1278              		.cfi_offset 14, -4
 1279 0002 86B0     		sub	sp, sp, #24
 1280              	.LCFI67:
 1281              		.cfi_def_cfa_offset 32
 1282 0004 00AF     		add	r7, sp, #0
 1283              	.LCFI68:
 1284              		.cfi_def_cfa_register 7
 1285 0006 F860     		str	r0, [r7, #12]
 1286 0008 0B46     		mov	r3, r1
 1287 000a 7A60     		str	r2, [r7, #4]
 1288 000c FB72     		strb	r3, [r7, #11]
 368:C:/Users/49542/Desktop/GD32F30x_Demo_Suites_V2.0.0/GD32F30x_Demo_Suites_V2.0.0/GD32F30x_Firmware_Library/GD32F30x_standard_peripheral/Source\gd32f30x_dma.c ****     uint32_t ctl;
 369:C:/Users/49542/Desktop/GD32F30x_Demo_Suites_V2.0.0/GD32F30x_Demo_Suites_V2.0.0/GD32F30x_Firmware_Library/GD32F30x_standard_peripheral/Source\gd32f30x_dma.c ****     
 370:C:/Users/49542/Desktop/GD32F30x_Demo_Suites_V2.0.0/GD32F30x_Demo_Suites_V2.0.0/GD32F30x_Firmware_Library/GD32F30x_standard_peripheral/Source\gd32f30x_dma.c ****     if(ERROR == dma_periph_and_channel_check(dma_periph, channelx)){
 1289              		.loc 1 370 0
 1290 000e FB7A     		ldrb	r3, [r7, #11]	@ zero_extendqisi2
 1291 0010 1946     		mov	r1, r3
 1292 0012 F868     		ldr	r0, [r7, #12]
 1293 0014 FFF7FEFF 		bl	dma_periph_and_channel_check
 1294 0018 0346     		mov	r3, r0
 1295 001a 002B     		cmp	r3, #0
 1296 001c 00D1     		bne	.L47
 1297              	.L48:
 371:C:/Users/49542/Desktop/GD32F30x_Demo_Suites_V2.0.0/GD32F30x_Demo_Suites_V2.0.0/GD32F30x_Firmware_Library/GD32F30x_standard_peripheral/Source\gd32f30x_dma.c ****         DMA_WRONG_HANDLE
 1298              		.loc 1 371 0 discriminator 1
 1299 001e FEE7     		b	.L48
 1300              	.L47:
 372:C:/Users/49542/Desktop/GD32F30x_Demo_Suites_V2.0.0/GD32F30x_Demo_Suites_V2.0.0/GD32F30x_Firmware_Library/GD32F30x_standard_peripheral/Source\gd32f30x_dma.c ****     }
 373:C:/Users/49542/Desktop/GD32F30x_Demo_Suites_V2.0.0/GD32F30x_Demo_Suites_V2.0.0/GD32F30x_Firmware_Library/GD32F30x_standard_peripheral/Source\gd32f30x_dma.c ****     
 374:C:/Users/49542/Desktop/GD32F30x_Demo_Suites_V2.0.0/GD32F30x_Demo_Suites_V2.0.0/GD32F30x_Firmware_Library/GD32F30x_standard_peripheral/Source\gd32f30x_dma.c ****     /* acquire DMA_CHxCTL register */
 375:C:/Users/49542/Desktop/GD32F30x_Demo_Suites_V2.0.0/GD32F30x_Demo_Suites_V2.0.0/GD32F30x_Firmware_Library/GD32F30x_standard_peripheral/Source\gd32f30x_dma.c ****     ctl = DMA_CHCTL(dma_periph, channelx);
 1301              		.loc 1 375 0
 1302 0020 FA7A     		ldrb	r2, [r7, #11]	@ zero_extendqisi2
 1303 0022 1346     		mov	r3, r2
 1304 0024 9B00     		lsls	r3, r3, #2
ARM GAS  C:\Users\49542\AppData\Local\Temp\ccb6xhB5.s 			page 30


 1305 0026 1344     		add	r3, r3, r2
 1306 0028 9B00     		lsls	r3, r3, #2
 1307 002a 1A46     		mov	r2, r3
 1308 002c FB68     		ldr	r3, [r7, #12]
 1309 002e 1344     		add	r3, r3, r2
 1310 0030 0833     		adds	r3, r3, #8
 1311 0032 1B68     		ldr	r3, [r3]
 1312 0034 7B61     		str	r3, [r7, #20]
 376:C:/Users/49542/Desktop/GD32F30x_Demo_Suites_V2.0.0/GD32F30x_Demo_Suites_V2.0.0/GD32F30x_Firmware_Library/GD32F30x_standard_peripheral/Source\gd32f30x_dma.c ****     /* assign regiser */
 377:C:/Users/49542/Desktop/GD32F30x_Demo_Suites_V2.0.0/GD32F30x_Demo_Suites_V2.0.0/GD32F30x_Firmware_Library/GD32F30x_standard_peripheral/Source\gd32f30x_dma.c ****     ctl &= ~DMA_CHXCTL_PRIO;
 1313              		.loc 1 377 0
 1314 0036 7B69     		ldr	r3, [r7, #20]
 1315 0038 23F44053 		bic	r3, r3, #12288
 1316 003c 7B61     		str	r3, [r7, #20]
 378:C:/Users/49542/Desktop/GD32F30x_Demo_Suites_V2.0.0/GD32F30x_Demo_Suites_V2.0.0/GD32F30x_Firmware_Library/GD32F30x_standard_peripheral/Source\gd32f30x_dma.c ****     ctl |= priority;
 1317              		.loc 1 378 0
 1318 003e 7A69     		ldr	r2, [r7, #20]
 1319 0040 7B68     		ldr	r3, [r7, #4]
 1320 0042 1343     		orrs	r3, r3, r2
 1321 0044 7B61     		str	r3, [r7, #20]
 379:C:/Users/49542/Desktop/GD32F30x_Demo_Suites_V2.0.0/GD32F30x_Demo_Suites_V2.0.0/GD32F30x_Firmware_Library/GD32F30x_standard_peripheral/Source\gd32f30x_dma.c ****     DMA_CHCTL(dma_periph, channelx) = ctl;
 1322              		.loc 1 379 0
 1323 0046 FA7A     		ldrb	r2, [r7, #11]	@ zero_extendqisi2
 1324 0048 1346     		mov	r3, r2
 1325 004a 9B00     		lsls	r3, r3, #2
 1326 004c 1344     		add	r3, r3, r2
 1327 004e 9B00     		lsls	r3, r3, #2
 1328 0050 1A46     		mov	r2, r3
 1329 0052 FB68     		ldr	r3, [r7, #12]
 1330 0054 1344     		add	r3, r3, r2
 1331 0056 0833     		adds	r3, r3, #8
 1332 0058 1A46     		mov	r2, r3
 1333 005a 7B69     		ldr	r3, [r7, #20]
 1334 005c 1360     		str	r3, [r2]
 380:C:/Users/49542/Desktop/GD32F30x_Demo_Suites_V2.0.0/GD32F30x_Demo_Suites_V2.0.0/GD32F30x_Firmware_Library/GD32F30x_standard_peripheral/Source\gd32f30x_dma.c **** }
 1335              		.loc 1 380 0
 1336 005e 00BF     		nop
 1337 0060 1837     		adds	r7, r7, #24
 1338              	.LCFI69:
 1339              		.cfi_def_cfa_offset 8
 1340 0062 BD46     		mov	sp, r7
 1341              	.LCFI70:
 1342              		.cfi_def_cfa_register 13
 1343              		@ sp needed
 1344 0064 80BD     		pop	{r7, pc}
 1345              		.cfi_endproc
 1346              	.LFE129:
 1348              		.section	.text.dma_memory_width_config,"ax",%progbits
 1349              		.align	1
 1350              		.global	dma_memory_width_config
 1351              		.syntax unified
 1352              		.thumb
 1353              		.thumb_func
 1354              		.fpu fpv4-sp-d16
 1356              	dma_memory_width_config:
 1357              	.LFB130:
 381:C:/Users/49542/Desktop/GD32F30x_Demo_Suites_V2.0.0/GD32F30x_Demo_Suites_V2.0.0/GD32F30x_Firmware_Library/GD32F30x_standard_peripheral/Source\gd32f30x_dma.c **** 
ARM GAS  C:\Users\49542\AppData\Local\Temp\ccb6xhB5.s 			page 31


 382:C:/Users/49542/Desktop/GD32F30x_Demo_Suites_V2.0.0/GD32F30x_Demo_Suites_V2.0.0/GD32F30x_Firmware_Library/GD32F30x_standard_peripheral/Source\gd32f30x_dma.c **** /*!
 383:C:/Users/49542/Desktop/GD32F30x_Demo_Suites_V2.0.0/GD32F30x_Demo_Suites_V2.0.0/GD32F30x_Firmware_Library/GD32F30x_standard_peripheral/Source\gd32f30x_dma.c ****     \brief      configure transfer data size of memory 
 384:C:/Users/49542/Desktop/GD32F30x_Demo_Suites_V2.0.0/GD32F30x_Demo_Suites_V2.0.0/GD32F30x_Firmware_Library/GD32F30x_standard_peripheral/Source\gd32f30x_dma.c ****     \param[in]  dma_periph: DMAx(x=0,1)
 385:C:/Users/49542/Desktop/GD32F30x_Demo_Suites_V2.0.0/GD32F30x_Demo_Suites_V2.0.0/GD32F30x_Firmware_Library/GD32F30x_standard_peripheral/Source\gd32f30x_dma.c ****       \arg        DMAx(x=0,1)
 386:C:/Users/49542/Desktop/GD32F30x_Demo_Suites_V2.0.0/GD32F30x_Demo_Suites_V2.0.0/GD32F30x_Firmware_Library/GD32F30x_standard_peripheral/Source\gd32f30x_dma.c ****     \param[in]  channelx: specify which DMA channel 
 387:C:/Users/49542/Desktop/GD32F30x_Demo_Suites_V2.0.0/GD32F30x_Demo_Suites_V2.0.0/GD32F30x_Firmware_Library/GD32F30x_standard_peripheral/Source\gd32f30x_dma.c ****                 only one parameter can be selected which is shown as below:
 388:C:/Users/49542/Desktop/GD32F30x_Demo_Suites_V2.0.0/GD32F30x_Demo_Suites_V2.0.0/GD32F30x_Firmware_Library/GD32F30x_standard_peripheral/Source\gd32f30x_dma.c ****       \arg        DMA0: DMA_CHx(x=0..6), DMA1: DMA_CHx(x=0..4)
 389:C:/Users/49542/Desktop/GD32F30x_Demo_Suites_V2.0.0/GD32F30x_Demo_Suites_V2.0.0/GD32F30x_Firmware_Library/GD32F30x_standard_peripheral/Source\gd32f30x_dma.c ****     \param[in]  mwidth: transfer data width of memory
 390:C:/Users/49542/Desktop/GD32F30x_Demo_Suites_V2.0.0/GD32F30x_Demo_Suites_V2.0.0/GD32F30x_Firmware_Library/GD32F30x_standard_peripheral/Source\gd32f30x_dma.c ****                 only one parameter can be selected which is shown as below:
 391:C:/Users/49542/Desktop/GD32F30x_Demo_Suites_V2.0.0/GD32F30x_Demo_Suites_V2.0.0/GD32F30x_Firmware_Library/GD32F30x_standard_peripheral/Source\gd32f30x_dma.c ****       \arg        DMA_MEMORY_WIDTH_8BIT: transfer data width of memory is 8-bit
 392:C:/Users/49542/Desktop/GD32F30x_Demo_Suites_V2.0.0/GD32F30x_Demo_Suites_V2.0.0/GD32F30x_Firmware_Library/GD32F30x_standard_peripheral/Source\gd32f30x_dma.c ****       \arg        DMA_MEMORY_WIDTH_16BIT: transfer data width of memory is 16-bit
 393:C:/Users/49542/Desktop/GD32F30x_Demo_Suites_V2.0.0/GD32F30x_Demo_Suites_V2.0.0/GD32F30x_Firmware_Library/GD32F30x_standard_peripheral/Source\gd32f30x_dma.c ****       \arg        DMA_MEMORY_WIDTH_32BIT: transfer data width of memory is 32-bit
 394:C:/Users/49542/Desktop/GD32F30x_Demo_Suites_V2.0.0/GD32F30x_Demo_Suites_V2.0.0/GD32F30x_Firmware_Library/GD32F30x_standard_peripheral/Source\gd32f30x_dma.c ****     \param[out] none
 395:C:/Users/49542/Desktop/GD32F30x_Demo_Suites_V2.0.0/GD32F30x_Demo_Suites_V2.0.0/GD32F30x_Firmware_Library/GD32F30x_standard_peripheral/Source\gd32f30x_dma.c ****     \retval     none
 396:C:/Users/49542/Desktop/GD32F30x_Demo_Suites_V2.0.0/GD32F30x_Demo_Suites_V2.0.0/GD32F30x_Firmware_Library/GD32F30x_standard_peripheral/Source\gd32f30x_dma.c **** */
 397:C:/Users/49542/Desktop/GD32F30x_Demo_Suites_V2.0.0/GD32F30x_Demo_Suites_V2.0.0/GD32F30x_Firmware_Library/GD32F30x_standard_peripheral/Source\gd32f30x_dma.c **** void dma_memory_width_config(uint32_t dma_periph, dma_channel_enum channelx, uint32_t mwidth)
 398:C:/Users/49542/Desktop/GD32F30x_Demo_Suites_V2.0.0/GD32F30x_Demo_Suites_V2.0.0/GD32F30x_Firmware_Library/GD32F30x_standard_peripheral/Source\gd32f30x_dma.c **** {
 1358              		.loc 1 398 0
 1359              		.cfi_startproc
 1360              		@ args = 0, pretend = 0, frame = 24
 1361              		@ frame_needed = 1, uses_anonymous_args = 0
 1362 0000 80B5     		push	{r7, lr}
 1363              	.LCFI71:
 1364              		.cfi_def_cfa_offset 8
 1365              		.cfi_offset 7, -8
 1366              		.cfi_offset 14, -4
 1367 0002 86B0     		sub	sp, sp, #24
 1368              	.LCFI72:
 1369              		.cfi_def_cfa_offset 32
 1370 0004 00AF     		add	r7, sp, #0
 1371              	.LCFI73:
 1372              		.cfi_def_cfa_register 7
 1373 0006 F860     		str	r0, [r7, #12]
 1374 0008 0B46     		mov	r3, r1
 1375 000a 7A60     		str	r2, [r7, #4]
 1376 000c FB72     		strb	r3, [r7, #11]
 399:C:/Users/49542/Desktop/GD32F30x_Demo_Suites_V2.0.0/GD32F30x_Demo_Suites_V2.0.0/GD32F30x_Firmware_Library/GD32F30x_standard_peripheral/Source\gd32f30x_dma.c ****     uint32_t ctl;
 400:C:/Users/49542/Desktop/GD32F30x_Demo_Suites_V2.0.0/GD32F30x_Demo_Suites_V2.0.0/GD32F30x_Firmware_Library/GD32F30x_standard_peripheral/Source\gd32f30x_dma.c ****     
 401:C:/Users/49542/Desktop/GD32F30x_Demo_Suites_V2.0.0/GD32F30x_Demo_Suites_V2.0.0/GD32F30x_Firmware_Library/GD32F30x_standard_peripheral/Source\gd32f30x_dma.c ****     if(ERROR == dma_periph_and_channel_check(dma_periph, channelx)){
 1377              		.loc 1 401 0
 1378 000e FB7A     		ldrb	r3, [r7, #11]	@ zero_extendqisi2
 1379 0010 1946     		mov	r1, r3
 1380 0012 F868     		ldr	r0, [r7, #12]
 1381 0014 FFF7FEFF 		bl	dma_periph_and_channel_check
 1382 0018 0346     		mov	r3, r0
 1383 001a 002B     		cmp	r3, #0
 1384 001c 00D1     		bne	.L50
 1385              	.L51:
 402:C:/Users/49542/Desktop/GD32F30x_Demo_Suites_V2.0.0/GD32F30x_Demo_Suites_V2.0.0/GD32F30x_Firmware_Library/GD32F30x_standard_peripheral/Source\gd32f30x_dma.c ****         DMA_WRONG_HANDLE
 1386              		.loc 1 402 0 discriminator 1
 1387 001e FEE7     		b	.L51
 1388              	.L50:
 403:C:/Users/49542/Desktop/GD32F30x_Demo_Suites_V2.0.0/GD32F30x_Demo_Suites_V2.0.0/GD32F30x_Firmware_Library/GD32F30x_standard_peripheral/Source\gd32f30x_dma.c ****     }
 404:C:/Users/49542/Desktop/GD32F30x_Demo_Suites_V2.0.0/GD32F30x_Demo_Suites_V2.0.0/GD32F30x_Firmware_Library/GD32F30x_standard_peripheral/Source\gd32f30x_dma.c ****     
 405:C:/Users/49542/Desktop/GD32F30x_Demo_Suites_V2.0.0/GD32F30x_Demo_Suites_V2.0.0/GD32F30x_Firmware_Library/GD32F30x_standard_peripheral/Source\gd32f30x_dma.c ****     /* acquire DMA_CHxCTL register */
 406:C:/Users/49542/Desktop/GD32F30x_Demo_Suites_V2.0.0/GD32F30x_Demo_Suites_V2.0.0/GD32F30x_Firmware_Library/GD32F30x_standard_peripheral/Source\gd32f30x_dma.c ****     ctl = DMA_CHCTL(dma_periph, channelx);
 1389              		.loc 1 406 0
ARM GAS  C:\Users\49542\AppData\Local\Temp\ccb6xhB5.s 			page 32


 1390 0020 FA7A     		ldrb	r2, [r7, #11]	@ zero_extendqisi2
 1391 0022 1346     		mov	r3, r2
 1392 0024 9B00     		lsls	r3, r3, #2
 1393 0026 1344     		add	r3, r3, r2
 1394 0028 9B00     		lsls	r3, r3, #2
 1395 002a 1A46     		mov	r2, r3
 1396 002c FB68     		ldr	r3, [r7, #12]
 1397 002e 1344     		add	r3, r3, r2
 1398 0030 0833     		adds	r3, r3, #8
 1399 0032 1B68     		ldr	r3, [r3]
 1400 0034 7B61     		str	r3, [r7, #20]
 407:C:/Users/49542/Desktop/GD32F30x_Demo_Suites_V2.0.0/GD32F30x_Demo_Suites_V2.0.0/GD32F30x_Firmware_Library/GD32F30x_standard_peripheral/Source\gd32f30x_dma.c ****     /* assign regiser */
 408:C:/Users/49542/Desktop/GD32F30x_Demo_Suites_V2.0.0/GD32F30x_Demo_Suites_V2.0.0/GD32F30x_Firmware_Library/GD32F30x_standard_peripheral/Source\gd32f30x_dma.c ****     ctl &= ~DMA_CHXCTL_MWIDTH;
 1401              		.loc 1 408 0
 1402 0036 7B69     		ldr	r3, [r7, #20]
 1403 0038 23F44063 		bic	r3, r3, #3072
 1404 003c 7B61     		str	r3, [r7, #20]
 409:C:/Users/49542/Desktop/GD32F30x_Demo_Suites_V2.0.0/GD32F30x_Demo_Suites_V2.0.0/GD32F30x_Firmware_Library/GD32F30x_standard_peripheral/Source\gd32f30x_dma.c ****     ctl |= mwidth;
 1405              		.loc 1 409 0
 1406 003e 7A69     		ldr	r2, [r7, #20]
 1407 0040 7B68     		ldr	r3, [r7, #4]
 1408 0042 1343     		orrs	r3, r3, r2
 1409 0044 7B61     		str	r3, [r7, #20]
 410:C:/Users/49542/Desktop/GD32F30x_Demo_Suites_V2.0.0/GD32F30x_Demo_Suites_V2.0.0/GD32F30x_Firmware_Library/GD32F30x_standard_peripheral/Source\gd32f30x_dma.c ****     DMA_CHCTL(dma_periph, channelx) = ctl;
 1410              		.loc 1 410 0
 1411 0046 FA7A     		ldrb	r2, [r7, #11]	@ zero_extendqisi2
 1412 0048 1346     		mov	r3, r2
 1413 004a 9B00     		lsls	r3, r3, #2
 1414 004c 1344     		add	r3, r3, r2
 1415 004e 9B00     		lsls	r3, r3, #2
 1416 0050 1A46     		mov	r2, r3
 1417 0052 FB68     		ldr	r3, [r7, #12]
 1418 0054 1344     		add	r3, r3, r2
 1419 0056 0833     		adds	r3, r3, #8
 1420 0058 1A46     		mov	r2, r3
 1421 005a 7B69     		ldr	r3, [r7, #20]
 1422 005c 1360     		str	r3, [r2]
 411:C:/Users/49542/Desktop/GD32F30x_Demo_Suites_V2.0.0/GD32F30x_Demo_Suites_V2.0.0/GD32F30x_Firmware_Library/GD32F30x_standard_peripheral/Source\gd32f30x_dma.c **** }
 1423              		.loc 1 411 0
 1424 005e 00BF     		nop
 1425 0060 1837     		adds	r7, r7, #24
 1426              	.LCFI74:
 1427              		.cfi_def_cfa_offset 8
 1428 0062 BD46     		mov	sp, r7
 1429              	.LCFI75:
 1430              		.cfi_def_cfa_register 13
 1431              		@ sp needed
 1432 0064 80BD     		pop	{r7, pc}
 1433              		.cfi_endproc
 1434              	.LFE130:
 1436              		.section	.text.dma_periph_width_config,"ax",%progbits
 1437              		.align	1
 1438              		.global	dma_periph_width_config
 1439              		.syntax unified
 1440              		.thumb
 1441              		.thumb_func
 1442              		.fpu fpv4-sp-d16
ARM GAS  C:\Users\49542\AppData\Local\Temp\ccb6xhB5.s 			page 33


 1444              	dma_periph_width_config:
 1445              	.LFB131:
 412:C:/Users/49542/Desktop/GD32F30x_Demo_Suites_V2.0.0/GD32F30x_Demo_Suites_V2.0.0/GD32F30x_Firmware_Library/GD32F30x_standard_peripheral/Source\gd32f30x_dma.c **** 
 413:C:/Users/49542/Desktop/GD32F30x_Demo_Suites_V2.0.0/GD32F30x_Demo_Suites_V2.0.0/GD32F30x_Firmware_Library/GD32F30x_standard_peripheral/Source\gd32f30x_dma.c **** /*!
 414:C:/Users/49542/Desktop/GD32F30x_Demo_Suites_V2.0.0/GD32F30x_Demo_Suites_V2.0.0/GD32F30x_Firmware_Library/GD32F30x_standard_peripheral/Source\gd32f30x_dma.c ****     \brief      configure transfer data size of peripheral 
 415:C:/Users/49542/Desktop/GD32F30x_Demo_Suites_V2.0.0/GD32F30x_Demo_Suites_V2.0.0/GD32F30x_Firmware_Library/GD32F30x_standard_peripheral/Source\gd32f30x_dma.c ****     \param[in]  dma_periph: DMAx(x=0,1)
 416:C:/Users/49542/Desktop/GD32F30x_Demo_Suites_V2.0.0/GD32F30x_Demo_Suites_V2.0.0/GD32F30x_Firmware_Library/GD32F30x_standard_peripheral/Source\gd32f30x_dma.c ****       \arg        DMAx(x=0,1)
 417:C:/Users/49542/Desktop/GD32F30x_Demo_Suites_V2.0.0/GD32F30x_Demo_Suites_V2.0.0/GD32F30x_Firmware_Library/GD32F30x_standard_peripheral/Source\gd32f30x_dma.c ****     \param[in]  channelx: specify which DMA channel 
 418:C:/Users/49542/Desktop/GD32F30x_Demo_Suites_V2.0.0/GD32F30x_Demo_Suites_V2.0.0/GD32F30x_Firmware_Library/GD32F30x_standard_peripheral/Source\gd32f30x_dma.c ****                 only one parameter can be selected which is shown as below:
 419:C:/Users/49542/Desktop/GD32F30x_Demo_Suites_V2.0.0/GD32F30x_Demo_Suites_V2.0.0/GD32F30x_Firmware_Library/GD32F30x_standard_peripheral/Source\gd32f30x_dma.c ****       \arg        DMA0: DMA_CHx(x=0..6), DMA1: DMA_CHx(x=0..4)
 420:C:/Users/49542/Desktop/GD32F30x_Demo_Suites_V2.0.0/GD32F30x_Demo_Suites_V2.0.0/GD32F30x_Firmware_Library/GD32F30x_standard_peripheral/Source\gd32f30x_dma.c ****     \param[in]  pwidth: transfer data width of peripheral
 421:C:/Users/49542/Desktop/GD32F30x_Demo_Suites_V2.0.0/GD32F30x_Demo_Suites_V2.0.0/GD32F30x_Firmware_Library/GD32F30x_standard_peripheral/Source\gd32f30x_dma.c ****                 only one parameter can be selected which is shown as below:
 422:C:/Users/49542/Desktop/GD32F30x_Demo_Suites_V2.0.0/GD32F30x_Demo_Suites_V2.0.0/GD32F30x_Firmware_Library/GD32F30x_standard_peripheral/Source\gd32f30x_dma.c ****       \arg        DMA_PERIPHERAL_WIDTH_8BIT: transfer data width of peripheral is 8-bit
 423:C:/Users/49542/Desktop/GD32F30x_Demo_Suites_V2.0.0/GD32F30x_Demo_Suites_V2.0.0/GD32F30x_Firmware_Library/GD32F30x_standard_peripheral/Source\gd32f30x_dma.c ****       \arg        DMA_PERIPHERAL_WIDTH_16BIT: transfer data width of peripheral is 16-bit
 424:C:/Users/49542/Desktop/GD32F30x_Demo_Suites_V2.0.0/GD32F30x_Demo_Suites_V2.0.0/GD32F30x_Firmware_Library/GD32F30x_standard_peripheral/Source\gd32f30x_dma.c ****       \arg        DMA_PERIPHERAL_WIDTH_32BIT: transfer data width of peripheral is 32-bit
 425:C:/Users/49542/Desktop/GD32F30x_Demo_Suites_V2.0.0/GD32F30x_Demo_Suites_V2.0.0/GD32F30x_Firmware_Library/GD32F30x_standard_peripheral/Source\gd32f30x_dma.c ****     \param[out] none
 426:C:/Users/49542/Desktop/GD32F30x_Demo_Suites_V2.0.0/GD32F30x_Demo_Suites_V2.0.0/GD32F30x_Firmware_Library/GD32F30x_standard_peripheral/Source\gd32f30x_dma.c ****     \retval     none
 427:C:/Users/49542/Desktop/GD32F30x_Demo_Suites_V2.0.0/GD32F30x_Demo_Suites_V2.0.0/GD32F30x_Firmware_Library/GD32F30x_standard_peripheral/Source\gd32f30x_dma.c **** */
 428:C:/Users/49542/Desktop/GD32F30x_Demo_Suites_V2.0.0/GD32F30x_Demo_Suites_V2.0.0/GD32F30x_Firmware_Library/GD32F30x_standard_peripheral/Source\gd32f30x_dma.c **** void dma_periph_width_config (uint32_t dma_periph, dma_channel_enum channelx, uint32_t pwidth)
 429:C:/Users/49542/Desktop/GD32F30x_Demo_Suites_V2.0.0/GD32F30x_Demo_Suites_V2.0.0/GD32F30x_Firmware_Library/GD32F30x_standard_peripheral/Source\gd32f30x_dma.c **** {
 1446              		.loc 1 429 0
 1447              		.cfi_startproc
 1448              		@ args = 0, pretend = 0, frame = 24
 1449              		@ frame_needed = 1, uses_anonymous_args = 0
 1450 0000 80B5     		push	{r7, lr}
 1451              	.LCFI76:
 1452              		.cfi_def_cfa_offset 8
 1453              		.cfi_offset 7, -8
 1454              		.cfi_offset 14, -4
 1455 0002 86B0     		sub	sp, sp, #24
 1456              	.LCFI77:
 1457              		.cfi_def_cfa_offset 32
 1458 0004 00AF     		add	r7, sp, #0
 1459              	.LCFI78:
 1460              		.cfi_def_cfa_register 7
 1461 0006 F860     		str	r0, [r7, #12]
 1462 0008 0B46     		mov	r3, r1
 1463 000a 7A60     		str	r2, [r7, #4]
 1464 000c FB72     		strb	r3, [r7, #11]
 430:C:/Users/49542/Desktop/GD32F30x_Demo_Suites_V2.0.0/GD32F30x_Demo_Suites_V2.0.0/GD32F30x_Firmware_Library/GD32F30x_standard_peripheral/Source\gd32f30x_dma.c ****     uint32_t ctl;
 431:C:/Users/49542/Desktop/GD32F30x_Demo_Suites_V2.0.0/GD32F30x_Demo_Suites_V2.0.0/GD32F30x_Firmware_Library/GD32F30x_standard_peripheral/Source\gd32f30x_dma.c ****     
 432:C:/Users/49542/Desktop/GD32F30x_Demo_Suites_V2.0.0/GD32F30x_Demo_Suites_V2.0.0/GD32F30x_Firmware_Library/GD32F30x_standard_peripheral/Source\gd32f30x_dma.c ****     if(ERROR == dma_periph_and_channel_check(dma_periph, channelx)){
 1465              		.loc 1 432 0
 1466 000e FB7A     		ldrb	r3, [r7, #11]	@ zero_extendqisi2
 1467 0010 1946     		mov	r1, r3
 1468 0012 F868     		ldr	r0, [r7, #12]
 1469 0014 FFF7FEFF 		bl	dma_periph_and_channel_check
 1470 0018 0346     		mov	r3, r0
 1471 001a 002B     		cmp	r3, #0
 1472 001c 00D1     		bne	.L53
 1473              	.L54:
 433:C:/Users/49542/Desktop/GD32F30x_Demo_Suites_V2.0.0/GD32F30x_Demo_Suites_V2.0.0/GD32F30x_Firmware_Library/GD32F30x_standard_peripheral/Source\gd32f30x_dma.c ****         DMA_WRONG_HANDLE
 1474              		.loc 1 433 0 discriminator 1
 1475 001e FEE7     		b	.L54
 1476              	.L53:
 434:C:/Users/49542/Desktop/GD32F30x_Demo_Suites_V2.0.0/GD32F30x_Demo_Suites_V2.0.0/GD32F30x_Firmware_Library/GD32F30x_standard_peripheral/Source\gd32f30x_dma.c ****     }
 435:C:/Users/49542/Desktop/GD32F30x_Demo_Suites_V2.0.0/GD32F30x_Demo_Suites_V2.0.0/GD32F30x_Firmware_Library/GD32F30x_standard_peripheral/Source\gd32f30x_dma.c ****     
ARM GAS  C:\Users\49542\AppData\Local\Temp\ccb6xhB5.s 			page 34


 436:C:/Users/49542/Desktop/GD32F30x_Demo_Suites_V2.0.0/GD32F30x_Demo_Suites_V2.0.0/GD32F30x_Firmware_Library/GD32F30x_standard_peripheral/Source\gd32f30x_dma.c ****     /* acquire DMA_CHxCTL register */
 437:C:/Users/49542/Desktop/GD32F30x_Demo_Suites_V2.0.0/GD32F30x_Demo_Suites_V2.0.0/GD32F30x_Firmware_Library/GD32F30x_standard_peripheral/Source\gd32f30x_dma.c ****     ctl = DMA_CHCTL(dma_periph, channelx);
 1477              		.loc 1 437 0
 1478 0020 FA7A     		ldrb	r2, [r7, #11]	@ zero_extendqisi2
 1479 0022 1346     		mov	r3, r2
 1480 0024 9B00     		lsls	r3, r3, #2
 1481 0026 1344     		add	r3, r3, r2
 1482 0028 9B00     		lsls	r3, r3, #2
 1483 002a 1A46     		mov	r2, r3
 1484 002c FB68     		ldr	r3, [r7, #12]
 1485 002e 1344     		add	r3, r3, r2
 1486 0030 0833     		adds	r3, r3, #8
 1487 0032 1B68     		ldr	r3, [r3]
 1488 0034 7B61     		str	r3, [r7, #20]
 438:C:/Users/49542/Desktop/GD32F30x_Demo_Suites_V2.0.0/GD32F30x_Demo_Suites_V2.0.0/GD32F30x_Firmware_Library/GD32F30x_standard_peripheral/Source\gd32f30x_dma.c ****     /* assign regiser */
 439:C:/Users/49542/Desktop/GD32F30x_Demo_Suites_V2.0.0/GD32F30x_Demo_Suites_V2.0.0/GD32F30x_Firmware_Library/GD32F30x_standard_peripheral/Source\gd32f30x_dma.c ****     ctl &= ~DMA_CHXCTL_PWIDTH;
 1489              		.loc 1 439 0
 1490 0036 7B69     		ldr	r3, [r7, #20]
 1491 0038 23F44073 		bic	r3, r3, #768
 1492 003c 7B61     		str	r3, [r7, #20]
 440:C:/Users/49542/Desktop/GD32F30x_Demo_Suites_V2.0.0/GD32F30x_Demo_Suites_V2.0.0/GD32F30x_Firmware_Library/GD32F30x_standard_peripheral/Source\gd32f30x_dma.c ****     ctl |= pwidth;
 1493              		.loc 1 440 0
 1494 003e 7A69     		ldr	r2, [r7, #20]
 1495 0040 7B68     		ldr	r3, [r7, #4]
 1496 0042 1343     		orrs	r3, r3, r2
 1497 0044 7B61     		str	r3, [r7, #20]
 441:C:/Users/49542/Desktop/GD32F30x_Demo_Suites_V2.0.0/GD32F30x_Demo_Suites_V2.0.0/GD32F30x_Firmware_Library/GD32F30x_standard_peripheral/Source\gd32f30x_dma.c ****     DMA_CHCTL(dma_periph, channelx) = ctl;
 1498              		.loc 1 441 0
 1499 0046 FA7A     		ldrb	r2, [r7, #11]	@ zero_extendqisi2
 1500 0048 1346     		mov	r3, r2
 1501 004a 9B00     		lsls	r3, r3, #2
 1502 004c 1344     		add	r3, r3, r2
 1503 004e 9B00     		lsls	r3, r3, #2
 1504 0050 1A46     		mov	r2, r3
 1505 0052 FB68     		ldr	r3, [r7, #12]
 1506 0054 1344     		add	r3, r3, r2
 1507 0056 0833     		adds	r3, r3, #8
 1508 0058 1A46     		mov	r2, r3
 1509 005a 7B69     		ldr	r3, [r7, #20]
 1510 005c 1360     		str	r3, [r2]
 442:C:/Users/49542/Desktop/GD32F30x_Demo_Suites_V2.0.0/GD32F30x_Demo_Suites_V2.0.0/GD32F30x_Firmware_Library/GD32F30x_standard_peripheral/Source\gd32f30x_dma.c **** }
 1511              		.loc 1 442 0
 1512 005e 00BF     		nop
 1513 0060 1837     		adds	r7, r7, #24
 1514              	.LCFI79:
 1515              		.cfi_def_cfa_offset 8
 1516 0062 BD46     		mov	sp, r7
 1517              	.LCFI80:
 1518              		.cfi_def_cfa_register 13
 1519              		@ sp needed
 1520 0064 80BD     		pop	{r7, pc}
 1521              		.cfi_endproc
 1522              	.LFE131:
 1524              		.section	.text.dma_memory_increase_enable,"ax",%progbits
 1525              		.align	1
 1526              		.global	dma_memory_increase_enable
 1527              		.syntax unified
ARM GAS  C:\Users\49542\AppData\Local\Temp\ccb6xhB5.s 			page 35


 1528              		.thumb
 1529              		.thumb_func
 1530              		.fpu fpv4-sp-d16
 1532              	dma_memory_increase_enable:
 1533              	.LFB132:
 443:C:/Users/49542/Desktop/GD32F30x_Demo_Suites_V2.0.0/GD32F30x_Demo_Suites_V2.0.0/GD32F30x_Firmware_Library/GD32F30x_standard_peripheral/Source\gd32f30x_dma.c **** 
 444:C:/Users/49542/Desktop/GD32F30x_Demo_Suites_V2.0.0/GD32F30x_Demo_Suites_V2.0.0/GD32F30x_Firmware_Library/GD32F30x_standard_peripheral/Source\gd32f30x_dma.c **** /*!
 445:C:/Users/49542/Desktop/GD32F30x_Demo_Suites_V2.0.0/GD32F30x_Demo_Suites_V2.0.0/GD32F30x_Firmware_Library/GD32F30x_standard_peripheral/Source\gd32f30x_dma.c ****     \brief      enable next address increasement algorithm of memory  
 446:C:/Users/49542/Desktop/GD32F30x_Demo_Suites_V2.0.0/GD32F30x_Demo_Suites_V2.0.0/GD32F30x_Firmware_Library/GD32F30x_standard_peripheral/Source\gd32f30x_dma.c ****     \param[in]  dma_periph: DMAx(x=0,1)
 447:C:/Users/49542/Desktop/GD32F30x_Demo_Suites_V2.0.0/GD32F30x_Demo_Suites_V2.0.0/GD32F30x_Firmware_Library/GD32F30x_standard_peripheral/Source\gd32f30x_dma.c ****       \arg        DMAx(x=0,1)
 448:C:/Users/49542/Desktop/GD32F30x_Demo_Suites_V2.0.0/GD32F30x_Demo_Suites_V2.0.0/GD32F30x_Firmware_Library/GD32F30x_standard_peripheral/Source\gd32f30x_dma.c ****     \param[in]  channelx: specify which DMA channel 
 449:C:/Users/49542/Desktop/GD32F30x_Demo_Suites_V2.0.0/GD32F30x_Demo_Suites_V2.0.0/GD32F30x_Firmware_Library/GD32F30x_standard_peripheral/Source\gd32f30x_dma.c ****                 only one parameter can be selected which is shown as below:
 450:C:/Users/49542/Desktop/GD32F30x_Demo_Suites_V2.0.0/GD32F30x_Demo_Suites_V2.0.0/GD32F30x_Firmware_Library/GD32F30x_standard_peripheral/Source\gd32f30x_dma.c ****       \arg        DMA0: DMA_CHx(x=0..6), DMA1: DMA_CHx(x=0..4)
 451:C:/Users/49542/Desktop/GD32F30x_Demo_Suites_V2.0.0/GD32F30x_Demo_Suites_V2.0.0/GD32F30x_Firmware_Library/GD32F30x_standard_peripheral/Source\gd32f30x_dma.c ****     \param[out] none
 452:C:/Users/49542/Desktop/GD32F30x_Demo_Suites_V2.0.0/GD32F30x_Demo_Suites_V2.0.0/GD32F30x_Firmware_Library/GD32F30x_standard_peripheral/Source\gd32f30x_dma.c ****     \retval     none
 453:C:/Users/49542/Desktop/GD32F30x_Demo_Suites_V2.0.0/GD32F30x_Demo_Suites_V2.0.0/GD32F30x_Firmware_Library/GD32F30x_standard_peripheral/Source\gd32f30x_dma.c **** */
 454:C:/Users/49542/Desktop/GD32F30x_Demo_Suites_V2.0.0/GD32F30x_Demo_Suites_V2.0.0/GD32F30x_Firmware_Library/GD32F30x_standard_peripheral/Source\gd32f30x_dma.c **** void dma_memory_increase_enable(uint32_t dma_periph, dma_channel_enum channelx)
 455:C:/Users/49542/Desktop/GD32F30x_Demo_Suites_V2.0.0/GD32F30x_Demo_Suites_V2.0.0/GD32F30x_Firmware_Library/GD32F30x_standard_peripheral/Source\gd32f30x_dma.c **** {
 1534              		.loc 1 455 0
 1535              		.cfi_startproc
 1536              		@ args = 0, pretend = 0, frame = 8
 1537              		@ frame_needed = 1, uses_anonymous_args = 0
 1538 0000 80B5     		push	{r7, lr}
 1539              	.LCFI81:
 1540              		.cfi_def_cfa_offset 8
 1541              		.cfi_offset 7, -8
 1542              		.cfi_offset 14, -4
 1543 0002 82B0     		sub	sp, sp, #8
 1544              	.LCFI82:
 1545              		.cfi_def_cfa_offset 16
 1546 0004 00AF     		add	r7, sp, #0
 1547              	.LCFI83:
 1548              		.cfi_def_cfa_register 7
 1549 0006 7860     		str	r0, [r7, #4]
 1550 0008 0B46     		mov	r3, r1
 1551 000a FB70     		strb	r3, [r7, #3]
 456:C:/Users/49542/Desktop/GD32F30x_Demo_Suites_V2.0.0/GD32F30x_Demo_Suites_V2.0.0/GD32F30x_Firmware_Library/GD32F30x_standard_peripheral/Source\gd32f30x_dma.c ****     if(ERROR == dma_periph_and_channel_check(dma_periph, channelx)){
 1552              		.loc 1 456 0
 1553 000c FB78     		ldrb	r3, [r7, #3]	@ zero_extendqisi2
 1554 000e 1946     		mov	r1, r3
 1555 0010 7868     		ldr	r0, [r7, #4]
 1556 0012 FFF7FEFF 		bl	dma_periph_and_channel_check
 1557 0016 0346     		mov	r3, r0
 1558 0018 002B     		cmp	r3, #0
 1559 001a 00D1     		bne	.L56
 1560              	.L57:
 457:C:/Users/49542/Desktop/GD32F30x_Demo_Suites_V2.0.0/GD32F30x_Demo_Suites_V2.0.0/GD32F30x_Firmware_Library/GD32F30x_standard_peripheral/Source\gd32f30x_dma.c ****         DMA_WRONG_HANDLE
 1561              		.loc 1 457 0 discriminator 1
 1562 001c FEE7     		b	.L57
 1563              	.L56:
 458:C:/Users/49542/Desktop/GD32F30x_Demo_Suites_V2.0.0/GD32F30x_Demo_Suites_V2.0.0/GD32F30x_Firmware_Library/GD32F30x_standard_peripheral/Source\gd32f30x_dma.c ****     }
 459:C:/Users/49542/Desktop/GD32F30x_Demo_Suites_V2.0.0/GD32F30x_Demo_Suites_V2.0.0/GD32F30x_Firmware_Library/GD32F30x_standard_peripheral/Source\gd32f30x_dma.c ****     
 460:C:/Users/49542/Desktop/GD32F30x_Demo_Suites_V2.0.0/GD32F30x_Demo_Suites_V2.0.0/GD32F30x_Firmware_Library/GD32F30x_standard_peripheral/Source\gd32f30x_dma.c ****     DMA_CHCTL(dma_periph, channelx) |= DMA_CHXCTL_MNAGA;
 1564              		.loc 1 460 0
 1565 001e FA78     		ldrb	r2, [r7, #3]	@ zero_extendqisi2
 1566 0020 1346     		mov	r3, r2
 1567 0022 9B00     		lsls	r3, r3, #2
ARM GAS  C:\Users\49542\AppData\Local\Temp\ccb6xhB5.s 			page 36


 1568 0024 1344     		add	r3, r3, r2
 1569 0026 9B00     		lsls	r3, r3, #2
 1570 0028 1A46     		mov	r2, r3
 1571 002a 7B68     		ldr	r3, [r7, #4]
 1572 002c 1344     		add	r3, r3, r2
 1573 002e 0833     		adds	r3, r3, #8
 1574 0030 1968     		ldr	r1, [r3]
 1575 0032 FA78     		ldrb	r2, [r7, #3]	@ zero_extendqisi2
 1576 0034 1346     		mov	r3, r2
 1577 0036 9B00     		lsls	r3, r3, #2
 1578 0038 1344     		add	r3, r3, r2
 1579 003a 9B00     		lsls	r3, r3, #2
 1580 003c 1A46     		mov	r2, r3
 1581 003e 7B68     		ldr	r3, [r7, #4]
 1582 0040 1344     		add	r3, r3, r2
 1583 0042 0833     		adds	r3, r3, #8
 1584 0044 1A46     		mov	r2, r3
 1585 0046 41F08003 		orr	r3, r1, #128
 1586 004a 1360     		str	r3, [r2]
 461:C:/Users/49542/Desktop/GD32F30x_Demo_Suites_V2.0.0/GD32F30x_Demo_Suites_V2.0.0/GD32F30x_Firmware_Library/GD32F30x_standard_peripheral/Source\gd32f30x_dma.c **** }
 1587              		.loc 1 461 0
 1588 004c 00BF     		nop
 1589 004e 0837     		adds	r7, r7, #8
 1590              	.LCFI84:
 1591              		.cfi_def_cfa_offset 8
 1592 0050 BD46     		mov	sp, r7
 1593              	.LCFI85:
 1594              		.cfi_def_cfa_register 13
 1595              		@ sp needed
 1596 0052 80BD     		pop	{r7, pc}
 1597              		.cfi_endproc
 1598              	.LFE132:
 1600              		.section	.text.dma_memory_increase_disable,"ax",%progbits
 1601              		.align	1
 1602              		.global	dma_memory_increase_disable
 1603              		.syntax unified
 1604              		.thumb
 1605              		.thumb_func
 1606              		.fpu fpv4-sp-d16
 1608              	dma_memory_increase_disable:
 1609              	.LFB133:
 462:C:/Users/49542/Desktop/GD32F30x_Demo_Suites_V2.0.0/GD32F30x_Demo_Suites_V2.0.0/GD32F30x_Firmware_Library/GD32F30x_standard_peripheral/Source\gd32f30x_dma.c **** 
 463:C:/Users/49542/Desktop/GD32F30x_Demo_Suites_V2.0.0/GD32F30x_Demo_Suites_V2.0.0/GD32F30x_Firmware_Library/GD32F30x_standard_peripheral/Source\gd32f30x_dma.c **** /*!
 464:C:/Users/49542/Desktop/GD32F30x_Demo_Suites_V2.0.0/GD32F30x_Demo_Suites_V2.0.0/GD32F30x_Firmware_Library/GD32F30x_standard_peripheral/Source\gd32f30x_dma.c ****     \brief      disable next address increasement algorithm of memory  
 465:C:/Users/49542/Desktop/GD32F30x_Demo_Suites_V2.0.0/GD32F30x_Demo_Suites_V2.0.0/GD32F30x_Firmware_Library/GD32F30x_standard_peripheral/Source\gd32f30x_dma.c ****     \param[in]  dma_periph: DMAx(x=0,1)
 466:C:/Users/49542/Desktop/GD32F30x_Demo_Suites_V2.0.0/GD32F30x_Demo_Suites_V2.0.0/GD32F30x_Firmware_Library/GD32F30x_standard_peripheral/Source\gd32f30x_dma.c ****       \arg        DMAx(x=0,1)
 467:C:/Users/49542/Desktop/GD32F30x_Demo_Suites_V2.0.0/GD32F30x_Demo_Suites_V2.0.0/GD32F30x_Firmware_Library/GD32F30x_standard_peripheral/Source\gd32f30x_dma.c ****     \param[in]  channelx: specify which DMA channel 
 468:C:/Users/49542/Desktop/GD32F30x_Demo_Suites_V2.0.0/GD32F30x_Demo_Suites_V2.0.0/GD32F30x_Firmware_Library/GD32F30x_standard_peripheral/Source\gd32f30x_dma.c ****                 only one parameter can be selected which is shown as below:
 469:C:/Users/49542/Desktop/GD32F30x_Demo_Suites_V2.0.0/GD32F30x_Demo_Suites_V2.0.0/GD32F30x_Firmware_Library/GD32F30x_standard_peripheral/Source\gd32f30x_dma.c ****       \arg        DMA0: DMA_CHx(x=0..6), DMA1: DMA_CHx(x=0..4)
 470:C:/Users/49542/Desktop/GD32F30x_Demo_Suites_V2.0.0/GD32F30x_Demo_Suites_V2.0.0/GD32F30x_Firmware_Library/GD32F30x_standard_peripheral/Source\gd32f30x_dma.c ****     \param[out] none
 471:C:/Users/49542/Desktop/GD32F30x_Demo_Suites_V2.0.0/GD32F30x_Demo_Suites_V2.0.0/GD32F30x_Firmware_Library/GD32F30x_standard_peripheral/Source\gd32f30x_dma.c ****     \retval     none
 472:C:/Users/49542/Desktop/GD32F30x_Demo_Suites_V2.0.0/GD32F30x_Demo_Suites_V2.0.0/GD32F30x_Firmware_Library/GD32F30x_standard_peripheral/Source\gd32f30x_dma.c **** */
 473:C:/Users/49542/Desktop/GD32F30x_Demo_Suites_V2.0.0/GD32F30x_Demo_Suites_V2.0.0/GD32F30x_Firmware_Library/GD32F30x_standard_peripheral/Source\gd32f30x_dma.c **** void dma_memory_increase_disable(uint32_t dma_periph, dma_channel_enum channelx)
 474:C:/Users/49542/Desktop/GD32F30x_Demo_Suites_V2.0.0/GD32F30x_Demo_Suites_V2.0.0/GD32F30x_Firmware_Library/GD32F30x_standard_peripheral/Source\gd32f30x_dma.c **** {
 1610              		.loc 1 474 0
 1611              		.cfi_startproc
 1612              		@ args = 0, pretend = 0, frame = 8
ARM GAS  C:\Users\49542\AppData\Local\Temp\ccb6xhB5.s 			page 37


 1613              		@ frame_needed = 1, uses_anonymous_args = 0
 1614 0000 80B5     		push	{r7, lr}
 1615              	.LCFI86:
 1616              		.cfi_def_cfa_offset 8
 1617              		.cfi_offset 7, -8
 1618              		.cfi_offset 14, -4
 1619 0002 82B0     		sub	sp, sp, #8
 1620              	.LCFI87:
 1621              		.cfi_def_cfa_offset 16
 1622 0004 00AF     		add	r7, sp, #0
 1623              	.LCFI88:
 1624              		.cfi_def_cfa_register 7
 1625 0006 7860     		str	r0, [r7, #4]
 1626 0008 0B46     		mov	r3, r1
 1627 000a FB70     		strb	r3, [r7, #3]
 475:C:/Users/49542/Desktop/GD32F30x_Demo_Suites_V2.0.0/GD32F30x_Demo_Suites_V2.0.0/GD32F30x_Firmware_Library/GD32F30x_standard_peripheral/Source\gd32f30x_dma.c ****     if(ERROR == dma_periph_and_channel_check(dma_periph, channelx)){
 1628              		.loc 1 475 0
 1629 000c FB78     		ldrb	r3, [r7, #3]	@ zero_extendqisi2
 1630 000e 1946     		mov	r1, r3
 1631 0010 7868     		ldr	r0, [r7, #4]
 1632 0012 FFF7FEFF 		bl	dma_periph_and_channel_check
 1633 0016 0346     		mov	r3, r0
 1634 0018 002B     		cmp	r3, #0
 1635 001a 00D1     		bne	.L59
 1636              	.L60:
 476:C:/Users/49542/Desktop/GD32F30x_Demo_Suites_V2.0.0/GD32F30x_Demo_Suites_V2.0.0/GD32F30x_Firmware_Library/GD32F30x_standard_peripheral/Source\gd32f30x_dma.c ****         DMA_WRONG_HANDLE
 1637              		.loc 1 476 0 discriminator 1
 1638 001c FEE7     		b	.L60
 1639              	.L59:
 477:C:/Users/49542/Desktop/GD32F30x_Demo_Suites_V2.0.0/GD32F30x_Demo_Suites_V2.0.0/GD32F30x_Firmware_Library/GD32F30x_standard_peripheral/Source\gd32f30x_dma.c ****     }
 478:C:/Users/49542/Desktop/GD32F30x_Demo_Suites_V2.0.0/GD32F30x_Demo_Suites_V2.0.0/GD32F30x_Firmware_Library/GD32F30x_standard_peripheral/Source\gd32f30x_dma.c ****     
 479:C:/Users/49542/Desktop/GD32F30x_Demo_Suites_V2.0.0/GD32F30x_Demo_Suites_V2.0.0/GD32F30x_Firmware_Library/GD32F30x_standard_peripheral/Source\gd32f30x_dma.c ****     DMA_CHCTL(dma_periph, channelx) &= ~DMA_CHXCTL_MNAGA;
 1640              		.loc 1 479 0
 1641 001e FA78     		ldrb	r2, [r7, #3]	@ zero_extendqisi2
 1642 0020 1346     		mov	r3, r2
 1643 0022 9B00     		lsls	r3, r3, #2
 1644 0024 1344     		add	r3, r3, r2
 1645 0026 9B00     		lsls	r3, r3, #2
 1646 0028 1A46     		mov	r2, r3
 1647 002a 7B68     		ldr	r3, [r7, #4]
 1648 002c 1344     		add	r3, r3, r2
 1649 002e 0833     		adds	r3, r3, #8
 1650 0030 1968     		ldr	r1, [r3]
 1651 0032 FA78     		ldrb	r2, [r7, #3]	@ zero_extendqisi2
 1652 0034 1346     		mov	r3, r2
 1653 0036 9B00     		lsls	r3, r3, #2
 1654 0038 1344     		add	r3, r3, r2
 1655 003a 9B00     		lsls	r3, r3, #2
 1656 003c 1A46     		mov	r2, r3
 1657 003e 7B68     		ldr	r3, [r7, #4]
 1658 0040 1344     		add	r3, r3, r2
 1659 0042 0833     		adds	r3, r3, #8
 1660 0044 1A46     		mov	r2, r3
 1661 0046 21F08003 		bic	r3, r1, #128
 1662 004a 1360     		str	r3, [r2]
 480:C:/Users/49542/Desktop/GD32F30x_Demo_Suites_V2.0.0/GD32F30x_Demo_Suites_V2.0.0/GD32F30x_Firmware_Library/GD32F30x_standard_peripheral/Source\gd32f30x_dma.c **** }
 1663              		.loc 1 480 0
ARM GAS  C:\Users\49542\AppData\Local\Temp\ccb6xhB5.s 			page 38


 1664 004c 00BF     		nop
 1665 004e 0837     		adds	r7, r7, #8
 1666              	.LCFI89:
 1667              		.cfi_def_cfa_offset 8
 1668 0050 BD46     		mov	sp, r7
 1669              	.LCFI90:
 1670              		.cfi_def_cfa_register 13
 1671              		@ sp needed
 1672 0052 80BD     		pop	{r7, pc}
 1673              		.cfi_endproc
 1674              	.LFE133:
 1676              		.section	.text.dma_periph_increase_enable,"ax",%progbits
 1677              		.align	1
 1678              		.global	dma_periph_increase_enable
 1679              		.syntax unified
 1680              		.thumb
 1681              		.thumb_func
 1682              		.fpu fpv4-sp-d16
 1684              	dma_periph_increase_enable:
 1685              	.LFB134:
 481:C:/Users/49542/Desktop/GD32F30x_Demo_Suites_V2.0.0/GD32F30x_Demo_Suites_V2.0.0/GD32F30x_Firmware_Library/GD32F30x_standard_peripheral/Source\gd32f30x_dma.c **** 
 482:C:/Users/49542/Desktop/GD32F30x_Demo_Suites_V2.0.0/GD32F30x_Demo_Suites_V2.0.0/GD32F30x_Firmware_Library/GD32F30x_standard_peripheral/Source\gd32f30x_dma.c **** /*!
 483:C:/Users/49542/Desktop/GD32F30x_Demo_Suites_V2.0.0/GD32F30x_Demo_Suites_V2.0.0/GD32F30x_Firmware_Library/GD32F30x_standard_peripheral/Source\gd32f30x_dma.c ****     \brief      enable next address increasement algorithm of peripheral
 484:C:/Users/49542/Desktop/GD32F30x_Demo_Suites_V2.0.0/GD32F30x_Demo_Suites_V2.0.0/GD32F30x_Firmware_Library/GD32F30x_standard_peripheral/Source\gd32f30x_dma.c ****     \param[in]  dma_periph: DMAx(x=0,1)
 485:C:/Users/49542/Desktop/GD32F30x_Demo_Suites_V2.0.0/GD32F30x_Demo_Suites_V2.0.0/GD32F30x_Firmware_Library/GD32F30x_standard_peripheral/Source\gd32f30x_dma.c ****       \arg        DMAx(x=0,1)
 486:C:/Users/49542/Desktop/GD32F30x_Demo_Suites_V2.0.0/GD32F30x_Demo_Suites_V2.0.0/GD32F30x_Firmware_Library/GD32F30x_standard_peripheral/Source\gd32f30x_dma.c ****     \param[in]  channelx: specify which DMA channel 
 487:C:/Users/49542/Desktop/GD32F30x_Demo_Suites_V2.0.0/GD32F30x_Demo_Suites_V2.0.0/GD32F30x_Firmware_Library/GD32F30x_standard_peripheral/Source\gd32f30x_dma.c ****                 only one parameter can be selected which is shown as below:
 488:C:/Users/49542/Desktop/GD32F30x_Demo_Suites_V2.0.0/GD32F30x_Demo_Suites_V2.0.0/GD32F30x_Firmware_Library/GD32F30x_standard_peripheral/Source\gd32f30x_dma.c ****       \arg        DMA0: DMA_CHx(x=0..6), DMA1: DMA_CHx(x=0..4)
 489:C:/Users/49542/Desktop/GD32F30x_Demo_Suites_V2.0.0/GD32F30x_Demo_Suites_V2.0.0/GD32F30x_Firmware_Library/GD32F30x_standard_peripheral/Source\gd32f30x_dma.c ****     \param[out] none
 490:C:/Users/49542/Desktop/GD32F30x_Demo_Suites_V2.0.0/GD32F30x_Demo_Suites_V2.0.0/GD32F30x_Firmware_Library/GD32F30x_standard_peripheral/Source\gd32f30x_dma.c ****     \retval     none
 491:C:/Users/49542/Desktop/GD32F30x_Demo_Suites_V2.0.0/GD32F30x_Demo_Suites_V2.0.0/GD32F30x_Firmware_Library/GD32F30x_standard_peripheral/Source\gd32f30x_dma.c **** */
 492:C:/Users/49542/Desktop/GD32F30x_Demo_Suites_V2.0.0/GD32F30x_Demo_Suites_V2.0.0/GD32F30x_Firmware_Library/GD32F30x_standard_peripheral/Source\gd32f30x_dma.c **** void dma_periph_increase_enable(uint32_t dma_periph, dma_channel_enum channelx)
 493:C:/Users/49542/Desktop/GD32F30x_Demo_Suites_V2.0.0/GD32F30x_Demo_Suites_V2.0.0/GD32F30x_Firmware_Library/GD32F30x_standard_peripheral/Source\gd32f30x_dma.c **** {
 1686              		.loc 1 493 0
 1687              		.cfi_startproc
 1688              		@ args = 0, pretend = 0, frame = 8
 1689              		@ frame_needed = 1, uses_anonymous_args = 0
 1690 0000 80B5     		push	{r7, lr}
 1691              	.LCFI91:
 1692              		.cfi_def_cfa_offset 8
 1693              		.cfi_offset 7, -8
 1694              		.cfi_offset 14, -4
 1695 0002 82B0     		sub	sp, sp, #8
 1696              	.LCFI92:
 1697              		.cfi_def_cfa_offset 16
 1698 0004 00AF     		add	r7, sp, #0
 1699              	.LCFI93:
 1700              		.cfi_def_cfa_register 7
 1701 0006 7860     		str	r0, [r7, #4]
 1702 0008 0B46     		mov	r3, r1
 1703 000a FB70     		strb	r3, [r7, #3]
 494:C:/Users/49542/Desktop/GD32F30x_Demo_Suites_V2.0.0/GD32F30x_Demo_Suites_V2.0.0/GD32F30x_Firmware_Library/GD32F30x_standard_peripheral/Source\gd32f30x_dma.c ****     if(ERROR == dma_periph_and_channel_check(dma_periph, channelx)){
 1704              		.loc 1 494 0
 1705 000c FB78     		ldrb	r3, [r7, #3]	@ zero_extendqisi2
 1706 000e 1946     		mov	r1, r3
 1707 0010 7868     		ldr	r0, [r7, #4]
 1708 0012 FFF7FEFF 		bl	dma_periph_and_channel_check
ARM GAS  C:\Users\49542\AppData\Local\Temp\ccb6xhB5.s 			page 39


 1709 0016 0346     		mov	r3, r0
 1710 0018 002B     		cmp	r3, #0
 1711 001a 00D1     		bne	.L62
 1712              	.L63:
 495:C:/Users/49542/Desktop/GD32F30x_Demo_Suites_V2.0.0/GD32F30x_Demo_Suites_V2.0.0/GD32F30x_Firmware_Library/GD32F30x_standard_peripheral/Source\gd32f30x_dma.c ****         DMA_WRONG_HANDLE
 1713              		.loc 1 495 0 discriminator 1
 1714 001c FEE7     		b	.L63
 1715              	.L62:
 496:C:/Users/49542/Desktop/GD32F30x_Demo_Suites_V2.0.0/GD32F30x_Demo_Suites_V2.0.0/GD32F30x_Firmware_Library/GD32F30x_standard_peripheral/Source\gd32f30x_dma.c ****     }
 497:C:/Users/49542/Desktop/GD32F30x_Demo_Suites_V2.0.0/GD32F30x_Demo_Suites_V2.0.0/GD32F30x_Firmware_Library/GD32F30x_standard_peripheral/Source\gd32f30x_dma.c ****     
 498:C:/Users/49542/Desktop/GD32F30x_Demo_Suites_V2.0.0/GD32F30x_Demo_Suites_V2.0.0/GD32F30x_Firmware_Library/GD32F30x_standard_peripheral/Source\gd32f30x_dma.c ****     DMA_CHCTL(dma_periph, channelx) |= DMA_CHXCTL_PNAGA;
 1716              		.loc 1 498 0
 1717 001e FA78     		ldrb	r2, [r7, #3]	@ zero_extendqisi2
 1718 0020 1346     		mov	r3, r2
 1719 0022 9B00     		lsls	r3, r3, #2
 1720 0024 1344     		add	r3, r3, r2
 1721 0026 9B00     		lsls	r3, r3, #2
 1722 0028 1A46     		mov	r2, r3
 1723 002a 7B68     		ldr	r3, [r7, #4]
 1724 002c 1344     		add	r3, r3, r2
 1725 002e 0833     		adds	r3, r3, #8
 1726 0030 1968     		ldr	r1, [r3]
 1727 0032 FA78     		ldrb	r2, [r7, #3]	@ zero_extendqisi2
 1728 0034 1346     		mov	r3, r2
 1729 0036 9B00     		lsls	r3, r3, #2
 1730 0038 1344     		add	r3, r3, r2
 1731 003a 9B00     		lsls	r3, r3, #2
 1732 003c 1A46     		mov	r2, r3
 1733 003e 7B68     		ldr	r3, [r7, #4]
 1734 0040 1344     		add	r3, r3, r2
 1735 0042 0833     		adds	r3, r3, #8
 1736 0044 1A46     		mov	r2, r3
 1737 0046 41F04003 		orr	r3, r1, #64
 1738 004a 1360     		str	r3, [r2]
 499:C:/Users/49542/Desktop/GD32F30x_Demo_Suites_V2.0.0/GD32F30x_Demo_Suites_V2.0.0/GD32F30x_Firmware_Library/GD32F30x_standard_peripheral/Source\gd32f30x_dma.c **** }
 1739              		.loc 1 499 0
 1740 004c 00BF     		nop
 1741 004e 0837     		adds	r7, r7, #8
 1742              	.LCFI94:
 1743              		.cfi_def_cfa_offset 8
 1744 0050 BD46     		mov	sp, r7
 1745              	.LCFI95:
 1746              		.cfi_def_cfa_register 13
 1747              		@ sp needed
 1748 0052 80BD     		pop	{r7, pc}
 1749              		.cfi_endproc
 1750              	.LFE134:
 1752              		.section	.text.dma_periph_increase_disable,"ax",%progbits
 1753              		.align	1
 1754              		.global	dma_periph_increase_disable
 1755              		.syntax unified
 1756              		.thumb
 1757              		.thumb_func
 1758              		.fpu fpv4-sp-d16
 1760              	dma_periph_increase_disable:
 1761              	.LFB135:
 500:C:/Users/49542/Desktop/GD32F30x_Demo_Suites_V2.0.0/GD32F30x_Demo_Suites_V2.0.0/GD32F30x_Firmware_Library/GD32F30x_standard_peripheral/Source\gd32f30x_dma.c **** 
ARM GAS  C:\Users\49542\AppData\Local\Temp\ccb6xhB5.s 			page 40


 501:C:/Users/49542/Desktop/GD32F30x_Demo_Suites_V2.0.0/GD32F30x_Demo_Suites_V2.0.0/GD32F30x_Firmware_Library/GD32F30x_standard_peripheral/Source\gd32f30x_dma.c **** /*!
 502:C:/Users/49542/Desktop/GD32F30x_Demo_Suites_V2.0.0/GD32F30x_Demo_Suites_V2.0.0/GD32F30x_Firmware_Library/GD32F30x_standard_peripheral/Source\gd32f30x_dma.c ****     \brief      disable next address increasement algorithm of peripheral 
 503:C:/Users/49542/Desktop/GD32F30x_Demo_Suites_V2.0.0/GD32F30x_Demo_Suites_V2.0.0/GD32F30x_Firmware_Library/GD32F30x_standard_peripheral/Source\gd32f30x_dma.c ****     \param[in]  dma_periph: DMAx(x=0,1)
 504:C:/Users/49542/Desktop/GD32F30x_Demo_Suites_V2.0.0/GD32F30x_Demo_Suites_V2.0.0/GD32F30x_Firmware_Library/GD32F30x_standard_peripheral/Source\gd32f30x_dma.c ****       \arg        DMAx(x=0,1)
 505:C:/Users/49542/Desktop/GD32F30x_Demo_Suites_V2.0.0/GD32F30x_Demo_Suites_V2.0.0/GD32F30x_Firmware_Library/GD32F30x_standard_peripheral/Source\gd32f30x_dma.c ****     \param[in]  channelx: specify which DMA channel 
 506:C:/Users/49542/Desktop/GD32F30x_Demo_Suites_V2.0.0/GD32F30x_Demo_Suites_V2.0.0/GD32F30x_Firmware_Library/GD32F30x_standard_peripheral/Source\gd32f30x_dma.c ****                 only one parameter can be selected which is shown as below:
 507:C:/Users/49542/Desktop/GD32F30x_Demo_Suites_V2.0.0/GD32F30x_Demo_Suites_V2.0.0/GD32F30x_Firmware_Library/GD32F30x_standard_peripheral/Source\gd32f30x_dma.c ****       \arg        DMA0: DMA_CHx(x=0..6), DMA1: DMA_CHx(x=0..4)
 508:C:/Users/49542/Desktop/GD32F30x_Demo_Suites_V2.0.0/GD32F30x_Demo_Suites_V2.0.0/GD32F30x_Firmware_Library/GD32F30x_standard_peripheral/Source\gd32f30x_dma.c ****     \param[out] none
 509:C:/Users/49542/Desktop/GD32F30x_Demo_Suites_V2.0.0/GD32F30x_Demo_Suites_V2.0.0/GD32F30x_Firmware_Library/GD32F30x_standard_peripheral/Source\gd32f30x_dma.c ****     \retval     none
 510:C:/Users/49542/Desktop/GD32F30x_Demo_Suites_V2.0.0/GD32F30x_Demo_Suites_V2.0.0/GD32F30x_Firmware_Library/GD32F30x_standard_peripheral/Source\gd32f30x_dma.c **** */
 511:C:/Users/49542/Desktop/GD32F30x_Demo_Suites_V2.0.0/GD32F30x_Demo_Suites_V2.0.0/GD32F30x_Firmware_Library/GD32F30x_standard_peripheral/Source\gd32f30x_dma.c **** void dma_periph_increase_disable(uint32_t dma_periph, dma_channel_enum channelx)
 512:C:/Users/49542/Desktop/GD32F30x_Demo_Suites_V2.0.0/GD32F30x_Demo_Suites_V2.0.0/GD32F30x_Firmware_Library/GD32F30x_standard_peripheral/Source\gd32f30x_dma.c **** {
 1762              		.loc 1 512 0
 1763              		.cfi_startproc
 1764              		@ args = 0, pretend = 0, frame = 8
 1765              		@ frame_needed = 1, uses_anonymous_args = 0
 1766 0000 80B5     		push	{r7, lr}
 1767              	.LCFI96:
 1768              		.cfi_def_cfa_offset 8
 1769              		.cfi_offset 7, -8
 1770              		.cfi_offset 14, -4
 1771 0002 82B0     		sub	sp, sp, #8
 1772              	.LCFI97:
 1773              		.cfi_def_cfa_offset 16
 1774 0004 00AF     		add	r7, sp, #0
 1775              	.LCFI98:
 1776              		.cfi_def_cfa_register 7
 1777 0006 7860     		str	r0, [r7, #4]
 1778 0008 0B46     		mov	r3, r1
 1779 000a FB70     		strb	r3, [r7, #3]
 513:C:/Users/49542/Desktop/GD32F30x_Demo_Suites_V2.0.0/GD32F30x_Demo_Suites_V2.0.0/GD32F30x_Firmware_Library/GD32F30x_standard_peripheral/Source\gd32f30x_dma.c ****     if(ERROR == dma_periph_and_channel_check(dma_periph, channelx)){
 1780              		.loc 1 513 0
 1781 000c FB78     		ldrb	r3, [r7, #3]	@ zero_extendqisi2
 1782 000e 1946     		mov	r1, r3
 1783 0010 7868     		ldr	r0, [r7, #4]
 1784 0012 FFF7FEFF 		bl	dma_periph_and_channel_check
 1785 0016 0346     		mov	r3, r0
 1786 0018 002B     		cmp	r3, #0
 1787 001a 00D1     		bne	.L65
 1788              	.L66:
 514:C:/Users/49542/Desktop/GD32F30x_Demo_Suites_V2.0.0/GD32F30x_Demo_Suites_V2.0.0/GD32F30x_Firmware_Library/GD32F30x_standard_peripheral/Source\gd32f30x_dma.c ****         DMA_WRONG_HANDLE
 1789              		.loc 1 514 0 discriminator 1
 1790 001c FEE7     		b	.L66
 1791              	.L65:
 515:C:/Users/49542/Desktop/GD32F30x_Demo_Suites_V2.0.0/GD32F30x_Demo_Suites_V2.0.0/GD32F30x_Firmware_Library/GD32F30x_standard_peripheral/Source\gd32f30x_dma.c ****     }
 516:C:/Users/49542/Desktop/GD32F30x_Demo_Suites_V2.0.0/GD32F30x_Demo_Suites_V2.0.0/GD32F30x_Firmware_Library/GD32F30x_standard_peripheral/Source\gd32f30x_dma.c ****     
 517:C:/Users/49542/Desktop/GD32F30x_Demo_Suites_V2.0.0/GD32F30x_Demo_Suites_V2.0.0/GD32F30x_Firmware_Library/GD32F30x_standard_peripheral/Source\gd32f30x_dma.c ****     DMA_CHCTL(dma_periph, channelx) &= ~DMA_CHXCTL_PNAGA;
 1792              		.loc 1 517 0
 1793 001e FA78     		ldrb	r2, [r7, #3]	@ zero_extendqisi2
 1794 0020 1346     		mov	r3, r2
 1795 0022 9B00     		lsls	r3, r3, #2
 1796 0024 1344     		add	r3, r3, r2
 1797 0026 9B00     		lsls	r3, r3, #2
 1798 0028 1A46     		mov	r2, r3
 1799 002a 7B68     		ldr	r3, [r7, #4]
 1800 002c 1344     		add	r3, r3, r2
 1801 002e 0833     		adds	r3, r3, #8
ARM GAS  C:\Users\49542\AppData\Local\Temp\ccb6xhB5.s 			page 41


 1802 0030 1968     		ldr	r1, [r3]
 1803 0032 FA78     		ldrb	r2, [r7, #3]	@ zero_extendqisi2
 1804 0034 1346     		mov	r3, r2
 1805 0036 9B00     		lsls	r3, r3, #2
 1806 0038 1344     		add	r3, r3, r2
 1807 003a 9B00     		lsls	r3, r3, #2
 1808 003c 1A46     		mov	r2, r3
 1809 003e 7B68     		ldr	r3, [r7, #4]
 1810 0040 1344     		add	r3, r3, r2
 1811 0042 0833     		adds	r3, r3, #8
 1812 0044 1A46     		mov	r2, r3
 1813 0046 21F04003 		bic	r3, r1, #64
 1814 004a 1360     		str	r3, [r2]
 518:C:/Users/49542/Desktop/GD32F30x_Demo_Suites_V2.0.0/GD32F30x_Demo_Suites_V2.0.0/GD32F30x_Firmware_Library/GD32F30x_standard_peripheral/Source\gd32f30x_dma.c **** }
 1815              		.loc 1 518 0
 1816 004c 00BF     		nop
 1817 004e 0837     		adds	r7, r7, #8
 1818              	.LCFI99:
 1819              		.cfi_def_cfa_offset 8
 1820 0050 BD46     		mov	sp, r7
 1821              	.LCFI100:
 1822              		.cfi_def_cfa_register 13
 1823              		@ sp needed
 1824 0052 80BD     		pop	{r7, pc}
 1825              		.cfi_endproc
 1826              	.LFE135:
 1828              		.section	.text.dma_transfer_direction_config,"ax",%progbits
 1829              		.align	1
 1830              		.global	dma_transfer_direction_config
 1831              		.syntax unified
 1832              		.thumb
 1833              		.thumb_func
 1834              		.fpu fpv4-sp-d16
 1836              	dma_transfer_direction_config:
 1837              	.LFB136:
 519:C:/Users/49542/Desktop/GD32F30x_Demo_Suites_V2.0.0/GD32F30x_Demo_Suites_V2.0.0/GD32F30x_Firmware_Library/GD32F30x_standard_peripheral/Source\gd32f30x_dma.c **** 
 520:C:/Users/49542/Desktop/GD32F30x_Demo_Suites_V2.0.0/GD32F30x_Demo_Suites_V2.0.0/GD32F30x_Firmware_Library/GD32F30x_standard_peripheral/Source\gd32f30x_dma.c **** /*!
 521:C:/Users/49542/Desktop/GD32F30x_Demo_Suites_V2.0.0/GD32F30x_Demo_Suites_V2.0.0/GD32F30x_Firmware_Library/GD32F30x_standard_peripheral/Source\gd32f30x_dma.c ****     \brief      configure the direction of data transfer on the channel  
 522:C:/Users/49542/Desktop/GD32F30x_Demo_Suites_V2.0.0/GD32F30x_Demo_Suites_V2.0.0/GD32F30x_Firmware_Library/GD32F30x_standard_peripheral/Source\gd32f30x_dma.c ****     \param[in]  dma_periph: DMAx(x=0,1)
 523:C:/Users/49542/Desktop/GD32F30x_Demo_Suites_V2.0.0/GD32F30x_Demo_Suites_V2.0.0/GD32F30x_Firmware_Library/GD32F30x_standard_peripheral/Source\gd32f30x_dma.c ****       \arg        DMAx(x=0,1)
 524:C:/Users/49542/Desktop/GD32F30x_Demo_Suites_V2.0.0/GD32F30x_Demo_Suites_V2.0.0/GD32F30x_Firmware_Library/GD32F30x_standard_peripheral/Source\gd32f30x_dma.c ****     \param[in]  channelx: specify which DMA channel 
 525:C:/Users/49542/Desktop/GD32F30x_Demo_Suites_V2.0.0/GD32F30x_Demo_Suites_V2.0.0/GD32F30x_Firmware_Library/GD32F30x_standard_peripheral/Source\gd32f30x_dma.c ****                 only one parameter can be selected which is shown as below:
 526:C:/Users/49542/Desktop/GD32F30x_Demo_Suites_V2.0.0/GD32F30x_Demo_Suites_V2.0.0/GD32F30x_Firmware_Library/GD32F30x_standard_peripheral/Source\gd32f30x_dma.c ****       \arg        DMA0: DMA_CHx(x=0..6), DMA1: DMA_CHx(x=0..4)
 527:C:/Users/49542/Desktop/GD32F30x_Demo_Suites_V2.0.0/GD32F30x_Demo_Suites_V2.0.0/GD32F30x_Firmware_Library/GD32F30x_standard_peripheral/Source\gd32f30x_dma.c ****     \param[in]  direction: specify the direction of data transfer
 528:C:/Users/49542/Desktop/GD32F30x_Demo_Suites_V2.0.0/GD32F30x_Demo_Suites_V2.0.0/GD32F30x_Firmware_Library/GD32F30x_standard_peripheral/Source\gd32f30x_dma.c ****                 only one parameter can be selected which is shown as below:
 529:C:/Users/49542/Desktop/GD32F30x_Demo_Suites_V2.0.0/GD32F30x_Demo_Suites_V2.0.0/GD32F30x_Firmware_Library/GD32F30x_standard_peripheral/Source\gd32f30x_dma.c ****       \arg        DMA_PERIPHERAL_TO_MEMORY: read from peripheral and write to memory
 530:C:/Users/49542/Desktop/GD32F30x_Demo_Suites_V2.0.0/GD32F30x_Demo_Suites_V2.0.0/GD32F30x_Firmware_Library/GD32F30x_standard_peripheral/Source\gd32f30x_dma.c ****       \arg        DMA_MEMORY_TO_PERIPHERAL: read from memory and write to peripheral
 531:C:/Users/49542/Desktop/GD32F30x_Demo_Suites_V2.0.0/GD32F30x_Demo_Suites_V2.0.0/GD32F30x_Firmware_Library/GD32F30x_standard_peripheral/Source\gd32f30x_dma.c ****     \param[out] none
 532:C:/Users/49542/Desktop/GD32F30x_Demo_Suites_V2.0.0/GD32F30x_Demo_Suites_V2.0.0/GD32F30x_Firmware_Library/GD32F30x_standard_peripheral/Source\gd32f30x_dma.c ****     \retval     none
 533:C:/Users/49542/Desktop/GD32F30x_Demo_Suites_V2.0.0/GD32F30x_Demo_Suites_V2.0.0/GD32F30x_Firmware_Library/GD32F30x_standard_peripheral/Source\gd32f30x_dma.c **** */
 534:C:/Users/49542/Desktop/GD32F30x_Demo_Suites_V2.0.0/GD32F30x_Demo_Suites_V2.0.0/GD32F30x_Firmware_Library/GD32F30x_standard_peripheral/Source\gd32f30x_dma.c **** void dma_transfer_direction_config(uint32_t dma_periph, dma_channel_enum channelx, uint32_t directi
 535:C:/Users/49542/Desktop/GD32F30x_Demo_Suites_V2.0.0/GD32F30x_Demo_Suites_V2.0.0/GD32F30x_Firmware_Library/GD32F30x_standard_peripheral/Source\gd32f30x_dma.c **** {
 1838              		.loc 1 535 0
 1839              		.cfi_startproc
 1840              		@ args = 0, pretend = 0, frame = 16
 1841              		@ frame_needed = 1, uses_anonymous_args = 0
 1842 0000 80B5     		push	{r7, lr}
ARM GAS  C:\Users\49542\AppData\Local\Temp\ccb6xhB5.s 			page 42


 1843              	.LCFI101:
 1844              		.cfi_def_cfa_offset 8
 1845              		.cfi_offset 7, -8
 1846              		.cfi_offset 14, -4
 1847 0002 84B0     		sub	sp, sp, #16
 1848              	.LCFI102:
 1849              		.cfi_def_cfa_offset 24
 1850 0004 00AF     		add	r7, sp, #0
 1851              	.LCFI103:
 1852              		.cfi_def_cfa_register 7
 1853 0006 F860     		str	r0, [r7, #12]
 1854 0008 0B46     		mov	r3, r1
 1855 000a 7A60     		str	r2, [r7, #4]
 1856 000c FB72     		strb	r3, [r7, #11]
 536:C:/Users/49542/Desktop/GD32F30x_Demo_Suites_V2.0.0/GD32F30x_Demo_Suites_V2.0.0/GD32F30x_Firmware_Library/GD32F30x_standard_peripheral/Source\gd32f30x_dma.c ****     if(ERROR == dma_periph_and_channel_check(dma_periph, channelx)){
 1857              		.loc 1 536 0
 1858 000e FB7A     		ldrb	r3, [r7, #11]	@ zero_extendqisi2
 1859 0010 1946     		mov	r1, r3
 1860 0012 F868     		ldr	r0, [r7, #12]
 1861 0014 FFF7FEFF 		bl	dma_periph_and_channel_check
 1862 0018 0346     		mov	r3, r0
 1863 001a 002B     		cmp	r3, #0
 1864 001c 00D1     		bne	.L68
 1865              	.L69:
 537:C:/Users/49542/Desktop/GD32F30x_Demo_Suites_V2.0.0/GD32F30x_Demo_Suites_V2.0.0/GD32F30x_Firmware_Library/GD32F30x_standard_peripheral/Source\gd32f30x_dma.c ****         DMA_WRONG_HANDLE
 1866              		.loc 1 537 0 discriminator 1
 1867 001e FEE7     		b	.L69
 1868              	.L68:
 538:C:/Users/49542/Desktop/GD32F30x_Demo_Suites_V2.0.0/GD32F30x_Demo_Suites_V2.0.0/GD32F30x_Firmware_Library/GD32F30x_standard_peripheral/Source\gd32f30x_dma.c ****     }
 539:C:/Users/49542/Desktop/GD32F30x_Demo_Suites_V2.0.0/GD32F30x_Demo_Suites_V2.0.0/GD32F30x_Firmware_Library/GD32F30x_standard_peripheral/Source\gd32f30x_dma.c ****     
 540:C:/Users/49542/Desktop/GD32F30x_Demo_Suites_V2.0.0/GD32F30x_Demo_Suites_V2.0.0/GD32F30x_Firmware_Library/GD32F30x_standard_peripheral/Source\gd32f30x_dma.c ****     if(DMA_PERIPHERAL_TO_MEMORY == direction){
 1869              		.loc 1 540 0
 1870 0020 7B68     		ldr	r3, [r7, #4]
 1871 0022 002B     		cmp	r3, #0
 1872 0024 17D1     		bne	.L70
 541:C:/Users/49542/Desktop/GD32F30x_Demo_Suites_V2.0.0/GD32F30x_Demo_Suites_V2.0.0/GD32F30x_Firmware_Library/GD32F30x_standard_peripheral/Source\gd32f30x_dma.c ****         DMA_CHCTL(dma_periph, channelx) &= ~DMA_CHXCTL_DIR;
 1873              		.loc 1 541 0
 1874 0026 FA7A     		ldrb	r2, [r7, #11]	@ zero_extendqisi2
 1875 0028 1346     		mov	r3, r2
 1876 002a 9B00     		lsls	r3, r3, #2
 1877 002c 1344     		add	r3, r3, r2
 1878 002e 9B00     		lsls	r3, r3, #2
 1879 0030 1A46     		mov	r2, r3
 1880 0032 FB68     		ldr	r3, [r7, #12]
 1881 0034 1344     		add	r3, r3, r2
 1882 0036 0833     		adds	r3, r3, #8
 1883 0038 1968     		ldr	r1, [r3]
 1884 003a FA7A     		ldrb	r2, [r7, #11]	@ zero_extendqisi2
 1885 003c 1346     		mov	r3, r2
 1886 003e 9B00     		lsls	r3, r3, #2
 1887 0040 1344     		add	r3, r3, r2
 1888 0042 9B00     		lsls	r3, r3, #2
 1889 0044 1A46     		mov	r2, r3
 1890 0046 FB68     		ldr	r3, [r7, #12]
 1891 0048 1344     		add	r3, r3, r2
 1892 004a 0833     		adds	r3, r3, #8
 1893 004c 1A46     		mov	r2, r3
ARM GAS  C:\Users\49542\AppData\Local\Temp\ccb6xhB5.s 			page 43


 1894 004e 21F01003 		bic	r3, r1, #16
 1895 0052 1360     		str	r3, [r2]
 542:C:/Users/49542/Desktop/GD32F30x_Demo_Suites_V2.0.0/GD32F30x_Demo_Suites_V2.0.0/GD32F30x_Firmware_Library/GD32F30x_standard_peripheral/Source\gd32f30x_dma.c ****     } else {
 543:C:/Users/49542/Desktop/GD32F30x_Demo_Suites_V2.0.0/GD32F30x_Demo_Suites_V2.0.0/GD32F30x_Firmware_Library/GD32F30x_standard_peripheral/Source\gd32f30x_dma.c ****         DMA_CHCTL(dma_periph, channelx) |= DMA_CHXCTL_DIR;
 544:C:/Users/49542/Desktop/GD32F30x_Demo_Suites_V2.0.0/GD32F30x_Demo_Suites_V2.0.0/GD32F30x_Firmware_Library/GD32F30x_standard_peripheral/Source\gd32f30x_dma.c ****     }
 545:C:/Users/49542/Desktop/GD32F30x_Demo_Suites_V2.0.0/GD32F30x_Demo_Suites_V2.0.0/GD32F30x_Firmware_Library/GD32F30x_standard_peripheral/Source\gd32f30x_dma.c **** }
 1896              		.loc 1 545 0
 1897 0054 16E0     		b	.L72
 1898              	.L70:
 543:C:/Users/49542/Desktop/GD32F30x_Demo_Suites_V2.0.0/GD32F30x_Demo_Suites_V2.0.0/GD32F30x_Firmware_Library/GD32F30x_standard_peripheral/Source\gd32f30x_dma.c ****     }
 1899              		.loc 1 543 0
 1900 0056 FA7A     		ldrb	r2, [r7, #11]	@ zero_extendqisi2
 1901 0058 1346     		mov	r3, r2
 1902 005a 9B00     		lsls	r3, r3, #2
 1903 005c 1344     		add	r3, r3, r2
 1904 005e 9B00     		lsls	r3, r3, #2
 1905 0060 1A46     		mov	r2, r3
 1906 0062 FB68     		ldr	r3, [r7, #12]
 1907 0064 1344     		add	r3, r3, r2
 1908 0066 0833     		adds	r3, r3, #8
 1909 0068 1968     		ldr	r1, [r3]
 1910 006a FA7A     		ldrb	r2, [r7, #11]	@ zero_extendqisi2
 1911 006c 1346     		mov	r3, r2
 1912 006e 9B00     		lsls	r3, r3, #2
 1913 0070 1344     		add	r3, r3, r2
 1914 0072 9B00     		lsls	r3, r3, #2
 1915 0074 1A46     		mov	r2, r3
 1916 0076 FB68     		ldr	r3, [r7, #12]
 1917 0078 1344     		add	r3, r3, r2
 1918 007a 0833     		adds	r3, r3, #8
 1919 007c 1A46     		mov	r2, r3
 1920 007e 41F01003 		orr	r3, r1, #16
 1921 0082 1360     		str	r3, [r2]
 1922              	.L72:
 1923              		.loc 1 545 0
 1924 0084 00BF     		nop
 1925 0086 1037     		adds	r7, r7, #16
 1926              	.LCFI104:
 1927              		.cfi_def_cfa_offset 8
 1928 0088 BD46     		mov	sp, r7
 1929              	.LCFI105:
 1930              		.cfi_def_cfa_register 13
 1931              		@ sp needed
 1932 008a 80BD     		pop	{r7, pc}
 1933              		.cfi_endproc
 1934              	.LFE136:
 1936              		.section	.text.dma_flag_get,"ax",%progbits
 1937              		.align	1
 1938              		.global	dma_flag_get
 1939              		.syntax unified
 1940              		.thumb
 1941              		.thumb_func
 1942              		.fpu fpv4-sp-d16
 1944              	dma_flag_get:
 1945              	.LFB137:
 546:C:/Users/49542/Desktop/GD32F30x_Demo_Suites_V2.0.0/GD32F30x_Demo_Suites_V2.0.0/GD32F30x_Firmware_Library/GD32F30x_standard_peripheral/Source\gd32f30x_dma.c **** 
 547:C:/Users/49542/Desktop/GD32F30x_Demo_Suites_V2.0.0/GD32F30x_Demo_Suites_V2.0.0/GD32F30x_Firmware_Library/GD32F30x_standard_peripheral/Source\gd32f30x_dma.c **** /*!
ARM GAS  C:\Users\49542\AppData\Local\Temp\ccb6xhB5.s 			page 44


 548:C:/Users/49542/Desktop/GD32F30x_Demo_Suites_V2.0.0/GD32F30x_Demo_Suites_V2.0.0/GD32F30x_Firmware_Library/GD32F30x_standard_peripheral/Source\gd32f30x_dma.c ****     \brief      check DMA flag is set or not 
 549:C:/Users/49542/Desktop/GD32F30x_Demo_Suites_V2.0.0/GD32F30x_Demo_Suites_V2.0.0/GD32F30x_Firmware_Library/GD32F30x_standard_peripheral/Source\gd32f30x_dma.c ****     \param[in]  dma_periph: DMAx(x=0,1)
 550:C:/Users/49542/Desktop/GD32F30x_Demo_Suites_V2.0.0/GD32F30x_Demo_Suites_V2.0.0/GD32F30x_Firmware_Library/GD32F30x_standard_peripheral/Source\gd32f30x_dma.c ****       \arg        DMAx(x=0,1)
 551:C:/Users/49542/Desktop/GD32F30x_Demo_Suites_V2.0.0/GD32F30x_Demo_Suites_V2.0.0/GD32F30x_Firmware_Library/GD32F30x_standard_peripheral/Source\gd32f30x_dma.c ****     \param[in]  channelx: specify which DMA channel to get flag
 552:C:/Users/49542/Desktop/GD32F30x_Demo_Suites_V2.0.0/GD32F30x_Demo_Suites_V2.0.0/GD32F30x_Firmware_Library/GD32F30x_standard_peripheral/Source\gd32f30x_dma.c ****                 only one parameter can be selected which is shown as below:
 553:C:/Users/49542/Desktop/GD32F30x_Demo_Suites_V2.0.0/GD32F30x_Demo_Suites_V2.0.0/GD32F30x_Firmware_Library/GD32F30x_standard_peripheral/Source\gd32f30x_dma.c ****       \arg        DMA0: DMA_CHx(x=0..6), DMA1: DMA_CHx(x=0..4)
 554:C:/Users/49542/Desktop/GD32F30x_Demo_Suites_V2.0.0/GD32F30x_Demo_Suites_V2.0.0/GD32F30x_Firmware_Library/GD32F30x_standard_peripheral/Source\gd32f30x_dma.c ****     \param[in]  flag: specify get which flag
 555:C:/Users/49542/Desktop/GD32F30x_Demo_Suites_V2.0.0/GD32F30x_Demo_Suites_V2.0.0/GD32F30x_Firmware_Library/GD32F30x_standard_peripheral/Source\gd32f30x_dma.c ****                 only one parameter can be selected which is shown as below:
 556:C:/Users/49542/Desktop/GD32F30x_Demo_Suites_V2.0.0/GD32F30x_Demo_Suites_V2.0.0/GD32F30x_Firmware_Library/GD32F30x_standard_peripheral/Source\gd32f30x_dma.c ****       \arg        DMA_FLAG_G: global interrupt flag of channel
 557:C:/Users/49542/Desktop/GD32F30x_Demo_Suites_V2.0.0/GD32F30x_Demo_Suites_V2.0.0/GD32F30x_Firmware_Library/GD32F30x_standard_peripheral/Source\gd32f30x_dma.c ****       \arg        DMA_FLAG_FTF: full transfer finish flag of channel
 558:C:/Users/49542/Desktop/GD32F30x_Demo_Suites_V2.0.0/GD32F30x_Demo_Suites_V2.0.0/GD32F30x_Firmware_Library/GD32F30x_standard_peripheral/Source\gd32f30x_dma.c ****       \arg        DMA_FLAG_HTF: half transfer finish flag of channel
 559:C:/Users/49542/Desktop/GD32F30x_Demo_Suites_V2.0.0/GD32F30x_Demo_Suites_V2.0.0/GD32F30x_Firmware_Library/GD32F30x_standard_peripheral/Source\gd32f30x_dma.c ****       \arg        DMA_FLAG_ERR: error flag of channel
 560:C:/Users/49542/Desktop/GD32F30x_Demo_Suites_V2.0.0/GD32F30x_Demo_Suites_V2.0.0/GD32F30x_Firmware_Library/GD32F30x_standard_peripheral/Source\gd32f30x_dma.c ****     \param[out] none
 561:C:/Users/49542/Desktop/GD32F30x_Demo_Suites_V2.0.0/GD32F30x_Demo_Suites_V2.0.0/GD32F30x_Firmware_Library/GD32F30x_standard_peripheral/Source\gd32f30x_dma.c ****     \retval     FlagStatus: SET or RESET
 562:C:/Users/49542/Desktop/GD32F30x_Demo_Suites_V2.0.0/GD32F30x_Demo_Suites_V2.0.0/GD32F30x_Firmware_Library/GD32F30x_standard_peripheral/Source\gd32f30x_dma.c **** */
 563:C:/Users/49542/Desktop/GD32F30x_Demo_Suites_V2.0.0/GD32F30x_Demo_Suites_V2.0.0/GD32F30x_Firmware_Library/GD32F30x_standard_peripheral/Source\gd32f30x_dma.c **** FlagStatus dma_flag_get(uint32_t dma_periph, dma_channel_enum channelx, uint32_t flag)
 564:C:/Users/49542/Desktop/GD32F30x_Demo_Suites_V2.0.0/GD32F30x_Demo_Suites_V2.0.0/GD32F30x_Firmware_Library/GD32F30x_standard_peripheral/Source\gd32f30x_dma.c **** {
 1946              		.loc 1 564 0
 1947              		.cfi_startproc
 1948              		@ args = 0, pretend = 0, frame = 24
 1949              		@ frame_needed = 1, uses_anonymous_args = 0
 1950              		@ link register save eliminated.
 1951 0000 80B4     		push	{r7}
 1952              	.LCFI106:
 1953              		.cfi_def_cfa_offset 4
 1954              		.cfi_offset 7, -4
 1955 0002 87B0     		sub	sp, sp, #28
 1956              	.LCFI107:
 1957              		.cfi_def_cfa_offset 32
 1958 0004 00AF     		add	r7, sp, #0
 1959              	.LCFI108:
 1960              		.cfi_def_cfa_register 7
 1961 0006 F860     		str	r0, [r7, #12]
 1962 0008 0B46     		mov	r3, r1
 1963 000a 7A60     		str	r2, [r7, #4]
 1964 000c FB72     		strb	r3, [r7, #11]
 565:C:/Users/49542/Desktop/GD32F30x_Demo_Suites_V2.0.0/GD32F30x_Demo_Suites_V2.0.0/GD32F30x_Firmware_Library/GD32F30x_standard_peripheral/Source\gd32f30x_dma.c ****     FlagStatus reval;
 566:C:/Users/49542/Desktop/GD32F30x_Demo_Suites_V2.0.0/GD32F30x_Demo_Suites_V2.0.0/GD32F30x_Firmware_Library/GD32F30x_standard_peripheral/Source\gd32f30x_dma.c **** 
 567:C:/Users/49542/Desktop/GD32F30x_Demo_Suites_V2.0.0/GD32F30x_Demo_Suites_V2.0.0/GD32F30x_Firmware_Library/GD32F30x_standard_peripheral/Source\gd32f30x_dma.c ****     if(RESET != (DMA_INTF(dma_periph) & DMA_FLAG_ADD(flag, channelx))){
 1965              		.loc 1 567 0
 1966 000e FB68     		ldr	r3, [r7, #12]
 1967 0010 1A68     		ldr	r2, [r3]
 1968 0012 FB7A     		ldrb	r3, [r7, #11]	@ zero_extendqisi2
 1969 0014 9B00     		lsls	r3, r3, #2
 1970 0016 7968     		ldr	r1, [r7, #4]
 1971 0018 01FA03F3 		lsl	r3, r1, r3
 1972 001c 1340     		ands	r3, r3, r2
 1973 001e 002B     		cmp	r3, #0
 1974 0020 02D0     		beq	.L74
 568:C:/Users/49542/Desktop/GD32F30x_Demo_Suites_V2.0.0/GD32F30x_Demo_Suites_V2.0.0/GD32F30x_Firmware_Library/GD32F30x_standard_peripheral/Source\gd32f30x_dma.c ****         reval = SET;
 1975              		.loc 1 568 0
 1976 0022 0123     		movs	r3, #1
 1977 0024 FB75     		strb	r3, [r7, #23]
 1978 0026 01E0     		b	.L75
 1979              	.L74:
 569:C:/Users/49542/Desktop/GD32F30x_Demo_Suites_V2.0.0/GD32F30x_Demo_Suites_V2.0.0/GD32F30x_Firmware_Library/GD32F30x_standard_peripheral/Source\gd32f30x_dma.c ****     }else{
 570:C:/Users/49542/Desktop/GD32F30x_Demo_Suites_V2.0.0/GD32F30x_Demo_Suites_V2.0.0/GD32F30x_Firmware_Library/GD32F30x_standard_peripheral/Source\gd32f30x_dma.c ****         reval = RESET;
ARM GAS  C:\Users\49542\AppData\Local\Temp\ccb6xhB5.s 			page 45


 1980              		.loc 1 570 0
 1981 0028 0023     		movs	r3, #0
 1982 002a FB75     		strb	r3, [r7, #23]
 1983              	.L75:
 571:C:/Users/49542/Desktop/GD32F30x_Demo_Suites_V2.0.0/GD32F30x_Demo_Suites_V2.0.0/GD32F30x_Firmware_Library/GD32F30x_standard_peripheral/Source\gd32f30x_dma.c ****     }
 572:C:/Users/49542/Desktop/GD32F30x_Demo_Suites_V2.0.0/GD32F30x_Demo_Suites_V2.0.0/GD32F30x_Firmware_Library/GD32F30x_standard_peripheral/Source\gd32f30x_dma.c ****     
 573:C:/Users/49542/Desktop/GD32F30x_Demo_Suites_V2.0.0/GD32F30x_Demo_Suites_V2.0.0/GD32F30x_Firmware_Library/GD32F30x_standard_peripheral/Source\gd32f30x_dma.c ****     return reval;
 1984              		.loc 1 573 0
 1985 002c FB7D     		ldrb	r3, [r7, #23]	@ zero_extendqisi2
 574:C:/Users/49542/Desktop/GD32F30x_Demo_Suites_V2.0.0/GD32F30x_Demo_Suites_V2.0.0/GD32F30x_Firmware_Library/GD32F30x_standard_peripheral/Source\gd32f30x_dma.c **** }
 1986              		.loc 1 574 0
 1987 002e 1846     		mov	r0, r3
 1988 0030 1C37     		adds	r7, r7, #28
 1989              	.LCFI109:
 1990              		.cfi_def_cfa_offset 4
 1991 0032 BD46     		mov	sp, r7
 1992              	.LCFI110:
 1993              		.cfi_def_cfa_register 13
 1994              		@ sp needed
 1995 0034 5DF8047B 		ldr	r7, [sp], #4
 1996              	.LCFI111:
 1997              		.cfi_restore 7
 1998              		.cfi_def_cfa_offset 0
 1999 0038 7047     		bx	lr
 2000              		.cfi_endproc
 2001              	.LFE137:
 2003              		.section	.text.dma_flag_clear,"ax",%progbits
 2004              		.align	1
 2005              		.global	dma_flag_clear
 2006              		.syntax unified
 2007              		.thumb
 2008              		.thumb_func
 2009              		.fpu fpv4-sp-d16
 2011              	dma_flag_clear:
 2012              	.LFB138:
 575:C:/Users/49542/Desktop/GD32F30x_Demo_Suites_V2.0.0/GD32F30x_Demo_Suites_V2.0.0/GD32F30x_Firmware_Library/GD32F30x_standard_peripheral/Source\gd32f30x_dma.c **** 
 576:C:/Users/49542/Desktop/GD32F30x_Demo_Suites_V2.0.0/GD32F30x_Demo_Suites_V2.0.0/GD32F30x_Firmware_Library/GD32F30x_standard_peripheral/Source\gd32f30x_dma.c **** /*!
 577:C:/Users/49542/Desktop/GD32F30x_Demo_Suites_V2.0.0/GD32F30x_Demo_Suites_V2.0.0/GD32F30x_Firmware_Library/GD32F30x_standard_peripheral/Source\gd32f30x_dma.c ****     \brief      clear DMA a channel flag
 578:C:/Users/49542/Desktop/GD32F30x_Demo_Suites_V2.0.0/GD32F30x_Demo_Suites_V2.0.0/GD32F30x_Firmware_Library/GD32F30x_standard_peripheral/Source\gd32f30x_dma.c ****     \param[in]  dma_periph: DMAx(x=0,1)
 579:C:/Users/49542/Desktop/GD32F30x_Demo_Suites_V2.0.0/GD32F30x_Demo_Suites_V2.0.0/GD32F30x_Firmware_Library/GD32F30x_standard_peripheral/Source\gd32f30x_dma.c ****       \arg        DMAx(x=0,1)
 580:C:/Users/49542/Desktop/GD32F30x_Demo_Suites_V2.0.0/GD32F30x_Demo_Suites_V2.0.0/GD32F30x_Firmware_Library/GD32F30x_standard_peripheral/Source\gd32f30x_dma.c ****     \param[in]  channelx: specify which DMA channel to clear flag
 581:C:/Users/49542/Desktop/GD32F30x_Demo_Suites_V2.0.0/GD32F30x_Demo_Suites_V2.0.0/GD32F30x_Firmware_Library/GD32F30x_standard_peripheral/Source\gd32f30x_dma.c ****                 only one parameter can be selected which is shown as below:
 582:C:/Users/49542/Desktop/GD32F30x_Demo_Suites_V2.0.0/GD32F30x_Demo_Suites_V2.0.0/GD32F30x_Firmware_Library/GD32F30x_standard_peripheral/Source\gd32f30x_dma.c ****       \arg        DMA0: DMA_CHx(x=0..6), DMA1: DMA_CHx(x=0..4)
 583:C:/Users/49542/Desktop/GD32F30x_Demo_Suites_V2.0.0/GD32F30x_Demo_Suites_V2.0.0/GD32F30x_Firmware_Library/GD32F30x_standard_peripheral/Source\gd32f30x_dma.c ****     \param[in]  flag: specify get which flag
 584:C:/Users/49542/Desktop/GD32F30x_Demo_Suites_V2.0.0/GD32F30x_Demo_Suites_V2.0.0/GD32F30x_Firmware_Library/GD32F30x_standard_peripheral/Source\gd32f30x_dma.c ****                 only one parameter can be selected which is shown as below:
 585:C:/Users/49542/Desktop/GD32F30x_Demo_Suites_V2.0.0/GD32F30x_Demo_Suites_V2.0.0/GD32F30x_Firmware_Library/GD32F30x_standard_peripheral/Source\gd32f30x_dma.c ****       \arg        DMA_FLAG_G: global interrupt flag of channel
 586:C:/Users/49542/Desktop/GD32F30x_Demo_Suites_V2.0.0/GD32F30x_Demo_Suites_V2.0.0/GD32F30x_Firmware_Library/GD32F30x_standard_peripheral/Source\gd32f30x_dma.c ****       \arg        DMA_FLAG_FTF: full transfer finish flag of channel
 587:C:/Users/49542/Desktop/GD32F30x_Demo_Suites_V2.0.0/GD32F30x_Demo_Suites_V2.0.0/GD32F30x_Firmware_Library/GD32F30x_standard_peripheral/Source\gd32f30x_dma.c ****       \arg        DMA_FLAG_HTF: half transfer finish flag of channel
 588:C:/Users/49542/Desktop/GD32F30x_Demo_Suites_V2.0.0/GD32F30x_Demo_Suites_V2.0.0/GD32F30x_Firmware_Library/GD32F30x_standard_peripheral/Source\gd32f30x_dma.c ****       \arg        DMA_FLAG_ERR: error flag of channel
 589:C:/Users/49542/Desktop/GD32F30x_Demo_Suites_V2.0.0/GD32F30x_Demo_Suites_V2.0.0/GD32F30x_Firmware_Library/GD32F30x_standard_peripheral/Source\gd32f30x_dma.c ****     \param[out] none
 590:C:/Users/49542/Desktop/GD32F30x_Demo_Suites_V2.0.0/GD32F30x_Demo_Suites_V2.0.0/GD32F30x_Firmware_Library/GD32F30x_standard_peripheral/Source\gd32f30x_dma.c ****     \retval     none
 591:C:/Users/49542/Desktop/GD32F30x_Demo_Suites_V2.0.0/GD32F30x_Demo_Suites_V2.0.0/GD32F30x_Firmware_Library/GD32F30x_standard_peripheral/Source\gd32f30x_dma.c **** */
 592:C:/Users/49542/Desktop/GD32F30x_Demo_Suites_V2.0.0/GD32F30x_Demo_Suites_V2.0.0/GD32F30x_Firmware_Library/GD32F30x_standard_peripheral/Source\gd32f30x_dma.c **** void dma_flag_clear(uint32_t dma_periph, dma_channel_enum channelx, uint32_t flag)
 593:C:/Users/49542/Desktop/GD32F30x_Demo_Suites_V2.0.0/GD32F30x_Demo_Suites_V2.0.0/GD32F30x_Firmware_Library/GD32F30x_standard_peripheral/Source\gd32f30x_dma.c **** {
 2013              		.loc 1 593 0
 2014              		.cfi_startproc
 2015              		@ args = 0, pretend = 0, frame = 16
ARM GAS  C:\Users\49542\AppData\Local\Temp\ccb6xhB5.s 			page 46


 2016              		@ frame_needed = 1, uses_anonymous_args = 0
 2017              		@ link register save eliminated.
 2018 0000 80B4     		push	{r7}
 2019              	.LCFI112:
 2020              		.cfi_def_cfa_offset 4
 2021              		.cfi_offset 7, -4
 2022 0002 85B0     		sub	sp, sp, #20
 2023              	.LCFI113:
 2024              		.cfi_def_cfa_offset 24
 2025 0004 00AF     		add	r7, sp, #0
 2026              	.LCFI114:
 2027              		.cfi_def_cfa_register 7
 2028 0006 F860     		str	r0, [r7, #12]
 2029 0008 0B46     		mov	r3, r1
 2030 000a 7A60     		str	r2, [r7, #4]
 2031 000c FB72     		strb	r3, [r7, #11]
 594:C:/Users/49542/Desktop/GD32F30x_Demo_Suites_V2.0.0/GD32F30x_Demo_Suites_V2.0.0/GD32F30x_Firmware_Library/GD32F30x_standard_peripheral/Source\gd32f30x_dma.c ****     DMA_INTC(dma_periph) |= DMA_FLAG_ADD(flag, channelx);
 2032              		.loc 1 594 0
 2033 000e FB68     		ldr	r3, [r7, #12]
 2034 0010 0433     		adds	r3, r3, #4
 2035 0012 1A68     		ldr	r2, [r3]
 2036 0014 FB7A     		ldrb	r3, [r7, #11]	@ zero_extendqisi2
 2037 0016 9B00     		lsls	r3, r3, #2
 2038 0018 7968     		ldr	r1, [r7, #4]
 2039 001a 01FA03F3 		lsl	r3, r1, r3
 2040 001e F968     		ldr	r1, [r7, #12]
 2041 0020 0431     		adds	r1, r1, #4
 2042 0022 1343     		orrs	r3, r3, r2
 2043 0024 0B60     		str	r3, [r1]
 595:C:/Users/49542/Desktop/GD32F30x_Demo_Suites_V2.0.0/GD32F30x_Demo_Suites_V2.0.0/GD32F30x_Firmware_Library/GD32F30x_standard_peripheral/Source\gd32f30x_dma.c **** }
 2044              		.loc 1 595 0
 2045 0026 00BF     		nop
 2046 0028 1437     		adds	r7, r7, #20
 2047              	.LCFI115:
 2048              		.cfi_def_cfa_offset 4
 2049 002a BD46     		mov	sp, r7
 2050              	.LCFI116:
 2051              		.cfi_def_cfa_register 13
 2052              		@ sp needed
 2053 002c 5DF8047B 		ldr	r7, [sp], #4
 2054              	.LCFI117:
 2055              		.cfi_restore 7
 2056              		.cfi_def_cfa_offset 0
 2057 0030 7047     		bx	lr
 2058              		.cfi_endproc
 2059              	.LFE138:
 2061              		.section	.text.dma_interrupt_flag_get,"ax",%progbits
 2062              		.align	1
 2063              		.global	dma_interrupt_flag_get
 2064              		.syntax unified
 2065              		.thumb
 2066              		.thumb_func
 2067              		.fpu fpv4-sp-d16
 2069              	dma_interrupt_flag_get:
 2070              	.LFB139:
 596:C:/Users/49542/Desktop/GD32F30x_Demo_Suites_V2.0.0/GD32F30x_Demo_Suites_V2.0.0/GD32F30x_Firmware_Library/GD32F30x_standard_peripheral/Source\gd32f30x_dma.c **** 
 597:C:/Users/49542/Desktop/GD32F30x_Demo_Suites_V2.0.0/GD32F30x_Demo_Suites_V2.0.0/GD32F30x_Firmware_Library/GD32F30x_standard_peripheral/Source\gd32f30x_dma.c **** /*!
ARM GAS  C:\Users\49542\AppData\Local\Temp\ccb6xhB5.s 			page 47


 598:C:/Users/49542/Desktop/GD32F30x_Demo_Suites_V2.0.0/GD32F30x_Demo_Suites_V2.0.0/GD32F30x_Firmware_Library/GD32F30x_standard_peripheral/Source\gd32f30x_dma.c ****     \brief      check DMA flag and interrupt enable bit is set or not 
 599:C:/Users/49542/Desktop/GD32F30x_Demo_Suites_V2.0.0/GD32F30x_Demo_Suites_V2.0.0/GD32F30x_Firmware_Library/GD32F30x_standard_peripheral/Source\gd32f30x_dma.c ****     \param[in]  dma_periph: DMAx(x=0,1)
 600:C:/Users/49542/Desktop/GD32F30x_Demo_Suites_V2.0.0/GD32F30x_Demo_Suites_V2.0.0/GD32F30x_Firmware_Library/GD32F30x_standard_peripheral/Source\gd32f30x_dma.c ****       \arg        DMAx(x=0,1)
 601:C:/Users/49542/Desktop/GD32F30x_Demo_Suites_V2.0.0/GD32F30x_Demo_Suites_V2.0.0/GD32F30x_Firmware_Library/GD32F30x_standard_peripheral/Source\gd32f30x_dma.c ****     \param[in]  channelx: specify which DMA channel to get flag
 602:C:/Users/49542/Desktop/GD32F30x_Demo_Suites_V2.0.0/GD32F30x_Demo_Suites_V2.0.0/GD32F30x_Firmware_Library/GD32F30x_standard_peripheral/Source\gd32f30x_dma.c ****                 only one parameter can be selected which is shown as below:
 603:C:/Users/49542/Desktop/GD32F30x_Demo_Suites_V2.0.0/GD32F30x_Demo_Suites_V2.0.0/GD32F30x_Firmware_Library/GD32F30x_standard_peripheral/Source\gd32f30x_dma.c ****       \arg        DMA0: DMA_CHx(x=0..6), DMA1: DMA_CHx(x=0..4)
 604:C:/Users/49542/Desktop/GD32F30x_Demo_Suites_V2.0.0/GD32F30x_Demo_Suites_V2.0.0/GD32F30x_Firmware_Library/GD32F30x_standard_peripheral/Source\gd32f30x_dma.c ****     \param[in]  flag: specify get which flag
 605:C:/Users/49542/Desktop/GD32F30x_Demo_Suites_V2.0.0/GD32F30x_Demo_Suites_V2.0.0/GD32F30x_Firmware_Library/GD32F30x_standard_peripheral/Source\gd32f30x_dma.c ****                 only one parameter can be selected which is shown as below:
 606:C:/Users/49542/Desktop/GD32F30x_Demo_Suites_V2.0.0/GD32F30x_Demo_Suites_V2.0.0/GD32F30x_Firmware_Library/GD32F30x_standard_peripheral/Source\gd32f30x_dma.c ****       \arg        DMA_INT_FLAG_FTF: full transfer finish interrupt flag of channel
 607:C:/Users/49542/Desktop/GD32F30x_Demo_Suites_V2.0.0/GD32F30x_Demo_Suites_V2.0.0/GD32F30x_Firmware_Library/GD32F30x_standard_peripheral/Source\gd32f30x_dma.c ****       \arg        DMA_INT_FLAG_HTF: half transfer finish interrupt flag of channel
 608:C:/Users/49542/Desktop/GD32F30x_Demo_Suites_V2.0.0/GD32F30x_Demo_Suites_V2.0.0/GD32F30x_Firmware_Library/GD32F30x_standard_peripheral/Source\gd32f30x_dma.c ****       \arg        DMA_INT_FLAG_ERR: error interrupt flag of channel
 609:C:/Users/49542/Desktop/GD32F30x_Demo_Suites_V2.0.0/GD32F30x_Demo_Suites_V2.0.0/GD32F30x_Firmware_Library/GD32F30x_standard_peripheral/Source\gd32f30x_dma.c ****     \param[out] none
 610:C:/Users/49542/Desktop/GD32F30x_Demo_Suites_V2.0.0/GD32F30x_Demo_Suites_V2.0.0/GD32F30x_Firmware_Library/GD32F30x_standard_peripheral/Source\gd32f30x_dma.c ****     \retval     FlagStatus: SET or RESET
 611:C:/Users/49542/Desktop/GD32F30x_Demo_Suites_V2.0.0/GD32F30x_Demo_Suites_V2.0.0/GD32F30x_Firmware_Library/GD32F30x_standard_peripheral/Source\gd32f30x_dma.c **** */
 612:C:/Users/49542/Desktop/GD32F30x_Demo_Suites_V2.0.0/GD32F30x_Demo_Suites_V2.0.0/GD32F30x_Firmware_Library/GD32F30x_standard_peripheral/Source\gd32f30x_dma.c **** FlagStatus dma_interrupt_flag_get(uint32_t dma_periph, dma_channel_enum channelx, uint32_t flag)
 613:C:/Users/49542/Desktop/GD32F30x_Demo_Suites_V2.0.0/GD32F30x_Demo_Suites_V2.0.0/GD32F30x_Firmware_Library/GD32F30x_standard_peripheral/Source\gd32f30x_dma.c **** {
 2071              		.loc 1 613 0
 2072              		.cfi_startproc
 2073              		@ args = 0, pretend = 0, frame = 24
 2074              		@ frame_needed = 1, uses_anonymous_args = 0
 2075              		@ link register save eliminated.
 2076 0000 80B4     		push	{r7}
 2077              	.LCFI118:
 2078              		.cfi_def_cfa_offset 4
 2079              		.cfi_offset 7, -4
 2080 0002 87B0     		sub	sp, sp, #28
 2081              	.LCFI119:
 2082              		.cfi_def_cfa_offset 32
 2083 0004 00AF     		add	r7, sp, #0
 2084              	.LCFI120:
 2085              		.cfi_def_cfa_register 7
 2086 0006 F860     		str	r0, [r7, #12]
 2087 0008 0B46     		mov	r3, r1
 2088 000a 7A60     		str	r2, [r7, #4]
 2089 000c FB72     		strb	r3, [r7, #11]
 614:C:/Users/49542/Desktop/GD32F30x_Demo_Suites_V2.0.0/GD32F30x_Demo_Suites_V2.0.0/GD32F30x_Firmware_Library/GD32F30x_standard_peripheral/Source\gd32f30x_dma.c ****     uint32_t interrupt_enable = 0U, interrupt_flag = 0U;
 2090              		.loc 1 614 0
 2091 000e 0023     		movs	r3, #0
 2092 0010 7B61     		str	r3, [r7, #20]
 2093 0012 0023     		movs	r3, #0
 2094 0014 3B61     		str	r3, [r7, #16]
 615:C:/Users/49542/Desktop/GD32F30x_Demo_Suites_V2.0.0/GD32F30x_Demo_Suites_V2.0.0/GD32F30x_Firmware_Library/GD32F30x_standard_peripheral/Source\gd32f30x_dma.c ****     
 616:C:/Users/49542/Desktop/GD32F30x_Demo_Suites_V2.0.0/GD32F30x_Demo_Suites_V2.0.0/GD32F30x_Firmware_Library/GD32F30x_standard_peripheral/Source\gd32f30x_dma.c ****     switch(flag){
 2095              		.loc 1 616 0
 2096 0016 7B68     		ldr	r3, [r7, #4]
 2097 0018 042B     		cmp	r3, #4
 2098 001a 1BD0     		beq	.L80
 2099 001c 082B     		cmp	r3, #8
 2100 001e 30D0     		beq	.L81
 2101 0020 022B     		cmp	r3, #2
 2102 0022 00D0     		beq	.L82
 2103 0024 44E0     		b	.L79
 2104              	.L82:
 617:C:/Users/49542/Desktop/GD32F30x_Demo_Suites_V2.0.0/GD32F30x_Demo_Suites_V2.0.0/GD32F30x_Firmware_Library/GD32F30x_standard_peripheral/Source\gd32f30x_dma.c ****         case DMA_INT_FLAG_FTF:
 618:C:/Users/49542/Desktop/GD32F30x_Demo_Suites_V2.0.0/GD32F30x_Demo_Suites_V2.0.0/GD32F30x_Firmware_Library/GD32F30x_standard_peripheral/Source\gd32f30x_dma.c ****             interrupt_flag = DMA_INTF(dma_periph) & DMA_FLAG_ADD(flag, channelx);
 2105              		.loc 1 618 0
 2106 0026 FB68     		ldr	r3, [r7, #12]
ARM GAS  C:\Users\49542\AppData\Local\Temp\ccb6xhB5.s 			page 48


 2107 0028 1A68     		ldr	r2, [r3]
 2108 002a FB7A     		ldrb	r3, [r7, #11]	@ zero_extendqisi2
 2109 002c 9B00     		lsls	r3, r3, #2
 2110 002e 7968     		ldr	r1, [r7, #4]
 2111 0030 01FA03F3 		lsl	r3, r1, r3
 2112 0034 1340     		ands	r3, r3, r2
 2113 0036 3B61     		str	r3, [r7, #16]
 619:C:/Users/49542/Desktop/GD32F30x_Demo_Suites_V2.0.0/GD32F30x_Demo_Suites_V2.0.0/GD32F30x_Firmware_Library/GD32F30x_standard_peripheral/Source\gd32f30x_dma.c ****             interrupt_enable = DMA_CHCTL(dma_periph, channelx) & DMA_CHXCTL_FTFIE;
 2114              		.loc 1 619 0
 2115 0038 FA7A     		ldrb	r2, [r7, #11]	@ zero_extendqisi2
 2116 003a 1346     		mov	r3, r2
 2117 003c 9B00     		lsls	r3, r3, #2
 2118 003e 1344     		add	r3, r3, r2
 2119 0040 9B00     		lsls	r3, r3, #2
 2120 0042 1A46     		mov	r2, r3
 2121 0044 FB68     		ldr	r3, [r7, #12]
 2122 0046 1344     		add	r3, r3, r2
 2123 0048 0833     		adds	r3, r3, #8
 2124 004a 1B68     		ldr	r3, [r3]
 2125 004c 03F00203 		and	r3, r3, #2
 2126 0050 7B61     		str	r3, [r7, #20]
 620:C:/Users/49542/Desktop/GD32F30x_Demo_Suites_V2.0.0/GD32F30x_Demo_Suites_V2.0.0/GD32F30x_Firmware_Library/GD32F30x_standard_peripheral/Source\gd32f30x_dma.c ****             break;
 2127              		.loc 1 620 0
 2128 0052 2EE0     		b	.L83
 2129              	.L80:
 621:C:/Users/49542/Desktop/GD32F30x_Demo_Suites_V2.0.0/GD32F30x_Demo_Suites_V2.0.0/GD32F30x_Firmware_Library/GD32F30x_standard_peripheral/Source\gd32f30x_dma.c ****         case DMA_INT_FLAG_HTF:
 622:C:/Users/49542/Desktop/GD32F30x_Demo_Suites_V2.0.0/GD32F30x_Demo_Suites_V2.0.0/GD32F30x_Firmware_Library/GD32F30x_standard_peripheral/Source\gd32f30x_dma.c ****             interrupt_flag = DMA_INTF(dma_periph) & DMA_FLAG_ADD(flag, channelx);
 2130              		.loc 1 622 0
 2131 0054 FB68     		ldr	r3, [r7, #12]
 2132 0056 1A68     		ldr	r2, [r3]
 2133 0058 FB7A     		ldrb	r3, [r7, #11]	@ zero_extendqisi2
 2134 005a 9B00     		lsls	r3, r3, #2
 2135 005c 7968     		ldr	r1, [r7, #4]
 2136 005e 01FA03F3 		lsl	r3, r1, r3
 2137 0062 1340     		ands	r3, r3, r2
 2138 0064 3B61     		str	r3, [r7, #16]
 623:C:/Users/49542/Desktop/GD32F30x_Demo_Suites_V2.0.0/GD32F30x_Demo_Suites_V2.0.0/GD32F30x_Firmware_Library/GD32F30x_standard_peripheral/Source\gd32f30x_dma.c ****             interrupt_enable = DMA_CHCTL(dma_periph, channelx) & DMA_CHXCTL_HTFIE;
 2139              		.loc 1 623 0
 2140 0066 FA7A     		ldrb	r2, [r7, #11]	@ zero_extendqisi2
 2141 0068 1346     		mov	r3, r2
 2142 006a 9B00     		lsls	r3, r3, #2
 2143 006c 1344     		add	r3, r3, r2
 2144 006e 9B00     		lsls	r3, r3, #2
 2145 0070 1A46     		mov	r2, r3
 2146 0072 FB68     		ldr	r3, [r7, #12]
 2147 0074 1344     		add	r3, r3, r2
 2148 0076 0833     		adds	r3, r3, #8
 2149 0078 1B68     		ldr	r3, [r3]
 2150 007a 03F00403 		and	r3, r3, #4
 2151 007e 7B61     		str	r3, [r7, #20]
 624:C:/Users/49542/Desktop/GD32F30x_Demo_Suites_V2.0.0/GD32F30x_Demo_Suites_V2.0.0/GD32F30x_Firmware_Library/GD32F30x_standard_peripheral/Source\gd32f30x_dma.c ****             break;
 2152              		.loc 1 624 0
 2153 0080 17E0     		b	.L83
 2154              	.L81:
 625:C:/Users/49542/Desktop/GD32F30x_Demo_Suites_V2.0.0/GD32F30x_Demo_Suites_V2.0.0/GD32F30x_Firmware_Library/GD32F30x_standard_peripheral/Source\gd32f30x_dma.c ****         case DMA_INT_FLAG_ERR:
 626:C:/Users/49542/Desktop/GD32F30x_Demo_Suites_V2.0.0/GD32F30x_Demo_Suites_V2.0.0/GD32F30x_Firmware_Library/GD32F30x_standard_peripheral/Source\gd32f30x_dma.c ****             interrupt_flag = DMA_INTF(dma_periph) & DMA_FLAG_ADD(flag, channelx);
 2155              		.loc 1 626 0
ARM GAS  C:\Users\49542\AppData\Local\Temp\ccb6xhB5.s 			page 49


 2156 0082 FB68     		ldr	r3, [r7, #12]
 2157 0084 1A68     		ldr	r2, [r3]
 2158 0086 FB7A     		ldrb	r3, [r7, #11]	@ zero_extendqisi2
 2159 0088 9B00     		lsls	r3, r3, #2
 2160 008a 7968     		ldr	r1, [r7, #4]
 2161 008c 01FA03F3 		lsl	r3, r1, r3
 2162 0090 1340     		ands	r3, r3, r2
 2163 0092 3B61     		str	r3, [r7, #16]
 627:C:/Users/49542/Desktop/GD32F30x_Demo_Suites_V2.0.0/GD32F30x_Demo_Suites_V2.0.0/GD32F30x_Firmware_Library/GD32F30x_standard_peripheral/Source\gd32f30x_dma.c ****             interrupt_enable = DMA_CHCTL(dma_periph, channelx) & DMA_CHXCTL_ERRIE;
 2164              		.loc 1 627 0
 2165 0094 FA7A     		ldrb	r2, [r7, #11]	@ zero_extendqisi2
 2166 0096 1346     		mov	r3, r2
 2167 0098 9B00     		lsls	r3, r3, #2
 2168 009a 1344     		add	r3, r3, r2
 2169 009c 9B00     		lsls	r3, r3, #2
 2170 009e 1A46     		mov	r2, r3
 2171 00a0 FB68     		ldr	r3, [r7, #12]
 2172 00a2 1344     		add	r3, r3, r2
 2173 00a4 0833     		adds	r3, r3, #8
 2174 00a6 1B68     		ldr	r3, [r3]
 2175 00a8 03F00803 		and	r3, r3, #8
 2176 00ac 7B61     		str	r3, [r7, #20]
 628:C:/Users/49542/Desktop/GD32F30x_Demo_Suites_V2.0.0/GD32F30x_Demo_Suites_V2.0.0/GD32F30x_Firmware_Library/GD32F30x_standard_peripheral/Source\gd32f30x_dma.c ****             break;
 2177              		.loc 1 628 0
 2178 00ae 00E0     		b	.L83
 2179              	.L79:
 629:C:/Users/49542/Desktop/GD32F30x_Demo_Suites_V2.0.0/GD32F30x_Demo_Suites_V2.0.0/GD32F30x_Firmware_Library/GD32F30x_standard_peripheral/Source\gd32f30x_dma.c ****         default:
 630:C:/Users/49542/Desktop/GD32F30x_Demo_Suites_V2.0.0/GD32F30x_Demo_Suites_V2.0.0/GD32F30x_Firmware_Library/GD32F30x_standard_peripheral/Source\gd32f30x_dma.c ****             DMA_WRONG_HANDLE
 2180              		.loc 1 630 0 discriminator 1
 2181 00b0 FEE7     		b	.L79
 2182              	.L83:
 631:C:/Users/49542/Desktop/GD32F30x_Demo_Suites_V2.0.0/GD32F30x_Demo_Suites_V2.0.0/GD32F30x_Firmware_Library/GD32F30x_standard_peripheral/Source\gd32f30x_dma.c ****         }
 632:C:/Users/49542/Desktop/GD32F30x_Demo_Suites_V2.0.0/GD32F30x_Demo_Suites_V2.0.0/GD32F30x_Firmware_Library/GD32F30x_standard_peripheral/Source\gd32f30x_dma.c ****     
 633:C:/Users/49542/Desktop/GD32F30x_Demo_Suites_V2.0.0/GD32F30x_Demo_Suites_V2.0.0/GD32F30x_Firmware_Library/GD32F30x_standard_peripheral/Source\gd32f30x_dma.c ****     if(interrupt_flag && interrupt_enable){
 2183              		.loc 1 633 0
 2184 00b2 3B69     		ldr	r3, [r7, #16]
 2185 00b4 002B     		cmp	r3, #0
 2186 00b6 04D0     		beq	.L84
 2187              		.loc 1 633 0 is_stmt 0 discriminator 1
 2188 00b8 7B69     		ldr	r3, [r7, #20]
 2189 00ba 002B     		cmp	r3, #0
 2190 00bc 01D0     		beq	.L84
 634:C:/Users/49542/Desktop/GD32F30x_Demo_Suites_V2.0.0/GD32F30x_Demo_Suites_V2.0.0/GD32F30x_Firmware_Library/GD32F30x_standard_peripheral/Source\gd32f30x_dma.c ****         return SET;
 2191              		.loc 1 634 0 is_stmt 1
 2192 00be 0123     		movs	r3, #1
 2193 00c0 00E0     		b	.L85
 2194              	.L84:
 635:C:/Users/49542/Desktop/GD32F30x_Demo_Suites_V2.0.0/GD32F30x_Demo_Suites_V2.0.0/GD32F30x_Firmware_Library/GD32F30x_standard_peripheral/Source\gd32f30x_dma.c ****     }else{
 636:C:/Users/49542/Desktop/GD32F30x_Demo_Suites_V2.0.0/GD32F30x_Demo_Suites_V2.0.0/GD32F30x_Firmware_Library/GD32F30x_standard_peripheral/Source\gd32f30x_dma.c ****         return RESET;
 2195              		.loc 1 636 0
 2196 00c2 0023     		movs	r3, #0
 2197              	.L85:
 637:C:/Users/49542/Desktop/GD32F30x_Demo_Suites_V2.0.0/GD32F30x_Demo_Suites_V2.0.0/GD32F30x_Firmware_Library/GD32F30x_standard_peripheral/Source\gd32f30x_dma.c ****     }
 638:C:/Users/49542/Desktop/GD32F30x_Demo_Suites_V2.0.0/GD32F30x_Demo_Suites_V2.0.0/GD32F30x_Firmware_Library/GD32F30x_standard_peripheral/Source\gd32f30x_dma.c **** }
 2198              		.loc 1 638 0
 2199 00c4 1846     		mov	r0, r3
 2200 00c6 1C37     		adds	r7, r7, #28
ARM GAS  C:\Users\49542\AppData\Local\Temp\ccb6xhB5.s 			page 50


 2201              	.LCFI121:
 2202              		.cfi_def_cfa_offset 4
 2203 00c8 BD46     		mov	sp, r7
 2204              	.LCFI122:
 2205              		.cfi_def_cfa_register 13
 2206              		@ sp needed
 2207 00ca 5DF8047B 		ldr	r7, [sp], #4
 2208              	.LCFI123:
 2209              		.cfi_restore 7
 2210              		.cfi_def_cfa_offset 0
 2211 00ce 7047     		bx	lr
 2212              		.cfi_endproc
 2213              	.LFE139:
 2215              		.section	.text.dma_interrupt_flag_clear,"ax",%progbits
 2216              		.align	1
 2217              		.global	dma_interrupt_flag_clear
 2218              		.syntax unified
 2219              		.thumb
 2220              		.thumb_func
 2221              		.fpu fpv4-sp-d16
 2223              	dma_interrupt_flag_clear:
 2224              	.LFB140:
 639:C:/Users/49542/Desktop/GD32F30x_Demo_Suites_V2.0.0/GD32F30x_Demo_Suites_V2.0.0/GD32F30x_Firmware_Library/GD32F30x_standard_peripheral/Source\gd32f30x_dma.c **** 
 640:C:/Users/49542/Desktop/GD32F30x_Demo_Suites_V2.0.0/GD32F30x_Demo_Suites_V2.0.0/GD32F30x_Firmware_Library/GD32F30x_standard_peripheral/Source\gd32f30x_dma.c **** /*!
 641:C:/Users/49542/Desktop/GD32F30x_Demo_Suites_V2.0.0/GD32F30x_Demo_Suites_V2.0.0/GD32F30x_Firmware_Library/GD32F30x_standard_peripheral/Source\gd32f30x_dma.c ****     \brief      clear DMA a channel flag
 642:C:/Users/49542/Desktop/GD32F30x_Demo_Suites_V2.0.0/GD32F30x_Demo_Suites_V2.0.0/GD32F30x_Firmware_Library/GD32F30x_standard_peripheral/Source\gd32f30x_dma.c ****     \param[in]  dma_periph: DMAx(x=0,1)
 643:C:/Users/49542/Desktop/GD32F30x_Demo_Suites_V2.0.0/GD32F30x_Demo_Suites_V2.0.0/GD32F30x_Firmware_Library/GD32F30x_standard_peripheral/Source\gd32f30x_dma.c ****       \arg        DMAx(x=0,1)
 644:C:/Users/49542/Desktop/GD32F30x_Demo_Suites_V2.0.0/GD32F30x_Demo_Suites_V2.0.0/GD32F30x_Firmware_Library/GD32F30x_standard_peripheral/Source\gd32f30x_dma.c ****     \param[in]  channelx: specify which DMA channel to clear flag
 645:C:/Users/49542/Desktop/GD32F30x_Demo_Suites_V2.0.0/GD32F30x_Demo_Suites_V2.0.0/GD32F30x_Firmware_Library/GD32F30x_standard_peripheral/Source\gd32f30x_dma.c ****                 only one parameter can be selected which is shown as below:
 646:C:/Users/49542/Desktop/GD32F30x_Demo_Suites_V2.0.0/GD32F30x_Demo_Suites_V2.0.0/GD32F30x_Firmware_Library/GD32F30x_standard_peripheral/Source\gd32f30x_dma.c ****       \arg        DMA0: DMA_CHx(x=0..6), DMA1: DMA_CHx(x=0..4)
 647:C:/Users/49542/Desktop/GD32F30x_Demo_Suites_V2.0.0/GD32F30x_Demo_Suites_V2.0.0/GD32F30x_Firmware_Library/GD32F30x_standard_peripheral/Source\gd32f30x_dma.c ****     \param[in]  flag: specify get which flag
 648:C:/Users/49542/Desktop/GD32F30x_Demo_Suites_V2.0.0/GD32F30x_Demo_Suites_V2.0.0/GD32F30x_Firmware_Library/GD32F30x_standard_peripheral/Source\gd32f30x_dma.c ****                 only one parameter can be selected which is shown as below:
 649:C:/Users/49542/Desktop/GD32F30x_Demo_Suites_V2.0.0/GD32F30x_Demo_Suites_V2.0.0/GD32F30x_Firmware_Library/GD32F30x_standard_peripheral/Source\gd32f30x_dma.c ****       \arg        DMA_INT_FLAG_G: global interrupt flag of channel
 650:C:/Users/49542/Desktop/GD32F30x_Demo_Suites_V2.0.0/GD32F30x_Demo_Suites_V2.0.0/GD32F30x_Firmware_Library/GD32F30x_standard_peripheral/Source\gd32f30x_dma.c ****       \arg        DMA_INT_FLAG_FTF: full transfer finish interrupt flag of channel
 651:C:/Users/49542/Desktop/GD32F30x_Demo_Suites_V2.0.0/GD32F30x_Demo_Suites_V2.0.0/GD32F30x_Firmware_Library/GD32F30x_standard_peripheral/Source\gd32f30x_dma.c ****       \arg        DMA_INT_FLAG_HTF: half transfer finish interrupt flag of channel
 652:C:/Users/49542/Desktop/GD32F30x_Demo_Suites_V2.0.0/GD32F30x_Demo_Suites_V2.0.0/GD32F30x_Firmware_Library/GD32F30x_standard_peripheral/Source\gd32f30x_dma.c ****       \arg        DMA_INT_FLAG_ERR: error interrupt flag of channel
 653:C:/Users/49542/Desktop/GD32F30x_Demo_Suites_V2.0.0/GD32F30x_Demo_Suites_V2.0.0/GD32F30x_Firmware_Library/GD32F30x_standard_peripheral/Source\gd32f30x_dma.c ****     \param[out] none
 654:C:/Users/49542/Desktop/GD32F30x_Demo_Suites_V2.0.0/GD32F30x_Demo_Suites_V2.0.0/GD32F30x_Firmware_Library/GD32F30x_standard_peripheral/Source\gd32f30x_dma.c ****     \retval     none
 655:C:/Users/49542/Desktop/GD32F30x_Demo_Suites_V2.0.0/GD32F30x_Demo_Suites_V2.0.0/GD32F30x_Firmware_Library/GD32F30x_standard_peripheral/Source\gd32f30x_dma.c **** */
 656:C:/Users/49542/Desktop/GD32F30x_Demo_Suites_V2.0.0/GD32F30x_Demo_Suites_V2.0.0/GD32F30x_Firmware_Library/GD32F30x_standard_peripheral/Source\gd32f30x_dma.c **** void dma_interrupt_flag_clear(uint32_t dma_periph, dma_channel_enum channelx, uint32_t flag)
 657:C:/Users/49542/Desktop/GD32F30x_Demo_Suites_V2.0.0/GD32F30x_Demo_Suites_V2.0.0/GD32F30x_Firmware_Library/GD32F30x_standard_peripheral/Source\gd32f30x_dma.c **** {
 2225              		.loc 1 657 0
 2226              		.cfi_startproc
 2227              		@ args = 0, pretend = 0, frame = 16
 2228              		@ frame_needed = 1, uses_anonymous_args = 0
 2229              		@ link register save eliminated.
 2230 0000 80B4     		push	{r7}
 2231              	.LCFI124:
 2232              		.cfi_def_cfa_offset 4
 2233              		.cfi_offset 7, -4
 2234 0002 85B0     		sub	sp, sp, #20
 2235              	.LCFI125:
 2236              		.cfi_def_cfa_offset 24
 2237 0004 00AF     		add	r7, sp, #0
 2238              	.LCFI126:
 2239              		.cfi_def_cfa_register 7
 2240 0006 F860     		str	r0, [r7, #12]
ARM GAS  C:\Users\49542\AppData\Local\Temp\ccb6xhB5.s 			page 51


 2241 0008 0B46     		mov	r3, r1
 2242 000a 7A60     		str	r2, [r7, #4]
 2243 000c FB72     		strb	r3, [r7, #11]
 658:C:/Users/49542/Desktop/GD32F30x_Demo_Suites_V2.0.0/GD32F30x_Demo_Suites_V2.0.0/GD32F30x_Firmware_Library/GD32F30x_standard_peripheral/Source\gd32f30x_dma.c ****     DMA_INTC(dma_periph) |= DMA_FLAG_ADD(flag, channelx);
 2244              		.loc 1 658 0
 2245 000e FB68     		ldr	r3, [r7, #12]
 2246 0010 0433     		adds	r3, r3, #4
 2247 0012 1A68     		ldr	r2, [r3]
 2248 0014 FB7A     		ldrb	r3, [r7, #11]	@ zero_extendqisi2
 2249 0016 9B00     		lsls	r3, r3, #2
 2250 0018 7968     		ldr	r1, [r7, #4]
 2251 001a 01FA03F3 		lsl	r3, r1, r3
 2252 001e F968     		ldr	r1, [r7, #12]
 2253 0020 0431     		adds	r1, r1, #4
 2254 0022 1343     		orrs	r3, r3, r2
 2255 0024 0B60     		str	r3, [r1]
 659:C:/Users/49542/Desktop/GD32F30x_Demo_Suites_V2.0.0/GD32F30x_Demo_Suites_V2.0.0/GD32F30x_Firmware_Library/GD32F30x_standard_peripheral/Source\gd32f30x_dma.c **** }
 2256              		.loc 1 659 0
 2257 0026 00BF     		nop
 2258 0028 1437     		adds	r7, r7, #20
 2259              	.LCFI127:
 2260              		.cfi_def_cfa_offset 4
 2261 002a BD46     		mov	sp, r7
 2262              	.LCFI128:
 2263              		.cfi_def_cfa_register 13
 2264              		@ sp needed
 2265 002c 5DF8047B 		ldr	r7, [sp], #4
 2266              	.LCFI129:
 2267              		.cfi_restore 7
 2268              		.cfi_def_cfa_offset 0
 2269 0030 7047     		bx	lr
 2270              		.cfi_endproc
 2271              	.LFE140:
 2273              		.section	.text.dma_interrupt_enable,"ax",%progbits
 2274              		.align	1
 2275              		.global	dma_interrupt_enable
 2276              		.syntax unified
 2277              		.thumb
 2278              		.thumb_func
 2279              		.fpu fpv4-sp-d16
 2281              	dma_interrupt_enable:
 2282              	.LFB141:
 660:C:/Users/49542/Desktop/GD32F30x_Demo_Suites_V2.0.0/GD32F30x_Demo_Suites_V2.0.0/GD32F30x_Firmware_Library/GD32F30x_standard_peripheral/Source\gd32f30x_dma.c **** 
 661:C:/Users/49542/Desktop/GD32F30x_Demo_Suites_V2.0.0/GD32F30x_Demo_Suites_V2.0.0/GD32F30x_Firmware_Library/GD32F30x_standard_peripheral/Source\gd32f30x_dma.c **** /*!
 662:C:/Users/49542/Desktop/GD32F30x_Demo_Suites_V2.0.0/GD32F30x_Demo_Suites_V2.0.0/GD32F30x_Firmware_Library/GD32F30x_standard_peripheral/Source\gd32f30x_dma.c ****     \brief      enable DMA interrupt
 663:C:/Users/49542/Desktop/GD32F30x_Demo_Suites_V2.0.0/GD32F30x_Demo_Suites_V2.0.0/GD32F30x_Firmware_Library/GD32F30x_standard_peripheral/Source\gd32f30x_dma.c ****     \param[in]  dma_periph: DMAx(x=0,1)
 664:C:/Users/49542/Desktop/GD32F30x_Demo_Suites_V2.0.0/GD32F30x_Demo_Suites_V2.0.0/GD32F30x_Firmware_Library/GD32F30x_standard_peripheral/Source\gd32f30x_dma.c ****       \arg        DMAx(x=0,1)
 665:C:/Users/49542/Desktop/GD32F30x_Demo_Suites_V2.0.0/GD32F30x_Demo_Suites_V2.0.0/GD32F30x_Firmware_Library/GD32F30x_standard_peripheral/Source\gd32f30x_dma.c ****     \param[in]  channelx: specify which DMA channel 
 666:C:/Users/49542/Desktop/GD32F30x_Demo_Suites_V2.0.0/GD32F30x_Demo_Suites_V2.0.0/GD32F30x_Firmware_Library/GD32F30x_standard_peripheral/Source\gd32f30x_dma.c ****                 only one parameter can be selected which is shown as below:
 667:C:/Users/49542/Desktop/GD32F30x_Demo_Suites_V2.0.0/GD32F30x_Demo_Suites_V2.0.0/GD32F30x_Firmware_Library/GD32F30x_standard_peripheral/Source\gd32f30x_dma.c ****       \arg        DMA0: DMA_CHx(x=0..6), DMA1: DMA_CHx(x=0..4)
 668:C:/Users/49542/Desktop/GD32F30x_Demo_Suites_V2.0.0/GD32F30x_Demo_Suites_V2.0.0/GD32F30x_Firmware_Library/GD32F30x_standard_peripheral/Source\gd32f30x_dma.c ****     \param[in]  source: specify which interrupt to enbale
 669:C:/Users/49542/Desktop/GD32F30x_Demo_Suites_V2.0.0/GD32F30x_Demo_Suites_V2.0.0/GD32F30x_Firmware_Library/GD32F30x_standard_peripheral/Source\gd32f30x_dma.c ****                 one or more parameters can be selected which are shown as below
 670:C:/Users/49542/Desktop/GD32F30x_Demo_Suites_V2.0.0/GD32F30x_Demo_Suites_V2.0.0/GD32F30x_Firmware_Library/GD32F30x_standard_peripheral/Source\gd32f30x_dma.c ****       \arg        DMA_INT_FTF: channel full transfer finish interrupt
 671:C:/Users/49542/Desktop/GD32F30x_Demo_Suites_V2.0.0/GD32F30x_Demo_Suites_V2.0.0/GD32F30x_Firmware_Library/GD32F30x_standard_peripheral/Source\gd32f30x_dma.c ****       \arg        DMA_INT_HTF: channel half transfer finish interrupt
 672:C:/Users/49542/Desktop/GD32F30x_Demo_Suites_V2.0.0/GD32F30x_Demo_Suites_V2.0.0/GD32F30x_Firmware_Library/GD32F30x_standard_peripheral/Source\gd32f30x_dma.c ****       \arg        DMA_INT_ERR: channel error interrupt
 673:C:/Users/49542/Desktop/GD32F30x_Demo_Suites_V2.0.0/GD32F30x_Demo_Suites_V2.0.0/GD32F30x_Firmware_Library/GD32F30x_standard_peripheral/Source\gd32f30x_dma.c ****     \param[out] none
 674:C:/Users/49542/Desktop/GD32F30x_Demo_Suites_V2.0.0/GD32F30x_Demo_Suites_V2.0.0/GD32F30x_Firmware_Library/GD32F30x_standard_peripheral/Source\gd32f30x_dma.c ****     \retval     none
ARM GAS  C:\Users\49542\AppData\Local\Temp\ccb6xhB5.s 			page 52


 675:C:/Users/49542/Desktop/GD32F30x_Demo_Suites_V2.0.0/GD32F30x_Demo_Suites_V2.0.0/GD32F30x_Firmware_Library/GD32F30x_standard_peripheral/Source\gd32f30x_dma.c **** */
 676:C:/Users/49542/Desktop/GD32F30x_Demo_Suites_V2.0.0/GD32F30x_Demo_Suites_V2.0.0/GD32F30x_Firmware_Library/GD32F30x_standard_peripheral/Source\gd32f30x_dma.c **** void dma_interrupt_enable(uint32_t dma_periph, dma_channel_enum channelx, uint32_t source)
 677:C:/Users/49542/Desktop/GD32F30x_Demo_Suites_V2.0.0/GD32F30x_Demo_Suites_V2.0.0/GD32F30x_Firmware_Library/GD32F30x_standard_peripheral/Source\gd32f30x_dma.c **** {
 2283              		.loc 1 677 0
 2284              		.cfi_startproc
 2285              		@ args = 0, pretend = 0, frame = 16
 2286              		@ frame_needed = 1, uses_anonymous_args = 0
 2287 0000 80B5     		push	{r7, lr}
 2288              	.LCFI130:
 2289              		.cfi_def_cfa_offset 8
 2290              		.cfi_offset 7, -8
 2291              		.cfi_offset 14, -4
 2292 0002 84B0     		sub	sp, sp, #16
 2293              	.LCFI131:
 2294              		.cfi_def_cfa_offset 24
 2295 0004 00AF     		add	r7, sp, #0
 2296              	.LCFI132:
 2297              		.cfi_def_cfa_register 7
 2298 0006 F860     		str	r0, [r7, #12]
 2299 0008 0B46     		mov	r3, r1
 2300 000a 7A60     		str	r2, [r7, #4]
 2301 000c FB72     		strb	r3, [r7, #11]
 678:C:/Users/49542/Desktop/GD32F30x_Demo_Suites_V2.0.0/GD32F30x_Demo_Suites_V2.0.0/GD32F30x_Firmware_Library/GD32F30x_standard_peripheral/Source\gd32f30x_dma.c ****     if(ERROR == dma_periph_and_channel_check(dma_periph, channelx)){
 2302              		.loc 1 678 0
 2303 000e FB7A     		ldrb	r3, [r7, #11]	@ zero_extendqisi2
 2304 0010 1946     		mov	r1, r3
 2305 0012 F868     		ldr	r0, [r7, #12]
 2306 0014 FFF7FEFF 		bl	dma_periph_and_channel_check
 2307 0018 0346     		mov	r3, r0
 2308 001a 002B     		cmp	r3, #0
 2309 001c 00D1     		bne	.L88
 2310              	.L89:
 679:C:/Users/49542/Desktop/GD32F30x_Demo_Suites_V2.0.0/GD32F30x_Demo_Suites_V2.0.0/GD32F30x_Firmware_Library/GD32F30x_standard_peripheral/Source\gd32f30x_dma.c ****         DMA_WRONG_HANDLE
 2311              		.loc 1 679 0 discriminator 1
 2312 001e FEE7     		b	.L89
 2313              	.L88:
 680:C:/Users/49542/Desktop/GD32F30x_Demo_Suites_V2.0.0/GD32F30x_Demo_Suites_V2.0.0/GD32F30x_Firmware_Library/GD32F30x_standard_peripheral/Source\gd32f30x_dma.c ****     }
 681:C:/Users/49542/Desktop/GD32F30x_Demo_Suites_V2.0.0/GD32F30x_Demo_Suites_V2.0.0/GD32F30x_Firmware_Library/GD32F30x_standard_peripheral/Source\gd32f30x_dma.c ****     
 682:C:/Users/49542/Desktop/GD32F30x_Demo_Suites_V2.0.0/GD32F30x_Demo_Suites_V2.0.0/GD32F30x_Firmware_Library/GD32F30x_standard_peripheral/Source\gd32f30x_dma.c ****     DMA_CHCTL(dma_periph, channelx) |= source;
 2314              		.loc 1 682 0
 2315 0020 FA7A     		ldrb	r2, [r7, #11]	@ zero_extendqisi2
 2316 0022 1346     		mov	r3, r2
 2317 0024 9B00     		lsls	r3, r3, #2
 2318 0026 1344     		add	r3, r3, r2
 2319 0028 9B00     		lsls	r3, r3, #2
 2320 002a 1A46     		mov	r2, r3
 2321 002c FB68     		ldr	r3, [r7, #12]
 2322 002e 1344     		add	r3, r3, r2
 2323 0030 0833     		adds	r3, r3, #8
 2324 0032 1968     		ldr	r1, [r3]
 2325 0034 FA7A     		ldrb	r2, [r7, #11]	@ zero_extendqisi2
 2326 0036 1346     		mov	r3, r2
 2327 0038 9B00     		lsls	r3, r3, #2
 2328 003a 1344     		add	r3, r3, r2
 2329 003c 9B00     		lsls	r3, r3, #2
 2330 003e 1A46     		mov	r2, r3
 2331 0040 FB68     		ldr	r3, [r7, #12]
ARM GAS  C:\Users\49542\AppData\Local\Temp\ccb6xhB5.s 			page 53


 2332 0042 1344     		add	r3, r3, r2
 2333 0044 0833     		adds	r3, r3, #8
 2334 0046 1A46     		mov	r2, r3
 2335 0048 7B68     		ldr	r3, [r7, #4]
 2336 004a 0B43     		orrs	r3, r3, r1
 2337 004c 1360     		str	r3, [r2]
 683:C:/Users/49542/Desktop/GD32F30x_Demo_Suites_V2.0.0/GD32F30x_Demo_Suites_V2.0.0/GD32F30x_Firmware_Library/GD32F30x_standard_peripheral/Source\gd32f30x_dma.c **** }
 2338              		.loc 1 683 0
 2339 004e 00BF     		nop
 2340 0050 1037     		adds	r7, r7, #16
 2341              	.LCFI133:
 2342              		.cfi_def_cfa_offset 8
 2343 0052 BD46     		mov	sp, r7
 2344              	.LCFI134:
 2345              		.cfi_def_cfa_register 13
 2346              		@ sp needed
 2347 0054 80BD     		pop	{r7, pc}
 2348              		.cfi_endproc
 2349              	.LFE141:
 2351              		.section	.text.dma_interrupt_disable,"ax",%progbits
 2352              		.align	1
 2353              		.global	dma_interrupt_disable
 2354              		.syntax unified
 2355              		.thumb
 2356              		.thumb_func
 2357              		.fpu fpv4-sp-d16
 2359              	dma_interrupt_disable:
 2360              	.LFB142:
 684:C:/Users/49542/Desktop/GD32F30x_Demo_Suites_V2.0.0/GD32F30x_Demo_Suites_V2.0.0/GD32F30x_Firmware_Library/GD32F30x_standard_peripheral/Source\gd32f30x_dma.c **** 
 685:C:/Users/49542/Desktop/GD32F30x_Demo_Suites_V2.0.0/GD32F30x_Demo_Suites_V2.0.0/GD32F30x_Firmware_Library/GD32F30x_standard_peripheral/Source\gd32f30x_dma.c **** /*!
 686:C:/Users/49542/Desktop/GD32F30x_Demo_Suites_V2.0.0/GD32F30x_Demo_Suites_V2.0.0/GD32F30x_Firmware_Library/GD32F30x_standard_peripheral/Source\gd32f30x_dma.c ****     \brief      disable DMA interrupt
 687:C:/Users/49542/Desktop/GD32F30x_Demo_Suites_V2.0.0/GD32F30x_Demo_Suites_V2.0.0/GD32F30x_Firmware_Library/GD32F30x_standard_peripheral/Source\gd32f30x_dma.c ****     \param[in]  dma_periph: DMAx(x=0,1)
 688:C:/Users/49542/Desktop/GD32F30x_Demo_Suites_V2.0.0/GD32F30x_Demo_Suites_V2.0.0/GD32F30x_Firmware_Library/GD32F30x_standard_peripheral/Source\gd32f30x_dma.c ****       \arg        DMAx(x=0,1)
 689:C:/Users/49542/Desktop/GD32F30x_Demo_Suites_V2.0.0/GD32F30x_Demo_Suites_V2.0.0/GD32F30x_Firmware_Library/GD32F30x_standard_peripheral/Source\gd32f30x_dma.c ****     \param[in]  channelx: specify which DMA channel 
 690:C:/Users/49542/Desktop/GD32F30x_Demo_Suites_V2.0.0/GD32F30x_Demo_Suites_V2.0.0/GD32F30x_Firmware_Library/GD32F30x_standard_peripheral/Source\gd32f30x_dma.c ****                 only one parameter can be selected which is shown as below:
 691:C:/Users/49542/Desktop/GD32F30x_Demo_Suites_V2.0.0/GD32F30x_Demo_Suites_V2.0.0/GD32F30x_Firmware_Library/GD32F30x_standard_peripheral/Source\gd32f30x_dma.c ****       \arg        DMA0: DMA_CHx(x=0..6), DMA1: DMA_CHx(x=0..4)
 692:C:/Users/49542/Desktop/GD32F30x_Demo_Suites_V2.0.0/GD32F30x_Demo_Suites_V2.0.0/GD32F30x_Firmware_Library/GD32F30x_standard_peripheral/Source\gd32f30x_dma.c ****     \param[in]  source: specify which interrupt to disbale
 693:C:/Users/49542/Desktop/GD32F30x_Demo_Suites_V2.0.0/GD32F30x_Demo_Suites_V2.0.0/GD32F30x_Firmware_Library/GD32F30x_standard_peripheral/Source\gd32f30x_dma.c ****                 one or more parameters can be selected which are shown as below
 694:C:/Users/49542/Desktop/GD32F30x_Demo_Suites_V2.0.0/GD32F30x_Demo_Suites_V2.0.0/GD32F30x_Firmware_Library/GD32F30x_standard_peripheral/Source\gd32f30x_dma.c ****       \arg        DMA_INT_FTF: channel full transfer finish interrupt
 695:C:/Users/49542/Desktop/GD32F30x_Demo_Suites_V2.0.0/GD32F30x_Demo_Suites_V2.0.0/GD32F30x_Firmware_Library/GD32F30x_standard_peripheral/Source\gd32f30x_dma.c ****       \arg        DMA_INT_HTF: channel half transfer finish interrupt
 696:C:/Users/49542/Desktop/GD32F30x_Demo_Suites_V2.0.0/GD32F30x_Demo_Suites_V2.0.0/GD32F30x_Firmware_Library/GD32F30x_standard_peripheral/Source\gd32f30x_dma.c ****       \arg        DMA_INT_ERR: channel error interrupt
 697:C:/Users/49542/Desktop/GD32F30x_Demo_Suites_V2.0.0/GD32F30x_Demo_Suites_V2.0.0/GD32F30x_Firmware_Library/GD32F30x_standard_peripheral/Source\gd32f30x_dma.c ****     \param[out] none
 698:C:/Users/49542/Desktop/GD32F30x_Demo_Suites_V2.0.0/GD32F30x_Demo_Suites_V2.0.0/GD32F30x_Firmware_Library/GD32F30x_standard_peripheral/Source\gd32f30x_dma.c ****     \retval     none
 699:C:/Users/49542/Desktop/GD32F30x_Demo_Suites_V2.0.0/GD32F30x_Demo_Suites_V2.0.0/GD32F30x_Firmware_Library/GD32F30x_standard_peripheral/Source\gd32f30x_dma.c **** */
 700:C:/Users/49542/Desktop/GD32F30x_Demo_Suites_V2.0.0/GD32F30x_Demo_Suites_V2.0.0/GD32F30x_Firmware_Library/GD32F30x_standard_peripheral/Source\gd32f30x_dma.c **** void dma_interrupt_disable(uint32_t dma_periph, dma_channel_enum channelx, uint32_t source)
 701:C:/Users/49542/Desktop/GD32F30x_Demo_Suites_V2.0.0/GD32F30x_Demo_Suites_V2.0.0/GD32F30x_Firmware_Library/GD32F30x_standard_peripheral/Source\gd32f30x_dma.c **** {
 2361              		.loc 1 701 0
 2362              		.cfi_startproc
 2363              		@ args = 0, pretend = 0, frame = 16
 2364              		@ frame_needed = 1, uses_anonymous_args = 0
 2365 0000 80B5     		push	{r7, lr}
 2366              	.LCFI135:
 2367              		.cfi_def_cfa_offset 8
 2368              		.cfi_offset 7, -8
 2369              		.cfi_offset 14, -4
 2370 0002 84B0     		sub	sp, sp, #16
 2371              	.LCFI136:
ARM GAS  C:\Users\49542\AppData\Local\Temp\ccb6xhB5.s 			page 54


 2372              		.cfi_def_cfa_offset 24
 2373 0004 00AF     		add	r7, sp, #0
 2374              	.LCFI137:
 2375              		.cfi_def_cfa_register 7
 2376 0006 F860     		str	r0, [r7, #12]
 2377 0008 0B46     		mov	r3, r1
 2378 000a 7A60     		str	r2, [r7, #4]
 2379 000c FB72     		strb	r3, [r7, #11]
 702:C:/Users/49542/Desktop/GD32F30x_Demo_Suites_V2.0.0/GD32F30x_Demo_Suites_V2.0.0/GD32F30x_Firmware_Library/GD32F30x_standard_peripheral/Source\gd32f30x_dma.c ****     if(ERROR == dma_periph_and_channel_check(dma_periph, channelx)){
 2380              		.loc 1 702 0
 2381 000e FB7A     		ldrb	r3, [r7, #11]	@ zero_extendqisi2
 2382 0010 1946     		mov	r1, r3
 2383 0012 F868     		ldr	r0, [r7, #12]
 2384 0014 FFF7FEFF 		bl	dma_periph_and_channel_check
 2385 0018 0346     		mov	r3, r0
 2386 001a 002B     		cmp	r3, #0
 2387 001c 00D1     		bne	.L91
 2388              	.L92:
 703:C:/Users/49542/Desktop/GD32F30x_Demo_Suites_V2.0.0/GD32F30x_Demo_Suites_V2.0.0/GD32F30x_Firmware_Library/GD32F30x_standard_peripheral/Source\gd32f30x_dma.c ****         DMA_WRONG_HANDLE
 2389              		.loc 1 703 0 discriminator 1
 2390 001e FEE7     		b	.L92
 2391              	.L91:
 704:C:/Users/49542/Desktop/GD32F30x_Demo_Suites_V2.0.0/GD32F30x_Demo_Suites_V2.0.0/GD32F30x_Firmware_Library/GD32F30x_standard_peripheral/Source\gd32f30x_dma.c ****     }
 705:C:/Users/49542/Desktop/GD32F30x_Demo_Suites_V2.0.0/GD32F30x_Demo_Suites_V2.0.0/GD32F30x_Firmware_Library/GD32F30x_standard_peripheral/Source\gd32f30x_dma.c ****     
 706:C:/Users/49542/Desktop/GD32F30x_Demo_Suites_V2.0.0/GD32F30x_Demo_Suites_V2.0.0/GD32F30x_Firmware_Library/GD32F30x_standard_peripheral/Source\gd32f30x_dma.c ****     DMA_CHCTL(dma_periph, channelx) &= ~source;
 2392              		.loc 1 706 0
 2393 0020 FA7A     		ldrb	r2, [r7, #11]	@ zero_extendqisi2
 2394 0022 1346     		mov	r3, r2
 2395 0024 9B00     		lsls	r3, r3, #2
 2396 0026 1344     		add	r3, r3, r2
 2397 0028 9B00     		lsls	r3, r3, #2
 2398 002a 1A46     		mov	r2, r3
 2399 002c FB68     		ldr	r3, [r7, #12]
 2400 002e 1344     		add	r3, r3, r2
 2401 0030 0833     		adds	r3, r3, #8
 2402 0032 1868     		ldr	r0, [r3]
 2403 0034 7B68     		ldr	r3, [r7, #4]
 2404 0036 D943     		mvns	r1, r3
 2405 0038 FA7A     		ldrb	r2, [r7, #11]	@ zero_extendqisi2
 2406 003a 1346     		mov	r3, r2
 2407 003c 9B00     		lsls	r3, r3, #2
 2408 003e 1344     		add	r3, r3, r2
 2409 0040 9B00     		lsls	r3, r3, #2
 2410 0042 1A46     		mov	r2, r3
 2411 0044 FB68     		ldr	r3, [r7, #12]
 2412 0046 1344     		add	r3, r3, r2
 2413 0048 0833     		adds	r3, r3, #8
 2414 004a 1A46     		mov	r2, r3
 2415 004c 00EA0103 		and	r3, r0, r1
 2416 0050 1360     		str	r3, [r2]
 707:C:/Users/49542/Desktop/GD32F30x_Demo_Suites_V2.0.0/GD32F30x_Demo_Suites_V2.0.0/GD32F30x_Firmware_Library/GD32F30x_standard_peripheral/Source\gd32f30x_dma.c **** }
 2417              		.loc 1 707 0
 2418 0052 00BF     		nop
 2419 0054 1037     		adds	r7, r7, #16
 2420              	.LCFI138:
 2421              		.cfi_def_cfa_offset 8
 2422 0056 BD46     		mov	sp, r7
ARM GAS  C:\Users\49542\AppData\Local\Temp\ccb6xhB5.s 			page 55


 2423              	.LCFI139:
 2424              		.cfi_def_cfa_register 13
 2425              		@ sp needed
 2426 0058 80BD     		pop	{r7, pc}
 2427              		.cfi_endproc
 2428              	.LFE142:
 2430              		.section	.text.dma_periph_and_channel_check,"ax",%progbits
 2431              		.align	1
 2432              		.syntax unified
 2433              		.thumb
 2434              		.thumb_func
 2435              		.fpu fpv4-sp-d16
 2437              	dma_periph_and_channel_check:
 2438              	.LFB143:
 708:C:/Users/49542/Desktop/GD32F30x_Demo_Suites_V2.0.0/GD32F30x_Demo_Suites_V2.0.0/GD32F30x_Firmware_Library/GD32F30x_standard_peripheral/Source\gd32f30x_dma.c **** 
 709:C:/Users/49542/Desktop/GD32F30x_Demo_Suites_V2.0.0/GD32F30x_Demo_Suites_V2.0.0/GD32F30x_Firmware_Library/GD32F30x_standard_peripheral/Source\gd32f30x_dma.c **** /*!
 710:C:/Users/49542/Desktop/GD32F30x_Demo_Suites_V2.0.0/GD32F30x_Demo_Suites_V2.0.0/GD32F30x_Firmware_Library/GD32F30x_standard_peripheral/Source\gd32f30x_dma.c ****     \brief      check whether peripheral and channels match
 711:C:/Users/49542/Desktop/GD32F30x_Demo_Suites_V2.0.0/GD32F30x_Demo_Suites_V2.0.0/GD32F30x_Firmware_Library/GD32F30x_standard_peripheral/Source\gd32f30x_dma.c ****     \param[in]  dma_periph: DMAx(x=0,1)
 712:C:/Users/49542/Desktop/GD32F30x_Demo_Suites_V2.0.0/GD32F30x_Demo_Suites_V2.0.0/GD32F30x_Firmware_Library/GD32F30x_standard_peripheral/Source\gd32f30x_dma.c ****       \arg        DMAx(x=0,1)
 713:C:/Users/49542/Desktop/GD32F30x_Demo_Suites_V2.0.0/GD32F30x_Demo_Suites_V2.0.0/GD32F30x_Firmware_Library/GD32F30x_standard_peripheral/Source\gd32f30x_dma.c ****     \param[in]  channelx: specify which DMA channel 
 714:C:/Users/49542/Desktop/GD32F30x_Demo_Suites_V2.0.0/GD32F30x_Demo_Suites_V2.0.0/GD32F30x_Firmware_Library/GD32F30x_standard_peripheral/Source\gd32f30x_dma.c ****                 only one parameter can be selected which is shown as below:
 715:C:/Users/49542/Desktop/GD32F30x_Demo_Suites_V2.0.0/GD32F30x_Demo_Suites_V2.0.0/GD32F30x_Firmware_Library/GD32F30x_standard_peripheral/Source\gd32f30x_dma.c ****       \arg        DMA_CHx(x=0..6)
 716:C:/Users/49542/Desktop/GD32F30x_Demo_Suites_V2.0.0/GD32F30x_Demo_Suites_V2.0.0/GD32F30x_Firmware_Library/GD32F30x_standard_peripheral/Source\gd32f30x_dma.c ****     \param[out] none
 717:C:/Users/49542/Desktop/GD32F30x_Demo_Suites_V2.0.0/GD32F30x_Demo_Suites_V2.0.0/GD32F30x_Firmware_Library/GD32F30x_standard_peripheral/Source\gd32f30x_dma.c ****     \retval     none
 718:C:/Users/49542/Desktop/GD32F30x_Demo_Suites_V2.0.0/GD32F30x_Demo_Suites_V2.0.0/GD32F30x_Firmware_Library/GD32F30x_standard_peripheral/Source\gd32f30x_dma.c **** */
 719:C:/Users/49542/Desktop/GD32F30x_Demo_Suites_V2.0.0/GD32F30x_Demo_Suites_V2.0.0/GD32F30x_Firmware_Library/GD32F30x_standard_peripheral/Source\gd32f30x_dma.c **** static ErrStatus dma_periph_and_channel_check(uint32_t dma_periph, dma_channel_enum channelx)
 720:C:/Users/49542/Desktop/GD32F30x_Demo_Suites_V2.0.0/GD32F30x_Demo_Suites_V2.0.0/GD32F30x_Firmware_Library/GD32F30x_standard_peripheral/Source\gd32f30x_dma.c **** {
 2439              		.loc 1 720 0
 2440              		.cfi_startproc
 2441              		@ args = 0, pretend = 0, frame = 16
 2442              		@ frame_needed = 1, uses_anonymous_args = 0
 2443              		@ link register save eliminated.
 2444 0000 80B4     		push	{r7}
 2445              	.LCFI140:
 2446              		.cfi_def_cfa_offset 4
 2447              		.cfi_offset 7, -4
 2448 0002 85B0     		sub	sp, sp, #20
 2449              	.LCFI141:
 2450              		.cfi_def_cfa_offset 24
 2451 0004 00AF     		add	r7, sp, #0
 2452              	.LCFI142:
 2453              		.cfi_def_cfa_register 7
 2454 0006 7860     		str	r0, [r7, #4]
 2455 0008 0B46     		mov	r3, r1
 2456 000a FB70     		strb	r3, [r7, #3]
 721:C:/Users/49542/Desktop/GD32F30x_Demo_Suites_V2.0.0/GD32F30x_Demo_Suites_V2.0.0/GD32F30x_Firmware_Library/GD32F30x_standard_peripheral/Source\gd32f30x_dma.c ****     ErrStatus val = SUCCESS;
 2457              		.loc 1 721 0
 2458 000c 0123     		movs	r3, #1
 2459 000e FB73     		strb	r3, [r7, #15]
 722:C:/Users/49542/Desktop/GD32F30x_Demo_Suites_V2.0.0/GD32F30x_Demo_Suites_V2.0.0/GD32F30x_Firmware_Library/GD32F30x_standard_peripheral/Source\gd32f30x_dma.c ****     
 723:C:/Users/49542/Desktop/GD32F30x_Demo_Suites_V2.0.0/GD32F30x_Demo_Suites_V2.0.0/GD32F30x_Firmware_Library/GD32F30x_standard_peripheral/Source\gd32f30x_dma.c ****     if(DMA1 == dma_periph){
 2460              		.loc 1 723 0
 2461 0010 7B68     		ldr	r3, [r7, #4]
 2462 0012 074A     		ldr	r2, .L96
 2463 0014 9342     		cmp	r3, r2
 2464 0016 04D1     		bne	.L94
 724:C:/Users/49542/Desktop/GD32F30x_Demo_Suites_V2.0.0/GD32F30x_Demo_Suites_V2.0.0/GD32F30x_Firmware_Library/GD32F30x_standard_peripheral/Source\gd32f30x_dma.c ****         /* for DMA1, the channel is from DMA_CH0 to DMA_CH4 */
ARM GAS  C:\Users\49542\AppData\Local\Temp\ccb6xhB5.s 			page 56


 725:C:/Users/49542/Desktop/GD32F30x_Demo_Suites_V2.0.0/GD32F30x_Demo_Suites_V2.0.0/GD32F30x_Firmware_Library/GD32F30x_standard_peripheral/Source\gd32f30x_dma.c ****         if(channelx > DMA_CH4){
 2465              		.loc 1 725 0
 2466 0018 FB78     		ldrb	r3, [r7, #3]	@ zero_extendqisi2
 2467 001a 042B     		cmp	r3, #4
 2468 001c 01D9     		bls	.L94
 726:C:/Users/49542/Desktop/GD32F30x_Demo_Suites_V2.0.0/GD32F30x_Demo_Suites_V2.0.0/GD32F30x_Firmware_Library/GD32F30x_standard_peripheral/Source\gd32f30x_dma.c ****             val = ERROR;
 2469              		.loc 1 726 0
 2470 001e 0023     		movs	r3, #0
 2471 0020 FB73     		strb	r3, [r7, #15]
 2472              	.L94:
 727:C:/Users/49542/Desktop/GD32F30x_Demo_Suites_V2.0.0/GD32F30x_Demo_Suites_V2.0.0/GD32F30x_Firmware_Library/GD32F30x_standard_peripheral/Source\gd32f30x_dma.c ****         }
 728:C:/Users/49542/Desktop/GD32F30x_Demo_Suites_V2.0.0/GD32F30x_Demo_Suites_V2.0.0/GD32F30x_Firmware_Library/GD32F30x_standard_peripheral/Source\gd32f30x_dma.c ****     }
 729:C:/Users/49542/Desktop/GD32F30x_Demo_Suites_V2.0.0/GD32F30x_Demo_Suites_V2.0.0/GD32F30x_Firmware_Library/GD32F30x_standard_peripheral/Source\gd32f30x_dma.c ****     
 730:C:/Users/49542/Desktop/GD32F30x_Demo_Suites_V2.0.0/GD32F30x_Demo_Suites_V2.0.0/GD32F30x_Firmware_Library/GD32F30x_standard_peripheral/Source\gd32f30x_dma.c ****     return val;
 2473              		.loc 1 730 0
 2474 0022 FB7B     		ldrb	r3, [r7, #15]	@ zero_extendqisi2
 731:C:/Users/49542/Desktop/GD32F30x_Demo_Suites_V2.0.0/GD32F30x_Demo_Suites_V2.0.0/GD32F30x_Firmware_Library/GD32F30x_standard_peripheral/Source\gd32f30x_dma.c **** }
 2475              		.loc 1 731 0
 2476 0024 1846     		mov	r0, r3
 2477 0026 1437     		adds	r7, r7, #20
 2478              	.LCFI143:
 2479              		.cfi_def_cfa_offset 4
 2480 0028 BD46     		mov	sp, r7
 2481              	.LCFI144:
 2482              		.cfi_def_cfa_register 13
 2483              		@ sp needed
 2484 002a 5DF8047B 		ldr	r7, [sp], #4
 2485              	.LCFI145:
 2486              		.cfi_restore 7
 2487              		.cfi_def_cfa_offset 0
 2488 002e 7047     		bx	lr
 2489              	.L97:
 2490              		.align	2
 2491              	.L96:
 2492 0030 00040240 		.word	1073873920
 2493              		.cfi_endproc
 2494              	.LFE143:
 2496              		.text
 2497              	.Letext0:
 2498              		.file 2 "c:\\users\\49542\\opensourcetools\\gnu tools arm embedded\\7 2018-q2-update\\arm-none-eab
 2499              		.file 3 "c:\\users\\49542\\opensourcetools\\gnu tools arm embedded\\7 2018-q2-update\\arm-none-eab
 2500              		.file 4 "C:/Users/49542/Desktop/GD32F30x_Demo_Suites_V2.0.0/GD32F30x_Demo_Suites_V2.0.0/GD32F30x_F
 2501              		.file 5 "C:/Users/49542/Desktop/GD32F30x_Demo_Suites_V2.0.0/GD32F30x_Demo_Suites_V2.0.0/GD32F30x_F
 2502              		.file 6 "C:/Users/49542/Desktop/GD32F30x_Demo_Suites_V2.0.0/GD32F30x_Demo_Suites_V2.0.0/GD32F30x_F
 2503              		.file 7 "c:\\users\\49542\\opensourcetools\\gnu tools arm embedded\\7 2018-q2-update\\arm-none-eab
 2504              		.file 8 "c:\\users\\49542\\opensourcetools\\gnu tools arm embedded\\7 2018-q2-update\\arm-none-eab
 2505              		.file 9 "c:\\users\\49542\\opensourcetools\\gnu tools arm embedded\\7 2018-q2-update\\lib\\gcc\\ar
 2506              		.file 10 "c:\\users\\49542\\opensourcetools\\gnu tools arm embedded\\7 2018-q2-update\\arm-none-ea
 2507              		.file 11 "c:\\users\\49542\\opensourcetools\\gnu tools arm embedded\\7 2018-q2-update\\arm-none-ea
 2508              		.file 12 "C:/Users/49542/Desktop/GD32F30x_Demo_Suites_V2.0.0/GD32F30x_Demo_Suites_V2.0.0/GD32F30x_
ARM GAS  C:\Users\49542\AppData\Local\Temp\ccb6xhB5.s 			page 57

