ARM GAS  C:\Users\49542\AppData\Local\Temp\ccT3FCLy.s 			page 1


   1              		.cpu cortex-m4
   2              		.eabi_attribute 27, 1
   3              		.eabi_attribute 28, 1
   4              		.eabi_attribute 20, 1
   5              		.eabi_attribute 21, 1
   6              		.eabi_attribute 23, 3
   7              		.eabi_attribute 24, 1
   8              		.eabi_attribute 25, 1
   9              		.eabi_attribute 26, 1
  10              		.eabi_attribute 30, 6
  11              		.eabi_attribute 34, 1
  12              		.eabi_attribute 18, 4
  13              		.file	"system_gd32f30x.c"
  14              		.text
  15              	.Ltext0:
  16              		.cfi_sections	.debug_frame
  17              		.global	SystemCoreClock
  18              		.section	.data.SystemCoreClock,"aw",%progbits
  19              		.align	2
  22              	SystemCoreClock:
  23 0000 000E2707 		.word	120000000
  24              		.section	.text.SystemInit,"ax",%progbits
  25              		.align	1
  26              		.global	SystemInit
  27              		.syntax unified
  28              		.thumb
  29              		.thumb_func
  30              		.fpu fpv4-sp-d16
  32              	SystemInit:
  33              	.LFB116:
  34              		.file 1 "C:/Users/49542/Desktop/GD32F30x_Demo_Suites_V2.0.0/GD32F30x_Demo_Suites_V2.0.0/GD32F30x_F
   1:C:/Users/49542/Desktop/GD32F30x_Demo_Suites_V2.0.0/GD32F30x_Demo_Suites_V2.0.0/GD32F30x_Firmware_Library/CMSIS/GD/GD32F30x/Source\system_gd32f30x.c **** /*!
   2:C:/Users/49542/Desktop/GD32F30x_Demo_Suites_V2.0.0/GD32F30x_Demo_Suites_V2.0.0/GD32F30x_Firmware_Library/CMSIS/GD/GD32F30x/Source\system_gd32f30x.c ****     \file  system_gd32f30x.c
   3:C:/Users/49542/Desktop/GD32F30x_Demo_Suites_V2.0.0/GD32F30x_Demo_Suites_V2.0.0/GD32F30x_Firmware_Library/CMSIS/GD/GD32F30x/Source\system_gd32f30x.c ****     \brief CMSIS Cortex-M4 Device Peripheral Access Layer Source File for
   4:C:/Users/49542/Desktop/GD32F30x_Demo_Suites_V2.0.0/GD32F30x_Demo_Suites_V2.0.0/GD32F30x_Firmware_Library/CMSIS/GD/GD32F30x/Source\system_gd32f30x.c ****            GD32F30x Device Series
   5:C:/Users/49542/Desktop/GD32F30x_Demo_Suites_V2.0.0/GD32F30x_Demo_Suites_V2.0.0/GD32F30x_Firmware_Library/CMSIS/GD/GD32F30x/Source\system_gd32f30x.c **** */
   6:C:/Users/49542/Desktop/GD32F30x_Demo_Suites_V2.0.0/GD32F30x_Demo_Suites_V2.0.0/GD32F30x_Firmware_Library/CMSIS/GD/GD32F30x/Source\system_gd32f30x.c **** 
   7:C:/Users/49542/Desktop/GD32F30x_Demo_Suites_V2.0.0/GD32F30x_Demo_Suites_V2.0.0/GD32F30x_Firmware_Library/CMSIS/GD/GD32F30x/Source\system_gd32f30x.c **** /* Copyright (c) 2012 ARM LIMITED
   8:C:/Users/49542/Desktop/GD32F30x_Demo_Suites_V2.0.0/GD32F30x_Demo_Suites_V2.0.0/GD32F30x_Firmware_Library/CMSIS/GD/GD32F30x/Source\system_gd32f30x.c **** 
   9:C:/Users/49542/Desktop/GD32F30x_Demo_Suites_V2.0.0/GD32F30x_Demo_Suites_V2.0.0/GD32F30x_Firmware_Library/CMSIS/GD/GD32F30x/Source\system_gd32f30x.c ****    All rights reserved.
  10:C:/Users/49542/Desktop/GD32F30x_Demo_Suites_V2.0.0/GD32F30x_Demo_Suites_V2.0.0/GD32F30x_Firmware_Library/CMSIS/GD/GD32F30x/Source\system_gd32f30x.c ****    Redistribution and use in source and binary forms, with or without
  11:C:/Users/49542/Desktop/GD32F30x_Demo_Suites_V2.0.0/GD32F30x_Demo_Suites_V2.0.0/GD32F30x_Firmware_Library/CMSIS/GD/GD32F30x/Source\system_gd32f30x.c ****    modification, are permitted provided that the following conditions are met:
  12:C:/Users/49542/Desktop/GD32F30x_Demo_Suites_V2.0.0/GD32F30x_Demo_Suites_V2.0.0/GD32F30x_Firmware_Library/CMSIS/GD/GD32F30x/Source\system_gd32f30x.c ****    - Redistributions of source code must retain the above copyright
  13:C:/Users/49542/Desktop/GD32F30x_Demo_Suites_V2.0.0/GD32F30x_Demo_Suites_V2.0.0/GD32F30x_Firmware_Library/CMSIS/GD/GD32F30x/Source\system_gd32f30x.c ****      notice, this list of conditions and the following disclaimer.
  14:C:/Users/49542/Desktop/GD32F30x_Demo_Suites_V2.0.0/GD32F30x_Demo_Suites_V2.0.0/GD32F30x_Firmware_Library/CMSIS/GD/GD32F30x/Source\system_gd32f30x.c ****    - Redistributions in binary form must reproduce the above copyright
  15:C:/Users/49542/Desktop/GD32F30x_Demo_Suites_V2.0.0/GD32F30x_Demo_Suites_V2.0.0/GD32F30x_Firmware_Library/CMSIS/GD/GD32F30x/Source\system_gd32f30x.c ****      notice, this list of conditions and the following disclaimer in the
  16:C:/Users/49542/Desktop/GD32F30x_Demo_Suites_V2.0.0/GD32F30x_Demo_Suites_V2.0.0/GD32F30x_Firmware_Library/CMSIS/GD/GD32F30x/Source\system_gd32f30x.c ****      documentation and/or other materials provided with the distribution.
  17:C:/Users/49542/Desktop/GD32F30x_Demo_Suites_V2.0.0/GD32F30x_Demo_Suites_V2.0.0/GD32F30x_Firmware_Library/CMSIS/GD/GD32F30x/Source\system_gd32f30x.c ****    - Neither the name of ARM nor the names of its contributors may be used
  18:C:/Users/49542/Desktop/GD32F30x_Demo_Suites_V2.0.0/GD32F30x_Demo_Suites_V2.0.0/GD32F30x_Firmware_Library/CMSIS/GD/GD32F30x/Source\system_gd32f30x.c ****      to endorse or promote products derived from this software without
  19:C:/Users/49542/Desktop/GD32F30x_Demo_Suites_V2.0.0/GD32F30x_Demo_Suites_V2.0.0/GD32F30x_Firmware_Library/CMSIS/GD/GD32F30x/Source\system_gd32f30x.c ****      specific prior written permission.
  20:C:/Users/49542/Desktop/GD32F30x_Demo_Suites_V2.0.0/GD32F30x_Demo_Suites_V2.0.0/GD32F30x_Firmware_Library/CMSIS/GD/GD32F30x/Source\system_gd32f30x.c ****    *
  21:C:/Users/49542/Desktop/GD32F30x_Demo_Suites_V2.0.0/GD32F30x_Demo_Suites_V2.0.0/GD32F30x_Firmware_Library/CMSIS/GD/GD32F30x/Source\system_gd32f30x.c ****    THIS SOFTWARE IS PROVIDED BY THE COPYRIGHT HOLDERS AND CONTRIBUTORS "AS IS"
  22:C:/Users/49542/Desktop/GD32F30x_Demo_Suites_V2.0.0/GD32F30x_Demo_Suites_V2.0.0/GD32F30x_Firmware_Library/CMSIS/GD/GD32F30x/Source\system_gd32f30x.c ****    AND ANY EXPRESS OR IMPLIED WARRANTIES, INCLUDING, BUT NOT LIMITED TO, THE
  23:C:/Users/49542/Desktop/GD32F30x_Demo_Suites_V2.0.0/GD32F30x_Demo_Suites_V2.0.0/GD32F30x_Firmware_Library/CMSIS/GD/GD32F30x/Source\system_gd32f30x.c ****    IMPLIED WARRANTIES OF MERCHANTABILITY AND FITNESS FOR A PARTICULAR PURPOSE
  24:C:/Users/49542/Desktop/GD32F30x_Demo_Suites_V2.0.0/GD32F30x_Demo_Suites_V2.0.0/GD32F30x_Firmware_Library/CMSIS/GD/GD32F30x/Source\system_gd32f30x.c ****    ARE DISCLAIMED. IN NO EVENT SHALL COPYRIGHT HOLDERS AND CONTRIBUTORS BE
  25:C:/Users/49542/Desktop/GD32F30x_Demo_Suites_V2.0.0/GD32F30x_Demo_Suites_V2.0.0/GD32F30x_Firmware_Library/CMSIS/GD/GD32F30x/Source\system_gd32f30x.c ****    LIABLE FOR ANY DIRECT, INDIRECT, INCIDENTAL, SPECIAL, EXEMPLARY, OR
  26:C:/Users/49542/Desktop/GD32F30x_Demo_Suites_V2.0.0/GD32F30x_Demo_Suites_V2.0.0/GD32F30x_Firmware_Library/CMSIS/GD/GD32F30x/Source\system_gd32f30x.c ****    CONSEQUENTIAL DAMAGES (INCLUDING, BUT NOT LIMITED TO, PROCUREMENT OF
ARM GAS  C:\Users\49542\AppData\Local\Temp\ccT3FCLy.s 			page 2


  27:C:/Users/49542/Desktop/GD32F30x_Demo_Suites_V2.0.0/GD32F30x_Demo_Suites_V2.0.0/GD32F30x_Firmware_Library/CMSIS/GD/GD32F30x/Source\system_gd32f30x.c ****    SUBSTITUTE GOODS OR SERVICES; LOSS OF USE, DATA, OR PROFITS; OR BUSINESS
  28:C:/Users/49542/Desktop/GD32F30x_Demo_Suites_V2.0.0/GD32F30x_Demo_Suites_V2.0.0/GD32F30x_Firmware_Library/CMSIS/GD/GD32F30x/Source\system_gd32f30x.c ****    INTERRUPTION) HOWEVER CAUSED AND ON ANY THEORY OF LIABILITY, WHETHER IN
  29:C:/Users/49542/Desktop/GD32F30x_Demo_Suites_V2.0.0/GD32F30x_Demo_Suites_V2.0.0/GD32F30x_Firmware_Library/CMSIS/GD/GD32F30x/Source\system_gd32f30x.c ****    CONTRACT, STRICT LIABILITY, OR TORT (INCLUDING NEGLIGENCE OR OTHERWISE)
  30:C:/Users/49542/Desktop/GD32F30x_Demo_Suites_V2.0.0/GD32F30x_Demo_Suites_V2.0.0/GD32F30x_Firmware_Library/CMSIS/GD/GD32F30x/Source\system_gd32f30x.c ****    ARISING IN ANY WAY OUT OF THE USE OF THIS SOFTWARE, EVEN IF ADVISED OF THE
  31:C:/Users/49542/Desktop/GD32F30x_Demo_Suites_V2.0.0/GD32F30x_Demo_Suites_V2.0.0/GD32F30x_Firmware_Library/CMSIS/GD/GD32F30x/Source\system_gd32f30x.c ****    POSSIBILITY OF SUCH DAMAGE.
  32:C:/Users/49542/Desktop/GD32F30x_Demo_Suites_V2.0.0/GD32F30x_Demo_Suites_V2.0.0/GD32F30x_Firmware_Library/CMSIS/GD/GD32F30x/Source\system_gd32f30x.c ****    ---------------------------------------------------------------------------*/
  33:C:/Users/49542/Desktop/GD32F30x_Demo_Suites_V2.0.0/GD32F30x_Demo_Suites_V2.0.0/GD32F30x_Firmware_Library/CMSIS/GD/GD32F30x/Source\system_gd32f30x.c **** /* This file refers the CMSIS standard, some adjustments are made according to GigaDevice chips */
  34:C:/Users/49542/Desktop/GD32F30x_Demo_Suites_V2.0.0/GD32F30x_Demo_Suites_V2.0.0/GD32F30x_Firmware_Library/CMSIS/GD/GD32F30x/Source\system_gd32f30x.c **** 
  35:C:/Users/49542/Desktop/GD32F30x_Demo_Suites_V2.0.0/GD32F30x_Demo_Suites_V2.0.0/GD32F30x_Firmware_Library/CMSIS/GD/GD32F30x/Source\system_gd32f30x.c **** #include "gd32f30x.h"
  36:C:/Users/49542/Desktop/GD32F30x_Demo_Suites_V2.0.0/GD32F30x_Demo_Suites_V2.0.0/GD32F30x_Firmware_Library/CMSIS/GD/GD32F30x/Source\system_gd32f30x.c **** 
  37:C:/Users/49542/Desktop/GD32F30x_Demo_Suites_V2.0.0/GD32F30x_Demo_Suites_V2.0.0/GD32F30x_Firmware_Library/CMSIS/GD/GD32F30x/Source\system_gd32f30x.c **** /* system frequency define */
  38:C:/Users/49542/Desktop/GD32F30x_Demo_Suites_V2.0.0/GD32F30x_Demo_Suites_V2.0.0/GD32F30x_Firmware_Library/CMSIS/GD/GD32F30x/Source\system_gd32f30x.c **** #define __IRC8M           (IRC8M_VALUE)            /* internal 8 MHz RC oscillator frequency */
  39:C:/Users/49542/Desktop/GD32F30x_Demo_Suites_V2.0.0/GD32F30x_Demo_Suites_V2.0.0/GD32F30x_Firmware_Library/CMSIS/GD/GD32F30x/Source\system_gd32f30x.c **** #define __HXTAL           (HXTAL_VALUE)            /* high speed crystal oscillator frequency */
  40:C:/Users/49542/Desktop/GD32F30x_Demo_Suites_V2.0.0/GD32F30x_Demo_Suites_V2.0.0/GD32F30x_Firmware_Library/CMSIS/GD/GD32F30x/Source\system_gd32f30x.c **** #define __SYS_OSC_CLK     (__IRC8M)                /* main oscillator frequency */
  41:C:/Users/49542/Desktop/GD32F30x_Demo_Suites_V2.0.0/GD32F30x_Demo_Suites_V2.0.0/GD32F30x_Firmware_Library/CMSIS/GD/GD32F30x/Source\system_gd32f30x.c **** 
  42:C:/Users/49542/Desktop/GD32F30x_Demo_Suites_V2.0.0/GD32F30x_Demo_Suites_V2.0.0/GD32F30x_Firmware_Library/CMSIS/GD/GD32F30x/Source\system_gd32f30x.c **** /* select a system clock by uncommenting the following line */
  43:C:/Users/49542/Desktop/GD32F30x_Demo_Suites_V2.0.0/GD32F30x_Demo_Suites_V2.0.0/GD32F30x_Firmware_Library/CMSIS/GD/GD32F30x/Source\system_gd32f30x.c **** /* use IRC8M */
  44:C:/Users/49542/Desktop/GD32F30x_Demo_Suites_V2.0.0/GD32F30x_Demo_Suites_V2.0.0/GD32F30x_Firmware_Library/CMSIS/GD/GD32F30x/Source\system_gd32f30x.c **** //#define __SYSTEM_CLOCK_IRC8M                    (uint32_t)(__IRC8M) 
  45:C:/Users/49542/Desktop/GD32F30x_Demo_Suites_V2.0.0/GD32F30x_Demo_Suites_V2.0.0/GD32F30x_Firmware_Library/CMSIS/GD/GD32F30x/Source\system_gd32f30x.c **** //#define __SYSTEM_CLOCK_48M_PLL_IRC8M            (uint32_t)(48000000)
  46:C:/Users/49542/Desktop/GD32F30x_Demo_Suites_V2.0.0/GD32F30x_Demo_Suites_V2.0.0/GD32F30x_Firmware_Library/CMSIS/GD/GD32F30x/Source\system_gd32f30x.c **** //#define __SYSTEM_CLOCK_72M_PLL_IRC8M            (uint32_t)(72000000)
  47:C:/Users/49542/Desktop/GD32F30x_Demo_Suites_V2.0.0/GD32F30x_Demo_Suites_V2.0.0/GD32F30x_Firmware_Library/CMSIS/GD/GD32F30x/Source\system_gd32f30x.c **** //#define __SYSTEM_CLOCK_108M_PLL_IRC8M           (uint32_t)(108000000)
  48:C:/Users/49542/Desktop/GD32F30x_Demo_Suites_V2.0.0/GD32F30x_Demo_Suites_V2.0.0/GD32F30x_Firmware_Library/CMSIS/GD/GD32F30x/Source\system_gd32f30x.c **** //#define __SYSTEM_CLOCK_120M_PLL_IRC8M           (uint32_t)(120000000)
  49:C:/Users/49542/Desktop/GD32F30x_Demo_Suites_V2.0.0/GD32F30x_Demo_Suites_V2.0.0/GD32F30x_Firmware_Library/CMSIS/GD/GD32F30x/Source\system_gd32f30x.c **** 
  50:C:/Users/49542/Desktop/GD32F30x_Demo_Suites_V2.0.0/GD32F30x_Demo_Suites_V2.0.0/GD32F30x_Firmware_Library/CMSIS/GD/GD32F30x/Source\system_gd32f30x.c **** /* use HXTAL(XD series CK_HXTAL = 8M, CL series CK_HXTAL = 25M) */
  51:C:/Users/49542/Desktop/GD32F30x_Demo_Suites_V2.0.0/GD32F30x_Demo_Suites_V2.0.0/GD32F30x_Firmware_Library/CMSIS/GD/GD32F30x/Source\system_gd32f30x.c **** //#define __SYSTEM_CLOCK_HXTAL                    (uint32_t)(__HXTAL)
  52:C:/Users/49542/Desktop/GD32F30x_Demo_Suites_V2.0.0/GD32F30x_Demo_Suites_V2.0.0/GD32F30x_Firmware_Library/CMSIS/GD/GD32F30x/Source\system_gd32f30x.c **** //#define __SYSTEM_CLOCK_48M_PLL_HXTAL            (uint32_t)(48000000)
  53:C:/Users/49542/Desktop/GD32F30x_Demo_Suites_V2.0.0/GD32F30x_Demo_Suites_V2.0.0/GD32F30x_Firmware_Library/CMSIS/GD/GD32F30x/Source\system_gd32f30x.c **** //#define __SYSTEM_CLOCK_72M_PLL_HXTAL            (uint32_t)(72000000)
  54:C:/Users/49542/Desktop/GD32F30x_Demo_Suites_V2.0.0/GD32F30x_Demo_Suites_V2.0.0/GD32F30x_Firmware_Library/CMSIS/GD/GD32F30x/Source\system_gd32f30x.c **** //#define __SYSTEM_CLOCK_108M_PLL_HXTAL           (uint32_t)(108000000)
  55:C:/Users/49542/Desktop/GD32F30x_Demo_Suites_V2.0.0/GD32F30x_Demo_Suites_V2.0.0/GD32F30x_Firmware_Library/CMSIS/GD/GD32F30x/Source\system_gd32f30x.c **** #define __SYSTEM_CLOCK_120M_PLL_HXTAL           (uint32_t)(120000000)
  56:C:/Users/49542/Desktop/GD32F30x_Demo_Suites_V2.0.0/GD32F30x_Demo_Suites_V2.0.0/GD32F30x_Firmware_Library/CMSIS/GD/GD32F30x/Source\system_gd32f30x.c **** 
  57:C:/Users/49542/Desktop/GD32F30x_Demo_Suites_V2.0.0/GD32F30x_Demo_Suites_V2.0.0/GD32F30x_Firmware_Library/CMSIS/GD/GD32F30x/Source\system_gd32f30x.c **** #define SEL_IRC8M       0x00U
  58:C:/Users/49542/Desktop/GD32F30x_Demo_Suites_V2.0.0/GD32F30x_Demo_Suites_V2.0.0/GD32F30x_Firmware_Library/CMSIS/GD/GD32F30x/Source\system_gd32f30x.c **** #define SEL_HXTAL       0x01U
  59:C:/Users/49542/Desktop/GD32F30x_Demo_Suites_V2.0.0/GD32F30x_Demo_Suites_V2.0.0/GD32F30x_Firmware_Library/CMSIS/GD/GD32F30x/Source\system_gd32f30x.c **** #define SEL_PLL         0x02U
  60:C:/Users/49542/Desktop/GD32F30x_Demo_Suites_V2.0.0/GD32F30x_Demo_Suites_V2.0.0/GD32F30x_Firmware_Library/CMSIS/GD/GD32F30x/Source\system_gd32f30x.c **** 
  61:C:/Users/49542/Desktop/GD32F30x_Demo_Suites_V2.0.0/GD32F30x_Demo_Suites_V2.0.0/GD32F30x_Firmware_Library/CMSIS/GD/GD32F30x/Source\system_gd32f30x.c **** /* set the system clock frequency and declare the system clock configuration function */
  62:C:/Users/49542/Desktop/GD32F30x_Demo_Suites_V2.0.0/GD32F30x_Demo_Suites_V2.0.0/GD32F30x_Firmware_Library/CMSIS/GD/GD32F30x/Source\system_gd32f30x.c **** #ifdef __SYSTEM_CLOCK_IRC8M
  63:C:/Users/49542/Desktop/GD32F30x_Demo_Suites_V2.0.0/GD32F30x_Demo_Suites_V2.0.0/GD32F30x_Firmware_Library/CMSIS/GD/GD32F30x/Source\system_gd32f30x.c **** uint32_t SystemCoreClock = __SYSTEM_CLOCK_IRC8M;
  64:C:/Users/49542/Desktop/GD32F30x_Demo_Suites_V2.0.0/GD32F30x_Demo_Suites_V2.0.0/GD32F30x_Firmware_Library/CMSIS/GD/GD32F30x/Source\system_gd32f30x.c **** static void system_clock_8m_irc8m(void);
  65:C:/Users/49542/Desktop/GD32F30x_Demo_Suites_V2.0.0/GD32F30x_Demo_Suites_V2.0.0/GD32F30x_Firmware_Library/CMSIS/GD/GD32F30x/Source\system_gd32f30x.c **** #elif defined (__SYSTEM_CLOCK_48M_PLL_IRC8M)
  66:C:/Users/49542/Desktop/GD32F30x_Demo_Suites_V2.0.0/GD32F30x_Demo_Suites_V2.0.0/GD32F30x_Firmware_Library/CMSIS/GD/GD32F30x/Source\system_gd32f30x.c **** uint32_t SystemCoreClock = __SYSTEM_CLOCK_48M_PLL_IRC8M;
  67:C:/Users/49542/Desktop/GD32F30x_Demo_Suites_V2.0.0/GD32F30x_Demo_Suites_V2.0.0/GD32F30x_Firmware_Library/CMSIS/GD/GD32F30x/Source\system_gd32f30x.c **** static void system_clock_48m_irc8m(void);
  68:C:/Users/49542/Desktop/GD32F30x_Demo_Suites_V2.0.0/GD32F30x_Demo_Suites_V2.0.0/GD32F30x_Firmware_Library/CMSIS/GD/GD32F30x/Source\system_gd32f30x.c **** #elif defined (__SYSTEM_CLOCK_72M_PLL_IRC8M)
  69:C:/Users/49542/Desktop/GD32F30x_Demo_Suites_V2.0.0/GD32F30x_Demo_Suites_V2.0.0/GD32F30x_Firmware_Library/CMSIS/GD/GD32F30x/Source\system_gd32f30x.c **** uint32_t SystemCoreClock = __SYSTEM_CLOCK_72M_PLL_IRC8M;
  70:C:/Users/49542/Desktop/GD32F30x_Demo_Suites_V2.0.0/GD32F30x_Demo_Suites_V2.0.0/GD32F30x_Firmware_Library/CMSIS/GD/GD32F30x/Source\system_gd32f30x.c **** static void system_clock_72m_irc8m(void);
  71:C:/Users/49542/Desktop/GD32F30x_Demo_Suites_V2.0.0/GD32F30x_Demo_Suites_V2.0.0/GD32F30x_Firmware_Library/CMSIS/GD/GD32F30x/Source\system_gd32f30x.c **** #elif defined (__SYSTEM_CLOCK_108M_PLL_IRC8M)
  72:C:/Users/49542/Desktop/GD32F30x_Demo_Suites_V2.0.0/GD32F30x_Demo_Suites_V2.0.0/GD32F30x_Firmware_Library/CMSIS/GD/GD32F30x/Source\system_gd32f30x.c **** uint32_t SystemCoreClock = __SYSTEM_CLOCK_108M_PLL_IRC8M;
  73:C:/Users/49542/Desktop/GD32F30x_Demo_Suites_V2.0.0/GD32F30x_Demo_Suites_V2.0.0/GD32F30x_Firmware_Library/CMSIS/GD/GD32F30x/Source\system_gd32f30x.c **** static void system_clock_108m_irc8m(void);
  74:C:/Users/49542/Desktop/GD32F30x_Demo_Suites_V2.0.0/GD32F30x_Demo_Suites_V2.0.0/GD32F30x_Firmware_Library/CMSIS/GD/GD32F30x/Source\system_gd32f30x.c **** #elif defined (__SYSTEM_CLOCK_120M_PLL_IRC8M)
  75:C:/Users/49542/Desktop/GD32F30x_Demo_Suites_V2.0.0/GD32F30x_Demo_Suites_V2.0.0/GD32F30x_Firmware_Library/CMSIS/GD/GD32F30x/Source\system_gd32f30x.c **** uint32_t SystemCoreClock = __SYSTEM_CLOCK_120M_PLL_IRC8M;
  76:C:/Users/49542/Desktop/GD32F30x_Demo_Suites_V2.0.0/GD32F30x_Demo_Suites_V2.0.0/GD32F30x_Firmware_Library/CMSIS/GD/GD32F30x/Source\system_gd32f30x.c **** static void system_clock_120m_irc8m(void);
  77:C:/Users/49542/Desktop/GD32F30x_Demo_Suites_V2.0.0/GD32F30x_Demo_Suites_V2.0.0/GD32F30x_Firmware_Library/CMSIS/GD/GD32F30x/Source\system_gd32f30x.c **** 
  78:C:/Users/49542/Desktop/GD32F30x_Demo_Suites_V2.0.0/GD32F30x_Demo_Suites_V2.0.0/GD32F30x_Firmware_Library/CMSIS/GD/GD32F30x/Source\system_gd32f30x.c **** #elif defined (__SYSTEM_CLOCK_HXTAL)
  79:C:/Users/49542/Desktop/GD32F30x_Demo_Suites_V2.0.0/GD32F30x_Demo_Suites_V2.0.0/GD32F30x_Firmware_Library/CMSIS/GD/GD32F30x/Source\system_gd32f30x.c **** uint32_t SystemCoreClock = __SYSTEM_CLOCK_HXTAL;
  80:C:/Users/49542/Desktop/GD32F30x_Demo_Suites_V2.0.0/GD32F30x_Demo_Suites_V2.0.0/GD32F30x_Firmware_Library/CMSIS/GD/GD32F30x/Source\system_gd32f30x.c **** static void system_clock_hxtal(void);
  81:C:/Users/49542/Desktop/GD32F30x_Demo_Suites_V2.0.0/GD32F30x_Demo_Suites_V2.0.0/GD32F30x_Firmware_Library/CMSIS/GD/GD32F30x/Source\system_gd32f30x.c **** #elif defined (__SYSTEM_CLOCK_48M_PLL_HXTAL)
  82:C:/Users/49542/Desktop/GD32F30x_Demo_Suites_V2.0.0/GD32F30x_Demo_Suites_V2.0.0/GD32F30x_Firmware_Library/CMSIS/GD/GD32F30x/Source\system_gd32f30x.c **** uint32_t SystemCoreClock = __SYSTEM_CLOCK_48M_PLL_HXTAL;
  83:C:/Users/49542/Desktop/GD32F30x_Demo_Suites_V2.0.0/GD32F30x_Demo_Suites_V2.0.0/GD32F30x_Firmware_Library/CMSIS/GD/GD32F30x/Source\system_gd32f30x.c **** static void system_clock_48m_hxtal(void);
ARM GAS  C:\Users\49542\AppData\Local\Temp\ccT3FCLy.s 			page 3


  84:C:/Users/49542/Desktop/GD32F30x_Demo_Suites_V2.0.0/GD32F30x_Demo_Suites_V2.0.0/GD32F30x_Firmware_Library/CMSIS/GD/GD32F30x/Source\system_gd32f30x.c **** #elif defined (__SYSTEM_CLOCK_72M_PLL_HXTAL)
  85:C:/Users/49542/Desktop/GD32F30x_Demo_Suites_V2.0.0/GD32F30x_Demo_Suites_V2.0.0/GD32F30x_Firmware_Library/CMSIS/GD/GD32F30x/Source\system_gd32f30x.c **** uint32_t SystemCoreClock = __SYSTEM_CLOCK_72M_PLL_HXTAL;
  86:C:/Users/49542/Desktop/GD32F30x_Demo_Suites_V2.0.0/GD32F30x_Demo_Suites_V2.0.0/GD32F30x_Firmware_Library/CMSIS/GD/GD32F30x/Source\system_gd32f30x.c **** static void system_clock_72m_hxtal(void);
  87:C:/Users/49542/Desktop/GD32F30x_Demo_Suites_V2.0.0/GD32F30x_Demo_Suites_V2.0.0/GD32F30x_Firmware_Library/CMSIS/GD/GD32F30x/Source\system_gd32f30x.c **** #elif defined (__SYSTEM_CLOCK_108M_PLL_HXTAL)
  88:C:/Users/49542/Desktop/GD32F30x_Demo_Suites_V2.0.0/GD32F30x_Demo_Suites_V2.0.0/GD32F30x_Firmware_Library/CMSIS/GD/GD32F30x/Source\system_gd32f30x.c **** uint32_t SystemCoreClock = __SYSTEM_CLOCK_108M_PLL_HXTAL;
  89:C:/Users/49542/Desktop/GD32F30x_Demo_Suites_V2.0.0/GD32F30x_Demo_Suites_V2.0.0/GD32F30x_Firmware_Library/CMSIS/GD/GD32F30x/Source\system_gd32f30x.c **** static void system_clock_108m_hxtal(void);
  90:C:/Users/49542/Desktop/GD32F30x_Demo_Suites_V2.0.0/GD32F30x_Demo_Suites_V2.0.0/GD32F30x_Firmware_Library/CMSIS/GD/GD32F30x/Source\system_gd32f30x.c **** #elif defined (__SYSTEM_CLOCK_120M_PLL_HXTAL)
  91:C:/Users/49542/Desktop/GD32F30x_Demo_Suites_V2.0.0/GD32F30x_Demo_Suites_V2.0.0/GD32F30x_Firmware_Library/CMSIS/GD/GD32F30x/Source\system_gd32f30x.c **** uint32_t SystemCoreClock = __SYSTEM_CLOCK_120M_PLL_HXTAL;
  92:C:/Users/49542/Desktop/GD32F30x_Demo_Suites_V2.0.0/GD32F30x_Demo_Suites_V2.0.0/GD32F30x_Firmware_Library/CMSIS/GD/GD32F30x/Source\system_gd32f30x.c **** static void system_clock_120m_hxtal(void);
  93:C:/Users/49542/Desktop/GD32F30x_Demo_Suites_V2.0.0/GD32F30x_Demo_Suites_V2.0.0/GD32F30x_Firmware_Library/CMSIS/GD/GD32F30x/Source\system_gd32f30x.c **** #endif /* __SYSTEM_CLOCK_IRC8M */
  94:C:/Users/49542/Desktop/GD32F30x_Demo_Suites_V2.0.0/GD32F30x_Demo_Suites_V2.0.0/GD32F30x_Firmware_Library/CMSIS/GD/GD32F30x/Source\system_gd32f30x.c **** 
  95:C:/Users/49542/Desktop/GD32F30x_Demo_Suites_V2.0.0/GD32F30x_Demo_Suites_V2.0.0/GD32F30x_Firmware_Library/CMSIS/GD/GD32F30x/Source\system_gd32f30x.c **** /* configure the system clock */
  96:C:/Users/49542/Desktop/GD32F30x_Demo_Suites_V2.0.0/GD32F30x_Demo_Suites_V2.0.0/GD32F30x_Firmware_Library/CMSIS/GD/GD32F30x/Source\system_gd32f30x.c **** static void system_clock_config(void);
  97:C:/Users/49542/Desktop/GD32F30x_Demo_Suites_V2.0.0/GD32F30x_Demo_Suites_V2.0.0/GD32F30x_Firmware_Library/CMSIS/GD/GD32F30x/Source\system_gd32f30x.c **** 
  98:C:/Users/49542/Desktop/GD32F30x_Demo_Suites_V2.0.0/GD32F30x_Demo_Suites_V2.0.0/GD32F30x_Firmware_Library/CMSIS/GD/GD32F30x/Source\system_gd32f30x.c **** /*!
  99:C:/Users/49542/Desktop/GD32F30x_Demo_Suites_V2.0.0/GD32F30x_Demo_Suites_V2.0.0/GD32F30x_Firmware_Library/CMSIS/GD/GD32F30x/Source\system_gd32f30x.c ****     \brief      setup the microcontroller system, initialize the system
 100:C:/Users/49542/Desktop/GD32F30x_Demo_Suites_V2.0.0/GD32F30x_Demo_Suites_V2.0.0/GD32F30x_Firmware_Library/CMSIS/GD/GD32F30x/Source\system_gd32f30x.c ****     \param[in]  none
 101:C:/Users/49542/Desktop/GD32F30x_Demo_Suites_V2.0.0/GD32F30x_Demo_Suites_V2.0.0/GD32F30x_Firmware_Library/CMSIS/GD/GD32F30x/Source\system_gd32f30x.c ****     \param[out] none
 102:C:/Users/49542/Desktop/GD32F30x_Demo_Suites_V2.0.0/GD32F30x_Demo_Suites_V2.0.0/GD32F30x_Firmware_Library/CMSIS/GD/GD32F30x/Source\system_gd32f30x.c ****     \retval     none
 103:C:/Users/49542/Desktop/GD32F30x_Demo_Suites_V2.0.0/GD32F30x_Demo_Suites_V2.0.0/GD32F30x_Firmware_Library/CMSIS/GD/GD32F30x/Source\system_gd32f30x.c **** */
 104:C:/Users/49542/Desktop/GD32F30x_Demo_Suites_V2.0.0/GD32F30x_Demo_Suites_V2.0.0/GD32F30x_Firmware_Library/CMSIS/GD/GD32F30x/Source\system_gd32f30x.c **** void SystemInit (void)
 105:C:/Users/49542/Desktop/GD32F30x_Demo_Suites_V2.0.0/GD32F30x_Demo_Suites_V2.0.0/GD32F30x_Firmware_Library/CMSIS/GD/GD32F30x/Source\system_gd32f30x.c **** {
  35              		.loc 1 105 0
  36              		.cfi_startproc
  37              		@ args = 0, pretend = 0, frame = 0
  38              		@ frame_needed = 1, uses_anonymous_args = 0
  39 0000 80B5     		push	{r7, lr}
  40              	.LCFI0:
  41              		.cfi_def_cfa_offset 8
  42              		.cfi_offset 7, -8
  43              		.cfi_offset 14, -4
  44 0002 00AF     		add	r7, sp, #0
  45              	.LCFI1:
  46              		.cfi_def_cfa_register 7
 106:C:/Users/49542/Desktop/GD32F30x_Demo_Suites_V2.0.0/GD32F30x_Demo_Suites_V2.0.0/GD32F30x_Firmware_Library/CMSIS/GD/GD32F30x/Source\system_gd32f30x.c ****   /* FPU settings */
 107:C:/Users/49542/Desktop/GD32F30x_Demo_Suites_V2.0.0/GD32F30x_Demo_Suites_V2.0.0/GD32F30x_Firmware_Library/CMSIS/GD/GD32F30x/Source\system_gd32f30x.c **** #if (__FPU_PRESENT == 1) && (__FPU_USED == 1)
 108:C:/Users/49542/Desktop/GD32F30x_Demo_Suites_V2.0.0/GD32F30x_Demo_Suites_V2.0.0/GD32F30x_Firmware_Library/CMSIS/GD/GD32F30x/Source\system_gd32f30x.c ****     SCB->CPACR |= ((3UL << 10*2)|(3UL << 11*2));  /* set CP10 and CP11 Full Access */
  47              		.loc 1 108 0
  48 0004 144B     		ldr	r3, .L2
  49 0006 D3F88830 		ldr	r3, [r3, #136]
  50 000a 134A     		ldr	r2, .L2
  51 000c 43F47003 		orr	r3, r3, #15728640
  52 0010 C2F88830 		str	r3, [r2, #136]
 109:C:/Users/49542/Desktop/GD32F30x_Demo_Suites_V2.0.0/GD32F30x_Demo_Suites_V2.0.0/GD32F30x_Firmware_Library/CMSIS/GD/GD32F30x/Source\system_gd32f30x.c **** #endif
 110:C:/Users/49542/Desktop/GD32F30x_Demo_Suites_V2.0.0/GD32F30x_Demo_Suites_V2.0.0/GD32F30x_Firmware_Library/CMSIS/GD/GD32F30x/Source\system_gd32f30x.c ****     /* reset the RCU clock configuration to the default reset state */
 111:C:/Users/49542/Desktop/GD32F30x_Demo_Suites_V2.0.0/GD32F30x_Demo_Suites_V2.0.0/GD32F30x_Firmware_Library/CMSIS/GD/GD32F30x/Source\system_gd32f30x.c ****     /* Set IRC8MEN bit */
 112:C:/Users/49542/Desktop/GD32F30x_Demo_Suites_V2.0.0/GD32F30x_Demo_Suites_V2.0.0/GD32F30x_Firmware_Library/CMSIS/GD/GD32F30x/Source\system_gd32f30x.c ****     RCU_CTL |= RCU_CTL_IRC8MEN;
  53              		.loc 1 112 0
  54 0014 114B     		ldr	r3, .L2+4
  55 0016 1B68     		ldr	r3, [r3]
  56 0018 104A     		ldr	r2, .L2+4
  57 001a 43F00103 		orr	r3, r3, #1
  58 001e 1360     		str	r3, [r2]
 113:C:/Users/49542/Desktop/GD32F30x_Demo_Suites_V2.0.0/GD32F30x_Demo_Suites_V2.0.0/GD32F30x_Firmware_Library/CMSIS/GD/GD32F30x/Source\system_gd32f30x.c **** 
 114:C:/Users/49542/Desktop/GD32F30x_Demo_Suites_V2.0.0/GD32F30x_Demo_Suites_V2.0.0/GD32F30x_Firmware_Library/CMSIS/GD/GD32F30x/Source\system_gd32f30x.c ****     /* Reset CFG0 and CFG1 registers */
 115:C:/Users/49542/Desktop/GD32F30x_Demo_Suites_V2.0.0/GD32F30x_Demo_Suites_V2.0.0/GD32F30x_Firmware_Library/CMSIS/GD/GD32F30x/Source\system_gd32f30x.c ****     RCU_CFG0 = 0x00000000U;
  59              		.loc 1 115 0
ARM GAS  C:\Users\49542\AppData\Local\Temp\ccT3FCLy.s 			page 4


  60 0020 0F4B     		ldr	r3, .L2+8
  61 0022 0022     		movs	r2, #0
  62 0024 1A60     		str	r2, [r3]
 116:C:/Users/49542/Desktop/GD32F30x_Demo_Suites_V2.0.0/GD32F30x_Demo_Suites_V2.0.0/GD32F30x_Firmware_Library/CMSIS/GD/GD32F30x/Source\system_gd32f30x.c ****     RCU_CFG1 = 0x00000000U;
  63              		.loc 1 116 0
  64 0026 0F4B     		ldr	r3, .L2+12
  65 0028 0022     		movs	r2, #0
  66 002a 1A60     		str	r2, [r3]
 117:C:/Users/49542/Desktop/GD32F30x_Demo_Suites_V2.0.0/GD32F30x_Demo_Suites_V2.0.0/GD32F30x_Firmware_Library/CMSIS/GD/GD32F30x/Source\system_gd32f30x.c **** 
 118:C:/Users/49542/Desktop/GD32F30x_Demo_Suites_V2.0.0/GD32F30x_Demo_Suites_V2.0.0/GD32F30x_Firmware_Library/CMSIS/GD/GD32F30x/Source\system_gd32f30x.c **** #if (defined(GD32F30X_HD) || defined(GD32F30X_XD))
 119:C:/Users/49542/Desktop/GD32F30x_Demo_Suites_V2.0.0/GD32F30x_Demo_Suites_V2.0.0/GD32F30x_Firmware_Library/CMSIS/GD/GD32F30x/Source\system_gd32f30x.c ****     /* reset HXTALEN, CKMEN and PLLEN bits */
 120:C:/Users/49542/Desktop/GD32F30x_Demo_Suites_V2.0.0/GD32F30x_Demo_Suites_V2.0.0/GD32F30x_Firmware_Library/CMSIS/GD/GD32F30x/Source\system_gd32f30x.c ****     RCU_CTL &= ~(RCU_CTL_PLLEN | RCU_CTL_CKMEN | RCU_CTL_HXTALEN);
  67              		.loc 1 120 0
  68 002c 0B4B     		ldr	r3, .L2+4
  69 002e 1B68     		ldr	r3, [r3]
  70 0030 0A4A     		ldr	r2, .L2+4
  71 0032 23F08473 		bic	r3, r3, #17301504
  72 0036 23F48033 		bic	r3, r3, #65536
  73 003a 1360     		str	r3, [r2]
 121:C:/Users/49542/Desktop/GD32F30x_Demo_Suites_V2.0.0/GD32F30x_Demo_Suites_V2.0.0/GD32F30x_Firmware_Library/CMSIS/GD/GD32F30x/Source\system_gd32f30x.c ****     /* disable all interrupts */
 122:C:/Users/49542/Desktop/GD32F30x_Demo_Suites_V2.0.0/GD32F30x_Demo_Suites_V2.0.0/GD32F30x_Firmware_Library/CMSIS/GD/GD32F30x/Source\system_gd32f30x.c ****     RCU_INT = 0x009f0000U;
  74              		.loc 1 122 0
  75 003c 0A4B     		ldr	r3, .L2+16
  76 003e 4FF41F02 		mov	r2, #10420224
  77 0042 1A60     		str	r2, [r3]
 123:C:/Users/49542/Desktop/GD32F30x_Demo_Suites_V2.0.0/GD32F30x_Demo_Suites_V2.0.0/GD32F30x_Firmware_Library/CMSIS/GD/GD32F30x/Source\system_gd32f30x.c **** #elif defined(GD32F30X_CL)
 124:C:/Users/49542/Desktop/GD32F30x_Demo_Suites_V2.0.0/GD32F30x_Demo_Suites_V2.0.0/GD32F30x_Firmware_Library/CMSIS/GD/GD32F30x/Source\system_gd32f30x.c ****     /* Reset HXTALEN, CKMEN, PLLEN, PLL1EN and PLL2EN bits */
 125:C:/Users/49542/Desktop/GD32F30x_Demo_Suites_V2.0.0/GD32F30x_Demo_Suites_V2.0.0/GD32F30x_Firmware_Library/CMSIS/GD/GD32F30x/Source\system_gd32f30x.c ****     RCU_CTL &= ~(RCU_CTL_PLLEN |RCU_CTL_PLL1EN | RCU_CTL_PLL2EN | RCU_CTL_CKMEN | RCU_CTL_HXTALEN);
 126:C:/Users/49542/Desktop/GD32F30x_Demo_Suites_V2.0.0/GD32F30x_Demo_Suites_V2.0.0/GD32F30x_Firmware_Library/CMSIS/GD/GD32F30x/Source\system_gd32f30x.c ****     /* disable all interrupts */
 127:C:/Users/49542/Desktop/GD32F30x_Demo_Suites_V2.0.0/GD32F30x_Demo_Suites_V2.0.0/GD32F30x_Firmware_Library/CMSIS/GD/GD32F30x/Source\system_gd32f30x.c ****     RCU_INT = 0x00ff0000U;
 128:C:/Users/49542/Desktop/GD32F30x_Demo_Suites_V2.0.0/GD32F30x_Demo_Suites_V2.0.0/GD32F30x_Firmware_Library/CMSIS/GD/GD32F30x/Source\system_gd32f30x.c **** #endif
 129:C:/Users/49542/Desktop/GD32F30x_Demo_Suites_V2.0.0/GD32F30x_Demo_Suites_V2.0.0/GD32F30x_Firmware_Library/CMSIS/GD/GD32F30x/Source\system_gd32f30x.c **** 
 130:C:/Users/49542/Desktop/GD32F30x_Demo_Suites_V2.0.0/GD32F30x_Demo_Suites_V2.0.0/GD32F30x_Firmware_Library/CMSIS/GD/GD32F30x/Source\system_gd32f30x.c ****     /* reset HXTALBPS bit */
 131:C:/Users/49542/Desktop/GD32F30x_Demo_Suites_V2.0.0/GD32F30x_Demo_Suites_V2.0.0/GD32F30x_Firmware_Library/CMSIS/GD/GD32F30x/Source\system_gd32f30x.c ****     RCU_CTL &= ~(RCU_CTL_HXTALBPS);
  78              		.loc 1 131 0
  79 0044 054B     		ldr	r3, .L2+4
  80 0046 1B68     		ldr	r3, [r3]
  81 0048 044A     		ldr	r2, .L2+4
  82 004a 23F48023 		bic	r3, r3, #262144
  83 004e 1360     		str	r3, [r2]
 132:C:/Users/49542/Desktop/GD32F30x_Demo_Suites_V2.0.0/GD32F30x_Demo_Suites_V2.0.0/GD32F30x_Firmware_Library/CMSIS/GD/GD32F30x/Source\system_gd32f30x.c **** 
 133:C:/Users/49542/Desktop/GD32F30x_Demo_Suites_V2.0.0/GD32F30x_Demo_Suites_V2.0.0/GD32F30x_Firmware_Library/CMSIS/GD/GD32F30x/Source\system_gd32f30x.c ****     /* configure the system clock source, PLL Multiplier, AHB/APBx prescalers and Flash settings */
 134:C:/Users/49542/Desktop/GD32F30x_Demo_Suites_V2.0.0/GD32F30x_Demo_Suites_V2.0.0/GD32F30x_Firmware_Library/CMSIS/GD/GD32F30x/Source\system_gd32f30x.c ****     system_clock_config();
  84              		.loc 1 134 0
  85 0050 FFF7FEFF 		bl	system_clock_config
 135:C:/Users/49542/Desktop/GD32F30x_Demo_Suites_V2.0.0/GD32F30x_Demo_Suites_V2.0.0/GD32F30x_Firmware_Library/CMSIS/GD/GD32F30x/Source\system_gd32f30x.c **** }
  86              		.loc 1 135 0
  87 0054 00BF     		nop
  88 0056 80BD     		pop	{r7, pc}
  89              	.L3:
  90              		.align	2
  91              	.L2:
  92 0058 00ED00E0 		.word	-536810240
  93 005c 00100240 		.word	1073876992
  94 0060 04100240 		.word	1073876996
  95 0064 2C100240 		.word	1073877036
  96 0068 08100240 		.word	1073877000
ARM GAS  C:\Users\49542\AppData\Local\Temp\ccT3FCLy.s 			page 5


  97              		.cfi_endproc
  98              	.LFE116:
 100              		.section	.text.system_clock_config,"ax",%progbits
 101              		.align	1
 102              		.syntax unified
 103              		.thumb
 104              		.thumb_func
 105              		.fpu fpv4-sp-d16
 107              	system_clock_config:
 108              	.LFB117:
 136:C:/Users/49542/Desktop/GD32F30x_Demo_Suites_V2.0.0/GD32F30x_Demo_Suites_V2.0.0/GD32F30x_Firmware_Library/CMSIS/GD/GD32F30x/Source\system_gd32f30x.c **** /*!
 137:C:/Users/49542/Desktop/GD32F30x_Demo_Suites_V2.0.0/GD32F30x_Demo_Suites_V2.0.0/GD32F30x_Firmware_Library/CMSIS/GD/GD32F30x/Source\system_gd32f30x.c ****     \brief      configure the system clock
 138:C:/Users/49542/Desktop/GD32F30x_Demo_Suites_V2.0.0/GD32F30x_Demo_Suites_V2.0.0/GD32F30x_Firmware_Library/CMSIS/GD/GD32F30x/Source\system_gd32f30x.c ****     \param[in]  none
 139:C:/Users/49542/Desktop/GD32F30x_Demo_Suites_V2.0.0/GD32F30x_Demo_Suites_V2.0.0/GD32F30x_Firmware_Library/CMSIS/GD/GD32F30x/Source\system_gd32f30x.c ****     \param[out] none
 140:C:/Users/49542/Desktop/GD32F30x_Demo_Suites_V2.0.0/GD32F30x_Demo_Suites_V2.0.0/GD32F30x_Firmware_Library/CMSIS/GD/GD32F30x/Source\system_gd32f30x.c ****     \retval     none
 141:C:/Users/49542/Desktop/GD32F30x_Demo_Suites_V2.0.0/GD32F30x_Demo_Suites_V2.0.0/GD32F30x_Firmware_Library/CMSIS/GD/GD32F30x/Source\system_gd32f30x.c **** */
 142:C:/Users/49542/Desktop/GD32F30x_Demo_Suites_V2.0.0/GD32F30x_Demo_Suites_V2.0.0/GD32F30x_Firmware_Library/CMSIS/GD/GD32F30x/Source\system_gd32f30x.c **** static void system_clock_config(void)
 143:C:/Users/49542/Desktop/GD32F30x_Demo_Suites_V2.0.0/GD32F30x_Demo_Suites_V2.0.0/GD32F30x_Firmware_Library/CMSIS/GD/GD32F30x/Source\system_gd32f30x.c **** {
 109              		.loc 1 143 0
 110              		.cfi_startproc
 111              		@ args = 0, pretend = 0, frame = 0
 112              		@ frame_needed = 1, uses_anonymous_args = 0
 113 0000 80B5     		push	{r7, lr}
 114              	.LCFI2:
 115              		.cfi_def_cfa_offset 8
 116              		.cfi_offset 7, -8
 117              		.cfi_offset 14, -4
 118 0002 00AF     		add	r7, sp, #0
 119              	.LCFI3:
 120              		.cfi_def_cfa_register 7
 144:C:/Users/49542/Desktop/GD32F30x_Demo_Suites_V2.0.0/GD32F30x_Demo_Suites_V2.0.0/GD32F30x_Firmware_Library/CMSIS/GD/GD32F30x/Source\system_gd32f30x.c **** #ifdef __SYSTEM_CLOCK_IRC8M
 145:C:/Users/49542/Desktop/GD32F30x_Demo_Suites_V2.0.0/GD32F30x_Demo_Suites_V2.0.0/GD32F30x_Firmware_Library/CMSIS/GD/GD32F30x/Source\system_gd32f30x.c ****     system_clock_8m_irc8m();
 146:C:/Users/49542/Desktop/GD32F30x_Demo_Suites_V2.0.0/GD32F30x_Demo_Suites_V2.0.0/GD32F30x_Firmware_Library/CMSIS/GD/GD32F30x/Source\system_gd32f30x.c **** #elif defined (__SYSTEM_CLOCK_48M_PLL_IRC8M)
 147:C:/Users/49542/Desktop/GD32F30x_Demo_Suites_V2.0.0/GD32F30x_Demo_Suites_V2.0.0/GD32F30x_Firmware_Library/CMSIS/GD/GD32F30x/Source\system_gd32f30x.c ****     system_clock_48m_irc8m();
 148:C:/Users/49542/Desktop/GD32F30x_Demo_Suites_V2.0.0/GD32F30x_Demo_Suites_V2.0.0/GD32F30x_Firmware_Library/CMSIS/GD/GD32F30x/Source\system_gd32f30x.c **** #elif defined (__SYSTEM_CLOCK_72M_PLL_IRC8M)
 149:C:/Users/49542/Desktop/GD32F30x_Demo_Suites_V2.0.0/GD32F30x_Demo_Suites_V2.0.0/GD32F30x_Firmware_Library/CMSIS/GD/GD32F30x/Source\system_gd32f30x.c ****     system_clock_72m_irc8m();
 150:C:/Users/49542/Desktop/GD32F30x_Demo_Suites_V2.0.0/GD32F30x_Demo_Suites_V2.0.0/GD32F30x_Firmware_Library/CMSIS/GD/GD32F30x/Source\system_gd32f30x.c **** #elif defined (__SYSTEM_CLOCK_108M_PLL_IRC8M)
 151:C:/Users/49542/Desktop/GD32F30x_Demo_Suites_V2.0.0/GD32F30x_Demo_Suites_V2.0.0/GD32F30x_Firmware_Library/CMSIS/GD/GD32F30x/Source\system_gd32f30x.c ****     system_clock_108m_irc8m();
 152:C:/Users/49542/Desktop/GD32F30x_Demo_Suites_V2.0.0/GD32F30x_Demo_Suites_V2.0.0/GD32F30x_Firmware_Library/CMSIS/GD/GD32F30x/Source\system_gd32f30x.c **** #elif defined (__SYSTEM_CLOCK_120M_PLL_IRC8M)
 153:C:/Users/49542/Desktop/GD32F30x_Demo_Suites_V2.0.0/GD32F30x_Demo_Suites_V2.0.0/GD32F30x_Firmware_Library/CMSIS/GD/GD32F30x/Source\system_gd32f30x.c ****     system_clock_120m_irc8m();
 154:C:/Users/49542/Desktop/GD32F30x_Demo_Suites_V2.0.0/GD32F30x_Demo_Suites_V2.0.0/GD32F30x_Firmware_Library/CMSIS/GD/GD32F30x/Source\system_gd32f30x.c **** 
 155:C:/Users/49542/Desktop/GD32F30x_Demo_Suites_V2.0.0/GD32F30x_Demo_Suites_V2.0.0/GD32F30x_Firmware_Library/CMSIS/GD/GD32F30x/Source\system_gd32f30x.c **** #elif defined (__SYSTEM_CLOCK_HXTAL)
 156:C:/Users/49542/Desktop/GD32F30x_Demo_Suites_V2.0.0/GD32F30x_Demo_Suites_V2.0.0/GD32F30x_Firmware_Library/CMSIS/GD/GD32F30x/Source\system_gd32f30x.c ****     system_clock_hxtal();
 157:C:/Users/49542/Desktop/GD32F30x_Demo_Suites_V2.0.0/GD32F30x_Demo_Suites_V2.0.0/GD32F30x_Firmware_Library/CMSIS/GD/GD32F30x/Source\system_gd32f30x.c **** #elif defined (__SYSTEM_CLOCK_48M_PLL_HXTAL)
 158:C:/Users/49542/Desktop/GD32F30x_Demo_Suites_V2.0.0/GD32F30x_Demo_Suites_V2.0.0/GD32F30x_Firmware_Library/CMSIS/GD/GD32F30x/Source\system_gd32f30x.c ****     system_clock_48m_hxtal();
 159:C:/Users/49542/Desktop/GD32F30x_Demo_Suites_V2.0.0/GD32F30x_Demo_Suites_V2.0.0/GD32F30x_Firmware_Library/CMSIS/GD/GD32F30x/Source\system_gd32f30x.c **** #elif defined (__SYSTEM_CLOCK_72M_PLL_HXTAL)
 160:C:/Users/49542/Desktop/GD32F30x_Demo_Suites_V2.0.0/GD32F30x_Demo_Suites_V2.0.0/GD32F30x_Firmware_Library/CMSIS/GD/GD32F30x/Source\system_gd32f30x.c ****     system_clock_72m_hxtal();
 161:C:/Users/49542/Desktop/GD32F30x_Demo_Suites_V2.0.0/GD32F30x_Demo_Suites_V2.0.0/GD32F30x_Firmware_Library/CMSIS/GD/GD32F30x/Source\system_gd32f30x.c **** #elif defined (__SYSTEM_CLOCK_108M_PLL_HXTAL)
 162:C:/Users/49542/Desktop/GD32F30x_Demo_Suites_V2.0.0/GD32F30x_Demo_Suites_V2.0.0/GD32F30x_Firmware_Library/CMSIS/GD/GD32F30x/Source\system_gd32f30x.c ****     system_clock_108m_hxtal();
 163:C:/Users/49542/Desktop/GD32F30x_Demo_Suites_V2.0.0/GD32F30x_Demo_Suites_V2.0.0/GD32F30x_Firmware_Library/CMSIS/GD/GD32F30x/Source\system_gd32f30x.c **** #elif defined (__SYSTEM_CLOCK_120M_PLL_HXTAL)
 164:C:/Users/49542/Desktop/GD32F30x_Demo_Suites_V2.0.0/GD32F30x_Demo_Suites_V2.0.0/GD32F30x_Firmware_Library/CMSIS/GD/GD32F30x/Source\system_gd32f30x.c ****     system_clock_120m_hxtal();
 121              		.loc 1 164 0
 122 0004 FFF7FEFF 		bl	system_clock_120m_hxtal
 165:C:/Users/49542/Desktop/GD32F30x_Demo_Suites_V2.0.0/GD32F30x_Demo_Suites_V2.0.0/GD32F30x_Firmware_Library/CMSIS/GD/GD32F30x/Source\system_gd32f30x.c **** #endif /* __SYSTEM_CLOCK_IRC8M */
 166:C:/Users/49542/Desktop/GD32F30x_Demo_Suites_V2.0.0/GD32F30x_Demo_Suites_V2.0.0/GD32F30x_Firmware_Library/CMSIS/GD/GD32F30x/Source\system_gd32f30x.c **** }
 123              		.loc 1 166 0
 124 0008 00BF     		nop
ARM GAS  C:\Users\49542\AppData\Local\Temp\ccT3FCLy.s 			page 6


 125 000a 80BD     		pop	{r7, pc}
 126              		.cfi_endproc
 127              	.LFE117:
 129              		.section	.text.system_clock_120m_hxtal,"ax",%progbits
 130              		.align	1
 131              		.syntax unified
 132              		.thumb
 133              		.thumb_func
 134              		.fpu fpv4-sp-d16
 136              	system_clock_120m_hxtal:
 137              	.LFB118:
 167:C:/Users/49542/Desktop/GD32F30x_Demo_Suites_V2.0.0/GD32F30x_Demo_Suites_V2.0.0/GD32F30x_Firmware_Library/CMSIS/GD/GD32F30x/Source\system_gd32f30x.c **** 
 168:C:/Users/49542/Desktop/GD32F30x_Demo_Suites_V2.0.0/GD32F30x_Demo_Suites_V2.0.0/GD32F30x_Firmware_Library/CMSIS/GD/GD32F30x/Source\system_gd32f30x.c **** #ifdef __SYSTEM_CLOCK_IRC8M
 169:C:/Users/49542/Desktop/GD32F30x_Demo_Suites_V2.0.0/GD32F30x_Demo_Suites_V2.0.0/GD32F30x_Firmware_Library/CMSIS/GD/GD32F30x/Source\system_gd32f30x.c **** /*!
 170:C:/Users/49542/Desktop/GD32F30x_Demo_Suites_V2.0.0/GD32F30x_Demo_Suites_V2.0.0/GD32F30x_Firmware_Library/CMSIS/GD/GD32F30x/Source\system_gd32f30x.c ****     \brief      configure the system clock to 8M by IRC8M
 171:C:/Users/49542/Desktop/GD32F30x_Demo_Suites_V2.0.0/GD32F30x_Demo_Suites_V2.0.0/GD32F30x_Firmware_Library/CMSIS/GD/GD32F30x/Source\system_gd32f30x.c ****     \param[in]  none
 172:C:/Users/49542/Desktop/GD32F30x_Demo_Suites_V2.0.0/GD32F30x_Demo_Suites_V2.0.0/GD32F30x_Firmware_Library/CMSIS/GD/GD32F30x/Source\system_gd32f30x.c ****     \param[out] none
 173:C:/Users/49542/Desktop/GD32F30x_Demo_Suites_V2.0.0/GD32F30x_Demo_Suites_V2.0.0/GD32F30x_Firmware_Library/CMSIS/GD/GD32F30x/Source\system_gd32f30x.c ****     \retval     none
 174:C:/Users/49542/Desktop/GD32F30x_Demo_Suites_V2.0.0/GD32F30x_Demo_Suites_V2.0.0/GD32F30x_Firmware_Library/CMSIS/GD/GD32F30x/Source\system_gd32f30x.c **** */
 175:C:/Users/49542/Desktop/GD32F30x_Demo_Suites_V2.0.0/GD32F30x_Demo_Suites_V2.0.0/GD32F30x_Firmware_Library/CMSIS/GD/GD32F30x/Source\system_gd32f30x.c **** static void system_clock_8m_irc8m(void)
 176:C:/Users/49542/Desktop/GD32F30x_Demo_Suites_V2.0.0/GD32F30x_Demo_Suites_V2.0.0/GD32F30x_Firmware_Library/CMSIS/GD/GD32F30x/Source\system_gd32f30x.c **** {
 177:C:/Users/49542/Desktop/GD32F30x_Demo_Suites_V2.0.0/GD32F30x_Demo_Suites_V2.0.0/GD32F30x_Firmware_Library/CMSIS/GD/GD32F30x/Source\system_gd32f30x.c ****     uint32_t timeout = 0U;
 178:C:/Users/49542/Desktop/GD32F30x_Demo_Suites_V2.0.0/GD32F30x_Demo_Suites_V2.0.0/GD32F30x_Firmware_Library/CMSIS/GD/GD32F30x/Source\system_gd32f30x.c ****     uint32_t stab_flag = 0U;
 179:C:/Users/49542/Desktop/GD32F30x_Demo_Suites_V2.0.0/GD32F30x_Demo_Suites_V2.0.0/GD32F30x_Firmware_Library/CMSIS/GD/GD32F30x/Source\system_gd32f30x.c ****     
 180:C:/Users/49542/Desktop/GD32F30x_Demo_Suites_V2.0.0/GD32F30x_Demo_Suites_V2.0.0/GD32F30x_Firmware_Library/CMSIS/GD/GD32F30x/Source\system_gd32f30x.c ****     /* enable IRC8M */
 181:C:/Users/49542/Desktop/GD32F30x_Demo_Suites_V2.0.0/GD32F30x_Demo_Suites_V2.0.0/GD32F30x_Firmware_Library/CMSIS/GD/GD32F30x/Source\system_gd32f30x.c ****     RCU_CTL |= RCU_CTL_IRC8MEN;
 182:C:/Users/49542/Desktop/GD32F30x_Demo_Suites_V2.0.0/GD32F30x_Demo_Suites_V2.0.0/GD32F30x_Firmware_Library/CMSIS/GD/GD32F30x/Source\system_gd32f30x.c ****     
 183:C:/Users/49542/Desktop/GD32F30x_Demo_Suites_V2.0.0/GD32F30x_Demo_Suites_V2.0.0/GD32F30x_Firmware_Library/CMSIS/GD/GD32F30x/Source\system_gd32f30x.c ****     /* wait until IRC8M is stable or the startup time is longer than IRC8M_STARTUP_TIMEOUT */
 184:C:/Users/49542/Desktop/GD32F30x_Demo_Suites_V2.0.0/GD32F30x_Demo_Suites_V2.0.0/GD32F30x_Firmware_Library/CMSIS/GD/GD32F30x/Source\system_gd32f30x.c ****     do{
 185:C:/Users/49542/Desktop/GD32F30x_Demo_Suites_V2.0.0/GD32F30x_Demo_Suites_V2.0.0/GD32F30x_Firmware_Library/CMSIS/GD/GD32F30x/Source\system_gd32f30x.c ****         timeout++;
 186:C:/Users/49542/Desktop/GD32F30x_Demo_Suites_V2.0.0/GD32F30x_Demo_Suites_V2.0.0/GD32F30x_Firmware_Library/CMSIS/GD/GD32F30x/Source\system_gd32f30x.c ****         stab_flag = (RCU_CTL & RCU_CTL_IRC8MSTB);
 187:C:/Users/49542/Desktop/GD32F30x_Demo_Suites_V2.0.0/GD32F30x_Demo_Suites_V2.0.0/GD32F30x_Firmware_Library/CMSIS/GD/GD32F30x/Source\system_gd32f30x.c ****     }
 188:C:/Users/49542/Desktop/GD32F30x_Demo_Suites_V2.0.0/GD32F30x_Demo_Suites_V2.0.0/GD32F30x_Firmware_Library/CMSIS/GD/GD32F30x/Source\system_gd32f30x.c ****     while((0U == stab_flag) && (IRC8M_STARTUP_TIMEOUT != timeout));
 189:C:/Users/49542/Desktop/GD32F30x_Demo_Suites_V2.0.0/GD32F30x_Demo_Suites_V2.0.0/GD32F30x_Firmware_Library/CMSIS/GD/GD32F30x/Source\system_gd32f30x.c ****     
 190:C:/Users/49542/Desktop/GD32F30x_Demo_Suites_V2.0.0/GD32F30x_Demo_Suites_V2.0.0/GD32F30x_Firmware_Library/CMSIS/GD/GD32F30x/Source\system_gd32f30x.c ****     /* if fail */
 191:C:/Users/49542/Desktop/GD32F30x_Demo_Suites_V2.0.0/GD32F30x_Demo_Suites_V2.0.0/GD32F30x_Firmware_Library/CMSIS/GD/GD32F30x/Source\system_gd32f30x.c ****     if(0U == (RCU_CTL & RCU_CTL_IRC8MSTB)){
 192:C:/Users/49542/Desktop/GD32F30x_Demo_Suites_V2.0.0/GD32F30x_Demo_Suites_V2.0.0/GD32F30x_Firmware_Library/CMSIS/GD/GD32F30x/Source\system_gd32f30x.c ****         while(1){
 193:C:/Users/49542/Desktop/GD32F30x_Demo_Suites_V2.0.0/GD32F30x_Demo_Suites_V2.0.0/GD32F30x_Firmware_Library/CMSIS/GD/GD32F30x/Source\system_gd32f30x.c ****         }
 194:C:/Users/49542/Desktop/GD32F30x_Demo_Suites_V2.0.0/GD32F30x_Demo_Suites_V2.0.0/GD32F30x_Firmware_Library/CMSIS/GD/GD32F30x/Source\system_gd32f30x.c ****     }
 195:C:/Users/49542/Desktop/GD32F30x_Demo_Suites_V2.0.0/GD32F30x_Demo_Suites_V2.0.0/GD32F30x_Firmware_Library/CMSIS/GD/GD32F30x/Source\system_gd32f30x.c ****     
 196:C:/Users/49542/Desktop/GD32F30x_Demo_Suites_V2.0.0/GD32F30x_Demo_Suites_V2.0.0/GD32F30x_Firmware_Library/CMSIS/GD/GD32F30x/Source\system_gd32f30x.c ****     /* AHB = SYSCLK */
 197:C:/Users/49542/Desktop/GD32F30x_Demo_Suites_V2.0.0/GD32F30x_Demo_Suites_V2.0.0/GD32F30x_Firmware_Library/CMSIS/GD/GD32F30x/Source\system_gd32f30x.c ****     RCU_CFG0 |= RCU_AHB_CKSYS_DIV1;
 198:C:/Users/49542/Desktop/GD32F30x_Demo_Suites_V2.0.0/GD32F30x_Demo_Suites_V2.0.0/GD32F30x_Firmware_Library/CMSIS/GD/GD32F30x/Source\system_gd32f30x.c ****     /* APB2 = AHB/1 */
 199:C:/Users/49542/Desktop/GD32F30x_Demo_Suites_V2.0.0/GD32F30x_Demo_Suites_V2.0.0/GD32F30x_Firmware_Library/CMSIS/GD/GD32F30x/Source\system_gd32f30x.c ****     RCU_CFG0 |= RCU_APB2_CKAHB_DIV1;
 200:C:/Users/49542/Desktop/GD32F30x_Demo_Suites_V2.0.0/GD32F30x_Demo_Suites_V2.0.0/GD32F30x_Firmware_Library/CMSIS/GD/GD32F30x/Source\system_gd32f30x.c ****     /* APB1 = AHB/2 */
 201:C:/Users/49542/Desktop/GD32F30x_Demo_Suites_V2.0.0/GD32F30x_Demo_Suites_V2.0.0/GD32F30x_Firmware_Library/CMSIS/GD/GD32F30x/Source\system_gd32f30x.c ****     RCU_CFG0 |= RCU_APB1_CKAHB_DIV2;
 202:C:/Users/49542/Desktop/GD32F30x_Demo_Suites_V2.0.0/GD32F30x_Demo_Suites_V2.0.0/GD32F30x_Firmware_Library/CMSIS/GD/GD32F30x/Source\system_gd32f30x.c ****     
 203:C:/Users/49542/Desktop/GD32F30x_Demo_Suites_V2.0.0/GD32F30x_Demo_Suites_V2.0.0/GD32F30x_Firmware_Library/CMSIS/GD/GD32F30x/Source\system_gd32f30x.c ****     /* select IRC8M as system clock */
 204:C:/Users/49542/Desktop/GD32F30x_Demo_Suites_V2.0.0/GD32F30x_Demo_Suites_V2.0.0/GD32F30x_Firmware_Library/CMSIS/GD/GD32F30x/Source\system_gd32f30x.c ****     RCU_CFG0 &= ~RCU_CFG0_SCS;
 205:C:/Users/49542/Desktop/GD32F30x_Demo_Suites_V2.0.0/GD32F30x_Demo_Suites_V2.0.0/GD32F30x_Firmware_Library/CMSIS/GD/GD32F30x/Source\system_gd32f30x.c ****     RCU_CFG0 |= RCU_CKSYSSRC_IRC8M;
 206:C:/Users/49542/Desktop/GD32F30x_Demo_Suites_V2.0.0/GD32F30x_Demo_Suites_V2.0.0/GD32F30x_Firmware_Library/CMSIS/GD/GD32F30x/Source\system_gd32f30x.c ****     
 207:C:/Users/49542/Desktop/GD32F30x_Demo_Suites_V2.0.0/GD32F30x_Demo_Suites_V2.0.0/GD32F30x_Firmware_Library/CMSIS/GD/GD32F30x/Source\system_gd32f30x.c ****     /* wait until IRC8M is selected as system clock */
 208:C:/Users/49542/Desktop/GD32F30x_Demo_Suites_V2.0.0/GD32F30x_Demo_Suites_V2.0.0/GD32F30x_Firmware_Library/CMSIS/GD/GD32F30x/Source\system_gd32f30x.c ****     while(0U != (RCU_CFG0 & RCU_SCSS_IRC8M)){
 209:C:/Users/49542/Desktop/GD32F30x_Demo_Suites_V2.0.0/GD32F30x_Demo_Suites_V2.0.0/GD32F30x_Firmware_Library/CMSIS/GD/GD32F30x/Source\system_gd32f30x.c ****     }
 210:C:/Users/49542/Desktop/GD32F30x_Demo_Suites_V2.0.0/GD32F30x_Demo_Suites_V2.0.0/GD32F30x_Firmware_Library/CMSIS/GD/GD32F30x/Source\system_gd32f30x.c **** }
 211:C:/Users/49542/Desktop/GD32F30x_Demo_Suites_V2.0.0/GD32F30x_Demo_Suites_V2.0.0/GD32F30x_Firmware_Library/CMSIS/GD/GD32F30x/Source\system_gd32f30x.c **** 
 212:C:/Users/49542/Desktop/GD32F30x_Demo_Suites_V2.0.0/GD32F30x_Demo_Suites_V2.0.0/GD32F30x_Firmware_Library/CMSIS/GD/GD32F30x/Source\system_gd32f30x.c **** #elif defined (__SYSTEM_CLOCK_48M_PLL_IRC8M)
ARM GAS  C:\Users\49542\AppData\Local\Temp\ccT3FCLy.s 			page 7


 213:C:/Users/49542/Desktop/GD32F30x_Demo_Suites_V2.0.0/GD32F30x_Demo_Suites_V2.0.0/GD32F30x_Firmware_Library/CMSIS/GD/GD32F30x/Source\system_gd32f30x.c **** /*!
 214:C:/Users/49542/Desktop/GD32F30x_Demo_Suites_V2.0.0/GD32F30x_Demo_Suites_V2.0.0/GD32F30x_Firmware_Library/CMSIS/GD/GD32F30x/Source\system_gd32f30x.c ****     \brief      configure the system clock to 48M by PLL which selects IRC8M as its clock source
 215:C:/Users/49542/Desktop/GD32F30x_Demo_Suites_V2.0.0/GD32F30x_Demo_Suites_V2.0.0/GD32F30x_Firmware_Library/CMSIS/GD/GD32F30x/Source\system_gd32f30x.c ****     \param[in]  none
 216:C:/Users/49542/Desktop/GD32F30x_Demo_Suites_V2.0.0/GD32F30x_Demo_Suites_V2.0.0/GD32F30x_Firmware_Library/CMSIS/GD/GD32F30x/Source\system_gd32f30x.c ****     \param[out] none
 217:C:/Users/49542/Desktop/GD32F30x_Demo_Suites_V2.0.0/GD32F30x_Demo_Suites_V2.0.0/GD32F30x_Firmware_Library/CMSIS/GD/GD32F30x/Source\system_gd32f30x.c ****     \retval     none
 218:C:/Users/49542/Desktop/GD32F30x_Demo_Suites_V2.0.0/GD32F30x_Demo_Suites_V2.0.0/GD32F30x_Firmware_Library/CMSIS/GD/GD32F30x/Source\system_gd32f30x.c **** */
 219:C:/Users/49542/Desktop/GD32F30x_Demo_Suites_V2.0.0/GD32F30x_Demo_Suites_V2.0.0/GD32F30x_Firmware_Library/CMSIS/GD/GD32F30x/Source\system_gd32f30x.c **** static void system_clock_48m_irc8m(void)
 220:C:/Users/49542/Desktop/GD32F30x_Demo_Suites_V2.0.0/GD32F30x_Demo_Suites_V2.0.0/GD32F30x_Firmware_Library/CMSIS/GD/GD32F30x/Source\system_gd32f30x.c **** {
 221:C:/Users/49542/Desktop/GD32F30x_Demo_Suites_V2.0.0/GD32F30x_Demo_Suites_V2.0.0/GD32F30x_Firmware_Library/CMSIS/GD/GD32F30x/Source\system_gd32f30x.c ****     uint32_t timeout = 0U;
 222:C:/Users/49542/Desktop/GD32F30x_Demo_Suites_V2.0.0/GD32F30x_Demo_Suites_V2.0.0/GD32F30x_Firmware_Library/CMSIS/GD/GD32F30x/Source\system_gd32f30x.c ****     uint32_t stab_flag = 0U;
 223:C:/Users/49542/Desktop/GD32F30x_Demo_Suites_V2.0.0/GD32F30x_Demo_Suites_V2.0.0/GD32F30x_Firmware_Library/CMSIS/GD/GD32F30x/Source\system_gd32f30x.c ****     
 224:C:/Users/49542/Desktop/GD32F30x_Demo_Suites_V2.0.0/GD32F30x_Demo_Suites_V2.0.0/GD32F30x_Firmware_Library/CMSIS/GD/GD32F30x/Source\system_gd32f30x.c ****     /* enable IRC8M */
 225:C:/Users/49542/Desktop/GD32F30x_Demo_Suites_V2.0.0/GD32F30x_Demo_Suites_V2.0.0/GD32F30x_Firmware_Library/CMSIS/GD/GD32F30x/Source\system_gd32f30x.c ****     RCU_CTL |= RCU_CTL_IRC8MEN;
 226:C:/Users/49542/Desktop/GD32F30x_Demo_Suites_V2.0.0/GD32F30x_Demo_Suites_V2.0.0/GD32F30x_Firmware_Library/CMSIS/GD/GD32F30x/Source\system_gd32f30x.c **** 
 227:C:/Users/49542/Desktop/GD32F30x_Demo_Suites_V2.0.0/GD32F30x_Demo_Suites_V2.0.0/GD32F30x_Firmware_Library/CMSIS/GD/GD32F30x/Source\system_gd32f30x.c ****     /* wait until IRC8M is stable or the startup time is longer than IRC8M_STARTUP_TIMEOUT */
 228:C:/Users/49542/Desktop/GD32F30x_Demo_Suites_V2.0.0/GD32F30x_Demo_Suites_V2.0.0/GD32F30x_Firmware_Library/CMSIS/GD/GD32F30x/Source\system_gd32f30x.c ****     do{
 229:C:/Users/49542/Desktop/GD32F30x_Demo_Suites_V2.0.0/GD32F30x_Demo_Suites_V2.0.0/GD32F30x_Firmware_Library/CMSIS/GD/GD32F30x/Source\system_gd32f30x.c ****         timeout++;
 230:C:/Users/49542/Desktop/GD32F30x_Demo_Suites_V2.0.0/GD32F30x_Demo_Suites_V2.0.0/GD32F30x_Firmware_Library/CMSIS/GD/GD32F30x/Source\system_gd32f30x.c ****         stab_flag = (RCU_CTL & RCU_CTL_IRC8MSTB);
 231:C:/Users/49542/Desktop/GD32F30x_Demo_Suites_V2.0.0/GD32F30x_Demo_Suites_V2.0.0/GD32F30x_Firmware_Library/CMSIS/GD/GD32F30x/Source\system_gd32f30x.c ****     }
 232:C:/Users/49542/Desktop/GD32F30x_Demo_Suites_V2.0.0/GD32F30x_Demo_Suites_V2.0.0/GD32F30x_Firmware_Library/CMSIS/GD/GD32F30x/Source\system_gd32f30x.c ****     while((0U == stab_flag) && (IRC8M_STARTUP_TIMEOUT != timeout));
 233:C:/Users/49542/Desktop/GD32F30x_Demo_Suites_V2.0.0/GD32F30x_Demo_Suites_V2.0.0/GD32F30x_Firmware_Library/CMSIS/GD/GD32F30x/Source\system_gd32f30x.c **** 
 234:C:/Users/49542/Desktop/GD32F30x_Demo_Suites_V2.0.0/GD32F30x_Demo_Suites_V2.0.0/GD32F30x_Firmware_Library/CMSIS/GD/GD32F30x/Source\system_gd32f30x.c ****     /* if fail */
 235:C:/Users/49542/Desktop/GD32F30x_Demo_Suites_V2.0.0/GD32F30x_Demo_Suites_V2.0.0/GD32F30x_Firmware_Library/CMSIS/GD/GD32F30x/Source\system_gd32f30x.c ****     if(0U == (RCU_CTL & RCU_CTL_IRC8MSTB)){
 236:C:/Users/49542/Desktop/GD32F30x_Demo_Suites_V2.0.0/GD32F30x_Demo_Suites_V2.0.0/GD32F30x_Firmware_Library/CMSIS/GD/GD32F30x/Source\system_gd32f30x.c ****       while(1){
 237:C:/Users/49542/Desktop/GD32F30x_Demo_Suites_V2.0.0/GD32F30x_Demo_Suites_V2.0.0/GD32F30x_Firmware_Library/CMSIS/GD/GD32F30x/Source\system_gd32f30x.c ****       }
 238:C:/Users/49542/Desktop/GD32F30x_Demo_Suites_V2.0.0/GD32F30x_Demo_Suites_V2.0.0/GD32F30x_Firmware_Library/CMSIS/GD/GD32F30x/Source\system_gd32f30x.c ****     }
 239:C:/Users/49542/Desktop/GD32F30x_Demo_Suites_V2.0.0/GD32F30x_Demo_Suites_V2.0.0/GD32F30x_Firmware_Library/CMSIS/GD/GD32F30x/Source\system_gd32f30x.c **** 
 240:C:/Users/49542/Desktop/GD32F30x_Demo_Suites_V2.0.0/GD32F30x_Demo_Suites_V2.0.0/GD32F30x_Firmware_Library/CMSIS/GD/GD32F30x/Source\system_gd32f30x.c ****     /* LDO output voltage high mode */
 241:C:/Users/49542/Desktop/GD32F30x_Demo_Suites_V2.0.0/GD32F30x_Demo_Suites_V2.0.0/GD32F30x_Firmware_Library/CMSIS/GD/GD32F30x/Source\system_gd32f30x.c ****     RCU_APB1EN |= RCU_APB1EN_PMUEN;
 242:C:/Users/49542/Desktop/GD32F30x_Demo_Suites_V2.0.0/GD32F30x_Demo_Suites_V2.0.0/GD32F30x_Firmware_Library/CMSIS/GD/GD32F30x/Source\system_gd32f30x.c ****     PMU_CTL |= PMU_CTL_LDOVS;
 243:C:/Users/49542/Desktop/GD32F30x_Demo_Suites_V2.0.0/GD32F30x_Demo_Suites_V2.0.0/GD32F30x_Firmware_Library/CMSIS/GD/GD32F30x/Source\system_gd32f30x.c **** 
 244:C:/Users/49542/Desktop/GD32F30x_Demo_Suites_V2.0.0/GD32F30x_Demo_Suites_V2.0.0/GD32F30x_Firmware_Library/CMSIS/GD/GD32F30x/Source\system_gd32f30x.c ****     /* IRC8M is stable */
 245:C:/Users/49542/Desktop/GD32F30x_Demo_Suites_V2.0.0/GD32F30x_Demo_Suites_V2.0.0/GD32F30x_Firmware_Library/CMSIS/GD/GD32F30x/Source\system_gd32f30x.c ****     /* AHB = SYSCLK */
 246:C:/Users/49542/Desktop/GD32F30x_Demo_Suites_V2.0.0/GD32F30x_Demo_Suites_V2.0.0/GD32F30x_Firmware_Library/CMSIS/GD/GD32F30x/Source\system_gd32f30x.c ****     RCU_CFG0 |= RCU_AHB_CKSYS_DIV1;
 247:C:/Users/49542/Desktop/GD32F30x_Demo_Suites_V2.0.0/GD32F30x_Demo_Suites_V2.0.0/GD32F30x_Firmware_Library/CMSIS/GD/GD32F30x/Source\system_gd32f30x.c ****     /* APB2 = AHB/1 */
 248:C:/Users/49542/Desktop/GD32F30x_Demo_Suites_V2.0.0/GD32F30x_Demo_Suites_V2.0.0/GD32F30x_Firmware_Library/CMSIS/GD/GD32F30x/Source\system_gd32f30x.c ****     RCU_CFG0 |= RCU_APB2_CKAHB_DIV1;
 249:C:/Users/49542/Desktop/GD32F30x_Demo_Suites_V2.0.0/GD32F30x_Demo_Suites_V2.0.0/GD32F30x_Firmware_Library/CMSIS/GD/GD32F30x/Source\system_gd32f30x.c ****     /* APB1 = AHB/2 */
 250:C:/Users/49542/Desktop/GD32F30x_Demo_Suites_V2.0.0/GD32F30x_Demo_Suites_V2.0.0/GD32F30x_Firmware_Library/CMSIS/GD/GD32F30x/Source\system_gd32f30x.c ****     RCU_CFG0 |= RCU_APB1_CKAHB_DIV2;
 251:C:/Users/49542/Desktop/GD32F30x_Demo_Suites_V2.0.0/GD32F30x_Demo_Suites_V2.0.0/GD32F30x_Firmware_Library/CMSIS/GD/GD32F30x/Source\system_gd32f30x.c **** 
 252:C:/Users/49542/Desktop/GD32F30x_Demo_Suites_V2.0.0/GD32F30x_Demo_Suites_V2.0.0/GD32F30x_Firmware_Library/CMSIS/GD/GD32F30x/Source\system_gd32f30x.c ****     /* CK_PLL = (CK_IRC8M/2) * 12 = 48 MHz */
 253:C:/Users/49542/Desktop/GD32F30x_Demo_Suites_V2.0.0/GD32F30x_Demo_Suites_V2.0.0/GD32F30x_Firmware_Library/CMSIS/GD/GD32F30x/Source\system_gd32f30x.c ****     RCU_CFG0 &= ~(RCU_CFG0_PLLMF | RCU_CFG0_PLLMF_4 | RCU_CFG0_PLLMF_5);
 254:C:/Users/49542/Desktop/GD32F30x_Demo_Suites_V2.0.0/GD32F30x_Demo_Suites_V2.0.0/GD32F30x_Firmware_Library/CMSIS/GD/GD32F30x/Source\system_gd32f30x.c ****     RCU_CFG0 |= RCU_PLL_MUL12;
 255:C:/Users/49542/Desktop/GD32F30x_Demo_Suites_V2.0.0/GD32F30x_Demo_Suites_V2.0.0/GD32F30x_Firmware_Library/CMSIS/GD/GD32F30x/Source\system_gd32f30x.c **** 
 256:C:/Users/49542/Desktop/GD32F30x_Demo_Suites_V2.0.0/GD32F30x_Demo_Suites_V2.0.0/GD32F30x_Firmware_Library/CMSIS/GD/GD32F30x/Source\system_gd32f30x.c ****     /* enable PLL */
 257:C:/Users/49542/Desktop/GD32F30x_Demo_Suites_V2.0.0/GD32F30x_Demo_Suites_V2.0.0/GD32F30x_Firmware_Library/CMSIS/GD/GD32F30x/Source\system_gd32f30x.c ****     RCU_CTL |= RCU_CTL_PLLEN;
 258:C:/Users/49542/Desktop/GD32F30x_Demo_Suites_V2.0.0/GD32F30x_Demo_Suites_V2.0.0/GD32F30x_Firmware_Library/CMSIS/GD/GD32F30x/Source\system_gd32f30x.c **** 
 259:C:/Users/49542/Desktop/GD32F30x_Demo_Suites_V2.0.0/GD32F30x_Demo_Suites_V2.0.0/GD32F30x_Firmware_Library/CMSIS/GD/GD32F30x/Source\system_gd32f30x.c ****     /* wait until PLL is stable */
 260:C:/Users/49542/Desktop/GD32F30x_Demo_Suites_V2.0.0/GD32F30x_Demo_Suites_V2.0.0/GD32F30x_Firmware_Library/CMSIS/GD/GD32F30x/Source\system_gd32f30x.c ****     while(0U == (RCU_CTL & RCU_CTL_PLLSTB)){
 261:C:/Users/49542/Desktop/GD32F30x_Demo_Suites_V2.0.0/GD32F30x_Demo_Suites_V2.0.0/GD32F30x_Firmware_Library/CMSIS/GD/GD32F30x/Source\system_gd32f30x.c ****     }
 262:C:/Users/49542/Desktop/GD32F30x_Demo_Suites_V2.0.0/GD32F30x_Demo_Suites_V2.0.0/GD32F30x_Firmware_Library/CMSIS/GD/GD32F30x/Source\system_gd32f30x.c ****     
 263:C:/Users/49542/Desktop/GD32F30x_Demo_Suites_V2.0.0/GD32F30x_Demo_Suites_V2.0.0/GD32F30x_Firmware_Library/CMSIS/GD/GD32F30x/Source\system_gd32f30x.c ****     /* enable the high-drive to extend the clock frequency to 120 MHz */
 264:C:/Users/49542/Desktop/GD32F30x_Demo_Suites_V2.0.0/GD32F30x_Demo_Suites_V2.0.0/GD32F30x_Firmware_Library/CMSIS/GD/GD32F30x/Source\system_gd32f30x.c ****     PMU_CTL |= PMU_CTL_HDEN;
 265:C:/Users/49542/Desktop/GD32F30x_Demo_Suites_V2.0.0/GD32F30x_Demo_Suites_V2.0.0/GD32F30x_Firmware_Library/CMSIS/GD/GD32F30x/Source\system_gd32f30x.c ****     while(0U == (PMU_CS & PMU_CS_HDRF)){
 266:C:/Users/49542/Desktop/GD32F30x_Demo_Suites_V2.0.0/GD32F30x_Demo_Suites_V2.0.0/GD32F30x_Firmware_Library/CMSIS/GD/GD32F30x/Source\system_gd32f30x.c ****     }
 267:C:/Users/49542/Desktop/GD32F30x_Demo_Suites_V2.0.0/GD32F30x_Demo_Suites_V2.0.0/GD32F30x_Firmware_Library/CMSIS/GD/GD32F30x/Source\system_gd32f30x.c ****     
 268:C:/Users/49542/Desktop/GD32F30x_Demo_Suites_V2.0.0/GD32F30x_Demo_Suites_V2.0.0/GD32F30x_Firmware_Library/CMSIS/GD/GD32F30x/Source\system_gd32f30x.c ****     /* select the high-drive mode */
 269:C:/Users/49542/Desktop/GD32F30x_Demo_Suites_V2.0.0/GD32F30x_Demo_Suites_V2.0.0/GD32F30x_Firmware_Library/CMSIS/GD/GD32F30x/Source\system_gd32f30x.c ****     PMU_CTL |= PMU_CTL_HDS;
ARM GAS  C:\Users\49542\AppData\Local\Temp\ccT3FCLy.s 			page 8


 270:C:/Users/49542/Desktop/GD32F30x_Demo_Suites_V2.0.0/GD32F30x_Demo_Suites_V2.0.0/GD32F30x_Firmware_Library/CMSIS/GD/GD32F30x/Source\system_gd32f30x.c ****     while(0U == (PMU_CS & PMU_CS_HDSRF)){
 271:C:/Users/49542/Desktop/GD32F30x_Demo_Suites_V2.0.0/GD32F30x_Demo_Suites_V2.0.0/GD32F30x_Firmware_Library/CMSIS/GD/GD32F30x/Source\system_gd32f30x.c ****     } 
 272:C:/Users/49542/Desktop/GD32F30x_Demo_Suites_V2.0.0/GD32F30x_Demo_Suites_V2.0.0/GD32F30x_Firmware_Library/CMSIS/GD/GD32F30x/Source\system_gd32f30x.c ****     
 273:C:/Users/49542/Desktop/GD32F30x_Demo_Suites_V2.0.0/GD32F30x_Demo_Suites_V2.0.0/GD32F30x_Firmware_Library/CMSIS/GD/GD32F30x/Source\system_gd32f30x.c ****     /* select PLL as system clock */
 274:C:/Users/49542/Desktop/GD32F30x_Demo_Suites_V2.0.0/GD32F30x_Demo_Suites_V2.0.0/GD32F30x_Firmware_Library/CMSIS/GD/GD32F30x/Source\system_gd32f30x.c ****     RCU_CFG0 &= ~RCU_CFG0_SCS;
 275:C:/Users/49542/Desktop/GD32F30x_Demo_Suites_V2.0.0/GD32F30x_Demo_Suites_V2.0.0/GD32F30x_Firmware_Library/CMSIS/GD/GD32F30x/Source\system_gd32f30x.c ****     RCU_CFG0 |= RCU_CKSYSSRC_PLL;
 276:C:/Users/49542/Desktop/GD32F30x_Demo_Suites_V2.0.0/GD32F30x_Demo_Suites_V2.0.0/GD32F30x_Firmware_Library/CMSIS/GD/GD32F30x/Source\system_gd32f30x.c **** 
 277:C:/Users/49542/Desktop/GD32F30x_Demo_Suites_V2.0.0/GD32F30x_Demo_Suites_V2.0.0/GD32F30x_Firmware_Library/CMSIS/GD/GD32F30x/Source\system_gd32f30x.c ****     /* wait until PLL is selected as system clock */
 278:C:/Users/49542/Desktop/GD32F30x_Demo_Suites_V2.0.0/GD32F30x_Demo_Suites_V2.0.0/GD32F30x_Firmware_Library/CMSIS/GD/GD32F30x/Source\system_gd32f30x.c ****     while(0U == (RCU_CFG0 & RCU_SCSS_PLL)){
 279:C:/Users/49542/Desktop/GD32F30x_Demo_Suites_V2.0.0/GD32F30x_Demo_Suites_V2.0.0/GD32F30x_Firmware_Library/CMSIS/GD/GD32F30x/Source\system_gd32f30x.c ****     }
 280:C:/Users/49542/Desktop/GD32F30x_Demo_Suites_V2.0.0/GD32F30x_Demo_Suites_V2.0.0/GD32F30x_Firmware_Library/CMSIS/GD/GD32F30x/Source\system_gd32f30x.c **** }
 281:C:/Users/49542/Desktop/GD32F30x_Demo_Suites_V2.0.0/GD32F30x_Demo_Suites_V2.0.0/GD32F30x_Firmware_Library/CMSIS/GD/GD32F30x/Source\system_gd32f30x.c **** 
 282:C:/Users/49542/Desktop/GD32F30x_Demo_Suites_V2.0.0/GD32F30x_Demo_Suites_V2.0.0/GD32F30x_Firmware_Library/CMSIS/GD/GD32F30x/Source\system_gd32f30x.c **** #elif defined (__SYSTEM_CLOCK_72M_PLL_IRC8M)
 283:C:/Users/49542/Desktop/GD32F30x_Demo_Suites_V2.0.0/GD32F30x_Demo_Suites_V2.0.0/GD32F30x_Firmware_Library/CMSIS/GD/GD32F30x/Source\system_gd32f30x.c **** /*!
 284:C:/Users/49542/Desktop/GD32F30x_Demo_Suites_V2.0.0/GD32F30x_Demo_Suites_V2.0.0/GD32F30x_Firmware_Library/CMSIS/GD/GD32F30x/Source\system_gd32f30x.c ****     \brief      configure the system clock to 72M by PLL which selects IRC8M as its clock source
 285:C:/Users/49542/Desktop/GD32F30x_Demo_Suites_V2.0.0/GD32F30x_Demo_Suites_V2.0.0/GD32F30x_Firmware_Library/CMSIS/GD/GD32F30x/Source\system_gd32f30x.c ****     \param[in]  none
 286:C:/Users/49542/Desktop/GD32F30x_Demo_Suites_V2.0.0/GD32F30x_Demo_Suites_V2.0.0/GD32F30x_Firmware_Library/CMSIS/GD/GD32F30x/Source\system_gd32f30x.c ****     \param[out] none
 287:C:/Users/49542/Desktop/GD32F30x_Demo_Suites_V2.0.0/GD32F30x_Demo_Suites_V2.0.0/GD32F30x_Firmware_Library/CMSIS/GD/GD32F30x/Source\system_gd32f30x.c ****     \retval     none
 288:C:/Users/49542/Desktop/GD32F30x_Demo_Suites_V2.0.0/GD32F30x_Demo_Suites_V2.0.0/GD32F30x_Firmware_Library/CMSIS/GD/GD32F30x/Source\system_gd32f30x.c **** */
 289:C:/Users/49542/Desktop/GD32F30x_Demo_Suites_V2.0.0/GD32F30x_Demo_Suites_V2.0.0/GD32F30x_Firmware_Library/CMSIS/GD/GD32F30x/Source\system_gd32f30x.c **** static void system_clock_72m_irc8m(void)
 290:C:/Users/49542/Desktop/GD32F30x_Demo_Suites_V2.0.0/GD32F30x_Demo_Suites_V2.0.0/GD32F30x_Firmware_Library/CMSIS/GD/GD32F30x/Source\system_gd32f30x.c **** {
 291:C:/Users/49542/Desktop/GD32F30x_Demo_Suites_V2.0.0/GD32F30x_Demo_Suites_V2.0.0/GD32F30x_Firmware_Library/CMSIS/GD/GD32F30x/Source\system_gd32f30x.c ****     uint32_t timeout = 0U;
 292:C:/Users/49542/Desktop/GD32F30x_Demo_Suites_V2.0.0/GD32F30x_Demo_Suites_V2.0.0/GD32F30x_Firmware_Library/CMSIS/GD/GD32F30x/Source\system_gd32f30x.c ****     uint32_t stab_flag = 0U;
 293:C:/Users/49542/Desktop/GD32F30x_Demo_Suites_V2.0.0/GD32F30x_Demo_Suites_V2.0.0/GD32F30x_Firmware_Library/CMSIS/GD/GD32F30x/Source\system_gd32f30x.c ****     
 294:C:/Users/49542/Desktop/GD32F30x_Demo_Suites_V2.0.0/GD32F30x_Demo_Suites_V2.0.0/GD32F30x_Firmware_Library/CMSIS/GD/GD32F30x/Source\system_gd32f30x.c ****     /* enable IRC8M */
 295:C:/Users/49542/Desktop/GD32F30x_Demo_Suites_V2.0.0/GD32F30x_Demo_Suites_V2.0.0/GD32F30x_Firmware_Library/CMSIS/GD/GD32F30x/Source\system_gd32f30x.c ****     RCU_CTL |= RCU_CTL_IRC8MEN;
 296:C:/Users/49542/Desktop/GD32F30x_Demo_Suites_V2.0.0/GD32F30x_Demo_Suites_V2.0.0/GD32F30x_Firmware_Library/CMSIS/GD/GD32F30x/Source\system_gd32f30x.c **** 
 297:C:/Users/49542/Desktop/GD32F30x_Demo_Suites_V2.0.0/GD32F30x_Demo_Suites_V2.0.0/GD32F30x_Firmware_Library/CMSIS/GD/GD32F30x/Source\system_gd32f30x.c ****     /* wait until IRC8M is stable or the startup time is longer than IRC8M_STARTUP_TIMEOUT */
 298:C:/Users/49542/Desktop/GD32F30x_Demo_Suites_V2.0.0/GD32F30x_Demo_Suites_V2.0.0/GD32F30x_Firmware_Library/CMSIS/GD/GD32F30x/Source\system_gd32f30x.c ****     do{
 299:C:/Users/49542/Desktop/GD32F30x_Demo_Suites_V2.0.0/GD32F30x_Demo_Suites_V2.0.0/GD32F30x_Firmware_Library/CMSIS/GD/GD32F30x/Source\system_gd32f30x.c ****         timeout++;
 300:C:/Users/49542/Desktop/GD32F30x_Demo_Suites_V2.0.0/GD32F30x_Demo_Suites_V2.0.0/GD32F30x_Firmware_Library/CMSIS/GD/GD32F30x/Source\system_gd32f30x.c ****         stab_flag = (RCU_CTL & RCU_CTL_IRC8MSTB);
 301:C:/Users/49542/Desktop/GD32F30x_Demo_Suites_V2.0.0/GD32F30x_Demo_Suites_V2.0.0/GD32F30x_Firmware_Library/CMSIS/GD/GD32F30x/Source\system_gd32f30x.c ****     }while((0U == stab_flag) && (IRC8M_STARTUP_TIMEOUT != timeout));
 302:C:/Users/49542/Desktop/GD32F30x_Demo_Suites_V2.0.0/GD32F30x_Demo_Suites_V2.0.0/GD32F30x_Firmware_Library/CMSIS/GD/GD32F30x/Source\system_gd32f30x.c **** 
 303:C:/Users/49542/Desktop/GD32F30x_Demo_Suites_V2.0.0/GD32F30x_Demo_Suites_V2.0.0/GD32F30x_Firmware_Library/CMSIS/GD/GD32F30x/Source\system_gd32f30x.c ****     /* if fail */
 304:C:/Users/49542/Desktop/GD32F30x_Demo_Suites_V2.0.0/GD32F30x_Demo_Suites_V2.0.0/GD32F30x_Firmware_Library/CMSIS/GD/GD32F30x/Source\system_gd32f30x.c ****     if(0U == (RCU_CTL & RCU_CTL_IRC8MSTB)){
 305:C:/Users/49542/Desktop/GD32F30x_Demo_Suites_V2.0.0/GD32F30x_Demo_Suites_V2.0.0/GD32F30x_Firmware_Library/CMSIS/GD/GD32F30x/Source\system_gd32f30x.c ****         while(1){
 306:C:/Users/49542/Desktop/GD32F30x_Demo_Suites_V2.0.0/GD32F30x_Demo_Suites_V2.0.0/GD32F30x_Firmware_Library/CMSIS/GD/GD32F30x/Source\system_gd32f30x.c ****         }
 307:C:/Users/49542/Desktop/GD32F30x_Demo_Suites_V2.0.0/GD32F30x_Demo_Suites_V2.0.0/GD32F30x_Firmware_Library/CMSIS/GD/GD32F30x/Source\system_gd32f30x.c ****     }
 308:C:/Users/49542/Desktop/GD32F30x_Demo_Suites_V2.0.0/GD32F30x_Demo_Suites_V2.0.0/GD32F30x_Firmware_Library/CMSIS/GD/GD32F30x/Source\system_gd32f30x.c **** 
 309:C:/Users/49542/Desktop/GD32F30x_Demo_Suites_V2.0.0/GD32F30x_Demo_Suites_V2.0.0/GD32F30x_Firmware_Library/CMSIS/GD/GD32F30x/Source\system_gd32f30x.c ****     /* LDO output voltage high mode */
 310:C:/Users/49542/Desktop/GD32F30x_Demo_Suites_V2.0.0/GD32F30x_Demo_Suites_V2.0.0/GD32F30x_Firmware_Library/CMSIS/GD/GD32F30x/Source\system_gd32f30x.c ****     RCU_APB1EN |= RCU_APB1EN_PMUEN;
 311:C:/Users/49542/Desktop/GD32F30x_Demo_Suites_V2.0.0/GD32F30x_Demo_Suites_V2.0.0/GD32F30x_Firmware_Library/CMSIS/GD/GD32F30x/Source\system_gd32f30x.c ****     PMU_CTL |= PMU_CTL_LDOVS;
 312:C:/Users/49542/Desktop/GD32F30x_Demo_Suites_V2.0.0/GD32F30x_Demo_Suites_V2.0.0/GD32F30x_Firmware_Library/CMSIS/GD/GD32F30x/Source\system_gd32f30x.c **** 
 313:C:/Users/49542/Desktop/GD32F30x_Demo_Suites_V2.0.0/GD32F30x_Demo_Suites_V2.0.0/GD32F30x_Firmware_Library/CMSIS/GD/GD32F30x/Source\system_gd32f30x.c ****     /* IRC8M is stable */
 314:C:/Users/49542/Desktop/GD32F30x_Demo_Suites_V2.0.0/GD32F30x_Demo_Suites_V2.0.0/GD32F30x_Firmware_Library/CMSIS/GD/GD32F30x/Source\system_gd32f30x.c ****     /* AHB = SYSCLK */
 315:C:/Users/49542/Desktop/GD32F30x_Demo_Suites_V2.0.0/GD32F30x_Demo_Suites_V2.0.0/GD32F30x_Firmware_Library/CMSIS/GD/GD32F30x/Source\system_gd32f30x.c ****     RCU_CFG0 |= RCU_AHB_CKSYS_DIV1;
 316:C:/Users/49542/Desktop/GD32F30x_Demo_Suites_V2.0.0/GD32F30x_Demo_Suites_V2.0.0/GD32F30x_Firmware_Library/CMSIS/GD/GD32F30x/Source\system_gd32f30x.c ****     /* APB2 = AHB/1 */
 317:C:/Users/49542/Desktop/GD32F30x_Demo_Suites_V2.0.0/GD32F30x_Demo_Suites_V2.0.0/GD32F30x_Firmware_Library/CMSIS/GD/GD32F30x/Source\system_gd32f30x.c ****     RCU_CFG0 |= RCU_APB2_CKAHB_DIV1;
 318:C:/Users/49542/Desktop/GD32F30x_Demo_Suites_V2.0.0/GD32F30x_Demo_Suites_V2.0.0/GD32F30x_Firmware_Library/CMSIS/GD/GD32F30x/Source\system_gd32f30x.c ****     /* APB1 = AHB/2 */
 319:C:/Users/49542/Desktop/GD32F30x_Demo_Suites_V2.0.0/GD32F30x_Demo_Suites_V2.0.0/GD32F30x_Firmware_Library/CMSIS/GD/GD32F30x/Source\system_gd32f30x.c ****     RCU_CFG0 |= RCU_APB1_CKAHB_DIV2;
 320:C:/Users/49542/Desktop/GD32F30x_Demo_Suites_V2.0.0/GD32F30x_Demo_Suites_V2.0.0/GD32F30x_Firmware_Library/CMSIS/GD/GD32F30x/Source\system_gd32f30x.c **** 
 321:C:/Users/49542/Desktop/GD32F30x_Demo_Suites_V2.0.0/GD32F30x_Demo_Suites_V2.0.0/GD32F30x_Firmware_Library/CMSIS/GD/GD32F30x/Source\system_gd32f30x.c ****     /* CK_PLL = (CK_IRC8M/2) * 18 = 72 MHz */
 322:C:/Users/49542/Desktop/GD32F30x_Demo_Suites_V2.0.0/GD32F30x_Demo_Suites_V2.0.0/GD32F30x_Firmware_Library/CMSIS/GD/GD32F30x/Source\system_gd32f30x.c ****     RCU_CFG0 &= ~(RCU_CFG0_PLLMF | RCU_CFG0_PLLMF_4 | RCU_CFG0_PLLMF_5);
 323:C:/Users/49542/Desktop/GD32F30x_Demo_Suites_V2.0.0/GD32F30x_Demo_Suites_V2.0.0/GD32F30x_Firmware_Library/CMSIS/GD/GD32F30x/Source\system_gd32f30x.c ****     RCU_CFG0 |= RCU_PLL_MUL18;
 324:C:/Users/49542/Desktop/GD32F30x_Demo_Suites_V2.0.0/GD32F30x_Demo_Suites_V2.0.0/GD32F30x_Firmware_Library/CMSIS/GD/GD32F30x/Source\system_gd32f30x.c **** 
 325:C:/Users/49542/Desktop/GD32F30x_Demo_Suites_V2.0.0/GD32F30x_Demo_Suites_V2.0.0/GD32F30x_Firmware_Library/CMSIS/GD/GD32F30x/Source\system_gd32f30x.c ****     /* enable PLL */
 326:C:/Users/49542/Desktop/GD32F30x_Demo_Suites_V2.0.0/GD32F30x_Demo_Suites_V2.0.0/GD32F30x_Firmware_Library/CMSIS/GD/GD32F30x/Source\system_gd32f30x.c ****     RCU_CTL |= RCU_CTL_PLLEN;
ARM GAS  C:\Users\49542\AppData\Local\Temp\ccT3FCLy.s 			page 9


 327:C:/Users/49542/Desktop/GD32F30x_Demo_Suites_V2.0.0/GD32F30x_Demo_Suites_V2.0.0/GD32F30x_Firmware_Library/CMSIS/GD/GD32F30x/Source\system_gd32f30x.c **** 
 328:C:/Users/49542/Desktop/GD32F30x_Demo_Suites_V2.0.0/GD32F30x_Demo_Suites_V2.0.0/GD32F30x_Firmware_Library/CMSIS/GD/GD32F30x/Source\system_gd32f30x.c ****     /* wait until PLL is stable */
 329:C:/Users/49542/Desktop/GD32F30x_Demo_Suites_V2.0.0/GD32F30x_Demo_Suites_V2.0.0/GD32F30x_Firmware_Library/CMSIS/GD/GD32F30x/Source\system_gd32f30x.c ****     while(0U == (RCU_CTL & RCU_CTL_PLLSTB)){
 330:C:/Users/49542/Desktop/GD32F30x_Demo_Suites_V2.0.0/GD32F30x_Demo_Suites_V2.0.0/GD32F30x_Firmware_Library/CMSIS/GD/GD32F30x/Source\system_gd32f30x.c ****     }
 331:C:/Users/49542/Desktop/GD32F30x_Demo_Suites_V2.0.0/GD32F30x_Demo_Suites_V2.0.0/GD32F30x_Firmware_Library/CMSIS/GD/GD32F30x/Source\system_gd32f30x.c ****     
 332:C:/Users/49542/Desktop/GD32F30x_Demo_Suites_V2.0.0/GD32F30x_Demo_Suites_V2.0.0/GD32F30x_Firmware_Library/CMSIS/GD/GD32F30x/Source\system_gd32f30x.c ****     /* enable the high-drive to extend the clock frequency to 120 MHz */
 333:C:/Users/49542/Desktop/GD32F30x_Demo_Suites_V2.0.0/GD32F30x_Demo_Suites_V2.0.0/GD32F30x_Firmware_Library/CMSIS/GD/GD32F30x/Source\system_gd32f30x.c ****     PMU_CTL |= PMU_CTL_HDEN;
 334:C:/Users/49542/Desktop/GD32F30x_Demo_Suites_V2.0.0/GD32F30x_Demo_Suites_V2.0.0/GD32F30x_Firmware_Library/CMSIS/GD/GD32F30x/Source\system_gd32f30x.c ****     while(0U == (PMU_CS & PMU_CS_HDRF)){
 335:C:/Users/49542/Desktop/GD32F30x_Demo_Suites_V2.0.0/GD32F30x_Demo_Suites_V2.0.0/GD32F30x_Firmware_Library/CMSIS/GD/GD32F30x/Source\system_gd32f30x.c ****     }
 336:C:/Users/49542/Desktop/GD32F30x_Demo_Suites_V2.0.0/GD32F30x_Demo_Suites_V2.0.0/GD32F30x_Firmware_Library/CMSIS/GD/GD32F30x/Source\system_gd32f30x.c ****     
 337:C:/Users/49542/Desktop/GD32F30x_Demo_Suites_V2.0.0/GD32F30x_Demo_Suites_V2.0.0/GD32F30x_Firmware_Library/CMSIS/GD/GD32F30x/Source\system_gd32f30x.c ****     /* select the high-drive mode */
 338:C:/Users/49542/Desktop/GD32F30x_Demo_Suites_V2.0.0/GD32F30x_Demo_Suites_V2.0.0/GD32F30x_Firmware_Library/CMSIS/GD/GD32F30x/Source\system_gd32f30x.c ****     PMU_CTL |= PMU_CTL_HDS;
 339:C:/Users/49542/Desktop/GD32F30x_Demo_Suites_V2.0.0/GD32F30x_Demo_Suites_V2.0.0/GD32F30x_Firmware_Library/CMSIS/GD/GD32F30x/Source\system_gd32f30x.c ****     while(0U == (PMU_CS & PMU_CS_HDSRF)){
 340:C:/Users/49542/Desktop/GD32F30x_Demo_Suites_V2.0.0/GD32F30x_Demo_Suites_V2.0.0/GD32F30x_Firmware_Library/CMSIS/GD/GD32F30x/Source\system_gd32f30x.c ****     }
 341:C:/Users/49542/Desktop/GD32F30x_Demo_Suites_V2.0.0/GD32F30x_Demo_Suites_V2.0.0/GD32F30x_Firmware_Library/CMSIS/GD/GD32F30x/Source\system_gd32f30x.c ****     
 342:C:/Users/49542/Desktop/GD32F30x_Demo_Suites_V2.0.0/GD32F30x_Demo_Suites_V2.0.0/GD32F30x_Firmware_Library/CMSIS/GD/GD32F30x/Source\system_gd32f30x.c ****     /* select PLL as system clock */
 343:C:/Users/49542/Desktop/GD32F30x_Demo_Suites_V2.0.0/GD32F30x_Demo_Suites_V2.0.0/GD32F30x_Firmware_Library/CMSIS/GD/GD32F30x/Source\system_gd32f30x.c ****     RCU_CFG0 &= ~RCU_CFG0_SCS;
 344:C:/Users/49542/Desktop/GD32F30x_Demo_Suites_V2.0.0/GD32F30x_Demo_Suites_V2.0.0/GD32F30x_Firmware_Library/CMSIS/GD/GD32F30x/Source\system_gd32f30x.c ****     RCU_CFG0 |= RCU_CKSYSSRC_PLL;
 345:C:/Users/49542/Desktop/GD32F30x_Demo_Suites_V2.0.0/GD32F30x_Demo_Suites_V2.0.0/GD32F30x_Firmware_Library/CMSIS/GD/GD32F30x/Source\system_gd32f30x.c **** 
 346:C:/Users/49542/Desktop/GD32F30x_Demo_Suites_V2.0.0/GD32F30x_Demo_Suites_V2.0.0/GD32F30x_Firmware_Library/CMSIS/GD/GD32F30x/Source\system_gd32f30x.c ****     /* wait until PLL is selected as system clock */
 347:C:/Users/49542/Desktop/GD32F30x_Demo_Suites_V2.0.0/GD32F30x_Demo_Suites_V2.0.0/GD32F30x_Firmware_Library/CMSIS/GD/GD32F30x/Source\system_gd32f30x.c ****     while(0U == (RCU_CFG0 & RCU_SCSS_PLL)){
 348:C:/Users/49542/Desktop/GD32F30x_Demo_Suites_V2.0.0/GD32F30x_Demo_Suites_V2.0.0/GD32F30x_Firmware_Library/CMSIS/GD/GD32F30x/Source\system_gd32f30x.c ****     }
 349:C:/Users/49542/Desktop/GD32F30x_Demo_Suites_V2.0.0/GD32F30x_Demo_Suites_V2.0.0/GD32F30x_Firmware_Library/CMSIS/GD/GD32F30x/Source\system_gd32f30x.c **** }
 350:C:/Users/49542/Desktop/GD32F30x_Demo_Suites_V2.0.0/GD32F30x_Demo_Suites_V2.0.0/GD32F30x_Firmware_Library/CMSIS/GD/GD32F30x/Source\system_gd32f30x.c **** 
 351:C:/Users/49542/Desktop/GD32F30x_Demo_Suites_V2.0.0/GD32F30x_Demo_Suites_V2.0.0/GD32F30x_Firmware_Library/CMSIS/GD/GD32F30x/Source\system_gd32f30x.c **** #elif defined (__SYSTEM_CLOCK_108M_PLL_IRC8M)
 352:C:/Users/49542/Desktop/GD32F30x_Demo_Suites_V2.0.0/GD32F30x_Demo_Suites_V2.0.0/GD32F30x_Firmware_Library/CMSIS/GD/GD32F30x/Source\system_gd32f30x.c **** /*!
 353:C:/Users/49542/Desktop/GD32F30x_Demo_Suites_V2.0.0/GD32F30x_Demo_Suites_V2.0.0/GD32F30x_Firmware_Library/CMSIS/GD/GD32F30x/Source\system_gd32f30x.c ****     \brief      configure the system clock to 108M by PLL which selects IRC8M as its clock source
 354:C:/Users/49542/Desktop/GD32F30x_Demo_Suites_V2.0.0/GD32F30x_Demo_Suites_V2.0.0/GD32F30x_Firmware_Library/CMSIS/GD/GD32F30x/Source\system_gd32f30x.c ****     \param[in]  none
 355:C:/Users/49542/Desktop/GD32F30x_Demo_Suites_V2.0.0/GD32F30x_Demo_Suites_V2.0.0/GD32F30x_Firmware_Library/CMSIS/GD/GD32F30x/Source\system_gd32f30x.c ****     \param[out] none
 356:C:/Users/49542/Desktop/GD32F30x_Demo_Suites_V2.0.0/GD32F30x_Demo_Suites_V2.0.0/GD32F30x_Firmware_Library/CMSIS/GD/GD32F30x/Source\system_gd32f30x.c ****     \retval     none
 357:C:/Users/49542/Desktop/GD32F30x_Demo_Suites_V2.0.0/GD32F30x_Demo_Suites_V2.0.0/GD32F30x_Firmware_Library/CMSIS/GD/GD32F30x/Source\system_gd32f30x.c **** */
 358:C:/Users/49542/Desktop/GD32F30x_Demo_Suites_V2.0.0/GD32F30x_Demo_Suites_V2.0.0/GD32F30x_Firmware_Library/CMSIS/GD/GD32F30x/Source\system_gd32f30x.c **** static void system_clock_108m_irc8m(void)
 359:C:/Users/49542/Desktop/GD32F30x_Demo_Suites_V2.0.0/GD32F30x_Demo_Suites_V2.0.0/GD32F30x_Firmware_Library/CMSIS/GD/GD32F30x/Source\system_gd32f30x.c **** {
 360:C:/Users/49542/Desktop/GD32F30x_Demo_Suites_V2.0.0/GD32F30x_Demo_Suites_V2.0.0/GD32F30x_Firmware_Library/CMSIS/GD/GD32F30x/Source\system_gd32f30x.c ****     uint32_t timeout = 0U;
 361:C:/Users/49542/Desktop/GD32F30x_Demo_Suites_V2.0.0/GD32F30x_Demo_Suites_V2.0.0/GD32F30x_Firmware_Library/CMSIS/GD/GD32F30x/Source\system_gd32f30x.c ****     uint32_t stab_flag = 0U;
 362:C:/Users/49542/Desktop/GD32F30x_Demo_Suites_V2.0.0/GD32F30x_Demo_Suites_V2.0.0/GD32F30x_Firmware_Library/CMSIS/GD/GD32F30x/Source\system_gd32f30x.c ****     
 363:C:/Users/49542/Desktop/GD32F30x_Demo_Suites_V2.0.0/GD32F30x_Demo_Suites_V2.0.0/GD32F30x_Firmware_Library/CMSIS/GD/GD32F30x/Source\system_gd32f30x.c ****     /* enable IRC8M */
 364:C:/Users/49542/Desktop/GD32F30x_Demo_Suites_V2.0.0/GD32F30x_Demo_Suites_V2.0.0/GD32F30x_Firmware_Library/CMSIS/GD/GD32F30x/Source\system_gd32f30x.c ****     RCU_CTL |= RCU_CTL_IRC8MEN;
 365:C:/Users/49542/Desktop/GD32F30x_Demo_Suites_V2.0.0/GD32F30x_Demo_Suites_V2.0.0/GD32F30x_Firmware_Library/CMSIS/GD/GD32F30x/Source\system_gd32f30x.c **** 
 366:C:/Users/49542/Desktop/GD32F30x_Demo_Suites_V2.0.0/GD32F30x_Demo_Suites_V2.0.0/GD32F30x_Firmware_Library/CMSIS/GD/GD32F30x/Source\system_gd32f30x.c ****     /* wait until IRC8M is stable or the startup time is longer than IRC8M_STARTUP_TIMEOUT */
 367:C:/Users/49542/Desktop/GD32F30x_Demo_Suites_V2.0.0/GD32F30x_Demo_Suites_V2.0.0/GD32F30x_Firmware_Library/CMSIS/GD/GD32F30x/Source\system_gd32f30x.c ****     do{
 368:C:/Users/49542/Desktop/GD32F30x_Demo_Suites_V2.0.0/GD32F30x_Demo_Suites_V2.0.0/GD32F30x_Firmware_Library/CMSIS/GD/GD32F30x/Source\system_gd32f30x.c ****         timeout++;
 369:C:/Users/49542/Desktop/GD32F30x_Demo_Suites_V2.0.0/GD32F30x_Demo_Suites_V2.0.0/GD32F30x_Firmware_Library/CMSIS/GD/GD32F30x/Source\system_gd32f30x.c ****         stab_flag = (RCU_CTL & RCU_CTL_IRC8MSTB);
 370:C:/Users/49542/Desktop/GD32F30x_Demo_Suites_V2.0.0/GD32F30x_Demo_Suites_V2.0.0/GD32F30x_Firmware_Library/CMSIS/GD/GD32F30x/Source\system_gd32f30x.c ****     }while((0U == stab_flag) && (IRC8M_STARTUP_TIMEOUT != timeout));
 371:C:/Users/49542/Desktop/GD32F30x_Demo_Suites_V2.0.0/GD32F30x_Demo_Suites_V2.0.0/GD32F30x_Firmware_Library/CMSIS/GD/GD32F30x/Source\system_gd32f30x.c **** 
 372:C:/Users/49542/Desktop/GD32F30x_Demo_Suites_V2.0.0/GD32F30x_Demo_Suites_V2.0.0/GD32F30x_Firmware_Library/CMSIS/GD/GD32F30x/Source\system_gd32f30x.c ****     /* if fail */
 373:C:/Users/49542/Desktop/GD32F30x_Demo_Suites_V2.0.0/GD32F30x_Demo_Suites_V2.0.0/GD32F30x_Firmware_Library/CMSIS/GD/GD32F30x/Source\system_gd32f30x.c ****     if(0U == (RCU_CTL & RCU_CTL_IRC8MSTB)){
 374:C:/Users/49542/Desktop/GD32F30x_Demo_Suites_V2.0.0/GD32F30x_Demo_Suites_V2.0.0/GD32F30x_Firmware_Library/CMSIS/GD/GD32F30x/Source\system_gd32f30x.c ****         while(1){
 375:C:/Users/49542/Desktop/GD32F30x_Demo_Suites_V2.0.0/GD32F30x_Demo_Suites_V2.0.0/GD32F30x_Firmware_Library/CMSIS/GD/GD32F30x/Source\system_gd32f30x.c ****         }
 376:C:/Users/49542/Desktop/GD32F30x_Demo_Suites_V2.0.0/GD32F30x_Demo_Suites_V2.0.0/GD32F30x_Firmware_Library/CMSIS/GD/GD32F30x/Source\system_gd32f30x.c ****     }
 377:C:/Users/49542/Desktop/GD32F30x_Demo_Suites_V2.0.0/GD32F30x_Demo_Suites_V2.0.0/GD32F30x_Firmware_Library/CMSIS/GD/GD32F30x/Source\system_gd32f30x.c **** 
 378:C:/Users/49542/Desktop/GD32F30x_Demo_Suites_V2.0.0/GD32F30x_Demo_Suites_V2.0.0/GD32F30x_Firmware_Library/CMSIS/GD/GD32F30x/Source\system_gd32f30x.c ****     /* LDO output voltage high mode */
 379:C:/Users/49542/Desktop/GD32F30x_Demo_Suites_V2.0.0/GD32F30x_Demo_Suites_V2.0.0/GD32F30x_Firmware_Library/CMSIS/GD/GD32F30x/Source\system_gd32f30x.c ****     RCU_APB1EN |= RCU_APB1EN_PMUEN;
 380:C:/Users/49542/Desktop/GD32F30x_Demo_Suites_V2.0.0/GD32F30x_Demo_Suites_V2.0.0/GD32F30x_Firmware_Library/CMSIS/GD/GD32F30x/Source\system_gd32f30x.c ****     PMU_CTL |= PMU_CTL_LDOVS;
 381:C:/Users/49542/Desktop/GD32F30x_Demo_Suites_V2.0.0/GD32F30x_Demo_Suites_V2.0.0/GD32F30x_Firmware_Library/CMSIS/GD/GD32F30x/Source\system_gd32f30x.c **** 
 382:C:/Users/49542/Desktop/GD32F30x_Demo_Suites_V2.0.0/GD32F30x_Demo_Suites_V2.0.0/GD32F30x_Firmware_Library/CMSIS/GD/GD32F30x/Source\system_gd32f30x.c ****     /* IRC8M is stable */
 383:C:/Users/49542/Desktop/GD32F30x_Demo_Suites_V2.0.0/GD32F30x_Demo_Suites_V2.0.0/GD32F30x_Firmware_Library/CMSIS/GD/GD32F30x/Source\system_gd32f30x.c ****     /* AHB = SYSCLK */
ARM GAS  C:\Users\49542\AppData\Local\Temp\ccT3FCLy.s 			page 10


 384:C:/Users/49542/Desktop/GD32F30x_Demo_Suites_V2.0.0/GD32F30x_Demo_Suites_V2.0.0/GD32F30x_Firmware_Library/CMSIS/GD/GD32F30x/Source\system_gd32f30x.c ****     RCU_CFG0 |= RCU_AHB_CKSYS_DIV1;
 385:C:/Users/49542/Desktop/GD32F30x_Demo_Suites_V2.0.0/GD32F30x_Demo_Suites_V2.0.0/GD32F30x_Firmware_Library/CMSIS/GD/GD32F30x/Source\system_gd32f30x.c ****     /* APB2 = AHB/1 */
 386:C:/Users/49542/Desktop/GD32F30x_Demo_Suites_V2.0.0/GD32F30x_Demo_Suites_V2.0.0/GD32F30x_Firmware_Library/CMSIS/GD/GD32F30x/Source\system_gd32f30x.c ****     RCU_CFG0 |= RCU_APB2_CKAHB_DIV1;
 387:C:/Users/49542/Desktop/GD32F30x_Demo_Suites_V2.0.0/GD32F30x_Demo_Suites_V2.0.0/GD32F30x_Firmware_Library/CMSIS/GD/GD32F30x/Source\system_gd32f30x.c ****     /* APB1 = AHB/2 */
 388:C:/Users/49542/Desktop/GD32F30x_Demo_Suites_V2.0.0/GD32F30x_Demo_Suites_V2.0.0/GD32F30x_Firmware_Library/CMSIS/GD/GD32F30x/Source\system_gd32f30x.c ****     RCU_CFG0 |= RCU_APB1_CKAHB_DIV2;
 389:C:/Users/49542/Desktop/GD32F30x_Demo_Suites_V2.0.0/GD32F30x_Demo_Suites_V2.0.0/GD32F30x_Firmware_Library/CMSIS/GD/GD32F30x/Source\system_gd32f30x.c **** 
 390:C:/Users/49542/Desktop/GD32F30x_Demo_Suites_V2.0.0/GD32F30x_Demo_Suites_V2.0.0/GD32F30x_Firmware_Library/CMSIS/GD/GD32F30x/Source\system_gd32f30x.c ****     /* CK_PLL = (CK_IRC8M/2) * 27 = 108 MHz */
 391:C:/Users/49542/Desktop/GD32F30x_Demo_Suites_V2.0.0/GD32F30x_Demo_Suites_V2.0.0/GD32F30x_Firmware_Library/CMSIS/GD/GD32F30x/Source\system_gd32f30x.c ****     RCU_CFG0 &= ~(RCU_CFG0_PLLMF | RCU_CFG0_PLLMF_4 | RCU_CFG0_PLLMF_5);
 392:C:/Users/49542/Desktop/GD32F30x_Demo_Suites_V2.0.0/GD32F30x_Demo_Suites_V2.0.0/GD32F30x_Firmware_Library/CMSIS/GD/GD32F30x/Source\system_gd32f30x.c ****     RCU_CFG0 |= RCU_PLL_MUL27;
 393:C:/Users/49542/Desktop/GD32F30x_Demo_Suites_V2.0.0/GD32F30x_Demo_Suites_V2.0.0/GD32F30x_Firmware_Library/CMSIS/GD/GD32F30x/Source\system_gd32f30x.c **** 
 394:C:/Users/49542/Desktop/GD32F30x_Demo_Suites_V2.0.0/GD32F30x_Demo_Suites_V2.0.0/GD32F30x_Firmware_Library/CMSIS/GD/GD32F30x/Source\system_gd32f30x.c ****     /* enable PLL */
 395:C:/Users/49542/Desktop/GD32F30x_Demo_Suites_V2.0.0/GD32F30x_Demo_Suites_V2.0.0/GD32F30x_Firmware_Library/CMSIS/GD/GD32F30x/Source\system_gd32f30x.c ****     RCU_CTL |= RCU_CTL_PLLEN;
 396:C:/Users/49542/Desktop/GD32F30x_Demo_Suites_V2.0.0/GD32F30x_Demo_Suites_V2.0.0/GD32F30x_Firmware_Library/CMSIS/GD/GD32F30x/Source\system_gd32f30x.c **** 
 397:C:/Users/49542/Desktop/GD32F30x_Demo_Suites_V2.0.0/GD32F30x_Demo_Suites_V2.0.0/GD32F30x_Firmware_Library/CMSIS/GD/GD32F30x/Source\system_gd32f30x.c ****     /* wait until PLL is stable */
 398:C:/Users/49542/Desktop/GD32F30x_Demo_Suites_V2.0.0/GD32F30x_Demo_Suites_V2.0.0/GD32F30x_Firmware_Library/CMSIS/GD/GD32F30x/Source\system_gd32f30x.c ****     while(0U == (RCU_CTL & RCU_CTL_PLLSTB)){
 399:C:/Users/49542/Desktop/GD32F30x_Demo_Suites_V2.0.0/GD32F30x_Demo_Suites_V2.0.0/GD32F30x_Firmware_Library/CMSIS/GD/GD32F30x/Source\system_gd32f30x.c ****     }
 400:C:/Users/49542/Desktop/GD32F30x_Demo_Suites_V2.0.0/GD32F30x_Demo_Suites_V2.0.0/GD32F30x_Firmware_Library/CMSIS/GD/GD32F30x/Source\system_gd32f30x.c ****     
 401:C:/Users/49542/Desktop/GD32F30x_Demo_Suites_V2.0.0/GD32F30x_Demo_Suites_V2.0.0/GD32F30x_Firmware_Library/CMSIS/GD/GD32F30x/Source\system_gd32f30x.c ****     /* enable the high-drive to extend the clock frequency to 120 MHz */
 402:C:/Users/49542/Desktop/GD32F30x_Demo_Suites_V2.0.0/GD32F30x_Demo_Suites_V2.0.0/GD32F30x_Firmware_Library/CMSIS/GD/GD32F30x/Source\system_gd32f30x.c ****     PMU_CTL |= PMU_CTL_HDEN;
 403:C:/Users/49542/Desktop/GD32F30x_Demo_Suites_V2.0.0/GD32F30x_Demo_Suites_V2.0.0/GD32F30x_Firmware_Library/CMSIS/GD/GD32F30x/Source\system_gd32f30x.c ****     while(0U == (PMU_CS & PMU_CS_HDRF)){
 404:C:/Users/49542/Desktop/GD32F30x_Demo_Suites_V2.0.0/GD32F30x_Demo_Suites_V2.0.0/GD32F30x_Firmware_Library/CMSIS/GD/GD32F30x/Source\system_gd32f30x.c ****     }
 405:C:/Users/49542/Desktop/GD32F30x_Demo_Suites_V2.0.0/GD32F30x_Demo_Suites_V2.0.0/GD32F30x_Firmware_Library/CMSIS/GD/GD32F30x/Source\system_gd32f30x.c ****     
 406:C:/Users/49542/Desktop/GD32F30x_Demo_Suites_V2.0.0/GD32F30x_Demo_Suites_V2.0.0/GD32F30x_Firmware_Library/CMSIS/GD/GD32F30x/Source\system_gd32f30x.c ****     /* select the high-drive mode */
 407:C:/Users/49542/Desktop/GD32F30x_Demo_Suites_V2.0.0/GD32F30x_Demo_Suites_V2.0.0/GD32F30x_Firmware_Library/CMSIS/GD/GD32F30x/Source\system_gd32f30x.c ****     PMU_CTL |= PMU_CTL_HDS;
 408:C:/Users/49542/Desktop/GD32F30x_Demo_Suites_V2.0.0/GD32F30x_Demo_Suites_V2.0.0/GD32F30x_Firmware_Library/CMSIS/GD/GD32F30x/Source\system_gd32f30x.c ****     while(0U == (PMU_CS & PMU_CS_HDSRF)){
 409:C:/Users/49542/Desktop/GD32F30x_Demo_Suites_V2.0.0/GD32F30x_Demo_Suites_V2.0.0/GD32F30x_Firmware_Library/CMSIS/GD/GD32F30x/Source\system_gd32f30x.c ****     }
 410:C:/Users/49542/Desktop/GD32F30x_Demo_Suites_V2.0.0/GD32F30x_Demo_Suites_V2.0.0/GD32F30x_Firmware_Library/CMSIS/GD/GD32F30x/Source\system_gd32f30x.c ****     
 411:C:/Users/49542/Desktop/GD32F30x_Demo_Suites_V2.0.0/GD32F30x_Demo_Suites_V2.0.0/GD32F30x_Firmware_Library/CMSIS/GD/GD32F30x/Source\system_gd32f30x.c ****     /* select PLL as system clock */
 412:C:/Users/49542/Desktop/GD32F30x_Demo_Suites_V2.0.0/GD32F30x_Demo_Suites_V2.0.0/GD32F30x_Firmware_Library/CMSIS/GD/GD32F30x/Source\system_gd32f30x.c ****     RCU_CFG0 &= ~RCU_CFG0_SCS;
 413:C:/Users/49542/Desktop/GD32F30x_Demo_Suites_V2.0.0/GD32F30x_Demo_Suites_V2.0.0/GD32F30x_Firmware_Library/CMSIS/GD/GD32F30x/Source\system_gd32f30x.c ****     RCU_CFG0 |= RCU_CKSYSSRC_PLL;
 414:C:/Users/49542/Desktop/GD32F30x_Demo_Suites_V2.0.0/GD32F30x_Demo_Suites_V2.0.0/GD32F30x_Firmware_Library/CMSIS/GD/GD32F30x/Source\system_gd32f30x.c **** 
 415:C:/Users/49542/Desktop/GD32F30x_Demo_Suites_V2.0.0/GD32F30x_Demo_Suites_V2.0.0/GD32F30x_Firmware_Library/CMSIS/GD/GD32F30x/Source\system_gd32f30x.c ****     /* wait until PLL is selected as system clock */
 416:C:/Users/49542/Desktop/GD32F30x_Demo_Suites_V2.0.0/GD32F30x_Demo_Suites_V2.0.0/GD32F30x_Firmware_Library/CMSIS/GD/GD32F30x/Source\system_gd32f30x.c ****     while(0U == (RCU_CFG0 & RCU_SCSS_PLL)){
 417:C:/Users/49542/Desktop/GD32F30x_Demo_Suites_V2.0.0/GD32F30x_Demo_Suites_V2.0.0/GD32F30x_Firmware_Library/CMSIS/GD/GD32F30x/Source\system_gd32f30x.c ****     }
 418:C:/Users/49542/Desktop/GD32F30x_Demo_Suites_V2.0.0/GD32F30x_Demo_Suites_V2.0.0/GD32F30x_Firmware_Library/CMSIS/GD/GD32F30x/Source\system_gd32f30x.c **** }
 419:C:/Users/49542/Desktop/GD32F30x_Demo_Suites_V2.0.0/GD32F30x_Demo_Suites_V2.0.0/GD32F30x_Firmware_Library/CMSIS/GD/GD32F30x/Source\system_gd32f30x.c **** 
 420:C:/Users/49542/Desktop/GD32F30x_Demo_Suites_V2.0.0/GD32F30x_Demo_Suites_V2.0.0/GD32F30x_Firmware_Library/CMSIS/GD/GD32F30x/Source\system_gd32f30x.c **** #elif defined (__SYSTEM_CLOCK_120M_PLL_IRC8M)
 421:C:/Users/49542/Desktop/GD32F30x_Demo_Suites_V2.0.0/GD32F30x_Demo_Suites_V2.0.0/GD32F30x_Firmware_Library/CMSIS/GD/GD32F30x/Source\system_gd32f30x.c **** /*!
 422:C:/Users/49542/Desktop/GD32F30x_Demo_Suites_V2.0.0/GD32F30x_Demo_Suites_V2.0.0/GD32F30x_Firmware_Library/CMSIS/GD/GD32F30x/Source\system_gd32f30x.c ****     \brief      configure the system clock to 120M by PLL which selects IRC8M as its clock source
 423:C:/Users/49542/Desktop/GD32F30x_Demo_Suites_V2.0.0/GD32F30x_Demo_Suites_V2.0.0/GD32F30x_Firmware_Library/CMSIS/GD/GD32F30x/Source\system_gd32f30x.c ****     \param[in]  none
 424:C:/Users/49542/Desktop/GD32F30x_Demo_Suites_V2.0.0/GD32F30x_Demo_Suites_V2.0.0/GD32F30x_Firmware_Library/CMSIS/GD/GD32F30x/Source\system_gd32f30x.c ****     \param[out] none
 425:C:/Users/49542/Desktop/GD32F30x_Demo_Suites_V2.0.0/GD32F30x_Demo_Suites_V2.0.0/GD32F30x_Firmware_Library/CMSIS/GD/GD32F30x/Source\system_gd32f30x.c ****     \retval     none
 426:C:/Users/49542/Desktop/GD32F30x_Demo_Suites_V2.0.0/GD32F30x_Demo_Suites_V2.0.0/GD32F30x_Firmware_Library/CMSIS/GD/GD32F30x/Source\system_gd32f30x.c **** */
 427:C:/Users/49542/Desktop/GD32F30x_Demo_Suites_V2.0.0/GD32F30x_Demo_Suites_V2.0.0/GD32F30x_Firmware_Library/CMSIS/GD/GD32F30x/Source\system_gd32f30x.c **** static void system_clock_120m_irc8m(void)
 428:C:/Users/49542/Desktop/GD32F30x_Demo_Suites_V2.0.0/GD32F30x_Demo_Suites_V2.0.0/GD32F30x_Firmware_Library/CMSIS/GD/GD32F30x/Source\system_gd32f30x.c **** {
 429:C:/Users/49542/Desktop/GD32F30x_Demo_Suites_V2.0.0/GD32F30x_Demo_Suites_V2.0.0/GD32F30x_Firmware_Library/CMSIS/GD/GD32F30x/Source\system_gd32f30x.c ****     uint32_t timeout = 0U;
 430:C:/Users/49542/Desktop/GD32F30x_Demo_Suites_V2.0.0/GD32F30x_Demo_Suites_V2.0.0/GD32F30x_Firmware_Library/CMSIS/GD/GD32F30x/Source\system_gd32f30x.c ****     uint32_t stab_flag = 0U;
 431:C:/Users/49542/Desktop/GD32F30x_Demo_Suites_V2.0.0/GD32F30x_Demo_Suites_V2.0.0/GD32F30x_Firmware_Library/CMSIS/GD/GD32F30x/Source\system_gd32f30x.c ****     
 432:C:/Users/49542/Desktop/GD32F30x_Demo_Suites_V2.0.0/GD32F30x_Demo_Suites_V2.0.0/GD32F30x_Firmware_Library/CMSIS/GD/GD32F30x/Source\system_gd32f30x.c ****     /* enable IRC8M */
 433:C:/Users/49542/Desktop/GD32F30x_Demo_Suites_V2.0.0/GD32F30x_Demo_Suites_V2.0.0/GD32F30x_Firmware_Library/CMSIS/GD/GD32F30x/Source\system_gd32f30x.c ****     RCU_CTL |= RCU_CTL_IRC8MEN;
 434:C:/Users/49542/Desktop/GD32F30x_Demo_Suites_V2.0.0/GD32F30x_Demo_Suites_V2.0.0/GD32F30x_Firmware_Library/CMSIS/GD/GD32F30x/Source\system_gd32f30x.c **** 
 435:C:/Users/49542/Desktop/GD32F30x_Demo_Suites_V2.0.0/GD32F30x_Demo_Suites_V2.0.0/GD32F30x_Firmware_Library/CMSIS/GD/GD32F30x/Source\system_gd32f30x.c ****     /* wait until IRC8M is stable or the startup time is longer than IRC8M_STARTUP_TIMEOUT */
 436:C:/Users/49542/Desktop/GD32F30x_Demo_Suites_V2.0.0/GD32F30x_Demo_Suites_V2.0.0/GD32F30x_Firmware_Library/CMSIS/GD/GD32F30x/Source\system_gd32f30x.c ****     do{
 437:C:/Users/49542/Desktop/GD32F30x_Demo_Suites_V2.0.0/GD32F30x_Demo_Suites_V2.0.0/GD32F30x_Firmware_Library/CMSIS/GD/GD32F30x/Source\system_gd32f30x.c ****         timeout++;
 438:C:/Users/49542/Desktop/GD32F30x_Demo_Suites_V2.0.0/GD32F30x_Demo_Suites_V2.0.0/GD32F30x_Firmware_Library/CMSIS/GD/GD32F30x/Source\system_gd32f30x.c ****         stab_flag = (RCU_CTL & RCU_CTL_IRC8MSTB);
 439:C:/Users/49542/Desktop/GD32F30x_Demo_Suites_V2.0.0/GD32F30x_Demo_Suites_V2.0.0/GD32F30x_Firmware_Library/CMSIS/GD/GD32F30x/Source\system_gd32f30x.c ****     }while((0U == stab_flag) && (IRC8M_STARTUP_TIMEOUT != timeout));
 440:C:/Users/49542/Desktop/GD32F30x_Demo_Suites_V2.0.0/GD32F30x_Demo_Suites_V2.0.0/GD32F30x_Firmware_Library/CMSIS/GD/GD32F30x/Source\system_gd32f30x.c **** 
ARM GAS  C:\Users\49542\AppData\Local\Temp\ccT3FCLy.s 			page 11


 441:C:/Users/49542/Desktop/GD32F30x_Demo_Suites_V2.0.0/GD32F30x_Demo_Suites_V2.0.0/GD32F30x_Firmware_Library/CMSIS/GD/GD32F30x/Source\system_gd32f30x.c ****     /* if fail */
 442:C:/Users/49542/Desktop/GD32F30x_Demo_Suites_V2.0.0/GD32F30x_Demo_Suites_V2.0.0/GD32F30x_Firmware_Library/CMSIS/GD/GD32F30x/Source\system_gd32f30x.c ****     if(0U == (RCU_CTL & RCU_CTL_IRC8MSTB)){
 443:C:/Users/49542/Desktop/GD32F30x_Demo_Suites_V2.0.0/GD32F30x_Demo_Suites_V2.0.0/GD32F30x_Firmware_Library/CMSIS/GD/GD32F30x/Source\system_gd32f30x.c ****         while(1){
 444:C:/Users/49542/Desktop/GD32F30x_Demo_Suites_V2.0.0/GD32F30x_Demo_Suites_V2.0.0/GD32F30x_Firmware_Library/CMSIS/GD/GD32F30x/Source\system_gd32f30x.c ****         }
 445:C:/Users/49542/Desktop/GD32F30x_Demo_Suites_V2.0.0/GD32F30x_Demo_Suites_V2.0.0/GD32F30x_Firmware_Library/CMSIS/GD/GD32F30x/Source\system_gd32f30x.c ****     }
 446:C:/Users/49542/Desktop/GD32F30x_Demo_Suites_V2.0.0/GD32F30x_Demo_Suites_V2.0.0/GD32F30x_Firmware_Library/CMSIS/GD/GD32F30x/Source\system_gd32f30x.c **** 
 447:C:/Users/49542/Desktop/GD32F30x_Demo_Suites_V2.0.0/GD32F30x_Demo_Suites_V2.0.0/GD32F30x_Firmware_Library/CMSIS/GD/GD32F30x/Source\system_gd32f30x.c ****     /* LDO output voltage high mode */
 448:C:/Users/49542/Desktop/GD32F30x_Demo_Suites_V2.0.0/GD32F30x_Demo_Suites_V2.0.0/GD32F30x_Firmware_Library/CMSIS/GD/GD32F30x/Source\system_gd32f30x.c ****     RCU_APB1EN |= RCU_APB1EN_PMUEN;
 449:C:/Users/49542/Desktop/GD32F30x_Demo_Suites_V2.0.0/GD32F30x_Demo_Suites_V2.0.0/GD32F30x_Firmware_Library/CMSIS/GD/GD32F30x/Source\system_gd32f30x.c ****     PMU_CTL |= PMU_CTL_LDOVS;
 450:C:/Users/49542/Desktop/GD32F30x_Demo_Suites_V2.0.0/GD32F30x_Demo_Suites_V2.0.0/GD32F30x_Firmware_Library/CMSIS/GD/GD32F30x/Source\system_gd32f30x.c **** 
 451:C:/Users/49542/Desktop/GD32F30x_Demo_Suites_V2.0.0/GD32F30x_Demo_Suites_V2.0.0/GD32F30x_Firmware_Library/CMSIS/GD/GD32F30x/Source\system_gd32f30x.c ****     /* IRC8M is stable */
 452:C:/Users/49542/Desktop/GD32F30x_Demo_Suites_V2.0.0/GD32F30x_Demo_Suites_V2.0.0/GD32F30x_Firmware_Library/CMSIS/GD/GD32F30x/Source\system_gd32f30x.c ****     /* AHB = SYSCLK */
 453:C:/Users/49542/Desktop/GD32F30x_Demo_Suites_V2.0.0/GD32F30x_Demo_Suites_V2.0.0/GD32F30x_Firmware_Library/CMSIS/GD/GD32F30x/Source\system_gd32f30x.c ****     RCU_CFG0 |= RCU_AHB_CKSYS_DIV1;
 454:C:/Users/49542/Desktop/GD32F30x_Demo_Suites_V2.0.0/GD32F30x_Demo_Suites_V2.0.0/GD32F30x_Firmware_Library/CMSIS/GD/GD32F30x/Source\system_gd32f30x.c ****     /* APB2 = AHB/1 */
 455:C:/Users/49542/Desktop/GD32F30x_Demo_Suites_V2.0.0/GD32F30x_Demo_Suites_V2.0.0/GD32F30x_Firmware_Library/CMSIS/GD/GD32F30x/Source\system_gd32f30x.c ****     RCU_CFG0 |= RCU_APB2_CKAHB_DIV1;
 456:C:/Users/49542/Desktop/GD32F30x_Demo_Suites_V2.0.0/GD32F30x_Demo_Suites_V2.0.0/GD32F30x_Firmware_Library/CMSIS/GD/GD32F30x/Source\system_gd32f30x.c ****     /* APB1 = AHB/2 */
 457:C:/Users/49542/Desktop/GD32F30x_Demo_Suites_V2.0.0/GD32F30x_Demo_Suites_V2.0.0/GD32F30x_Firmware_Library/CMSIS/GD/GD32F30x/Source\system_gd32f30x.c ****     RCU_CFG0 |= RCU_APB1_CKAHB_DIV2;
 458:C:/Users/49542/Desktop/GD32F30x_Demo_Suites_V2.0.0/GD32F30x_Demo_Suites_V2.0.0/GD32F30x_Firmware_Library/CMSIS/GD/GD32F30x/Source\system_gd32f30x.c **** 
 459:C:/Users/49542/Desktop/GD32F30x_Demo_Suites_V2.0.0/GD32F30x_Demo_Suites_V2.0.0/GD32F30x_Firmware_Library/CMSIS/GD/GD32F30x/Source\system_gd32f30x.c ****     /* CK_PLL = (CK_IRC8M/2) * 30 = 120 MHz */
 460:C:/Users/49542/Desktop/GD32F30x_Demo_Suites_V2.0.0/GD32F30x_Demo_Suites_V2.0.0/GD32F30x_Firmware_Library/CMSIS/GD/GD32F30x/Source\system_gd32f30x.c ****     RCU_CFG0 &= ~(RCU_CFG0_PLLMF | RCU_CFG0_PLLMF_4 | RCU_CFG0_PLLMF_5);
 461:C:/Users/49542/Desktop/GD32F30x_Demo_Suites_V2.0.0/GD32F30x_Demo_Suites_V2.0.0/GD32F30x_Firmware_Library/CMSIS/GD/GD32F30x/Source\system_gd32f30x.c ****     RCU_CFG0 |= RCU_PLL_MUL30;
 462:C:/Users/49542/Desktop/GD32F30x_Demo_Suites_V2.0.0/GD32F30x_Demo_Suites_V2.0.0/GD32F30x_Firmware_Library/CMSIS/GD/GD32F30x/Source\system_gd32f30x.c **** 
 463:C:/Users/49542/Desktop/GD32F30x_Demo_Suites_V2.0.0/GD32F30x_Demo_Suites_V2.0.0/GD32F30x_Firmware_Library/CMSIS/GD/GD32F30x/Source\system_gd32f30x.c ****     /* enable PLL */
 464:C:/Users/49542/Desktop/GD32F30x_Demo_Suites_V2.0.0/GD32F30x_Demo_Suites_V2.0.0/GD32F30x_Firmware_Library/CMSIS/GD/GD32F30x/Source\system_gd32f30x.c ****     RCU_CTL |= RCU_CTL_PLLEN;
 465:C:/Users/49542/Desktop/GD32F30x_Demo_Suites_V2.0.0/GD32F30x_Demo_Suites_V2.0.0/GD32F30x_Firmware_Library/CMSIS/GD/GD32F30x/Source\system_gd32f30x.c **** 
 466:C:/Users/49542/Desktop/GD32F30x_Demo_Suites_V2.0.0/GD32F30x_Demo_Suites_V2.0.0/GD32F30x_Firmware_Library/CMSIS/GD/GD32F30x/Source\system_gd32f30x.c ****     /* wait until PLL is stable */
 467:C:/Users/49542/Desktop/GD32F30x_Demo_Suites_V2.0.0/GD32F30x_Demo_Suites_V2.0.0/GD32F30x_Firmware_Library/CMSIS/GD/GD32F30x/Source\system_gd32f30x.c ****     while(0U == (RCU_CTL & RCU_CTL_PLLSTB)){
 468:C:/Users/49542/Desktop/GD32F30x_Demo_Suites_V2.0.0/GD32F30x_Demo_Suites_V2.0.0/GD32F30x_Firmware_Library/CMSIS/GD/GD32F30x/Source\system_gd32f30x.c ****     }
 469:C:/Users/49542/Desktop/GD32F30x_Demo_Suites_V2.0.0/GD32F30x_Demo_Suites_V2.0.0/GD32F30x_Firmware_Library/CMSIS/GD/GD32F30x/Source\system_gd32f30x.c ****     
 470:C:/Users/49542/Desktop/GD32F30x_Demo_Suites_V2.0.0/GD32F30x_Demo_Suites_V2.0.0/GD32F30x_Firmware_Library/CMSIS/GD/GD32F30x/Source\system_gd32f30x.c ****     /* enable the high-drive to extend the clock frequency to 120 MHz */
 471:C:/Users/49542/Desktop/GD32F30x_Demo_Suites_V2.0.0/GD32F30x_Demo_Suites_V2.0.0/GD32F30x_Firmware_Library/CMSIS/GD/GD32F30x/Source\system_gd32f30x.c ****     PMU_CTL |= PMU_CTL_HDEN;
 472:C:/Users/49542/Desktop/GD32F30x_Demo_Suites_V2.0.0/GD32F30x_Demo_Suites_V2.0.0/GD32F30x_Firmware_Library/CMSIS/GD/GD32F30x/Source\system_gd32f30x.c ****     while(0U == (PMU_CS & PMU_CS_HDRF)){
 473:C:/Users/49542/Desktop/GD32F30x_Demo_Suites_V2.0.0/GD32F30x_Demo_Suites_V2.0.0/GD32F30x_Firmware_Library/CMSIS/GD/GD32F30x/Source\system_gd32f30x.c ****     }
 474:C:/Users/49542/Desktop/GD32F30x_Demo_Suites_V2.0.0/GD32F30x_Demo_Suites_V2.0.0/GD32F30x_Firmware_Library/CMSIS/GD/GD32F30x/Source\system_gd32f30x.c ****     
 475:C:/Users/49542/Desktop/GD32F30x_Demo_Suites_V2.0.0/GD32F30x_Demo_Suites_V2.0.0/GD32F30x_Firmware_Library/CMSIS/GD/GD32F30x/Source\system_gd32f30x.c ****     /* select the high-drive mode */
 476:C:/Users/49542/Desktop/GD32F30x_Demo_Suites_V2.0.0/GD32F30x_Demo_Suites_V2.0.0/GD32F30x_Firmware_Library/CMSIS/GD/GD32F30x/Source\system_gd32f30x.c ****     PMU_CTL |= PMU_CTL_HDS;
 477:C:/Users/49542/Desktop/GD32F30x_Demo_Suites_V2.0.0/GD32F30x_Demo_Suites_V2.0.0/GD32F30x_Firmware_Library/CMSIS/GD/GD32F30x/Source\system_gd32f30x.c ****     while(0U == (PMU_CS & PMU_CS_HDSRF)){
 478:C:/Users/49542/Desktop/GD32F30x_Demo_Suites_V2.0.0/GD32F30x_Demo_Suites_V2.0.0/GD32F30x_Firmware_Library/CMSIS/GD/GD32F30x/Source\system_gd32f30x.c ****     }
 479:C:/Users/49542/Desktop/GD32F30x_Demo_Suites_V2.0.0/GD32F30x_Demo_Suites_V2.0.0/GD32F30x_Firmware_Library/CMSIS/GD/GD32F30x/Source\system_gd32f30x.c ****     
 480:C:/Users/49542/Desktop/GD32F30x_Demo_Suites_V2.0.0/GD32F30x_Demo_Suites_V2.0.0/GD32F30x_Firmware_Library/CMSIS/GD/GD32F30x/Source\system_gd32f30x.c ****     /* select PLL as system clock */
 481:C:/Users/49542/Desktop/GD32F30x_Demo_Suites_V2.0.0/GD32F30x_Demo_Suites_V2.0.0/GD32F30x_Firmware_Library/CMSIS/GD/GD32F30x/Source\system_gd32f30x.c ****     RCU_CFG0 &= ~RCU_CFG0_SCS;
 482:C:/Users/49542/Desktop/GD32F30x_Demo_Suites_V2.0.0/GD32F30x_Demo_Suites_V2.0.0/GD32F30x_Firmware_Library/CMSIS/GD/GD32F30x/Source\system_gd32f30x.c ****     RCU_CFG0 |= RCU_CKSYSSRC_PLL;
 483:C:/Users/49542/Desktop/GD32F30x_Demo_Suites_V2.0.0/GD32F30x_Demo_Suites_V2.0.0/GD32F30x_Firmware_Library/CMSIS/GD/GD32F30x/Source\system_gd32f30x.c **** 
 484:C:/Users/49542/Desktop/GD32F30x_Demo_Suites_V2.0.0/GD32F30x_Demo_Suites_V2.0.0/GD32F30x_Firmware_Library/CMSIS/GD/GD32F30x/Source\system_gd32f30x.c ****     /* wait until PLL is selected as system clock */
 485:C:/Users/49542/Desktop/GD32F30x_Demo_Suites_V2.0.0/GD32F30x_Demo_Suites_V2.0.0/GD32F30x_Firmware_Library/CMSIS/GD/GD32F30x/Source\system_gd32f30x.c ****     while(0U == (RCU_CFG0 & RCU_SCSS_PLL)){
 486:C:/Users/49542/Desktop/GD32F30x_Demo_Suites_V2.0.0/GD32F30x_Demo_Suites_V2.0.0/GD32F30x_Firmware_Library/CMSIS/GD/GD32F30x/Source\system_gd32f30x.c ****     }
 487:C:/Users/49542/Desktop/GD32F30x_Demo_Suites_V2.0.0/GD32F30x_Demo_Suites_V2.0.0/GD32F30x_Firmware_Library/CMSIS/GD/GD32F30x/Source\system_gd32f30x.c **** }
 488:C:/Users/49542/Desktop/GD32F30x_Demo_Suites_V2.0.0/GD32F30x_Demo_Suites_V2.0.0/GD32F30x_Firmware_Library/CMSIS/GD/GD32F30x/Source\system_gd32f30x.c **** 
 489:C:/Users/49542/Desktop/GD32F30x_Demo_Suites_V2.0.0/GD32F30x_Demo_Suites_V2.0.0/GD32F30x_Firmware_Library/CMSIS/GD/GD32F30x/Source\system_gd32f30x.c **** #elif defined (__SYSTEM_CLOCK_HXTAL)
 490:C:/Users/49542/Desktop/GD32F30x_Demo_Suites_V2.0.0/GD32F30x_Demo_Suites_V2.0.0/GD32F30x_Firmware_Library/CMSIS/GD/GD32F30x/Source\system_gd32f30x.c **** /*!
 491:C:/Users/49542/Desktop/GD32F30x_Demo_Suites_V2.0.0/GD32F30x_Demo_Suites_V2.0.0/GD32F30x_Firmware_Library/CMSIS/GD/GD32F30x/Source\system_gd32f30x.c ****     \brief      configure the system clock to HXTAL
 492:C:/Users/49542/Desktop/GD32F30x_Demo_Suites_V2.0.0/GD32F30x_Demo_Suites_V2.0.0/GD32F30x_Firmware_Library/CMSIS/GD/GD32F30x/Source\system_gd32f30x.c ****     \param[in]  none
 493:C:/Users/49542/Desktop/GD32F30x_Demo_Suites_V2.0.0/GD32F30x_Demo_Suites_V2.0.0/GD32F30x_Firmware_Library/CMSIS/GD/GD32F30x/Source\system_gd32f30x.c ****     \param[out] none
 494:C:/Users/49542/Desktop/GD32F30x_Demo_Suites_V2.0.0/GD32F30x_Demo_Suites_V2.0.0/GD32F30x_Firmware_Library/CMSIS/GD/GD32F30x/Source\system_gd32f30x.c ****     \retval     none
 495:C:/Users/49542/Desktop/GD32F30x_Demo_Suites_V2.0.0/GD32F30x_Demo_Suites_V2.0.0/GD32F30x_Firmware_Library/CMSIS/GD/GD32F30x/Source\system_gd32f30x.c **** */
 496:C:/Users/49542/Desktop/GD32F30x_Demo_Suites_V2.0.0/GD32F30x_Demo_Suites_V2.0.0/GD32F30x_Firmware_Library/CMSIS/GD/GD32F30x/Source\system_gd32f30x.c **** static void system_clock_hxtal(void)
 497:C:/Users/49542/Desktop/GD32F30x_Demo_Suites_V2.0.0/GD32F30x_Demo_Suites_V2.0.0/GD32F30x_Firmware_Library/CMSIS/GD/GD32F30x/Source\system_gd32f30x.c **** {
ARM GAS  C:\Users\49542\AppData\Local\Temp\ccT3FCLy.s 			page 12


 498:C:/Users/49542/Desktop/GD32F30x_Demo_Suites_V2.0.0/GD32F30x_Demo_Suites_V2.0.0/GD32F30x_Firmware_Library/CMSIS/GD/GD32F30x/Source\system_gd32f30x.c ****     uint32_t timeout = 0U;
 499:C:/Users/49542/Desktop/GD32F30x_Demo_Suites_V2.0.0/GD32F30x_Demo_Suites_V2.0.0/GD32F30x_Firmware_Library/CMSIS/GD/GD32F30x/Source\system_gd32f30x.c ****     uint32_t stab_flag = 0U;
 500:C:/Users/49542/Desktop/GD32F30x_Demo_Suites_V2.0.0/GD32F30x_Demo_Suites_V2.0.0/GD32F30x_Firmware_Library/CMSIS/GD/GD32F30x/Source\system_gd32f30x.c ****     
 501:C:/Users/49542/Desktop/GD32F30x_Demo_Suites_V2.0.0/GD32F30x_Demo_Suites_V2.0.0/GD32F30x_Firmware_Library/CMSIS/GD/GD32F30x/Source\system_gd32f30x.c ****     /* enable HXTAL */
 502:C:/Users/49542/Desktop/GD32F30x_Demo_Suites_V2.0.0/GD32F30x_Demo_Suites_V2.0.0/GD32F30x_Firmware_Library/CMSIS/GD/GD32F30x/Source\system_gd32f30x.c ****     RCU_CTL |= RCU_CTL_HXTALEN;
 503:C:/Users/49542/Desktop/GD32F30x_Demo_Suites_V2.0.0/GD32F30x_Demo_Suites_V2.0.0/GD32F30x_Firmware_Library/CMSIS/GD/GD32F30x/Source\system_gd32f30x.c ****     
 504:C:/Users/49542/Desktop/GD32F30x_Demo_Suites_V2.0.0/GD32F30x_Demo_Suites_V2.0.0/GD32F30x_Firmware_Library/CMSIS/GD/GD32F30x/Source\system_gd32f30x.c ****     /* wait until HXTAL is stable or the startup time is longer than HXTAL_STARTUP_TIMEOUT */
 505:C:/Users/49542/Desktop/GD32F30x_Demo_Suites_V2.0.0/GD32F30x_Demo_Suites_V2.0.0/GD32F30x_Firmware_Library/CMSIS/GD/GD32F30x/Source\system_gd32f30x.c ****     do{
 506:C:/Users/49542/Desktop/GD32F30x_Demo_Suites_V2.0.0/GD32F30x_Demo_Suites_V2.0.0/GD32F30x_Firmware_Library/CMSIS/GD/GD32F30x/Source\system_gd32f30x.c ****         timeout++;
 507:C:/Users/49542/Desktop/GD32F30x_Demo_Suites_V2.0.0/GD32F30x_Demo_Suites_V2.0.0/GD32F30x_Firmware_Library/CMSIS/GD/GD32F30x/Source\system_gd32f30x.c ****         stab_flag = (RCU_CTL & RCU_CTL_HXTALSTB);
 508:C:/Users/49542/Desktop/GD32F30x_Demo_Suites_V2.0.0/GD32F30x_Demo_Suites_V2.0.0/GD32F30x_Firmware_Library/CMSIS/GD/GD32F30x/Source\system_gd32f30x.c ****     }while((0U == stab_flag) && (HXTAL_STARTUP_TIMEOUT != timeout));
 509:C:/Users/49542/Desktop/GD32F30x_Demo_Suites_V2.0.0/GD32F30x_Demo_Suites_V2.0.0/GD32F30x_Firmware_Library/CMSIS/GD/GD32F30x/Source\system_gd32f30x.c ****     
 510:C:/Users/49542/Desktop/GD32F30x_Demo_Suites_V2.0.0/GD32F30x_Demo_Suites_V2.0.0/GD32F30x_Firmware_Library/CMSIS/GD/GD32F30x/Source\system_gd32f30x.c ****     /* if fail */
 511:C:/Users/49542/Desktop/GD32F30x_Demo_Suites_V2.0.0/GD32F30x_Demo_Suites_V2.0.0/GD32F30x_Firmware_Library/CMSIS/GD/GD32F30x/Source\system_gd32f30x.c ****     if(0U == (RCU_CTL & RCU_CTL_HXTALSTB)){
 512:C:/Users/49542/Desktop/GD32F30x_Demo_Suites_V2.0.0/GD32F30x_Demo_Suites_V2.0.0/GD32F30x_Firmware_Library/CMSIS/GD/GD32F30x/Source\system_gd32f30x.c ****         while(1){
 513:C:/Users/49542/Desktop/GD32F30x_Demo_Suites_V2.0.0/GD32F30x_Demo_Suites_V2.0.0/GD32F30x_Firmware_Library/CMSIS/GD/GD32F30x/Source\system_gd32f30x.c ****         }
 514:C:/Users/49542/Desktop/GD32F30x_Demo_Suites_V2.0.0/GD32F30x_Demo_Suites_V2.0.0/GD32F30x_Firmware_Library/CMSIS/GD/GD32F30x/Source\system_gd32f30x.c ****     }
 515:C:/Users/49542/Desktop/GD32F30x_Demo_Suites_V2.0.0/GD32F30x_Demo_Suites_V2.0.0/GD32F30x_Firmware_Library/CMSIS/GD/GD32F30x/Source\system_gd32f30x.c ****     
 516:C:/Users/49542/Desktop/GD32F30x_Demo_Suites_V2.0.0/GD32F30x_Demo_Suites_V2.0.0/GD32F30x_Firmware_Library/CMSIS/GD/GD32F30x/Source\system_gd32f30x.c ****     /* AHB = SYSCLK */
 517:C:/Users/49542/Desktop/GD32F30x_Demo_Suites_V2.0.0/GD32F30x_Demo_Suites_V2.0.0/GD32F30x_Firmware_Library/CMSIS/GD/GD32F30x/Source\system_gd32f30x.c ****     RCU_CFG0 |= RCU_AHB_CKSYS_DIV1;
 518:C:/Users/49542/Desktop/GD32F30x_Demo_Suites_V2.0.0/GD32F30x_Demo_Suites_V2.0.0/GD32F30x_Firmware_Library/CMSIS/GD/GD32F30x/Source\system_gd32f30x.c ****     /* APB2 = AHB/1 */
 519:C:/Users/49542/Desktop/GD32F30x_Demo_Suites_V2.0.0/GD32F30x_Demo_Suites_V2.0.0/GD32F30x_Firmware_Library/CMSIS/GD/GD32F30x/Source\system_gd32f30x.c ****     RCU_CFG0 |= RCU_APB2_CKAHB_DIV1;
 520:C:/Users/49542/Desktop/GD32F30x_Demo_Suites_V2.0.0/GD32F30x_Demo_Suites_V2.0.0/GD32F30x_Firmware_Library/CMSIS/GD/GD32F30x/Source\system_gd32f30x.c ****     /* APB1 = AHB/2 */
 521:C:/Users/49542/Desktop/GD32F30x_Demo_Suites_V2.0.0/GD32F30x_Demo_Suites_V2.0.0/GD32F30x_Firmware_Library/CMSIS/GD/GD32F30x/Source\system_gd32f30x.c ****     RCU_CFG0 |= RCU_APB1_CKAHB_DIV2;
 522:C:/Users/49542/Desktop/GD32F30x_Demo_Suites_V2.0.0/GD32F30x_Demo_Suites_V2.0.0/GD32F30x_Firmware_Library/CMSIS/GD/GD32F30x/Source\system_gd32f30x.c ****     
 523:C:/Users/49542/Desktop/GD32F30x_Demo_Suites_V2.0.0/GD32F30x_Demo_Suites_V2.0.0/GD32F30x_Firmware_Library/CMSIS/GD/GD32F30x/Source\system_gd32f30x.c ****     /* select HXTAL as system clock */
 524:C:/Users/49542/Desktop/GD32F30x_Demo_Suites_V2.0.0/GD32F30x_Demo_Suites_V2.0.0/GD32F30x_Firmware_Library/CMSIS/GD/GD32F30x/Source\system_gd32f30x.c ****     RCU_CFG0 &= ~RCU_CFG0_SCS;
 525:C:/Users/49542/Desktop/GD32F30x_Demo_Suites_V2.0.0/GD32F30x_Demo_Suites_V2.0.0/GD32F30x_Firmware_Library/CMSIS/GD/GD32F30x/Source\system_gd32f30x.c ****     RCU_CFG0 |= RCU_CKSYSSRC_HXTAL;
 526:C:/Users/49542/Desktop/GD32F30x_Demo_Suites_V2.0.0/GD32F30x_Demo_Suites_V2.0.0/GD32F30x_Firmware_Library/CMSIS/GD/GD32F30x/Source\system_gd32f30x.c ****     
 527:C:/Users/49542/Desktop/GD32F30x_Demo_Suites_V2.0.0/GD32F30x_Demo_Suites_V2.0.0/GD32F30x_Firmware_Library/CMSIS/GD/GD32F30x/Source\system_gd32f30x.c ****     /* wait until HXTAL is selected as system clock */
 528:C:/Users/49542/Desktop/GD32F30x_Demo_Suites_V2.0.0/GD32F30x_Demo_Suites_V2.0.0/GD32F30x_Firmware_Library/CMSIS/GD/GD32F30x/Source\system_gd32f30x.c ****     while(0 == (RCU_CFG0 & RCU_SCSS_HXTAL)){
 529:C:/Users/49542/Desktop/GD32F30x_Demo_Suites_V2.0.0/GD32F30x_Demo_Suites_V2.0.0/GD32F30x_Firmware_Library/CMSIS/GD/GD32F30x/Source\system_gd32f30x.c ****     }
 530:C:/Users/49542/Desktop/GD32F30x_Demo_Suites_V2.0.0/GD32F30x_Demo_Suites_V2.0.0/GD32F30x_Firmware_Library/CMSIS/GD/GD32F30x/Source\system_gd32f30x.c **** }
 531:C:/Users/49542/Desktop/GD32F30x_Demo_Suites_V2.0.0/GD32F30x_Demo_Suites_V2.0.0/GD32F30x_Firmware_Library/CMSIS/GD/GD32F30x/Source\system_gd32f30x.c **** 
 532:C:/Users/49542/Desktop/GD32F30x_Demo_Suites_V2.0.0/GD32F30x_Demo_Suites_V2.0.0/GD32F30x_Firmware_Library/CMSIS/GD/GD32F30x/Source\system_gd32f30x.c **** #elif defined (__SYSTEM_CLOCK_48M_PLL_HXTAL)
 533:C:/Users/49542/Desktop/GD32F30x_Demo_Suites_V2.0.0/GD32F30x_Demo_Suites_V2.0.0/GD32F30x_Firmware_Library/CMSIS/GD/GD32F30x/Source\system_gd32f30x.c **** /*!
 534:C:/Users/49542/Desktop/GD32F30x_Demo_Suites_V2.0.0/GD32F30x_Demo_Suites_V2.0.0/GD32F30x_Firmware_Library/CMSIS/GD/GD32F30x/Source\system_gd32f30x.c ****     \brief      configure the system clock to 48M by PLL which selects HXTAL(8M) as its clock sourc
 535:C:/Users/49542/Desktop/GD32F30x_Demo_Suites_V2.0.0/GD32F30x_Demo_Suites_V2.0.0/GD32F30x_Firmware_Library/CMSIS/GD/GD32F30x/Source\system_gd32f30x.c ****     \param[in]  none
 536:C:/Users/49542/Desktop/GD32F30x_Demo_Suites_V2.0.0/GD32F30x_Demo_Suites_V2.0.0/GD32F30x_Firmware_Library/CMSIS/GD/GD32F30x/Source\system_gd32f30x.c ****     \param[out] none
 537:C:/Users/49542/Desktop/GD32F30x_Demo_Suites_V2.0.0/GD32F30x_Demo_Suites_V2.0.0/GD32F30x_Firmware_Library/CMSIS/GD/GD32F30x/Source\system_gd32f30x.c ****     \retval     none
 538:C:/Users/49542/Desktop/GD32F30x_Demo_Suites_V2.0.0/GD32F30x_Demo_Suites_V2.0.0/GD32F30x_Firmware_Library/CMSIS/GD/GD32F30x/Source\system_gd32f30x.c **** */
 539:C:/Users/49542/Desktop/GD32F30x_Demo_Suites_V2.0.0/GD32F30x_Demo_Suites_V2.0.0/GD32F30x_Firmware_Library/CMSIS/GD/GD32F30x/Source\system_gd32f30x.c **** static void system_clock_48m_hxtal(void)
 540:C:/Users/49542/Desktop/GD32F30x_Demo_Suites_V2.0.0/GD32F30x_Demo_Suites_V2.0.0/GD32F30x_Firmware_Library/CMSIS/GD/GD32F30x/Source\system_gd32f30x.c **** {
 541:C:/Users/49542/Desktop/GD32F30x_Demo_Suites_V2.0.0/GD32F30x_Demo_Suites_V2.0.0/GD32F30x_Firmware_Library/CMSIS/GD/GD32F30x/Source\system_gd32f30x.c ****     uint32_t timeout = 0U;
 542:C:/Users/49542/Desktop/GD32F30x_Demo_Suites_V2.0.0/GD32F30x_Demo_Suites_V2.0.0/GD32F30x_Firmware_Library/CMSIS/GD/GD32F30x/Source\system_gd32f30x.c ****     uint32_t stab_flag = 0U;
 543:C:/Users/49542/Desktop/GD32F30x_Demo_Suites_V2.0.0/GD32F30x_Demo_Suites_V2.0.0/GD32F30x_Firmware_Library/CMSIS/GD/GD32F30x/Source\system_gd32f30x.c **** 
 544:C:/Users/49542/Desktop/GD32F30x_Demo_Suites_V2.0.0/GD32F30x_Demo_Suites_V2.0.0/GD32F30x_Firmware_Library/CMSIS/GD/GD32F30x/Source\system_gd32f30x.c ****     /* enable HXTAL */
 545:C:/Users/49542/Desktop/GD32F30x_Demo_Suites_V2.0.0/GD32F30x_Demo_Suites_V2.0.0/GD32F30x_Firmware_Library/CMSIS/GD/GD32F30x/Source\system_gd32f30x.c ****     RCU_CTL |= RCU_CTL_HXTALEN;
 546:C:/Users/49542/Desktop/GD32F30x_Demo_Suites_V2.0.0/GD32F30x_Demo_Suites_V2.0.0/GD32F30x_Firmware_Library/CMSIS/GD/GD32F30x/Source\system_gd32f30x.c **** 
 547:C:/Users/49542/Desktop/GD32F30x_Demo_Suites_V2.0.0/GD32F30x_Demo_Suites_V2.0.0/GD32F30x_Firmware_Library/CMSIS/GD/GD32F30x/Source\system_gd32f30x.c ****     /* wait until HXTAL is stable or the startup time is longer than HXTAL_STARTUP_TIMEOUT */
 548:C:/Users/49542/Desktop/GD32F30x_Demo_Suites_V2.0.0/GD32F30x_Demo_Suites_V2.0.0/GD32F30x_Firmware_Library/CMSIS/GD/GD32F30x/Source\system_gd32f30x.c ****     do{
 549:C:/Users/49542/Desktop/GD32F30x_Demo_Suites_V2.0.0/GD32F30x_Demo_Suites_V2.0.0/GD32F30x_Firmware_Library/CMSIS/GD/GD32F30x/Source\system_gd32f30x.c ****         timeout++;
 550:C:/Users/49542/Desktop/GD32F30x_Demo_Suites_V2.0.0/GD32F30x_Demo_Suites_V2.0.0/GD32F30x_Firmware_Library/CMSIS/GD/GD32F30x/Source\system_gd32f30x.c ****         stab_flag = (RCU_CTL & RCU_CTL_HXTALSTB);
 551:C:/Users/49542/Desktop/GD32F30x_Demo_Suites_V2.0.0/GD32F30x_Demo_Suites_V2.0.0/GD32F30x_Firmware_Library/CMSIS/GD/GD32F30x/Source\system_gd32f30x.c ****     }while((0U == stab_flag) && (HXTAL_STARTUP_TIMEOUT != timeout));
 552:C:/Users/49542/Desktop/GD32F30x_Demo_Suites_V2.0.0/GD32F30x_Demo_Suites_V2.0.0/GD32F30x_Firmware_Library/CMSIS/GD/GD32F30x/Source\system_gd32f30x.c **** 
 553:C:/Users/49542/Desktop/GD32F30x_Demo_Suites_V2.0.0/GD32F30x_Demo_Suites_V2.0.0/GD32F30x_Firmware_Library/CMSIS/GD/GD32F30x/Source\system_gd32f30x.c ****     /* if fail */
 554:C:/Users/49542/Desktop/GD32F30x_Demo_Suites_V2.0.0/GD32F30x_Demo_Suites_V2.0.0/GD32F30x_Firmware_Library/CMSIS/GD/GD32F30x/Source\system_gd32f30x.c ****     if(0U == (RCU_CTL & RCU_CTL_HXTALSTB)){
ARM GAS  C:\Users\49542\AppData\Local\Temp\ccT3FCLy.s 			page 13


 555:C:/Users/49542/Desktop/GD32F30x_Demo_Suites_V2.0.0/GD32F30x_Demo_Suites_V2.0.0/GD32F30x_Firmware_Library/CMSIS/GD/GD32F30x/Source\system_gd32f30x.c ****         while(1){
 556:C:/Users/49542/Desktop/GD32F30x_Demo_Suites_V2.0.0/GD32F30x_Demo_Suites_V2.0.0/GD32F30x_Firmware_Library/CMSIS/GD/GD32F30x/Source\system_gd32f30x.c ****         }
 557:C:/Users/49542/Desktop/GD32F30x_Demo_Suites_V2.0.0/GD32F30x_Demo_Suites_V2.0.0/GD32F30x_Firmware_Library/CMSIS/GD/GD32F30x/Source\system_gd32f30x.c ****     }
 558:C:/Users/49542/Desktop/GD32F30x_Demo_Suites_V2.0.0/GD32F30x_Demo_Suites_V2.0.0/GD32F30x_Firmware_Library/CMSIS/GD/GD32F30x/Source\system_gd32f30x.c **** 
 559:C:/Users/49542/Desktop/GD32F30x_Demo_Suites_V2.0.0/GD32F30x_Demo_Suites_V2.0.0/GD32F30x_Firmware_Library/CMSIS/GD/GD32F30x/Source\system_gd32f30x.c ****     RCU_APB1EN |= RCU_APB1EN_PMUEN;
 560:C:/Users/49542/Desktop/GD32F30x_Demo_Suites_V2.0.0/GD32F30x_Demo_Suites_V2.0.0/GD32F30x_Firmware_Library/CMSIS/GD/GD32F30x/Source\system_gd32f30x.c ****     PMU_CTL |= PMU_CTL_LDOVS;
 561:C:/Users/49542/Desktop/GD32F30x_Demo_Suites_V2.0.0/GD32F30x_Demo_Suites_V2.0.0/GD32F30x_Firmware_Library/CMSIS/GD/GD32F30x/Source\system_gd32f30x.c **** 
 562:C:/Users/49542/Desktop/GD32F30x_Demo_Suites_V2.0.0/GD32F30x_Demo_Suites_V2.0.0/GD32F30x_Firmware_Library/CMSIS/GD/GD32F30x/Source\system_gd32f30x.c ****     /* HXTAL is stable */
 563:C:/Users/49542/Desktop/GD32F30x_Demo_Suites_V2.0.0/GD32F30x_Demo_Suites_V2.0.0/GD32F30x_Firmware_Library/CMSIS/GD/GD32F30x/Source\system_gd32f30x.c ****     /* AHB = SYSCLK */
 564:C:/Users/49542/Desktop/GD32F30x_Demo_Suites_V2.0.0/GD32F30x_Demo_Suites_V2.0.0/GD32F30x_Firmware_Library/CMSIS/GD/GD32F30x/Source\system_gd32f30x.c ****     RCU_CFG0 |= RCU_AHB_CKSYS_DIV1;
 565:C:/Users/49542/Desktop/GD32F30x_Demo_Suites_V2.0.0/GD32F30x_Demo_Suites_V2.0.0/GD32F30x_Firmware_Library/CMSIS/GD/GD32F30x/Source\system_gd32f30x.c ****     /* APB2 = AHB/1 */
 566:C:/Users/49542/Desktop/GD32F30x_Demo_Suites_V2.0.0/GD32F30x_Demo_Suites_V2.0.0/GD32F30x_Firmware_Library/CMSIS/GD/GD32F30x/Source\system_gd32f30x.c ****     RCU_CFG0 |= RCU_APB2_CKAHB_DIV1;
 567:C:/Users/49542/Desktop/GD32F30x_Demo_Suites_V2.0.0/GD32F30x_Demo_Suites_V2.0.0/GD32F30x_Firmware_Library/CMSIS/GD/GD32F30x/Source\system_gd32f30x.c ****     /* APB1 = AHB/2 */
 568:C:/Users/49542/Desktop/GD32F30x_Demo_Suites_V2.0.0/GD32F30x_Demo_Suites_V2.0.0/GD32F30x_Firmware_Library/CMSIS/GD/GD32F30x/Source\system_gd32f30x.c ****     RCU_CFG0 |= RCU_APB1_CKAHB_DIV2;
 569:C:/Users/49542/Desktop/GD32F30x_Demo_Suites_V2.0.0/GD32F30x_Demo_Suites_V2.0.0/GD32F30x_Firmware_Library/CMSIS/GD/GD32F30x/Source\system_gd32f30x.c **** 
 570:C:/Users/49542/Desktop/GD32F30x_Demo_Suites_V2.0.0/GD32F30x_Demo_Suites_V2.0.0/GD32F30x_Firmware_Library/CMSIS/GD/GD32F30x/Source\system_gd32f30x.c **** #if (defined(GD32F30X_HD) || defined(GD32F30X_XD))
 571:C:/Users/49542/Desktop/GD32F30x_Demo_Suites_V2.0.0/GD32F30x_Demo_Suites_V2.0.0/GD32F30x_Firmware_Library/CMSIS/GD/GD32F30x/Source\system_gd32f30x.c ****     /* select HXTAL/2 as clock source */
 572:C:/Users/49542/Desktop/GD32F30x_Demo_Suites_V2.0.0/GD32F30x_Demo_Suites_V2.0.0/GD32F30x_Firmware_Library/CMSIS/GD/GD32F30x/Source\system_gd32f30x.c ****     RCU_CFG0 &= ~(RCU_CFG0_PLLSEL | RCU_CFG0_PREDV0);
 573:C:/Users/49542/Desktop/GD32F30x_Demo_Suites_V2.0.0/GD32F30x_Demo_Suites_V2.0.0/GD32F30x_Firmware_Library/CMSIS/GD/GD32F30x/Source\system_gd32f30x.c ****     RCU_CFG0 |= (RCU_PLLSRC_HXTAL_IRC48M | RCU_CFG0_PREDV0);
 574:C:/Users/49542/Desktop/GD32F30x_Demo_Suites_V2.0.0/GD32F30x_Demo_Suites_V2.0.0/GD32F30x_Firmware_Library/CMSIS/GD/GD32F30x/Source\system_gd32f30x.c **** 
 575:C:/Users/49542/Desktop/GD32F30x_Demo_Suites_V2.0.0/GD32F30x_Demo_Suites_V2.0.0/GD32F30x_Firmware_Library/CMSIS/GD/GD32F30x/Source\system_gd32f30x.c ****     /* CK_PLL = (CK_HXTAL/2) * 12 = 48 MHz */
 576:C:/Users/49542/Desktop/GD32F30x_Demo_Suites_V2.0.0/GD32F30x_Demo_Suites_V2.0.0/GD32F30x_Firmware_Library/CMSIS/GD/GD32F30x/Source\system_gd32f30x.c ****     RCU_CFG0 &= ~(RCU_CFG0_PLLMF | RCU_CFG0_PLLMF_4 | RCU_CFG0_PLLMF_5);
 577:C:/Users/49542/Desktop/GD32F30x_Demo_Suites_V2.0.0/GD32F30x_Demo_Suites_V2.0.0/GD32F30x_Firmware_Library/CMSIS/GD/GD32F30x/Source\system_gd32f30x.c ****     RCU_CFG0 |= RCU_PLL_MUL12;
 578:C:/Users/49542/Desktop/GD32F30x_Demo_Suites_V2.0.0/GD32F30x_Demo_Suites_V2.0.0/GD32F30x_Firmware_Library/CMSIS/GD/GD32F30x/Source\system_gd32f30x.c **** 
 579:C:/Users/49542/Desktop/GD32F30x_Demo_Suites_V2.0.0/GD32F30x_Demo_Suites_V2.0.0/GD32F30x_Firmware_Library/CMSIS/GD/GD32F30x/Source\system_gd32f30x.c **** #elif defined(GD32F30X_CL)
 580:C:/Users/49542/Desktop/GD32F30x_Demo_Suites_V2.0.0/GD32F30x_Demo_Suites_V2.0.0/GD32F30x_Firmware_Library/CMSIS/GD/GD32F30x/Source\system_gd32f30x.c ****     /* CK_PLL = (CK_PREDIV0) * 12 = 48 MHz */ 
 581:C:/Users/49542/Desktop/GD32F30x_Demo_Suites_V2.0.0/GD32F30x_Demo_Suites_V2.0.0/GD32F30x_Firmware_Library/CMSIS/GD/GD32F30x/Source\system_gd32f30x.c ****     RCU_CFG0 &= ~(RCU_CFG0_PLLMF | RCU_CFG0_PLLMF_4 | RCU_CFG0_PLLMF_5);
 582:C:/Users/49542/Desktop/GD32F30x_Demo_Suites_V2.0.0/GD32F30x_Demo_Suites_V2.0.0/GD32F30x_Firmware_Library/CMSIS/GD/GD32F30x/Source\system_gd32f30x.c ****     RCU_CFG0 |= (RCU_PLLSRC_HXTAL_IRC48M | RCU_PLL_MUL12);
 583:C:/Users/49542/Desktop/GD32F30x_Demo_Suites_V2.0.0/GD32F30x_Demo_Suites_V2.0.0/GD32F30x_Firmware_Library/CMSIS/GD/GD32F30x/Source\system_gd32f30x.c **** 
 584:C:/Users/49542/Desktop/GD32F30x_Demo_Suites_V2.0.0/GD32F30x_Demo_Suites_V2.0.0/GD32F30x_Firmware_Library/CMSIS/GD/GD32F30x/Source\system_gd32f30x.c ****     /* CK_PREDIV0 = (CK_HXTAL)/5 *8 /10 = 4 MHz */ 
 585:C:/Users/49542/Desktop/GD32F30x_Demo_Suites_V2.0.0/GD32F30x_Demo_Suites_V2.0.0/GD32F30x_Firmware_Library/CMSIS/GD/GD32F30x/Source\system_gd32f30x.c ****     RCU_CFG1 &= ~(RCU_CFG1_PLLPRESEL | RCU_CFG1_PREDV0SEL | RCU_CFG1_PLL1MF | RCU_CFG1_PREDV1 | RCU
 586:C:/Users/49542/Desktop/GD32F30x_Demo_Suites_V2.0.0/GD32F30x_Demo_Suites_V2.0.0/GD32F30x_Firmware_Library/CMSIS/GD/GD32F30x/Source\system_gd32f30x.c ****     RCU_CFG1 |= (RCU_PLLPRESRC_HXTAL | RCU_PREDV0SRC_CKPLL1 | RCU_PLL1_MUL8 | RCU_PREDV1_DIV5 | RCU
 587:C:/Users/49542/Desktop/GD32F30x_Demo_Suites_V2.0.0/GD32F30x_Demo_Suites_V2.0.0/GD32F30x_Firmware_Library/CMSIS/GD/GD32F30x/Source\system_gd32f30x.c **** 
 588:C:/Users/49542/Desktop/GD32F30x_Demo_Suites_V2.0.0/GD32F30x_Demo_Suites_V2.0.0/GD32F30x_Firmware_Library/CMSIS/GD/GD32F30x/Source\system_gd32f30x.c ****     /* enable PLL1 */
 589:C:/Users/49542/Desktop/GD32F30x_Demo_Suites_V2.0.0/GD32F30x_Demo_Suites_V2.0.0/GD32F30x_Firmware_Library/CMSIS/GD/GD32F30x/Source\system_gd32f30x.c ****     RCU_CTL |= RCU_CTL_PLL1EN;
 590:C:/Users/49542/Desktop/GD32F30x_Demo_Suites_V2.0.0/GD32F30x_Demo_Suites_V2.0.0/GD32F30x_Firmware_Library/CMSIS/GD/GD32F30x/Source\system_gd32f30x.c ****     /* wait till PLL1 is ready */
 591:C:/Users/49542/Desktop/GD32F30x_Demo_Suites_V2.0.0/GD32F30x_Demo_Suites_V2.0.0/GD32F30x_Firmware_Library/CMSIS/GD/GD32F30x/Source\system_gd32f30x.c ****     while((RCU_CTL & RCU_CTL_PLL1STB) == 0){
 592:C:/Users/49542/Desktop/GD32F30x_Demo_Suites_V2.0.0/GD32F30x_Demo_Suites_V2.0.0/GD32F30x_Firmware_Library/CMSIS/GD/GD32F30x/Source\system_gd32f30x.c ****     }
 593:C:/Users/49542/Desktop/GD32F30x_Demo_Suites_V2.0.0/GD32F30x_Demo_Suites_V2.0.0/GD32F30x_Firmware_Library/CMSIS/GD/GD32F30x/Source\system_gd32f30x.c **** #endif /* GD32F30X_HD and GD32F30X_XD */
 594:C:/Users/49542/Desktop/GD32F30x_Demo_Suites_V2.0.0/GD32F30x_Demo_Suites_V2.0.0/GD32F30x_Firmware_Library/CMSIS/GD/GD32F30x/Source\system_gd32f30x.c **** 
 595:C:/Users/49542/Desktop/GD32F30x_Demo_Suites_V2.0.0/GD32F30x_Demo_Suites_V2.0.0/GD32F30x_Firmware_Library/CMSIS/GD/GD32F30x/Source\system_gd32f30x.c ****     /* enable PLL */
 596:C:/Users/49542/Desktop/GD32F30x_Demo_Suites_V2.0.0/GD32F30x_Demo_Suites_V2.0.0/GD32F30x_Firmware_Library/CMSIS/GD/GD32F30x/Source\system_gd32f30x.c ****     RCU_CTL |= RCU_CTL_PLLEN;
 597:C:/Users/49542/Desktop/GD32F30x_Demo_Suites_V2.0.0/GD32F30x_Demo_Suites_V2.0.0/GD32F30x_Firmware_Library/CMSIS/GD/GD32F30x/Source\system_gd32f30x.c **** 
 598:C:/Users/49542/Desktop/GD32F30x_Demo_Suites_V2.0.0/GD32F30x_Demo_Suites_V2.0.0/GD32F30x_Firmware_Library/CMSIS/GD/GD32F30x/Source\system_gd32f30x.c ****     /* wait until PLL is stable */
 599:C:/Users/49542/Desktop/GD32F30x_Demo_Suites_V2.0.0/GD32F30x_Demo_Suites_V2.0.0/GD32F30x_Firmware_Library/CMSIS/GD/GD32F30x/Source\system_gd32f30x.c ****     while(0U == (RCU_CTL & RCU_CTL_PLLSTB)){
 600:C:/Users/49542/Desktop/GD32F30x_Demo_Suites_V2.0.0/GD32F30x_Demo_Suites_V2.0.0/GD32F30x_Firmware_Library/CMSIS/GD/GD32F30x/Source\system_gd32f30x.c ****     }
 601:C:/Users/49542/Desktop/GD32F30x_Demo_Suites_V2.0.0/GD32F30x_Demo_Suites_V2.0.0/GD32F30x_Firmware_Library/CMSIS/GD/GD32F30x/Source\system_gd32f30x.c **** 
 602:C:/Users/49542/Desktop/GD32F30x_Demo_Suites_V2.0.0/GD32F30x_Demo_Suites_V2.0.0/GD32F30x_Firmware_Library/CMSIS/GD/GD32F30x/Source\system_gd32f30x.c ****     /* enable the high-drive to extend the clock frequency to 120 MHz */
 603:C:/Users/49542/Desktop/GD32F30x_Demo_Suites_V2.0.0/GD32F30x_Demo_Suites_V2.0.0/GD32F30x_Firmware_Library/CMSIS/GD/GD32F30x/Source\system_gd32f30x.c ****     PMU_CTL |= PMU_CTL_HDEN;
 604:C:/Users/49542/Desktop/GD32F30x_Demo_Suites_V2.0.0/GD32F30x_Demo_Suites_V2.0.0/GD32F30x_Firmware_Library/CMSIS/GD/GD32F30x/Source\system_gd32f30x.c ****     while(0U == (PMU_CS & PMU_CS_HDRF)){
 605:C:/Users/49542/Desktop/GD32F30x_Demo_Suites_V2.0.0/GD32F30x_Demo_Suites_V2.0.0/GD32F30x_Firmware_Library/CMSIS/GD/GD32F30x/Source\system_gd32f30x.c ****     }
 606:C:/Users/49542/Desktop/GD32F30x_Demo_Suites_V2.0.0/GD32F30x_Demo_Suites_V2.0.0/GD32F30x_Firmware_Library/CMSIS/GD/GD32F30x/Source\system_gd32f30x.c **** 
 607:C:/Users/49542/Desktop/GD32F30x_Demo_Suites_V2.0.0/GD32F30x_Demo_Suites_V2.0.0/GD32F30x_Firmware_Library/CMSIS/GD/GD32F30x/Source\system_gd32f30x.c ****     /* select the high-drive mode */
 608:C:/Users/49542/Desktop/GD32F30x_Demo_Suites_V2.0.0/GD32F30x_Demo_Suites_V2.0.0/GD32F30x_Firmware_Library/CMSIS/GD/GD32F30x/Source\system_gd32f30x.c ****     PMU_CTL |= PMU_CTL_HDS;
 609:C:/Users/49542/Desktop/GD32F30x_Demo_Suites_V2.0.0/GD32F30x_Demo_Suites_V2.0.0/GD32F30x_Firmware_Library/CMSIS/GD/GD32F30x/Source\system_gd32f30x.c ****     while(0U == (PMU_CS & PMU_CS_HDSRF)){
 610:C:/Users/49542/Desktop/GD32F30x_Demo_Suites_V2.0.0/GD32F30x_Demo_Suites_V2.0.0/GD32F30x_Firmware_Library/CMSIS/GD/GD32F30x/Source\system_gd32f30x.c ****     }
 611:C:/Users/49542/Desktop/GD32F30x_Demo_Suites_V2.0.0/GD32F30x_Demo_Suites_V2.0.0/GD32F30x_Firmware_Library/CMSIS/GD/GD32F30x/Source\system_gd32f30x.c **** 
ARM GAS  C:\Users\49542\AppData\Local\Temp\ccT3FCLy.s 			page 14


 612:C:/Users/49542/Desktop/GD32F30x_Demo_Suites_V2.0.0/GD32F30x_Demo_Suites_V2.0.0/GD32F30x_Firmware_Library/CMSIS/GD/GD32F30x/Source\system_gd32f30x.c ****     /* select PLL as system clock */
 613:C:/Users/49542/Desktop/GD32F30x_Demo_Suites_V2.0.0/GD32F30x_Demo_Suites_V2.0.0/GD32F30x_Firmware_Library/CMSIS/GD/GD32F30x/Source\system_gd32f30x.c ****     RCU_CFG0 &= ~RCU_CFG0_SCS;
 614:C:/Users/49542/Desktop/GD32F30x_Demo_Suites_V2.0.0/GD32F30x_Demo_Suites_V2.0.0/GD32F30x_Firmware_Library/CMSIS/GD/GD32F30x/Source\system_gd32f30x.c ****     RCU_CFG0 |= RCU_CKSYSSRC_PLL;
 615:C:/Users/49542/Desktop/GD32F30x_Demo_Suites_V2.0.0/GD32F30x_Demo_Suites_V2.0.0/GD32F30x_Firmware_Library/CMSIS/GD/GD32F30x/Source\system_gd32f30x.c **** 
 616:C:/Users/49542/Desktop/GD32F30x_Demo_Suites_V2.0.0/GD32F30x_Demo_Suites_V2.0.0/GD32F30x_Firmware_Library/CMSIS/GD/GD32F30x/Source\system_gd32f30x.c ****     /* wait until PLL is selected as system clock */
 617:C:/Users/49542/Desktop/GD32F30x_Demo_Suites_V2.0.0/GD32F30x_Demo_Suites_V2.0.0/GD32F30x_Firmware_Library/CMSIS/GD/GD32F30x/Source\system_gd32f30x.c ****     while(0U == (RCU_CFG0 & RCU_SCSS_PLL)){
 618:C:/Users/49542/Desktop/GD32F30x_Demo_Suites_V2.0.0/GD32F30x_Demo_Suites_V2.0.0/GD32F30x_Firmware_Library/CMSIS/GD/GD32F30x/Source\system_gd32f30x.c ****     }
 619:C:/Users/49542/Desktop/GD32F30x_Demo_Suites_V2.0.0/GD32F30x_Demo_Suites_V2.0.0/GD32F30x_Firmware_Library/CMSIS/GD/GD32F30x/Source\system_gd32f30x.c **** }
 620:C:/Users/49542/Desktop/GD32F30x_Demo_Suites_V2.0.0/GD32F30x_Demo_Suites_V2.0.0/GD32F30x_Firmware_Library/CMSIS/GD/GD32F30x/Source\system_gd32f30x.c **** #elif defined (__SYSTEM_CLOCK_72M_PLL_HXTAL)
 621:C:/Users/49542/Desktop/GD32F30x_Demo_Suites_V2.0.0/GD32F30x_Demo_Suites_V2.0.0/GD32F30x_Firmware_Library/CMSIS/GD/GD32F30x/Source\system_gd32f30x.c **** /*!
 622:C:/Users/49542/Desktop/GD32F30x_Demo_Suites_V2.0.0/GD32F30x_Demo_Suites_V2.0.0/GD32F30x_Firmware_Library/CMSIS/GD/GD32F30x/Source\system_gd32f30x.c ****     \brief      configure the system clock to 72M by PLL which selects HXTAL(8M) as its clock sourc
 623:C:/Users/49542/Desktop/GD32F30x_Demo_Suites_V2.0.0/GD32F30x_Demo_Suites_V2.0.0/GD32F30x_Firmware_Library/CMSIS/GD/GD32F30x/Source\system_gd32f30x.c ****     \param[in]  none
 624:C:/Users/49542/Desktop/GD32F30x_Demo_Suites_V2.0.0/GD32F30x_Demo_Suites_V2.0.0/GD32F30x_Firmware_Library/CMSIS/GD/GD32F30x/Source\system_gd32f30x.c ****     \param[out] none
 625:C:/Users/49542/Desktop/GD32F30x_Demo_Suites_V2.0.0/GD32F30x_Demo_Suites_V2.0.0/GD32F30x_Firmware_Library/CMSIS/GD/GD32F30x/Source\system_gd32f30x.c ****     \retval     none
 626:C:/Users/49542/Desktop/GD32F30x_Demo_Suites_V2.0.0/GD32F30x_Demo_Suites_V2.0.0/GD32F30x_Firmware_Library/CMSIS/GD/GD32F30x/Source\system_gd32f30x.c **** */
 627:C:/Users/49542/Desktop/GD32F30x_Demo_Suites_V2.0.0/GD32F30x_Demo_Suites_V2.0.0/GD32F30x_Firmware_Library/CMSIS/GD/GD32F30x/Source\system_gd32f30x.c **** static void system_clock_72m_hxtal(void)
 628:C:/Users/49542/Desktop/GD32F30x_Demo_Suites_V2.0.0/GD32F30x_Demo_Suites_V2.0.0/GD32F30x_Firmware_Library/CMSIS/GD/GD32F30x/Source\system_gd32f30x.c **** {
 629:C:/Users/49542/Desktop/GD32F30x_Demo_Suites_V2.0.0/GD32F30x_Demo_Suites_V2.0.0/GD32F30x_Firmware_Library/CMSIS/GD/GD32F30x/Source\system_gd32f30x.c ****     uint32_t timeout = 0U;
 630:C:/Users/49542/Desktop/GD32F30x_Demo_Suites_V2.0.0/GD32F30x_Demo_Suites_V2.0.0/GD32F30x_Firmware_Library/CMSIS/GD/GD32F30x/Source\system_gd32f30x.c ****     uint32_t stab_flag = 0U;
 631:C:/Users/49542/Desktop/GD32F30x_Demo_Suites_V2.0.0/GD32F30x_Demo_Suites_V2.0.0/GD32F30x_Firmware_Library/CMSIS/GD/GD32F30x/Source\system_gd32f30x.c **** 
 632:C:/Users/49542/Desktop/GD32F30x_Demo_Suites_V2.0.0/GD32F30x_Demo_Suites_V2.0.0/GD32F30x_Firmware_Library/CMSIS/GD/GD32F30x/Source\system_gd32f30x.c ****     /* enable HXTAL */
 633:C:/Users/49542/Desktop/GD32F30x_Demo_Suites_V2.0.0/GD32F30x_Demo_Suites_V2.0.0/GD32F30x_Firmware_Library/CMSIS/GD/GD32F30x/Source\system_gd32f30x.c ****     RCU_CTL |= RCU_CTL_HXTALEN;
 634:C:/Users/49542/Desktop/GD32F30x_Demo_Suites_V2.0.0/GD32F30x_Demo_Suites_V2.0.0/GD32F30x_Firmware_Library/CMSIS/GD/GD32F30x/Source\system_gd32f30x.c **** 
 635:C:/Users/49542/Desktop/GD32F30x_Demo_Suites_V2.0.0/GD32F30x_Demo_Suites_V2.0.0/GD32F30x_Firmware_Library/CMSIS/GD/GD32F30x/Source\system_gd32f30x.c ****     /* wait until HXTAL is stable or the startup time is longer than HXTAL_STARTUP_TIMEOUT */
 636:C:/Users/49542/Desktop/GD32F30x_Demo_Suites_V2.0.0/GD32F30x_Demo_Suites_V2.0.0/GD32F30x_Firmware_Library/CMSIS/GD/GD32F30x/Source\system_gd32f30x.c ****     do{
 637:C:/Users/49542/Desktop/GD32F30x_Demo_Suites_V2.0.0/GD32F30x_Demo_Suites_V2.0.0/GD32F30x_Firmware_Library/CMSIS/GD/GD32F30x/Source\system_gd32f30x.c ****         timeout++;
 638:C:/Users/49542/Desktop/GD32F30x_Demo_Suites_V2.0.0/GD32F30x_Demo_Suites_V2.0.0/GD32F30x_Firmware_Library/CMSIS/GD/GD32F30x/Source\system_gd32f30x.c ****         stab_flag = (RCU_CTL & RCU_CTL_HXTALSTB);
 639:C:/Users/49542/Desktop/GD32F30x_Demo_Suites_V2.0.0/GD32F30x_Demo_Suites_V2.0.0/GD32F30x_Firmware_Library/CMSIS/GD/GD32F30x/Source\system_gd32f30x.c ****     }while((0U == stab_flag) && (HXTAL_STARTUP_TIMEOUT != timeout));
 640:C:/Users/49542/Desktop/GD32F30x_Demo_Suites_V2.0.0/GD32F30x_Demo_Suites_V2.0.0/GD32F30x_Firmware_Library/CMSIS/GD/GD32F30x/Source\system_gd32f30x.c **** 
 641:C:/Users/49542/Desktop/GD32F30x_Demo_Suites_V2.0.0/GD32F30x_Demo_Suites_V2.0.0/GD32F30x_Firmware_Library/CMSIS/GD/GD32F30x/Source\system_gd32f30x.c ****     /* if fail */
 642:C:/Users/49542/Desktop/GD32F30x_Demo_Suites_V2.0.0/GD32F30x_Demo_Suites_V2.0.0/GD32F30x_Firmware_Library/CMSIS/GD/GD32F30x/Source\system_gd32f30x.c ****     if(0U == (RCU_CTL & RCU_CTL_HXTALSTB)){
 643:C:/Users/49542/Desktop/GD32F30x_Demo_Suites_V2.0.0/GD32F30x_Demo_Suites_V2.0.0/GD32F30x_Firmware_Library/CMSIS/GD/GD32F30x/Source\system_gd32f30x.c ****         while(1){
 644:C:/Users/49542/Desktop/GD32F30x_Demo_Suites_V2.0.0/GD32F30x_Demo_Suites_V2.0.0/GD32F30x_Firmware_Library/CMSIS/GD/GD32F30x/Source\system_gd32f30x.c ****         }
 645:C:/Users/49542/Desktop/GD32F30x_Demo_Suites_V2.0.0/GD32F30x_Demo_Suites_V2.0.0/GD32F30x_Firmware_Library/CMSIS/GD/GD32F30x/Source\system_gd32f30x.c ****     }
 646:C:/Users/49542/Desktop/GD32F30x_Demo_Suites_V2.0.0/GD32F30x_Demo_Suites_V2.0.0/GD32F30x_Firmware_Library/CMSIS/GD/GD32F30x/Source\system_gd32f30x.c **** 
 647:C:/Users/49542/Desktop/GD32F30x_Demo_Suites_V2.0.0/GD32F30x_Demo_Suites_V2.0.0/GD32F30x_Firmware_Library/CMSIS/GD/GD32F30x/Source\system_gd32f30x.c ****     RCU_APB1EN |= RCU_APB1EN_PMUEN;
 648:C:/Users/49542/Desktop/GD32F30x_Demo_Suites_V2.0.0/GD32F30x_Demo_Suites_V2.0.0/GD32F30x_Firmware_Library/CMSIS/GD/GD32F30x/Source\system_gd32f30x.c ****     PMU_CTL |= PMU_CTL_LDOVS;
 649:C:/Users/49542/Desktop/GD32F30x_Demo_Suites_V2.0.0/GD32F30x_Demo_Suites_V2.0.0/GD32F30x_Firmware_Library/CMSIS/GD/GD32F30x/Source\system_gd32f30x.c **** 
 650:C:/Users/49542/Desktop/GD32F30x_Demo_Suites_V2.0.0/GD32F30x_Demo_Suites_V2.0.0/GD32F30x_Firmware_Library/CMSIS/GD/GD32F30x/Source\system_gd32f30x.c ****     /* HXTAL is stable */
 651:C:/Users/49542/Desktop/GD32F30x_Demo_Suites_V2.0.0/GD32F30x_Demo_Suites_V2.0.0/GD32F30x_Firmware_Library/CMSIS/GD/GD32F30x/Source\system_gd32f30x.c ****     /* AHB = SYSCLK */
 652:C:/Users/49542/Desktop/GD32F30x_Demo_Suites_V2.0.0/GD32F30x_Demo_Suites_V2.0.0/GD32F30x_Firmware_Library/CMSIS/GD/GD32F30x/Source\system_gd32f30x.c ****     RCU_CFG0 |= RCU_AHB_CKSYS_DIV1;
 653:C:/Users/49542/Desktop/GD32F30x_Demo_Suites_V2.0.0/GD32F30x_Demo_Suites_V2.0.0/GD32F30x_Firmware_Library/CMSIS/GD/GD32F30x/Source\system_gd32f30x.c ****     /* APB2 = AHB/1 */
 654:C:/Users/49542/Desktop/GD32F30x_Demo_Suites_V2.0.0/GD32F30x_Demo_Suites_V2.0.0/GD32F30x_Firmware_Library/CMSIS/GD/GD32F30x/Source\system_gd32f30x.c ****     RCU_CFG0 |= RCU_APB2_CKAHB_DIV1;
 655:C:/Users/49542/Desktop/GD32F30x_Demo_Suites_V2.0.0/GD32F30x_Demo_Suites_V2.0.0/GD32F30x_Firmware_Library/CMSIS/GD/GD32F30x/Source\system_gd32f30x.c ****     /* APB1 = AHB/2 */
 656:C:/Users/49542/Desktop/GD32F30x_Demo_Suites_V2.0.0/GD32F30x_Demo_Suites_V2.0.0/GD32F30x_Firmware_Library/CMSIS/GD/GD32F30x/Source\system_gd32f30x.c ****     RCU_CFG0 |= RCU_APB1_CKAHB_DIV2;
 657:C:/Users/49542/Desktop/GD32F30x_Demo_Suites_V2.0.0/GD32F30x_Demo_Suites_V2.0.0/GD32F30x_Firmware_Library/CMSIS/GD/GD32F30x/Source\system_gd32f30x.c **** 
 658:C:/Users/49542/Desktop/GD32F30x_Demo_Suites_V2.0.0/GD32F30x_Demo_Suites_V2.0.0/GD32F30x_Firmware_Library/CMSIS/GD/GD32F30x/Source\system_gd32f30x.c **** #if (defined(GD32F30X_HD) || defined(GD32F30X_XD))
 659:C:/Users/49542/Desktop/GD32F30x_Demo_Suites_V2.0.0/GD32F30x_Demo_Suites_V2.0.0/GD32F30x_Firmware_Library/CMSIS/GD/GD32F30x/Source\system_gd32f30x.c ****     /* select HXTAL/2 as clock source */
 660:C:/Users/49542/Desktop/GD32F30x_Demo_Suites_V2.0.0/GD32F30x_Demo_Suites_V2.0.0/GD32F30x_Firmware_Library/CMSIS/GD/GD32F30x/Source\system_gd32f30x.c ****     RCU_CFG0 &= ~(RCU_CFG0_PLLSEL | RCU_CFG0_PREDV0);
 661:C:/Users/49542/Desktop/GD32F30x_Demo_Suites_V2.0.0/GD32F30x_Demo_Suites_V2.0.0/GD32F30x_Firmware_Library/CMSIS/GD/GD32F30x/Source\system_gd32f30x.c ****     RCU_CFG0 |= (RCU_PLLSRC_HXTAL_IRC48M | RCU_CFG0_PREDV0);
 662:C:/Users/49542/Desktop/GD32F30x_Demo_Suites_V2.0.0/GD32F30x_Demo_Suites_V2.0.0/GD32F30x_Firmware_Library/CMSIS/GD/GD32F30x/Source\system_gd32f30x.c **** 
 663:C:/Users/49542/Desktop/GD32F30x_Demo_Suites_V2.0.0/GD32F30x_Demo_Suites_V2.0.0/GD32F30x_Firmware_Library/CMSIS/GD/GD32F30x/Source\system_gd32f30x.c ****     /* CK_PLL = (CK_HXTAL/2) * 18 = 72 MHz */
 664:C:/Users/49542/Desktop/GD32F30x_Demo_Suites_V2.0.0/GD32F30x_Demo_Suites_V2.0.0/GD32F30x_Firmware_Library/CMSIS/GD/GD32F30x/Source\system_gd32f30x.c ****     RCU_CFG0 &= ~(RCU_CFG0_PLLMF | RCU_CFG0_PLLMF_4 | RCU_CFG0_PLLMF_5);
 665:C:/Users/49542/Desktop/GD32F30x_Demo_Suites_V2.0.0/GD32F30x_Demo_Suites_V2.0.0/GD32F30x_Firmware_Library/CMSIS/GD/GD32F30x/Source\system_gd32f30x.c ****     RCU_CFG0 |= RCU_PLL_MUL18;
 666:C:/Users/49542/Desktop/GD32F30x_Demo_Suites_V2.0.0/GD32F30x_Demo_Suites_V2.0.0/GD32F30x_Firmware_Library/CMSIS/GD/GD32F30x/Source\system_gd32f30x.c **** 
 667:C:/Users/49542/Desktop/GD32F30x_Demo_Suites_V2.0.0/GD32F30x_Demo_Suites_V2.0.0/GD32F30x_Firmware_Library/CMSIS/GD/GD32F30x/Source\system_gd32f30x.c **** #elif defined(GD32F30X_CL)
 668:C:/Users/49542/Desktop/GD32F30x_Demo_Suites_V2.0.0/GD32F30x_Demo_Suites_V2.0.0/GD32F30x_Firmware_Library/CMSIS/GD/GD32F30x/Source\system_gd32f30x.c ****     /* CK_PLL = (CK_PREDIV0) * 18 = 72 MHz */ 
ARM GAS  C:\Users\49542\AppData\Local\Temp\ccT3FCLy.s 			page 15


 669:C:/Users/49542/Desktop/GD32F30x_Demo_Suites_V2.0.0/GD32F30x_Demo_Suites_V2.0.0/GD32F30x_Firmware_Library/CMSIS/GD/GD32F30x/Source\system_gd32f30x.c ****     RCU_CFG0 &= ~(RCU_CFG0_PLLMF | RCU_CFG0_PLLMF_4 | RCU_CFG0_PLLMF_5);
 670:C:/Users/49542/Desktop/GD32F30x_Demo_Suites_V2.0.0/GD32F30x_Demo_Suites_V2.0.0/GD32F30x_Firmware_Library/CMSIS/GD/GD32F30x/Source\system_gd32f30x.c ****     RCU_CFG0 |= (RCU_PLLSRC_HXTAL_IRC48M | RCU_PLL_MUL18);
 671:C:/Users/49542/Desktop/GD32F30x_Demo_Suites_V2.0.0/GD32F30x_Demo_Suites_V2.0.0/GD32F30x_Firmware_Library/CMSIS/GD/GD32F30x/Source\system_gd32f30x.c **** 
 672:C:/Users/49542/Desktop/GD32F30x_Demo_Suites_V2.0.0/GD32F30x_Demo_Suites_V2.0.0/GD32F30x_Firmware_Library/CMSIS/GD/GD32F30x/Source\system_gd32f30x.c ****     /* CK_PREDIV0 = (CK_HXTAL)/5 *8 /10 = 4 MHz */ 
 673:C:/Users/49542/Desktop/GD32F30x_Demo_Suites_V2.0.0/GD32F30x_Demo_Suites_V2.0.0/GD32F30x_Firmware_Library/CMSIS/GD/GD32F30x/Source\system_gd32f30x.c ****     RCU_CFG1 &= ~(RCU_CFG1_PLLPRESEL | RCU_CFG1_PREDV0SEL | RCU_CFG1_PLL1MF | RCU_CFG1_PREDV1 | RCU
 674:C:/Users/49542/Desktop/GD32F30x_Demo_Suites_V2.0.0/GD32F30x_Demo_Suites_V2.0.0/GD32F30x_Firmware_Library/CMSIS/GD/GD32F30x/Source\system_gd32f30x.c ****     RCU_CFG1 |= (RCU_PLLPRESRC_HXTAL | RCU_PREDV0SRC_CKPLL1 | RCU_PLL1_MUL8 | RCU_PREDV1_DIV5 | RCU
 675:C:/Users/49542/Desktop/GD32F30x_Demo_Suites_V2.0.0/GD32F30x_Demo_Suites_V2.0.0/GD32F30x_Firmware_Library/CMSIS/GD/GD32F30x/Source\system_gd32f30x.c **** 
 676:C:/Users/49542/Desktop/GD32F30x_Demo_Suites_V2.0.0/GD32F30x_Demo_Suites_V2.0.0/GD32F30x_Firmware_Library/CMSIS/GD/GD32F30x/Source\system_gd32f30x.c ****     /* enable PLL1 */
 677:C:/Users/49542/Desktop/GD32F30x_Demo_Suites_V2.0.0/GD32F30x_Demo_Suites_V2.0.0/GD32F30x_Firmware_Library/CMSIS/GD/GD32F30x/Source\system_gd32f30x.c ****     RCU_CTL |= RCU_CTL_PLL1EN;
 678:C:/Users/49542/Desktop/GD32F30x_Demo_Suites_V2.0.0/GD32F30x_Demo_Suites_V2.0.0/GD32F30x_Firmware_Library/CMSIS/GD/GD32F30x/Source\system_gd32f30x.c ****     /* wait till PLL1 is ready */
 679:C:/Users/49542/Desktop/GD32F30x_Demo_Suites_V2.0.0/GD32F30x_Demo_Suites_V2.0.0/GD32F30x_Firmware_Library/CMSIS/GD/GD32F30x/Source\system_gd32f30x.c ****     while((RCU_CTL & RCU_CTL_PLL1STB) == 0){
 680:C:/Users/49542/Desktop/GD32F30x_Demo_Suites_V2.0.0/GD32F30x_Demo_Suites_V2.0.0/GD32F30x_Firmware_Library/CMSIS/GD/GD32F30x/Source\system_gd32f30x.c ****     }
 681:C:/Users/49542/Desktop/GD32F30x_Demo_Suites_V2.0.0/GD32F30x_Demo_Suites_V2.0.0/GD32F30x_Firmware_Library/CMSIS/GD/GD32F30x/Source\system_gd32f30x.c **** #endif /* GD32F30X_HD and GD32F30X_XD */
 682:C:/Users/49542/Desktop/GD32F30x_Demo_Suites_V2.0.0/GD32F30x_Demo_Suites_V2.0.0/GD32F30x_Firmware_Library/CMSIS/GD/GD32F30x/Source\system_gd32f30x.c **** 
 683:C:/Users/49542/Desktop/GD32F30x_Demo_Suites_V2.0.0/GD32F30x_Demo_Suites_V2.0.0/GD32F30x_Firmware_Library/CMSIS/GD/GD32F30x/Source\system_gd32f30x.c ****     /* enable PLL */
 684:C:/Users/49542/Desktop/GD32F30x_Demo_Suites_V2.0.0/GD32F30x_Demo_Suites_V2.0.0/GD32F30x_Firmware_Library/CMSIS/GD/GD32F30x/Source\system_gd32f30x.c ****     RCU_CTL |= RCU_CTL_PLLEN;
 685:C:/Users/49542/Desktop/GD32F30x_Demo_Suites_V2.0.0/GD32F30x_Demo_Suites_V2.0.0/GD32F30x_Firmware_Library/CMSIS/GD/GD32F30x/Source\system_gd32f30x.c **** 
 686:C:/Users/49542/Desktop/GD32F30x_Demo_Suites_V2.0.0/GD32F30x_Demo_Suites_V2.0.0/GD32F30x_Firmware_Library/CMSIS/GD/GD32F30x/Source\system_gd32f30x.c ****     /* wait until PLL is stable */
 687:C:/Users/49542/Desktop/GD32F30x_Demo_Suites_V2.0.0/GD32F30x_Demo_Suites_V2.0.0/GD32F30x_Firmware_Library/CMSIS/GD/GD32F30x/Source\system_gd32f30x.c ****     while(0U == (RCU_CTL & RCU_CTL_PLLSTB)){
 688:C:/Users/49542/Desktop/GD32F30x_Demo_Suites_V2.0.0/GD32F30x_Demo_Suites_V2.0.0/GD32F30x_Firmware_Library/CMSIS/GD/GD32F30x/Source\system_gd32f30x.c ****     }
 689:C:/Users/49542/Desktop/GD32F30x_Demo_Suites_V2.0.0/GD32F30x_Demo_Suites_V2.0.0/GD32F30x_Firmware_Library/CMSIS/GD/GD32F30x/Source\system_gd32f30x.c **** 
 690:C:/Users/49542/Desktop/GD32F30x_Demo_Suites_V2.0.0/GD32F30x_Demo_Suites_V2.0.0/GD32F30x_Firmware_Library/CMSIS/GD/GD32F30x/Source\system_gd32f30x.c ****     /* enable the high-drive to extend the clock frequency to 120 MHz */
 691:C:/Users/49542/Desktop/GD32F30x_Demo_Suites_V2.0.0/GD32F30x_Demo_Suites_V2.0.0/GD32F30x_Firmware_Library/CMSIS/GD/GD32F30x/Source\system_gd32f30x.c ****     PMU_CTL |= PMU_CTL_HDEN;
 692:C:/Users/49542/Desktop/GD32F30x_Demo_Suites_V2.0.0/GD32F30x_Demo_Suites_V2.0.0/GD32F30x_Firmware_Library/CMSIS/GD/GD32F30x/Source\system_gd32f30x.c ****     while(0U == (PMU_CS & PMU_CS_HDRF)){
 693:C:/Users/49542/Desktop/GD32F30x_Demo_Suites_V2.0.0/GD32F30x_Demo_Suites_V2.0.0/GD32F30x_Firmware_Library/CMSIS/GD/GD32F30x/Source\system_gd32f30x.c ****     }
 694:C:/Users/49542/Desktop/GD32F30x_Demo_Suites_V2.0.0/GD32F30x_Demo_Suites_V2.0.0/GD32F30x_Firmware_Library/CMSIS/GD/GD32F30x/Source\system_gd32f30x.c **** 
 695:C:/Users/49542/Desktop/GD32F30x_Demo_Suites_V2.0.0/GD32F30x_Demo_Suites_V2.0.0/GD32F30x_Firmware_Library/CMSIS/GD/GD32F30x/Source\system_gd32f30x.c ****     /* select the high-drive mode */
 696:C:/Users/49542/Desktop/GD32F30x_Demo_Suites_V2.0.0/GD32F30x_Demo_Suites_V2.0.0/GD32F30x_Firmware_Library/CMSIS/GD/GD32F30x/Source\system_gd32f30x.c ****     PMU_CTL |= PMU_CTL_HDS;
 697:C:/Users/49542/Desktop/GD32F30x_Demo_Suites_V2.0.0/GD32F30x_Demo_Suites_V2.0.0/GD32F30x_Firmware_Library/CMSIS/GD/GD32F30x/Source\system_gd32f30x.c ****     while(0U == (PMU_CS & PMU_CS_HDSRF)){
 698:C:/Users/49542/Desktop/GD32F30x_Demo_Suites_V2.0.0/GD32F30x_Demo_Suites_V2.0.0/GD32F30x_Firmware_Library/CMSIS/GD/GD32F30x/Source\system_gd32f30x.c ****     }
 699:C:/Users/49542/Desktop/GD32F30x_Demo_Suites_V2.0.0/GD32F30x_Demo_Suites_V2.0.0/GD32F30x_Firmware_Library/CMSIS/GD/GD32F30x/Source\system_gd32f30x.c **** 
 700:C:/Users/49542/Desktop/GD32F30x_Demo_Suites_V2.0.0/GD32F30x_Demo_Suites_V2.0.0/GD32F30x_Firmware_Library/CMSIS/GD/GD32F30x/Source\system_gd32f30x.c ****     /* select PLL as system clock */
 701:C:/Users/49542/Desktop/GD32F30x_Demo_Suites_V2.0.0/GD32F30x_Demo_Suites_V2.0.0/GD32F30x_Firmware_Library/CMSIS/GD/GD32F30x/Source\system_gd32f30x.c ****     RCU_CFG0 &= ~RCU_CFG0_SCS;
 702:C:/Users/49542/Desktop/GD32F30x_Demo_Suites_V2.0.0/GD32F30x_Demo_Suites_V2.0.0/GD32F30x_Firmware_Library/CMSIS/GD/GD32F30x/Source\system_gd32f30x.c ****     RCU_CFG0 |= RCU_CKSYSSRC_PLL;
 703:C:/Users/49542/Desktop/GD32F30x_Demo_Suites_V2.0.0/GD32F30x_Demo_Suites_V2.0.0/GD32F30x_Firmware_Library/CMSIS/GD/GD32F30x/Source\system_gd32f30x.c **** 
 704:C:/Users/49542/Desktop/GD32F30x_Demo_Suites_V2.0.0/GD32F30x_Demo_Suites_V2.0.0/GD32F30x_Firmware_Library/CMSIS/GD/GD32F30x/Source\system_gd32f30x.c ****     /* wait until PLL is selected as system clock */
 705:C:/Users/49542/Desktop/GD32F30x_Demo_Suites_V2.0.0/GD32F30x_Demo_Suites_V2.0.0/GD32F30x_Firmware_Library/CMSIS/GD/GD32F30x/Source\system_gd32f30x.c ****     while(0U == (RCU_CFG0 & RCU_SCSS_PLL)){
 706:C:/Users/49542/Desktop/GD32F30x_Demo_Suites_V2.0.0/GD32F30x_Demo_Suites_V2.0.0/GD32F30x_Firmware_Library/CMSIS/GD/GD32F30x/Source\system_gd32f30x.c ****     }
 707:C:/Users/49542/Desktop/GD32F30x_Demo_Suites_V2.0.0/GD32F30x_Demo_Suites_V2.0.0/GD32F30x_Firmware_Library/CMSIS/GD/GD32F30x/Source\system_gd32f30x.c **** }
 708:C:/Users/49542/Desktop/GD32F30x_Demo_Suites_V2.0.0/GD32F30x_Demo_Suites_V2.0.0/GD32F30x_Firmware_Library/CMSIS/GD/GD32F30x/Source\system_gd32f30x.c **** 
 709:C:/Users/49542/Desktop/GD32F30x_Demo_Suites_V2.0.0/GD32F30x_Demo_Suites_V2.0.0/GD32F30x_Firmware_Library/CMSIS/GD/GD32F30x/Source\system_gd32f30x.c **** #elif defined (__SYSTEM_CLOCK_108M_PLL_HXTAL)
 710:C:/Users/49542/Desktop/GD32F30x_Demo_Suites_V2.0.0/GD32F30x_Demo_Suites_V2.0.0/GD32F30x_Firmware_Library/CMSIS/GD/GD32F30x/Source\system_gd32f30x.c **** /*!
 711:C:/Users/49542/Desktop/GD32F30x_Demo_Suites_V2.0.0/GD32F30x_Demo_Suites_V2.0.0/GD32F30x_Firmware_Library/CMSIS/GD/GD32F30x/Source\system_gd32f30x.c ****     \brief      configure the system clock to 108M by PLL which selects HXTAL(8M) as its clock sour
 712:C:/Users/49542/Desktop/GD32F30x_Demo_Suites_V2.0.0/GD32F30x_Demo_Suites_V2.0.0/GD32F30x_Firmware_Library/CMSIS/GD/GD32F30x/Source\system_gd32f30x.c ****     \param[in]  none
 713:C:/Users/49542/Desktop/GD32F30x_Demo_Suites_V2.0.0/GD32F30x_Demo_Suites_V2.0.0/GD32F30x_Firmware_Library/CMSIS/GD/GD32F30x/Source\system_gd32f30x.c ****     \param[out] none
 714:C:/Users/49542/Desktop/GD32F30x_Demo_Suites_V2.0.0/GD32F30x_Demo_Suites_V2.0.0/GD32F30x_Firmware_Library/CMSIS/GD/GD32F30x/Source\system_gd32f30x.c ****     \retval     none
 715:C:/Users/49542/Desktop/GD32F30x_Demo_Suites_V2.0.0/GD32F30x_Demo_Suites_V2.0.0/GD32F30x_Firmware_Library/CMSIS/GD/GD32F30x/Source\system_gd32f30x.c **** */
 716:C:/Users/49542/Desktop/GD32F30x_Demo_Suites_V2.0.0/GD32F30x_Demo_Suites_V2.0.0/GD32F30x_Firmware_Library/CMSIS/GD/GD32F30x/Source\system_gd32f30x.c **** static void system_clock_108m_hxtal(void)
 717:C:/Users/49542/Desktop/GD32F30x_Demo_Suites_V2.0.0/GD32F30x_Demo_Suites_V2.0.0/GD32F30x_Firmware_Library/CMSIS/GD/GD32F30x/Source\system_gd32f30x.c **** {
 718:C:/Users/49542/Desktop/GD32F30x_Demo_Suites_V2.0.0/GD32F30x_Demo_Suites_V2.0.0/GD32F30x_Firmware_Library/CMSIS/GD/GD32F30x/Source\system_gd32f30x.c ****     uint32_t timeout = 0U;
 719:C:/Users/49542/Desktop/GD32F30x_Demo_Suites_V2.0.0/GD32F30x_Demo_Suites_V2.0.0/GD32F30x_Firmware_Library/CMSIS/GD/GD32F30x/Source\system_gd32f30x.c ****     uint32_t stab_flag = 0U;
 720:C:/Users/49542/Desktop/GD32F30x_Demo_Suites_V2.0.0/GD32F30x_Demo_Suites_V2.0.0/GD32F30x_Firmware_Library/CMSIS/GD/GD32F30x/Source\system_gd32f30x.c **** 
 721:C:/Users/49542/Desktop/GD32F30x_Demo_Suites_V2.0.0/GD32F30x_Demo_Suites_V2.0.0/GD32F30x_Firmware_Library/CMSIS/GD/GD32F30x/Source\system_gd32f30x.c ****     /* enable HXTAL */
 722:C:/Users/49542/Desktop/GD32F30x_Demo_Suites_V2.0.0/GD32F30x_Demo_Suites_V2.0.0/GD32F30x_Firmware_Library/CMSIS/GD/GD32F30x/Source\system_gd32f30x.c ****     RCU_CTL |= RCU_CTL_HXTALEN;
 723:C:/Users/49542/Desktop/GD32F30x_Demo_Suites_V2.0.0/GD32F30x_Demo_Suites_V2.0.0/GD32F30x_Firmware_Library/CMSIS/GD/GD32F30x/Source\system_gd32f30x.c **** 
 724:C:/Users/49542/Desktop/GD32F30x_Demo_Suites_V2.0.0/GD32F30x_Demo_Suites_V2.0.0/GD32F30x_Firmware_Library/CMSIS/GD/GD32F30x/Source\system_gd32f30x.c ****     /* wait until HXTAL is stable or the startup time is longer than HXTAL_STARTUP_TIMEOUT */
 725:C:/Users/49542/Desktop/GD32F30x_Demo_Suites_V2.0.0/GD32F30x_Demo_Suites_V2.0.0/GD32F30x_Firmware_Library/CMSIS/GD/GD32F30x/Source\system_gd32f30x.c ****     do{
ARM GAS  C:\Users\49542\AppData\Local\Temp\ccT3FCLy.s 			page 16


 726:C:/Users/49542/Desktop/GD32F30x_Demo_Suites_V2.0.0/GD32F30x_Demo_Suites_V2.0.0/GD32F30x_Firmware_Library/CMSIS/GD/GD32F30x/Source\system_gd32f30x.c ****         timeout++;
 727:C:/Users/49542/Desktop/GD32F30x_Demo_Suites_V2.0.0/GD32F30x_Demo_Suites_V2.0.0/GD32F30x_Firmware_Library/CMSIS/GD/GD32F30x/Source\system_gd32f30x.c ****         stab_flag = (RCU_CTL & RCU_CTL_HXTALSTB);
 728:C:/Users/49542/Desktop/GD32F30x_Demo_Suites_V2.0.0/GD32F30x_Demo_Suites_V2.0.0/GD32F30x_Firmware_Library/CMSIS/GD/GD32F30x/Source\system_gd32f30x.c ****     }while((0U == stab_flag) && (HXTAL_STARTUP_TIMEOUT != timeout));
 729:C:/Users/49542/Desktop/GD32F30x_Demo_Suites_V2.0.0/GD32F30x_Demo_Suites_V2.0.0/GD32F30x_Firmware_Library/CMSIS/GD/GD32F30x/Source\system_gd32f30x.c **** 
 730:C:/Users/49542/Desktop/GD32F30x_Demo_Suites_V2.0.0/GD32F30x_Demo_Suites_V2.0.0/GD32F30x_Firmware_Library/CMSIS/GD/GD32F30x/Source\system_gd32f30x.c ****     /* if fail */
 731:C:/Users/49542/Desktop/GD32F30x_Demo_Suites_V2.0.0/GD32F30x_Demo_Suites_V2.0.0/GD32F30x_Firmware_Library/CMSIS/GD/GD32F30x/Source\system_gd32f30x.c ****     if(0U == (RCU_CTL & RCU_CTL_HXTALSTB)){
 732:C:/Users/49542/Desktop/GD32F30x_Demo_Suites_V2.0.0/GD32F30x_Demo_Suites_V2.0.0/GD32F30x_Firmware_Library/CMSIS/GD/GD32F30x/Source\system_gd32f30x.c ****         while(1){
 733:C:/Users/49542/Desktop/GD32F30x_Demo_Suites_V2.0.0/GD32F30x_Demo_Suites_V2.0.0/GD32F30x_Firmware_Library/CMSIS/GD/GD32F30x/Source\system_gd32f30x.c ****         }
 734:C:/Users/49542/Desktop/GD32F30x_Demo_Suites_V2.0.0/GD32F30x_Demo_Suites_V2.0.0/GD32F30x_Firmware_Library/CMSIS/GD/GD32F30x/Source\system_gd32f30x.c ****     }
 735:C:/Users/49542/Desktop/GD32F30x_Demo_Suites_V2.0.0/GD32F30x_Demo_Suites_V2.0.0/GD32F30x_Firmware_Library/CMSIS/GD/GD32F30x/Source\system_gd32f30x.c **** 
 736:C:/Users/49542/Desktop/GD32F30x_Demo_Suites_V2.0.0/GD32F30x_Demo_Suites_V2.0.0/GD32F30x_Firmware_Library/CMSIS/GD/GD32F30x/Source\system_gd32f30x.c ****     RCU_APB1EN |= RCU_APB1EN_PMUEN;
 737:C:/Users/49542/Desktop/GD32F30x_Demo_Suites_V2.0.0/GD32F30x_Demo_Suites_V2.0.0/GD32F30x_Firmware_Library/CMSIS/GD/GD32F30x/Source\system_gd32f30x.c ****     PMU_CTL |= PMU_CTL_LDOVS;
 738:C:/Users/49542/Desktop/GD32F30x_Demo_Suites_V2.0.0/GD32F30x_Demo_Suites_V2.0.0/GD32F30x_Firmware_Library/CMSIS/GD/GD32F30x/Source\system_gd32f30x.c **** 
 739:C:/Users/49542/Desktop/GD32F30x_Demo_Suites_V2.0.0/GD32F30x_Demo_Suites_V2.0.0/GD32F30x_Firmware_Library/CMSIS/GD/GD32F30x/Source\system_gd32f30x.c ****     /* HXTAL is stable */
 740:C:/Users/49542/Desktop/GD32F30x_Demo_Suites_V2.0.0/GD32F30x_Demo_Suites_V2.0.0/GD32F30x_Firmware_Library/CMSIS/GD/GD32F30x/Source\system_gd32f30x.c ****     /* AHB = SYSCLK */
 741:C:/Users/49542/Desktop/GD32F30x_Demo_Suites_V2.0.0/GD32F30x_Demo_Suites_V2.0.0/GD32F30x_Firmware_Library/CMSIS/GD/GD32F30x/Source\system_gd32f30x.c ****     RCU_CFG0 |= RCU_AHB_CKSYS_DIV1;
 742:C:/Users/49542/Desktop/GD32F30x_Demo_Suites_V2.0.0/GD32F30x_Demo_Suites_V2.0.0/GD32F30x_Firmware_Library/CMSIS/GD/GD32F30x/Source\system_gd32f30x.c ****     /* APB2 = AHB/1 */
 743:C:/Users/49542/Desktop/GD32F30x_Demo_Suites_V2.0.0/GD32F30x_Demo_Suites_V2.0.0/GD32F30x_Firmware_Library/CMSIS/GD/GD32F30x/Source\system_gd32f30x.c ****     RCU_CFG0 |= RCU_APB2_CKAHB_DIV1;
 744:C:/Users/49542/Desktop/GD32F30x_Demo_Suites_V2.0.0/GD32F30x_Demo_Suites_V2.0.0/GD32F30x_Firmware_Library/CMSIS/GD/GD32F30x/Source\system_gd32f30x.c ****     /* APB1 = AHB/2 */
 745:C:/Users/49542/Desktop/GD32F30x_Demo_Suites_V2.0.0/GD32F30x_Demo_Suites_V2.0.0/GD32F30x_Firmware_Library/CMSIS/GD/GD32F30x/Source\system_gd32f30x.c ****     RCU_CFG0 |= RCU_APB1_CKAHB_DIV2;
 746:C:/Users/49542/Desktop/GD32F30x_Demo_Suites_V2.0.0/GD32F30x_Demo_Suites_V2.0.0/GD32F30x_Firmware_Library/CMSIS/GD/GD32F30x/Source\system_gd32f30x.c **** 
 747:C:/Users/49542/Desktop/GD32F30x_Demo_Suites_V2.0.0/GD32F30x_Demo_Suites_V2.0.0/GD32F30x_Firmware_Library/CMSIS/GD/GD32F30x/Source\system_gd32f30x.c **** #if (defined(GD32F30X_HD) || defined(GD32F30X_XD))
 748:C:/Users/49542/Desktop/GD32F30x_Demo_Suites_V2.0.0/GD32F30x_Demo_Suites_V2.0.0/GD32F30x_Firmware_Library/CMSIS/GD/GD32F30x/Source\system_gd32f30x.c ****     /* select HXTAL/2 as clock source */
 749:C:/Users/49542/Desktop/GD32F30x_Demo_Suites_V2.0.0/GD32F30x_Demo_Suites_V2.0.0/GD32F30x_Firmware_Library/CMSIS/GD/GD32F30x/Source\system_gd32f30x.c ****     RCU_CFG0 &= ~(RCU_CFG0_PLLSEL | RCU_CFG0_PREDV0);
 750:C:/Users/49542/Desktop/GD32F30x_Demo_Suites_V2.0.0/GD32F30x_Demo_Suites_V2.0.0/GD32F30x_Firmware_Library/CMSIS/GD/GD32F30x/Source\system_gd32f30x.c ****     RCU_CFG0 |= (RCU_PLLSRC_HXTAL_IRC48M | RCU_CFG0_PREDV0);
 751:C:/Users/49542/Desktop/GD32F30x_Demo_Suites_V2.0.0/GD32F30x_Demo_Suites_V2.0.0/GD32F30x_Firmware_Library/CMSIS/GD/GD32F30x/Source\system_gd32f30x.c **** 
 752:C:/Users/49542/Desktop/GD32F30x_Demo_Suites_V2.0.0/GD32F30x_Demo_Suites_V2.0.0/GD32F30x_Firmware_Library/CMSIS/GD/GD32F30x/Source\system_gd32f30x.c ****     /* CK_PLL = (CK_HXTAL/2) * 27 = 108 MHz */
 753:C:/Users/49542/Desktop/GD32F30x_Demo_Suites_V2.0.0/GD32F30x_Demo_Suites_V2.0.0/GD32F30x_Firmware_Library/CMSIS/GD/GD32F30x/Source\system_gd32f30x.c ****     RCU_CFG0 &= ~(RCU_CFG0_PLLMF | RCU_CFG0_PLLMF_4 | RCU_CFG0_PLLMF_5);
 754:C:/Users/49542/Desktop/GD32F30x_Demo_Suites_V2.0.0/GD32F30x_Demo_Suites_V2.0.0/GD32F30x_Firmware_Library/CMSIS/GD/GD32F30x/Source\system_gd32f30x.c ****     RCU_CFG0 |= RCU_PLL_MUL27;
 755:C:/Users/49542/Desktop/GD32F30x_Demo_Suites_V2.0.0/GD32F30x_Demo_Suites_V2.0.0/GD32F30x_Firmware_Library/CMSIS/GD/GD32F30x/Source\system_gd32f30x.c **** 
 756:C:/Users/49542/Desktop/GD32F30x_Demo_Suites_V2.0.0/GD32F30x_Demo_Suites_V2.0.0/GD32F30x_Firmware_Library/CMSIS/GD/GD32F30x/Source\system_gd32f30x.c **** #elif defined(GD32F30X_CL)
 757:C:/Users/49542/Desktop/GD32F30x_Demo_Suites_V2.0.0/GD32F30x_Demo_Suites_V2.0.0/GD32F30x_Firmware_Library/CMSIS/GD/GD32F30x/Source\system_gd32f30x.c ****     /* CK_PLL = (CK_PREDIV0) * 27 = 108 MHz */ 
 758:C:/Users/49542/Desktop/GD32F30x_Demo_Suites_V2.0.0/GD32F30x_Demo_Suites_V2.0.0/GD32F30x_Firmware_Library/CMSIS/GD/GD32F30x/Source\system_gd32f30x.c ****     RCU_CFG0 &= ~(RCU_CFG0_PLLMF | RCU_CFG0_PLLMF_4 | RCU_CFG0_PLLMF_5);
 759:C:/Users/49542/Desktop/GD32F30x_Demo_Suites_V2.0.0/GD32F30x_Demo_Suites_V2.0.0/GD32F30x_Firmware_Library/CMSIS/GD/GD32F30x/Source\system_gd32f30x.c ****     RCU_CFG0 |= (RCU_PLLSRC_HXTAL_IRC48M | RCU_PLL_MUL27);
 760:C:/Users/49542/Desktop/GD32F30x_Demo_Suites_V2.0.0/GD32F30x_Demo_Suites_V2.0.0/GD32F30x_Firmware_Library/CMSIS/GD/GD32F30x/Source\system_gd32f30x.c **** 
 761:C:/Users/49542/Desktop/GD32F30x_Demo_Suites_V2.0.0/GD32F30x_Demo_Suites_V2.0.0/GD32F30x_Firmware_Library/CMSIS/GD/GD32F30x/Source\system_gd32f30x.c ****     /* CK_PREDIV0 = (CK_HXTAL)/5 *8 /10 = 4 MHz */ 
 762:C:/Users/49542/Desktop/GD32F30x_Demo_Suites_V2.0.0/GD32F30x_Demo_Suites_V2.0.0/GD32F30x_Firmware_Library/CMSIS/GD/GD32F30x/Source\system_gd32f30x.c ****     RCU_CFG1 &= ~(RCU_CFG1_PLLPRESEL | RCU_CFG1_PREDV0SEL | RCU_CFG1_PLL1MF | RCU_CFG1_PREDV1 | RCU
 763:C:/Users/49542/Desktop/GD32F30x_Demo_Suites_V2.0.0/GD32F30x_Demo_Suites_V2.0.0/GD32F30x_Firmware_Library/CMSIS/GD/GD32F30x/Source\system_gd32f30x.c ****     RCU_CFG1 |= (RCU_PLLPRESRC_HXTAL | RCU_PREDV0SRC_CKPLL1 | RCU_PLL1_MUL8 | RCU_PREDV1_DIV5 | RCU
 764:C:/Users/49542/Desktop/GD32F30x_Demo_Suites_V2.0.0/GD32F30x_Demo_Suites_V2.0.0/GD32F30x_Firmware_Library/CMSIS/GD/GD32F30x/Source\system_gd32f30x.c **** 
 765:C:/Users/49542/Desktop/GD32F30x_Demo_Suites_V2.0.0/GD32F30x_Demo_Suites_V2.0.0/GD32F30x_Firmware_Library/CMSIS/GD/GD32F30x/Source\system_gd32f30x.c ****     /* enable PLL1 */
 766:C:/Users/49542/Desktop/GD32F30x_Demo_Suites_V2.0.0/GD32F30x_Demo_Suites_V2.0.0/GD32F30x_Firmware_Library/CMSIS/GD/GD32F30x/Source\system_gd32f30x.c ****     RCU_CTL |= RCU_CTL_PLL1EN;
 767:C:/Users/49542/Desktop/GD32F30x_Demo_Suites_V2.0.0/GD32F30x_Demo_Suites_V2.0.0/GD32F30x_Firmware_Library/CMSIS/GD/GD32F30x/Source\system_gd32f30x.c ****     /* wait till PLL1 is ready */
 768:C:/Users/49542/Desktop/GD32F30x_Demo_Suites_V2.0.0/GD32F30x_Demo_Suites_V2.0.0/GD32F30x_Firmware_Library/CMSIS/GD/GD32F30x/Source\system_gd32f30x.c ****     while((RCU_CTL & RCU_CTL_PLL1STB) == 0){
 769:C:/Users/49542/Desktop/GD32F30x_Demo_Suites_V2.0.0/GD32F30x_Demo_Suites_V2.0.0/GD32F30x_Firmware_Library/CMSIS/GD/GD32F30x/Source\system_gd32f30x.c ****     }
 770:C:/Users/49542/Desktop/GD32F30x_Demo_Suites_V2.0.0/GD32F30x_Demo_Suites_V2.0.0/GD32F30x_Firmware_Library/CMSIS/GD/GD32F30x/Source\system_gd32f30x.c **** #endif /* GD32F30X_HD and GD32F30X_XD */
 771:C:/Users/49542/Desktop/GD32F30x_Demo_Suites_V2.0.0/GD32F30x_Demo_Suites_V2.0.0/GD32F30x_Firmware_Library/CMSIS/GD/GD32F30x/Source\system_gd32f30x.c **** 
 772:C:/Users/49542/Desktop/GD32F30x_Demo_Suites_V2.0.0/GD32F30x_Demo_Suites_V2.0.0/GD32F30x_Firmware_Library/CMSIS/GD/GD32F30x/Source\system_gd32f30x.c ****     /* enable PLL */
 773:C:/Users/49542/Desktop/GD32F30x_Demo_Suites_V2.0.0/GD32F30x_Demo_Suites_V2.0.0/GD32F30x_Firmware_Library/CMSIS/GD/GD32F30x/Source\system_gd32f30x.c ****     RCU_CTL |= RCU_CTL_PLLEN;
 774:C:/Users/49542/Desktop/GD32F30x_Demo_Suites_V2.0.0/GD32F30x_Demo_Suites_V2.0.0/GD32F30x_Firmware_Library/CMSIS/GD/GD32F30x/Source\system_gd32f30x.c **** 
 775:C:/Users/49542/Desktop/GD32F30x_Demo_Suites_V2.0.0/GD32F30x_Demo_Suites_V2.0.0/GD32F30x_Firmware_Library/CMSIS/GD/GD32F30x/Source\system_gd32f30x.c ****     /* wait until PLL is stable */
 776:C:/Users/49542/Desktop/GD32F30x_Demo_Suites_V2.0.0/GD32F30x_Demo_Suites_V2.0.0/GD32F30x_Firmware_Library/CMSIS/GD/GD32F30x/Source\system_gd32f30x.c ****     while(0U == (RCU_CTL & RCU_CTL_PLLSTB)){
 777:C:/Users/49542/Desktop/GD32F30x_Demo_Suites_V2.0.0/GD32F30x_Demo_Suites_V2.0.0/GD32F30x_Firmware_Library/CMSIS/GD/GD32F30x/Source\system_gd32f30x.c ****     }
 778:C:/Users/49542/Desktop/GD32F30x_Demo_Suites_V2.0.0/GD32F30x_Demo_Suites_V2.0.0/GD32F30x_Firmware_Library/CMSIS/GD/GD32F30x/Source\system_gd32f30x.c **** 
 779:C:/Users/49542/Desktop/GD32F30x_Demo_Suites_V2.0.0/GD32F30x_Demo_Suites_V2.0.0/GD32F30x_Firmware_Library/CMSIS/GD/GD32F30x/Source\system_gd32f30x.c ****     /* enable the high-drive to extend the clock frequency to 120 MHz */
 780:C:/Users/49542/Desktop/GD32F30x_Demo_Suites_V2.0.0/GD32F30x_Demo_Suites_V2.0.0/GD32F30x_Firmware_Library/CMSIS/GD/GD32F30x/Source\system_gd32f30x.c ****     PMU_CTL |= PMU_CTL_HDEN;
 781:C:/Users/49542/Desktop/GD32F30x_Demo_Suites_V2.0.0/GD32F30x_Demo_Suites_V2.0.0/GD32F30x_Firmware_Library/CMSIS/GD/GD32F30x/Source\system_gd32f30x.c ****     while(0U == (PMU_CS & PMU_CS_HDRF)){
 782:C:/Users/49542/Desktop/GD32F30x_Demo_Suites_V2.0.0/GD32F30x_Demo_Suites_V2.0.0/GD32F30x_Firmware_Library/CMSIS/GD/GD32F30x/Source\system_gd32f30x.c ****     }
ARM GAS  C:\Users\49542\AppData\Local\Temp\ccT3FCLy.s 			page 17


 783:C:/Users/49542/Desktop/GD32F30x_Demo_Suites_V2.0.0/GD32F30x_Demo_Suites_V2.0.0/GD32F30x_Firmware_Library/CMSIS/GD/GD32F30x/Source\system_gd32f30x.c **** 
 784:C:/Users/49542/Desktop/GD32F30x_Demo_Suites_V2.0.0/GD32F30x_Demo_Suites_V2.0.0/GD32F30x_Firmware_Library/CMSIS/GD/GD32F30x/Source\system_gd32f30x.c ****     /* select the high-drive mode */
 785:C:/Users/49542/Desktop/GD32F30x_Demo_Suites_V2.0.0/GD32F30x_Demo_Suites_V2.0.0/GD32F30x_Firmware_Library/CMSIS/GD/GD32F30x/Source\system_gd32f30x.c ****     PMU_CTL |= PMU_CTL_HDS;
 786:C:/Users/49542/Desktop/GD32F30x_Demo_Suites_V2.0.0/GD32F30x_Demo_Suites_V2.0.0/GD32F30x_Firmware_Library/CMSIS/GD/GD32F30x/Source\system_gd32f30x.c ****     while(0U == (PMU_CS & PMU_CS_HDSRF)){
 787:C:/Users/49542/Desktop/GD32F30x_Demo_Suites_V2.0.0/GD32F30x_Demo_Suites_V2.0.0/GD32F30x_Firmware_Library/CMSIS/GD/GD32F30x/Source\system_gd32f30x.c ****     }
 788:C:/Users/49542/Desktop/GD32F30x_Demo_Suites_V2.0.0/GD32F30x_Demo_Suites_V2.0.0/GD32F30x_Firmware_Library/CMSIS/GD/GD32F30x/Source\system_gd32f30x.c **** 
 789:C:/Users/49542/Desktop/GD32F30x_Demo_Suites_V2.0.0/GD32F30x_Demo_Suites_V2.0.0/GD32F30x_Firmware_Library/CMSIS/GD/GD32F30x/Source\system_gd32f30x.c ****     /* select PLL as system clock */
 790:C:/Users/49542/Desktop/GD32F30x_Demo_Suites_V2.0.0/GD32F30x_Demo_Suites_V2.0.0/GD32F30x_Firmware_Library/CMSIS/GD/GD32F30x/Source\system_gd32f30x.c ****     RCU_CFG0 &= ~RCU_CFG0_SCS;
 791:C:/Users/49542/Desktop/GD32F30x_Demo_Suites_V2.0.0/GD32F30x_Demo_Suites_V2.0.0/GD32F30x_Firmware_Library/CMSIS/GD/GD32F30x/Source\system_gd32f30x.c ****     RCU_CFG0 |= RCU_CKSYSSRC_PLL;
 792:C:/Users/49542/Desktop/GD32F30x_Demo_Suites_V2.0.0/GD32F30x_Demo_Suites_V2.0.0/GD32F30x_Firmware_Library/CMSIS/GD/GD32F30x/Source\system_gd32f30x.c **** 
 793:C:/Users/49542/Desktop/GD32F30x_Demo_Suites_V2.0.0/GD32F30x_Demo_Suites_V2.0.0/GD32F30x_Firmware_Library/CMSIS/GD/GD32F30x/Source\system_gd32f30x.c ****     /* wait until PLL is selected as system clock */
 794:C:/Users/49542/Desktop/GD32F30x_Demo_Suites_V2.0.0/GD32F30x_Demo_Suites_V2.0.0/GD32F30x_Firmware_Library/CMSIS/GD/GD32F30x/Source\system_gd32f30x.c ****     while(0U == (RCU_CFG0 & RCU_SCSS_PLL)){
 795:C:/Users/49542/Desktop/GD32F30x_Demo_Suites_V2.0.0/GD32F30x_Demo_Suites_V2.0.0/GD32F30x_Firmware_Library/CMSIS/GD/GD32F30x/Source\system_gd32f30x.c ****     }
 796:C:/Users/49542/Desktop/GD32F30x_Demo_Suites_V2.0.0/GD32F30x_Demo_Suites_V2.0.0/GD32F30x_Firmware_Library/CMSIS/GD/GD32F30x/Source\system_gd32f30x.c **** }
 797:C:/Users/49542/Desktop/GD32F30x_Demo_Suites_V2.0.0/GD32F30x_Demo_Suites_V2.0.0/GD32F30x_Firmware_Library/CMSIS/GD/GD32F30x/Source\system_gd32f30x.c **** 
 798:C:/Users/49542/Desktop/GD32F30x_Demo_Suites_V2.0.0/GD32F30x_Demo_Suites_V2.0.0/GD32F30x_Firmware_Library/CMSIS/GD/GD32F30x/Source\system_gd32f30x.c **** #elif defined (__SYSTEM_CLOCK_120M_PLL_HXTAL)
 799:C:/Users/49542/Desktop/GD32F30x_Demo_Suites_V2.0.0/GD32F30x_Demo_Suites_V2.0.0/GD32F30x_Firmware_Library/CMSIS/GD/GD32F30x/Source\system_gd32f30x.c **** /*!
 800:C:/Users/49542/Desktop/GD32F30x_Demo_Suites_V2.0.0/GD32F30x_Demo_Suites_V2.0.0/GD32F30x_Firmware_Library/CMSIS/GD/GD32F30x/Source\system_gd32f30x.c ****     \brief      configure the system clock to 120M by PLL which selects HXTAL(8M) as its clock sour
 801:C:/Users/49542/Desktop/GD32F30x_Demo_Suites_V2.0.0/GD32F30x_Demo_Suites_V2.0.0/GD32F30x_Firmware_Library/CMSIS/GD/GD32F30x/Source\system_gd32f30x.c ****     \param[in]  none
 802:C:/Users/49542/Desktop/GD32F30x_Demo_Suites_V2.0.0/GD32F30x_Demo_Suites_V2.0.0/GD32F30x_Firmware_Library/CMSIS/GD/GD32F30x/Source\system_gd32f30x.c ****     \param[out] none
 803:C:/Users/49542/Desktop/GD32F30x_Demo_Suites_V2.0.0/GD32F30x_Demo_Suites_V2.0.0/GD32F30x_Firmware_Library/CMSIS/GD/GD32F30x/Source\system_gd32f30x.c ****     \retval     none
 804:C:/Users/49542/Desktop/GD32F30x_Demo_Suites_V2.0.0/GD32F30x_Demo_Suites_V2.0.0/GD32F30x_Firmware_Library/CMSIS/GD/GD32F30x/Source\system_gd32f30x.c **** */
 805:C:/Users/49542/Desktop/GD32F30x_Demo_Suites_V2.0.0/GD32F30x_Demo_Suites_V2.0.0/GD32F30x_Firmware_Library/CMSIS/GD/GD32F30x/Source\system_gd32f30x.c **** static void system_clock_120m_hxtal(void)
 806:C:/Users/49542/Desktop/GD32F30x_Demo_Suites_V2.0.0/GD32F30x_Demo_Suites_V2.0.0/GD32F30x_Firmware_Library/CMSIS/GD/GD32F30x/Source\system_gd32f30x.c **** {
 138              		.loc 1 806 0
 139              		.cfi_startproc
 140              		@ args = 0, pretend = 0, frame = 8
 141              		@ frame_needed = 1, uses_anonymous_args = 0
 142              		@ link register save eliminated.
 143 0000 80B4     		push	{r7}
 144              	.LCFI4:
 145              		.cfi_def_cfa_offset 4
 146              		.cfi_offset 7, -4
 147 0002 83B0     		sub	sp, sp, #12
 148              	.LCFI5:
 149              		.cfi_def_cfa_offset 16
 150 0004 00AF     		add	r7, sp, #0
 151              	.LCFI6:
 152              		.cfi_def_cfa_register 7
 807:C:/Users/49542/Desktop/GD32F30x_Demo_Suites_V2.0.0/GD32F30x_Demo_Suites_V2.0.0/GD32F30x_Firmware_Library/CMSIS/GD/GD32F30x/Source\system_gd32f30x.c ****     uint32_t timeout = 0U;
 153              		.loc 1 807 0
 154 0006 0023     		movs	r3, #0
 155 0008 7B60     		str	r3, [r7, #4]
 808:C:/Users/49542/Desktop/GD32F30x_Demo_Suites_V2.0.0/GD32F30x_Demo_Suites_V2.0.0/GD32F30x_Firmware_Library/CMSIS/GD/GD32F30x/Source\system_gd32f30x.c ****     uint32_t stab_flag = 0U;
 156              		.loc 1 808 0
 157 000a 0023     		movs	r3, #0
 158 000c 3B60     		str	r3, [r7]
 809:C:/Users/49542/Desktop/GD32F30x_Demo_Suites_V2.0.0/GD32F30x_Demo_Suites_V2.0.0/GD32F30x_Firmware_Library/CMSIS/GD/GD32F30x/Source\system_gd32f30x.c **** 
 810:C:/Users/49542/Desktop/GD32F30x_Demo_Suites_V2.0.0/GD32F30x_Demo_Suites_V2.0.0/GD32F30x_Firmware_Library/CMSIS/GD/GD32F30x/Source\system_gd32f30x.c ****     /* enable HXTAL */
 811:C:/Users/49542/Desktop/GD32F30x_Demo_Suites_V2.0.0/GD32F30x_Demo_Suites_V2.0.0/GD32F30x_Firmware_Library/CMSIS/GD/GD32F30x/Source\system_gd32f30x.c ****     RCU_CTL |= RCU_CTL_HXTALEN;
 159              		.loc 1 811 0
 160 000e 494B     		ldr	r3, .L14
 161 0010 1B68     		ldr	r3, [r3]
 162 0012 484A     		ldr	r2, .L14
 163 0014 43F48033 		orr	r3, r3, #65536
 164 0018 1360     		str	r3, [r2]
 165              	.L7:
ARM GAS  C:\Users\49542\AppData\Local\Temp\ccT3FCLy.s 			page 18


 812:C:/Users/49542/Desktop/GD32F30x_Demo_Suites_V2.0.0/GD32F30x_Demo_Suites_V2.0.0/GD32F30x_Firmware_Library/CMSIS/GD/GD32F30x/Source\system_gd32f30x.c **** 
 813:C:/Users/49542/Desktop/GD32F30x_Demo_Suites_V2.0.0/GD32F30x_Demo_Suites_V2.0.0/GD32F30x_Firmware_Library/CMSIS/GD/GD32F30x/Source\system_gd32f30x.c ****     /* wait until HXTAL is stable or the startup time is longer than HXTAL_STARTUP_TIMEOUT */
 814:C:/Users/49542/Desktop/GD32F30x_Demo_Suites_V2.0.0/GD32F30x_Demo_Suites_V2.0.0/GD32F30x_Firmware_Library/CMSIS/GD/GD32F30x/Source\system_gd32f30x.c ****     do{
 815:C:/Users/49542/Desktop/GD32F30x_Demo_Suites_V2.0.0/GD32F30x_Demo_Suites_V2.0.0/GD32F30x_Firmware_Library/CMSIS/GD/GD32F30x/Source\system_gd32f30x.c ****         timeout++;
 166              		.loc 1 815 0 discriminator 2
 167 001a 7B68     		ldr	r3, [r7, #4]
 168 001c 0133     		adds	r3, r3, #1
 169 001e 7B60     		str	r3, [r7, #4]
 816:C:/Users/49542/Desktop/GD32F30x_Demo_Suites_V2.0.0/GD32F30x_Demo_Suites_V2.0.0/GD32F30x_Firmware_Library/CMSIS/GD/GD32F30x/Source\system_gd32f30x.c ****         stab_flag = (RCU_CTL & RCU_CTL_HXTALSTB);
 170              		.loc 1 816 0 discriminator 2
 171 0020 444B     		ldr	r3, .L14
 172 0022 1B68     		ldr	r3, [r3]
 173 0024 03F40033 		and	r3, r3, #131072
 174 0028 3B60     		str	r3, [r7]
 817:C:/Users/49542/Desktop/GD32F30x_Demo_Suites_V2.0.0/GD32F30x_Demo_Suites_V2.0.0/GD32F30x_Firmware_Library/CMSIS/GD/GD32F30x/Source\system_gd32f30x.c ****     }while((0U == stab_flag) && (HXTAL_STARTUP_TIMEOUT != timeout));
 175              		.loc 1 817 0 discriminator 2
 176 002a 3B68     		ldr	r3, [r7]
 177 002c 002B     		cmp	r3, #0
 178 002e 04D1     		bne	.L6
 179              		.loc 1 817 0 is_stmt 0 discriminator 1
 180 0030 7B68     		ldr	r3, [r7, #4]
 181 0032 4FF6FF72 		movw	r2, #65535
 182 0036 9342     		cmp	r3, r2
 183 0038 EFD1     		bne	.L7
 184              	.L6:
 818:C:/Users/49542/Desktop/GD32F30x_Demo_Suites_V2.0.0/GD32F30x_Demo_Suites_V2.0.0/GD32F30x_Firmware_Library/CMSIS/GD/GD32F30x/Source\system_gd32f30x.c **** 
 819:C:/Users/49542/Desktop/GD32F30x_Demo_Suites_V2.0.0/GD32F30x_Demo_Suites_V2.0.0/GD32F30x_Firmware_Library/CMSIS/GD/GD32F30x/Source\system_gd32f30x.c ****     /* if fail */
 820:C:/Users/49542/Desktop/GD32F30x_Demo_Suites_V2.0.0/GD32F30x_Demo_Suites_V2.0.0/GD32F30x_Firmware_Library/CMSIS/GD/GD32F30x/Source\system_gd32f30x.c ****     if(0U == (RCU_CTL & RCU_CTL_HXTALSTB)){
 185              		.loc 1 820 0 is_stmt 1
 186 003a 3E4B     		ldr	r3, .L14
 187 003c 1B68     		ldr	r3, [r3]
 188 003e 03F40033 		and	r3, r3, #131072
 189 0042 002B     		cmp	r3, #0
 190 0044 00D1     		bne	.L8
 191              	.L9:
 821:C:/Users/49542/Desktop/GD32F30x_Demo_Suites_V2.0.0/GD32F30x_Demo_Suites_V2.0.0/GD32F30x_Firmware_Library/CMSIS/GD/GD32F30x/Source\system_gd32f30x.c ****         while(1){
 192              		.loc 1 821 0 discriminator 1
 193 0046 FEE7     		b	.L9
 194              	.L8:
 822:C:/Users/49542/Desktop/GD32F30x_Demo_Suites_V2.0.0/GD32F30x_Demo_Suites_V2.0.0/GD32F30x_Firmware_Library/CMSIS/GD/GD32F30x/Source\system_gd32f30x.c ****         }
 823:C:/Users/49542/Desktop/GD32F30x_Demo_Suites_V2.0.0/GD32F30x_Demo_Suites_V2.0.0/GD32F30x_Firmware_Library/CMSIS/GD/GD32F30x/Source\system_gd32f30x.c ****     }
 824:C:/Users/49542/Desktop/GD32F30x_Demo_Suites_V2.0.0/GD32F30x_Demo_Suites_V2.0.0/GD32F30x_Firmware_Library/CMSIS/GD/GD32F30x/Source\system_gd32f30x.c **** 
 825:C:/Users/49542/Desktop/GD32F30x_Demo_Suites_V2.0.0/GD32F30x_Demo_Suites_V2.0.0/GD32F30x_Firmware_Library/CMSIS/GD/GD32F30x/Source\system_gd32f30x.c ****     RCU_APB1EN |= RCU_APB1EN_PMUEN;
 195              		.loc 1 825 0
 196 0048 3B4B     		ldr	r3, .L14+4
 197 004a 1B68     		ldr	r3, [r3]
 198 004c 3A4A     		ldr	r2, .L14+4
 199 004e 43F08053 		orr	r3, r3, #268435456
 200 0052 1360     		str	r3, [r2]
 826:C:/Users/49542/Desktop/GD32F30x_Demo_Suites_V2.0.0/GD32F30x_Demo_Suites_V2.0.0/GD32F30x_Firmware_Library/CMSIS/GD/GD32F30x/Source\system_gd32f30x.c ****     PMU_CTL |= PMU_CTL_LDOVS;
 201              		.loc 1 826 0
 202 0054 394B     		ldr	r3, .L14+8
 203 0056 1B68     		ldr	r3, [r3]
 204 0058 384A     		ldr	r2, .L14+8
 205 005a 43F44043 		orr	r3, r3, #49152
 206 005e 1360     		str	r3, [r2]
 827:C:/Users/49542/Desktop/GD32F30x_Demo_Suites_V2.0.0/GD32F30x_Demo_Suites_V2.0.0/GD32F30x_Firmware_Library/CMSIS/GD/GD32F30x/Source\system_gd32f30x.c **** 
ARM GAS  C:\Users\49542\AppData\Local\Temp\ccT3FCLy.s 			page 19


 828:C:/Users/49542/Desktop/GD32F30x_Demo_Suites_V2.0.0/GD32F30x_Demo_Suites_V2.0.0/GD32F30x_Firmware_Library/CMSIS/GD/GD32F30x/Source\system_gd32f30x.c ****     /* HXTAL is stable */
 829:C:/Users/49542/Desktop/GD32F30x_Demo_Suites_V2.0.0/GD32F30x_Demo_Suites_V2.0.0/GD32F30x_Firmware_Library/CMSIS/GD/GD32F30x/Source\system_gd32f30x.c ****     /* AHB = SYSCLK */
 830:C:/Users/49542/Desktop/GD32F30x_Demo_Suites_V2.0.0/GD32F30x_Demo_Suites_V2.0.0/GD32F30x_Firmware_Library/CMSIS/GD/GD32F30x/Source\system_gd32f30x.c ****     RCU_CFG0 |= RCU_AHB_CKSYS_DIV1;
 207              		.loc 1 830 0
 208 0060 374B     		ldr	r3, .L14+12
 209 0062 374A     		ldr	r2, .L14+12
 210 0064 1B68     		ldr	r3, [r3]
 211 0066 1360     		str	r3, [r2]
 831:C:/Users/49542/Desktop/GD32F30x_Demo_Suites_V2.0.0/GD32F30x_Demo_Suites_V2.0.0/GD32F30x_Firmware_Library/CMSIS/GD/GD32F30x/Source\system_gd32f30x.c ****     /* APB2 = AHB/1 */
 832:C:/Users/49542/Desktop/GD32F30x_Demo_Suites_V2.0.0/GD32F30x_Demo_Suites_V2.0.0/GD32F30x_Firmware_Library/CMSIS/GD/GD32F30x/Source\system_gd32f30x.c ****     RCU_CFG0 |= RCU_APB2_CKAHB_DIV1;
 212              		.loc 1 832 0
 213 0068 354B     		ldr	r3, .L14+12
 214 006a 354A     		ldr	r2, .L14+12
 215 006c 1B68     		ldr	r3, [r3]
 216 006e 1360     		str	r3, [r2]
 833:C:/Users/49542/Desktop/GD32F30x_Demo_Suites_V2.0.0/GD32F30x_Demo_Suites_V2.0.0/GD32F30x_Firmware_Library/CMSIS/GD/GD32F30x/Source\system_gd32f30x.c ****     /* APB1 = AHB/2 */
 834:C:/Users/49542/Desktop/GD32F30x_Demo_Suites_V2.0.0/GD32F30x_Demo_Suites_V2.0.0/GD32F30x_Firmware_Library/CMSIS/GD/GD32F30x/Source\system_gd32f30x.c ****     RCU_CFG0 |= RCU_APB1_CKAHB_DIV2;
 217              		.loc 1 834 0
 218 0070 334B     		ldr	r3, .L14+12
 219 0072 1B68     		ldr	r3, [r3]
 220 0074 324A     		ldr	r2, .L14+12
 221 0076 43F48063 		orr	r3, r3, #1024
 222 007a 1360     		str	r3, [r2]
 835:C:/Users/49542/Desktop/GD32F30x_Demo_Suites_V2.0.0/GD32F30x_Demo_Suites_V2.0.0/GD32F30x_Firmware_Library/CMSIS/GD/GD32F30x/Source\system_gd32f30x.c **** 
 836:C:/Users/49542/Desktop/GD32F30x_Demo_Suites_V2.0.0/GD32F30x_Demo_Suites_V2.0.0/GD32F30x_Firmware_Library/CMSIS/GD/GD32F30x/Source\system_gd32f30x.c **** #if (defined(GD32F30X_HD) || defined(GD32F30X_XD))
 837:C:/Users/49542/Desktop/GD32F30x_Demo_Suites_V2.0.0/GD32F30x_Demo_Suites_V2.0.0/GD32F30x_Firmware_Library/CMSIS/GD/GD32F30x/Source\system_gd32f30x.c ****     /* select HXTAL/2 as clock source */
 838:C:/Users/49542/Desktop/GD32F30x_Demo_Suites_V2.0.0/GD32F30x_Demo_Suites_V2.0.0/GD32F30x_Firmware_Library/CMSIS/GD/GD32F30x/Source\system_gd32f30x.c ****     RCU_CFG0 &= ~(RCU_CFG0_PLLSEL | RCU_CFG0_PREDV0);
 223              		.loc 1 838 0
 224 007c 304B     		ldr	r3, .L14+12
 225 007e 1B68     		ldr	r3, [r3]
 226 0080 2F4A     		ldr	r2, .L14+12
 227 0082 23F44033 		bic	r3, r3, #196608
 228 0086 1360     		str	r3, [r2]
 839:C:/Users/49542/Desktop/GD32F30x_Demo_Suites_V2.0.0/GD32F30x_Demo_Suites_V2.0.0/GD32F30x_Firmware_Library/CMSIS/GD/GD32F30x/Source\system_gd32f30x.c ****     RCU_CFG0 |= (RCU_PLLSRC_HXTAL_IRC48M | RCU_CFG0_PREDV0);
 229              		.loc 1 839 0
 230 0088 2D4B     		ldr	r3, .L14+12
 231 008a 1B68     		ldr	r3, [r3]
 232 008c 2C4A     		ldr	r2, .L14+12
 233 008e 43F44033 		orr	r3, r3, #196608
 234 0092 1360     		str	r3, [r2]
 840:C:/Users/49542/Desktop/GD32F30x_Demo_Suites_V2.0.0/GD32F30x_Demo_Suites_V2.0.0/GD32F30x_Firmware_Library/CMSIS/GD/GD32F30x/Source\system_gd32f30x.c **** 
 841:C:/Users/49542/Desktop/GD32F30x_Demo_Suites_V2.0.0/GD32F30x_Demo_Suites_V2.0.0/GD32F30x_Firmware_Library/CMSIS/GD/GD32F30x/Source\system_gd32f30x.c ****     /* CK_PLL = (CK_HXTAL/2) * 30 = 120 MHz */
 842:C:/Users/49542/Desktop/GD32F30x_Demo_Suites_V2.0.0/GD32F30x_Demo_Suites_V2.0.0/GD32F30x_Firmware_Library/CMSIS/GD/GD32F30x/Source\system_gd32f30x.c ****     RCU_CFG0 &= ~(RCU_CFG0_PLLMF | RCU_CFG0_PLLMF_4 | RCU_CFG0_PLLMF_5);
 235              		.loc 1 842 0
 236 0094 2A4B     		ldr	r3, .L14+12
 237 0096 1B68     		ldr	r3, [r3]
 238 0098 294A     		ldr	r2, .L14+12
 239 009a 23F09043 		bic	r3, r3, #1207959552
 240 009e 23F47013 		bic	r3, r3, #3932160
 241 00a2 1360     		str	r3, [r2]
 843:C:/Users/49542/Desktop/GD32F30x_Demo_Suites_V2.0.0/GD32F30x_Demo_Suites_V2.0.0/GD32F30x_Firmware_Library/CMSIS/GD/GD32F30x/Source\system_gd32f30x.c ****     RCU_CFG0 |= RCU_PLL_MUL30;
 242              		.loc 1 843 0
 243 00a4 264B     		ldr	r3, .L14+12
 244 00a6 1B68     		ldr	r3, [r3]
 245 00a8 254A     		ldr	r2, .L14+12
 246 00aa 43F00363 		orr	r3, r3, #137363456
 247 00ae 43F48023 		orr	r3, r3, #262144
ARM GAS  C:\Users\49542\AppData\Local\Temp\ccT3FCLy.s 			page 20


 248 00b2 1360     		str	r3, [r2]
 844:C:/Users/49542/Desktop/GD32F30x_Demo_Suites_V2.0.0/GD32F30x_Demo_Suites_V2.0.0/GD32F30x_Firmware_Library/CMSIS/GD/GD32F30x/Source\system_gd32f30x.c **** 
 845:C:/Users/49542/Desktop/GD32F30x_Demo_Suites_V2.0.0/GD32F30x_Demo_Suites_V2.0.0/GD32F30x_Firmware_Library/CMSIS/GD/GD32F30x/Source\system_gd32f30x.c **** #elif defined(GD32F30X_CL)
 846:C:/Users/49542/Desktop/GD32F30x_Demo_Suites_V2.0.0/GD32F30x_Demo_Suites_V2.0.0/GD32F30x_Firmware_Library/CMSIS/GD/GD32F30x/Source\system_gd32f30x.c ****     /* CK_PLL = (CK_PREDIV0) * 30 = 120 MHz */ 
 847:C:/Users/49542/Desktop/GD32F30x_Demo_Suites_V2.0.0/GD32F30x_Demo_Suites_V2.0.0/GD32F30x_Firmware_Library/CMSIS/GD/GD32F30x/Source\system_gd32f30x.c ****     RCU_CFG0 &= ~(RCU_CFG0_PLLMF | RCU_CFG0_PLLMF_4 | RCU_CFG0_PLLMF_5);
 848:C:/Users/49542/Desktop/GD32F30x_Demo_Suites_V2.0.0/GD32F30x_Demo_Suites_V2.0.0/GD32F30x_Firmware_Library/CMSIS/GD/GD32F30x/Source\system_gd32f30x.c ****     RCU_CFG0 |= (RCU_PLLSRC_HXTAL_IRC48M | RCU_PLL_MUL30);
 849:C:/Users/49542/Desktop/GD32F30x_Demo_Suites_V2.0.0/GD32F30x_Demo_Suites_V2.0.0/GD32F30x_Firmware_Library/CMSIS/GD/GD32F30x/Source\system_gd32f30x.c **** 
 850:C:/Users/49542/Desktop/GD32F30x_Demo_Suites_V2.0.0/GD32F30x_Demo_Suites_V2.0.0/GD32F30x_Firmware_Library/CMSIS/GD/GD32F30x/Source\system_gd32f30x.c ****     /* CK_PREDIV0 = (CK_HXTAL)/5 *8 /10 = 4 MHz */ 
 851:C:/Users/49542/Desktop/GD32F30x_Demo_Suites_V2.0.0/GD32F30x_Demo_Suites_V2.0.0/GD32F30x_Firmware_Library/CMSIS/GD/GD32F30x/Source\system_gd32f30x.c ****     RCU_CFG1 &= ~(RCU_CFG1_PLLPRESEL | RCU_CFG1_PREDV0SEL | RCU_CFG1_PLL1MF | RCU_CFG1_PREDV1 | RCU
 852:C:/Users/49542/Desktop/GD32F30x_Demo_Suites_V2.0.0/GD32F30x_Demo_Suites_V2.0.0/GD32F30x_Firmware_Library/CMSIS/GD/GD32F30x/Source\system_gd32f30x.c ****     RCU_CFG1 |= (RCU_PLLPRESRC_HXTAL | RCU_PREDV0SRC_CKPLL1 | RCU_PLL1_MUL8 | RCU_PREDV1_DIV5 | RCU
 853:C:/Users/49542/Desktop/GD32F30x_Demo_Suites_V2.0.0/GD32F30x_Demo_Suites_V2.0.0/GD32F30x_Firmware_Library/CMSIS/GD/GD32F30x/Source\system_gd32f30x.c **** 
 854:C:/Users/49542/Desktop/GD32F30x_Demo_Suites_V2.0.0/GD32F30x_Demo_Suites_V2.0.0/GD32F30x_Firmware_Library/CMSIS/GD/GD32F30x/Source\system_gd32f30x.c ****     /* enable PLL1 */
 855:C:/Users/49542/Desktop/GD32F30x_Demo_Suites_V2.0.0/GD32F30x_Demo_Suites_V2.0.0/GD32F30x_Firmware_Library/CMSIS/GD/GD32F30x/Source\system_gd32f30x.c ****     RCU_CTL |= RCU_CTL_PLL1EN;
 856:C:/Users/49542/Desktop/GD32F30x_Demo_Suites_V2.0.0/GD32F30x_Demo_Suites_V2.0.0/GD32F30x_Firmware_Library/CMSIS/GD/GD32F30x/Source\system_gd32f30x.c ****     /* wait till PLL1 is ready */
 857:C:/Users/49542/Desktop/GD32F30x_Demo_Suites_V2.0.0/GD32F30x_Demo_Suites_V2.0.0/GD32F30x_Firmware_Library/CMSIS/GD/GD32F30x/Source\system_gd32f30x.c ****     while((RCU_CTL & RCU_CTL_PLL1STB) == 0U){
 858:C:/Users/49542/Desktop/GD32F30x_Demo_Suites_V2.0.0/GD32F30x_Demo_Suites_V2.0.0/GD32F30x_Firmware_Library/CMSIS/GD/GD32F30x/Source\system_gd32f30x.c ****     }
 859:C:/Users/49542/Desktop/GD32F30x_Demo_Suites_V2.0.0/GD32F30x_Demo_Suites_V2.0.0/GD32F30x_Firmware_Library/CMSIS/GD/GD32F30x/Source\system_gd32f30x.c **** #endif /* GD32F30X_HD and GD32F30X_XD */
 860:C:/Users/49542/Desktop/GD32F30x_Demo_Suites_V2.0.0/GD32F30x_Demo_Suites_V2.0.0/GD32F30x_Firmware_Library/CMSIS/GD/GD32F30x/Source\system_gd32f30x.c **** 
 861:C:/Users/49542/Desktop/GD32F30x_Demo_Suites_V2.0.0/GD32F30x_Demo_Suites_V2.0.0/GD32F30x_Firmware_Library/CMSIS/GD/GD32F30x/Source\system_gd32f30x.c ****     /* enable PLL */
 862:C:/Users/49542/Desktop/GD32F30x_Demo_Suites_V2.0.0/GD32F30x_Demo_Suites_V2.0.0/GD32F30x_Firmware_Library/CMSIS/GD/GD32F30x/Source\system_gd32f30x.c ****     RCU_CTL |= RCU_CTL_PLLEN;
 249              		.loc 1 862 0
 250 00b4 1F4B     		ldr	r3, .L14
 251 00b6 1B68     		ldr	r3, [r3]
 252 00b8 1E4A     		ldr	r2, .L14
 253 00ba 43F08073 		orr	r3, r3, #16777216
 254 00be 1360     		str	r3, [r2]
 863:C:/Users/49542/Desktop/GD32F30x_Demo_Suites_V2.0.0/GD32F30x_Demo_Suites_V2.0.0/GD32F30x_Firmware_Library/CMSIS/GD/GD32F30x/Source\system_gd32f30x.c **** 
 864:C:/Users/49542/Desktop/GD32F30x_Demo_Suites_V2.0.0/GD32F30x_Demo_Suites_V2.0.0/GD32F30x_Firmware_Library/CMSIS/GD/GD32F30x/Source\system_gd32f30x.c ****     /* wait until PLL is stable */
 865:C:/Users/49542/Desktop/GD32F30x_Demo_Suites_V2.0.0/GD32F30x_Demo_Suites_V2.0.0/GD32F30x_Firmware_Library/CMSIS/GD/GD32F30x/Source\system_gd32f30x.c ****     while(0U == (RCU_CTL & RCU_CTL_PLLSTB)){
 255              		.loc 1 865 0
 256 00c0 00BF     		nop
 257              	.L10:
 258              		.loc 1 865 0 is_stmt 0 discriminator 1
 259 00c2 1C4B     		ldr	r3, .L14
 260 00c4 1B68     		ldr	r3, [r3]
 261 00c6 03F00073 		and	r3, r3, #33554432
 262 00ca 002B     		cmp	r3, #0
 263 00cc F9D0     		beq	.L10
 866:C:/Users/49542/Desktop/GD32F30x_Demo_Suites_V2.0.0/GD32F30x_Demo_Suites_V2.0.0/GD32F30x_Firmware_Library/CMSIS/GD/GD32F30x/Source\system_gd32f30x.c ****     }
 867:C:/Users/49542/Desktop/GD32F30x_Demo_Suites_V2.0.0/GD32F30x_Demo_Suites_V2.0.0/GD32F30x_Firmware_Library/CMSIS/GD/GD32F30x/Source\system_gd32f30x.c **** 
 868:C:/Users/49542/Desktop/GD32F30x_Demo_Suites_V2.0.0/GD32F30x_Demo_Suites_V2.0.0/GD32F30x_Firmware_Library/CMSIS/GD/GD32F30x/Source\system_gd32f30x.c ****     /* enable the high-drive to extend the clock frequency to 120 MHz */
 869:C:/Users/49542/Desktop/GD32F30x_Demo_Suites_V2.0.0/GD32F30x_Demo_Suites_V2.0.0/GD32F30x_Firmware_Library/CMSIS/GD/GD32F30x/Source\system_gd32f30x.c ****     PMU_CTL |= PMU_CTL_HDEN;
 264              		.loc 1 869 0 is_stmt 1
 265 00ce 1B4B     		ldr	r3, .L14+8
 266 00d0 1B68     		ldr	r3, [r3]
 267 00d2 1A4A     		ldr	r2, .L14+8
 268 00d4 43F48033 		orr	r3, r3, #65536
 269 00d8 1360     		str	r3, [r2]
 870:C:/Users/49542/Desktop/GD32F30x_Demo_Suites_V2.0.0/GD32F30x_Demo_Suites_V2.0.0/GD32F30x_Firmware_Library/CMSIS/GD/GD32F30x/Source\system_gd32f30x.c ****     while(0U == (PMU_CS & PMU_CS_HDRF)){
 270              		.loc 1 870 0
 271 00da 00BF     		nop
 272              	.L11:
 273              		.loc 1 870 0 is_stmt 0 discriminator 1
 274 00dc 194B     		ldr	r3, .L14+16
 275 00de 1B68     		ldr	r3, [r3]
 276 00e0 03F48033 		and	r3, r3, #65536
 277 00e4 002B     		cmp	r3, #0
ARM GAS  C:\Users\49542\AppData\Local\Temp\ccT3FCLy.s 			page 21


 278 00e6 F9D0     		beq	.L11
 871:C:/Users/49542/Desktop/GD32F30x_Demo_Suites_V2.0.0/GD32F30x_Demo_Suites_V2.0.0/GD32F30x_Firmware_Library/CMSIS/GD/GD32F30x/Source\system_gd32f30x.c ****     }
 872:C:/Users/49542/Desktop/GD32F30x_Demo_Suites_V2.0.0/GD32F30x_Demo_Suites_V2.0.0/GD32F30x_Firmware_Library/CMSIS/GD/GD32F30x/Source\system_gd32f30x.c **** 
 873:C:/Users/49542/Desktop/GD32F30x_Demo_Suites_V2.0.0/GD32F30x_Demo_Suites_V2.0.0/GD32F30x_Firmware_Library/CMSIS/GD/GD32F30x/Source\system_gd32f30x.c ****     /* select the high-drive mode */
 874:C:/Users/49542/Desktop/GD32F30x_Demo_Suites_V2.0.0/GD32F30x_Demo_Suites_V2.0.0/GD32F30x_Firmware_Library/CMSIS/GD/GD32F30x/Source\system_gd32f30x.c ****     PMU_CTL |= PMU_CTL_HDS;
 279              		.loc 1 874 0 is_stmt 1
 280 00e8 144B     		ldr	r3, .L14+8
 281 00ea 1B68     		ldr	r3, [r3]
 282 00ec 134A     		ldr	r2, .L14+8
 283 00ee 43F40033 		orr	r3, r3, #131072
 284 00f2 1360     		str	r3, [r2]
 875:C:/Users/49542/Desktop/GD32F30x_Demo_Suites_V2.0.0/GD32F30x_Demo_Suites_V2.0.0/GD32F30x_Firmware_Library/CMSIS/GD/GD32F30x/Source\system_gd32f30x.c ****     while(0U == (PMU_CS & PMU_CS_HDSRF)){
 285              		.loc 1 875 0
 286 00f4 00BF     		nop
 287              	.L12:
 288              		.loc 1 875 0 is_stmt 0 discriminator 1
 289 00f6 134B     		ldr	r3, .L14+16
 290 00f8 1B68     		ldr	r3, [r3]
 291 00fa 03F40033 		and	r3, r3, #131072
 292 00fe 002B     		cmp	r3, #0
 293 0100 F9D0     		beq	.L12
 876:C:/Users/49542/Desktop/GD32F30x_Demo_Suites_V2.0.0/GD32F30x_Demo_Suites_V2.0.0/GD32F30x_Firmware_Library/CMSIS/GD/GD32F30x/Source\system_gd32f30x.c ****     }
 877:C:/Users/49542/Desktop/GD32F30x_Demo_Suites_V2.0.0/GD32F30x_Demo_Suites_V2.0.0/GD32F30x_Firmware_Library/CMSIS/GD/GD32F30x/Source\system_gd32f30x.c **** 
 878:C:/Users/49542/Desktop/GD32F30x_Demo_Suites_V2.0.0/GD32F30x_Demo_Suites_V2.0.0/GD32F30x_Firmware_Library/CMSIS/GD/GD32F30x/Source\system_gd32f30x.c ****     /* select PLL as system clock */
 879:C:/Users/49542/Desktop/GD32F30x_Demo_Suites_V2.0.0/GD32F30x_Demo_Suites_V2.0.0/GD32F30x_Firmware_Library/CMSIS/GD/GD32F30x/Source\system_gd32f30x.c ****     RCU_CFG0 &= ~RCU_CFG0_SCS;
 294              		.loc 1 879 0 is_stmt 1
 295 0102 0F4B     		ldr	r3, .L14+12
 296 0104 1B68     		ldr	r3, [r3]
 297 0106 0E4A     		ldr	r2, .L14+12
 298 0108 23F00303 		bic	r3, r3, #3
 299 010c 1360     		str	r3, [r2]
 880:C:/Users/49542/Desktop/GD32F30x_Demo_Suites_V2.0.0/GD32F30x_Demo_Suites_V2.0.0/GD32F30x_Firmware_Library/CMSIS/GD/GD32F30x/Source\system_gd32f30x.c ****     RCU_CFG0 |= RCU_CKSYSSRC_PLL;
 300              		.loc 1 880 0
 301 010e 0C4B     		ldr	r3, .L14+12
 302 0110 1B68     		ldr	r3, [r3]
 303 0112 0B4A     		ldr	r2, .L14+12
 304 0114 43F00203 		orr	r3, r3, #2
 305 0118 1360     		str	r3, [r2]
 881:C:/Users/49542/Desktop/GD32F30x_Demo_Suites_V2.0.0/GD32F30x_Demo_Suites_V2.0.0/GD32F30x_Firmware_Library/CMSIS/GD/GD32F30x/Source\system_gd32f30x.c **** 
 882:C:/Users/49542/Desktop/GD32F30x_Demo_Suites_V2.0.0/GD32F30x_Demo_Suites_V2.0.0/GD32F30x_Firmware_Library/CMSIS/GD/GD32F30x/Source\system_gd32f30x.c ****     /* wait until PLL is selected as system clock */
 883:C:/Users/49542/Desktop/GD32F30x_Demo_Suites_V2.0.0/GD32F30x_Demo_Suites_V2.0.0/GD32F30x_Firmware_Library/CMSIS/GD/GD32F30x/Source\system_gd32f30x.c ****     while(0U == (RCU_CFG0 & RCU_SCSS_PLL)){
 306              		.loc 1 883 0
 307 011a 00BF     		nop
 308              	.L13:
 309              		.loc 1 883 0 is_stmt 0 discriminator 1
 310 011c 084B     		ldr	r3, .L14+12
 311 011e 1B68     		ldr	r3, [r3]
 312 0120 03F00803 		and	r3, r3, #8
 313 0124 002B     		cmp	r3, #0
 314 0126 F9D0     		beq	.L13
 884:C:/Users/49542/Desktop/GD32F30x_Demo_Suites_V2.0.0/GD32F30x_Demo_Suites_V2.0.0/GD32F30x_Firmware_Library/CMSIS/GD/GD32F30x/Source\system_gd32f30x.c ****     }
 885:C:/Users/49542/Desktop/GD32F30x_Demo_Suites_V2.0.0/GD32F30x_Demo_Suites_V2.0.0/GD32F30x_Firmware_Library/CMSIS/GD/GD32F30x/Source\system_gd32f30x.c **** }
 315              		.loc 1 885 0 is_stmt 1
 316 0128 00BF     		nop
 317 012a 0C37     		adds	r7, r7, #12
 318              	.LCFI7:
 319              		.cfi_def_cfa_offset 4
ARM GAS  C:\Users\49542\AppData\Local\Temp\ccT3FCLy.s 			page 22


 320 012c BD46     		mov	sp, r7
 321              	.LCFI8:
 322              		.cfi_def_cfa_register 13
 323              		@ sp needed
 324 012e 5DF8047B 		ldr	r7, [sp], #4
 325              	.LCFI9:
 326              		.cfi_restore 7
 327              		.cfi_def_cfa_offset 0
 328 0132 7047     		bx	lr
 329              	.L15:
 330              		.align	2
 331              	.L14:
 332 0134 00100240 		.word	1073876992
 333 0138 1C100240 		.word	1073877020
 334 013c 00700040 		.word	1073770496
 335 0140 04100240 		.word	1073876996
 336 0144 04700040 		.word	1073770500
 337              		.cfi_endproc
 338              	.LFE118:
 340              		.section	.text.SystemCoreClockUpdate,"ax",%progbits
 341              		.align	1
 342              		.global	SystemCoreClockUpdate
 343              		.syntax unified
 344              		.thumb
 345              		.thumb_func
 346              		.fpu fpv4-sp-d16
 348              	SystemCoreClockUpdate:
 349              	.LFB119:
 886:C:/Users/49542/Desktop/GD32F30x_Demo_Suites_V2.0.0/GD32F30x_Demo_Suites_V2.0.0/GD32F30x_Firmware_Library/CMSIS/GD/GD32F30x/Source\system_gd32f30x.c **** #endif /* __SYSTEM_CLOCK_IRC8M */
 887:C:/Users/49542/Desktop/GD32F30x_Demo_Suites_V2.0.0/GD32F30x_Demo_Suites_V2.0.0/GD32F30x_Firmware_Library/CMSIS/GD/GD32F30x/Source\system_gd32f30x.c **** 
 888:C:/Users/49542/Desktop/GD32F30x_Demo_Suites_V2.0.0/GD32F30x_Demo_Suites_V2.0.0/GD32F30x_Firmware_Library/CMSIS/GD/GD32F30x/Source\system_gd32f30x.c **** /*!
 889:C:/Users/49542/Desktop/GD32F30x_Demo_Suites_V2.0.0/GD32F30x_Demo_Suites_V2.0.0/GD32F30x_Firmware_Library/CMSIS/GD/GD32F30x/Source\system_gd32f30x.c ****     \brief      update the SystemCoreClock with current core clock retrieved from cpu registers
 890:C:/Users/49542/Desktop/GD32F30x_Demo_Suites_V2.0.0/GD32F30x_Demo_Suites_V2.0.0/GD32F30x_Firmware_Library/CMSIS/GD/GD32F30x/Source\system_gd32f30x.c ****     \param[in]  none
 891:C:/Users/49542/Desktop/GD32F30x_Demo_Suites_V2.0.0/GD32F30x_Demo_Suites_V2.0.0/GD32F30x_Firmware_Library/CMSIS/GD/GD32F30x/Source\system_gd32f30x.c ****     \param[out] none
 892:C:/Users/49542/Desktop/GD32F30x_Demo_Suites_V2.0.0/GD32F30x_Demo_Suites_V2.0.0/GD32F30x_Firmware_Library/CMSIS/GD/GD32F30x/Source\system_gd32f30x.c ****     \retval     none
 893:C:/Users/49542/Desktop/GD32F30x_Demo_Suites_V2.0.0/GD32F30x_Demo_Suites_V2.0.0/GD32F30x_Firmware_Library/CMSIS/GD/GD32F30x/Source\system_gd32f30x.c **** */
 894:C:/Users/49542/Desktop/GD32F30x_Demo_Suites_V2.0.0/GD32F30x_Demo_Suites_V2.0.0/GD32F30x_Firmware_Library/CMSIS/GD/GD32F30x/Source\system_gd32f30x.c **** void SystemCoreClockUpdate (void)
 895:C:/Users/49542/Desktop/GD32F30x_Demo_Suites_V2.0.0/GD32F30x_Demo_Suites_V2.0.0/GD32F30x_Firmware_Library/CMSIS/GD/GD32F30x/Source\system_gd32f30x.c **** {
 350              		.loc 1 895 0
 351              		.cfi_startproc
 352              		@ args = 0, pretend = 0, frame = 24
 353              		@ frame_needed = 1, uses_anonymous_args = 0
 354              		@ link register save eliminated.
 355 0000 80B4     		push	{r7}
 356              	.LCFI10:
 357              		.cfi_def_cfa_offset 4
 358              		.cfi_offset 7, -4
 359 0002 87B0     		sub	sp, sp, #28
 360              	.LCFI11:
 361              		.cfi_def_cfa_offset 32
 362 0004 00AF     		add	r7, sp, #0
 363              	.LCFI12:
 364              		.cfi_def_cfa_register 7
 896:C:/Users/49542/Desktop/GD32F30x_Demo_Suites_V2.0.0/GD32F30x_Demo_Suites_V2.0.0/GD32F30x_Firmware_Library/CMSIS/GD/GD32F30x/Source\system_gd32f30x.c ****     uint32_t sws;
 897:C:/Users/49542/Desktop/GD32F30x_Demo_Suites_V2.0.0/GD32F30x_Demo_Suites_V2.0.0/GD32F30x_Firmware_Library/CMSIS/GD/GD32F30x/Source\system_gd32f30x.c ****     uint32_t pllsel, pllpresel, predv0sel, pllmf,ck_src;
 898:C:/Users/49542/Desktop/GD32F30x_Demo_Suites_V2.0.0/GD32F30x_Demo_Suites_V2.0.0/GD32F30x_Firmware_Library/CMSIS/GD/GD32F30x/Source\system_gd32f30x.c **** #ifdef GD32F30X_CL
 899:C:/Users/49542/Desktop/GD32F30x_Demo_Suites_V2.0.0/GD32F30x_Demo_Suites_V2.0.0/GD32F30x_Firmware_Library/CMSIS/GD/GD32F30x/Source\system_gd32f30x.c ****     uint32_t predv0, predv1, pll1mf;
ARM GAS  C:\Users\49542\AppData\Local\Temp\ccT3FCLy.s 			page 23


 900:C:/Users/49542/Desktop/GD32F30x_Demo_Suites_V2.0.0/GD32F30x_Demo_Suites_V2.0.0/GD32F30x_Firmware_Library/CMSIS/GD/GD32F30x/Source\system_gd32f30x.c **** #endif /* GD32F30X_CL */
 901:C:/Users/49542/Desktop/GD32F30x_Demo_Suites_V2.0.0/GD32F30x_Demo_Suites_V2.0.0/GD32F30x_Firmware_Library/CMSIS/GD/GD32F30x/Source\system_gd32f30x.c **** 
 902:C:/Users/49542/Desktop/GD32F30x_Demo_Suites_V2.0.0/GD32F30x_Demo_Suites_V2.0.0/GD32F30x_Firmware_Library/CMSIS/GD/GD32F30x/Source\system_gd32f30x.c ****     sws = GET_BITS(RCU_CFG0, 2, 3);
 365              		.loc 1 902 0
 366 0006 3A4B     		ldr	r3, .L33
 367 0008 1B68     		ldr	r3, [r3]
 368 000a 9B08     		lsrs	r3, r3, #2
 369 000c 03F00303 		and	r3, r3, #3
 370 0010 FB60     		str	r3, [r7, #12]
 903:C:/Users/49542/Desktop/GD32F30x_Demo_Suites_V2.0.0/GD32F30x_Demo_Suites_V2.0.0/GD32F30x_Firmware_Library/CMSIS/GD/GD32F30x/Source\system_gd32f30x.c ****     switch(sws){
 371              		.loc 1 903 0
 372 0012 FB68     		ldr	r3, [r7, #12]
 373 0014 012B     		cmp	r3, #1
 374 0016 08D0     		beq	.L18
 375 0018 012B     		cmp	r3, #1
 376 001a 02D3     		bcc	.L19
 377 001c 022B     		cmp	r3, #2
 378 001e 08D0     		beq	.L20
 379 0020 5BE0     		b	.L32
 380              	.L19:
 904:C:/Users/49542/Desktop/GD32F30x_Demo_Suites_V2.0.0/GD32F30x_Demo_Suites_V2.0.0/GD32F30x_Firmware_Library/CMSIS/GD/GD32F30x/Source\system_gd32f30x.c ****     /* IRC8M is selected as CK_SYS */
 905:C:/Users/49542/Desktop/GD32F30x_Demo_Suites_V2.0.0/GD32F30x_Demo_Suites_V2.0.0/GD32F30x_Firmware_Library/CMSIS/GD/GD32F30x/Source\system_gd32f30x.c ****     case SEL_IRC8M:
 906:C:/Users/49542/Desktop/GD32F30x_Demo_Suites_V2.0.0/GD32F30x_Demo_Suites_V2.0.0/GD32F30x_Firmware_Library/CMSIS/GD/GD32F30x/Source\system_gd32f30x.c ****         SystemCoreClock = IRC8M_VALUE;
 381              		.loc 1 906 0
 382 0022 344B     		ldr	r3, .L33+4
 383 0024 344A     		ldr	r2, .L33+8
 384 0026 1A60     		str	r2, [r3]
 907:C:/Users/49542/Desktop/GD32F30x_Demo_Suites_V2.0.0/GD32F30x_Demo_Suites_V2.0.0/GD32F30x_Firmware_Library/CMSIS/GD/GD32F30x/Source\system_gd32f30x.c ****         break;
 385              		.loc 1 907 0
 386 0028 5BE0     		b	.L21
 387              	.L18:
 908:C:/Users/49542/Desktop/GD32F30x_Demo_Suites_V2.0.0/GD32F30x_Demo_Suites_V2.0.0/GD32F30x_Firmware_Library/CMSIS/GD/GD32F30x/Source\system_gd32f30x.c ****     /* HXTAL is selected as CK_SYS */
 909:C:/Users/49542/Desktop/GD32F30x_Demo_Suites_V2.0.0/GD32F30x_Demo_Suites_V2.0.0/GD32F30x_Firmware_Library/CMSIS/GD/GD32F30x/Source\system_gd32f30x.c ****     case SEL_HXTAL:
 910:C:/Users/49542/Desktop/GD32F30x_Demo_Suites_V2.0.0/GD32F30x_Demo_Suites_V2.0.0/GD32F30x_Firmware_Library/CMSIS/GD/GD32F30x/Source\system_gd32f30x.c ****         SystemCoreClock = HXTAL_VALUE;
 388              		.loc 1 910 0
 389 002a 324B     		ldr	r3, .L33+4
 390 002c 324A     		ldr	r2, .L33+8
 391 002e 1A60     		str	r2, [r3]
 911:C:/Users/49542/Desktop/GD32F30x_Demo_Suites_V2.0.0/GD32F30x_Demo_Suites_V2.0.0/GD32F30x_Firmware_Library/CMSIS/GD/GD32F30x/Source\system_gd32f30x.c ****         break;
 392              		.loc 1 911 0
 393 0030 57E0     		b	.L21
 394              	.L20:
 912:C:/Users/49542/Desktop/GD32F30x_Demo_Suites_V2.0.0/GD32F30x_Demo_Suites_V2.0.0/GD32F30x_Firmware_Library/CMSIS/GD/GD32F30x/Source\system_gd32f30x.c ****     /* PLL is selected as CK_SYS */
 913:C:/Users/49542/Desktop/GD32F30x_Demo_Suites_V2.0.0/GD32F30x_Demo_Suites_V2.0.0/GD32F30x_Firmware_Library/CMSIS/GD/GD32F30x/Source\system_gd32f30x.c ****     case SEL_PLL:
 914:C:/Users/49542/Desktop/GD32F30x_Demo_Suites_V2.0.0/GD32F30x_Demo_Suites_V2.0.0/GD32F30x_Firmware_Library/CMSIS/GD/GD32F30x/Source\system_gd32f30x.c ****         /* PLL clock source selection, HXTAL, IRC48M or IRC8M/2 */
 915:C:/Users/49542/Desktop/GD32F30x_Demo_Suites_V2.0.0/GD32F30x_Demo_Suites_V2.0.0/GD32F30x_Firmware_Library/CMSIS/GD/GD32F30x/Source\system_gd32f30x.c ****         pllsel = (RCU_CFG0 & RCU_CFG0_PLLSEL);
 395              		.loc 1 915 0
 396 0032 2F4B     		ldr	r3, .L33
 397 0034 1B68     		ldr	r3, [r3]
 398 0036 03F48033 		and	r3, r3, #65536
 399 003a BB60     		str	r3, [r7, #8]
 916:C:/Users/49542/Desktop/GD32F30x_Demo_Suites_V2.0.0/GD32F30x_Demo_Suites_V2.0.0/GD32F30x_Firmware_Library/CMSIS/GD/GD32F30x/Source\system_gd32f30x.c **** 
 917:C:/Users/49542/Desktop/GD32F30x_Demo_Suites_V2.0.0/GD32F30x_Demo_Suites_V2.0.0/GD32F30x_Firmware_Library/CMSIS/GD/GD32F30x/Source\system_gd32f30x.c ****         if (RCU_PLLSRC_HXTAL_IRC48M == pllsel) {
 400              		.loc 1 917 0
 401 003c BB68     		ldr	r3, [r7, #8]
 402 003e B3F5803F 		cmp	r3, #65536
 403 0042 18D1     		bne	.L22
ARM GAS  C:\Users\49542\AppData\Local\Temp\ccT3FCLy.s 			page 24


 918:C:/Users/49542/Desktop/GD32F30x_Demo_Suites_V2.0.0/GD32F30x_Demo_Suites_V2.0.0/GD32F30x_Firmware_Library/CMSIS/GD/GD32F30x/Source\system_gd32f30x.c ****             /* PLL clock source is HXTAL or IRC48M */
 919:C:/Users/49542/Desktop/GD32F30x_Demo_Suites_V2.0.0/GD32F30x_Demo_Suites_V2.0.0/GD32F30x_Firmware_Library/CMSIS/GD/GD32F30x/Source\system_gd32f30x.c ****             pllpresel = (RCU_CFG1 & RCU_CFG1_PLLPRESEL);
 404              		.loc 1 919 0
 405 0044 2D4B     		ldr	r3, .L33+12
 406 0046 1B68     		ldr	r3, [r3]
 407 0048 03F08043 		and	r3, r3, #1073741824
 408 004c 7B60     		str	r3, [r7, #4]
 920:C:/Users/49542/Desktop/GD32F30x_Demo_Suites_V2.0.0/GD32F30x_Demo_Suites_V2.0.0/GD32F30x_Firmware_Library/CMSIS/GD/GD32F30x/Source\system_gd32f30x.c ****             
 921:C:/Users/49542/Desktop/GD32F30x_Demo_Suites_V2.0.0/GD32F30x_Demo_Suites_V2.0.0/GD32F30x_Firmware_Library/CMSIS/GD/GD32F30x/Source\system_gd32f30x.c ****             if(RCU_PLLPRESRC_HXTAL == pllpresel){
 409              		.loc 1 921 0
 410 004e 7B68     		ldr	r3, [r7, #4]
 411 0050 002B     		cmp	r3, #0
 412 0052 02D1     		bne	.L23
 922:C:/Users/49542/Desktop/GD32F30x_Demo_Suites_V2.0.0/GD32F30x_Demo_Suites_V2.0.0/GD32F30x_Firmware_Library/CMSIS/GD/GD32F30x/Source\system_gd32f30x.c ****                 /* PLL clock source is HXTAL */
 923:C:/Users/49542/Desktop/GD32F30x_Demo_Suites_V2.0.0/GD32F30x_Demo_Suites_V2.0.0/GD32F30x_Firmware_Library/CMSIS/GD/GD32F30x/Source\system_gd32f30x.c ****                 ck_src = HXTAL_VALUE;
 413              		.loc 1 923 0
 414 0054 284B     		ldr	r3, .L33+8
 415 0056 3B61     		str	r3, [r7, #16]
 416 0058 01E0     		b	.L24
 417              	.L23:
 924:C:/Users/49542/Desktop/GD32F30x_Demo_Suites_V2.0.0/GD32F30x_Demo_Suites_V2.0.0/GD32F30x_Firmware_Library/CMSIS/GD/GD32F30x/Source\system_gd32f30x.c ****             }else{
 925:C:/Users/49542/Desktop/GD32F30x_Demo_Suites_V2.0.0/GD32F30x_Demo_Suites_V2.0.0/GD32F30x_Firmware_Library/CMSIS/GD/GD32F30x/Source\system_gd32f30x.c ****                 /* PLL clock source is IRC48 */
 926:C:/Users/49542/Desktop/GD32F30x_Demo_Suites_V2.0.0/GD32F30x_Demo_Suites_V2.0.0/GD32F30x_Firmware_Library/CMSIS/GD/GD32F30x/Source\system_gd32f30x.c ****                 ck_src = IRC48M_VALUE;
 418              		.loc 1 926 0
 419 005a 294B     		ldr	r3, .L33+16
 420 005c 3B61     		str	r3, [r7, #16]
 421              	.L24:
 927:C:/Users/49542/Desktop/GD32F30x_Demo_Suites_V2.0.0/GD32F30x_Demo_Suites_V2.0.0/GD32F30x_Firmware_Library/CMSIS/GD/GD32F30x/Source\system_gd32f30x.c ****             }
 928:C:/Users/49542/Desktop/GD32F30x_Demo_Suites_V2.0.0/GD32F30x_Demo_Suites_V2.0.0/GD32F30x_Firmware_Library/CMSIS/GD/GD32F30x/Source\system_gd32f30x.c **** 
 929:C:/Users/49542/Desktop/GD32F30x_Demo_Suites_V2.0.0/GD32F30x_Demo_Suites_V2.0.0/GD32F30x_Firmware_Library/CMSIS/GD/GD32F30x/Source\system_gd32f30x.c **** #if (defined(GD32F30X_HD) || defined(GD32F30X_XD))
 930:C:/Users/49542/Desktop/GD32F30x_Demo_Suites_V2.0.0/GD32F30x_Demo_Suites_V2.0.0/GD32F30x_Firmware_Library/CMSIS/GD/GD32F30x/Source\system_gd32f30x.c ****             predv0sel = (RCU_CFG0 & RCU_CFG0_PREDV0);
 422              		.loc 1 930 0
 423 005e 244B     		ldr	r3, .L33
 424 0060 1B68     		ldr	r3, [r3]
 425 0062 03F40033 		and	r3, r3, #131072
 426 0066 3B60     		str	r3, [r7]
 931:C:/Users/49542/Desktop/GD32F30x_Demo_Suites_V2.0.0/GD32F30x_Demo_Suites_V2.0.0/GD32F30x_Firmware_Library/CMSIS/GD/GD32F30x/Source\system_gd32f30x.c ****             /* PREDV0 input source clock divided by 2 */
 932:C:/Users/49542/Desktop/GD32F30x_Demo_Suites_V2.0.0/GD32F30x_Demo_Suites_V2.0.0/GD32F30x_Firmware_Library/CMSIS/GD/GD32F30x/Source\system_gd32f30x.c ****             if(RCU_CFG0_PREDV0 == predv0sel){
 427              		.loc 1 932 0
 428 0068 3B68     		ldr	r3, [r7]
 429 006a B3F5003F 		cmp	r3, #131072
 430 006e 04D1     		bne	.L26
 933:C:/Users/49542/Desktop/GD32F30x_Demo_Suites_V2.0.0/GD32F30x_Demo_Suites_V2.0.0/GD32F30x_Firmware_Library/CMSIS/GD/GD32F30x/Source\system_gd32f30x.c ****                 ck_src = HXTAL_VALUE/2U;
 431              		.loc 1 933 0
 432 0070 244B     		ldr	r3, .L33+20
 433 0072 3B61     		str	r3, [r7, #16]
 434 0074 01E0     		b	.L26
 435              	.L22:
 934:C:/Users/49542/Desktop/GD32F30x_Demo_Suites_V2.0.0/GD32F30x_Demo_Suites_V2.0.0/GD32F30x_Firmware_Library/CMSIS/GD/GD32F30x/Source\system_gd32f30x.c ****             }
 935:C:/Users/49542/Desktop/GD32F30x_Demo_Suites_V2.0.0/GD32F30x_Demo_Suites_V2.0.0/GD32F30x_Firmware_Library/CMSIS/GD/GD32F30x/Source\system_gd32f30x.c **** #elif defined(GD32F30X_CL)
 936:C:/Users/49542/Desktop/GD32F30x_Demo_Suites_V2.0.0/GD32F30x_Demo_Suites_V2.0.0/GD32F30x_Firmware_Library/CMSIS/GD/GD32F30x/Source\system_gd32f30x.c ****             predv0sel = (RCU_CFG1 & RCU_CFG1_PREDV0SEL);
 937:C:/Users/49542/Desktop/GD32F30x_Demo_Suites_V2.0.0/GD32F30x_Demo_Suites_V2.0.0/GD32F30x_Firmware_Library/CMSIS/GD/GD32F30x/Source\system_gd32f30x.c ****             /* source clock use PLL1 */
 938:C:/Users/49542/Desktop/GD32F30x_Demo_Suites_V2.0.0/GD32F30x_Demo_Suites_V2.0.0/GD32F30x_Firmware_Library/CMSIS/GD/GD32F30x/Source\system_gd32f30x.c ****             if(RCU_PREDV0SRC_CKPLL1 == predv0sel){
 939:C:/Users/49542/Desktop/GD32F30x_Demo_Suites_V2.0.0/GD32F30x_Demo_Suites_V2.0.0/GD32F30x_Firmware_Library/CMSIS/GD/GD32F30x/Source\system_gd32f30x.c ****                 predv1 = ((RCU_CFG1 & RCU_CFG1_PREDV1) >> 4) + 1U;
 940:C:/Users/49542/Desktop/GD32F30x_Demo_Suites_V2.0.0/GD32F30x_Demo_Suites_V2.0.0/GD32F30x_Firmware_Library/CMSIS/GD/GD32F30x/Source\system_gd32f30x.c ****                 pll1mf = ((RCU_CFG1 & RCU_CFG1_PLL1MF) >> 8) + 2U;
 941:C:/Users/49542/Desktop/GD32F30x_Demo_Suites_V2.0.0/GD32F30x_Demo_Suites_V2.0.0/GD32F30x_Firmware_Library/CMSIS/GD/GD32F30x/Source\system_gd32f30x.c ****                 if(17U == pll1mf){
 942:C:/Users/49542/Desktop/GD32F30x_Demo_Suites_V2.0.0/GD32F30x_Demo_Suites_V2.0.0/GD32F30x_Firmware_Library/CMSIS/GD/GD32F30x/Source\system_gd32f30x.c ****                     pll1mf = 20U;
ARM GAS  C:\Users\49542\AppData\Local\Temp\ccT3FCLy.s 			page 25


 943:C:/Users/49542/Desktop/GD32F30x_Demo_Suites_V2.0.0/GD32F30x_Demo_Suites_V2.0.0/GD32F30x_Firmware_Library/CMSIS/GD/GD32F30x/Source\system_gd32f30x.c ****                 }
 944:C:/Users/49542/Desktop/GD32F30x_Demo_Suites_V2.0.0/GD32F30x_Demo_Suites_V2.0.0/GD32F30x_Firmware_Library/CMSIS/GD/GD32F30x/Source\system_gd32f30x.c ****                 ck_src = (ck_src/predv1)*pll1mf;
 945:C:/Users/49542/Desktop/GD32F30x_Demo_Suites_V2.0.0/GD32F30x_Demo_Suites_V2.0.0/GD32F30x_Firmware_Library/CMSIS/GD/GD32F30x/Source\system_gd32f30x.c ****             }
 946:C:/Users/49542/Desktop/GD32F30x_Demo_Suites_V2.0.0/GD32F30x_Demo_Suites_V2.0.0/GD32F30x_Firmware_Library/CMSIS/GD/GD32F30x/Source\system_gd32f30x.c ****             predv0 = (RCU_CFG1 & RCU_CFG1_PREDV0) + 1U;
 947:C:/Users/49542/Desktop/GD32F30x_Demo_Suites_V2.0.0/GD32F30x_Demo_Suites_V2.0.0/GD32F30x_Firmware_Library/CMSIS/GD/GD32F30x/Source\system_gd32f30x.c ****             ck_src /= predv0;
 948:C:/Users/49542/Desktop/GD32F30x_Demo_Suites_V2.0.0/GD32F30x_Demo_Suites_V2.0.0/GD32F30x_Firmware_Library/CMSIS/GD/GD32F30x/Source\system_gd32f30x.c **** #endif /* GD32F30X_HD and GD32F30X_XD */
 949:C:/Users/49542/Desktop/GD32F30x_Demo_Suites_V2.0.0/GD32F30x_Demo_Suites_V2.0.0/GD32F30x_Firmware_Library/CMSIS/GD/GD32F30x/Source\system_gd32f30x.c ****         }else{
 950:C:/Users/49542/Desktop/GD32F30x_Demo_Suites_V2.0.0/GD32F30x_Demo_Suites_V2.0.0/GD32F30x_Firmware_Library/CMSIS/GD/GD32F30x/Source\system_gd32f30x.c ****             /* PLL clock source is IRC8M/2 */
 951:C:/Users/49542/Desktop/GD32F30x_Demo_Suites_V2.0.0/GD32F30x_Demo_Suites_V2.0.0/GD32F30x_Firmware_Library/CMSIS/GD/GD32F30x/Source\system_gd32f30x.c ****             ck_src = IRC8M_VALUE/2U;
 436              		.loc 1 951 0
 437 0076 234B     		ldr	r3, .L33+20
 438 0078 3B61     		str	r3, [r7, #16]
 439              	.L26:
 952:C:/Users/49542/Desktop/GD32F30x_Demo_Suites_V2.0.0/GD32F30x_Demo_Suites_V2.0.0/GD32F30x_Firmware_Library/CMSIS/GD/GD32F30x/Source\system_gd32f30x.c ****         }
 953:C:/Users/49542/Desktop/GD32F30x_Demo_Suites_V2.0.0/GD32F30x_Demo_Suites_V2.0.0/GD32F30x_Firmware_Library/CMSIS/GD/GD32F30x/Source\system_gd32f30x.c **** 
 954:C:/Users/49542/Desktop/GD32F30x_Demo_Suites_V2.0.0/GD32F30x_Demo_Suites_V2.0.0/GD32F30x_Firmware_Library/CMSIS/GD/GD32F30x/Source\system_gd32f30x.c ****         /* PLL multiplication factor */
 955:C:/Users/49542/Desktop/GD32F30x_Demo_Suites_V2.0.0/GD32F30x_Demo_Suites_V2.0.0/GD32F30x_Firmware_Library/CMSIS/GD/GD32F30x/Source\system_gd32f30x.c ****         pllmf = GET_BITS(RCU_CFG0, 18, 21);
 440              		.loc 1 955 0
 441 007a 1D4B     		ldr	r3, .L33
 442 007c 1B68     		ldr	r3, [r3]
 443 007e 9B0C     		lsrs	r3, r3, #18
 444 0080 03F00F03 		and	r3, r3, #15
 445 0084 7B61     		str	r3, [r7, #20]
 956:C:/Users/49542/Desktop/GD32F30x_Demo_Suites_V2.0.0/GD32F30x_Demo_Suites_V2.0.0/GD32F30x_Firmware_Library/CMSIS/GD/GD32F30x/Source\system_gd32f30x.c **** 
 957:C:/Users/49542/Desktop/GD32F30x_Demo_Suites_V2.0.0/GD32F30x_Demo_Suites_V2.0.0/GD32F30x_Firmware_Library/CMSIS/GD/GD32F30x/Source\system_gd32f30x.c ****         if((RCU_CFG0 & RCU_CFG0_PLLMF_4)){
 446              		.loc 1 957 0
 447 0086 1A4B     		ldr	r3, .L33
 448 0088 1B68     		ldr	r3, [r3]
 449 008a 03F00063 		and	r3, r3, #134217728
 450 008e 002B     		cmp	r3, #0
 451 0090 03D0     		beq	.L27
 958:C:/Users/49542/Desktop/GD32F30x_Demo_Suites_V2.0.0/GD32F30x_Demo_Suites_V2.0.0/GD32F30x_Firmware_Library/CMSIS/GD/GD32F30x/Source\system_gd32f30x.c ****             pllmf |= 0x10U;
 452              		.loc 1 958 0
 453 0092 7B69     		ldr	r3, [r7, #20]
 454 0094 43F01003 		orr	r3, r3, #16
 455 0098 7B61     		str	r3, [r7, #20]
 456              	.L27:
 959:C:/Users/49542/Desktop/GD32F30x_Demo_Suites_V2.0.0/GD32F30x_Demo_Suites_V2.0.0/GD32F30x_Firmware_Library/CMSIS/GD/GD32F30x/Source\system_gd32f30x.c ****         }
 960:C:/Users/49542/Desktop/GD32F30x_Demo_Suites_V2.0.0/GD32F30x_Demo_Suites_V2.0.0/GD32F30x_Firmware_Library/CMSIS/GD/GD32F30x/Source\system_gd32f30x.c ****         if((RCU_CFG0 & RCU_CFG0_PLLMF_5)){
 457              		.loc 1 960 0
 458 009a 154B     		ldr	r3, .L33
 459 009c 1B68     		ldr	r3, [r3]
 460 009e 03F08043 		and	r3, r3, #1073741824
 461 00a2 002B     		cmp	r3, #0
 462 00a4 03D0     		beq	.L28
 961:C:/Users/49542/Desktop/GD32F30x_Demo_Suites_V2.0.0/GD32F30x_Demo_Suites_V2.0.0/GD32F30x_Firmware_Library/CMSIS/GD/GD32F30x/Source\system_gd32f30x.c ****             pllmf |= 0x20U;
 463              		.loc 1 961 0
 464 00a6 7B69     		ldr	r3, [r7, #20]
 465 00a8 43F02003 		orr	r3, r3, #32
 466 00ac 7B61     		str	r3, [r7, #20]
 467              	.L28:
 962:C:/Users/49542/Desktop/GD32F30x_Demo_Suites_V2.0.0/GD32F30x_Demo_Suites_V2.0.0/GD32F30x_Firmware_Library/CMSIS/GD/GD32F30x/Source\system_gd32f30x.c ****         }
 963:C:/Users/49542/Desktop/GD32F30x_Demo_Suites_V2.0.0/GD32F30x_Demo_Suites_V2.0.0/GD32F30x_Firmware_Library/CMSIS/GD/GD32F30x/Source\system_gd32f30x.c **** 
 964:C:/Users/49542/Desktop/GD32F30x_Demo_Suites_V2.0.0/GD32F30x_Demo_Suites_V2.0.0/GD32F30x_Firmware_Library/CMSIS/GD/GD32F30x/Source\system_gd32f30x.c ****         if( pllmf >= 15U){
 468              		.loc 1 964 0
 469 00ae 7B69     		ldr	r3, [r7, #20]
 470 00b0 0E2B     		cmp	r3, #14
ARM GAS  C:\Users\49542\AppData\Local\Temp\ccT3FCLy.s 			page 26


 471 00b2 03D9     		bls	.L29
 965:C:/Users/49542/Desktop/GD32F30x_Demo_Suites_V2.0.0/GD32F30x_Demo_Suites_V2.0.0/GD32F30x_Firmware_Library/CMSIS/GD/GD32F30x/Source\system_gd32f30x.c ****             pllmf += 1U;
 472              		.loc 1 965 0
 473 00b4 7B69     		ldr	r3, [r7, #20]
 474 00b6 0133     		adds	r3, r3, #1
 475 00b8 7B61     		str	r3, [r7, #20]
 476 00ba 02E0     		b	.L30
 477              	.L29:
 966:C:/Users/49542/Desktop/GD32F30x_Demo_Suites_V2.0.0/GD32F30x_Demo_Suites_V2.0.0/GD32F30x_Firmware_Library/CMSIS/GD/GD32F30x/Source\system_gd32f30x.c ****         }else{
 967:C:/Users/49542/Desktop/GD32F30x_Demo_Suites_V2.0.0/GD32F30x_Demo_Suites_V2.0.0/GD32F30x_Firmware_Library/CMSIS/GD/GD32F30x/Source\system_gd32f30x.c ****             pllmf += 2U;
 478              		.loc 1 967 0
 479 00bc 7B69     		ldr	r3, [r7, #20]
 480 00be 0233     		adds	r3, r3, #2
 481 00c0 7B61     		str	r3, [r7, #20]
 482              	.L30:
 968:C:/Users/49542/Desktop/GD32F30x_Demo_Suites_V2.0.0/GD32F30x_Demo_Suites_V2.0.0/GD32F30x_Firmware_Library/CMSIS/GD/GD32F30x/Source\system_gd32f30x.c ****         }
 969:C:/Users/49542/Desktop/GD32F30x_Demo_Suites_V2.0.0/GD32F30x_Demo_Suites_V2.0.0/GD32F30x_Firmware_Library/CMSIS/GD/GD32F30x/Source\system_gd32f30x.c ****         if(pllmf > 61U){
 483              		.loc 1 969 0
 484 00c2 7B69     		ldr	r3, [r7, #20]
 485 00c4 3D2B     		cmp	r3, #61
 486 00c6 01D9     		bls	.L31
 970:C:/Users/49542/Desktop/GD32F30x_Demo_Suites_V2.0.0/GD32F30x_Demo_Suites_V2.0.0/GD32F30x_Firmware_Library/CMSIS/GD/GD32F30x/Source\system_gd32f30x.c ****             pllmf = 63U;
 487              		.loc 1 970 0
 488 00c8 3F23     		movs	r3, #63
 489 00ca 7B61     		str	r3, [r7, #20]
 490              	.L31:
 971:C:/Users/49542/Desktop/GD32F30x_Demo_Suites_V2.0.0/GD32F30x_Demo_Suites_V2.0.0/GD32F30x_Firmware_Library/CMSIS/GD/GD32F30x/Source\system_gd32f30x.c ****         }
 972:C:/Users/49542/Desktop/GD32F30x_Demo_Suites_V2.0.0/GD32F30x_Demo_Suites_V2.0.0/GD32F30x_Firmware_Library/CMSIS/GD/GD32F30x/Source\system_gd32f30x.c ****         SystemCoreClock = ck_src*pllmf;
 491              		.loc 1 972 0
 492 00cc 3B69     		ldr	r3, [r7, #16]
 493 00ce 7A69     		ldr	r2, [r7, #20]
 494 00d0 02FB03F3 		mul	r3, r2, r3
 495 00d4 074A     		ldr	r2, .L33+4
 496 00d6 1360     		str	r3, [r2]
 973:C:/Users/49542/Desktop/GD32F30x_Demo_Suites_V2.0.0/GD32F30x_Demo_Suites_V2.0.0/GD32F30x_Firmware_Library/CMSIS/GD/GD32F30x/Source\system_gd32f30x.c ****     #ifdef GD32F30X_CL
 974:C:/Users/49542/Desktop/GD32F30x_Demo_Suites_V2.0.0/GD32F30x_Demo_Suites_V2.0.0/GD32F30x_Firmware_Library/CMSIS/GD/GD32F30x/Source\system_gd32f30x.c ****         if(15U == pllmf){
 975:C:/Users/49542/Desktop/GD32F30x_Demo_Suites_V2.0.0/GD32F30x_Demo_Suites_V2.0.0/GD32F30x_Firmware_Library/CMSIS/GD/GD32F30x/Source\system_gd32f30x.c ****             SystemCoreClock = ck_src*6U + ck_src/2U;
 976:C:/Users/49542/Desktop/GD32F30x_Demo_Suites_V2.0.0/GD32F30x_Demo_Suites_V2.0.0/GD32F30x_Firmware_Library/CMSIS/GD/GD32F30x/Source\system_gd32f30x.c ****         }
 977:C:/Users/49542/Desktop/GD32F30x_Demo_Suites_V2.0.0/GD32F30x_Demo_Suites_V2.0.0/GD32F30x_Firmware_Library/CMSIS/GD/GD32F30x/Source\system_gd32f30x.c ****     #endif /* GD32F30X_CL */
 978:C:/Users/49542/Desktop/GD32F30x_Demo_Suites_V2.0.0/GD32F30x_Demo_Suites_V2.0.0/GD32F30x_Firmware_Library/CMSIS/GD/GD32F30x/Source\system_gd32f30x.c **** 
 979:C:/Users/49542/Desktop/GD32F30x_Demo_Suites_V2.0.0/GD32F30x_Demo_Suites_V2.0.0/GD32F30x_Firmware_Library/CMSIS/GD/GD32F30x/Source\system_gd32f30x.c ****         break;
 497              		.loc 1 979 0
 498 00d8 03E0     		b	.L21
 499              	.L32:
 980:C:/Users/49542/Desktop/GD32F30x_Demo_Suites_V2.0.0/GD32F30x_Demo_Suites_V2.0.0/GD32F30x_Firmware_Library/CMSIS/GD/GD32F30x/Source\system_gd32f30x.c ****     /* IRC8M is selected as CK_SYS */
 981:C:/Users/49542/Desktop/GD32F30x_Demo_Suites_V2.0.0/GD32F30x_Demo_Suites_V2.0.0/GD32F30x_Firmware_Library/CMSIS/GD/GD32F30x/Source\system_gd32f30x.c ****     default:
 982:C:/Users/49542/Desktop/GD32F30x_Demo_Suites_V2.0.0/GD32F30x_Demo_Suites_V2.0.0/GD32F30x_Firmware_Library/CMSIS/GD/GD32F30x/Source\system_gd32f30x.c ****         SystemCoreClock = IRC8M_VALUE;
 500              		.loc 1 982 0
 501 00da 064B     		ldr	r3, .L33+4
 502 00dc 064A     		ldr	r2, .L33+8
 503 00de 1A60     		str	r2, [r3]
 983:C:/Users/49542/Desktop/GD32F30x_Demo_Suites_V2.0.0/GD32F30x_Demo_Suites_V2.0.0/GD32F30x_Firmware_Library/CMSIS/GD/GD32F30x/Source\system_gd32f30x.c ****         break;
 504              		.loc 1 983 0
 505 00e0 00BF     		nop
 506              	.L21:
 984:C:/Users/49542/Desktop/GD32F30x_Demo_Suites_V2.0.0/GD32F30x_Demo_Suites_V2.0.0/GD32F30x_Firmware_Library/CMSIS/GD/GD32F30x/Source\system_gd32f30x.c ****     }
 985:C:/Users/49542/Desktop/GD32F30x_Demo_Suites_V2.0.0/GD32F30x_Demo_Suites_V2.0.0/GD32F30x_Firmware_Library/CMSIS/GD/GD32F30x/Source\system_gd32f30x.c **** 
ARM GAS  C:\Users\49542\AppData\Local\Temp\ccT3FCLy.s 			page 27


 986:C:/Users/49542/Desktop/GD32F30x_Demo_Suites_V2.0.0/GD32F30x_Demo_Suites_V2.0.0/GD32F30x_Firmware_Library/CMSIS/GD/GD32F30x/Source\system_gd32f30x.c **** }
 507              		.loc 1 986 0
 508 00e2 00BF     		nop
 509 00e4 1C37     		adds	r7, r7, #28
 510              	.LCFI13:
 511              		.cfi_def_cfa_offset 4
 512 00e6 BD46     		mov	sp, r7
 513              	.LCFI14:
 514              		.cfi_def_cfa_register 13
 515              		@ sp needed
 516 00e8 5DF8047B 		ldr	r7, [sp], #4
 517              	.LCFI15:
 518              		.cfi_restore 7
 519              		.cfi_def_cfa_offset 0
 520 00ec 7047     		bx	lr
 521              	.L34:
 522 00ee 00BF     		.align	2
 523              	.L33:
 524 00f0 04100240 		.word	1073876996
 525 00f4 00000000 		.word	SystemCoreClock
 526 00f8 00127A00 		.word	8000000
 527 00fc 2C100240 		.word	1073877036
 528 0100 006CDC02 		.word	48000000
 529 0104 00093D00 		.word	4000000
 530              		.cfi_endproc
 531              	.LFE119:
 533              		.text
 534              	.Letext0:
 535              		.file 2 "c:\\users\\49542\\opensourcetools\\gnu tools arm embedded\\7 2018-q2-update\\arm-none-eab
 536              		.file 3 "c:\\users\\49542\\opensourcetools\\gnu tools arm embedded\\7 2018-q2-update\\arm-none-eab
 537              		.file 4 "C:/Users/49542/Desktop/GD32F30x_Demo_Suites_V2.0.0/GD32F30x_Demo_Suites_V2.0.0/GD32F30x_F
 538              		.file 5 "C:/Users/49542/Desktop/GD32F30x_Demo_Suites_V2.0.0/GD32F30x_Demo_Suites_V2.0.0/GD32F30x_F
 539              		.file 6 "c:\\users\\49542\\opensourcetools\\gnu tools arm embedded\\7 2018-q2-update\\arm-none-eab
 540              		.file 7 "c:\\users\\49542\\opensourcetools\\gnu tools arm embedded\\7 2018-q2-update\\arm-none-eab
 541              		.file 8 "c:\\users\\49542\\opensourcetools\\gnu tools arm embedded\\7 2018-q2-update\\lib\\gcc\\ar
 542              		.file 9 "c:\\users\\49542\\opensourcetools\\gnu tools arm embedded\\7 2018-q2-update\\arm-none-eab
 543              		.file 10 "c:\\users\\49542\\opensourcetools\\gnu tools arm embedded\\7 2018-q2-update\\arm-none-ea
 544              		.file 11 "C:/Users/49542/Desktop/GD32F30x_Demo_Suites_V2.0.0/GD32F30x_Demo_Suites_V2.0.0/GD32F30x_
ARM GAS  C:\Users\49542\AppData\Local\Temp\ccT3FCLy.s 			page 28

