ARM GAS  C:\Users\49542\AppData\Local\Temp\ccEBNRSE.s 			page 1


   1              		.cpu cortex-m4
   2              		.eabi_attribute 27, 1
   3              		.eabi_attribute 28, 1
   4              		.eabi_attribute 20, 1
   5              		.eabi_attribute 21, 1
   6              		.eabi_attribute 23, 3
   7              		.eabi_attribute 24, 1
   8              		.eabi_attribute 25, 1
   9              		.eabi_attribute 26, 1
  10              		.eabi_attribute 30, 1
  11              		.eabi_attribute 34, 1
  12              		.eabi_attribute 18, 4
  13              		.file	"gd32f30x_timer.c"
  14              		.text
  15              	.Ltext0:
  16              		.cfi_sections	.debug_frame
  17              		.section	.text.timer_deinit,"ax",%progbits
  18              		.align	1
  19              		.global	timer_deinit
  20              		.syntax unified
  21              		.thumb
  22              		.thumb_func
  23              		.fpu fpv4-sp-d16
  25              	timer_deinit:
  26              	.LFB116:
  27              		.file 1 "C:/Users/49542/Desktop/GD32F30x_Demo_Suites_V2.0.0/GD32F30x_Demo_Suites_V2.0.0/GD32F30x_F
   1:C:/Users/49542/Desktop/GD32F30x_Demo_Suites_V2.0.0/GD32F30x_Demo_Suites_V2.0.0/GD32F30x_Firmware_Library/GD32F30x_standard_peripheral/Source\gd32f30x_timer.c **** /*!
   2:C:/Users/49542/Desktop/GD32F30x_Demo_Suites_V2.0.0/GD32F30x_Demo_Suites_V2.0.0/GD32F30x_Firmware_Library/GD32F30x_standard_peripheral/Source\gd32f30x_timer.c ****     \file  gd32f30x_timer.c
   3:C:/Users/49542/Desktop/GD32F30x_Demo_Suites_V2.0.0/GD32F30x_Demo_Suites_V2.0.0/GD32F30x_Firmware_Library/GD32F30x_standard_peripheral/Source\gd32f30x_timer.c ****     \brief TIMER driver
   4:C:/Users/49542/Desktop/GD32F30x_Demo_Suites_V2.0.0/GD32F30x_Demo_Suites_V2.0.0/GD32F30x_Firmware_Library/GD32F30x_standard_peripheral/Source\gd32f30x_timer.c **** 
   5:C:/Users/49542/Desktop/GD32F30x_Demo_Suites_V2.0.0/GD32F30x_Demo_Suites_V2.0.0/GD32F30x_Firmware_Library/GD32F30x_standard_peripheral/Source\gd32f30x_timer.c ****     \version 2017-02-10, V1.0.0, firmware for GD32F30x
   6:C:/Users/49542/Desktop/GD32F30x_Demo_Suites_V2.0.0/GD32F30x_Demo_Suites_V2.0.0/GD32F30x_Firmware_Library/GD32F30x_standard_peripheral/Source\gd32f30x_timer.c ****     \version 2018-10-10, V1.1.0, firmware for GD32F30x
   7:C:/Users/49542/Desktop/GD32F30x_Demo_Suites_V2.0.0/GD32F30x_Demo_Suites_V2.0.0/GD32F30x_Firmware_Library/GD32F30x_standard_peripheral/Source\gd32f30x_timer.c ****     \version 2018-12-25, V2.0.0, firmware for GD32F30x
   8:C:/Users/49542/Desktop/GD32F30x_Demo_Suites_V2.0.0/GD32F30x_Demo_Suites_V2.0.0/GD32F30x_Firmware_Library/GD32F30x_standard_peripheral/Source\gd32f30x_timer.c **** */
   9:C:/Users/49542/Desktop/GD32F30x_Demo_Suites_V2.0.0/GD32F30x_Demo_Suites_V2.0.0/GD32F30x_Firmware_Library/GD32F30x_standard_peripheral/Source\gd32f30x_timer.c **** 
  10:C:/Users/49542/Desktop/GD32F30x_Demo_Suites_V2.0.0/GD32F30x_Demo_Suites_V2.0.0/GD32F30x_Firmware_Library/GD32F30x_standard_peripheral/Source\gd32f30x_timer.c **** /*
  11:C:/Users/49542/Desktop/GD32F30x_Demo_Suites_V2.0.0/GD32F30x_Demo_Suites_V2.0.0/GD32F30x_Firmware_Library/GD32F30x_standard_peripheral/Source\gd32f30x_timer.c ****     Copyright (c) 2018, GigaDevice Semiconductor Inc.
  12:C:/Users/49542/Desktop/GD32F30x_Demo_Suites_V2.0.0/GD32F30x_Demo_Suites_V2.0.0/GD32F30x_Firmware_Library/GD32F30x_standard_peripheral/Source\gd32f30x_timer.c **** 
  13:C:/Users/49542/Desktop/GD32F30x_Demo_Suites_V2.0.0/GD32F30x_Demo_Suites_V2.0.0/GD32F30x_Firmware_Library/GD32F30x_standard_peripheral/Source\gd32f30x_timer.c ****     All rights reserved.
  14:C:/Users/49542/Desktop/GD32F30x_Demo_Suites_V2.0.0/GD32F30x_Demo_Suites_V2.0.0/GD32F30x_Firmware_Library/GD32F30x_standard_peripheral/Source\gd32f30x_timer.c **** 
  15:C:/Users/49542/Desktop/GD32F30x_Demo_Suites_V2.0.0/GD32F30x_Demo_Suites_V2.0.0/GD32F30x_Firmware_Library/GD32F30x_standard_peripheral/Source\gd32f30x_timer.c ****     Redistribution and use in source and binary forms, with or without modification, 
  16:C:/Users/49542/Desktop/GD32F30x_Demo_Suites_V2.0.0/GD32F30x_Demo_Suites_V2.0.0/GD32F30x_Firmware_Library/GD32F30x_standard_peripheral/Source\gd32f30x_timer.c **** are permitted provided that the following conditions are met:
  17:C:/Users/49542/Desktop/GD32F30x_Demo_Suites_V2.0.0/GD32F30x_Demo_Suites_V2.0.0/GD32F30x_Firmware_Library/GD32F30x_standard_peripheral/Source\gd32f30x_timer.c **** 
  18:C:/Users/49542/Desktop/GD32F30x_Demo_Suites_V2.0.0/GD32F30x_Demo_Suites_V2.0.0/GD32F30x_Firmware_Library/GD32F30x_standard_peripheral/Source\gd32f30x_timer.c ****     1. Redistributions of source code must retain the above copyright notice, this 
  19:C:/Users/49542/Desktop/GD32F30x_Demo_Suites_V2.0.0/GD32F30x_Demo_Suites_V2.0.0/GD32F30x_Firmware_Library/GD32F30x_standard_peripheral/Source\gd32f30x_timer.c ****        list of conditions and the following disclaimer.
  20:C:/Users/49542/Desktop/GD32F30x_Demo_Suites_V2.0.0/GD32F30x_Demo_Suites_V2.0.0/GD32F30x_Firmware_Library/GD32F30x_standard_peripheral/Source\gd32f30x_timer.c ****     2. Redistributions in binary form must reproduce the above copyright notice, 
  21:C:/Users/49542/Desktop/GD32F30x_Demo_Suites_V2.0.0/GD32F30x_Demo_Suites_V2.0.0/GD32F30x_Firmware_Library/GD32F30x_standard_peripheral/Source\gd32f30x_timer.c ****        this list of conditions and the following disclaimer in the documentation 
  22:C:/Users/49542/Desktop/GD32F30x_Demo_Suites_V2.0.0/GD32F30x_Demo_Suites_V2.0.0/GD32F30x_Firmware_Library/GD32F30x_standard_peripheral/Source\gd32f30x_timer.c ****        and/or other materials provided with the distribution.
  23:C:/Users/49542/Desktop/GD32F30x_Demo_Suites_V2.0.0/GD32F30x_Demo_Suites_V2.0.0/GD32F30x_Firmware_Library/GD32F30x_standard_peripheral/Source\gd32f30x_timer.c ****     3. Neither the name of the copyright holder nor the names of its contributors 
  24:C:/Users/49542/Desktop/GD32F30x_Demo_Suites_V2.0.0/GD32F30x_Demo_Suites_V2.0.0/GD32F30x_Firmware_Library/GD32F30x_standard_peripheral/Source\gd32f30x_timer.c ****        may be used to endorse or promote products derived from this software without 
  25:C:/Users/49542/Desktop/GD32F30x_Demo_Suites_V2.0.0/GD32F30x_Demo_Suites_V2.0.0/GD32F30x_Firmware_Library/GD32F30x_standard_peripheral/Source\gd32f30x_timer.c ****        specific prior written permission.
  26:C:/Users/49542/Desktop/GD32F30x_Demo_Suites_V2.0.0/GD32F30x_Demo_Suites_V2.0.0/GD32F30x_Firmware_Library/GD32F30x_standard_peripheral/Source\gd32f30x_timer.c **** 
  27:C:/Users/49542/Desktop/GD32F30x_Demo_Suites_V2.0.0/GD32F30x_Demo_Suites_V2.0.0/GD32F30x_Firmware_Library/GD32F30x_standard_peripheral/Source\gd32f30x_timer.c ****     THIS SOFTWARE IS PROVIDED BY THE COPYRIGHT HOLDERS AND CONTRIBUTORS "AS IS" 
  28:C:/Users/49542/Desktop/GD32F30x_Demo_Suites_V2.0.0/GD32F30x_Demo_Suites_V2.0.0/GD32F30x_Firmware_Library/GD32F30x_standard_peripheral/Source\gd32f30x_timer.c **** AND ANY EXPRESS OR IMPLIED WARRANTIES, INCLUDING, BUT NOT LIMITED TO, THE IMPLIED 
  29:C:/Users/49542/Desktop/GD32F30x_Demo_Suites_V2.0.0/GD32F30x_Demo_Suites_V2.0.0/GD32F30x_Firmware_Library/GD32F30x_standard_peripheral/Source\gd32f30x_timer.c **** WARRANTIES OF MERCHANTABILITY AND FITNESS FOR A PARTICULAR PURPOSE ARE DISCLAIMED. 
  30:C:/Users/49542/Desktop/GD32F30x_Demo_Suites_V2.0.0/GD32F30x_Demo_Suites_V2.0.0/GD32F30x_Firmware_Library/GD32F30x_standard_peripheral/Source\gd32f30x_timer.c **** IN NO EVENT SHALL THE COPYRIGHT HOLDER OR CONTRIBUTORS BE LIABLE FOR ANY DIRECT, 
  31:C:/Users/49542/Desktop/GD32F30x_Demo_Suites_V2.0.0/GD32F30x_Demo_Suites_V2.0.0/GD32F30x_Firmware_Library/GD32F30x_standard_peripheral/Source\gd32f30x_timer.c **** INDIRECT, INCIDENTAL, SPECIAL, EXEMPLARY, OR CONSEQUENTIAL DAMAGES (INCLUDING, BUT 
ARM GAS  C:\Users\49542\AppData\Local\Temp\ccEBNRSE.s 			page 2


  32:C:/Users/49542/Desktop/GD32F30x_Demo_Suites_V2.0.0/GD32F30x_Demo_Suites_V2.0.0/GD32F30x_Firmware_Library/GD32F30x_standard_peripheral/Source\gd32f30x_timer.c **** NOT LIMITED TO, PROCUREMENT OF SUBSTITUTE GOODS OR SERVICES; LOSS OF USE, DATA, OR 
  33:C:/Users/49542/Desktop/GD32F30x_Demo_Suites_V2.0.0/GD32F30x_Demo_Suites_V2.0.0/GD32F30x_Firmware_Library/GD32F30x_standard_peripheral/Source\gd32f30x_timer.c **** PROFITS; OR BUSINESS INTERRUPTION) HOWEVER CAUSED AND ON ANY THEORY OF LIABILITY, 
  34:C:/Users/49542/Desktop/GD32F30x_Demo_Suites_V2.0.0/GD32F30x_Demo_Suites_V2.0.0/GD32F30x_Firmware_Library/GD32F30x_standard_peripheral/Source\gd32f30x_timer.c **** WHETHER IN CONTRACT, STRICT LIABILITY, OR TORT (INCLUDING NEGLIGENCE OR OTHERWISE) 
  35:C:/Users/49542/Desktop/GD32F30x_Demo_Suites_V2.0.0/GD32F30x_Demo_Suites_V2.0.0/GD32F30x_Firmware_Library/GD32F30x_standard_peripheral/Source\gd32f30x_timer.c **** ARISING IN ANY WAY OUT OF THE USE OF THIS SOFTWARE, EVEN IF ADVISED OF THE POSSIBILITY 
  36:C:/Users/49542/Desktop/GD32F30x_Demo_Suites_V2.0.0/GD32F30x_Demo_Suites_V2.0.0/GD32F30x_Firmware_Library/GD32F30x_standard_peripheral/Source\gd32f30x_timer.c **** OF SUCH DAMAGE.
  37:C:/Users/49542/Desktop/GD32F30x_Demo_Suites_V2.0.0/GD32F30x_Demo_Suites_V2.0.0/GD32F30x_Firmware_Library/GD32F30x_standard_peripheral/Source\gd32f30x_timer.c **** */
  38:C:/Users/49542/Desktop/GD32F30x_Demo_Suites_V2.0.0/GD32F30x_Demo_Suites_V2.0.0/GD32F30x_Firmware_Library/GD32F30x_standard_peripheral/Source\gd32f30x_timer.c **** 
  39:C:/Users/49542/Desktop/GD32F30x_Demo_Suites_V2.0.0/GD32F30x_Demo_Suites_V2.0.0/GD32F30x_Firmware_Library/GD32F30x_standard_peripheral/Source\gd32f30x_timer.c **** #include "gd32f30x_timer.h"
  40:C:/Users/49542/Desktop/GD32F30x_Demo_Suites_V2.0.0/GD32F30x_Demo_Suites_V2.0.0/GD32F30x_Firmware_Library/GD32F30x_standard_peripheral/Source\gd32f30x_timer.c **** 
  41:C:/Users/49542/Desktop/GD32F30x_Demo_Suites_V2.0.0/GD32F30x_Demo_Suites_V2.0.0/GD32F30x_Firmware_Library/GD32F30x_standard_peripheral/Source\gd32f30x_timer.c **** /*!
  42:C:/Users/49542/Desktop/GD32F30x_Demo_Suites_V2.0.0/GD32F30x_Demo_Suites_V2.0.0/GD32F30x_Firmware_Library/GD32F30x_standard_peripheral/Source\gd32f30x_timer.c ****     \brief      deinit a TIMER
  43:C:/Users/49542/Desktop/GD32F30x_Demo_Suites_V2.0.0/GD32F30x_Demo_Suites_V2.0.0/GD32F30x_Firmware_Library/GD32F30x_standard_peripheral/Source\gd32f30x_timer.c ****     \param[in]  timer_periph: TIMERx(x=0..13)
  44:C:/Users/49542/Desktop/GD32F30x_Demo_Suites_V2.0.0/GD32F30x_Demo_Suites_V2.0.0/GD32F30x_Firmware_Library/GD32F30x_standard_peripheral/Source\gd32f30x_timer.c ****     \param[out] none
  45:C:/Users/49542/Desktop/GD32F30x_Demo_Suites_V2.0.0/GD32F30x_Demo_Suites_V2.0.0/GD32F30x_Firmware_Library/GD32F30x_standard_peripheral/Source\gd32f30x_timer.c ****     \retval     none
  46:C:/Users/49542/Desktop/GD32F30x_Demo_Suites_V2.0.0/GD32F30x_Demo_Suites_V2.0.0/GD32F30x_Firmware_Library/GD32F30x_standard_peripheral/Source\gd32f30x_timer.c **** */
  47:C:/Users/49542/Desktop/GD32F30x_Demo_Suites_V2.0.0/GD32F30x_Demo_Suites_V2.0.0/GD32F30x_Firmware_Library/GD32F30x_standard_peripheral/Source\gd32f30x_timer.c **** void timer_deinit(uint32_t timer_periph)
  48:C:/Users/49542/Desktop/GD32F30x_Demo_Suites_V2.0.0/GD32F30x_Demo_Suites_V2.0.0/GD32F30x_Firmware_Library/GD32F30x_standard_peripheral/Source\gd32f30x_timer.c **** {
  28              		.loc 1 48 0
  29              		.cfi_startproc
  30              		@ args = 0, pretend = 0, frame = 0
  31              		@ frame_needed = 0, uses_anonymous_args = 0
  32              	.LVL0:
  33 0000 08B5     		push	{r3, lr}
  34              	.LCFI0:
  35              		.cfi_def_cfa_offset 8
  36              		.cfi_offset 3, -8
  37              		.cfi_offset 14, -4
  49:C:/Users/49542/Desktop/GD32F30x_Demo_Suites_V2.0.0/GD32F30x_Demo_Suites_V2.0.0/GD32F30x_Firmware_Library/GD32F30x_standard_peripheral/Source\gd32f30x_timer.c ****     switch(timer_periph){
  38              		.loc 1 49 0
  39 0002 5B4B     		ldr	r3, .L23
  40 0004 9842     		cmp	r0, r3
  41 0006 00F0A180 		beq	.L3
  42 000a 1AD9     		bls	.L21
  43 000c 594B     		ldr	r3, .L23+4
  44 000e 9842     		cmp	r0, r3
  45 0010 00F08180 		beq	.L12
  46 0014 3ED8     		bhi	.L13
  47 0016 A3F58A33 		sub	r3, r3, #70656
  48 001a 9842     		cmp	r0, r3
  49 001c 00F09F80 		beq	.L14
  50 0020 03F58633 		add	r3, r3, #68608
  51 0024 9842     		cmp	r0, r3
  52 0026 49D0     		beq	.L15
  53 0028 A3F58833 		sub	r3, r3, #69632
  54 002c 9842     		cmp	r0, r3
  55 002e 4DD1     		bne	.L1
  50:C:/Users/49542/Desktop/GD32F30x_Demo_Suites_V2.0.0/GD32F30x_Demo_Suites_V2.0.0/GD32F30x_Firmware_Library/GD32F30x_standard_peripheral/Source\gd32f30x_timer.c ****     case TIMER0:
  51:C:/Users/49542/Desktop/GD32F30x_Demo_Suites_V2.0.0/GD32F30x_Demo_Suites_V2.0.0/GD32F30x_Firmware_Library/GD32F30x_standard_peripheral/Source\gd32f30x_timer.c ****         /* reset TIMER0 */
  52:C:/Users/49542/Desktop/GD32F30x_Demo_Suites_V2.0.0/GD32F30x_Demo_Suites_V2.0.0/GD32F30x_Firmware_Library/GD32F30x_standard_peripheral/Source\gd32f30x_timer.c ****         rcu_periph_reset_enable(RCU_TIMER0RST);
  53:C:/Users/49542/Desktop/GD32F30x_Demo_Suites_V2.0.0/GD32F30x_Demo_Suites_V2.0.0/GD32F30x_Firmware_Library/GD32F30x_standard_peripheral/Source\gd32f30x_timer.c ****         rcu_periph_reset_disable(RCU_TIMER0RST);
  54:C:/Users/49542/Desktop/GD32F30x_Demo_Suites_V2.0.0/GD32F30x_Demo_Suites_V2.0.0/GD32F30x_Firmware_Library/GD32F30x_standard_peripheral/Source\gd32f30x_timer.c ****         break;
  55:C:/Users/49542/Desktop/GD32F30x_Demo_Suites_V2.0.0/GD32F30x_Demo_Suites_V2.0.0/GD32F30x_Firmware_Library/GD32F30x_standard_peripheral/Source\gd32f30x_timer.c ****     case TIMER1:
  56:C:/Users/49542/Desktop/GD32F30x_Demo_Suites_V2.0.0/GD32F30x_Demo_Suites_V2.0.0/GD32F30x_Firmware_Library/GD32F30x_standard_peripheral/Source\gd32f30x_timer.c ****         /* reset TIMER1 */
  57:C:/Users/49542/Desktop/GD32F30x_Demo_Suites_V2.0.0/GD32F30x_Demo_Suites_V2.0.0/GD32F30x_Firmware_Library/GD32F30x_standard_peripheral/Source\gd32f30x_timer.c ****         rcu_periph_reset_enable(RCU_TIMER1RST);
  58:C:/Users/49542/Desktop/GD32F30x_Demo_Suites_V2.0.0/GD32F30x_Demo_Suites_V2.0.0/GD32F30x_Firmware_Library/GD32F30x_standard_peripheral/Source\gd32f30x_timer.c ****         rcu_periph_reset_disable(RCU_TIMER1RST);
  59:C:/Users/49542/Desktop/GD32F30x_Demo_Suites_V2.0.0/GD32F30x_Demo_Suites_V2.0.0/GD32F30x_Firmware_Library/GD32F30x_standard_peripheral/Source\gd32f30x_timer.c ****         break;
  60:C:/Users/49542/Desktop/GD32F30x_Demo_Suites_V2.0.0/GD32F30x_Demo_Suites_V2.0.0/GD32F30x_Firmware_Library/GD32F30x_standard_peripheral/Source\gd32f30x_timer.c ****     case TIMER2:
ARM GAS  C:\Users\49542\AppData\Local\Temp\ccEBNRSE.s 			page 3


  61:C:/Users/49542/Desktop/GD32F30x_Demo_Suites_V2.0.0/GD32F30x_Demo_Suites_V2.0.0/GD32F30x_Firmware_Library/GD32F30x_standard_peripheral/Source\gd32f30x_timer.c ****         /* reset TIMER2 */
  62:C:/Users/49542/Desktop/GD32F30x_Demo_Suites_V2.0.0/GD32F30x_Demo_Suites_V2.0.0/GD32F30x_Firmware_Library/GD32F30x_standard_peripheral/Source\gd32f30x_timer.c ****         rcu_periph_reset_enable(RCU_TIMER2RST);
  63:C:/Users/49542/Desktop/GD32F30x_Demo_Suites_V2.0.0/GD32F30x_Demo_Suites_V2.0.0/GD32F30x_Firmware_Library/GD32F30x_standard_peripheral/Source\gd32f30x_timer.c ****         rcu_periph_reset_disable(RCU_TIMER2RST);
  64:C:/Users/49542/Desktop/GD32F30x_Demo_Suites_V2.0.0/GD32F30x_Demo_Suites_V2.0.0/GD32F30x_Firmware_Library/GD32F30x_standard_peripheral/Source\gd32f30x_timer.c ****         break;
  65:C:/Users/49542/Desktop/GD32F30x_Demo_Suites_V2.0.0/GD32F30x_Demo_Suites_V2.0.0/GD32F30x_Firmware_Library/GD32F30x_standard_peripheral/Source\gd32f30x_timer.c ****     case TIMER3:
  66:C:/Users/49542/Desktop/GD32F30x_Demo_Suites_V2.0.0/GD32F30x_Demo_Suites_V2.0.0/GD32F30x_Firmware_Library/GD32F30x_standard_peripheral/Source\gd32f30x_timer.c ****         /* reset TIMER3 */
  67:C:/Users/49542/Desktop/GD32F30x_Demo_Suites_V2.0.0/GD32F30x_Demo_Suites_V2.0.0/GD32F30x_Firmware_Library/GD32F30x_standard_peripheral/Source\gd32f30x_timer.c ****         rcu_periph_reset_enable(RCU_TIMER3RST);
  68:C:/Users/49542/Desktop/GD32F30x_Demo_Suites_V2.0.0/GD32F30x_Demo_Suites_V2.0.0/GD32F30x_Firmware_Library/GD32F30x_standard_peripheral/Source\gd32f30x_timer.c ****         rcu_periph_reset_disable(RCU_TIMER3RST);
  69:C:/Users/49542/Desktop/GD32F30x_Demo_Suites_V2.0.0/GD32F30x_Demo_Suites_V2.0.0/GD32F30x_Firmware_Library/GD32F30x_standard_peripheral/Source\gd32f30x_timer.c ****         break;
  70:C:/Users/49542/Desktop/GD32F30x_Demo_Suites_V2.0.0/GD32F30x_Demo_Suites_V2.0.0/GD32F30x_Firmware_Library/GD32F30x_standard_peripheral/Source\gd32f30x_timer.c ****     case TIMER4:
  71:C:/Users/49542/Desktop/GD32F30x_Demo_Suites_V2.0.0/GD32F30x_Demo_Suites_V2.0.0/GD32F30x_Firmware_Library/GD32F30x_standard_peripheral/Source\gd32f30x_timer.c ****         /* reset TIMER4 */
  72:C:/Users/49542/Desktop/GD32F30x_Demo_Suites_V2.0.0/GD32F30x_Demo_Suites_V2.0.0/GD32F30x_Firmware_Library/GD32F30x_standard_peripheral/Source\gd32f30x_timer.c ****         rcu_periph_reset_enable(RCU_TIMER4RST);
  73:C:/Users/49542/Desktop/GD32F30x_Demo_Suites_V2.0.0/GD32F30x_Demo_Suites_V2.0.0/GD32F30x_Firmware_Library/GD32F30x_standard_peripheral/Source\gd32f30x_timer.c ****         rcu_periph_reset_disable(RCU_TIMER4RST);
  74:C:/Users/49542/Desktop/GD32F30x_Demo_Suites_V2.0.0/GD32F30x_Demo_Suites_V2.0.0/GD32F30x_Firmware_Library/GD32F30x_standard_peripheral/Source\gd32f30x_timer.c ****         break;
  75:C:/Users/49542/Desktop/GD32F30x_Demo_Suites_V2.0.0/GD32F30x_Demo_Suites_V2.0.0/GD32F30x_Firmware_Library/GD32F30x_standard_peripheral/Source\gd32f30x_timer.c ****     case TIMER5:
  76:C:/Users/49542/Desktop/GD32F30x_Demo_Suites_V2.0.0/GD32F30x_Demo_Suites_V2.0.0/GD32F30x_Firmware_Library/GD32F30x_standard_peripheral/Source\gd32f30x_timer.c ****         /* reset TIMER5 */
  77:C:/Users/49542/Desktop/GD32F30x_Demo_Suites_V2.0.0/GD32F30x_Demo_Suites_V2.0.0/GD32F30x_Firmware_Library/GD32F30x_standard_peripheral/Source\gd32f30x_timer.c ****         rcu_periph_reset_enable(RCU_TIMER5RST);
  78:C:/Users/49542/Desktop/GD32F30x_Demo_Suites_V2.0.0/GD32F30x_Demo_Suites_V2.0.0/GD32F30x_Firmware_Library/GD32F30x_standard_peripheral/Source\gd32f30x_timer.c ****         rcu_periph_reset_disable(RCU_TIMER5RST);
  79:C:/Users/49542/Desktop/GD32F30x_Demo_Suites_V2.0.0/GD32F30x_Demo_Suites_V2.0.0/GD32F30x_Firmware_Library/GD32F30x_standard_peripheral/Source\gd32f30x_timer.c ****         break;
  80:C:/Users/49542/Desktop/GD32F30x_Demo_Suites_V2.0.0/GD32F30x_Demo_Suites_V2.0.0/GD32F30x_Firmware_Library/GD32F30x_standard_peripheral/Source\gd32f30x_timer.c ****     case TIMER6:
  81:C:/Users/49542/Desktop/GD32F30x_Demo_Suites_V2.0.0/GD32F30x_Demo_Suites_V2.0.0/GD32F30x_Firmware_Library/GD32F30x_standard_peripheral/Source\gd32f30x_timer.c ****         /* reset TIMER6 */
  82:C:/Users/49542/Desktop/GD32F30x_Demo_Suites_V2.0.0/GD32F30x_Demo_Suites_V2.0.0/GD32F30x_Firmware_Library/GD32F30x_standard_peripheral/Source\gd32f30x_timer.c ****         rcu_periph_reset_enable(RCU_TIMER6RST);
  83:C:/Users/49542/Desktop/GD32F30x_Demo_Suites_V2.0.0/GD32F30x_Demo_Suites_V2.0.0/GD32F30x_Firmware_Library/GD32F30x_standard_peripheral/Source\gd32f30x_timer.c ****         rcu_periph_reset_disable(RCU_TIMER6RST);
  84:C:/Users/49542/Desktop/GD32F30x_Demo_Suites_V2.0.0/GD32F30x_Demo_Suites_V2.0.0/GD32F30x_Firmware_Library/GD32F30x_standard_peripheral/Source\gd32f30x_timer.c ****         break;
  85:C:/Users/49542/Desktop/GD32F30x_Demo_Suites_V2.0.0/GD32F30x_Demo_Suites_V2.0.0/GD32F30x_Firmware_Library/GD32F30x_standard_peripheral/Source\gd32f30x_timer.c ****     case TIMER7:
  86:C:/Users/49542/Desktop/GD32F30x_Demo_Suites_V2.0.0/GD32F30x_Demo_Suites_V2.0.0/GD32F30x_Firmware_Library/GD32F30x_standard_peripheral/Source\gd32f30x_timer.c ****         /* reset TIMER7 */
  87:C:/Users/49542/Desktop/GD32F30x_Demo_Suites_V2.0.0/GD32F30x_Demo_Suites_V2.0.0/GD32F30x_Firmware_Library/GD32F30x_standard_peripheral/Source\gd32f30x_timer.c ****         rcu_periph_reset_enable(RCU_TIMER7RST);
  88:C:/Users/49542/Desktop/GD32F30x_Demo_Suites_V2.0.0/GD32F30x_Demo_Suites_V2.0.0/GD32F30x_Firmware_Library/GD32F30x_standard_peripheral/Source\gd32f30x_timer.c ****         rcu_periph_reset_disable(RCU_TIMER7RST);
  89:C:/Users/49542/Desktop/GD32F30x_Demo_Suites_V2.0.0/GD32F30x_Demo_Suites_V2.0.0/GD32F30x_Firmware_Library/GD32F30x_standard_peripheral/Source\gd32f30x_timer.c ****         break;
  90:C:/Users/49542/Desktop/GD32F30x_Demo_Suites_V2.0.0/GD32F30x_Demo_Suites_V2.0.0/GD32F30x_Firmware_Library/GD32F30x_standard_peripheral/Source\gd32f30x_timer.c **** #ifndef GD32F30X_HD
  91:C:/Users/49542/Desktop/GD32F30x_Demo_Suites_V2.0.0/GD32F30x_Demo_Suites_V2.0.0/GD32F30x_Firmware_Library/GD32F30x_standard_peripheral/Source\gd32f30x_timer.c ****     case TIMER8:
  92:C:/Users/49542/Desktop/GD32F30x_Demo_Suites_V2.0.0/GD32F30x_Demo_Suites_V2.0.0/GD32F30x_Firmware_Library/GD32F30x_standard_peripheral/Source\gd32f30x_timer.c ****         /* reset TIMER8 */
  93:C:/Users/49542/Desktop/GD32F30x_Demo_Suites_V2.0.0/GD32F30x_Demo_Suites_V2.0.0/GD32F30x_Firmware_Library/GD32F30x_standard_peripheral/Source\gd32f30x_timer.c ****         rcu_periph_reset_enable(RCU_TIMER8RST);
  94:C:/Users/49542/Desktop/GD32F30x_Demo_Suites_V2.0.0/GD32F30x_Demo_Suites_V2.0.0/GD32F30x_Firmware_Library/GD32F30x_standard_peripheral/Source\gd32f30x_timer.c ****         rcu_periph_reset_disable(RCU_TIMER8RST);
  95:C:/Users/49542/Desktop/GD32F30x_Demo_Suites_V2.0.0/GD32F30x_Demo_Suites_V2.0.0/GD32F30x_Firmware_Library/GD32F30x_standard_peripheral/Source\gd32f30x_timer.c ****         break;
  96:C:/Users/49542/Desktop/GD32F30x_Demo_Suites_V2.0.0/GD32F30x_Demo_Suites_V2.0.0/GD32F30x_Firmware_Library/GD32F30x_standard_peripheral/Source\gd32f30x_timer.c ****     case TIMER9:
  97:C:/Users/49542/Desktop/GD32F30x_Demo_Suites_V2.0.0/GD32F30x_Demo_Suites_V2.0.0/GD32F30x_Firmware_Library/GD32F30x_standard_peripheral/Source\gd32f30x_timer.c ****         /* reset TIMER9 */
  98:C:/Users/49542/Desktop/GD32F30x_Demo_Suites_V2.0.0/GD32F30x_Demo_Suites_V2.0.0/GD32F30x_Firmware_Library/GD32F30x_standard_peripheral/Source\gd32f30x_timer.c ****         rcu_periph_reset_enable(RCU_TIMER9RST);
  99:C:/Users/49542/Desktop/GD32F30x_Demo_Suites_V2.0.0/GD32F30x_Demo_Suites_V2.0.0/GD32F30x_Firmware_Library/GD32F30x_standard_peripheral/Source\gd32f30x_timer.c ****         rcu_periph_reset_disable(RCU_TIMER9RST);
 100:C:/Users/49542/Desktop/GD32F30x_Demo_Suites_V2.0.0/GD32F30x_Demo_Suites_V2.0.0/GD32F30x_Firmware_Library/GD32F30x_standard_peripheral/Source\gd32f30x_timer.c ****         break;
 101:C:/Users/49542/Desktop/GD32F30x_Demo_Suites_V2.0.0/GD32F30x_Demo_Suites_V2.0.0/GD32F30x_Firmware_Library/GD32F30x_standard_peripheral/Source\gd32f30x_timer.c ****     case TIMER10:
 102:C:/Users/49542/Desktop/GD32F30x_Demo_Suites_V2.0.0/GD32F30x_Demo_Suites_V2.0.0/GD32F30x_Firmware_Library/GD32F30x_standard_peripheral/Source\gd32f30x_timer.c ****         /* reset TIMER10 */
 103:C:/Users/49542/Desktop/GD32F30x_Demo_Suites_V2.0.0/GD32F30x_Demo_Suites_V2.0.0/GD32F30x_Firmware_Library/GD32F30x_standard_peripheral/Source\gd32f30x_timer.c ****         rcu_periph_reset_enable(RCU_TIMER10RST);
 104:C:/Users/49542/Desktop/GD32F30x_Demo_Suites_V2.0.0/GD32F30x_Demo_Suites_V2.0.0/GD32F30x_Firmware_Library/GD32F30x_standard_peripheral/Source\gd32f30x_timer.c ****         rcu_periph_reset_disable(RCU_TIMER10RST);
 105:C:/Users/49542/Desktop/GD32F30x_Demo_Suites_V2.0.0/GD32F30x_Demo_Suites_V2.0.0/GD32F30x_Firmware_Library/GD32F30x_standard_peripheral/Source\gd32f30x_timer.c ****         break;
 106:C:/Users/49542/Desktop/GD32F30x_Demo_Suites_V2.0.0/GD32F30x_Demo_Suites_V2.0.0/GD32F30x_Firmware_Library/GD32F30x_standard_peripheral/Source\gd32f30x_timer.c ****     case TIMER11:
 107:C:/Users/49542/Desktop/GD32F30x_Demo_Suites_V2.0.0/GD32F30x_Demo_Suites_V2.0.0/GD32F30x_Firmware_Library/GD32F30x_standard_peripheral/Source\gd32f30x_timer.c ****         /* reset TIMER11 */
 108:C:/Users/49542/Desktop/GD32F30x_Demo_Suites_V2.0.0/GD32F30x_Demo_Suites_V2.0.0/GD32F30x_Firmware_Library/GD32F30x_standard_peripheral/Source\gd32f30x_timer.c ****         rcu_periph_reset_enable(RCU_TIMER11RST);
 109:C:/Users/49542/Desktop/GD32F30x_Demo_Suites_V2.0.0/GD32F30x_Demo_Suites_V2.0.0/GD32F30x_Firmware_Library/GD32F30x_standard_peripheral/Source\gd32f30x_timer.c ****         rcu_periph_reset_disable(RCU_TIMER11RST);
 110:C:/Users/49542/Desktop/GD32F30x_Demo_Suites_V2.0.0/GD32F30x_Demo_Suites_V2.0.0/GD32F30x_Firmware_Library/GD32F30x_standard_peripheral/Source\gd32f30x_timer.c ****         break;
 111:C:/Users/49542/Desktop/GD32F30x_Demo_Suites_V2.0.0/GD32F30x_Demo_Suites_V2.0.0/GD32F30x_Firmware_Library/GD32F30x_standard_peripheral/Source\gd32f30x_timer.c ****     case TIMER12:
 112:C:/Users/49542/Desktop/GD32F30x_Demo_Suites_V2.0.0/GD32F30x_Demo_Suites_V2.0.0/GD32F30x_Firmware_Library/GD32F30x_standard_peripheral/Source\gd32f30x_timer.c ****         /* reset TIMER12 */
 113:C:/Users/49542/Desktop/GD32F30x_Demo_Suites_V2.0.0/GD32F30x_Demo_Suites_V2.0.0/GD32F30x_Firmware_Library/GD32F30x_standard_peripheral/Source\gd32f30x_timer.c ****         rcu_periph_reset_enable(RCU_TIMER12RST);
  56              		.loc 1 113 0
  57 0030 40F20740 		movw	r0, #1031
  58              	.LVL1:
  59 0034 FFF7FEFF 		bl	rcu_periph_reset_enable
ARM GAS  C:\Users\49542\AppData\Local\Temp\ccEBNRSE.s 			page 4


  60              	.LVL2:
 114:C:/Users/49542/Desktop/GD32F30x_Demo_Suites_V2.0.0/GD32F30x_Demo_Suites_V2.0.0/GD32F30x_Firmware_Library/GD32F30x_standard_peripheral/Source\gd32f30x_timer.c ****         rcu_periph_reset_disable(RCU_TIMER12RST);
  61              		.loc 1 114 0
  62 0038 40F20740 		movw	r0, #1031
  63 003c FFF7FEFF 		bl	rcu_periph_reset_disable
  64              	.LVL3:
 115:C:/Users/49542/Desktop/GD32F30x_Demo_Suites_V2.0.0/GD32F30x_Demo_Suites_V2.0.0/GD32F30x_Firmware_Library/GD32F30x_standard_peripheral/Source\gd32f30x_timer.c ****         break;
  65              		.loc 1 115 0
  66 0040 44E0     		b	.L1
  67              	.LVL4:
  68              	.L21:
  49:C:/Users/49542/Desktop/GD32F30x_Demo_Suites_V2.0.0/GD32F30x_Demo_Suites_V2.0.0/GD32F30x_Firmware_Library/GD32F30x_standard_peripheral/Source\gd32f30x_timer.c ****     case TIMER0:
  69              		.loc 1 49 0
  70 0042 A3F58053 		sub	r3, r3, #4096
  71 0046 9842     		cmp	r0, r3
  72 0048 4AD0     		beq	.L5
  73 004a 13D9     		bls	.L22
  74 004c 4A4B     		ldr	r3, .L23+8
  75 004e 9842     		cmp	r0, r3
  76 0050 4FD0     		beq	.L9
  77 0052 03F58063 		add	r3, r3, #1024
  78 0056 9842     		cmp	r0, r3
  79 0058 54D0     		beq	.L10
  80 005a A3F50063 		sub	r3, r3, #2048
  81 005e 9842     		cmp	r0, r3
  82 0060 34D1     		bne	.L1
  72:C:/Users/49542/Desktop/GD32F30x_Demo_Suites_V2.0.0/GD32F30x_Demo_Suites_V2.0.0/GD32F30x_Firmware_Library/GD32F30x_standard_peripheral/Source\gd32f30x_timer.c ****         rcu_periph_reset_disable(RCU_TIMER4RST);
  83              		.loc 1 72 0
  84 0062 40F20340 		movw	r0, #1027
  85              	.LVL5:
  86 0066 FFF7FEFF 		bl	rcu_periph_reset_enable
  87              	.LVL6:
  73:C:/Users/49542/Desktop/GD32F30x_Demo_Suites_V2.0.0/GD32F30x_Demo_Suites_V2.0.0/GD32F30x_Firmware_Library/GD32F30x_standard_peripheral/Source\gd32f30x_timer.c ****         break;
  88              		.loc 1 73 0
  89 006a 40F20340 		movw	r0, #1027
  90 006e FFF7FEFF 		bl	rcu_periph_reset_disable
  91              	.LVL7:
  74:C:/Users/49542/Desktop/GD32F30x_Demo_Suites_V2.0.0/GD32F30x_Demo_Suites_V2.0.0/GD32F30x_Firmware_Library/GD32F30x_standard_peripheral/Source\gd32f30x_timer.c ****     case TIMER5:
  92              		.loc 1 74 0
  93 0072 2BE0     		b	.L1
  94              	.LVL8:
  95              	.L22:
  49:C:/Users/49542/Desktop/GD32F30x_Demo_Suites_V2.0.0/GD32F30x_Demo_Suites_V2.0.0/GD32F30x_Firmware_Library/GD32F30x_standard_peripheral/Source\gd32f30x_timer.c ****     case TIMER0:
  96              		.loc 1 49 0
  97 0074 B0F1804F 		cmp	r0, #1073741824
  98 0078 29D0     		beq	.L7
  99 007a A3F58063 		sub	r3, r3, #1024
 100 007e 9842     		cmp	r0, r3
 101 0080 24D1     		bne	.L1
  62:C:/Users/49542/Desktop/GD32F30x_Demo_Suites_V2.0.0/GD32F30x_Demo_Suites_V2.0.0/GD32F30x_Firmware_Library/GD32F30x_standard_peripheral/Source\gd32f30x_timer.c ****         rcu_periph_reset_disable(RCU_TIMER2RST);
 102              		.loc 1 62 0
 103 0082 40F20140 		movw	r0, #1025
 104              	.LVL9:
 105 0086 FFF7FEFF 		bl	rcu_periph_reset_enable
 106              	.LVL10:
  63:C:/Users/49542/Desktop/GD32F30x_Demo_Suites_V2.0.0/GD32F30x_Demo_Suites_V2.0.0/GD32F30x_Firmware_Library/GD32F30x_standard_peripheral/Source\gd32f30x_timer.c ****         break;
 107              		.loc 1 63 0
ARM GAS  C:\Users\49542\AppData\Local\Temp\ccEBNRSE.s 			page 5


 108 008a 40F20140 		movw	r0, #1025
 109 008e FFF7FEFF 		bl	rcu_periph_reset_disable
 110              	.LVL11:
  64:C:/Users/49542/Desktop/GD32F30x_Demo_Suites_V2.0.0/GD32F30x_Demo_Suites_V2.0.0/GD32F30x_Firmware_Library/GD32F30x_standard_peripheral/Source\gd32f30x_timer.c ****     case TIMER3:
 111              		.loc 1 64 0
 112 0092 1BE0     		b	.L1
 113              	.LVL12:
 114              	.L13:
  49:C:/Users/49542/Desktop/GD32F30x_Demo_Suites_V2.0.0/GD32F30x_Demo_Suites_V2.0.0/GD32F30x_Firmware_Library/GD32F30x_standard_peripheral/Source\gd32f30x_timer.c ****     case TIMER0:
 115              		.loc 1 49 0
 116 0094 394B     		ldr	r3, .L23+12
 117 0096 9842     		cmp	r0, r3
 118 0098 46D0     		beq	.L17
 119 009a 03F58063 		add	r3, r3, #1024
 120 009e 9842     		cmp	r0, r3
 121 00a0 4BD0     		beq	.L18
 122 00a2 A3F50063 		sub	r3, r3, #2048
 123 00a6 9842     		cmp	r0, r3
 124 00a8 10D1     		bne	.L1
  93:C:/Users/49542/Desktop/GD32F30x_Demo_Suites_V2.0.0/GD32F30x_Demo_Suites_V2.0.0/GD32F30x_Firmware_Library/GD32F30x_standard_peripheral/Source\gd32f30x_timer.c ****         rcu_periph_reset_disable(RCU_TIMER8RST);
 125              		.loc 1 93 0
 126 00aa 40F21330 		movw	r0, #787
 127              	.LVL13:
 128 00ae FFF7FEFF 		bl	rcu_periph_reset_enable
 129              	.LVL14:
  94:C:/Users/49542/Desktop/GD32F30x_Demo_Suites_V2.0.0/GD32F30x_Demo_Suites_V2.0.0/GD32F30x_Firmware_Library/GD32F30x_standard_peripheral/Source\gd32f30x_timer.c ****         break;
 130              		.loc 1 94 0
 131 00b2 40F21330 		movw	r0, #787
 132 00b6 FFF7FEFF 		bl	rcu_periph_reset_disable
 133              	.LVL15:
  95:C:/Users/49542/Desktop/GD32F30x_Demo_Suites_V2.0.0/GD32F30x_Demo_Suites_V2.0.0/GD32F30x_Firmware_Library/GD32F30x_standard_peripheral/Source\gd32f30x_timer.c ****     case TIMER9:
 134              		.loc 1 95 0
 135 00ba 07E0     		b	.L1
 136              	.LVL16:
 137              	.L15:
  52:C:/Users/49542/Desktop/GD32F30x_Demo_Suites_V2.0.0/GD32F30x_Demo_Suites_V2.0.0/GD32F30x_Firmware_Library/GD32F30x_standard_peripheral/Source\gd32f30x_timer.c ****         rcu_periph_reset_disable(RCU_TIMER0RST);
 138              		.loc 1 52 0
 139 00bc 40F20B30 		movw	r0, #779
 140              	.LVL17:
 141 00c0 FFF7FEFF 		bl	rcu_periph_reset_enable
 142              	.LVL18:
  53:C:/Users/49542/Desktop/GD32F30x_Demo_Suites_V2.0.0/GD32F30x_Demo_Suites_V2.0.0/GD32F30x_Firmware_Library/GD32F30x_standard_peripheral/Source\gd32f30x_timer.c ****         break;
 143              		.loc 1 53 0
 144 00c4 40F20B30 		movw	r0, #779
 145 00c8 FFF7FEFF 		bl	rcu_periph_reset_disable
 146              	.LVL19:
 147              	.L1:
 116:C:/Users/49542/Desktop/GD32F30x_Demo_Suites_V2.0.0/GD32F30x_Demo_Suites_V2.0.0/GD32F30x_Firmware_Library/GD32F30x_standard_peripheral/Source\gd32f30x_timer.c ****     case TIMER13:
 117:C:/Users/49542/Desktop/GD32F30x_Demo_Suites_V2.0.0/GD32F30x_Demo_Suites_V2.0.0/GD32F30x_Firmware_Library/GD32F30x_standard_peripheral/Source\gd32f30x_timer.c ****         /* reset TIMER13 */
 118:C:/Users/49542/Desktop/GD32F30x_Demo_Suites_V2.0.0/GD32F30x_Demo_Suites_V2.0.0/GD32F30x_Firmware_Library/GD32F30x_standard_peripheral/Source\gd32f30x_timer.c ****         rcu_periph_reset_enable(RCU_TIMER13RST);
 119:C:/Users/49542/Desktop/GD32F30x_Demo_Suites_V2.0.0/GD32F30x_Demo_Suites_V2.0.0/GD32F30x_Firmware_Library/GD32F30x_standard_peripheral/Source\gd32f30x_timer.c ****         rcu_periph_reset_disable(RCU_TIMER13RST);
 120:C:/Users/49542/Desktop/GD32F30x_Demo_Suites_V2.0.0/GD32F30x_Demo_Suites_V2.0.0/GD32F30x_Firmware_Library/GD32F30x_standard_peripheral/Source\gd32f30x_timer.c ****         break;
 121:C:/Users/49542/Desktop/GD32F30x_Demo_Suites_V2.0.0/GD32F30x_Demo_Suites_V2.0.0/GD32F30x_Firmware_Library/GD32F30x_standard_peripheral/Source\gd32f30x_timer.c **** #endif /* GD32F30X_HD */
 122:C:/Users/49542/Desktop/GD32F30x_Demo_Suites_V2.0.0/GD32F30x_Demo_Suites_V2.0.0/GD32F30x_Firmware_Library/GD32F30x_standard_peripheral/Source\gd32f30x_timer.c ****     default:
 123:C:/Users/49542/Desktop/GD32F30x_Demo_Suites_V2.0.0/GD32F30x_Demo_Suites_V2.0.0/GD32F30x_Firmware_Library/GD32F30x_standard_peripheral/Source\gd32f30x_timer.c ****         break;
 124:C:/Users/49542/Desktop/GD32F30x_Demo_Suites_V2.0.0/GD32F30x_Demo_Suites_V2.0.0/GD32F30x_Firmware_Library/GD32F30x_standard_peripheral/Source\gd32f30x_timer.c ****     }
 125:C:/Users/49542/Desktop/GD32F30x_Demo_Suites_V2.0.0/GD32F30x_Demo_Suites_V2.0.0/GD32F30x_Firmware_Library/GD32F30x_standard_peripheral/Source\gd32f30x_timer.c **** }
ARM GAS  C:\Users\49542\AppData\Local\Temp\ccEBNRSE.s 			page 6


 148              		.loc 1 125 0
 149 00cc 08BD     		pop	{r3, pc}
 150              	.LVL20:
 151              	.L7:
  57:C:/Users/49542/Desktop/GD32F30x_Demo_Suites_V2.0.0/GD32F30x_Demo_Suites_V2.0.0/GD32F30x_Firmware_Library/GD32F30x_standard_peripheral/Source\gd32f30x_timer.c ****         rcu_periph_reset_disable(RCU_TIMER1RST);
 152              		.loc 1 57 0
 153 00ce 4FF48060 		mov	r0, #1024
 154              	.LVL21:
 155 00d2 FFF7FEFF 		bl	rcu_periph_reset_enable
 156              	.LVL22:
  58:C:/Users/49542/Desktop/GD32F30x_Demo_Suites_V2.0.0/GD32F30x_Demo_Suites_V2.0.0/GD32F30x_Firmware_Library/GD32F30x_standard_peripheral/Source\gd32f30x_timer.c ****         break;
 157              		.loc 1 58 0
 158 00d6 4FF48060 		mov	r0, #1024
 159 00da FFF7FEFF 		bl	rcu_periph_reset_disable
 160              	.LVL23:
  59:C:/Users/49542/Desktop/GD32F30x_Demo_Suites_V2.0.0/GD32F30x_Demo_Suites_V2.0.0/GD32F30x_Firmware_Library/GD32F30x_standard_peripheral/Source\gd32f30x_timer.c ****     case TIMER2:
 161              		.loc 1 59 0
 162 00de F5E7     		b	.L1
 163              	.LVL24:
 164              	.L5:
  67:C:/Users/49542/Desktop/GD32F30x_Demo_Suites_V2.0.0/GD32F30x_Demo_Suites_V2.0.0/GD32F30x_Firmware_Library/GD32F30x_standard_peripheral/Source\gd32f30x_timer.c ****         rcu_periph_reset_disable(RCU_TIMER3RST);
 165              		.loc 1 67 0
 166 00e0 40F20240 		movw	r0, #1026
 167              	.LVL25:
 168 00e4 FFF7FEFF 		bl	rcu_periph_reset_enable
 169              	.LVL26:
  68:C:/Users/49542/Desktop/GD32F30x_Demo_Suites_V2.0.0/GD32F30x_Demo_Suites_V2.0.0/GD32F30x_Firmware_Library/GD32F30x_standard_peripheral/Source\gd32f30x_timer.c ****         break;
 170              		.loc 1 68 0
 171 00e8 40F20240 		movw	r0, #1026
 172 00ec FFF7FEFF 		bl	rcu_periph_reset_disable
 173              	.LVL27:
  69:C:/Users/49542/Desktop/GD32F30x_Demo_Suites_V2.0.0/GD32F30x_Demo_Suites_V2.0.0/GD32F30x_Firmware_Library/GD32F30x_standard_peripheral/Source\gd32f30x_timer.c ****     case TIMER4:
 174              		.loc 1 69 0
 175 00f0 ECE7     		b	.L1
 176              	.LVL28:
 177              	.L9:
  77:C:/Users/49542/Desktop/GD32F30x_Demo_Suites_V2.0.0/GD32F30x_Demo_Suites_V2.0.0/GD32F30x_Firmware_Library/GD32F30x_standard_peripheral/Source\gd32f30x_timer.c ****         rcu_periph_reset_disable(RCU_TIMER5RST);
 178              		.loc 1 77 0
 179 00f2 40F20440 		movw	r0, #1028
 180              	.LVL29:
 181 00f6 FFF7FEFF 		bl	rcu_periph_reset_enable
 182              	.LVL30:
  78:C:/Users/49542/Desktop/GD32F30x_Demo_Suites_V2.0.0/GD32F30x_Demo_Suites_V2.0.0/GD32F30x_Firmware_Library/GD32F30x_standard_peripheral/Source\gd32f30x_timer.c ****         break;
 183              		.loc 1 78 0
 184 00fa 40F20440 		movw	r0, #1028
 185 00fe FFF7FEFF 		bl	rcu_periph_reset_disable
 186              	.LVL31:
  79:C:/Users/49542/Desktop/GD32F30x_Demo_Suites_V2.0.0/GD32F30x_Demo_Suites_V2.0.0/GD32F30x_Firmware_Library/GD32F30x_standard_peripheral/Source\gd32f30x_timer.c ****     case TIMER6:
 187              		.loc 1 79 0
 188 0102 E3E7     		b	.L1
 189              	.LVL32:
 190              	.L10:
  82:C:/Users/49542/Desktop/GD32F30x_Demo_Suites_V2.0.0/GD32F30x_Demo_Suites_V2.0.0/GD32F30x_Firmware_Library/GD32F30x_standard_peripheral/Source\gd32f30x_timer.c ****         rcu_periph_reset_disable(RCU_TIMER6RST);
 191              		.loc 1 82 0
 192 0104 40F20540 		movw	r0, #1029
 193              	.LVL33:
 194 0108 FFF7FEFF 		bl	rcu_periph_reset_enable
ARM GAS  C:\Users\49542\AppData\Local\Temp\ccEBNRSE.s 			page 7


 195              	.LVL34:
  83:C:/Users/49542/Desktop/GD32F30x_Demo_Suites_V2.0.0/GD32F30x_Demo_Suites_V2.0.0/GD32F30x_Firmware_Library/GD32F30x_standard_peripheral/Source\gd32f30x_timer.c ****         break;
 196              		.loc 1 83 0
 197 010c 40F20540 		movw	r0, #1029
 198 0110 FFF7FEFF 		bl	rcu_periph_reset_disable
 199              	.LVL35:
  84:C:/Users/49542/Desktop/GD32F30x_Demo_Suites_V2.0.0/GD32F30x_Demo_Suites_V2.0.0/GD32F30x_Firmware_Library/GD32F30x_standard_peripheral/Source\gd32f30x_timer.c ****     case TIMER7:
 200              		.loc 1 84 0
 201 0114 DAE7     		b	.L1
 202              	.LVL36:
 203              	.L12:
  87:C:/Users/49542/Desktop/GD32F30x_Demo_Suites_V2.0.0/GD32F30x_Demo_Suites_V2.0.0/GD32F30x_Firmware_Library/GD32F30x_standard_peripheral/Source\gd32f30x_timer.c ****         rcu_periph_reset_disable(RCU_TIMER7RST);
 204              		.loc 1 87 0
 205 0116 40F20D30 		movw	r0, #781
 206              	.LVL37:
 207 011a FFF7FEFF 		bl	rcu_periph_reset_enable
 208              	.LVL38:
  88:C:/Users/49542/Desktop/GD32F30x_Demo_Suites_V2.0.0/GD32F30x_Demo_Suites_V2.0.0/GD32F30x_Firmware_Library/GD32F30x_standard_peripheral/Source\gd32f30x_timer.c ****         break;
 209              		.loc 1 88 0
 210 011e 40F20D30 		movw	r0, #781
 211 0122 FFF7FEFF 		bl	rcu_periph_reset_disable
 212              	.LVL39:
  89:C:/Users/49542/Desktop/GD32F30x_Demo_Suites_V2.0.0/GD32F30x_Demo_Suites_V2.0.0/GD32F30x_Firmware_Library/GD32F30x_standard_peripheral/Source\gd32f30x_timer.c **** #ifndef GD32F30X_HD
 213              		.loc 1 89 0
 214 0126 D1E7     		b	.L1
 215              	.LVL40:
 216              	.L17:
  98:C:/Users/49542/Desktop/GD32F30x_Demo_Suites_V2.0.0/GD32F30x_Demo_Suites_V2.0.0/GD32F30x_Firmware_Library/GD32F30x_standard_peripheral/Source\gd32f30x_timer.c ****         rcu_periph_reset_disable(RCU_TIMER9RST);
 217              		.loc 1 98 0
 218 0128 4FF44570 		mov	r0, #788
 219              	.LVL41:
 220 012c FFF7FEFF 		bl	rcu_periph_reset_enable
 221              	.LVL42:
  99:C:/Users/49542/Desktop/GD32F30x_Demo_Suites_V2.0.0/GD32F30x_Demo_Suites_V2.0.0/GD32F30x_Firmware_Library/GD32F30x_standard_peripheral/Source\gd32f30x_timer.c ****         break;
 222              		.loc 1 99 0
 223 0130 4FF44570 		mov	r0, #788
 224 0134 FFF7FEFF 		bl	rcu_periph_reset_disable
 225              	.LVL43:
 100:C:/Users/49542/Desktop/GD32F30x_Demo_Suites_V2.0.0/GD32F30x_Demo_Suites_V2.0.0/GD32F30x_Firmware_Library/GD32F30x_standard_peripheral/Source\gd32f30x_timer.c ****     case TIMER10:
 226              		.loc 1 100 0
 227 0138 C8E7     		b	.L1
 228              	.LVL44:
 229              	.L18:
 103:C:/Users/49542/Desktop/GD32F30x_Demo_Suites_V2.0.0/GD32F30x_Demo_Suites_V2.0.0/GD32F30x_Firmware_Library/GD32F30x_standard_peripheral/Source\gd32f30x_timer.c ****         rcu_periph_reset_disable(RCU_TIMER10RST);
 230              		.loc 1 103 0
 231 013a 40F21530 		movw	r0, #789
 232              	.LVL45:
 233 013e FFF7FEFF 		bl	rcu_periph_reset_enable
 234              	.LVL46:
 104:C:/Users/49542/Desktop/GD32F30x_Demo_Suites_V2.0.0/GD32F30x_Demo_Suites_V2.0.0/GD32F30x_Firmware_Library/GD32F30x_standard_peripheral/Source\gd32f30x_timer.c ****         break;
 235              		.loc 1 104 0
 236 0142 40F21530 		movw	r0, #789
 237 0146 FFF7FEFF 		bl	rcu_periph_reset_disable
 238              	.LVL47:
 105:C:/Users/49542/Desktop/GD32F30x_Demo_Suites_V2.0.0/GD32F30x_Demo_Suites_V2.0.0/GD32F30x_Firmware_Library/GD32F30x_standard_peripheral/Source\gd32f30x_timer.c ****     case TIMER11:
 239              		.loc 1 105 0
 240 014a BFE7     		b	.L1
ARM GAS  C:\Users\49542\AppData\Local\Temp\ccEBNRSE.s 			page 8


 241              	.LVL48:
 242              	.L3:
 108:C:/Users/49542/Desktop/GD32F30x_Demo_Suites_V2.0.0/GD32F30x_Demo_Suites_V2.0.0/GD32F30x_Firmware_Library/GD32F30x_standard_peripheral/Source\gd32f30x_timer.c ****         rcu_periph_reset_disable(RCU_TIMER11RST);
 243              		.loc 1 108 0
 244 014c 40F20640 		movw	r0, #1030
 245              	.LVL49:
 246 0150 FFF7FEFF 		bl	rcu_periph_reset_enable
 247              	.LVL50:
 109:C:/Users/49542/Desktop/GD32F30x_Demo_Suites_V2.0.0/GD32F30x_Demo_Suites_V2.0.0/GD32F30x_Firmware_Library/GD32F30x_standard_peripheral/Source\gd32f30x_timer.c ****         break;
 248              		.loc 1 109 0
 249 0154 40F20640 		movw	r0, #1030
 250 0158 FFF7FEFF 		bl	rcu_periph_reset_disable
 251              	.LVL51:
 110:C:/Users/49542/Desktop/GD32F30x_Demo_Suites_V2.0.0/GD32F30x_Demo_Suites_V2.0.0/GD32F30x_Firmware_Library/GD32F30x_standard_peripheral/Source\gd32f30x_timer.c ****     case TIMER12:
 252              		.loc 1 110 0
 253 015c B6E7     		b	.L1
 254              	.LVL52:
 255              	.L14:
 118:C:/Users/49542/Desktop/GD32F30x_Demo_Suites_V2.0.0/GD32F30x_Demo_Suites_V2.0.0/GD32F30x_Firmware_Library/GD32F30x_standard_peripheral/Source\gd32f30x_timer.c ****         rcu_periph_reset_disable(RCU_TIMER13RST);
 256              		.loc 1 118 0
 257 015e 4FF48160 		mov	r0, #1032
 258              	.LVL53:
 259 0162 FFF7FEFF 		bl	rcu_periph_reset_enable
 260              	.LVL54:
 119:C:/Users/49542/Desktop/GD32F30x_Demo_Suites_V2.0.0/GD32F30x_Demo_Suites_V2.0.0/GD32F30x_Firmware_Library/GD32F30x_standard_peripheral/Source\gd32f30x_timer.c ****         break;
 261              		.loc 1 119 0
 262 0166 4FF48160 		mov	r0, #1032
 263 016a FFF7FEFF 		bl	rcu_periph_reset_disable
 264              	.LVL55:
 265              		.loc 1 125 0
 266 016e ADE7     		b	.L1
 267              	.L24:
 268              		.align	2
 269              	.L23:
 270 0170 00180040 		.word	1073747968
 271 0174 00340140 		.word	1073820672
 272 0178 00100040 		.word	1073745920
 273 017c 00500140 		.word	1073827840
 274              		.cfi_endproc
 275              	.LFE116:
 277              		.section	.text.timer_struct_para_init,"ax",%progbits
 278              		.align	1
 279              		.global	timer_struct_para_init
 280              		.syntax unified
 281              		.thumb
 282              		.thumb_func
 283              		.fpu fpv4-sp-d16
 285              	timer_struct_para_init:
 286              	.LFB117:
 126:C:/Users/49542/Desktop/GD32F30x_Demo_Suites_V2.0.0/GD32F30x_Demo_Suites_V2.0.0/GD32F30x_Firmware_Library/GD32F30x_standard_peripheral/Source\gd32f30x_timer.c **** 
 127:C:/Users/49542/Desktop/GD32F30x_Demo_Suites_V2.0.0/GD32F30x_Demo_Suites_V2.0.0/GD32F30x_Firmware_Library/GD32F30x_standard_peripheral/Source\gd32f30x_timer.c **** /*!
 128:C:/Users/49542/Desktop/GD32F30x_Demo_Suites_V2.0.0/GD32F30x_Demo_Suites_V2.0.0/GD32F30x_Firmware_Library/GD32F30x_standard_peripheral/Source\gd32f30x_timer.c ****     \brief      initialize TIMER init parameter struct with a default value
 129:C:/Users/49542/Desktop/GD32F30x_Demo_Suites_V2.0.0/GD32F30x_Demo_Suites_V2.0.0/GD32F30x_Firmware_Library/GD32F30x_standard_peripheral/Source\gd32f30x_timer.c ****     \param[in]  initpara: init parameter struct
 130:C:/Users/49542/Desktop/GD32F30x_Demo_Suites_V2.0.0/GD32F30x_Demo_Suites_V2.0.0/GD32F30x_Firmware_Library/GD32F30x_standard_peripheral/Source\gd32f30x_timer.c ****     \param[out] none
 131:C:/Users/49542/Desktop/GD32F30x_Demo_Suites_V2.0.0/GD32F30x_Demo_Suites_V2.0.0/GD32F30x_Firmware_Library/GD32F30x_standard_peripheral/Source\gd32f30x_timer.c ****     \retval     none
 132:C:/Users/49542/Desktop/GD32F30x_Demo_Suites_V2.0.0/GD32F30x_Demo_Suites_V2.0.0/GD32F30x_Firmware_Library/GD32F30x_standard_peripheral/Source\gd32f30x_timer.c **** */
 133:C:/Users/49542/Desktop/GD32F30x_Demo_Suites_V2.0.0/GD32F30x_Demo_Suites_V2.0.0/GD32F30x_Firmware_Library/GD32F30x_standard_peripheral/Source\gd32f30x_timer.c **** void timer_struct_para_init(timer_parameter_struct* initpara)
ARM GAS  C:\Users\49542\AppData\Local\Temp\ccEBNRSE.s 			page 9


 134:C:/Users/49542/Desktop/GD32F30x_Demo_Suites_V2.0.0/GD32F30x_Demo_Suites_V2.0.0/GD32F30x_Firmware_Library/GD32F30x_standard_peripheral/Source\gd32f30x_timer.c **** {
 287              		.loc 1 134 0
 288              		.cfi_startproc
 289              		@ args = 0, pretend = 0, frame = 0
 290              		@ frame_needed = 0, uses_anonymous_args = 0
 291              		@ link register save eliminated.
 292              	.LVL56:
 135:C:/Users/49542/Desktop/GD32F30x_Demo_Suites_V2.0.0/GD32F30x_Demo_Suites_V2.0.0/GD32F30x_Firmware_Library/GD32F30x_standard_peripheral/Source\gd32f30x_timer.c ****     /* initialize the init parameter struct member with the default value */
 136:C:/Users/49542/Desktop/GD32F30x_Demo_Suites_V2.0.0/GD32F30x_Demo_Suites_V2.0.0/GD32F30x_Firmware_Library/GD32F30x_standard_peripheral/Source\gd32f30x_timer.c ****     initpara->prescaler         = 0U;
 293              		.loc 1 136 0
 294 0000 0023     		movs	r3, #0
 295 0002 0380     		strh	r3, [r0]	@ movhi
 137:C:/Users/49542/Desktop/GD32F30x_Demo_Suites_V2.0.0/GD32F30x_Demo_Suites_V2.0.0/GD32F30x_Firmware_Library/GD32F30x_standard_peripheral/Source\gd32f30x_timer.c ****     initpara->alignedmode       = TIMER_COUNTER_EDGE;
 296              		.loc 1 137 0
 297 0004 4380     		strh	r3, [r0, #2]	@ movhi
 138:C:/Users/49542/Desktop/GD32F30x_Demo_Suites_V2.0.0/GD32F30x_Demo_Suites_V2.0.0/GD32F30x_Firmware_Library/GD32F30x_standard_peripheral/Source\gd32f30x_timer.c ****     initpara->counterdirection  = TIMER_COUNTER_UP;
 298              		.loc 1 138 0
 299 0006 8380     		strh	r3, [r0, #4]	@ movhi
 139:C:/Users/49542/Desktop/GD32F30x_Demo_Suites_V2.0.0/GD32F30x_Demo_Suites_V2.0.0/GD32F30x_Firmware_Library/GD32F30x_standard_peripheral/Source\gd32f30x_timer.c ****     initpara->period            = 65535U;
 300              		.loc 1 139 0
 301 0008 4FF6FF72 		movw	r2, #65535
 302 000c 8260     		str	r2, [r0, #8]
 140:C:/Users/49542/Desktop/GD32F30x_Demo_Suites_V2.0.0/GD32F30x_Demo_Suites_V2.0.0/GD32F30x_Firmware_Library/GD32F30x_standard_peripheral/Source\gd32f30x_timer.c ****     initpara->clockdivision     = TIMER_CKDIV_DIV1;
 303              		.loc 1 140 0
 304 000e C380     		strh	r3, [r0, #6]	@ movhi
 141:C:/Users/49542/Desktop/GD32F30x_Demo_Suites_V2.0.0/GD32F30x_Demo_Suites_V2.0.0/GD32F30x_Firmware_Library/GD32F30x_standard_peripheral/Source\gd32f30x_timer.c ****     initpara->repetitioncounter = 0U;
 305              		.loc 1 141 0
 306 0010 0373     		strb	r3, [r0, #12]
 142:C:/Users/49542/Desktop/GD32F30x_Demo_Suites_V2.0.0/GD32F30x_Demo_Suites_V2.0.0/GD32F30x_Firmware_Library/GD32F30x_standard_peripheral/Source\gd32f30x_timer.c **** }
 307              		.loc 1 142 0
 308 0012 7047     		bx	lr
 309              		.cfi_endproc
 310              	.LFE117:
 312              		.section	.text.timer_init,"ax",%progbits
 313              		.align	1
 314              		.global	timer_init
 315              		.syntax unified
 316              		.thumb
 317              		.thumb_func
 318              		.fpu fpv4-sp-d16
 320              	timer_init:
 321              	.LFB118:
 143:C:/Users/49542/Desktop/GD32F30x_Demo_Suites_V2.0.0/GD32F30x_Demo_Suites_V2.0.0/GD32F30x_Firmware_Library/GD32F30x_standard_peripheral/Source\gd32f30x_timer.c **** 
 144:C:/Users/49542/Desktop/GD32F30x_Demo_Suites_V2.0.0/GD32F30x_Demo_Suites_V2.0.0/GD32F30x_Firmware_Library/GD32F30x_standard_peripheral/Source\gd32f30x_timer.c **** /*!
 145:C:/Users/49542/Desktop/GD32F30x_Demo_Suites_V2.0.0/GD32F30x_Demo_Suites_V2.0.0/GD32F30x_Firmware_Library/GD32F30x_standard_peripheral/Source\gd32f30x_timer.c ****     \brief      initialize TIMER counter
 146:C:/Users/49542/Desktop/GD32F30x_Demo_Suites_V2.0.0/GD32F30x_Demo_Suites_V2.0.0/GD32F30x_Firmware_Library/GD32F30x_standard_peripheral/Source\gd32f30x_timer.c ****     \param[in]  timer_periph: TIMERx(x=0..13)
 147:C:/Users/49542/Desktop/GD32F30x_Demo_Suites_V2.0.0/GD32F30x_Demo_Suites_V2.0.0/GD32F30x_Firmware_Library/GD32F30x_standard_peripheral/Source\gd32f30x_timer.c ****     \param[in]  initpara: init parameter struct
 148:C:/Users/49542/Desktop/GD32F30x_Demo_Suites_V2.0.0/GD32F30x_Demo_Suites_V2.0.0/GD32F30x_Firmware_Library/GD32F30x_standard_peripheral/Source\gd32f30x_timer.c ****                   prescaler: prescaler value of the counter clock, 0~65535
 149:C:/Users/49542/Desktop/GD32F30x_Demo_Suites_V2.0.0/GD32F30x_Demo_Suites_V2.0.0/GD32F30x_Firmware_Library/GD32F30x_standard_peripheral/Source\gd32f30x_timer.c ****                   alignedmode: TIMER_COUNTER_EDGE, TIMER_COUNTER_CENTER_DOWN, TIMER_COUNTER_CENTER_
 150:C:/Users/49542/Desktop/GD32F30x_Demo_Suites_V2.0.0/GD32F30x_Demo_Suites_V2.0.0/GD32F30x_Firmware_Library/GD32F30x_standard_peripheral/Source\gd32f30x_timer.c ****                   counterdirection: TIMER_COUNTER_UP, TIMER_COUNTER_DOWN
 151:C:/Users/49542/Desktop/GD32F30x_Demo_Suites_V2.0.0/GD32F30x_Demo_Suites_V2.0.0/GD32F30x_Firmware_Library/GD32F30x_standard_peripheral/Source\gd32f30x_timer.c ****                   period: counter auto reload value, 0~65535
 152:C:/Users/49542/Desktop/GD32F30x_Demo_Suites_V2.0.0/GD32F30x_Demo_Suites_V2.0.0/GD32F30x_Firmware_Library/GD32F30x_standard_peripheral/Source\gd32f30x_timer.c ****                   clockdivision: TIMER_CKDIV_DIV1, TIMER_CKDIV_DIV2, TIMER_CKDIV_DIV4
 153:C:/Users/49542/Desktop/GD32F30x_Demo_Suites_V2.0.0/GD32F30x_Demo_Suites_V2.0.0/GD32F30x_Firmware_Library/GD32F30x_standard_peripheral/Source\gd32f30x_timer.c ****                   repetitioncounter: counter repetition value, 0~255
 154:C:/Users/49542/Desktop/GD32F30x_Demo_Suites_V2.0.0/GD32F30x_Demo_Suites_V2.0.0/GD32F30x_Firmware_Library/GD32F30x_standard_peripheral/Source\gd32f30x_timer.c ****     \param[out] none
 155:C:/Users/49542/Desktop/GD32F30x_Demo_Suites_V2.0.0/GD32F30x_Demo_Suites_V2.0.0/GD32F30x_Firmware_Library/GD32F30x_standard_peripheral/Source\gd32f30x_timer.c ****     \retval     none
 156:C:/Users/49542/Desktop/GD32F30x_Demo_Suites_V2.0.0/GD32F30x_Demo_Suites_V2.0.0/GD32F30x_Firmware_Library/GD32F30x_standard_peripheral/Source\gd32f30x_timer.c **** */
 157:C:/Users/49542/Desktop/GD32F30x_Demo_Suites_V2.0.0/GD32F30x_Demo_Suites_V2.0.0/GD32F30x_Firmware_Library/GD32F30x_standard_peripheral/Source\gd32f30x_timer.c **** void timer_init(uint32_t timer_periph, timer_parameter_struct* initpara)
ARM GAS  C:\Users\49542\AppData\Local\Temp\ccEBNRSE.s 			page 10


 158:C:/Users/49542/Desktop/GD32F30x_Demo_Suites_V2.0.0/GD32F30x_Demo_Suites_V2.0.0/GD32F30x_Firmware_Library/GD32F30x_standard_peripheral/Source\gd32f30x_timer.c **** {
 322              		.loc 1 158 0
 323              		.cfi_startproc
 324              		@ args = 0, pretend = 0, frame = 0
 325              		@ frame_needed = 0, uses_anonymous_args = 0
 326              		@ link register save eliminated.
 327              	.LVL57:
 159:C:/Users/49542/Desktop/GD32F30x_Demo_Suites_V2.0.0/GD32F30x_Demo_Suites_V2.0.0/GD32F30x_Firmware_Library/GD32F30x_standard_peripheral/Source\gd32f30x_timer.c ****     /* configure the counter prescaler value */
 160:C:/Users/49542/Desktop/GD32F30x_Demo_Suites_V2.0.0/GD32F30x_Demo_Suites_V2.0.0/GD32F30x_Firmware_Library/GD32F30x_standard_peripheral/Source\gd32f30x_timer.c ****     TIMER_PSC(timer_periph) = (uint16_t)initpara->prescaler;
 328              		.loc 1 160 0
 329 0000 0B88     		ldrh	r3, [r1]
 330 0002 8362     		str	r3, [r0, #40]
 161:C:/Users/49542/Desktop/GD32F30x_Demo_Suites_V2.0.0/GD32F30x_Demo_Suites_V2.0.0/GD32F30x_Firmware_Library/GD32F30x_standard_peripheral/Source\gd32f30x_timer.c **** 
 162:C:/Users/49542/Desktop/GD32F30x_Demo_Suites_V2.0.0/GD32F30x_Demo_Suites_V2.0.0/GD32F30x_Firmware_Library/GD32F30x_standard_peripheral/Source\gd32f30x_timer.c ****     /* configure the counter direction and aligned mode */
 163:C:/Users/49542/Desktop/GD32F30x_Demo_Suites_V2.0.0/GD32F30x_Demo_Suites_V2.0.0/GD32F30x_Firmware_Library/GD32F30x_standard_peripheral/Source\gd32f30x_timer.c ****     if((TIMER0 == timer_periph) || (TIMER1 == timer_periph) || (TIMER2 == timer_periph)
 331              		.loc 1 163 0
 332 0004 204B     		ldr	r3, .L32
 333 0006 9842     		cmp	r0, r3
 334 0008 12D0     		beq	.L27
 335              		.loc 1 163 0 is_stmt 0 discriminator 1
 336 000a B0F1804F 		cmp	r0, #1073741824
 337 000e 0FD0     		beq	.L27
 338              		.loc 1 163 0 discriminator 2
 339 0010 A3F59433 		sub	r3, r3, #75776
 340 0014 9842     		cmp	r0, r3
 341 0016 0BD0     		beq	.L27
 164:C:/Users/49542/Desktop/GD32F30x_Demo_Suites_V2.0.0/GD32F30x_Demo_Suites_V2.0.0/GD32F30x_Firmware_Library/GD32F30x_standard_peripheral/Source\gd32f30x_timer.c ****         || (TIMER3 == timer_periph) || (TIMER4 == timer_periph) || (TIMER7 == timer_periph)){
 342              		.loc 1 164 0 is_stmt 1
 343 0018 03F58063 		add	r3, r3, #1024
 344 001c 9842     		cmp	r0, r3
 345 001e 07D0     		beq	.L27
 346              		.loc 1 164 0 is_stmt 0 discriminator 1
 347 0020 03F58063 		add	r3, r3, #1024
 348 0024 9842     		cmp	r0, r3
 349 0026 03D0     		beq	.L27
 350              		.loc 1 164 0 discriminator 2
 351 0028 03F59433 		add	r3, r3, #75776
 352 002c 9842     		cmp	r0, r3
 353 002e 0BD1     		bne	.L28
 354              	.L27:
 165:C:/Users/49542/Desktop/GD32F30x_Demo_Suites_V2.0.0/GD32F30x_Demo_Suites_V2.0.0/GD32F30x_Firmware_Library/GD32F30x_standard_peripheral/Source\gd32f30x_timer.c ****         TIMER_CTL0(timer_periph) &= ~(uint32_t)(TIMER_CTL0_DIR|TIMER_CTL0_CAM);
 355              		.loc 1 165 0 is_stmt 1
 356 0030 0368     		ldr	r3, [r0]
 357 0032 23F07003 		bic	r3, r3, #112
 358 0036 0360     		str	r3, [r0]
 166:C:/Users/49542/Desktop/GD32F30x_Demo_Suites_V2.0.0/GD32F30x_Demo_Suites_V2.0.0/GD32F30x_Firmware_Library/GD32F30x_standard_peripheral/Source\gd32f30x_timer.c ****         TIMER_CTL0(timer_periph) |= (uint32_t)initpara->alignedmode;
 359              		.loc 1 166 0
 360 0038 0368     		ldr	r3, [r0]
 361 003a 4A88     		ldrh	r2, [r1, #2]
 362 003c 1343     		orrs	r3, r3, r2
 363 003e 0360     		str	r3, [r0]
 167:C:/Users/49542/Desktop/GD32F30x_Demo_Suites_V2.0.0/GD32F30x_Demo_Suites_V2.0.0/GD32F30x_Firmware_Library/GD32F30x_standard_peripheral/Source\gd32f30x_timer.c ****         TIMER_CTL0(timer_periph) |= (uint32_t)initpara->counterdirection;
 364              		.loc 1 167 0
 365 0040 0368     		ldr	r3, [r0]
 366 0042 8A88     		ldrh	r2, [r1, #4]
 367 0044 1343     		orrs	r3, r3, r2
 368 0046 0360     		str	r3, [r0]
ARM GAS  C:\Users\49542\AppData\Local\Temp\ccEBNRSE.s 			page 11


 369              	.L28:
 168:C:/Users/49542/Desktop/GD32F30x_Demo_Suites_V2.0.0/GD32F30x_Demo_Suites_V2.0.0/GD32F30x_Firmware_Library/GD32F30x_standard_peripheral/Source\gd32f30x_timer.c ****     }
 169:C:/Users/49542/Desktop/GD32F30x_Demo_Suites_V2.0.0/GD32F30x_Demo_Suites_V2.0.0/GD32F30x_Firmware_Library/GD32F30x_standard_peripheral/Source\gd32f30x_timer.c **** 
 170:C:/Users/49542/Desktop/GD32F30x_Demo_Suites_V2.0.0/GD32F30x_Demo_Suites_V2.0.0/GD32F30x_Firmware_Library/GD32F30x_standard_peripheral/Source\gd32f30x_timer.c ****     /* configure the autoreload value */
 171:C:/Users/49542/Desktop/GD32F30x_Demo_Suites_V2.0.0/GD32F30x_Demo_Suites_V2.0.0/GD32F30x_Firmware_Library/GD32F30x_standard_peripheral/Source\gd32f30x_timer.c ****     TIMER_CAR(timer_periph) = (uint32_t)initpara->period;
 370              		.loc 1 171 0
 371 0048 8B68     		ldr	r3, [r1, #8]
 372 004a C362     		str	r3, [r0, #44]
 172:C:/Users/49542/Desktop/GD32F30x_Demo_Suites_V2.0.0/GD32F30x_Demo_Suites_V2.0.0/GD32F30x_Firmware_Library/GD32F30x_standard_peripheral/Source\gd32f30x_timer.c **** 
 173:C:/Users/49542/Desktop/GD32F30x_Demo_Suites_V2.0.0/GD32F30x_Demo_Suites_V2.0.0/GD32F30x_Firmware_Library/GD32F30x_standard_peripheral/Source\gd32f30x_timer.c ****     if((TIMER5 != timer_periph) && (TIMER6 != timer_periph)){
 373              		.loc 1 173 0
 374 004c 0F4B     		ldr	r3, .L32+4
 375 004e 9842     		cmp	r0, r3
 376 0050 0BD0     		beq	.L29
 377              		.loc 1 173 0 is_stmt 0 discriminator 1
 378 0052 03F58063 		add	r3, r3, #1024
 379 0056 9842     		cmp	r0, r3
 380 0058 07D0     		beq	.L29
 174:C:/Users/49542/Desktop/GD32F30x_Demo_Suites_V2.0.0/GD32F30x_Demo_Suites_V2.0.0/GD32F30x_Firmware_Library/GD32F30x_standard_peripheral/Source\gd32f30x_timer.c ****         /* reset the CKDIV bit */
 175:C:/Users/49542/Desktop/GD32F30x_Demo_Suites_V2.0.0/GD32F30x_Demo_Suites_V2.0.0/GD32F30x_Firmware_Library/GD32F30x_standard_peripheral/Source\gd32f30x_timer.c ****         TIMER_CTL0(timer_periph) &= ~(uint32_t)TIMER_CTL0_CKDIV;
 381              		.loc 1 175 0 is_stmt 1
 382 005a 0368     		ldr	r3, [r0]
 383 005c 23F44073 		bic	r3, r3, #768
 384 0060 0360     		str	r3, [r0]
 176:C:/Users/49542/Desktop/GD32F30x_Demo_Suites_V2.0.0/GD32F30x_Demo_Suites_V2.0.0/GD32F30x_Firmware_Library/GD32F30x_standard_peripheral/Source\gd32f30x_timer.c ****         TIMER_CTL0(timer_periph) |= (uint32_t)initpara->clockdivision;
 385              		.loc 1 176 0
 386 0062 0368     		ldr	r3, [r0]
 387 0064 CA88     		ldrh	r2, [r1, #6]
 388 0066 1343     		orrs	r3, r3, r2
 389 0068 0360     		str	r3, [r0]
 390              	.L29:
 177:C:/Users/49542/Desktop/GD32F30x_Demo_Suites_V2.0.0/GD32F30x_Demo_Suites_V2.0.0/GD32F30x_Firmware_Library/GD32F30x_standard_peripheral/Source\gd32f30x_timer.c ****     }
 178:C:/Users/49542/Desktop/GD32F30x_Demo_Suites_V2.0.0/GD32F30x_Demo_Suites_V2.0.0/GD32F30x_Firmware_Library/GD32F30x_standard_peripheral/Source\gd32f30x_timer.c **** 
 179:C:/Users/49542/Desktop/GD32F30x_Demo_Suites_V2.0.0/GD32F30x_Demo_Suites_V2.0.0/GD32F30x_Firmware_Library/GD32F30x_standard_peripheral/Source\gd32f30x_timer.c ****     if((TIMER0 == timer_periph) || (TIMER7 == timer_periph)){
 391              		.loc 1 179 0
 392 006a 074B     		ldr	r3, .L32
 393 006c 9842     		cmp	r0, r3
 394 006e 03D0     		beq	.L30
 395              		.loc 1 179 0 is_stmt 0 discriminator 1
 396 0070 03F50063 		add	r3, r3, #2048
 397 0074 9842     		cmp	r0, r3
 398 0076 01D1     		bne	.L31
 399              	.L30:
 180:C:/Users/49542/Desktop/GD32F30x_Demo_Suites_V2.0.0/GD32F30x_Demo_Suites_V2.0.0/GD32F30x_Firmware_Library/GD32F30x_standard_peripheral/Source\gd32f30x_timer.c ****         /* configure the repetition counter value */
 181:C:/Users/49542/Desktop/GD32F30x_Demo_Suites_V2.0.0/GD32F30x_Demo_Suites_V2.0.0/GD32F30x_Firmware_Library/GD32F30x_standard_peripheral/Source\gd32f30x_timer.c ****         TIMER_CREP(timer_periph) = (uint32_t)initpara->repetitioncounter;
 400              		.loc 1 181 0 is_stmt 1
 401 0078 0B7B     		ldrb	r3, [r1, #12]	@ zero_extendqisi2
 402 007a 0363     		str	r3, [r0, #48]
 403              	.L31:
 182:C:/Users/49542/Desktop/GD32F30x_Demo_Suites_V2.0.0/GD32F30x_Demo_Suites_V2.0.0/GD32F30x_Firmware_Library/GD32F30x_standard_peripheral/Source\gd32f30x_timer.c ****     }
 183:C:/Users/49542/Desktop/GD32F30x_Demo_Suites_V2.0.0/GD32F30x_Demo_Suites_V2.0.0/GD32F30x_Firmware_Library/GD32F30x_standard_peripheral/Source\gd32f30x_timer.c **** 
 184:C:/Users/49542/Desktop/GD32F30x_Demo_Suites_V2.0.0/GD32F30x_Demo_Suites_V2.0.0/GD32F30x_Firmware_Library/GD32F30x_standard_peripheral/Source\gd32f30x_timer.c ****     /* generate an update event */
 185:C:/Users/49542/Desktop/GD32F30x_Demo_Suites_V2.0.0/GD32F30x_Demo_Suites_V2.0.0/GD32F30x_Firmware_Library/GD32F30x_standard_peripheral/Source\gd32f30x_timer.c ****     TIMER_SWEVG(timer_periph) |= (uint32_t)TIMER_SWEVG_UPG;
 404              		.loc 1 185 0
 405 007c 4369     		ldr	r3, [r0, #20]
 406 007e 43F00103 		orr	r3, r3, #1
 407 0082 4361     		str	r3, [r0, #20]
ARM GAS  C:\Users\49542\AppData\Local\Temp\ccEBNRSE.s 			page 12


 186:C:/Users/49542/Desktop/GD32F30x_Demo_Suites_V2.0.0/GD32F30x_Demo_Suites_V2.0.0/GD32F30x_Firmware_Library/GD32F30x_standard_peripheral/Source\gd32f30x_timer.c **** }
 408              		.loc 1 186 0
 409 0084 7047     		bx	lr
 410              	.L33:
 411 0086 00BF     		.align	2
 412              	.L32:
 413 0088 002C0140 		.word	1073818624
 414 008c 00100040 		.word	1073745920
 415              		.cfi_endproc
 416              	.LFE118:
 418              		.section	.text.timer_enable,"ax",%progbits
 419              		.align	1
 420              		.global	timer_enable
 421              		.syntax unified
 422              		.thumb
 423              		.thumb_func
 424              		.fpu fpv4-sp-d16
 426              	timer_enable:
 427              	.LFB119:
 187:C:/Users/49542/Desktop/GD32F30x_Demo_Suites_V2.0.0/GD32F30x_Demo_Suites_V2.0.0/GD32F30x_Firmware_Library/GD32F30x_standard_peripheral/Source\gd32f30x_timer.c **** 
 188:C:/Users/49542/Desktop/GD32F30x_Demo_Suites_V2.0.0/GD32F30x_Demo_Suites_V2.0.0/GD32F30x_Firmware_Library/GD32F30x_standard_peripheral/Source\gd32f30x_timer.c **** /*!
 189:C:/Users/49542/Desktop/GD32F30x_Demo_Suites_V2.0.0/GD32F30x_Demo_Suites_V2.0.0/GD32F30x_Firmware_Library/GD32F30x_standard_peripheral/Source\gd32f30x_timer.c ****     \brief      enable a TIMER
 190:C:/Users/49542/Desktop/GD32F30x_Demo_Suites_V2.0.0/GD32F30x_Demo_Suites_V2.0.0/GD32F30x_Firmware_Library/GD32F30x_standard_peripheral/Source\gd32f30x_timer.c ****     \param[in]  timer_periph: TIMERx(x=0..13)
 191:C:/Users/49542/Desktop/GD32F30x_Demo_Suites_V2.0.0/GD32F30x_Demo_Suites_V2.0.0/GD32F30x_Firmware_Library/GD32F30x_standard_peripheral/Source\gd32f30x_timer.c ****     \param[out] none
 192:C:/Users/49542/Desktop/GD32F30x_Demo_Suites_V2.0.0/GD32F30x_Demo_Suites_V2.0.0/GD32F30x_Firmware_Library/GD32F30x_standard_peripheral/Source\gd32f30x_timer.c ****     \retval     none
 193:C:/Users/49542/Desktop/GD32F30x_Demo_Suites_V2.0.0/GD32F30x_Demo_Suites_V2.0.0/GD32F30x_Firmware_Library/GD32F30x_standard_peripheral/Source\gd32f30x_timer.c **** */
 194:C:/Users/49542/Desktop/GD32F30x_Demo_Suites_V2.0.0/GD32F30x_Demo_Suites_V2.0.0/GD32F30x_Firmware_Library/GD32F30x_standard_peripheral/Source\gd32f30x_timer.c **** void timer_enable(uint32_t timer_periph)
 195:C:/Users/49542/Desktop/GD32F30x_Demo_Suites_V2.0.0/GD32F30x_Demo_Suites_V2.0.0/GD32F30x_Firmware_Library/GD32F30x_standard_peripheral/Source\gd32f30x_timer.c **** {
 428              		.loc 1 195 0
 429              		.cfi_startproc
 430              		@ args = 0, pretend = 0, frame = 0
 431              		@ frame_needed = 0, uses_anonymous_args = 0
 432              		@ link register save eliminated.
 433              	.LVL58:
 196:C:/Users/49542/Desktop/GD32F30x_Demo_Suites_V2.0.0/GD32F30x_Demo_Suites_V2.0.0/GD32F30x_Firmware_Library/GD32F30x_standard_peripheral/Source\gd32f30x_timer.c ****     TIMER_CTL0(timer_periph) |= (uint32_t)TIMER_CTL0_CEN;
 434              		.loc 1 196 0
 435 0000 0368     		ldr	r3, [r0]
 436 0002 43F00103 		orr	r3, r3, #1
 437 0006 0360     		str	r3, [r0]
 197:C:/Users/49542/Desktop/GD32F30x_Demo_Suites_V2.0.0/GD32F30x_Demo_Suites_V2.0.0/GD32F30x_Firmware_Library/GD32F30x_standard_peripheral/Source\gd32f30x_timer.c **** }
 438              		.loc 1 197 0
 439 0008 7047     		bx	lr
 440              		.cfi_endproc
 441              	.LFE119:
 443              		.section	.text.timer_disable,"ax",%progbits
 444              		.align	1
 445              		.global	timer_disable
 446              		.syntax unified
 447              		.thumb
 448              		.thumb_func
 449              		.fpu fpv4-sp-d16
 451              	timer_disable:
 452              	.LFB120:
 198:C:/Users/49542/Desktop/GD32F30x_Demo_Suites_V2.0.0/GD32F30x_Demo_Suites_V2.0.0/GD32F30x_Firmware_Library/GD32F30x_standard_peripheral/Source\gd32f30x_timer.c **** 
 199:C:/Users/49542/Desktop/GD32F30x_Demo_Suites_V2.0.0/GD32F30x_Demo_Suites_V2.0.0/GD32F30x_Firmware_Library/GD32F30x_standard_peripheral/Source\gd32f30x_timer.c **** /*!
 200:C:/Users/49542/Desktop/GD32F30x_Demo_Suites_V2.0.0/GD32F30x_Demo_Suites_V2.0.0/GD32F30x_Firmware_Library/GD32F30x_standard_peripheral/Source\gd32f30x_timer.c ****     \brief      disable a TIMER
 201:C:/Users/49542/Desktop/GD32F30x_Demo_Suites_V2.0.0/GD32F30x_Demo_Suites_V2.0.0/GD32F30x_Firmware_Library/GD32F30x_standard_peripheral/Source\gd32f30x_timer.c ****     \param[in]  timer_periph: TIMERx(x=0..13)
ARM GAS  C:\Users\49542\AppData\Local\Temp\ccEBNRSE.s 			page 13


 202:C:/Users/49542/Desktop/GD32F30x_Demo_Suites_V2.0.0/GD32F30x_Demo_Suites_V2.0.0/GD32F30x_Firmware_Library/GD32F30x_standard_peripheral/Source\gd32f30x_timer.c ****     \param[out] none
 203:C:/Users/49542/Desktop/GD32F30x_Demo_Suites_V2.0.0/GD32F30x_Demo_Suites_V2.0.0/GD32F30x_Firmware_Library/GD32F30x_standard_peripheral/Source\gd32f30x_timer.c ****     \retval     none
 204:C:/Users/49542/Desktop/GD32F30x_Demo_Suites_V2.0.0/GD32F30x_Demo_Suites_V2.0.0/GD32F30x_Firmware_Library/GD32F30x_standard_peripheral/Source\gd32f30x_timer.c **** */
 205:C:/Users/49542/Desktop/GD32F30x_Demo_Suites_V2.0.0/GD32F30x_Demo_Suites_V2.0.0/GD32F30x_Firmware_Library/GD32F30x_standard_peripheral/Source\gd32f30x_timer.c **** void timer_disable(uint32_t timer_periph)
 206:C:/Users/49542/Desktop/GD32F30x_Demo_Suites_V2.0.0/GD32F30x_Demo_Suites_V2.0.0/GD32F30x_Firmware_Library/GD32F30x_standard_peripheral/Source\gd32f30x_timer.c **** {
 453              		.loc 1 206 0
 454              		.cfi_startproc
 455              		@ args = 0, pretend = 0, frame = 0
 456              		@ frame_needed = 0, uses_anonymous_args = 0
 457              		@ link register save eliminated.
 458              	.LVL59:
 207:C:/Users/49542/Desktop/GD32F30x_Demo_Suites_V2.0.0/GD32F30x_Demo_Suites_V2.0.0/GD32F30x_Firmware_Library/GD32F30x_standard_peripheral/Source\gd32f30x_timer.c ****     TIMER_CTL0(timer_periph) &= ~(uint32_t)TIMER_CTL0_CEN;
 459              		.loc 1 207 0
 460 0000 0368     		ldr	r3, [r0]
 461 0002 23F00103 		bic	r3, r3, #1
 462 0006 0360     		str	r3, [r0]
 208:C:/Users/49542/Desktop/GD32F30x_Demo_Suites_V2.0.0/GD32F30x_Demo_Suites_V2.0.0/GD32F30x_Firmware_Library/GD32F30x_standard_peripheral/Source\gd32f30x_timer.c **** }
 463              		.loc 1 208 0
 464 0008 7047     		bx	lr
 465              		.cfi_endproc
 466              	.LFE120:
 468              		.section	.text.timer_auto_reload_shadow_enable,"ax",%progbits
 469              		.align	1
 470              		.global	timer_auto_reload_shadow_enable
 471              		.syntax unified
 472              		.thumb
 473              		.thumb_func
 474              		.fpu fpv4-sp-d16
 476              	timer_auto_reload_shadow_enable:
 477              	.LFB121:
 209:C:/Users/49542/Desktop/GD32F30x_Demo_Suites_V2.0.0/GD32F30x_Demo_Suites_V2.0.0/GD32F30x_Firmware_Library/GD32F30x_standard_peripheral/Source\gd32f30x_timer.c **** 
 210:C:/Users/49542/Desktop/GD32F30x_Demo_Suites_V2.0.0/GD32F30x_Demo_Suites_V2.0.0/GD32F30x_Firmware_Library/GD32F30x_standard_peripheral/Source\gd32f30x_timer.c **** /*!
 211:C:/Users/49542/Desktop/GD32F30x_Demo_Suites_V2.0.0/GD32F30x_Demo_Suites_V2.0.0/GD32F30x_Firmware_Library/GD32F30x_standard_peripheral/Source\gd32f30x_timer.c ****     \brief      enable the auto reload shadow function
 212:C:/Users/49542/Desktop/GD32F30x_Demo_Suites_V2.0.0/GD32F30x_Demo_Suites_V2.0.0/GD32F30x_Firmware_Library/GD32F30x_standard_peripheral/Source\gd32f30x_timer.c ****     \param[in]  timer_periph: TIMERx(x=0..13)
 213:C:/Users/49542/Desktop/GD32F30x_Demo_Suites_V2.0.0/GD32F30x_Demo_Suites_V2.0.0/GD32F30x_Firmware_Library/GD32F30x_standard_peripheral/Source\gd32f30x_timer.c ****     \param[out] none
 214:C:/Users/49542/Desktop/GD32F30x_Demo_Suites_V2.0.0/GD32F30x_Demo_Suites_V2.0.0/GD32F30x_Firmware_Library/GD32F30x_standard_peripheral/Source\gd32f30x_timer.c ****     \retval     none
 215:C:/Users/49542/Desktop/GD32F30x_Demo_Suites_V2.0.0/GD32F30x_Demo_Suites_V2.0.0/GD32F30x_Firmware_Library/GD32F30x_standard_peripheral/Source\gd32f30x_timer.c **** */
 216:C:/Users/49542/Desktop/GD32F30x_Demo_Suites_V2.0.0/GD32F30x_Demo_Suites_V2.0.0/GD32F30x_Firmware_Library/GD32F30x_standard_peripheral/Source\gd32f30x_timer.c **** void timer_auto_reload_shadow_enable(uint32_t timer_periph)
 217:C:/Users/49542/Desktop/GD32F30x_Demo_Suites_V2.0.0/GD32F30x_Demo_Suites_V2.0.0/GD32F30x_Firmware_Library/GD32F30x_standard_peripheral/Source\gd32f30x_timer.c **** {
 478              		.loc 1 217 0
 479              		.cfi_startproc
 480              		@ args = 0, pretend = 0, frame = 0
 481              		@ frame_needed = 0, uses_anonymous_args = 0
 482              		@ link register save eliminated.
 483              	.LVL60:
 218:C:/Users/49542/Desktop/GD32F30x_Demo_Suites_V2.0.0/GD32F30x_Demo_Suites_V2.0.0/GD32F30x_Firmware_Library/GD32F30x_standard_peripheral/Source\gd32f30x_timer.c ****     TIMER_CTL0(timer_periph) |= (uint32_t)TIMER_CTL0_ARSE;
 484              		.loc 1 218 0
 485 0000 0368     		ldr	r3, [r0]
 486 0002 43F08003 		orr	r3, r3, #128
 487 0006 0360     		str	r3, [r0]
 219:C:/Users/49542/Desktop/GD32F30x_Demo_Suites_V2.0.0/GD32F30x_Demo_Suites_V2.0.0/GD32F30x_Firmware_Library/GD32F30x_standard_peripheral/Source\gd32f30x_timer.c **** }
 488              		.loc 1 219 0
 489 0008 7047     		bx	lr
 490              		.cfi_endproc
 491              	.LFE121:
 493              		.section	.text.timer_auto_reload_shadow_disable,"ax",%progbits
 494              		.align	1
ARM GAS  C:\Users\49542\AppData\Local\Temp\ccEBNRSE.s 			page 14


 495              		.global	timer_auto_reload_shadow_disable
 496              		.syntax unified
 497              		.thumb
 498              		.thumb_func
 499              		.fpu fpv4-sp-d16
 501              	timer_auto_reload_shadow_disable:
 502              	.LFB122:
 220:C:/Users/49542/Desktop/GD32F30x_Demo_Suites_V2.0.0/GD32F30x_Demo_Suites_V2.0.0/GD32F30x_Firmware_Library/GD32F30x_standard_peripheral/Source\gd32f30x_timer.c **** 
 221:C:/Users/49542/Desktop/GD32F30x_Demo_Suites_V2.0.0/GD32F30x_Demo_Suites_V2.0.0/GD32F30x_Firmware_Library/GD32F30x_standard_peripheral/Source\gd32f30x_timer.c **** /*!
 222:C:/Users/49542/Desktop/GD32F30x_Demo_Suites_V2.0.0/GD32F30x_Demo_Suites_V2.0.0/GD32F30x_Firmware_Library/GD32F30x_standard_peripheral/Source\gd32f30x_timer.c ****     \brief      disable the auto reload shadow function
 223:C:/Users/49542/Desktop/GD32F30x_Demo_Suites_V2.0.0/GD32F30x_Demo_Suites_V2.0.0/GD32F30x_Firmware_Library/GD32F30x_standard_peripheral/Source\gd32f30x_timer.c ****     \param[in]  timer_periph: TIMERx(x=0..13)
 224:C:/Users/49542/Desktop/GD32F30x_Demo_Suites_V2.0.0/GD32F30x_Demo_Suites_V2.0.0/GD32F30x_Firmware_Library/GD32F30x_standard_peripheral/Source\gd32f30x_timer.c ****     \param[out] none
 225:C:/Users/49542/Desktop/GD32F30x_Demo_Suites_V2.0.0/GD32F30x_Demo_Suites_V2.0.0/GD32F30x_Firmware_Library/GD32F30x_standard_peripheral/Source\gd32f30x_timer.c ****     \retval     none
 226:C:/Users/49542/Desktop/GD32F30x_Demo_Suites_V2.0.0/GD32F30x_Demo_Suites_V2.0.0/GD32F30x_Firmware_Library/GD32F30x_standard_peripheral/Source\gd32f30x_timer.c **** */
 227:C:/Users/49542/Desktop/GD32F30x_Demo_Suites_V2.0.0/GD32F30x_Demo_Suites_V2.0.0/GD32F30x_Firmware_Library/GD32F30x_standard_peripheral/Source\gd32f30x_timer.c **** void timer_auto_reload_shadow_disable(uint32_t timer_periph)
 228:C:/Users/49542/Desktop/GD32F30x_Demo_Suites_V2.0.0/GD32F30x_Demo_Suites_V2.0.0/GD32F30x_Firmware_Library/GD32F30x_standard_peripheral/Source\gd32f30x_timer.c **** {
 503              		.loc 1 228 0
 504              		.cfi_startproc
 505              		@ args = 0, pretend = 0, frame = 0
 506              		@ frame_needed = 0, uses_anonymous_args = 0
 507              		@ link register save eliminated.
 508              	.LVL61:
 229:C:/Users/49542/Desktop/GD32F30x_Demo_Suites_V2.0.0/GD32F30x_Demo_Suites_V2.0.0/GD32F30x_Firmware_Library/GD32F30x_standard_peripheral/Source\gd32f30x_timer.c ****     TIMER_CTL0(timer_periph) &= ~(uint32_t)TIMER_CTL0_ARSE;
 509              		.loc 1 229 0
 510 0000 0368     		ldr	r3, [r0]
 511 0002 23F08003 		bic	r3, r3, #128
 512 0006 0360     		str	r3, [r0]
 230:C:/Users/49542/Desktop/GD32F30x_Demo_Suites_V2.0.0/GD32F30x_Demo_Suites_V2.0.0/GD32F30x_Firmware_Library/GD32F30x_standard_peripheral/Source\gd32f30x_timer.c **** }
 513              		.loc 1 230 0
 514 0008 7047     		bx	lr
 515              		.cfi_endproc
 516              	.LFE122:
 518              		.section	.text.timer_update_event_enable,"ax",%progbits
 519              		.align	1
 520              		.global	timer_update_event_enable
 521              		.syntax unified
 522              		.thumb
 523              		.thumb_func
 524              		.fpu fpv4-sp-d16
 526              	timer_update_event_enable:
 527              	.LFB123:
 231:C:/Users/49542/Desktop/GD32F30x_Demo_Suites_V2.0.0/GD32F30x_Demo_Suites_V2.0.0/GD32F30x_Firmware_Library/GD32F30x_standard_peripheral/Source\gd32f30x_timer.c **** 
 232:C:/Users/49542/Desktop/GD32F30x_Demo_Suites_V2.0.0/GD32F30x_Demo_Suites_V2.0.0/GD32F30x_Firmware_Library/GD32F30x_standard_peripheral/Source\gd32f30x_timer.c **** /*!
 233:C:/Users/49542/Desktop/GD32F30x_Demo_Suites_V2.0.0/GD32F30x_Demo_Suites_V2.0.0/GD32F30x_Firmware_Library/GD32F30x_standard_peripheral/Source\gd32f30x_timer.c ****     \brief      enable the update event
 234:C:/Users/49542/Desktop/GD32F30x_Demo_Suites_V2.0.0/GD32F30x_Demo_Suites_V2.0.0/GD32F30x_Firmware_Library/GD32F30x_standard_peripheral/Source\gd32f30x_timer.c ****     \param[in]  timer_periph: TIMERx(x=0..13)
 235:C:/Users/49542/Desktop/GD32F30x_Demo_Suites_V2.0.0/GD32F30x_Demo_Suites_V2.0.0/GD32F30x_Firmware_Library/GD32F30x_standard_peripheral/Source\gd32f30x_timer.c ****     \param[out] none
 236:C:/Users/49542/Desktop/GD32F30x_Demo_Suites_V2.0.0/GD32F30x_Demo_Suites_V2.0.0/GD32F30x_Firmware_Library/GD32F30x_standard_peripheral/Source\gd32f30x_timer.c ****     \retval     none
 237:C:/Users/49542/Desktop/GD32F30x_Demo_Suites_V2.0.0/GD32F30x_Demo_Suites_V2.0.0/GD32F30x_Firmware_Library/GD32F30x_standard_peripheral/Source\gd32f30x_timer.c **** */
 238:C:/Users/49542/Desktop/GD32F30x_Demo_Suites_V2.0.0/GD32F30x_Demo_Suites_V2.0.0/GD32F30x_Firmware_Library/GD32F30x_standard_peripheral/Source\gd32f30x_timer.c **** void timer_update_event_enable(uint32_t timer_periph)
 239:C:/Users/49542/Desktop/GD32F30x_Demo_Suites_V2.0.0/GD32F30x_Demo_Suites_V2.0.0/GD32F30x_Firmware_Library/GD32F30x_standard_peripheral/Source\gd32f30x_timer.c **** {
 528              		.loc 1 239 0
 529              		.cfi_startproc
 530              		@ args = 0, pretend = 0, frame = 0
 531              		@ frame_needed = 0, uses_anonymous_args = 0
 532              		@ link register save eliminated.
 533              	.LVL62:
 240:C:/Users/49542/Desktop/GD32F30x_Demo_Suites_V2.0.0/GD32F30x_Demo_Suites_V2.0.0/GD32F30x_Firmware_Library/GD32F30x_standard_peripheral/Source\gd32f30x_timer.c ****     TIMER_CTL0(timer_periph) &= ~(uint32_t)TIMER_CTL0_UPDIS;
ARM GAS  C:\Users\49542\AppData\Local\Temp\ccEBNRSE.s 			page 15


 534              		.loc 1 240 0
 535 0000 0368     		ldr	r3, [r0]
 536 0002 23F00203 		bic	r3, r3, #2
 537 0006 0360     		str	r3, [r0]
 241:C:/Users/49542/Desktop/GD32F30x_Demo_Suites_V2.0.0/GD32F30x_Demo_Suites_V2.0.0/GD32F30x_Firmware_Library/GD32F30x_standard_peripheral/Source\gd32f30x_timer.c **** }
 538              		.loc 1 241 0
 539 0008 7047     		bx	lr
 540              		.cfi_endproc
 541              	.LFE123:
 543              		.section	.text.timer_update_event_disable,"ax",%progbits
 544              		.align	1
 545              		.global	timer_update_event_disable
 546              		.syntax unified
 547              		.thumb
 548              		.thumb_func
 549              		.fpu fpv4-sp-d16
 551              	timer_update_event_disable:
 552              	.LFB124:
 242:C:/Users/49542/Desktop/GD32F30x_Demo_Suites_V2.0.0/GD32F30x_Demo_Suites_V2.0.0/GD32F30x_Firmware_Library/GD32F30x_standard_peripheral/Source\gd32f30x_timer.c **** 
 243:C:/Users/49542/Desktop/GD32F30x_Demo_Suites_V2.0.0/GD32F30x_Demo_Suites_V2.0.0/GD32F30x_Firmware_Library/GD32F30x_standard_peripheral/Source\gd32f30x_timer.c **** /*!
 244:C:/Users/49542/Desktop/GD32F30x_Demo_Suites_V2.0.0/GD32F30x_Demo_Suites_V2.0.0/GD32F30x_Firmware_Library/GD32F30x_standard_peripheral/Source\gd32f30x_timer.c ****     \brief      disable the update event
 245:C:/Users/49542/Desktop/GD32F30x_Demo_Suites_V2.0.0/GD32F30x_Demo_Suites_V2.0.0/GD32F30x_Firmware_Library/GD32F30x_standard_peripheral/Source\gd32f30x_timer.c ****     \param[in]  timer_periph: TIMERx(x=0..13)
 246:C:/Users/49542/Desktop/GD32F30x_Demo_Suites_V2.0.0/GD32F30x_Demo_Suites_V2.0.0/GD32F30x_Firmware_Library/GD32F30x_standard_peripheral/Source\gd32f30x_timer.c ****     \param[out] none
 247:C:/Users/49542/Desktop/GD32F30x_Demo_Suites_V2.0.0/GD32F30x_Demo_Suites_V2.0.0/GD32F30x_Firmware_Library/GD32F30x_standard_peripheral/Source\gd32f30x_timer.c ****     \retval     none
 248:C:/Users/49542/Desktop/GD32F30x_Demo_Suites_V2.0.0/GD32F30x_Demo_Suites_V2.0.0/GD32F30x_Firmware_Library/GD32F30x_standard_peripheral/Source\gd32f30x_timer.c **** */
 249:C:/Users/49542/Desktop/GD32F30x_Demo_Suites_V2.0.0/GD32F30x_Demo_Suites_V2.0.0/GD32F30x_Firmware_Library/GD32F30x_standard_peripheral/Source\gd32f30x_timer.c **** void timer_update_event_disable(uint32_t timer_periph)
 250:C:/Users/49542/Desktop/GD32F30x_Demo_Suites_V2.0.0/GD32F30x_Demo_Suites_V2.0.0/GD32F30x_Firmware_Library/GD32F30x_standard_peripheral/Source\gd32f30x_timer.c **** {
 553              		.loc 1 250 0
 554              		.cfi_startproc
 555              		@ args = 0, pretend = 0, frame = 0
 556              		@ frame_needed = 0, uses_anonymous_args = 0
 557              		@ link register save eliminated.
 558              	.LVL63:
 251:C:/Users/49542/Desktop/GD32F30x_Demo_Suites_V2.0.0/GD32F30x_Demo_Suites_V2.0.0/GD32F30x_Firmware_Library/GD32F30x_standard_peripheral/Source\gd32f30x_timer.c ****     TIMER_CTL0(timer_periph) |= (uint32_t) TIMER_CTL0_UPDIS;
 559              		.loc 1 251 0
 560 0000 0368     		ldr	r3, [r0]
 561 0002 43F00203 		orr	r3, r3, #2
 562 0006 0360     		str	r3, [r0]
 252:C:/Users/49542/Desktop/GD32F30x_Demo_Suites_V2.0.0/GD32F30x_Demo_Suites_V2.0.0/GD32F30x_Firmware_Library/GD32F30x_standard_peripheral/Source\gd32f30x_timer.c **** }
 563              		.loc 1 252 0
 564 0008 7047     		bx	lr
 565              		.cfi_endproc
 566              	.LFE124:
 568              		.section	.text.timer_counter_alignment,"ax",%progbits
 569              		.align	1
 570              		.global	timer_counter_alignment
 571              		.syntax unified
 572              		.thumb
 573              		.thumb_func
 574              		.fpu fpv4-sp-d16
 576              	timer_counter_alignment:
 577              	.LFB125:
 253:C:/Users/49542/Desktop/GD32F30x_Demo_Suites_V2.0.0/GD32F30x_Demo_Suites_V2.0.0/GD32F30x_Firmware_Library/GD32F30x_standard_peripheral/Source\gd32f30x_timer.c **** 
 254:C:/Users/49542/Desktop/GD32F30x_Demo_Suites_V2.0.0/GD32F30x_Demo_Suites_V2.0.0/GD32F30x_Firmware_Library/GD32F30x_standard_peripheral/Source\gd32f30x_timer.c **** /*!
 255:C:/Users/49542/Desktop/GD32F30x_Demo_Suites_V2.0.0/GD32F30x_Demo_Suites_V2.0.0/GD32F30x_Firmware_Library/GD32F30x_standard_peripheral/Source\gd32f30x_timer.c ****     \brief      set TIMER counter alignment mode
 256:C:/Users/49542/Desktop/GD32F30x_Demo_Suites_V2.0.0/GD32F30x_Demo_Suites_V2.0.0/GD32F30x_Firmware_Library/GD32F30x_standard_peripheral/Source\gd32f30x_timer.c ****     \param[in]  timer_periph: TIMERx(x=0..4,7)
 257:C:/Users/49542/Desktop/GD32F30x_Demo_Suites_V2.0.0/GD32F30x_Demo_Suites_V2.0.0/GD32F30x_Firmware_Library/GD32F30x_standard_peripheral/Source\gd32f30x_timer.c ****     \param[in]  aligned:
ARM GAS  C:\Users\49542\AppData\Local\Temp\ccEBNRSE.s 			page 16


 258:C:/Users/49542/Desktop/GD32F30x_Demo_Suites_V2.0.0/GD32F30x_Demo_Suites_V2.0.0/GD32F30x_Firmware_Library/GD32F30x_standard_peripheral/Source\gd32f30x_timer.c ****                 only one parameter can be selected which is shown as below:
 259:C:/Users/49542/Desktop/GD32F30x_Demo_Suites_V2.0.0/GD32F30x_Demo_Suites_V2.0.0/GD32F30x_Firmware_Library/GD32F30x_standard_peripheral/Source\gd32f30x_timer.c ****       \arg        TIMER_COUNTER_EDGE: edge-aligned mode
 260:C:/Users/49542/Desktop/GD32F30x_Demo_Suites_V2.0.0/GD32F30x_Demo_Suites_V2.0.0/GD32F30x_Firmware_Library/GD32F30x_standard_peripheral/Source\gd32f30x_timer.c ****       \arg        TIMER_COUNTER_CENTER_DOWN: center-aligned and counting down assert mode
 261:C:/Users/49542/Desktop/GD32F30x_Demo_Suites_V2.0.0/GD32F30x_Demo_Suites_V2.0.0/GD32F30x_Firmware_Library/GD32F30x_standard_peripheral/Source\gd32f30x_timer.c ****       \arg        TIMER_COUNTER_CENTER_UP: center-aligned and counting up assert mode
 262:C:/Users/49542/Desktop/GD32F30x_Demo_Suites_V2.0.0/GD32F30x_Demo_Suites_V2.0.0/GD32F30x_Firmware_Library/GD32F30x_standard_peripheral/Source\gd32f30x_timer.c ****       \arg        TIMER_COUNTER_CENTER_BOTH: center-aligned and counting up/down assert mode
 263:C:/Users/49542/Desktop/GD32F30x_Demo_Suites_V2.0.0/GD32F30x_Demo_Suites_V2.0.0/GD32F30x_Firmware_Library/GD32F30x_standard_peripheral/Source\gd32f30x_timer.c ****     \param[out] none
 264:C:/Users/49542/Desktop/GD32F30x_Demo_Suites_V2.0.0/GD32F30x_Demo_Suites_V2.0.0/GD32F30x_Firmware_Library/GD32F30x_standard_peripheral/Source\gd32f30x_timer.c ****     \retval     none
 265:C:/Users/49542/Desktop/GD32F30x_Demo_Suites_V2.0.0/GD32F30x_Demo_Suites_V2.0.0/GD32F30x_Firmware_Library/GD32F30x_standard_peripheral/Source\gd32f30x_timer.c **** */
 266:C:/Users/49542/Desktop/GD32F30x_Demo_Suites_V2.0.0/GD32F30x_Demo_Suites_V2.0.0/GD32F30x_Firmware_Library/GD32F30x_standard_peripheral/Source\gd32f30x_timer.c **** void timer_counter_alignment(uint32_t timer_periph, uint16_t aligned)
 267:C:/Users/49542/Desktop/GD32F30x_Demo_Suites_V2.0.0/GD32F30x_Demo_Suites_V2.0.0/GD32F30x_Firmware_Library/GD32F30x_standard_peripheral/Source\gd32f30x_timer.c **** {
 578              		.loc 1 267 0
 579              		.cfi_startproc
 580              		@ args = 0, pretend = 0, frame = 0
 581              		@ frame_needed = 0, uses_anonymous_args = 0
 582              		@ link register save eliminated.
 583              	.LVL64:
 268:C:/Users/49542/Desktop/GD32F30x_Demo_Suites_V2.0.0/GD32F30x_Demo_Suites_V2.0.0/GD32F30x_Firmware_Library/GD32F30x_standard_peripheral/Source\gd32f30x_timer.c ****     TIMER_CTL0(timer_periph) &= ~(uint32_t)TIMER_CTL0_CAM;
 584              		.loc 1 268 0
 585 0000 0368     		ldr	r3, [r0]
 586 0002 23F06003 		bic	r3, r3, #96
 587 0006 0360     		str	r3, [r0]
 269:C:/Users/49542/Desktop/GD32F30x_Demo_Suites_V2.0.0/GD32F30x_Demo_Suites_V2.0.0/GD32F30x_Firmware_Library/GD32F30x_standard_peripheral/Source\gd32f30x_timer.c ****     TIMER_CTL0(timer_periph) |= (uint32_t)aligned;
 588              		.loc 1 269 0
 589 0008 0368     		ldr	r3, [r0]
 590 000a 1943     		orrs	r1, r1, r3
 591              	.LVL65:
 592 000c 0160     		str	r1, [r0]
 270:C:/Users/49542/Desktop/GD32F30x_Demo_Suites_V2.0.0/GD32F30x_Demo_Suites_V2.0.0/GD32F30x_Firmware_Library/GD32F30x_standard_peripheral/Source\gd32f30x_timer.c **** }
 593              		.loc 1 270 0
 594 000e 7047     		bx	lr
 595              		.cfi_endproc
 596              	.LFE125:
 598              		.section	.text.timer_counter_up_direction,"ax",%progbits
 599              		.align	1
 600              		.global	timer_counter_up_direction
 601              		.syntax unified
 602              		.thumb
 603              		.thumb_func
 604              		.fpu fpv4-sp-d16
 606              	timer_counter_up_direction:
 607              	.LFB126:
 271:C:/Users/49542/Desktop/GD32F30x_Demo_Suites_V2.0.0/GD32F30x_Demo_Suites_V2.0.0/GD32F30x_Firmware_Library/GD32F30x_standard_peripheral/Source\gd32f30x_timer.c **** 
 272:C:/Users/49542/Desktop/GD32F30x_Demo_Suites_V2.0.0/GD32F30x_Demo_Suites_V2.0.0/GD32F30x_Firmware_Library/GD32F30x_standard_peripheral/Source\gd32f30x_timer.c **** /*!
 273:C:/Users/49542/Desktop/GD32F30x_Demo_Suites_V2.0.0/GD32F30x_Demo_Suites_V2.0.0/GD32F30x_Firmware_Library/GD32F30x_standard_peripheral/Source\gd32f30x_timer.c ****     \brief      set TIMER counter up direction
 274:C:/Users/49542/Desktop/GD32F30x_Demo_Suites_V2.0.0/GD32F30x_Demo_Suites_V2.0.0/GD32F30x_Firmware_Library/GD32F30x_standard_peripheral/Source\gd32f30x_timer.c ****     \param[in]  timer_periph: TIMERx(x=0..4,7)
 275:C:/Users/49542/Desktop/GD32F30x_Demo_Suites_V2.0.0/GD32F30x_Demo_Suites_V2.0.0/GD32F30x_Firmware_Library/GD32F30x_standard_peripheral/Source\gd32f30x_timer.c ****     \param[out] none
 276:C:/Users/49542/Desktop/GD32F30x_Demo_Suites_V2.0.0/GD32F30x_Demo_Suites_V2.0.0/GD32F30x_Firmware_Library/GD32F30x_standard_peripheral/Source\gd32f30x_timer.c ****     \retval     none
 277:C:/Users/49542/Desktop/GD32F30x_Demo_Suites_V2.0.0/GD32F30x_Demo_Suites_V2.0.0/GD32F30x_Firmware_Library/GD32F30x_standard_peripheral/Source\gd32f30x_timer.c **** */
 278:C:/Users/49542/Desktop/GD32F30x_Demo_Suites_V2.0.0/GD32F30x_Demo_Suites_V2.0.0/GD32F30x_Firmware_Library/GD32F30x_standard_peripheral/Source\gd32f30x_timer.c **** void timer_counter_up_direction(uint32_t timer_periph)
 279:C:/Users/49542/Desktop/GD32F30x_Demo_Suites_V2.0.0/GD32F30x_Demo_Suites_V2.0.0/GD32F30x_Firmware_Library/GD32F30x_standard_peripheral/Source\gd32f30x_timer.c **** {
 608              		.loc 1 279 0
 609              		.cfi_startproc
 610              		@ args = 0, pretend = 0, frame = 0
 611              		@ frame_needed = 0, uses_anonymous_args = 0
 612              		@ link register save eliminated.
 613              	.LVL66:
 280:C:/Users/49542/Desktop/GD32F30x_Demo_Suites_V2.0.0/GD32F30x_Demo_Suites_V2.0.0/GD32F30x_Firmware_Library/GD32F30x_standard_peripheral/Source\gd32f30x_timer.c ****     TIMER_CTL0(timer_periph) &= ~(uint32_t)TIMER_CTL0_DIR;
ARM GAS  C:\Users\49542\AppData\Local\Temp\ccEBNRSE.s 			page 17


 614              		.loc 1 280 0
 615 0000 0368     		ldr	r3, [r0]
 616 0002 23F01003 		bic	r3, r3, #16
 617 0006 0360     		str	r3, [r0]
 281:C:/Users/49542/Desktop/GD32F30x_Demo_Suites_V2.0.0/GD32F30x_Demo_Suites_V2.0.0/GD32F30x_Firmware_Library/GD32F30x_standard_peripheral/Source\gd32f30x_timer.c **** }
 618              		.loc 1 281 0
 619 0008 7047     		bx	lr
 620              		.cfi_endproc
 621              	.LFE126:
 623              		.section	.text.timer_counter_down_direction,"ax",%progbits
 624              		.align	1
 625              		.global	timer_counter_down_direction
 626              		.syntax unified
 627              		.thumb
 628              		.thumb_func
 629              		.fpu fpv4-sp-d16
 631              	timer_counter_down_direction:
 632              	.LFB127:
 282:C:/Users/49542/Desktop/GD32F30x_Demo_Suites_V2.0.0/GD32F30x_Demo_Suites_V2.0.0/GD32F30x_Firmware_Library/GD32F30x_standard_peripheral/Source\gd32f30x_timer.c **** 
 283:C:/Users/49542/Desktop/GD32F30x_Demo_Suites_V2.0.0/GD32F30x_Demo_Suites_V2.0.0/GD32F30x_Firmware_Library/GD32F30x_standard_peripheral/Source\gd32f30x_timer.c **** /*!
 284:C:/Users/49542/Desktop/GD32F30x_Demo_Suites_V2.0.0/GD32F30x_Demo_Suites_V2.0.0/GD32F30x_Firmware_Library/GD32F30x_standard_peripheral/Source\gd32f30x_timer.c ****     \brief      set TIMER counter down direction
 285:C:/Users/49542/Desktop/GD32F30x_Demo_Suites_V2.0.0/GD32F30x_Demo_Suites_V2.0.0/GD32F30x_Firmware_Library/GD32F30x_standard_peripheral/Source\gd32f30x_timer.c ****     \param[in]  timer_periph: TIMERx(x=0..4,7)
 286:C:/Users/49542/Desktop/GD32F30x_Demo_Suites_V2.0.0/GD32F30x_Demo_Suites_V2.0.0/GD32F30x_Firmware_Library/GD32F30x_standard_peripheral/Source\gd32f30x_timer.c ****     \param[out] none
 287:C:/Users/49542/Desktop/GD32F30x_Demo_Suites_V2.0.0/GD32F30x_Demo_Suites_V2.0.0/GD32F30x_Firmware_Library/GD32F30x_standard_peripheral/Source\gd32f30x_timer.c ****     \retval     none
 288:C:/Users/49542/Desktop/GD32F30x_Demo_Suites_V2.0.0/GD32F30x_Demo_Suites_V2.0.0/GD32F30x_Firmware_Library/GD32F30x_standard_peripheral/Source\gd32f30x_timer.c **** */
 289:C:/Users/49542/Desktop/GD32F30x_Demo_Suites_V2.0.0/GD32F30x_Demo_Suites_V2.0.0/GD32F30x_Firmware_Library/GD32F30x_standard_peripheral/Source\gd32f30x_timer.c **** void timer_counter_down_direction(uint32_t timer_periph)
 290:C:/Users/49542/Desktop/GD32F30x_Demo_Suites_V2.0.0/GD32F30x_Demo_Suites_V2.0.0/GD32F30x_Firmware_Library/GD32F30x_standard_peripheral/Source\gd32f30x_timer.c **** {
 633              		.loc 1 290 0
 634              		.cfi_startproc
 635              		@ args = 0, pretend = 0, frame = 0
 636              		@ frame_needed = 0, uses_anonymous_args = 0
 637              		@ link register save eliminated.
 638              	.LVL67:
 291:C:/Users/49542/Desktop/GD32F30x_Demo_Suites_V2.0.0/GD32F30x_Demo_Suites_V2.0.0/GD32F30x_Firmware_Library/GD32F30x_standard_peripheral/Source\gd32f30x_timer.c ****     TIMER_CTL0(timer_periph) |= (uint32_t)TIMER_CTL0_DIR;
 639              		.loc 1 291 0
 640 0000 0368     		ldr	r3, [r0]
 641 0002 43F01003 		orr	r3, r3, #16
 642 0006 0360     		str	r3, [r0]
 292:C:/Users/49542/Desktop/GD32F30x_Demo_Suites_V2.0.0/GD32F30x_Demo_Suites_V2.0.0/GD32F30x_Firmware_Library/GD32F30x_standard_peripheral/Source\gd32f30x_timer.c **** }
 643              		.loc 1 292 0
 644 0008 7047     		bx	lr
 645              		.cfi_endproc
 646              	.LFE127:
 648              		.section	.text.timer_prescaler_config,"ax",%progbits
 649              		.align	1
 650              		.global	timer_prescaler_config
 651              		.syntax unified
 652              		.thumb
 653              		.thumb_func
 654              		.fpu fpv4-sp-d16
 656              	timer_prescaler_config:
 657              	.LFB128:
 293:C:/Users/49542/Desktop/GD32F30x_Demo_Suites_V2.0.0/GD32F30x_Demo_Suites_V2.0.0/GD32F30x_Firmware_Library/GD32F30x_standard_peripheral/Source\gd32f30x_timer.c **** 
 294:C:/Users/49542/Desktop/GD32F30x_Demo_Suites_V2.0.0/GD32F30x_Demo_Suites_V2.0.0/GD32F30x_Firmware_Library/GD32F30x_standard_peripheral/Source\gd32f30x_timer.c **** /*!
 295:C:/Users/49542/Desktop/GD32F30x_Demo_Suites_V2.0.0/GD32F30x_Demo_Suites_V2.0.0/GD32F30x_Firmware_Library/GD32F30x_standard_peripheral/Source\gd32f30x_timer.c ****     \brief      configure TIMER prescaler
 296:C:/Users/49542/Desktop/GD32F30x_Demo_Suites_V2.0.0/GD32F30x_Demo_Suites_V2.0.0/GD32F30x_Firmware_Library/GD32F30x_standard_peripheral/Source\gd32f30x_timer.c ****     \param[in]  timer_periph: TIMERx(x=0..13)
 297:C:/Users/49542/Desktop/GD32F30x_Demo_Suites_V2.0.0/GD32F30x_Demo_Suites_V2.0.0/GD32F30x_Firmware_Library/GD32F30x_standard_peripheral/Source\gd32f30x_timer.c ****     \param[in]  prescaler: prescaler value,0~65535
ARM GAS  C:\Users\49542\AppData\Local\Temp\ccEBNRSE.s 			page 18


 298:C:/Users/49542/Desktop/GD32F30x_Demo_Suites_V2.0.0/GD32F30x_Demo_Suites_V2.0.0/GD32F30x_Firmware_Library/GD32F30x_standard_peripheral/Source\gd32f30x_timer.c ****     \param[in]  pscreload: prescaler reload mode
 299:C:/Users/49542/Desktop/GD32F30x_Demo_Suites_V2.0.0/GD32F30x_Demo_Suites_V2.0.0/GD32F30x_Firmware_Library/GD32F30x_standard_peripheral/Source\gd32f30x_timer.c ****                 only one parameter can be selected which is shown as below:
 300:C:/Users/49542/Desktop/GD32F30x_Demo_Suites_V2.0.0/GD32F30x_Demo_Suites_V2.0.0/GD32F30x_Firmware_Library/GD32F30x_standard_peripheral/Source\gd32f30x_timer.c ****       \arg        TIMER_PSC_RELOAD_NOW: the prescaler is loaded right now
 301:C:/Users/49542/Desktop/GD32F30x_Demo_Suites_V2.0.0/GD32F30x_Demo_Suites_V2.0.0/GD32F30x_Firmware_Library/GD32F30x_standard_peripheral/Source\gd32f30x_timer.c ****       \arg        TIMER_PSC_RELOAD_UPDATE: the prescaler is loaded at the next update event
 302:C:/Users/49542/Desktop/GD32F30x_Demo_Suites_V2.0.0/GD32F30x_Demo_Suites_V2.0.0/GD32F30x_Firmware_Library/GD32F30x_standard_peripheral/Source\gd32f30x_timer.c ****     \param[out] none
 303:C:/Users/49542/Desktop/GD32F30x_Demo_Suites_V2.0.0/GD32F30x_Demo_Suites_V2.0.0/GD32F30x_Firmware_Library/GD32F30x_standard_peripheral/Source\gd32f30x_timer.c ****     \retval     none
 304:C:/Users/49542/Desktop/GD32F30x_Demo_Suites_V2.0.0/GD32F30x_Demo_Suites_V2.0.0/GD32F30x_Firmware_Library/GD32F30x_standard_peripheral/Source\gd32f30x_timer.c **** */
 305:C:/Users/49542/Desktop/GD32F30x_Demo_Suites_V2.0.0/GD32F30x_Demo_Suites_V2.0.0/GD32F30x_Firmware_Library/GD32F30x_standard_peripheral/Source\gd32f30x_timer.c **** void timer_prescaler_config(uint32_t timer_periph, uint16_t prescaler, uint8_t pscreload)
 306:C:/Users/49542/Desktop/GD32F30x_Demo_Suites_V2.0.0/GD32F30x_Demo_Suites_V2.0.0/GD32F30x_Firmware_Library/GD32F30x_standard_peripheral/Source\gd32f30x_timer.c **** {
 658              		.loc 1 306 0
 659              		.cfi_startproc
 660              		@ args = 0, pretend = 0, frame = 0
 661              		@ frame_needed = 0, uses_anonymous_args = 0
 662              		@ link register save eliminated.
 663              	.LVL68:
 307:C:/Users/49542/Desktop/GD32F30x_Demo_Suites_V2.0.0/GD32F30x_Demo_Suites_V2.0.0/GD32F30x_Firmware_Library/GD32F30x_standard_peripheral/Source\gd32f30x_timer.c ****     TIMER_PSC(timer_periph) = (uint32_t)prescaler;
 664              		.loc 1 307 0
 665 0000 8162     		str	r1, [r0, #40]
 308:C:/Users/49542/Desktop/GD32F30x_Demo_Suites_V2.0.0/GD32F30x_Demo_Suites_V2.0.0/GD32F30x_Firmware_Library/GD32F30x_standard_peripheral/Source\gd32f30x_timer.c ****     
 309:C:/Users/49542/Desktop/GD32F30x_Demo_Suites_V2.0.0/GD32F30x_Demo_Suites_V2.0.0/GD32F30x_Firmware_Library/GD32F30x_standard_peripheral/Source\gd32f30x_timer.c ****     if(TIMER_PSC_RELOAD_NOW == pscreload){
 666              		.loc 1 309 0
 667 0002 1AB9     		cbnz	r2, .L43
 310:C:/Users/49542/Desktop/GD32F30x_Demo_Suites_V2.0.0/GD32F30x_Demo_Suites_V2.0.0/GD32F30x_Firmware_Library/GD32F30x_standard_peripheral/Source\gd32f30x_timer.c ****         TIMER_SWEVG(timer_periph) |= (uint32_t)TIMER_SWEVG_UPG;
 668              		.loc 1 310 0
 669 0004 4369     		ldr	r3, [r0, #20]
 670 0006 43F00103 		orr	r3, r3, #1
 671 000a 4361     		str	r3, [r0, #20]
 672              	.L43:
 311:C:/Users/49542/Desktop/GD32F30x_Demo_Suites_V2.0.0/GD32F30x_Demo_Suites_V2.0.0/GD32F30x_Firmware_Library/GD32F30x_standard_peripheral/Source\gd32f30x_timer.c ****     }
 312:C:/Users/49542/Desktop/GD32F30x_Demo_Suites_V2.0.0/GD32F30x_Demo_Suites_V2.0.0/GD32F30x_Firmware_Library/GD32F30x_standard_peripheral/Source\gd32f30x_timer.c **** }
 673              		.loc 1 312 0
 674 000c 7047     		bx	lr
 675              		.cfi_endproc
 676              	.LFE128:
 678              		.section	.text.timer_repetition_value_config,"ax",%progbits
 679              		.align	1
 680              		.global	timer_repetition_value_config
 681              		.syntax unified
 682              		.thumb
 683              		.thumb_func
 684              		.fpu fpv4-sp-d16
 686              	timer_repetition_value_config:
 687              	.LFB129:
 313:C:/Users/49542/Desktop/GD32F30x_Demo_Suites_V2.0.0/GD32F30x_Demo_Suites_V2.0.0/GD32F30x_Firmware_Library/GD32F30x_standard_peripheral/Source\gd32f30x_timer.c **** 
 314:C:/Users/49542/Desktop/GD32F30x_Demo_Suites_V2.0.0/GD32F30x_Demo_Suites_V2.0.0/GD32F30x_Firmware_Library/GD32F30x_standard_peripheral/Source\gd32f30x_timer.c **** /*!
 315:C:/Users/49542/Desktop/GD32F30x_Demo_Suites_V2.0.0/GD32F30x_Demo_Suites_V2.0.0/GD32F30x_Firmware_Library/GD32F30x_standard_peripheral/Source\gd32f30x_timer.c ****     \brief      configure TIMER repetition register value
 316:C:/Users/49542/Desktop/GD32F30x_Demo_Suites_V2.0.0/GD32F30x_Demo_Suites_V2.0.0/GD32F30x_Firmware_Library/GD32F30x_standard_peripheral/Source\gd32f30x_timer.c ****     \param[in]  timer_periph: TIMERx(x=0,7)
 317:C:/Users/49542/Desktop/GD32F30x_Demo_Suites_V2.0.0/GD32F30x_Demo_Suites_V2.0.0/GD32F30x_Firmware_Library/GD32F30x_standard_peripheral/Source\gd32f30x_timer.c ****     \param[in]  repetition: the counter repetition value,0~255
 318:C:/Users/49542/Desktop/GD32F30x_Demo_Suites_V2.0.0/GD32F30x_Demo_Suites_V2.0.0/GD32F30x_Firmware_Library/GD32F30x_standard_peripheral/Source\gd32f30x_timer.c ****     \param[out] none
 319:C:/Users/49542/Desktop/GD32F30x_Demo_Suites_V2.0.0/GD32F30x_Demo_Suites_V2.0.0/GD32F30x_Firmware_Library/GD32F30x_standard_peripheral/Source\gd32f30x_timer.c ****     \retval     none
 320:C:/Users/49542/Desktop/GD32F30x_Demo_Suites_V2.0.0/GD32F30x_Demo_Suites_V2.0.0/GD32F30x_Firmware_Library/GD32F30x_standard_peripheral/Source\gd32f30x_timer.c **** */
 321:C:/Users/49542/Desktop/GD32F30x_Demo_Suites_V2.0.0/GD32F30x_Demo_Suites_V2.0.0/GD32F30x_Firmware_Library/GD32F30x_standard_peripheral/Source\gd32f30x_timer.c **** void timer_repetition_value_config(uint32_t timer_periph, uint16_t repetition)
 322:C:/Users/49542/Desktop/GD32F30x_Demo_Suites_V2.0.0/GD32F30x_Demo_Suites_V2.0.0/GD32F30x_Firmware_Library/GD32F30x_standard_peripheral/Source\gd32f30x_timer.c **** {
 688              		.loc 1 322 0
 689              		.cfi_startproc
 690              		@ args = 0, pretend = 0, frame = 0
 691              		@ frame_needed = 0, uses_anonymous_args = 0
ARM GAS  C:\Users\49542\AppData\Local\Temp\ccEBNRSE.s 			page 19


 692              		@ link register save eliminated.
 693              	.LVL69:
 323:C:/Users/49542/Desktop/GD32F30x_Demo_Suites_V2.0.0/GD32F30x_Demo_Suites_V2.0.0/GD32F30x_Firmware_Library/GD32F30x_standard_peripheral/Source\gd32f30x_timer.c ****     TIMER_CREP(timer_periph) = (uint32_t)repetition;
 694              		.loc 1 323 0
 695 0000 0163     		str	r1, [r0, #48]
 324:C:/Users/49542/Desktop/GD32F30x_Demo_Suites_V2.0.0/GD32F30x_Demo_Suites_V2.0.0/GD32F30x_Firmware_Library/GD32F30x_standard_peripheral/Source\gd32f30x_timer.c **** } 
 696              		.loc 1 324 0
 697 0002 7047     		bx	lr
 698              		.cfi_endproc
 699              	.LFE129:
 701              		.section	.text.timer_autoreload_value_config,"ax",%progbits
 702              		.align	1
 703              		.global	timer_autoreload_value_config
 704              		.syntax unified
 705              		.thumb
 706              		.thumb_func
 707              		.fpu fpv4-sp-d16
 709              	timer_autoreload_value_config:
 710              	.LFB130:
 325:C:/Users/49542/Desktop/GD32F30x_Demo_Suites_V2.0.0/GD32F30x_Demo_Suites_V2.0.0/GD32F30x_Firmware_Library/GD32F30x_standard_peripheral/Source\gd32f30x_timer.c ****  
 326:C:/Users/49542/Desktop/GD32F30x_Demo_Suites_V2.0.0/GD32F30x_Demo_Suites_V2.0.0/GD32F30x_Firmware_Library/GD32F30x_standard_peripheral/Source\gd32f30x_timer.c **** /*!
 327:C:/Users/49542/Desktop/GD32F30x_Demo_Suites_V2.0.0/GD32F30x_Demo_Suites_V2.0.0/GD32F30x_Firmware_Library/GD32F30x_standard_peripheral/Source\gd32f30x_timer.c ****     \brief      configure TIMER autoreload register value
 328:C:/Users/49542/Desktop/GD32F30x_Demo_Suites_V2.0.0/GD32F30x_Demo_Suites_V2.0.0/GD32F30x_Firmware_Library/GD32F30x_standard_peripheral/Source\gd32f30x_timer.c ****     \param[in]  timer_periph: TIMERx(x=0..13)
 329:C:/Users/49542/Desktop/GD32F30x_Demo_Suites_V2.0.0/GD32F30x_Demo_Suites_V2.0.0/GD32F30x_Firmware_Library/GD32F30x_standard_peripheral/Source\gd32f30x_timer.c ****     \param[in]  autoreload: the counter auto-reload value,0~65535
 330:C:/Users/49542/Desktop/GD32F30x_Demo_Suites_V2.0.0/GD32F30x_Demo_Suites_V2.0.0/GD32F30x_Firmware_Library/GD32F30x_standard_peripheral/Source\gd32f30x_timer.c ****     \param[out] none
 331:C:/Users/49542/Desktop/GD32F30x_Demo_Suites_V2.0.0/GD32F30x_Demo_Suites_V2.0.0/GD32F30x_Firmware_Library/GD32F30x_standard_peripheral/Source\gd32f30x_timer.c ****     \retval     none
 332:C:/Users/49542/Desktop/GD32F30x_Demo_Suites_V2.0.0/GD32F30x_Demo_Suites_V2.0.0/GD32F30x_Firmware_Library/GD32F30x_standard_peripheral/Source\gd32f30x_timer.c **** */         
 333:C:/Users/49542/Desktop/GD32F30x_Demo_Suites_V2.0.0/GD32F30x_Demo_Suites_V2.0.0/GD32F30x_Firmware_Library/GD32F30x_standard_peripheral/Source\gd32f30x_timer.c **** void timer_autoreload_value_config(uint32_t timer_periph, uint16_t autoreload)
 334:C:/Users/49542/Desktop/GD32F30x_Demo_Suites_V2.0.0/GD32F30x_Demo_Suites_V2.0.0/GD32F30x_Firmware_Library/GD32F30x_standard_peripheral/Source\gd32f30x_timer.c **** {
 711              		.loc 1 334 0
 712              		.cfi_startproc
 713              		@ args = 0, pretend = 0, frame = 0
 714              		@ frame_needed = 0, uses_anonymous_args = 0
 715              		@ link register save eliminated.
 716              	.LVL70:
 335:C:/Users/49542/Desktop/GD32F30x_Demo_Suites_V2.0.0/GD32F30x_Demo_Suites_V2.0.0/GD32F30x_Firmware_Library/GD32F30x_standard_peripheral/Source\gd32f30x_timer.c ****     TIMER_CAR(timer_periph) = (uint32_t)autoreload;
 717              		.loc 1 335 0
 718 0000 C162     		str	r1, [r0, #44]
 336:C:/Users/49542/Desktop/GD32F30x_Demo_Suites_V2.0.0/GD32F30x_Demo_Suites_V2.0.0/GD32F30x_Firmware_Library/GD32F30x_standard_peripheral/Source\gd32f30x_timer.c **** }
 719              		.loc 1 336 0
 720 0002 7047     		bx	lr
 721              		.cfi_endproc
 722              	.LFE130:
 724              		.section	.text.timer_counter_value_config,"ax",%progbits
 725              		.align	1
 726              		.global	timer_counter_value_config
 727              		.syntax unified
 728              		.thumb
 729              		.thumb_func
 730              		.fpu fpv4-sp-d16
 732              	timer_counter_value_config:
 733              	.LFB131:
 337:C:/Users/49542/Desktop/GD32F30x_Demo_Suites_V2.0.0/GD32F30x_Demo_Suites_V2.0.0/GD32F30x_Firmware_Library/GD32F30x_standard_peripheral/Source\gd32f30x_timer.c **** 
 338:C:/Users/49542/Desktop/GD32F30x_Demo_Suites_V2.0.0/GD32F30x_Demo_Suites_V2.0.0/GD32F30x_Firmware_Library/GD32F30x_standard_peripheral/Source\gd32f30x_timer.c **** /*!
 339:C:/Users/49542/Desktop/GD32F30x_Demo_Suites_V2.0.0/GD32F30x_Demo_Suites_V2.0.0/GD32F30x_Firmware_Library/GD32F30x_standard_peripheral/Source\gd32f30x_timer.c ****     \brief      configure TIMER counter register value
 340:C:/Users/49542/Desktop/GD32F30x_Demo_Suites_V2.0.0/GD32F30x_Demo_Suites_V2.0.0/GD32F30x_Firmware_Library/GD32F30x_standard_peripheral/Source\gd32f30x_timer.c ****     \param[in]  timer_periph: TIMERx(x=0..13)
 341:C:/Users/49542/Desktop/GD32F30x_Demo_Suites_V2.0.0/GD32F30x_Demo_Suites_V2.0.0/GD32F30x_Firmware_Library/GD32F30x_standard_peripheral/Source\gd32f30x_timer.c ****     \param[in]  counter: the counter value,0~65535
ARM GAS  C:\Users\49542\AppData\Local\Temp\ccEBNRSE.s 			page 20


 342:C:/Users/49542/Desktop/GD32F30x_Demo_Suites_V2.0.0/GD32F30x_Demo_Suites_V2.0.0/GD32F30x_Firmware_Library/GD32F30x_standard_peripheral/Source\gd32f30x_timer.c ****     \param[out] none
 343:C:/Users/49542/Desktop/GD32F30x_Demo_Suites_V2.0.0/GD32F30x_Demo_Suites_V2.0.0/GD32F30x_Firmware_Library/GD32F30x_standard_peripheral/Source\gd32f30x_timer.c ****     \retval     none
 344:C:/Users/49542/Desktop/GD32F30x_Demo_Suites_V2.0.0/GD32F30x_Demo_Suites_V2.0.0/GD32F30x_Firmware_Library/GD32F30x_standard_peripheral/Source\gd32f30x_timer.c **** */         
 345:C:/Users/49542/Desktop/GD32F30x_Demo_Suites_V2.0.0/GD32F30x_Demo_Suites_V2.0.0/GD32F30x_Firmware_Library/GD32F30x_standard_peripheral/Source\gd32f30x_timer.c **** void timer_counter_value_config(uint32_t timer_periph, uint16_t counter)
 346:C:/Users/49542/Desktop/GD32F30x_Demo_Suites_V2.0.0/GD32F30x_Demo_Suites_V2.0.0/GD32F30x_Firmware_Library/GD32F30x_standard_peripheral/Source\gd32f30x_timer.c **** {
 734              		.loc 1 346 0
 735              		.cfi_startproc
 736              		@ args = 0, pretend = 0, frame = 0
 737              		@ frame_needed = 0, uses_anonymous_args = 0
 738              		@ link register save eliminated.
 739              	.LVL71:
 347:C:/Users/49542/Desktop/GD32F30x_Demo_Suites_V2.0.0/GD32F30x_Demo_Suites_V2.0.0/GD32F30x_Firmware_Library/GD32F30x_standard_peripheral/Source\gd32f30x_timer.c ****     TIMER_CNT(timer_periph) = (uint32_t)counter;
 740              		.loc 1 347 0
 741 0000 4162     		str	r1, [r0, #36]
 348:C:/Users/49542/Desktop/GD32F30x_Demo_Suites_V2.0.0/GD32F30x_Demo_Suites_V2.0.0/GD32F30x_Firmware_Library/GD32F30x_standard_peripheral/Source\gd32f30x_timer.c **** }
 742              		.loc 1 348 0
 743 0002 7047     		bx	lr
 744              		.cfi_endproc
 745              	.LFE131:
 747              		.section	.text.timer_counter_read,"ax",%progbits
 748              		.align	1
 749              		.global	timer_counter_read
 750              		.syntax unified
 751              		.thumb
 752              		.thumb_func
 753              		.fpu fpv4-sp-d16
 755              	timer_counter_read:
 756              	.LFB132:
 349:C:/Users/49542/Desktop/GD32F30x_Demo_Suites_V2.0.0/GD32F30x_Demo_Suites_V2.0.0/GD32F30x_Firmware_Library/GD32F30x_standard_peripheral/Source\gd32f30x_timer.c **** 
 350:C:/Users/49542/Desktop/GD32F30x_Demo_Suites_V2.0.0/GD32F30x_Demo_Suites_V2.0.0/GD32F30x_Firmware_Library/GD32F30x_standard_peripheral/Source\gd32f30x_timer.c **** /*!
 351:C:/Users/49542/Desktop/GD32F30x_Demo_Suites_V2.0.0/GD32F30x_Demo_Suites_V2.0.0/GD32F30x_Firmware_Library/GD32F30x_standard_peripheral/Source\gd32f30x_timer.c ****     \brief      read TIMER counter value
 352:C:/Users/49542/Desktop/GD32F30x_Demo_Suites_V2.0.0/GD32F30x_Demo_Suites_V2.0.0/GD32F30x_Firmware_Library/GD32F30x_standard_peripheral/Source\gd32f30x_timer.c ****     \param[in]  timer_periph: TIMERx(x=0..13)
 353:C:/Users/49542/Desktop/GD32F30x_Demo_Suites_V2.0.0/GD32F30x_Demo_Suites_V2.0.0/GD32F30x_Firmware_Library/GD32F30x_standard_peripheral/Source\gd32f30x_timer.c ****     \param[out] none
 354:C:/Users/49542/Desktop/GD32F30x_Demo_Suites_V2.0.0/GD32F30x_Demo_Suites_V2.0.0/GD32F30x_Firmware_Library/GD32F30x_standard_peripheral/Source\gd32f30x_timer.c ****     \retval     counter value
 355:C:/Users/49542/Desktop/GD32F30x_Demo_Suites_V2.0.0/GD32F30x_Demo_Suites_V2.0.0/GD32F30x_Firmware_Library/GD32F30x_standard_peripheral/Source\gd32f30x_timer.c **** */         
 356:C:/Users/49542/Desktop/GD32F30x_Demo_Suites_V2.0.0/GD32F30x_Demo_Suites_V2.0.0/GD32F30x_Firmware_Library/GD32F30x_standard_peripheral/Source\gd32f30x_timer.c **** uint32_t timer_counter_read(uint32_t timer_periph)
 357:C:/Users/49542/Desktop/GD32F30x_Demo_Suites_V2.0.0/GD32F30x_Demo_Suites_V2.0.0/GD32F30x_Firmware_Library/GD32F30x_standard_peripheral/Source\gd32f30x_timer.c **** {
 757              		.loc 1 357 0
 758              		.cfi_startproc
 759              		@ args = 0, pretend = 0, frame = 0
 760              		@ frame_needed = 0, uses_anonymous_args = 0
 761              		@ link register save eliminated.
 762              	.LVL72:
 358:C:/Users/49542/Desktop/GD32F30x_Demo_Suites_V2.0.0/GD32F30x_Demo_Suites_V2.0.0/GD32F30x_Firmware_Library/GD32F30x_standard_peripheral/Source\gd32f30x_timer.c ****     uint32_t count_value = 0U;
 359:C:/Users/49542/Desktop/GD32F30x_Demo_Suites_V2.0.0/GD32F30x_Demo_Suites_V2.0.0/GD32F30x_Firmware_Library/GD32F30x_standard_peripheral/Source\gd32f30x_timer.c ****     count_value = TIMER_CNT(timer_periph);
 763              		.loc 1 359 0
 764 0000 406A     		ldr	r0, [r0, #36]
 765              	.LVL73:
 360:C:/Users/49542/Desktop/GD32F30x_Demo_Suites_V2.0.0/GD32F30x_Demo_Suites_V2.0.0/GD32F30x_Firmware_Library/GD32F30x_standard_peripheral/Source\gd32f30x_timer.c ****     return (count_value);
 361:C:/Users/49542/Desktop/GD32F30x_Demo_Suites_V2.0.0/GD32F30x_Demo_Suites_V2.0.0/GD32F30x_Firmware_Library/GD32F30x_standard_peripheral/Source\gd32f30x_timer.c **** }
 766              		.loc 1 361 0
 767 0002 7047     		bx	lr
 768              		.cfi_endproc
 769              	.LFE132:
 771              		.section	.text.timer_prescaler_read,"ax",%progbits
 772              		.align	1
 773              		.global	timer_prescaler_read
ARM GAS  C:\Users\49542\AppData\Local\Temp\ccEBNRSE.s 			page 21


 774              		.syntax unified
 775              		.thumb
 776              		.thumb_func
 777              		.fpu fpv4-sp-d16
 779              	timer_prescaler_read:
 780              	.LFB133:
 362:C:/Users/49542/Desktop/GD32F30x_Demo_Suites_V2.0.0/GD32F30x_Demo_Suites_V2.0.0/GD32F30x_Firmware_Library/GD32F30x_standard_peripheral/Source\gd32f30x_timer.c **** 
 363:C:/Users/49542/Desktop/GD32F30x_Demo_Suites_V2.0.0/GD32F30x_Demo_Suites_V2.0.0/GD32F30x_Firmware_Library/GD32F30x_standard_peripheral/Source\gd32f30x_timer.c **** /*!
 364:C:/Users/49542/Desktop/GD32F30x_Demo_Suites_V2.0.0/GD32F30x_Demo_Suites_V2.0.0/GD32F30x_Firmware_Library/GD32F30x_standard_peripheral/Source\gd32f30x_timer.c ****     \brief      read TIMER prescaler value
 365:C:/Users/49542/Desktop/GD32F30x_Demo_Suites_V2.0.0/GD32F30x_Demo_Suites_V2.0.0/GD32F30x_Firmware_Library/GD32F30x_standard_peripheral/Source\gd32f30x_timer.c ****     \param[in]  timer_periph: TIMERx(x=0..13)
 366:C:/Users/49542/Desktop/GD32F30x_Demo_Suites_V2.0.0/GD32F30x_Demo_Suites_V2.0.0/GD32F30x_Firmware_Library/GD32F30x_standard_peripheral/Source\gd32f30x_timer.c ****     \param[out] none
 367:C:/Users/49542/Desktop/GD32F30x_Demo_Suites_V2.0.0/GD32F30x_Demo_Suites_V2.0.0/GD32F30x_Firmware_Library/GD32F30x_standard_peripheral/Source\gd32f30x_timer.c ****     \retval     prescaler register value
 368:C:/Users/49542/Desktop/GD32F30x_Demo_Suites_V2.0.0/GD32F30x_Demo_Suites_V2.0.0/GD32F30x_Firmware_Library/GD32F30x_standard_peripheral/Source\gd32f30x_timer.c **** */         
 369:C:/Users/49542/Desktop/GD32F30x_Demo_Suites_V2.0.0/GD32F30x_Demo_Suites_V2.0.0/GD32F30x_Firmware_Library/GD32F30x_standard_peripheral/Source\gd32f30x_timer.c **** uint16_t timer_prescaler_read(uint32_t timer_periph)
 370:C:/Users/49542/Desktop/GD32F30x_Demo_Suites_V2.0.0/GD32F30x_Demo_Suites_V2.0.0/GD32F30x_Firmware_Library/GD32F30x_standard_peripheral/Source\gd32f30x_timer.c **** {
 781              		.loc 1 370 0
 782              		.cfi_startproc
 783              		@ args = 0, pretend = 0, frame = 0
 784              		@ frame_needed = 0, uses_anonymous_args = 0
 785              		@ link register save eliminated.
 786              	.LVL74:
 371:C:/Users/49542/Desktop/GD32F30x_Demo_Suites_V2.0.0/GD32F30x_Demo_Suites_V2.0.0/GD32F30x_Firmware_Library/GD32F30x_standard_peripheral/Source\gd32f30x_timer.c ****     uint16_t prescaler_value = 0U;
 372:C:/Users/49542/Desktop/GD32F30x_Demo_Suites_V2.0.0/GD32F30x_Demo_Suites_V2.0.0/GD32F30x_Firmware_Library/GD32F30x_standard_peripheral/Source\gd32f30x_timer.c ****     prescaler_value = (uint16_t)(TIMER_PSC(timer_periph));
 787              		.loc 1 372 0
 788 0000 806A     		ldr	r0, [r0, #40]
 789              	.LVL75:
 373:C:/Users/49542/Desktop/GD32F30x_Demo_Suites_V2.0.0/GD32F30x_Demo_Suites_V2.0.0/GD32F30x_Firmware_Library/GD32F30x_standard_peripheral/Source\gd32f30x_timer.c ****     return (prescaler_value);
 374:C:/Users/49542/Desktop/GD32F30x_Demo_Suites_V2.0.0/GD32F30x_Demo_Suites_V2.0.0/GD32F30x_Firmware_Library/GD32F30x_standard_peripheral/Source\gd32f30x_timer.c **** }
 790              		.loc 1 374 0
 791 0002 80B2     		uxth	r0, r0
 792 0004 7047     		bx	lr
 793              		.cfi_endproc
 794              	.LFE133:
 796              		.section	.text.timer_single_pulse_mode_config,"ax",%progbits
 797              		.align	1
 798              		.global	timer_single_pulse_mode_config
 799              		.syntax unified
 800              		.thumb
 801              		.thumb_func
 802              		.fpu fpv4-sp-d16
 804              	timer_single_pulse_mode_config:
 805              	.LFB134:
 375:C:/Users/49542/Desktop/GD32F30x_Demo_Suites_V2.0.0/GD32F30x_Demo_Suites_V2.0.0/GD32F30x_Firmware_Library/GD32F30x_standard_peripheral/Source\gd32f30x_timer.c **** 
 376:C:/Users/49542/Desktop/GD32F30x_Demo_Suites_V2.0.0/GD32F30x_Demo_Suites_V2.0.0/GD32F30x_Firmware_Library/GD32F30x_standard_peripheral/Source\gd32f30x_timer.c **** /*!
 377:C:/Users/49542/Desktop/GD32F30x_Demo_Suites_V2.0.0/GD32F30x_Demo_Suites_V2.0.0/GD32F30x_Firmware_Library/GD32F30x_standard_peripheral/Source\gd32f30x_timer.c ****     \brief      configure TIMER single pulse mode
 378:C:/Users/49542/Desktop/GD32F30x_Demo_Suites_V2.0.0/GD32F30x_Demo_Suites_V2.0.0/GD32F30x_Firmware_Library/GD32F30x_standard_peripheral/Source\gd32f30x_timer.c ****     \param[in]  timer_periph: TIMERx(x=0..8,11)
 379:C:/Users/49542/Desktop/GD32F30x_Demo_Suites_V2.0.0/GD32F30x_Demo_Suites_V2.0.0/GD32F30x_Firmware_Library/GD32F30x_standard_peripheral/Source\gd32f30x_timer.c ****     \param[in]  spmode:
 380:C:/Users/49542/Desktop/GD32F30x_Demo_Suites_V2.0.0/GD32F30x_Demo_Suites_V2.0.0/GD32F30x_Firmware_Library/GD32F30x_standard_peripheral/Source\gd32f30x_timer.c ****                 only one parameter can be selected which is shown as below:
 381:C:/Users/49542/Desktop/GD32F30x_Demo_Suites_V2.0.0/GD32F30x_Demo_Suites_V2.0.0/GD32F30x_Firmware_Library/GD32F30x_standard_peripheral/Source\gd32f30x_timer.c ****       \arg        TIMER_SP_MODE_SINGLE: single pulse mode
 382:C:/Users/49542/Desktop/GD32F30x_Demo_Suites_V2.0.0/GD32F30x_Demo_Suites_V2.0.0/GD32F30x_Firmware_Library/GD32F30x_standard_peripheral/Source\gd32f30x_timer.c ****       \arg        TIMER_SP_MODE_REPETITIVE: repetitive pulse mode
 383:C:/Users/49542/Desktop/GD32F30x_Demo_Suites_V2.0.0/GD32F30x_Demo_Suites_V2.0.0/GD32F30x_Firmware_Library/GD32F30x_standard_peripheral/Source\gd32f30x_timer.c ****     \param[out] none
 384:C:/Users/49542/Desktop/GD32F30x_Demo_Suites_V2.0.0/GD32F30x_Demo_Suites_V2.0.0/GD32F30x_Firmware_Library/GD32F30x_standard_peripheral/Source\gd32f30x_timer.c ****     \retval     none
 385:C:/Users/49542/Desktop/GD32F30x_Demo_Suites_V2.0.0/GD32F30x_Demo_Suites_V2.0.0/GD32F30x_Firmware_Library/GD32F30x_standard_peripheral/Source\gd32f30x_timer.c **** */
 386:C:/Users/49542/Desktop/GD32F30x_Demo_Suites_V2.0.0/GD32F30x_Demo_Suites_V2.0.0/GD32F30x_Firmware_Library/GD32F30x_standard_peripheral/Source\gd32f30x_timer.c **** void timer_single_pulse_mode_config(uint32_t timer_periph, uint32_t spmode)
 387:C:/Users/49542/Desktop/GD32F30x_Demo_Suites_V2.0.0/GD32F30x_Demo_Suites_V2.0.0/GD32F30x_Firmware_Library/GD32F30x_standard_peripheral/Source\gd32f30x_timer.c **** {
 806              		.loc 1 387 0
 807              		.cfi_startproc
ARM GAS  C:\Users\49542\AppData\Local\Temp\ccEBNRSE.s 			page 22


 808              		@ args = 0, pretend = 0, frame = 0
 809              		@ frame_needed = 0, uses_anonymous_args = 0
 810              		@ link register save eliminated.
 811              	.LVL76:
 388:C:/Users/49542/Desktop/GD32F30x_Demo_Suites_V2.0.0/GD32F30x_Demo_Suites_V2.0.0/GD32F30x_Firmware_Library/GD32F30x_standard_peripheral/Source\gd32f30x_timer.c ****     if(TIMER_SP_MODE_SINGLE == spmode){
 812              		.loc 1 388 0
 813 0000 11B1     		cbz	r1, .L53
 389:C:/Users/49542/Desktop/GD32F30x_Demo_Suites_V2.0.0/GD32F30x_Demo_Suites_V2.0.0/GD32F30x_Firmware_Library/GD32F30x_standard_peripheral/Source\gd32f30x_timer.c ****         TIMER_CTL0(timer_periph) |= (uint32_t)TIMER_CTL0_SPM;
 390:C:/Users/49542/Desktop/GD32F30x_Demo_Suites_V2.0.0/GD32F30x_Demo_Suites_V2.0.0/GD32F30x_Firmware_Library/GD32F30x_standard_peripheral/Source\gd32f30x_timer.c ****     }else if(TIMER_SP_MODE_REPETITIVE == spmode){
 814              		.loc 1 390 0
 815 0002 0129     		cmp	r1, #1
 816 0004 05D0     		beq	.L54
 817              	.L50:
 391:C:/Users/49542/Desktop/GD32F30x_Demo_Suites_V2.0.0/GD32F30x_Demo_Suites_V2.0.0/GD32F30x_Firmware_Library/GD32F30x_standard_peripheral/Source\gd32f30x_timer.c ****         TIMER_CTL0(timer_periph) &= ~((uint32_t)TIMER_CTL0_SPM);
 392:C:/Users/49542/Desktop/GD32F30x_Demo_Suites_V2.0.0/GD32F30x_Demo_Suites_V2.0.0/GD32F30x_Firmware_Library/GD32F30x_standard_peripheral/Source\gd32f30x_timer.c ****     }else{
 393:C:/Users/49542/Desktop/GD32F30x_Demo_Suites_V2.0.0/GD32F30x_Demo_Suites_V2.0.0/GD32F30x_Firmware_Library/GD32F30x_standard_peripheral/Source\gd32f30x_timer.c ****         /* illegal parameters */
 394:C:/Users/49542/Desktop/GD32F30x_Demo_Suites_V2.0.0/GD32F30x_Demo_Suites_V2.0.0/GD32F30x_Firmware_Library/GD32F30x_standard_peripheral/Source\gd32f30x_timer.c ****     }
 395:C:/Users/49542/Desktop/GD32F30x_Demo_Suites_V2.0.0/GD32F30x_Demo_Suites_V2.0.0/GD32F30x_Firmware_Library/GD32F30x_standard_peripheral/Source\gd32f30x_timer.c **** }
 818              		.loc 1 395 0
 819 0006 7047     		bx	lr
 820              	.L53:
 389:C:/Users/49542/Desktop/GD32F30x_Demo_Suites_V2.0.0/GD32F30x_Demo_Suites_V2.0.0/GD32F30x_Firmware_Library/GD32F30x_standard_peripheral/Source\gd32f30x_timer.c ****         TIMER_CTL0(timer_periph) |= (uint32_t)TIMER_CTL0_SPM;
 821              		.loc 1 389 0
 822 0008 0368     		ldr	r3, [r0]
 823 000a 43F00803 		orr	r3, r3, #8
 824 000e 0360     		str	r3, [r0]
 825 0010 7047     		bx	lr
 826              	.L54:
 391:C:/Users/49542/Desktop/GD32F30x_Demo_Suites_V2.0.0/GD32F30x_Demo_Suites_V2.0.0/GD32F30x_Firmware_Library/GD32F30x_standard_peripheral/Source\gd32f30x_timer.c ****         TIMER_CTL0(timer_periph) &= ~((uint32_t)TIMER_CTL0_SPM);
 827              		.loc 1 391 0
 828 0012 0368     		ldr	r3, [r0]
 829 0014 23F00803 		bic	r3, r3, #8
 830 0018 0360     		str	r3, [r0]
 831              		.loc 1 395 0
 832 001a F4E7     		b	.L50
 833              		.cfi_endproc
 834              	.LFE134:
 836              		.section	.text.timer_update_source_config,"ax",%progbits
 837              		.align	1
 838              		.global	timer_update_source_config
 839              		.syntax unified
 840              		.thumb
 841              		.thumb_func
 842              		.fpu fpv4-sp-d16
 844              	timer_update_source_config:
 845              	.LFB135:
 396:C:/Users/49542/Desktop/GD32F30x_Demo_Suites_V2.0.0/GD32F30x_Demo_Suites_V2.0.0/GD32F30x_Firmware_Library/GD32F30x_standard_peripheral/Source\gd32f30x_timer.c **** 
 397:C:/Users/49542/Desktop/GD32F30x_Demo_Suites_V2.0.0/GD32F30x_Demo_Suites_V2.0.0/GD32F30x_Firmware_Library/GD32F30x_standard_peripheral/Source\gd32f30x_timer.c **** /*!
 398:C:/Users/49542/Desktop/GD32F30x_Demo_Suites_V2.0.0/GD32F30x_Demo_Suites_V2.0.0/GD32F30x_Firmware_Library/GD32F30x_standard_peripheral/Source\gd32f30x_timer.c ****     \brief      configure TIMER update source 
 399:C:/Users/49542/Desktop/GD32F30x_Demo_Suites_V2.0.0/GD32F30x_Demo_Suites_V2.0.0/GD32F30x_Firmware_Library/GD32F30x_standard_peripheral/Source\gd32f30x_timer.c ****     \param[in]  timer_periph: TIMERx(x=0..13)
 400:C:/Users/49542/Desktop/GD32F30x_Demo_Suites_V2.0.0/GD32F30x_Demo_Suites_V2.0.0/GD32F30x_Firmware_Library/GD32F30x_standard_peripheral/Source\gd32f30x_timer.c ****     \param[in]  update: 
 401:C:/Users/49542/Desktop/GD32F30x_Demo_Suites_V2.0.0/GD32F30x_Demo_Suites_V2.0.0/GD32F30x_Firmware_Library/GD32F30x_standard_peripheral/Source\gd32f30x_timer.c ****                 only one parameter can be selected which is shown as below:
 402:C:/Users/49542/Desktop/GD32F30x_Demo_Suites_V2.0.0/GD32F30x_Demo_Suites_V2.0.0/GD32F30x_Firmware_Library/GD32F30x_standard_peripheral/Source\gd32f30x_timer.c ****       \arg        TIMER_UPDATE_SRC_GLOBAL: update generate by setting of UPG bit or the counter ove
 403:C:/Users/49542/Desktop/GD32F30x_Demo_Suites_V2.0.0/GD32F30x_Demo_Suites_V2.0.0/GD32F30x_Firmware_Library/GD32F30x_standard_peripheral/Source\gd32f30x_timer.c ****       \arg        TIMER_UPDATE_SRC_REGULAR: update generate only by counter overflow/underflow
 404:C:/Users/49542/Desktop/GD32F30x_Demo_Suites_V2.0.0/GD32F30x_Demo_Suites_V2.0.0/GD32F30x_Firmware_Library/GD32F30x_standard_peripheral/Source\gd32f30x_timer.c ****     \param[out] none
 405:C:/Users/49542/Desktop/GD32F30x_Demo_Suites_V2.0.0/GD32F30x_Demo_Suites_V2.0.0/GD32F30x_Firmware_Library/GD32F30x_standard_peripheral/Source\gd32f30x_timer.c ****     \retval     none
 406:C:/Users/49542/Desktop/GD32F30x_Demo_Suites_V2.0.0/GD32F30x_Demo_Suites_V2.0.0/GD32F30x_Firmware_Library/GD32F30x_standard_peripheral/Source\gd32f30x_timer.c **** */
ARM GAS  C:\Users\49542\AppData\Local\Temp\ccEBNRSE.s 			page 23


 407:C:/Users/49542/Desktop/GD32F30x_Demo_Suites_V2.0.0/GD32F30x_Demo_Suites_V2.0.0/GD32F30x_Firmware_Library/GD32F30x_standard_peripheral/Source\gd32f30x_timer.c **** void timer_update_source_config(uint32_t timer_periph, uint32_t update)
 408:C:/Users/49542/Desktop/GD32F30x_Demo_Suites_V2.0.0/GD32F30x_Demo_Suites_V2.0.0/GD32F30x_Firmware_Library/GD32F30x_standard_peripheral/Source\gd32f30x_timer.c **** {
 846              		.loc 1 408 0
 847              		.cfi_startproc
 848              		@ args = 0, pretend = 0, frame = 0
 849              		@ frame_needed = 0, uses_anonymous_args = 0
 850              		@ link register save eliminated.
 851              	.LVL77:
 409:C:/Users/49542/Desktop/GD32F30x_Demo_Suites_V2.0.0/GD32F30x_Demo_Suites_V2.0.0/GD32F30x_Firmware_Library/GD32F30x_standard_peripheral/Source\gd32f30x_timer.c ****     if(TIMER_UPDATE_SRC_REGULAR == update){
 852              		.loc 1 409 0
 853 0000 11B1     		cbz	r1, .L58
 410:C:/Users/49542/Desktop/GD32F30x_Demo_Suites_V2.0.0/GD32F30x_Demo_Suites_V2.0.0/GD32F30x_Firmware_Library/GD32F30x_standard_peripheral/Source\gd32f30x_timer.c ****         TIMER_CTL0(timer_periph) |= (uint32_t)TIMER_CTL0_UPS;
 411:C:/Users/49542/Desktop/GD32F30x_Demo_Suites_V2.0.0/GD32F30x_Demo_Suites_V2.0.0/GD32F30x_Firmware_Library/GD32F30x_standard_peripheral/Source\gd32f30x_timer.c ****     }else if(TIMER_UPDATE_SRC_GLOBAL == update){
 854              		.loc 1 411 0
 855 0002 0129     		cmp	r1, #1
 856 0004 05D0     		beq	.L59
 857              	.L55:
 412:C:/Users/49542/Desktop/GD32F30x_Demo_Suites_V2.0.0/GD32F30x_Demo_Suites_V2.0.0/GD32F30x_Firmware_Library/GD32F30x_standard_peripheral/Source\gd32f30x_timer.c ****         TIMER_CTL0(timer_periph) &= ~(uint32_t)TIMER_CTL0_UPS;
 413:C:/Users/49542/Desktop/GD32F30x_Demo_Suites_V2.0.0/GD32F30x_Demo_Suites_V2.0.0/GD32F30x_Firmware_Library/GD32F30x_standard_peripheral/Source\gd32f30x_timer.c ****     }else{
 414:C:/Users/49542/Desktop/GD32F30x_Demo_Suites_V2.0.0/GD32F30x_Demo_Suites_V2.0.0/GD32F30x_Firmware_Library/GD32F30x_standard_peripheral/Source\gd32f30x_timer.c ****         /* illegal parameters */
 415:C:/Users/49542/Desktop/GD32F30x_Demo_Suites_V2.0.0/GD32F30x_Demo_Suites_V2.0.0/GD32F30x_Firmware_Library/GD32F30x_standard_peripheral/Source\gd32f30x_timer.c ****     }
 416:C:/Users/49542/Desktop/GD32F30x_Demo_Suites_V2.0.0/GD32F30x_Demo_Suites_V2.0.0/GD32F30x_Firmware_Library/GD32F30x_standard_peripheral/Source\gd32f30x_timer.c **** }
 858              		.loc 1 416 0
 859 0006 7047     		bx	lr
 860              	.L58:
 410:C:/Users/49542/Desktop/GD32F30x_Demo_Suites_V2.0.0/GD32F30x_Demo_Suites_V2.0.0/GD32F30x_Firmware_Library/GD32F30x_standard_peripheral/Source\gd32f30x_timer.c ****         TIMER_CTL0(timer_periph) |= (uint32_t)TIMER_CTL0_UPS;
 861              		.loc 1 410 0
 862 0008 0368     		ldr	r3, [r0]
 863 000a 43F00403 		orr	r3, r3, #4
 864 000e 0360     		str	r3, [r0]
 865 0010 7047     		bx	lr
 866              	.L59:
 412:C:/Users/49542/Desktop/GD32F30x_Demo_Suites_V2.0.0/GD32F30x_Demo_Suites_V2.0.0/GD32F30x_Firmware_Library/GD32F30x_standard_peripheral/Source\gd32f30x_timer.c ****         TIMER_CTL0(timer_periph) &= ~(uint32_t)TIMER_CTL0_UPS;
 867              		.loc 1 412 0
 868 0012 0368     		ldr	r3, [r0]
 869 0014 23F00403 		bic	r3, r3, #4
 870 0018 0360     		str	r3, [r0]
 871              		.loc 1 416 0
 872 001a F4E7     		b	.L55
 873              		.cfi_endproc
 874              	.LFE135:
 876              		.section	.text.timer_interrupt_enable,"ax",%progbits
 877              		.align	1
 878              		.global	timer_interrupt_enable
 879              		.syntax unified
 880              		.thumb
 881              		.thumb_func
 882              		.fpu fpv4-sp-d16
 884              	timer_interrupt_enable:
 885              	.LFB136:
 417:C:/Users/49542/Desktop/GD32F30x_Demo_Suites_V2.0.0/GD32F30x_Demo_Suites_V2.0.0/GD32F30x_Firmware_Library/GD32F30x_standard_peripheral/Source\gd32f30x_timer.c **** 
 418:C:/Users/49542/Desktop/GD32F30x_Demo_Suites_V2.0.0/GD32F30x_Demo_Suites_V2.0.0/GD32F30x_Firmware_Library/GD32F30x_standard_peripheral/Source\gd32f30x_timer.c **** /*!
 419:C:/Users/49542/Desktop/GD32F30x_Demo_Suites_V2.0.0/GD32F30x_Demo_Suites_V2.0.0/GD32F30x_Firmware_Library/GD32F30x_standard_peripheral/Source\gd32f30x_timer.c ****     \brief      enable the TIMER interrupt
 420:C:/Users/49542/Desktop/GD32F30x_Demo_Suites_V2.0.0/GD32F30x_Demo_Suites_V2.0.0/GD32F30x_Firmware_Library/GD32F30x_standard_peripheral/Source\gd32f30x_timer.c ****     \param[in]  timer_periph: please refer to the following parameters 
 421:C:/Users/49542/Desktop/GD32F30x_Demo_Suites_V2.0.0/GD32F30x_Demo_Suites_V2.0.0/GD32F30x_Firmware_Library/GD32F30x_standard_peripheral/Source\gd32f30x_timer.c ****     \param[in]  interrupt: timer interrupt enable source
 422:C:/Users/49542/Desktop/GD32F30x_Demo_Suites_V2.0.0/GD32F30x_Demo_Suites_V2.0.0/GD32F30x_Firmware_Library/GD32F30x_standard_peripheral/Source\gd32f30x_timer.c ****                 only one parameter can be selected which is shown as below:
 423:C:/Users/49542/Desktop/GD32F30x_Demo_Suites_V2.0.0/GD32F30x_Demo_Suites_V2.0.0/GD32F30x_Firmware_Library/GD32F30x_standard_peripheral/Source\gd32f30x_timer.c ****       \arg        TIMER_INT_UP: update interrupt enable, TIMERx(x=0..13)
ARM GAS  C:\Users\49542\AppData\Local\Temp\ccEBNRSE.s 			page 24


 424:C:/Users/49542/Desktop/GD32F30x_Demo_Suites_V2.0.0/GD32F30x_Demo_Suites_V2.0.0/GD32F30x_Firmware_Library/GD32F30x_standard_peripheral/Source\gd32f30x_timer.c ****       \arg        TIMER_INT_CH0: channel 0 interrupt enable, TIMERx(x=0..4,7..13)
 425:C:/Users/49542/Desktop/GD32F30x_Demo_Suites_V2.0.0/GD32F30x_Demo_Suites_V2.0.0/GD32F30x_Firmware_Library/GD32F30x_standard_peripheral/Source\gd32f30x_timer.c ****       \arg        TIMER_INT_CH1: channel 1 interrupt enable, TIMERx(x=0..4,7,8,11)
 426:C:/Users/49542/Desktop/GD32F30x_Demo_Suites_V2.0.0/GD32F30x_Demo_Suites_V2.0.0/GD32F30x_Firmware_Library/GD32F30x_standard_peripheral/Source\gd32f30x_timer.c ****       \arg        TIMER_INT_CH2: channel 2 interrupt enable, TIMERx(x=0..4,7)
 427:C:/Users/49542/Desktop/GD32F30x_Demo_Suites_V2.0.0/GD32F30x_Demo_Suites_V2.0.0/GD32F30x_Firmware_Library/GD32F30x_standard_peripheral/Source\gd32f30x_timer.c ****       \arg        TIMER_INT_CH3: channel 3 interrupt enable , TIMERx(x=0..4,7)
 428:C:/Users/49542/Desktop/GD32F30x_Demo_Suites_V2.0.0/GD32F30x_Demo_Suites_V2.0.0/GD32F30x_Firmware_Library/GD32F30x_standard_peripheral/Source\gd32f30x_timer.c ****       \arg        TIMER_INT_CMT: commutation interrupt enable, TIMERx(x=0,7)
 429:C:/Users/49542/Desktop/GD32F30x_Demo_Suites_V2.0.0/GD32F30x_Demo_Suites_V2.0.0/GD32F30x_Firmware_Library/GD32F30x_standard_peripheral/Source\gd32f30x_timer.c ****       \arg        TIMER_INT_TRG: trigger interrupt enable, TIMERx(x=0..4,7,8,11)
 430:C:/Users/49542/Desktop/GD32F30x_Demo_Suites_V2.0.0/GD32F30x_Demo_Suites_V2.0.0/GD32F30x_Firmware_Library/GD32F30x_standard_peripheral/Source\gd32f30x_timer.c ****       \arg        TIMER_INT_BRK: break interrupt enable, TIMERx(x=0,7)
 431:C:/Users/49542/Desktop/GD32F30x_Demo_Suites_V2.0.0/GD32F30x_Demo_Suites_V2.0.0/GD32F30x_Firmware_Library/GD32F30x_standard_peripheral/Source\gd32f30x_timer.c ****     \param[out] none
 432:C:/Users/49542/Desktop/GD32F30x_Demo_Suites_V2.0.0/GD32F30x_Demo_Suites_V2.0.0/GD32F30x_Firmware_Library/GD32F30x_standard_peripheral/Source\gd32f30x_timer.c ****     \retval     none
 433:C:/Users/49542/Desktop/GD32F30x_Demo_Suites_V2.0.0/GD32F30x_Demo_Suites_V2.0.0/GD32F30x_Firmware_Library/GD32F30x_standard_peripheral/Source\gd32f30x_timer.c **** */
 434:C:/Users/49542/Desktop/GD32F30x_Demo_Suites_V2.0.0/GD32F30x_Demo_Suites_V2.0.0/GD32F30x_Firmware_Library/GD32F30x_standard_peripheral/Source\gd32f30x_timer.c **** void timer_interrupt_enable(uint32_t timer_periph, uint32_t interrupt)
 435:C:/Users/49542/Desktop/GD32F30x_Demo_Suites_V2.0.0/GD32F30x_Demo_Suites_V2.0.0/GD32F30x_Firmware_Library/GD32F30x_standard_peripheral/Source\gd32f30x_timer.c **** {
 886              		.loc 1 435 0
 887              		.cfi_startproc
 888              		@ args = 0, pretend = 0, frame = 0
 889              		@ frame_needed = 0, uses_anonymous_args = 0
 890              		@ link register save eliminated.
 891              	.LVL78:
 436:C:/Users/49542/Desktop/GD32F30x_Demo_Suites_V2.0.0/GD32F30x_Demo_Suites_V2.0.0/GD32F30x_Firmware_Library/GD32F30x_standard_peripheral/Source\gd32f30x_timer.c ****     TIMER_DMAINTEN(timer_periph) |= (uint32_t) interrupt; 
 892              		.loc 1 436 0
 893 0000 C368     		ldr	r3, [r0, #12]
 894 0002 1943     		orrs	r1, r1, r3
 895              	.LVL79:
 896 0004 C160     		str	r1, [r0, #12]
 437:C:/Users/49542/Desktop/GD32F30x_Demo_Suites_V2.0.0/GD32F30x_Demo_Suites_V2.0.0/GD32F30x_Firmware_Library/GD32F30x_standard_peripheral/Source\gd32f30x_timer.c **** }
 897              		.loc 1 437 0
 898 0006 7047     		bx	lr
 899              		.cfi_endproc
 900              	.LFE136:
 902              		.section	.text.timer_interrupt_disable,"ax",%progbits
 903              		.align	1
 904              		.global	timer_interrupt_disable
 905              		.syntax unified
 906              		.thumb
 907              		.thumb_func
 908              		.fpu fpv4-sp-d16
 910              	timer_interrupt_disable:
 911              	.LFB137:
 438:C:/Users/49542/Desktop/GD32F30x_Demo_Suites_V2.0.0/GD32F30x_Demo_Suites_V2.0.0/GD32F30x_Firmware_Library/GD32F30x_standard_peripheral/Source\gd32f30x_timer.c **** 
 439:C:/Users/49542/Desktop/GD32F30x_Demo_Suites_V2.0.0/GD32F30x_Demo_Suites_V2.0.0/GD32F30x_Firmware_Library/GD32F30x_standard_peripheral/Source\gd32f30x_timer.c **** /*!
 440:C:/Users/49542/Desktop/GD32F30x_Demo_Suites_V2.0.0/GD32F30x_Demo_Suites_V2.0.0/GD32F30x_Firmware_Library/GD32F30x_standard_peripheral/Source\gd32f30x_timer.c ****     \brief      disable the TIMER interrupt
 441:C:/Users/49542/Desktop/GD32F30x_Demo_Suites_V2.0.0/GD32F30x_Demo_Suites_V2.0.0/GD32F30x_Firmware_Library/GD32F30x_standard_peripheral/Source\gd32f30x_timer.c ****     \param[in]  timer_periph: please refer to the following parameters
 442:C:/Users/49542/Desktop/GD32F30x_Demo_Suites_V2.0.0/GD32F30x_Demo_Suites_V2.0.0/GD32F30x_Firmware_Library/GD32F30x_standard_peripheral/Source\gd32f30x_timer.c ****     \param[in]  interrupt: timer interrupt source disable 
 443:C:/Users/49542/Desktop/GD32F30x_Demo_Suites_V2.0.0/GD32F30x_Demo_Suites_V2.0.0/GD32F30x_Firmware_Library/GD32F30x_standard_peripheral/Source\gd32f30x_timer.c ****                 only one parameter can be selected which is shown as below:
 444:C:/Users/49542/Desktop/GD32F30x_Demo_Suites_V2.0.0/GD32F30x_Demo_Suites_V2.0.0/GD32F30x_Firmware_Library/GD32F30x_standard_peripheral/Source\gd32f30x_timer.c ****       \arg        TIMER_INT_UP: update interrupt disable, TIMERx(x=0..13)
 445:C:/Users/49542/Desktop/GD32F30x_Demo_Suites_V2.0.0/GD32F30x_Demo_Suites_V2.0.0/GD32F30x_Firmware_Library/GD32F30x_standard_peripheral/Source\gd32f30x_timer.c ****       \arg        TIMER_INT_CH0: channel 0 interrupt disable, TIMERx(x=0..4,7..13)
 446:C:/Users/49542/Desktop/GD32F30x_Demo_Suites_V2.0.0/GD32F30x_Demo_Suites_V2.0.0/GD32F30x_Firmware_Library/GD32F30x_standard_peripheral/Source\gd32f30x_timer.c ****       \arg        TIMER_INT_CH1: channel 1 interrupt disable, TIMERx(x=0..4,7,8,11)
 447:C:/Users/49542/Desktop/GD32F30x_Demo_Suites_V2.0.0/GD32F30x_Demo_Suites_V2.0.0/GD32F30x_Firmware_Library/GD32F30x_standard_peripheral/Source\gd32f30x_timer.c ****       \arg        TIMER_INT_CH2: channel 2 interrupt disable, TIMERx(x=0..4,7)
 448:C:/Users/49542/Desktop/GD32F30x_Demo_Suites_V2.0.0/GD32F30x_Demo_Suites_V2.0.0/GD32F30x_Firmware_Library/GD32F30x_standard_peripheral/Source\gd32f30x_timer.c ****       \arg        TIMER_INT_CH3: channel 3 interrupt disable , TIMERx(x=0..4,7)
 449:C:/Users/49542/Desktop/GD32F30x_Demo_Suites_V2.0.0/GD32F30x_Demo_Suites_V2.0.0/GD32F30x_Firmware_Library/GD32F30x_standard_peripheral/Source\gd32f30x_timer.c ****       \arg        TIMER_INT_CMT: commutation interrupt disable, TIMERx(x=0,7)
 450:C:/Users/49542/Desktop/GD32F30x_Demo_Suites_V2.0.0/GD32F30x_Demo_Suites_V2.0.0/GD32F30x_Firmware_Library/GD32F30x_standard_peripheral/Source\gd32f30x_timer.c ****       \arg        TIMER_INT_TRG: trigger interrupt disable, TIMERx(x=0..4,7,8,11)
 451:C:/Users/49542/Desktop/GD32F30x_Demo_Suites_V2.0.0/GD32F30x_Demo_Suites_V2.0.0/GD32F30x_Firmware_Library/GD32F30x_standard_peripheral/Source\gd32f30x_timer.c ****       \arg        TIMER_INT_BRK: break interrupt disable, TIMERx(x=0,7)
 452:C:/Users/49542/Desktop/GD32F30x_Demo_Suites_V2.0.0/GD32F30x_Demo_Suites_V2.0.0/GD32F30x_Firmware_Library/GD32F30x_standard_peripheral/Source\gd32f30x_timer.c ****     \param[out] none
 453:C:/Users/49542/Desktop/GD32F30x_Demo_Suites_V2.0.0/GD32F30x_Demo_Suites_V2.0.0/GD32F30x_Firmware_Library/GD32F30x_standard_peripheral/Source\gd32f30x_timer.c ****     \retval     none
 454:C:/Users/49542/Desktop/GD32F30x_Demo_Suites_V2.0.0/GD32F30x_Demo_Suites_V2.0.0/GD32F30x_Firmware_Library/GD32F30x_standard_peripheral/Source\gd32f30x_timer.c **** */
 455:C:/Users/49542/Desktop/GD32F30x_Demo_Suites_V2.0.0/GD32F30x_Demo_Suites_V2.0.0/GD32F30x_Firmware_Library/GD32F30x_standard_peripheral/Source\gd32f30x_timer.c **** void timer_interrupt_disable(uint32_t timer_periph, uint32_t interrupt)
 456:C:/Users/49542/Desktop/GD32F30x_Demo_Suites_V2.0.0/GD32F30x_Demo_Suites_V2.0.0/GD32F30x_Firmware_Library/GD32F30x_standard_peripheral/Source\gd32f30x_timer.c **** {
ARM GAS  C:\Users\49542\AppData\Local\Temp\ccEBNRSE.s 			page 25


 912              		.loc 1 456 0
 913              		.cfi_startproc
 914              		@ args = 0, pretend = 0, frame = 0
 915              		@ frame_needed = 0, uses_anonymous_args = 0
 916              		@ link register save eliminated.
 917              	.LVL80:
 457:C:/Users/49542/Desktop/GD32F30x_Demo_Suites_V2.0.0/GD32F30x_Demo_Suites_V2.0.0/GD32F30x_Firmware_Library/GD32F30x_standard_peripheral/Source\gd32f30x_timer.c ****     TIMER_DMAINTEN(timer_periph) &= (~(uint32_t)interrupt); 
 918              		.loc 1 457 0
 919 0000 C368     		ldr	r3, [r0, #12]
 920 0002 23EA0101 		bic	r1, r3, r1
 921              	.LVL81:
 922 0006 C160     		str	r1, [r0, #12]
 458:C:/Users/49542/Desktop/GD32F30x_Demo_Suites_V2.0.0/GD32F30x_Demo_Suites_V2.0.0/GD32F30x_Firmware_Library/GD32F30x_standard_peripheral/Source\gd32f30x_timer.c **** }
 923              		.loc 1 458 0
 924 0008 7047     		bx	lr
 925              		.cfi_endproc
 926              	.LFE137:
 928              		.section	.text.timer_interrupt_flag_get,"ax",%progbits
 929              		.align	1
 930              		.global	timer_interrupt_flag_get
 931              		.syntax unified
 932              		.thumb
 933              		.thumb_func
 934              		.fpu fpv4-sp-d16
 936              	timer_interrupt_flag_get:
 937              	.LFB138:
 459:C:/Users/49542/Desktop/GD32F30x_Demo_Suites_V2.0.0/GD32F30x_Demo_Suites_V2.0.0/GD32F30x_Firmware_Library/GD32F30x_standard_peripheral/Source\gd32f30x_timer.c **** 
 460:C:/Users/49542/Desktop/GD32F30x_Demo_Suites_V2.0.0/GD32F30x_Demo_Suites_V2.0.0/GD32F30x_Firmware_Library/GD32F30x_standard_peripheral/Source\gd32f30x_timer.c **** /*!
 461:C:/Users/49542/Desktop/GD32F30x_Demo_Suites_V2.0.0/GD32F30x_Demo_Suites_V2.0.0/GD32F30x_Firmware_Library/GD32F30x_standard_peripheral/Source\gd32f30x_timer.c ****     \brief      get timer interrupt flag
 462:C:/Users/49542/Desktop/GD32F30x_Demo_Suites_V2.0.0/GD32F30x_Demo_Suites_V2.0.0/GD32F30x_Firmware_Library/GD32F30x_standard_peripheral/Source\gd32f30x_timer.c ****     \param[in]  timer_periph: please refer to the following parameters
 463:C:/Users/49542/Desktop/GD32F30x_Demo_Suites_V2.0.0/GD32F30x_Demo_Suites_V2.0.0/GD32F30x_Firmware_Library/GD32F30x_standard_peripheral/Source\gd32f30x_timer.c ****     \param[in]  interrupt: the timer interrupt bits
 464:C:/Users/49542/Desktop/GD32F30x_Demo_Suites_V2.0.0/GD32F30x_Demo_Suites_V2.0.0/GD32F30x_Firmware_Library/GD32F30x_standard_peripheral/Source\gd32f30x_timer.c ****                 only one parameter can be selected which is shown as below:
 465:C:/Users/49542/Desktop/GD32F30x_Demo_Suites_V2.0.0/GD32F30x_Demo_Suites_V2.0.0/GD32F30x_Firmware_Library/GD32F30x_standard_peripheral/Source\gd32f30x_timer.c ****       \arg        TIMER_INT_FLAG_UP: update interrupt flag,TIMERx(x=0..13)
 466:C:/Users/49542/Desktop/GD32F30x_Demo_Suites_V2.0.0/GD32F30x_Demo_Suites_V2.0.0/GD32F30x_Firmware_Library/GD32F30x_standard_peripheral/Source\gd32f30x_timer.c ****       \arg        TIMER_INT_FLAG_CH0: channel 0 interrupt flag,TIMERx(x=0..4,7..13)
 467:C:/Users/49542/Desktop/GD32F30x_Demo_Suites_V2.0.0/GD32F30x_Demo_Suites_V2.0.0/GD32F30x_Firmware_Library/GD32F30x_standard_peripheral/Source\gd32f30x_timer.c ****       \arg        TIMER_INT_FLAG_CH1: channel 1 interrupt flag,TIMERx(x=0..4,7,8,11)
 468:C:/Users/49542/Desktop/GD32F30x_Demo_Suites_V2.0.0/GD32F30x_Demo_Suites_V2.0.0/GD32F30x_Firmware_Library/GD32F30x_standard_peripheral/Source\gd32f30x_timer.c ****       \arg        TIMER_INT_FLAG_CH2: channel 2 interrupt flag,TIMERx(x=0..4,7)
 469:C:/Users/49542/Desktop/GD32F30x_Demo_Suites_V2.0.0/GD32F30x_Demo_Suites_V2.0.0/GD32F30x_Firmware_Library/GD32F30x_standard_peripheral/Source\gd32f30x_timer.c ****       \arg        TIMER_INT_FLAG_CH3: channel 3 interrupt flag,TIMERx(x=0..4,7)
 470:C:/Users/49542/Desktop/GD32F30x_Demo_Suites_V2.0.0/GD32F30x_Demo_Suites_V2.0.0/GD32F30x_Firmware_Library/GD32F30x_standard_peripheral/Source\gd32f30x_timer.c ****       \arg        TIMER_INT_FLAG_CMT: channel commutation interrupt flag,TIMERx(x=0,7) 
 471:C:/Users/49542/Desktop/GD32F30x_Demo_Suites_V2.0.0/GD32F30x_Demo_Suites_V2.0.0/GD32F30x_Firmware_Library/GD32F30x_standard_peripheral/Source\gd32f30x_timer.c ****       \arg        TIMER_INT_FLAG_TRG: trigger interrupt flag,TIMERx(x=0,7,8,11)
 472:C:/Users/49542/Desktop/GD32F30x_Demo_Suites_V2.0.0/GD32F30x_Demo_Suites_V2.0.0/GD32F30x_Firmware_Library/GD32F30x_standard_peripheral/Source\gd32f30x_timer.c ****       \arg        TIMER_INT_FLAG_BRK:  break interrupt flag,TIMERx(x=0,7)
 473:C:/Users/49542/Desktop/GD32F30x_Demo_Suites_V2.0.0/GD32F30x_Demo_Suites_V2.0.0/GD32F30x_Firmware_Library/GD32F30x_standard_peripheral/Source\gd32f30x_timer.c ****     \param[out] none
 474:C:/Users/49542/Desktop/GD32F30x_Demo_Suites_V2.0.0/GD32F30x_Demo_Suites_V2.0.0/GD32F30x_Firmware_Library/GD32F30x_standard_peripheral/Source\gd32f30x_timer.c ****     \retval     FlagStatus: SET or RESET
 475:C:/Users/49542/Desktop/GD32F30x_Demo_Suites_V2.0.0/GD32F30x_Demo_Suites_V2.0.0/GD32F30x_Firmware_Library/GD32F30x_standard_peripheral/Source\gd32f30x_timer.c **** */
 476:C:/Users/49542/Desktop/GD32F30x_Demo_Suites_V2.0.0/GD32F30x_Demo_Suites_V2.0.0/GD32F30x_Firmware_Library/GD32F30x_standard_peripheral/Source\gd32f30x_timer.c **** FlagStatus timer_interrupt_flag_get(uint32_t timer_periph, uint32_t interrupt)
 477:C:/Users/49542/Desktop/GD32F30x_Demo_Suites_V2.0.0/GD32F30x_Demo_Suites_V2.0.0/GD32F30x_Firmware_Library/GD32F30x_standard_peripheral/Source\gd32f30x_timer.c **** {
 938              		.loc 1 477 0
 939              		.cfi_startproc
 940              		@ args = 0, pretend = 0, frame = 0
 941              		@ frame_needed = 0, uses_anonymous_args = 0
 942              		@ link register save eliminated.
 943              	.LVL82:
 478:C:/Users/49542/Desktop/GD32F30x_Demo_Suites_V2.0.0/GD32F30x_Demo_Suites_V2.0.0/GD32F30x_Firmware_Library/GD32F30x_standard_peripheral/Source\gd32f30x_timer.c ****     uint32_t val;
 479:C:/Users/49542/Desktop/GD32F30x_Demo_Suites_V2.0.0/GD32F30x_Demo_Suites_V2.0.0/GD32F30x_Firmware_Library/GD32F30x_standard_peripheral/Source\gd32f30x_timer.c ****     val = (TIMER_DMAINTEN(timer_periph) & interrupt);
 944              		.loc 1 479 0
 945 0000 C368     		ldr	r3, [r0, #12]
 946 0002 0B40     		ands	r3, r3, r1
 947              	.LVL83:
ARM GAS  C:\Users\49542\AppData\Local\Temp\ccEBNRSE.s 			page 26


 480:C:/Users/49542/Desktop/GD32F30x_Demo_Suites_V2.0.0/GD32F30x_Demo_Suites_V2.0.0/GD32F30x_Firmware_Library/GD32F30x_standard_peripheral/Source\gd32f30x_timer.c ****     if((RESET != (TIMER_INTF(timer_periph) & interrupt) ) && (RESET != val)){
 948              		.loc 1 480 0
 949 0004 0269     		ldr	r2, [r0, #16]
 950 0006 0A42     		tst	r2, r1
 951 0008 02D0     		beq	.L64
 952              		.loc 1 480 0 is_stmt 0 discriminator 1
 953 000a 1BB9     		cbnz	r3, .L65
 481:C:/Users/49542/Desktop/GD32F30x_Demo_Suites_V2.0.0/GD32F30x_Demo_Suites_V2.0.0/GD32F30x_Firmware_Library/GD32F30x_standard_peripheral/Source\gd32f30x_timer.c ****         return SET;
 482:C:/Users/49542/Desktop/GD32F30x_Demo_Suites_V2.0.0/GD32F30x_Demo_Suites_V2.0.0/GD32F30x_Firmware_Library/GD32F30x_standard_peripheral/Source\gd32f30x_timer.c ****     }else{
 483:C:/Users/49542/Desktop/GD32F30x_Demo_Suites_V2.0.0/GD32F30x_Demo_Suites_V2.0.0/GD32F30x_Firmware_Library/GD32F30x_standard_peripheral/Source\gd32f30x_timer.c ****         return RESET;
 954              		.loc 1 483 0 is_stmt 1
 955 000c 0020     		movs	r0, #0
 956              	.LVL84:
 957 000e 7047     		bx	lr
 958              	.LVL85:
 959              	.L64:
 960 0010 0020     		movs	r0, #0
 961              	.LVL86:
 962 0012 7047     		bx	lr
 963              	.LVL87:
 964              	.L65:
 481:C:/Users/49542/Desktop/GD32F30x_Demo_Suites_V2.0.0/GD32F30x_Demo_Suites_V2.0.0/GD32F30x_Firmware_Library/GD32F30x_standard_peripheral/Source\gd32f30x_timer.c ****         return SET;
 965              		.loc 1 481 0
 966 0014 0120     		movs	r0, #1
 967              	.LVL88:
 484:C:/Users/49542/Desktop/GD32F30x_Demo_Suites_V2.0.0/GD32F30x_Demo_Suites_V2.0.0/GD32F30x_Firmware_Library/GD32F30x_standard_peripheral/Source\gd32f30x_timer.c ****     }
 485:C:/Users/49542/Desktop/GD32F30x_Demo_Suites_V2.0.0/GD32F30x_Demo_Suites_V2.0.0/GD32F30x_Firmware_Library/GD32F30x_standard_peripheral/Source\gd32f30x_timer.c **** }
 968              		.loc 1 485 0
 969 0016 7047     		bx	lr
 970              		.cfi_endproc
 971              	.LFE138:
 973              		.section	.text.timer_interrupt_flag_clear,"ax",%progbits
 974              		.align	1
 975              		.global	timer_interrupt_flag_clear
 976              		.syntax unified
 977              		.thumb
 978              		.thumb_func
 979              		.fpu fpv4-sp-d16
 981              	timer_interrupt_flag_clear:
 982              	.LFB139:
 486:C:/Users/49542/Desktop/GD32F30x_Demo_Suites_V2.0.0/GD32F30x_Demo_Suites_V2.0.0/GD32F30x_Firmware_Library/GD32F30x_standard_peripheral/Source\gd32f30x_timer.c **** 
 487:C:/Users/49542/Desktop/GD32F30x_Demo_Suites_V2.0.0/GD32F30x_Demo_Suites_V2.0.0/GD32F30x_Firmware_Library/GD32F30x_standard_peripheral/Source\gd32f30x_timer.c **** /*!
 488:C:/Users/49542/Desktop/GD32F30x_Demo_Suites_V2.0.0/GD32F30x_Demo_Suites_V2.0.0/GD32F30x_Firmware_Library/GD32F30x_standard_peripheral/Source\gd32f30x_timer.c ****     \brief      clear TIMER interrupt flag
 489:C:/Users/49542/Desktop/GD32F30x_Demo_Suites_V2.0.0/GD32F30x_Demo_Suites_V2.0.0/GD32F30x_Firmware_Library/GD32F30x_standard_peripheral/Source\gd32f30x_timer.c ****     \param[in]  timer_periph: please refer to the following parameters
 490:C:/Users/49542/Desktop/GD32F30x_Demo_Suites_V2.0.0/GD32F30x_Demo_Suites_V2.0.0/GD32F30x_Firmware_Library/GD32F30x_standard_peripheral/Source\gd32f30x_timer.c ****     \param[in]  interrupt: the timer interrupt bits
 491:C:/Users/49542/Desktop/GD32F30x_Demo_Suites_V2.0.0/GD32F30x_Demo_Suites_V2.0.0/GD32F30x_Firmware_Library/GD32F30x_standard_peripheral/Source\gd32f30x_timer.c ****                 only one parameter can be selected which is shown as below:
 492:C:/Users/49542/Desktop/GD32F30x_Demo_Suites_V2.0.0/GD32F30x_Demo_Suites_V2.0.0/GD32F30x_Firmware_Library/GD32F30x_standard_peripheral/Source\gd32f30x_timer.c ****       \arg        TIMER_INT_FLAG_UP: update interrupt flag,TIMERx(x=0..13)
 493:C:/Users/49542/Desktop/GD32F30x_Demo_Suites_V2.0.0/GD32F30x_Demo_Suites_V2.0.0/GD32F30x_Firmware_Library/GD32F30x_standard_peripheral/Source\gd32f30x_timer.c ****       \arg        TIMER_INT_FLAG_CH0: channel 0 interrupt flag,TIMERx(x=0..4,7..13)
 494:C:/Users/49542/Desktop/GD32F30x_Demo_Suites_V2.0.0/GD32F30x_Demo_Suites_V2.0.0/GD32F30x_Firmware_Library/GD32F30x_standard_peripheral/Source\gd32f30x_timer.c ****       \arg        TIMER_INT_FLAG_CH1: channel 1 interrupt flag,TIMERx(x=0..4,7,8,11)
 495:C:/Users/49542/Desktop/GD32F30x_Demo_Suites_V2.0.0/GD32F30x_Demo_Suites_V2.0.0/GD32F30x_Firmware_Library/GD32F30x_standard_peripheral/Source\gd32f30x_timer.c ****       \arg        TIMER_INT_FLAG_CH2: channel 2 interrupt flag,TIMERx(x=0..4,7)
 496:C:/Users/49542/Desktop/GD32F30x_Demo_Suites_V2.0.0/GD32F30x_Demo_Suites_V2.0.0/GD32F30x_Firmware_Library/GD32F30x_standard_peripheral/Source\gd32f30x_timer.c ****       \arg        TIMER_INT_FLAG_CH3: channel 3 interrupt flag,TIMERx(x=0..4,7)
 497:C:/Users/49542/Desktop/GD32F30x_Demo_Suites_V2.0.0/GD32F30x_Demo_Suites_V2.0.0/GD32F30x_Firmware_Library/GD32F30x_standard_peripheral/Source\gd32f30x_timer.c ****       \arg        TIMER_INT_FLAG_CMT: channel commutation interrupt flag,TIMERx(x=0,7) 
 498:C:/Users/49542/Desktop/GD32F30x_Demo_Suites_V2.0.0/GD32F30x_Demo_Suites_V2.0.0/GD32F30x_Firmware_Library/GD32F30x_standard_peripheral/Source\gd32f30x_timer.c ****       \arg        TIMER_INT_FLAG_TRG: trigger interrupt flag,TIMERx(x=0,7,8,11)
 499:C:/Users/49542/Desktop/GD32F30x_Demo_Suites_V2.0.0/GD32F30x_Demo_Suites_V2.0.0/GD32F30x_Firmware_Library/GD32F30x_standard_peripheral/Source\gd32f30x_timer.c ****       \arg        TIMER_INT_FLAG_BRK:  break interrupt flag,TIMERx(x=0,7)
 500:C:/Users/49542/Desktop/GD32F30x_Demo_Suites_V2.0.0/GD32F30x_Demo_Suites_V2.0.0/GD32F30x_Firmware_Library/GD32F30x_standard_peripheral/Source\gd32f30x_timer.c ****     \param[out] none
 501:C:/Users/49542/Desktop/GD32F30x_Demo_Suites_V2.0.0/GD32F30x_Demo_Suites_V2.0.0/GD32F30x_Firmware_Library/GD32F30x_standard_peripheral/Source\gd32f30x_timer.c ****     \retval     none
 502:C:/Users/49542/Desktop/GD32F30x_Demo_Suites_V2.0.0/GD32F30x_Demo_Suites_V2.0.0/GD32F30x_Firmware_Library/GD32F30x_standard_peripheral/Source\gd32f30x_timer.c **** */
ARM GAS  C:\Users\49542\AppData\Local\Temp\ccEBNRSE.s 			page 27


 503:C:/Users/49542/Desktop/GD32F30x_Demo_Suites_V2.0.0/GD32F30x_Demo_Suites_V2.0.0/GD32F30x_Firmware_Library/GD32F30x_standard_peripheral/Source\gd32f30x_timer.c **** void timer_interrupt_flag_clear(uint32_t timer_periph, uint32_t interrupt)
 504:C:/Users/49542/Desktop/GD32F30x_Demo_Suites_V2.0.0/GD32F30x_Demo_Suites_V2.0.0/GD32F30x_Firmware_Library/GD32F30x_standard_peripheral/Source\gd32f30x_timer.c **** {
 983              		.loc 1 504 0
 984              		.cfi_startproc
 985              		@ args = 0, pretend = 0, frame = 0
 986              		@ frame_needed = 0, uses_anonymous_args = 0
 987              		@ link register save eliminated.
 988              	.LVL89:
 505:C:/Users/49542/Desktop/GD32F30x_Demo_Suites_V2.0.0/GD32F30x_Demo_Suites_V2.0.0/GD32F30x_Firmware_Library/GD32F30x_standard_peripheral/Source\gd32f30x_timer.c ****     TIMER_INTF(timer_periph) &= (~(uint32_t)interrupt);
 989              		.loc 1 505 0
 990 0000 0369     		ldr	r3, [r0, #16]
 991 0002 23EA0101 		bic	r1, r3, r1
 992              	.LVL90:
 993 0006 0161     		str	r1, [r0, #16]
 506:C:/Users/49542/Desktop/GD32F30x_Demo_Suites_V2.0.0/GD32F30x_Demo_Suites_V2.0.0/GD32F30x_Firmware_Library/GD32F30x_standard_peripheral/Source\gd32f30x_timer.c **** }
 994              		.loc 1 506 0
 995 0008 7047     		bx	lr
 996              		.cfi_endproc
 997              	.LFE139:
 999              		.section	.text.timer_flag_get,"ax",%progbits
 1000              		.align	1
 1001              		.global	timer_flag_get
 1002              		.syntax unified
 1003              		.thumb
 1004              		.thumb_func
 1005              		.fpu fpv4-sp-d16
 1007              	timer_flag_get:
 1008              	.LFB140:
 507:C:/Users/49542/Desktop/GD32F30x_Demo_Suites_V2.0.0/GD32F30x_Demo_Suites_V2.0.0/GD32F30x_Firmware_Library/GD32F30x_standard_peripheral/Source\gd32f30x_timer.c **** 
 508:C:/Users/49542/Desktop/GD32F30x_Demo_Suites_V2.0.0/GD32F30x_Demo_Suites_V2.0.0/GD32F30x_Firmware_Library/GD32F30x_standard_peripheral/Source\gd32f30x_timer.c **** /*!
 509:C:/Users/49542/Desktop/GD32F30x_Demo_Suites_V2.0.0/GD32F30x_Demo_Suites_V2.0.0/GD32F30x_Firmware_Library/GD32F30x_standard_peripheral/Source\gd32f30x_timer.c ****     \brief      get TIMER flags
 510:C:/Users/49542/Desktop/GD32F30x_Demo_Suites_V2.0.0/GD32F30x_Demo_Suites_V2.0.0/GD32F30x_Firmware_Library/GD32F30x_standard_peripheral/Source\gd32f30x_timer.c ****     \param[in]  timer_periph: please refer to the following parameters
 511:C:/Users/49542/Desktop/GD32F30x_Demo_Suites_V2.0.0/GD32F30x_Demo_Suites_V2.0.0/GD32F30x_Firmware_Library/GD32F30x_standard_peripheral/Source\gd32f30x_timer.c ****     \param[in]  flag: the timer interrupt flags
 512:C:/Users/49542/Desktop/GD32F30x_Demo_Suites_V2.0.0/GD32F30x_Demo_Suites_V2.0.0/GD32F30x_Firmware_Library/GD32F30x_standard_peripheral/Source\gd32f30x_timer.c ****                 only one parameter can be selected which is shown as below:
 513:C:/Users/49542/Desktop/GD32F30x_Demo_Suites_V2.0.0/GD32F30x_Demo_Suites_V2.0.0/GD32F30x_Firmware_Library/GD32F30x_standard_peripheral/Source\gd32f30x_timer.c ****       \arg        TIMER_FLAG_UP: update flag,TIMERx(x=0..13)
 514:C:/Users/49542/Desktop/GD32F30x_Demo_Suites_V2.0.0/GD32F30x_Demo_Suites_V2.0.0/GD32F30x_Firmware_Library/GD32F30x_standard_peripheral/Source\gd32f30x_timer.c ****       \arg        TIMER_FLAG_CH0: channel 0 flag,TIMERx(x=0..4,7..13)
 515:C:/Users/49542/Desktop/GD32F30x_Demo_Suites_V2.0.0/GD32F30x_Demo_Suites_V2.0.0/GD32F30x_Firmware_Library/GD32F30x_standard_peripheral/Source\gd32f30x_timer.c ****       \arg        TIMER_FLAG_CH1: channel 1 flag,TIMERx(x=0..4,7,8,11)
 516:C:/Users/49542/Desktop/GD32F30x_Demo_Suites_V2.0.0/GD32F30x_Demo_Suites_V2.0.0/GD32F30x_Firmware_Library/GD32F30x_standard_peripheral/Source\gd32f30x_timer.c ****       \arg        TIMER_FLAG_CH2: channel 2 flag,TIMERx(x=0..4,7)
 517:C:/Users/49542/Desktop/GD32F30x_Demo_Suites_V2.0.0/GD32F30x_Demo_Suites_V2.0.0/GD32F30x_Firmware_Library/GD32F30x_standard_peripheral/Source\gd32f30x_timer.c ****       \arg        TIMER_FLAG_CH3: channel 3 flag,TIMERx(x=0..4,7)
 518:C:/Users/49542/Desktop/GD32F30x_Demo_Suites_V2.0.0/GD32F30x_Demo_Suites_V2.0.0/GD32F30x_Firmware_Library/GD32F30x_standard_peripheral/Source\gd32f30x_timer.c ****       \arg        TIMER_FLAG_CMT: channel control update flag,TIMERx(x=0,7) 
 519:C:/Users/49542/Desktop/GD32F30x_Demo_Suites_V2.0.0/GD32F30x_Demo_Suites_V2.0.0/GD32F30x_Firmware_Library/GD32F30x_standard_peripheral/Source\gd32f30x_timer.c ****       \arg        TIMER_FLAG_TRG: trigger flag,TIMERx(x=0,7,8,11) 
 520:C:/Users/49542/Desktop/GD32F30x_Demo_Suites_V2.0.0/GD32F30x_Demo_Suites_V2.0.0/GD32F30x_Firmware_Library/GD32F30x_standard_peripheral/Source\gd32f30x_timer.c ****       \arg        TIMER_FLAG_BRK: break flag,TIMERx(x=0,7)
 521:C:/Users/49542/Desktop/GD32F30x_Demo_Suites_V2.0.0/GD32F30x_Demo_Suites_V2.0.0/GD32F30x_Firmware_Library/GD32F30x_standard_peripheral/Source\gd32f30x_timer.c ****       \arg        TIMER_FLAG_CH0O: channel 0 overcapture flag,TIMERx(x=0..4,7..11)
 522:C:/Users/49542/Desktop/GD32F30x_Demo_Suites_V2.0.0/GD32F30x_Demo_Suites_V2.0.0/GD32F30x_Firmware_Library/GD32F30x_standard_peripheral/Source\gd32f30x_timer.c ****       \arg        TIMER_FLAG_CH1O: channel 1 overcapture flag,TIMERx(x=0..4,7,8,11)
 523:C:/Users/49542/Desktop/GD32F30x_Demo_Suites_V2.0.0/GD32F30x_Demo_Suites_V2.0.0/GD32F30x_Firmware_Library/GD32F30x_standard_peripheral/Source\gd32f30x_timer.c ****       \arg        TIMER_FLAG_CH2O: channel 2 overcapture flag,TIMERx(x=0..4,7)
 524:C:/Users/49542/Desktop/GD32F30x_Demo_Suites_V2.0.0/GD32F30x_Demo_Suites_V2.0.0/GD32F30x_Firmware_Library/GD32F30x_standard_peripheral/Source\gd32f30x_timer.c ****       \arg        TIMER_FLAG_CH3O: channel 3 overcapture flag,TIMERx(x=0..4,7)
 525:C:/Users/49542/Desktop/GD32F30x_Demo_Suites_V2.0.0/GD32F30x_Demo_Suites_V2.0.0/GD32F30x_Firmware_Library/GD32F30x_standard_peripheral/Source\gd32f30x_timer.c ****     \param[out] none
 526:C:/Users/49542/Desktop/GD32F30x_Demo_Suites_V2.0.0/GD32F30x_Demo_Suites_V2.0.0/GD32F30x_Firmware_Library/GD32F30x_standard_peripheral/Source\gd32f30x_timer.c ****     \retval     FlagStatus: SET or RESET
 527:C:/Users/49542/Desktop/GD32F30x_Demo_Suites_V2.0.0/GD32F30x_Demo_Suites_V2.0.0/GD32F30x_Firmware_Library/GD32F30x_standard_peripheral/Source\gd32f30x_timer.c **** */
 528:C:/Users/49542/Desktop/GD32F30x_Demo_Suites_V2.0.0/GD32F30x_Demo_Suites_V2.0.0/GD32F30x_Firmware_Library/GD32F30x_standard_peripheral/Source\gd32f30x_timer.c **** FlagStatus timer_flag_get(uint32_t timer_periph, uint32_t flag)
 529:C:/Users/49542/Desktop/GD32F30x_Demo_Suites_V2.0.0/GD32F30x_Demo_Suites_V2.0.0/GD32F30x_Firmware_Library/GD32F30x_standard_peripheral/Source\gd32f30x_timer.c **** {
 1009              		.loc 1 529 0
 1010              		.cfi_startproc
 1011              		@ args = 0, pretend = 0, frame = 0
 1012              		@ frame_needed = 0, uses_anonymous_args = 0
 1013              		@ link register save eliminated.
 1014              	.LVL91:
ARM GAS  C:\Users\49542\AppData\Local\Temp\ccEBNRSE.s 			page 28


 530:C:/Users/49542/Desktop/GD32F30x_Demo_Suites_V2.0.0/GD32F30x_Demo_Suites_V2.0.0/GD32F30x_Firmware_Library/GD32F30x_standard_peripheral/Source\gd32f30x_timer.c ****     if(RESET != (TIMER_INTF(timer_periph) & flag)){
 1015              		.loc 1 530 0
 1016 0000 0369     		ldr	r3, [r0, #16]
 1017 0002 0B42     		tst	r3, r1
 1018 0004 01D1     		bne	.L70
 531:C:/Users/49542/Desktop/GD32F30x_Demo_Suites_V2.0.0/GD32F30x_Demo_Suites_V2.0.0/GD32F30x_Firmware_Library/GD32F30x_standard_peripheral/Source\gd32f30x_timer.c ****         return SET;
 532:C:/Users/49542/Desktop/GD32F30x_Demo_Suites_V2.0.0/GD32F30x_Demo_Suites_V2.0.0/GD32F30x_Firmware_Library/GD32F30x_standard_peripheral/Source\gd32f30x_timer.c ****     }else{
 533:C:/Users/49542/Desktop/GD32F30x_Demo_Suites_V2.0.0/GD32F30x_Demo_Suites_V2.0.0/GD32F30x_Firmware_Library/GD32F30x_standard_peripheral/Source\gd32f30x_timer.c ****         return RESET;
 1019              		.loc 1 533 0
 1020 0006 0020     		movs	r0, #0
 1021              	.LVL92:
 534:C:/Users/49542/Desktop/GD32F30x_Demo_Suites_V2.0.0/GD32F30x_Demo_Suites_V2.0.0/GD32F30x_Firmware_Library/GD32F30x_standard_peripheral/Source\gd32f30x_timer.c ****     }
 535:C:/Users/49542/Desktop/GD32F30x_Demo_Suites_V2.0.0/GD32F30x_Demo_Suites_V2.0.0/GD32F30x_Firmware_Library/GD32F30x_standard_peripheral/Source\gd32f30x_timer.c **** }
 1022              		.loc 1 535 0
 1023 0008 7047     		bx	lr
 1024              	.LVL93:
 1025              	.L70:
 531:C:/Users/49542/Desktop/GD32F30x_Demo_Suites_V2.0.0/GD32F30x_Demo_Suites_V2.0.0/GD32F30x_Firmware_Library/GD32F30x_standard_peripheral/Source\gd32f30x_timer.c ****         return SET;
 1026              		.loc 1 531 0
 1027 000a 0120     		movs	r0, #1
 1028              	.LVL94:
 1029 000c 7047     		bx	lr
 1030              		.cfi_endproc
 1031              	.LFE140:
 1033              		.section	.text.timer_flag_clear,"ax",%progbits
 1034              		.align	1
 1035              		.global	timer_flag_clear
 1036              		.syntax unified
 1037              		.thumb
 1038              		.thumb_func
 1039              		.fpu fpv4-sp-d16
 1041              	timer_flag_clear:
 1042              	.LFB141:
 536:C:/Users/49542/Desktop/GD32F30x_Demo_Suites_V2.0.0/GD32F30x_Demo_Suites_V2.0.0/GD32F30x_Firmware_Library/GD32F30x_standard_peripheral/Source\gd32f30x_timer.c **** 
 537:C:/Users/49542/Desktop/GD32F30x_Demo_Suites_V2.0.0/GD32F30x_Demo_Suites_V2.0.0/GD32F30x_Firmware_Library/GD32F30x_standard_peripheral/Source\gd32f30x_timer.c **** /*!
 538:C:/Users/49542/Desktop/GD32F30x_Demo_Suites_V2.0.0/GD32F30x_Demo_Suites_V2.0.0/GD32F30x_Firmware_Library/GD32F30x_standard_peripheral/Source\gd32f30x_timer.c ****     \brief      clear TIMER flags
 539:C:/Users/49542/Desktop/GD32F30x_Demo_Suites_V2.0.0/GD32F30x_Demo_Suites_V2.0.0/GD32F30x_Firmware_Library/GD32F30x_standard_peripheral/Source\gd32f30x_timer.c ****     \param[in]  timer_periph: please refer to the following parameters
 540:C:/Users/49542/Desktop/GD32F30x_Demo_Suites_V2.0.0/GD32F30x_Demo_Suites_V2.0.0/GD32F30x_Firmware_Library/GD32F30x_standard_peripheral/Source\gd32f30x_timer.c ****     \param[in]  flag: the timer interrupt flags
 541:C:/Users/49542/Desktop/GD32F30x_Demo_Suites_V2.0.0/GD32F30x_Demo_Suites_V2.0.0/GD32F30x_Firmware_Library/GD32F30x_standard_peripheral/Source\gd32f30x_timer.c ****                 only one parameter can be selected which is shown as below:
 542:C:/Users/49542/Desktop/GD32F30x_Demo_Suites_V2.0.0/GD32F30x_Demo_Suites_V2.0.0/GD32F30x_Firmware_Library/GD32F30x_standard_peripheral/Source\gd32f30x_timer.c ****       \arg        TIMER_FLAG_UP: update flag,TIMERx(x=0..13)
 543:C:/Users/49542/Desktop/GD32F30x_Demo_Suites_V2.0.0/GD32F30x_Demo_Suites_V2.0.0/GD32F30x_Firmware_Library/GD32F30x_standard_peripheral/Source\gd32f30x_timer.c ****       \arg        TIMER_FLAG_CH0: channel 0 flag,TIMERx(x=0..4,7..13)
 544:C:/Users/49542/Desktop/GD32F30x_Demo_Suites_V2.0.0/GD32F30x_Demo_Suites_V2.0.0/GD32F30x_Firmware_Library/GD32F30x_standard_peripheral/Source\gd32f30x_timer.c ****       \arg        TIMER_FLAG_CH1: channel 1 flag,TIMERx(x=0..4,7,8,11)
 545:C:/Users/49542/Desktop/GD32F30x_Demo_Suites_V2.0.0/GD32F30x_Demo_Suites_V2.0.0/GD32F30x_Firmware_Library/GD32F30x_standard_peripheral/Source\gd32f30x_timer.c ****       \arg        TIMER_FLAG_CH2: channel 2 flag,TIMERx(x=0..4,7)
 546:C:/Users/49542/Desktop/GD32F30x_Demo_Suites_V2.0.0/GD32F30x_Demo_Suites_V2.0.0/GD32F30x_Firmware_Library/GD32F30x_standard_peripheral/Source\gd32f30x_timer.c ****       \arg        TIMER_FLAG_CH3: channel 3 flag,TIMERx(x=0..4,7)
 547:C:/Users/49542/Desktop/GD32F30x_Demo_Suites_V2.0.0/GD32F30x_Demo_Suites_V2.0.0/GD32F30x_Firmware_Library/GD32F30x_standard_peripheral/Source\gd32f30x_timer.c ****       \arg        TIMER_FLAG_CMT: channel control update flag,TIMERx(x=0,7) 
 548:C:/Users/49542/Desktop/GD32F30x_Demo_Suites_V2.0.0/GD32F30x_Demo_Suites_V2.0.0/GD32F30x_Firmware_Library/GD32F30x_standard_peripheral/Source\gd32f30x_timer.c ****       \arg        TIMER_FLAG_TRG: trigger flag,TIMERx(x=0,7,8,11) 
 549:C:/Users/49542/Desktop/GD32F30x_Demo_Suites_V2.0.0/GD32F30x_Demo_Suites_V2.0.0/GD32F30x_Firmware_Library/GD32F30x_standard_peripheral/Source\gd32f30x_timer.c ****       \arg        TIMER_FLAG_BRK: break flag,TIMERx(x=0,7)
 550:C:/Users/49542/Desktop/GD32F30x_Demo_Suites_V2.0.0/GD32F30x_Demo_Suites_V2.0.0/GD32F30x_Firmware_Library/GD32F30x_standard_peripheral/Source\gd32f30x_timer.c ****       \arg        TIMER_FLAG_CH0O: channel 0 overcapture flag,TIMERx(x=0..4,7..11)
 551:C:/Users/49542/Desktop/GD32F30x_Demo_Suites_V2.0.0/GD32F30x_Demo_Suites_V2.0.0/GD32F30x_Firmware_Library/GD32F30x_standard_peripheral/Source\gd32f30x_timer.c ****       \arg        TIMER_FLAG_CH1O: channel 1 overcapture flag,TIMERx(x=0..4,7,8,11)
 552:C:/Users/49542/Desktop/GD32F30x_Demo_Suites_V2.0.0/GD32F30x_Demo_Suites_V2.0.0/GD32F30x_Firmware_Library/GD32F30x_standard_peripheral/Source\gd32f30x_timer.c ****       \arg        TIMER_FLAG_CH2O: channel 2 overcapture flag,TIMERx(x=0..4,7)
 553:C:/Users/49542/Desktop/GD32F30x_Demo_Suites_V2.0.0/GD32F30x_Demo_Suites_V2.0.0/GD32F30x_Firmware_Library/GD32F30x_standard_peripheral/Source\gd32f30x_timer.c ****       \arg        TIMER_FLAG_CH3O: channel 3 overcapture flag,TIMERx(x=0..4,7)
 554:C:/Users/49542/Desktop/GD32F30x_Demo_Suites_V2.0.0/GD32F30x_Demo_Suites_V2.0.0/GD32F30x_Firmware_Library/GD32F30x_standard_peripheral/Source\gd32f30x_timer.c ****     \param[out] none
 555:C:/Users/49542/Desktop/GD32F30x_Demo_Suites_V2.0.0/GD32F30x_Demo_Suites_V2.0.0/GD32F30x_Firmware_Library/GD32F30x_standard_peripheral/Source\gd32f30x_timer.c ****     \retval     none
 556:C:/Users/49542/Desktop/GD32F30x_Demo_Suites_V2.0.0/GD32F30x_Demo_Suites_V2.0.0/GD32F30x_Firmware_Library/GD32F30x_standard_peripheral/Source\gd32f30x_timer.c **** */
 557:C:/Users/49542/Desktop/GD32F30x_Demo_Suites_V2.0.0/GD32F30x_Demo_Suites_V2.0.0/GD32F30x_Firmware_Library/GD32F30x_standard_peripheral/Source\gd32f30x_timer.c **** void timer_flag_clear(uint32_t timer_periph, uint32_t flag)
 558:C:/Users/49542/Desktop/GD32F30x_Demo_Suites_V2.0.0/GD32F30x_Demo_Suites_V2.0.0/GD32F30x_Firmware_Library/GD32F30x_standard_peripheral/Source\gd32f30x_timer.c **** {
 1043              		.loc 1 558 0
ARM GAS  C:\Users\49542\AppData\Local\Temp\ccEBNRSE.s 			page 29


 1044              		.cfi_startproc
 1045              		@ args = 0, pretend = 0, frame = 0
 1046              		@ frame_needed = 0, uses_anonymous_args = 0
 1047              		@ link register save eliminated.
 1048              	.LVL95:
 559:C:/Users/49542/Desktop/GD32F30x_Demo_Suites_V2.0.0/GD32F30x_Demo_Suites_V2.0.0/GD32F30x_Firmware_Library/GD32F30x_standard_peripheral/Source\gd32f30x_timer.c ****     TIMER_INTF(timer_periph) &= (~(uint32_t)flag);
 1049              		.loc 1 559 0
 1050 0000 0369     		ldr	r3, [r0, #16]
 1051 0002 23EA0101 		bic	r1, r3, r1
 1052              	.LVL96:
 1053 0006 0161     		str	r1, [r0, #16]
 560:C:/Users/49542/Desktop/GD32F30x_Demo_Suites_V2.0.0/GD32F30x_Demo_Suites_V2.0.0/GD32F30x_Firmware_Library/GD32F30x_standard_peripheral/Source\gd32f30x_timer.c **** }
 1054              		.loc 1 560 0
 1055 0008 7047     		bx	lr
 1056              		.cfi_endproc
 1057              	.LFE141:
 1059              		.section	.text.timer_dma_enable,"ax",%progbits
 1060              		.align	1
 1061              		.global	timer_dma_enable
 1062              		.syntax unified
 1063              		.thumb
 1064              		.thumb_func
 1065              		.fpu fpv4-sp-d16
 1067              	timer_dma_enable:
 1068              	.LFB142:
 561:C:/Users/49542/Desktop/GD32F30x_Demo_Suites_V2.0.0/GD32F30x_Demo_Suites_V2.0.0/GD32F30x_Firmware_Library/GD32F30x_standard_peripheral/Source\gd32f30x_timer.c **** 
 562:C:/Users/49542/Desktop/GD32F30x_Demo_Suites_V2.0.0/GD32F30x_Demo_Suites_V2.0.0/GD32F30x_Firmware_Library/GD32F30x_standard_peripheral/Source\gd32f30x_timer.c **** /*!
 563:C:/Users/49542/Desktop/GD32F30x_Demo_Suites_V2.0.0/GD32F30x_Demo_Suites_V2.0.0/GD32F30x_Firmware_Library/GD32F30x_standard_peripheral/Source\gd32f30x_timer.c ****     \brief      enable the TIMER DMA
 564:C:/Users/49542/Desktop/GD32F30x_Demo_Suites_V2.0.0/GD32F30x_Demo_Suites_V2.0.0/GD32F30x_Firmware_Library/GD32F30x_standard_peripheral/Source\gd32f30x_timer.c ****     \param[in]  timer_periph: please refer to the following parameters
 565:C:/Users/49542/Desktop/GD32F30x_Demo_Suites_V2.0.0/GD32F30x_Demo_Suites_V2.0.0/GD32F30x_Firmware_Library/GD32F30x_standard_peripheral/Source\gd32f30x_timer.c ****     \param[in]  dma: specify which DMA to enable
 566:C:/Users/49542/Desktop/GD32F30x_Demo_Suites_V2.0.0/GD32F30x_Demo_Suites_V2.0.0/GD32F30x_Firmware_Library/GD32F30x_standard_peripheral/Source\gd32f30x_timer.c ****                 only one parameter can be selected which is shown as below:
 567:C:/Users/49542/Desktop/GD32F30x_Demo_Suites_V2.0.0/GD32F30x_Demo_Suites_V2.0.0/GD32F30x_Firmware_Library/GD32F30x_standard_peripheral/Source\gd32f30x_timer.c ****       \arg        TIMER_DMA_UPD:  update DMA enable,TIMERx(x=0..7)
 568:C:/Users/49542/Desktop/GD32F30x_Demo_Suites_V2.0.0/GD32F30x_Demo_Suites_V2.0.0/GD32F30x_Firmware_Library/GD32F30x_standard_peripheral/Source\gd32f30x_timer.c ****       \arg        TIMER_DMA_CH0D: channel 0 DMA enable,TIMERx(x=0..4,7)
 569:C:/Users/49542/Desktop/GD32F30x_Demo_Suites_V2.0.0/GD32F30x_Demo_Suites_V2.0.0/GD32F30x_Firmware_Library/GD32F30x_standard_peripheral/Source\gd32f30x_timer.c ****       \arg        TIMER_DMA_CH1D: channel 1 DMA enable,TIMERx(x=0..4,7)
 570:C:/Users/49542/Desktop/GD32F30x_Demo_Suites_V2.0.0/GD32F30x_Demo_Suites_V2.0.0/GD32F30x_Firmware_Library/GD32F30x_standard_peripheral/Source\gd32f30x_timer.c ****       \arg        TIMER_DMA_CH2D: channel 2 DMA enable,TIMERx(x=0..4,7)
 571:C:/Users/49542/Desktop/GD32F30x_Demo_Suites_V2.0.0/GD32F30x_Demo_Suites_V2.0.0/GD32F30x_Firmware_Library/GD32F30x_standard_peripheral/Source\gd32f30x_timer.c ****       \arg        TIMER_DMA_CH3D: channel 3 DMA enable,TIMERx(x=0..4,7)
 572:C:/Users/49542/Desktop/GD32F30x_Demo_Suites_V2.0.0/GD32F30x_Demo_Suites_V2.0.0/GD32F30x_Firmware_Library/GD32F30x_standard_peripheral/Source\gd32f30x_timer.c ****       \arg        TIMER_DMA_CMTD: commutation DMA request enable,TIMERx(x=0,7)
 573:C:/Users/49542/Desktop/GD32F30x_Demo_Suites_V2.0.0/GD32F30x_Demo_Suites_V2.0.0/GD32F30x_Firmware_Library/GD32F30x_standard_peripheral/Source\gd32f30x_timer.c ****       \arg        TIMER_DMA_TRGD: trigger DMA enable,TIMERx(x=0..4,7)
 574:C:/Users/49542/Desktop/GD32F30x_Demo_Suites_V2.0.0/GD32F30x_Demo_Suites_V2.0.0/GD32F30x_Firmware_Library/GD32F30x_standard_peripheral/Source\gd32f30x_timer.c ****     \param[out] none
 575:C:/Users/49542/Desktop/GD32F30x_Demo_Suites_V2.0.0/GD32F30x_Demo_Suites_V2.0.0/GD32F30x_Firmware_Library/GD32F30x_standard_peripheral/Source\gd32f30x_timer.c ****     \retval     none
 576:C:/Users/49542/Desktop/GD32F30x_Demo_Suites_V2.0.0/GD32F30x_Demo_Suites_V2.0.0/GD32F30x_Firmware_Library/GD32F30x_standard_peripheral/Source\gd32f30x_timer.c **** */
 577:C:/Users/49542/Desktop/GD32F30x_Demo_Suites_V2.0.0/GD32F30x_Demo_Suites_V2.0.0/GD32F30x_Firmware_Library/GD32F30x_standard_peripheral/Source\gd32f30x_timer.c **** void timer_dma_enable(uint32_t timer_periph, uint16_t dma)
 578:C:/Users/49542/Desktop/GD32F30x_Demo_Suites_V2.0.0/GD32F30x_Demo_Suites_V2.0.0/GD32F30x_Firmware_Library/GD32F30x_standard_peripheral/Source\gd32f30x_timer.c **** {
 1069              		.loc 1 578 0
 1070              		.cfi_startproc
 1071              		@ args = 0, pretend = 0, frame = 0
 1072              		@ frame_needed = 0, uses_anonymous_args = 0
 1073              		@ link register save eliminated.
 1074              	.LVL97:
 579:C:/Users/49542/Desktop/GD32F30x_Demo_Suites_V2.0.0/GD32F30x_Demo_Suites_V2.0.0/GD32F30x_Firmware_Library/GD32F30x_standard_peripheral/Source\gd32f30x_timer.c ****     TIMER_DMAINTEN(timer_periph) |= (uint32_t) dma; 
 1075              		.loc 1 579 0
 1076 0000 C368     		ldr	r3, [r0, #12]
 1077 0002 1943     		orrs	r1, r1, r3
 1078              	.LVL98:
 1079 0004 C160     		str	r1, [r0, #12]
 580:C:/Users/49542/Desktop/GD32F30x_Demo_Suites_V2.0.0/GD32F30x_Demo_Suites_V2.0.0/GD32F30x_Firmware_Library/GD32F30x_standard_peripheral/Source\gd32f30x_timer.c **** }
 1080              		.loc 1 580 0
ARM GAS  C:\Users\49542\AppData\Local\Temp\ccEBNRSE.s 			page 30


 1081 0006 7047     		bx	lr
 1082              		.cfi_endproc
 1083              	.LFE142:
 1085              		.section	.text.timer_dma_disable,"ax",%progbits
 1086              		.align	1
 1087              		.global	timer_dma_disable
 1088              		.syntax unified
 1089              		.thumb
 1090              		.thumb_func
 1091              		.fpu fpv4-sp-d16
 1093              	timer_dma_disable:
 1094              	.LFB143:
 581:C:/Users/49542/Desktop/GD32F30x_Demo_Suites_V2.0.0/GD32F30x_Demo_Suites_V2.0.0/GD32F30x_Firmware_Library/GD32F30x_standard_peripheral/Source\gd32f30x_timer.c **** 
 582:C:/Users/49542/Desktop/GD32F30x_Demo_Suites_V2.0.0/GD32F30x_Demo_Suites_V2.0.0/GD32F30x_Firmware_Library/GD32F30x_standard_peripheral/Source\gd32f30x_timer.c **** /*!
 583:C:/Users/49542/Desktop/GD32F30x_Demo_Suites_V2.0.0/GD32F30x_Demo_Suites_V2.0.0/GD32F30x_Firmware_Library/GD32F30x_standard_peripheral/Source\gd32f30x_timer.c ****     \brief      disable the TIMER DMA
 584:C:/Users/49542/Desktop/GD32F30x_Demo_Suites_V2.0.0/GD32F30x_Demo_Suites_V2.0.0/GD32F30x_Firmware_Library/GD32F30x_standard_peripheral/Source\gd32f30x_timer.c ****     \param[in]  timer_periph: please refer to the following parameters
 585:C:/Users/49542/Desktop/GD32F30x_Demo_Suites_V2.0.0/GD32F30x_Demo_Suites_V2.0.0/GD32F30x_Firmware_Library/GD32F30x_standard_peripheral/Source\gd32f30x_timer.c ****     \param[in]  dma: specify which DMA to enable
 586:C:/Users/49542/Desktop/GD32F30x_Demo_Suites_V2.0.0/GD32F30x_Demo_Suites_V2.0.0/GD32F30x_Firmware_Library/GD32F30x_standard_peripheral/Source\gd32f30x_timer.c ****                 one or more parameters can be selected which are shown as below:
 587:C:/Users/49542/Desktop/GD32F30x_Demo_Suites_V2.0.0/GD32F30x_Demo_Suites_V2.0.0/GD32F30x_Firmware_Library/GD32F30x_standard_peripheral/Source\gd32f30x_timer.c ****       \arg        TIMER_DMA_UPD:  update DMA ,TIMERx(x=0..7)
 588:C:/Users/49542/Desktop/GD32F30x_Demo_Suites_V2.0.0/GD32F30x_Demo_Suites_V2.0.0/GD32F30x_Firmware_Library/GD32F30x_standard_peripheral/Source\gd32f30x_timer.c ****       \arg        TIMER_DMA_CH0D: channel 0 DMA request,TIMERx(x=0..4,7)
 589:C:/Users/49542/Desktop/GD32F30x_Demo_Suites_V2.0.0/GD32F30x_Demo_Suites_V2.0.0/GD32F30x_Firmware_Library/GD32F30x_standard_peripheral/Source\gd32f30x_timer.c ****       \arg        TIMER_DMA_CH1D: channel 1 DMA request,TIMERx(x=0..4,7)
 590:C:/Users/49542/Desktop/GD32F30x_Demo_Suites_V2.0.0/GD32F30x_Demo_Suites_V2.0.0/GD32F30x_Firmware_Library/GD32F30x_standard_peripheral/Source\gd32f30x_timer.c ****       \arg        TIMER_DMA_CH2D: channel 2 DMA request,TIMERx(x=0..4,7)
 591:C:/Users/49542/Desktop/GD32F30x_Demo_Suites_V2.0.0/GD32F30x_Demo_Suites_V2.0.0/GD32F30x_Firmware_Library/GD32F30x_standard_peripheral/Source\gd32f30x_timer.c ****       \arg        TIMER_DMA_CH3D: channel 3 DMA request,TIMERx(x=0..4,7)
 592:C:/Users/49542/Desktop/GD32F30x_Demo_Suites_V2.0.0/GD32F30x_Demo_Suites_V2.0.0/GD32F30x_Firmware_Library/GD32F30x_standard_peripheral/Source\gd32f30x_timer.c ****       \arg        TIMER_DMA_CMTD: commutation DMA request ,TIMERx(x=0,7)
 593:C:/Users/49542/Desktop/GD32F30x_Demo_Suites_V2.0.0/GD32F30x_Demo_Suites_V2.0.0/GD32F30x_Firmware_Library/GD32F30x_standard_peripheral/Source\gd32f30x_timer.c ****       \arg        TIMER_DMA_TRGD: trigger DMA request,TIMERx(x=0..4,7)
 594:C:/Users/49542/Desktop/GD32F30x_Demo_Suites_V2.0.0/GD32F30x_Demo_Suites_V2.0.0/GD32F30x_Firmware_Library/GD32F30x_standard_peripheral/Source\gd32f30x_timer.c ****     \param[out] none
 595:C:/Users/49542/Desktop/GD32F30x_Demo_Suites_V2.0.0/GD32F30x_Demo_Suites_V2.0.0/GD32F30x_Firmware_Library/GD32F30x_standard_peripheral/Source\gd32f30x_timer.c ****     \retval     none
 596:C:/Users/49542/Desktop/GD32F30x_Demo_Suites_V2.0.0/GD32F30x_Demo_Suites_V2.0.0/GD32F30x_Firmware_Library/GD32F30x_standard_peripheral/Source\gd32f30x_timer.c **** */
 597:C:/Users/49542/Desktop/GD32F30x_Demo_Suites_V2.0.0/GD32F30x_Demo_Suites_V2.0.0/GD32F30x_Firmware_Library/GD32F30x_standard_peripheral/Source\gd32f30x_timer.c **** void timer_dma_disable(uint32_t timer_periph, uint16_t dma)
 598:C:/Users/49542/Desktop/GD32F30x_Demo_Suites_V2.0.0/GD32F30x_Demo_Suites_V2.0.0/GD32F30x_Firmware_Library/GD32F30x_standard_peripheral/Source\gd32f30x_timer.c **** {
 1095              		.loc 1 598 0
 1096              		.cfi_startproc
 1097              		@ args = 0, pretend = 0, frame = 0
 1098              		@ frame_needed = 0, uses_anonymous_args = 0
 1099              		@ link register save eliminated.
 1100              	.LVL99:
 599:C:/Users/49542/Desktop/GD32F30x_Demo_Suites_V2.0.0/GD32F30x_Demo_Suites_V2.0.0/GD32F30x_Firmware_Library/GD32F30x_standard_peripheral/Source\gd32f30x_timer.c ****     TIMER_DMAINTEN(timer_periph) &= (~(uint32_t)(dma)); 
 1101              		.loc 1 599 0
 1102 0000 C368     		ldr	r3, [r0, #12]
 1103 0002 23EA0101 		bic	r1, r3, r1
 1104              	.LVL100:
 1105 0006 C160     		str	r1, [r0, #12]
 600:C:/Users/49542/Desktop/GD32F30x_Demo_Suites_V2.0.0/GD32F30x_Demo_Suites_V2.0.0/GD32F30x_Firmware_Library/GD32F30x_standard_peripheral/Source\gd32f30x_timer.c **** }
 1106              		.loc 1 600 0
 1107 0008 7047     		bx	lr
 1108              		.cfi_endproc
 1109              	.LFE143:
 1111              		.section	.text.timer_channel_dma_request_source_select,"ax",%progbits
 1112              		.align	1
 1113              		.global	timer_channel_dma_request_source_select
 1114              		.syntax unified
 1115              		.thumb
 1116              		.thumb_func
 1117              		.fpu fpv4-sp-d16
 1119              	timer_channel_dma_request_source_select:
 1120              	.LFB144:
 601:C:/Users/49542/Desktop/GD32F30x_Demo_Suites_V2.0.0/GD32F30x_Demo_Suites_V2.0.0/GD32F30x_Firmware_Library/GD32F30x_standard_peripheral/Source\gd32f30x_timer.c **** 
ARM GAS  C:\Users\49542\AppData\Local\Temp\ccEBNRSE.s 			page 31


 602:C:/Users/49542/Desktop/GD32F30x_Demo_Suites_V2.0.0/GD32F30x_Demo_Suites_V2.0.0/GD32F30x_Firmware_Library/GD32F30x_standard_peripheral/Source\gd32f30x_timer.c **** /*!
 603:C:/Users/49542/Desktop/GD32F30x_Demo_Suites_V2.0.0/GD32F30x_Demo_Suites_V2.0.0/GD32F30x_Firmware_Library/GD32F30x_standard_peripheral/Source\gd32f30x_timer.c ****     \brief      channel DMA request source selection
 604:C:/Users/49542/Desktop/GD32F30x_Demo_Suites_V2.0.0/GD32F30x_Demo_Suites_V2.0.0/GD32F30x_Firmware_Library/GD32F30x_standard_peripheral/Source\gd32f30x_timer.c ****     \param[in]  timer_periph: TIMERx(x=0..4,7)
 605:C:/Users/49542/Desktop/GD32F30x_Demo_Suites_V2.0.0/GD32F30x_Demo_Suites_V2.0.0/GD32F30x_Firmware_Library/GD32F30x_standard_peripheral/Source\gd32f30x_timer.c ****     \param[in]  dma_request: channel DMA request source selection
 606:C:/Users/49542/Desktop/GD32F30x_Demo_Suites_V2.0.0/GD32F30x_Demo_Suites_V2.0.0/GD32F30x_Firmware_Library/GD32F30x_standard_peripheral/Source\gd32f30x_timer.c ****                 only one parameter can be selected which is shown as below:
 607:C:/Users/49542/Desktop/GD32F30x_Demo_Suites_V2.0.0/GD32F30x_Demo_Suites_V2.0.0/GD32F30x_Firmware_Library/GD32F30x_standard_peripheral/Source\gd32f30x_timer.c ****        \arg        TIMER_DMAREQUEST_CHANNELEVENT: DMA request of channel y is sent when channel y e
 608:C:/Users/49542/Desktop/GD32F30x_Demo_Suites_V2.0.0/GD32F30x_Demo_Suites_V2.0.0/GD32F30x_Firmware_Library/GD32F30x_standard_peripheral/Source\gd32f30x_timer.c ****        \arg        TIMER_DMAREQUEST_UPDATEEVENT: DMA request of channel y is sent when update event
 609:C:/Users/49542/Desktop/GD32F30x_Demo_Suites_V2.0.0/GD32F30x_Demo_Suites_V2.0.0/GD32F30x_Firmware_Library/GD32F30x_standard_peripheral/Source\gd32f30x_timer.c ****     \param[out] none
 610:C:/Users/49542/Desktop/GD32F30x_Demo_Suites_V2.0.0/GD32F30x_Demo_Suites_V2.0.0/GD32F30x_Firmware_Library/GD32F30x_standard_peripheral/Source\gd32f30x_timer.c ****     \retval     none
 611:C:/Users/49542/Desktop/GD32F30x_Demo_Suites_V2.0.0/GD32F30x_Demo_Suites_V2.0.0/GD32F30x_Firmware_Library/GD32F30x_standard_peripheral/Source\gd32f30x_timer.c **** */
 612:C:/Users/49542/Desktop/GD32F30x_Demo_Suites_V2.0.0/GD32F30x_Demo_Suites_V2.0.0/GD32F30x_Firmware_Library/GD32F30x_standard_peripheral/Source\gd32f30x_timer.c **** void timer_channel_dma_request_source_select(uint32_t timer_periph, uint8_t dma_request)
 613:C:/Users/49542/Desktop/GD32F30x_Demo_Suites_V2.0.0/GD32F30x_Demo_Suites_V2.0.0/GD32F30x_Firmware_Library/GD32F30x_standard_peripheral/Source\gd32f30x_timer.c **** {
 1121              		.loc 1 613 0
 1122              		.cfi_startproc
 1123              		@ args = 0, pretend = 0, frame = 0
 1124              		@ frame_needed = 0, uses_anonymous_args = 0
 1125              		@ link register save eliminated.
 1126              	.LVL101:
 614:C:/Users/49542/Desktop/GD32F30x_Demo_Suites_V2.0.0/GD32F30x_Demo_Suites_V2.0.0/GD32F30x_Firmware_Library/GD32F30x_standard_peripheral/Source\gd32f30x_timer.c ****     if(TIMER_DMAREQUEST_UPDATEEVENT == dma_request){
 1127              		.loc 1 614 0
 1128 0000 11B1     		cbz	r1, .L77
 615:C:/Users/49542/Desktop/GD32F30x_Demo_Suites_V2.0.0/GD32F30x_Demo_Suites_V2.0.0/GD32F30x_Firmware_Library/GD32F30x_standard_peripheral/Source\gd32f30x_timer.c ****         TIMER_CTL1(timer_periph) |= (uint32_t)TIMER_CTL1_DMAS;
 616:C:/Users/49542/Desktop/GD32F30x_Demo_Suites_V2.0.0/GD32F30x_Demo_Suites_V2.0.0/GD32F30x_Firmware_Library/GD32F30x_standard_peripheral/Source\gd32f30x_timer.c ****     }else if(TIMER_DMAREQUEST_CHANNELEVENT == dma_request){
 1129              		.loc 1 616 0
 1130 0002 0129     		cmp	r1, #1
 1131 0004 05D0     		beq	.L78
 1132              	.L74:
 617:C:/Users/49542/Desktop/GD32F30x_Demo_Suites_V2.0.0/GD32F30x_Demo_Suites_V2.0.0/GD32F30x_Firmware_Library/GD32F30x_standard_peripheral/Source\gd32f30x_timer.c ****         TIMER_CTL1(timer_periph) &= ~(uint32_t)TIMER_CTL1_DMAS;
 618:C:/Users/49542/Desktop/GD32F30x_Demo_Suites_V2.0.0/GD32F30x_Demo_Suites_V2.0.0/GD32F30x_Firmware_Library/GD32F30x_standard_peripheral/Source\gd32f30x_timer.c ****     }else{
 619:C:/Users/49542/Desktop/GD32F30x_Demo_Suites_V2.0.0/GD32F30x_Demo_Suites_V2.0.0/GD32F30x_Firmware_Library/GD32F30x_standard_peripheral/Source\gd32f30x_timer.c ****         /* illegal parameters */
 620:C:/Users/49542/Desktop/GD32F30x_Demo_Suites_V2.0.0/GD32F30x_Demo_Suites_V2.0.0/GD32F30x_Firmware_Library/GD32F30x_standard_peripheral/Source\gd32f30x_timer.c ****     }
 621:C:/Users/49542/Desktop/GD32F30x_Demo_Suites_V2.0.0/GD32F30x_Demo_Suites_V2.0.0/GD32F30x_Firmware_Library/GD32F30x_standard_peripheral/Source\gd32f30x_timer.c **** }
 1133              		.loc 1 621 0
 1134 0006 7047     		bx	lr
 1135              	.L77:
 615:C:/Users/49542/Desktop/GD32F30x_Demo_Suites_V2.0.0/GD32F30x_Demo_Suites_V2.0.0/GD32F30x_Firmware_Library/GD32F30x_standard_peripheral/Source\gd32f30x_timer.c ****         TIMER_CTL1(timer_periph) |= (uint32_t)TIMER_CTL1_DMAS;
 1136              		.loc 1 615 0
 1137 0008 4368     		ldr	r3, [r0, #4]
 1138 000a 43F00803 		orr	r3, r3, #8
 1139 000e 4360     		str	r3, [r0, #4]
 1140 0010 7047     		bx	lr
 1141              	.L78:
 617:C:/Users/49542/Desktop/GD32F30x_Demo_Suites_V2.0.0/GD32F30x_Demo_Suites_V2.0.0/GD32F30x_Firmware_Library/GD32F30x_standard_peripheral/Source\gd32f30x_timer.c ****         TIMER_CTL1(timer_periph) &= ~(uint32_t)TIMER_CTL1_DMAS;
 1142              		.loc 1 617 0
 1143 0012 4368     		ldr	r3, [r0, #4]
 1144 0014 23F00803 		bic	r3, r3, #8
 1145 0018 4360     		str	r3, [r0, #4]
 1146              		.loc 1 621 0
 1147 001a F4E7     		b	.L74
 1148              		.cfi_endproc
 1149              	.LFE144:
 1151              		.section	.text.timer_dma_transfer_config,"ax",%progbits
 1152              		.align	1
 1153              		.global	timer_dma_transfer_config
 1154              		.syntax unified
 1155              		.thumb
 1156              		.thumb_func
ARM GAS  C:\Users\49542\AppData\Local\Temp\ccEBNRSE.s 			page 32


 1157              		.fpu fpv4-sp-d16
 1159              	timer_dma_transfer_config:
 1160              	.LFB145:
 622:C:/Users/49542/Desktop/GD32F30x_Demo_Suites_V2.0.0/GD32F30x_Demo_Suites_V2.0.0/GD32F30x_Firmware_Library/GD32F30x_standard_peripheral/Source\gd32f30x_timer.c **** 
 623:C:/Users/49542/Desktop/GD32F30x_Demo_Suites_V2.0.0/GD32F30x_Demo_Suites_V2.0.0/GD32F30x_Firmware_Library/GD32F30x_standard_peripheral/Source\gd32f30x_timer.c **** /*!
 624:C:/Users/49542/Desktop/GD32F30x_Demo_Suites_V2.0.0/GD32F30x_Demo_Suites_V2.0.0/GD32F30x_Firmware_Library/GD32F30x_standard_peripheral/Source\gd32f30x_timer.c ****     \brief      configure the TIMER DMA transfer
 625:C:/Users/49542/Desktop/GD32F30x_Demo_Suites_V2.0.0/GD32F30x_Demo_Suites_V2.0.0/GD32F30x_Firmware_Library/GD32F30x_standard_peripheral/Source\gd32f30x_timer.c ****     \param[in]  timer_periph: please refer to the following parameters
 626:C:/Users/49542/Desktop/GD32F30x_Demo_Suites_V2.0.0/GD32F30x_Demo_Suites_V2.0.0/GD32F30x_Firmware_Library/GD32F30x_standard_peripheral/Source\gd32f30x_timer.c ****     \param[in]  dma_baseaddr:
 627:C:/Users/49542/Desktop/GD32F30x_Demo_Suites_V2.0.0/GD32F30x_Demo_Suites_V2.0.0/GD32F30x_Firmware_Library/GD32F30x_standard_peripheral/Source\gd32f30x_timer.c ****                 only one parameter can be selected which is shown as below:
 628:C:/Users/49542/Desktop/GD32F30x_Demo_Suites_V2.0.0/GD32F30x_Demo_Suites_V2.0.0/GD32F30x_Firmware_Library/GD32F30x_standard_peripheral/Source\gd32f30x_timer.c ****        \arg        TIMER_DMACFG_DMATA_CTL0: DMA transfer address is TIMER_CTL0,TIMERx(x=0..4,7)
 629:C:/Users/49542/Desktop/GD32F30x_Demo_Suites_V2.0.0/GD32F30x_Demo_Suites_V2.0.0/GD32F30x_Firmware_Library/GD32F30x_standard_peripheral/Source\gd32f30x_timer.c ****        \arg        TIMER_DMACFG_DMATA_CTL1: DMA transfer address is TIMER_CTL1,TIMERx(x=0..4,7)
 630:C:/Users/49542/Desktop/GD32F30x_Demo_Suites_V2.0.0/GD32F30x_Demo_Suites_V2.0.0/GD32F30x_Firmware_Library/GD32F30x_standard_peripheral/Source\gd32f30x_timer.c ****        \arg        TIMER_DMACFG_DMATA_SMCFG: DMA transfer address is TIMER_SMCFG,TIMERx(x=0..4,7)
 631:C:/Users/49542/Desktop/GD32F30x_Demo_Suites_V2.0.0/GD32F30x_Demo_Suites_V2.0.0/GD32F30x_Firmware_Library/GD32F30x_standard_peripheral/Source\gd32f30x_timer.c ****        \arg        TIMER_DMACFG_DMATA_DMAINTEN: DMA transfer address is TIMER_DMAINTEN,TIMERx(x=0..
 632:C:/Users/49542/Desktop/GD32F30x_Demo_Suites_V2.0.0/GD32F30x_Demo_Suites_V2.0.0/GD32F30x_Firmware_Library/GD32F30x_standard_peripheral/Source\gd32f30x_timer.c ****        \arg        TIMER_DMACFG_DMATA_INTF: DMA transfer address is TIMER_INTF,TIMERx(x=0..4,7)
 633:C:/Users/49542/Desktop/GD32F30x_Demo_Suites_V2.0.0/GD32F30x_Demo_Suites_V2.0.0/GD32F30x_Firmware_Library/GD32F30x_standard_peripheral/Source\gd32f30x_timer.c ****        \arg        TIMER_DMACFG_DMATA_SWEVG: DMA transfer address is TIMER_SWEVG,TIMERx(x=0..4,7)
 634:C:/Users/49542/Desktop/GD32F30x_Demo_Suites_V2.0.0/GD32F30x_Demo_Suites_V2.0.0/GD32F30x_Firmware_Library/GD32F30x_standard_peripheral/Source\gd32f30x_timer.c ****        \arg        TIMER_DMACFG_DMATA_CHCTL0: DMA transfer address is TIMER_CHCTL0,TIMERx(x=0..4,7)
 635:C:/Users/49542/Desktop/GD32F30x_Demo_Suites_V2.0.0/GD32F30x_Demo_Suites_V2.0.0/GD32F30x_Firmware_Library/GD32F30x_standard_peripheral/Source\gd32f30x_timer.c ****        \arg        TIMER_DMACFG_DMATA_CHCTL1: DMA transfer address is TIMER_CHCTL1,TIMERx(x=0..4,7)
 636:C:/Users/49542/Desktop/GD32F30x_Demo_Suites_V2.0.0/GD32F30x_Demo_Suites_V2.0.0/GD32F30x_Firmware_Library/GD32F30x_standard_peripheral/Source\gd32f30x_timer.c ****        \arg        TIMER_DMACFG_DMATA_CHCTL2: DMA transfer address is TIMER_CHCTL2,TIMERx(x=0..4,7)
 637:C:/Users/49542/Desktop/GD32F30x_Demo_Suites_V2.0.0/GD32F30x_Demo_Suites_V2.0.0/GD32F30x_Firmware_Library/GD32F30x_standard_peripheral/Source\gd32f30x_timer.c ****        \arg        TIMER_DMACFG_DMATA_CNT: DMA transfer address is TIMER_CNT,TIMERx(x=0..4,7)
 638:C:/Users/49542/Desktop/GD32F30x_Demo_Suites_V2.0.0/GD32F30x_Demo_Suites_V2.0.0/GD32F30x_Firmware_Library/GD32F30x_standard_peripheral/Source\gd32f30x_timer.c ****        \arg        TIMER_DMACFG_DMATA_PSC: DMA transfer address is TIMER_PSC,TIMERx(x=0..4,7)
 639:C:/Users/49542/Desktop/GD32F30x_Demo_Suites_V2.0.0/GD32F30x_Demo_Suites_V2.0.0/GD32F30x_Firmware_Library/GD32F30x_standard_peripheral/Source\gd32f30x_timer.c ****        \arg        TIMER_DMACFG_DMATA_CAR: DMA transfer address is TIMER_CAR,TIMERx(x=0..4,7)
 640:C:/Users/49542/Desktop/GD32F30x_Demo_Suites_V2.0.0/GD32F30x_Demo_Suites_V2.0.0/GD32F30x_Firmware_Library/GD32F30x_standard_peripheral/Source\gd32f30x_timer.c ****        \arg        TIMER_DMACFG_DMATA_CREP: DMA transfer address is TIMER_CREP,TIMERx(x=0,7)
 641:C:/Users/49542/Desktop/GD32F30x_Demo_Suites_V2.0.0/GD32F30x_Demo_Suites_V2.0.0/GD32F30x_Firmware_Library/GD32F30x_standard_peripheral/Source\gd32f30x_timer.c ****        \arg        TIMER_DMACFG_DMATA_CH0CV: DMA transfer address is TIMER_CH0CV,TIMERx(x=0..4,7)
 642:C:/Users/49542/Desktop/GD32F30x_Demo_Suites_V2.0.0/GD32F30x_Demo_Suites_V2.0.0/GD32F30x_Firmware_Library/GD32F30x_standard_peripheral/Source\gd32f30x_timer.c ****        \arg        TIMER_DMACFG_DMATA_CH1CV: DMA transfer address is TIMER_CH1CV,TIMERx(x=0..4,7)
 643:C:/Users/49542/Desktop/GD32F30x_Demo_Suites_V2.0.0/GD32F30x_Demo_Suites_V2.0.0/GD32F30x_Firmware_Library/GD32F30x_standard_peripheral/Source\gd32f30x_timer.c ****        \arg        TIMER_DMACFG_DMATA_CH2CV: DMA transfer address is TIMER_CH2CV,TIMERx(x=0..4,7)
 644:C:/Users/49542/Desktop/GD32F30x_Demo_Suites_V2.0.0/GD32F30x_Demo_Suites_V2.0.0/GD32F30x_Firmware_Library/GD32F30x_standard_peripheral/Source\gd32f30x_timer.c ****        \arg        TIMER_DMACFG_DMATA_CH3CV: DMA transfer address is TIMER_CH3CV,TIMERx(x=0..4,7)
 645:C:/Users/49542/Desktop/GD32F30x_Demo_Suites_V2.0.0/GD32F30x_Demo_Suites_V2.0.0/GD32F30x_Firmware_Library/GD32F30x_standard_peripheral/Source\gd32f30x_timer.c ****        \arg        TIMER_DMACFG_DMATA_CCHP: DMA transfer address is TIMER_CCHP,TIMERx(x=0,7)
 646:C:/Users/49542/Desktop/GD32F30x_Demo_Suites_V2.0.0/GD32F30x_Demo_Suites_V2.0.0/GD32F30x_Firmware_Library/GD32F30x_standard_peripheral/Source\gd32f30x_timer.c ****        \arg        TIMER_DMACFG_DMATA_DMACFG: DMA transfer address is TIMER_DMACFG,TIMERx(x=0..4,7)
 647:C:/Users/49542/Desktop/GD32F30x_Demo_Suites_V2.0.0/GD32F30x_Demo_Suites_V2.0.0/GD32F30x_Firmware_Library/GD32F30x_standard_peripheral/Source\gd32f30x_timer.c ****        \arg        TIMER_DMACFG_DMATA_DMATB: DMA transfer address is TIMER_DMATB,TIMERx(x=0..4,7)
 648:C:/Users/49542/Desktop/GD32F30x_Demo_Suites_V2.0.0/GD32F30x_Demo_Suites_V2.0.0/GD32F30x_Firmware_Library/GD32F30x_standard_peripheral/Source\gd32f30x_timer.c ****     \param[in]  dma_lenth:
 649:C:/Users/49542/Desktop/GD32F30x_Demo_Suites_V2.0.0/GD32F30x_Demo_Suites_V2.0.0/GD32F30x_Firmware_Library/GD32F30x_standard_peripheral/Source\gd32f30x_timer.c ****                 only one parameter can be selected which is shown as below:
 650:C:/Users/49542/Desktop/GD32F30x_Demo_Suites_V2.0.0/GD32F30x_Demo_Suites_V2.0.0/GD32F30x_Firmware_Library/GD32F30x_standard_peripheral/Source\gd32f30x_timer.c ****        \arg        TIMER_DMACFG_DMATC_xTRANSFER(x=1..18): DMA transfer x time
 651:C:/Users/49542/Desktop/GD32F30x_Demo_Suites_V2.0.0/GD32F30x_Demo_Suites_V2.0.0/GD32F30x_Firmware_Library/GD32F30x_standard_peripheral/Source\gd32f30x_timer.c ****     \param[out] none
 652:C:/Users/49542/Desktop/GD32F30x_Demo_Suites_V2.0.0/GD32F30x_Demo_Suites_V2.0.0/GD32F30x_Firmware_Library/GD32F30x_standard_peripheral/Source\gd32f30x_timer.c ****     \retval     none
 653:C:/Users/49542/Desktop/GD32F30x_Demo_Suites_V2.0.0/GD32F30x_Demo_Suites_V2.0.0/GD32F30x_Firmware_Library/GD32F30x_standard_peripheral/Source\gd32f30x_timer.c **** */
 654:C:/Users/49542/Desktop/GD32F30x_Demo_Suites_V2.0.0/GD32F30x_Demo_Suites_V2.0.0/GD32F30x_Firmware_Library/GD32F30x_standard_peripheral/Source\gd32f30x_timer.c **** void timer_dma_transfer_config(uint32_t timer_periph, uint32_t dma_baseaddr, uint32_t dma_lenth)
 655:C:/Users/49542/Desktop/GD32F30x_Demo_Suites_V2.0.0/GD32F30x_Demo_Suites_V2.0.0/GD32F30x_Firmware_Library/GD32F30x_standard_peripheral/Source\gd32f30x_timer.c **** {
 1161              		.loc 1 655 0
 1162              		.cfi_startproc
 1163              		@ args = 0, pretend = 0, frame = 0
 1164              		@ frame_needed = 0, uses_anonymous_args = 0
 1165              		@ link register save eliminated.
 1166              	.LVL102:
 656:C:/Users/49542/Desktop/GD32F30x_Demo_Suites_V2.0.0/GD32F30x_Demo_Suites_V2.0.0/GD32F30x_Firmware_Library/GD32F30x_standard_peripheral/Source\gd32f30x_timer.c ****     TIMER_DMACFG(timer_periph) &= (~(uint32_t)(TIMER_DMACFG_DMATA | TIMER_DMACFG_DMATC));
 1167              		.loc 1 656 0
 1168 0000 836C     		ldr	r3, [r0, #72]
 1169 0002 23F4F853 		bic	r3, r3, #7936
 1170 0006 23F01F03 		bic	r3, r3, #31
 1171 000a 8364     		str	r3, [r0, #72]
 657:C:/Users/49542/Desktop/GD32F30x_Demo_Suites_V2.0.0/GD32F30x_Demo_Suites_V2.0.0/GD32F30x_Firmware_Library/GD32F30x_standard_peripheral/Source\gd32f30x_timer.c ****     TIMER_DMACFG(timer_periph) |= (uint32_t)(dma_baseaddr | dma_lenth);
 1172              		.loc 1 657 0
 1173 000c 836C     		ldr	r3, [r0, #72]
 1174 000e 0A43     		orrs	r2, r2, r1
 1175              	.LVL103:
 1176 0010 1343     		orrs	r3, r3, r2
 1177 0012 8364     		str	r3, [r0, #72]
 658:C:/Users/49542/Desktop/GD32F30x_Demo_Suites_V2.0.0/GD32F30x_Demo_Suites_V2.0.0/GD32F30x_Firmware_Library/GD32F30x_standard_peripheral/Source\gd32f30x_timer.c **** }
ARM GAS  C:\Users\49542\AppData\Local\Temp\ccEBNRSE.s 			page 33


 1178              		.loc 1 658 0
 1179 0014 7047     		bx	lr
 1180              		.cfi_endproc
 1181              	.LFE145:
 1183              		.section	.text.timer_event_software_generate,"ax",%progbits
 1184              		.align	1
 1185              		.global	timer_event_software_generate
 1186              		.syntax unified
 1187              		.thumb
 1188              		.thumb_func
 1189              		.fpu fpv4-sp-d16
 1191              	timer_event_software_generate:
 1192              	.LFB146:
 659:C:/Users/49542/Desktop/GD32F30x_Demo_Suites_V2.0.0/GD32F30x_Demo_Suites_V2.0.0/GD32F30x_Firmware_Library/GD32F30x_standard_peripheral/Source\gd32f30x_timer.c **** 
 660:C:/Users/49542/Desktop/GD32F30x_Demo_Suites_V2.0.0/GD32F30x_Demo_Suites_V2.0.0/GD32F30x_Firmware_Library/GD32F30x_standard_peripheral/Source\gd32f30x_timer.c **** /*!
 661:C:/Users/49542/Desktop/GD32F30x_Demo_Suites_V2.0.0/GD32F30x_Demo_Suites_V2.0.0/GD32F30x_Firmware_Library/GD32F30x_standard_peripheral/Source\gd32f30x_timer.c ****     \brief      software generate events 
 662:C:/Users/49542/Desktop/GD32F30x_Demo_Suites_V2.0.0/GD32F30x_Demo_Suites_V2.0.0/GD32F30x_Firmware_Library/GD32F30x_standard_peripheral/Source\gd32f30x_timer.c ****     \param[in]  timer_periph: please refer to the following parameters
 663:C:/Users/49542/Desktop/GD32F30x_Demo_Suites_V2.0.0/GD32F30x_Demo_Suites_V2.0.0/GD32F30x_Firmware_Library/GD32F30x_standard_peripheral/Source\gd32f30x_timer.c ****     \param[in]  event: the timer software event generation sources
 664:C:/Users/49542/Desktop/GD32F30x_Demo_Suites_V2.0.0/GD32F30x_Demo_Suites_V2.0.0/GD32F30x_Firmware_Library/GD32F30x_standard_peripheral/Source\gd32f30x_timer.c ****                 one or more parameters can be selected which are shown as below:
 665:C:/Users/49542/Desktop/GD32F30x_Demo_Suites_V2.0.0/GD32F30x_Demo_Suites_V2.0.0/GD32F30x_Firmware_Library/GD32F30x_standard_peripheral/Source\gd32f30x_timer.c ****       \arg        TIMER_EVENT_SRC_UPG: update event,TIMERx(x=0..13)
 666:C:/Users/49542/Desktop/GD32F30x_Demo_Suites_V2.0.0/GD32F30x_Demo_Suites_V2.0.0/GD32F30x_Firmware_Library/GD32F30x_standard_peripheral/Source\gd32f30x_timer.c ****       \arg        TIMER_EVENT_SRC_CH0G: channel 0 capture or compare event generation,TIMERx(x=0..4
 667:C:/Users/49542/Desktop/GD32F30x_Demo_Suites_V2.0.0/GD32F30x_Demo_Suites_V2.0.0/GD32F30x_Firmware_Library/GD32F30x_standard_peripheral/Source\gd32f30x_timer.c ****       \arg        TIMER_EVENT_SRC_CH1G: channel 1 capture or compare event generation,TIMERx(x=0..4
 668:C:/Users/49542/Desktop/GD32F30x_Demo_Suites_V2.0.0/GD32F30x_Demo_Suites_V2.0.0/GD32F30x_Firmware_Library/GD32F30x_standard_peripheral/Source\gd32f30x_timer.c ****       \arg        TIMER_EVENT_SRC_CH2G: channel 2 capture or compare event generation,TIMERx(x=0..4
 669:C:/Users/49542/Desktop/GD32F30x_Demo_Suites_V2.0.0/GD32F30x_Demo_Suites_V2.0.0/GD32F30x_Firmware_Library/GD32F30x_standard_peripheral/Source\gd32f30x_timer.c ****       \arg        TIMER_EVENT_SRC_CH3G: channel 3 capture or compare event generation,TIMERx(x=0..4
 670:C:/Users/49542/Desktop/GD32F30x_Demo_Suites_V2.0.0/GD32F30x_Demo_Suites_V2.0.0/GD32F30x_Firmware_Library/GD32F30x_standard_peripheral/Source\gd32f30x_timer.c ****       \arg        TIMER_EVENT_SRC_CMTG: channel commutation event generation,TIMERx(x=0,7) 
 671:C:/Users/49542/Desktop/GD32F30x_Demo_Suites_V2.0.0/GD32F30x_Demo_Suites_V2.0.0/GD32F30x_Firmware_Library/GD32F30x_standard_peripheral/Source\gd32f30x_timer.c ****       \arg        TIMER_EVENT_SRC_TRGG: trigger event generation,TIMERx(x=0..4,7,8,11)
 672:C:/Users/49542/Desktop/GD32F30x_Demo_Suites_V2.0.0/GD32F30x_Demo_Suites_V2.0.0/GD32F30x_Firmware_Library/GD32F30x_standard_peripheral/Source\gd32f30x_timer.c ****       \arg        TIMER_EVENT_SRC_BRKG:  break event generation,TIMERx(x=0,7)
 673:C:/Users/49542/Desktop/GD32F30x_Demo_Suites_V2.0.0/GD32F30x_Demo_Suites_V2.0.0/GD32F30x_Firmware_Library/GD32F30x_standard_peripheral/Source\gd32f30x_timer.c ****     \param[out] none
 674:C:/Users/49542/Desktop/GD32F30x_Demo_Suites_V2.0.0/GD32F30x_Demo_Suites_V2.0.0/GD32F30x_Firmware_Library/GD32F30x_standard_peripheral/Source\gd32f30x_timer.c ****     \retval     none
 675:C:/Users/49542/Desktop/GD32F30x_Demo_Suites_V2.0.0/GD32F30x_Demo_Suites_V2.0.0/GD32F30x_Firmware_Library/GD32F30x_standard_peripheral/Source\gd32f30x_timer.c **** */
 676:C:/Users/49542/Desktop/GD32F30x_Demo_Suites_V2.0.0/GD32F30x_Demo_Suites_V2.0.0/GD32F30x_Firmware_Library/GD32F30x_standard_peripheral/Source\gd32f30x_timer.c **** void timer_event_software_generate(uint32_t timer_periph, uint16_t event)
 677:C:/Users/49542/Desktop/GD32F30x_Demo_Suites_V2.0.0/GD32F30x_Demo_Suites_V2.0.0/GD32F30x_Firmware_Library/GD32F30x_standard_peripheral/Source\gd32f30x_timer.c **** {
 1193              		.loc 1 677 0
 1194              		.cfi_startproc
 1195              		@ args = 0, pretend = 0, frame = 0
 1196              		@ frame_needed = 0, uses_anonymous_args = 0
 1197              		@ link register save eliminated.
 1198              	.LVL104:
 678:C:/Users/49542/Desktop/GD32F30x_Demo_Suites_V2.0.0/GD32F30x_Demo_Suites_V2.0.0/GD32F30x_Firmware_Library/GD32F30x_standard_peripheral/Source\gd32f30x_timer.c ****     TIMER_SWEVG(timer_periph) |= (uint32_t)event;
 1199              		.loc 1 678 0
 1200 0000 4369     		ldr	r3, [r0, #20]
 1201 0002 1943     		orrs	r1, r1, r3
 1202              	.LVL105:
 1203 0004 4161     		str	r1, [r0, #20]
 679:C:/Users/49542/Desktop/GD32F30x_Demo_Suites_V2.0.0/GD32F30x_Demo_Suites_V2.0.0/GD32F30x_Firmware_Library/GD32F30x_standard_peripheral/Source\gd32f30x_timer.c **** }
 1204              		.loc 1 679 0
 1205 0006 7047     		bx	lr
 1206              		.cfi_endproc
 1207              	.LFE146:
 1209              		.section	.text.timer_break_struct_para_init,"ax",%progbits
 1210              		.align	1
 1211              		.global	timer_break_struct_para_init
 1212              		.syntax unified
 1213              		.thumb
 1214              		.thumb_func
 1215              		.fpu fpv4-sp-d16
 1217              	timer_break_struct_para_init:
ARM GAS  C:\Users\49542\AppData\Local\Temp\ccEBNRSE.s 			page 34


 1218              	.LFB147:
 680:C:/Users/49542/Desktop/GD32F30x_Demo_Suites_V2.0.0/GD32F30x_Demo_Suites_V2.0.0/GD32F30x_Firmware_Library/GD32F30x_standard_peripheral/Source\gd32f30x_timer.c **** 
 681:C:/Users/49542/Desktop/GD32F30x_Demo_Suites_V2.0.0/GD32F30x_Demo_Suites_V2.0.0/GD32F30x_Firmware_Library/GD32F30x_standard_peripheral/Source\gd32f30x_timer.c **** /*!
 682:C:/Users/49542/Desktop/GD32F30x_Demo_Suites_V2.0.0/GD32F30x_Demo_Suites_V2.0.0/GD32F30x_Firmware_Library/GD32F30x_standard_peripheral/Source\gd32f30x_timer.c ****     \brief      initialize TIMER break parameter struct with a default value
 683:C:/Users/49542/Desktop/GD32F30x_Demo_Suites_V2.0.0/GD32F30x_Demo_Suites_V2.0.0/GD32F30x_Firmware_Library/GD32F30x_standard_peripheral/Source\gd32f30x_timer.c ****     \param[in]  breakpara: TIMER break parameter struct
 684:C:/Users/49542/Desktop/GD32F30x_Demo_Suites_V2.0.0/GD32F30x_Demo_Suites_V2.0.0/GD32F30x_Firmware_Library/GD32F30x_standard_peripheral/Source\gd32f30x_timer.c ****     \param[out] none
 685:C:/Users/49542/Desktop/GD32F30x_Demo_Suites_V2.0.0/GD32F30x_Demo_Suites_V2.0.0/GD32F30x_Firmware_Library/GD32F30x_standard_peripheral/Source\gd32f30x_timer.c ****     \retval     none
 686:C:/Users/49542/Desktop/GD32F30x_Demo_Suites_V2.0.0/GD32F30x_Demo_Suites_V2.0.0/GD32F30x_Firmware_Library/GD32F30x_standard_peripheral/Source\gd32f30x_timer.c **** */
 687:C:/Users/49542/Desktop/GD32F30x_Demo_Suites_V2.0.0/GD32F30x_Demo_Suites_V2.0.0/GD32F30x_Firmware_Library/GD32F30x_standard_peripheral/Source\gd32f30x_timer.c **** void timer_break_struct_para_init(timer_break_parameter_struct* breakpara)
 688:C:/Users/49542/Desktop/GD32F30x_Demo_Suites_V2.0.0/GD32F30x_Demo_Suites_V2.0.0/GD32F30x_Firmware_Library/GD32F30x_standard_peripheral/Source\gd32f30x_timer.c **** {
 1219              		.loc 1 688 0
 1220              		.cfi_startproc
 1221              		@ args = 0, pretend = 0, frame = 0
 1222              		@ frame_needed = 0, uses_anonymous_args = 0
 1223              		@ link register save eliminated.
 1224              	.LVL106:
 689:C:/Users/49542/Desktop/GD32F30x_Demo_Suites_V2.0.0/GD32F30x_Demo_Suites_V2.0.0/GD32F30x_Firmware_Library/GD32F30x_standard_peripheral/Source\gd32f30x_timer.c ****     /* initialize the break parameter struct member with the default value */
 690:C:/Users/49542/Desktop/GD32F30x_Demo_Suites_V2.0.0/GD32F30x_Demo_Suites_V2.0.0/GD32F30x_Firmware_Library/GD32F30x_standard_peripheral/Source\gd32f30x_timer.c ****     breakpara->runoffstate     = TIMER_ROS_STATE_DISABLE;
 1225              		.loc 1 690 0
 1226 0000 0023     		movs	r3, #0
 1227 0002 0380     		strh	r3, [r0]	@ movhi
 691:C:/Users/49542/Desktop/GD32F30x_Demo_Suites_V2.0.0/GD32F30x_Demo_Suites_V2.0.0/GD32F30x_Firmware_Library/GD32F30x_standard_peripheral/Source\gd32f30x_timer.c ****     breakpara->ideloffstate    = TIMER_IOS_STATE_DISABLE;
 1228              		.loc 1 691 0
 1229 0004 4380     		strh	r3, [r0, #2]	@ movhi
 692:C:/Users/49542/Desktop/GD32F30x_Demo_Suites_V2.0.0/GD32F30x_Demo_Suites_V2.0.0/GD32F30x_Firmware_Library/GD32F30x_standard_peripheral/Source\gd32f30x_timer.c ****     breakpara->deadtime        = 0U;
 1230              		.loc 1 692 0
 1231 0006 8380     		strh	r3, [r0, #4]	@ movhi
 693:C:/Users/49542/Desktop/GD32F30x_Demo_Suites_V2.0.0/GD32F30x_Demo_Suites_V2.0.0/GD32F30x_Firmware_Library/GD32F30x_standard_peripheral/Source\gd32f30x_timer.c ****     breakpara->breakpolarity   = TIMER_BREAK_POLARITY_LOW;
 1232              		.loc 1 693 0
 1233 0008 C380     		strh	r3, [r0, #6]	@ movhi
 694:C:/Users/49542/Desktop/GD32F30x_Demo_Suites_V2.0.0/GD32F30x_Demo_Suites_V2.0.0/GD32F30x_Firmware_Library/GD32F30x_standard_peripheral/Source\gd32f30x_timer.c ****     breakpara->outputautostate = TIMER_OUTAUTO_DISABLE;
 1234              		.loc 1 694 0
 1235 000a 0381     		strh	r3, [r0, #8]	@ movhi
 695:C:/Users/49542/Desktop/GD32F30x_Demo_Suites_V2.0.0/GD32F30x_Demo_Suites_V2.0.0/GD32F30x_Firmware_Library/GD32F30x_standard_peripheral/Source\gd32f30x_timer.c ****     breakpara->protectmode     = TIMER_CCHP_PROT_OFF;
 1236              		.loc 1 695 0
 1237 000c 4381     		strh	r3, [r0, #10]	@ movhi
 696:C:/Users/49542/Desktop/GD32F30x_Demo_Suites_V2.0.0/GD32F30x_Demo_Suites_V2.0.0/GD32F30x_Firmware_Library/GD32F30x_standard_peripheral/Source\gd32f30x_timer.c ****     breakpara->breakstate      = TIMER_BREAK_DISABLE;
 1238              		.loc 1 696 0
 1239 000e 8381     		strh	r3, [r0, #12]	@ movhi
 697:C:/Users/49542/Desktop/GD32F30x_Demo_Suites_V2.0.0/GD32F30x_Demo_Suites_V2.0.0/GD32F30x_Firmware_Library/GD32F30x_standard_peripheral/Source\gd32f30x_timer.c **** }
 1240              		.loc 1 697 0
 1241 0010 7047     		bx	lr
 1242              		.cfi_endproc
 1243              	.LFE147:
 1245              		.section	.text.timer_break_config,"ax",%progbits
 1246              		.align	1
 1247              		.global	timer_break_config
 1248              		.syntax unified
 1249              		.thumb
 1250              		.thumb_func
 1251              		.fpu fpv4-sp-d16
 1253              	timer_break_config:
 1254              	.LFB148:
 698:C:/Users/49542/Desktop/GD32F30x_Demo_Suites_V2.0.0/GD32F30x_Demo_Suites_V2.0.0/GD32F30x_Firmware_Library/GD32F30x_standard_peripheral/Source\gd32f30x_timer.c **** 
 699:C:/Users/49542/Desktop/GD32F30x_Demo_Suites_V2.0.0/GD32F30x_Demo_Suites_V2.0.0/GD32F30x_Firmware_Library/GD32F30x_standard_peripheral/Source\gd32f30x_timer.c **** /*!
 700:C:/Users/49542/Desktop/GD32F30x_Demo_Suites_V2.0.0/GD32F30x_Demo_Suites_V2.0.0/GD32F30x_Firmware_Library/GD32F30x_standard_peripheral/Source\gd32f30x_timer.c ****     \brief      configure TIMER break function 
 701:C:/Users/49542/Desktop/GD32F30x_Demo_Suites_V2.0.0/GD32F30x_Demo_Suites_V2.0.0/GD32F30x_Firmware_Library/GD32F30x_standard_peripheral/Source\gd32f30x_timer.c ****     \param[in]  timer_periph: TIMERx(x=0,7)
ARM GAS  C:\Users\49542\AppData\Local\Temp\ccEBNRSE.s 			page 35


 702:C:/Users/49542/Desktop/GD32F30x_Demo_Suites_V2.0.0/GD32F30x_Demo_Suites_V2.0.0/GD32F30x_Firmware_Library/GD32F30x_standard_peripheral/Source\gd32f30x_timer.c ****     \param[in]  breakpara: TIMER break parameter struct
 703:C:/Users/49542/Desktop/GD32F30x_Demo_Suites_V2.0.0/GD32F30x_Demo_Suites_V2.0.0/GD32F30x_Firmware_Library/GD32F30x_standard_peripheral/Source\gd32f30x_timer.c ****                 runoffstate: TIMER_ROS_STATE_ENABLE,TIMER_ROS_STATE_DISABLE
 704:C:/Users/49542/Desktop/GD32F30x_Demo_Suites_V2.0.0/GD32F30x_Demo_Suites_V2.0.0/GD32F30x_Firmware_Library/GD32F30x_standard_peripheral/Source\gd32f30x_timer.c ****                 ideloffstate: TIMER_IOS_STATE_ENABLE,TIMER_IOS_STATE_DISABLE
 705:C:/Users/49542/Desktop/GD32F30x_Demo_Suites_V2.0.0/GD32F30x_Demo_Suites_V2.0.0/GD32F30x_Firmware_Library/GD32F30x_standard_peripheral/Source\gd32f30x_timer.c ****                 deadtime: 0~255
 706:C:/Users/49542/Desktop/GD32F30x_Demo_Suites_V2.0.0/GD32F30x_Demo_Suites_V2.0.0/GD32F30x_Firmware_Library/GD32F30x_standard_peripheral/Source\gd32f30x_timer.c ****                 breakpolarity: TIMER_BREAK_POLARITY_LOW,TIMER_BREAK_POLARITY_HIGH
 707:C:/Users/49542/Desktop/GD32F30x_Demo_Suites_V2.0.0/GD32F30x_Demo_Suites_V2.0.0/GD32F30x_Firmware_Library/GD32F30x_standard_peripheral/Source\gd32f30x_timer.c ****                 outputautostate: TIMER_OUTAUTO_ENABLE,TIMER_OUTAUTO_DISABLE
 708:C:/Users/49542/Desktop/GD32F30x_Demo_Suites_V2.0.0/GD32F30x_Demo_Suites_V2.0.0/GD32F30x_Firmware_Library/GD32F30x_standard_peripheral/Source\gd32f30x_timer.c ****                 protectmode: TIMER_CCHP_PROT_OFF,TIMER_CCHP_PROT_0,TIMER_CCHP_PROT_1,TIMER_CCHP_PRO
 709:C:/Users/49542/Desktop/GD32F30x_Demo_Suites_V2.0.0/GD32F30x_Demo_Suites_V2.0.0/GD32F30x_Firmware_Library/GD32F30x_standard_peripheral/Source\gd32f30x_timer.c ****                 breakstate: TIMER_BREAK_ENABLE,TIMER_BREAK_DISABLE
 710:C:/Users/49542/Desktop/GD32F30x_Demo_Suites_V2.0.0/GD32F30x_Demo_Suites_V2.0.0/GD32F30x_Firmware_Library/GD32F30x_standard_peripheral/Source\gd32f30x_timer.c ****     \param[out] none
 711:C:/Users/49542/Desktop/GD32F30x_Demo_Suites_V2.0.0/GD32F30x_Demo_Suites_V2.0.0/GD32F30x_Firmware_Library/GD32F30x_standard_peripheral/Source\gd32f30x_timer.c ****     \retval     none
 712:C:/Users/49542/Desktop/GD32F30x_Demo_Suites_V2.0.0/GD32F30x_Demo_Suites_V2.0.0/GD32F30x_Firmware_Library/GD32F30x_standard_peripheral/Source\gd32f30x_timer.c **** */
 713:C:/Users/49542/Desktop/GD32F30x_Demo_Suites_V2.0.0/GD32F30x_Demo_Suites_V2.0.0/GD32F30x_Firmware_Library/GD32F30x_standard_peripheral/Source\gd32f30x_timer.c **** void timer_break_config(uint32_t timer_periph, timer_break_parameter_struct* breakpara)
 714:C:/Users/49542/Desktop/GD32F30x_Demo_Suites_V2.0.0/GD32F30x_Demo_Suites_V2.0.0/GD32F30x_Firmware_Library/GD32F30x_standard_peripheral/Source\gd32f30x_timer.c **** {
 1255              		.loc 1 714 0
 1256              		.cfi_startproc
 1257              		@ args = 0, pretend = 0, frame = 0
 1258              		@ frame_needed = 0, uses_anonymous_args = 0
 1259              		@ link register save eliminated.
 1260              	.LVL107:
 1261 0000 F0B4     		push	{r4, r5, r6, r7}
 1262              	.LCFI1:
 1263              		.cfi_def_cfa_offset 16
 1264              		.cfi_offset 4, -16
 1265              		.cfi_offset 5, -12
 1266              		.cfi_offset 6, -8
 1267              		.cfi_offset 7, -4
 715:C:/Users/49542/Desktop/GD32F30x_Demo_Suites_V2.0.0/GD32F30x_Demo_Suites_V2.0.0/GD32F30x_Firmware_Library/GD32F30x_standard_peripheral/Source\gd32f30x_timer.c ****     TIMER_CCHP(timer_periph) = (uint32_t)(((uint32_t)(breakpara->runoffstate))|
 1268              		.loc 1 715 0
 1269 0002 0F88     		ldrh	r7, [r1]
 716:C:/Users/49542/Desktop/GD32F30x_Demo_Suites_V2.0.0/GD32F30x_Demo_Suites_V2.0.0/GD32F30x_Firmware_Library/GD32F30x_standard_peripheral/Source\gd32f30x_timer.c ****                                           ((uint32_t)(breakpara->ideloffstate))|
 1270              		.loc 1 716 0
 1271 0004 B1F802C0 		ldrh	ip, [r1, #2]
 717:C:/Users/49542/Desktop/GD32F30x_Demo_Suites_V2.0.0/GD32F30x_Demo_Suites_V2.0.0/GD32F30x_Firmware_Library/GD32F30x_standard_peripheral/Source\gd32f30x_timer.c ****                                           ((uint32_t)(breakpara->deadtime))|
 1272              		.loc 1 717 0
 1273 0008 8E88     		ldrh	r6, [r1, #4]
 718:C:/Users/49542/Desktop/GD32F30x_Demo_Suites_V2.0.0/GD32F30x_Demo_Suites_V2.0.0/GD32F30x_Firmware_Library/GD32F30x_standard_peripheral/Source\gd32f30x_timer.c ****                                           ((uint32_t)(breakpara->breakpolarity))|
 1274              		.loc 1 718 0
 1275 000a CD88     		ldrh	r5, [r1, #6]
 719:C:/Users/49542/Desktop/GD32F30x_Demo_Suites_V2.0.0/GD32F30x_Demo_Suites_V2.0.0/GD32F30x_Firmware_Library/GD32F30x_standard_peripheral/Source\gd32f30x_timer.c ****                                           ((uint32_t)(breakpara->outputautostate)) |
 1276              		.loc 1 719 0
 1277 000c 0C89     		ldrh	r4, [r1, #8]
 720:C:/Users/49542/Desktop/GD32F30x_Demo_Suites_V2.0.0/GD32F30x_Demo_Suites_V2.0.0/GD32F30x_Firmware_Library/GD32F30x_standard_peripheral/Source\gd32f30x_timer.c ****                                           ((uint32_t)(breakpara->protectmode))|
 1278              		.loc 1 720 0
 1279 000e 4A89     		ldrh	r2, [r1, #10]
 721:C:/Users/49542/Desktop/GD32F30x_Demo_Suites_V2.0.0/GD32F30x_Demo_Suites_V2.0.0/GD32F30x_Firmware_Library/GD32F30x_standard_peripheral/Source\gd32f30x_timer.c ****                                           ((uint32_t)(breakpara->breakstate))) ;
 1280              		.loc 1 721 0
 1281 0010 8B89     		ldrh	r3, [r1, #12]
 715:C:/Users/49542/Desktop/GD32F30x_Demo_Suites_V2.0.0/GD32F30x_Demo_Suites_V2.0.0/GD32F30x_Firmware_Library/GD32F30x_standard_peripheral/Source\gd32f30x_timer.c ****                                           ((uint32_t)(breakpara->ideloffstate))|
 1282              		.loc 1 715 0
 1283 0012 47EA0C01 		orr	r1, r7, ip
 1284              	.LVL108:
 1285 0016 3143     		orrs	r1, r1, r6
 1286 0018 2943     		orrs	r1, r1, r5
 1287 001a 2143     		orrs	r1, r1, r4
 1288 001c 0A43     		orrs	r2, r2, r1
 1289 001e 1343     		orrs	r3, r3, r2
 1290 0020 4364     		str	r3, [r0, #68]
ARM GAS  C:\Users\49542\AppData\Local\Temp\ccEBNRSE.s 			page 36


 722:C:/Users/49542/Desktop/GD32F30x_Demo_Suites_V2.0.0/GD32F30x_Demo_Suites_V2.0.0/GD32F30x_Firmware_Library/GD32F30x_standard_peripheral/Source\gd32f30x_timer.c **** }
 1291              		.loc 1 722 0
 1292 0022 F0BC     		pop	{r4, r5, r6, r7}
 1293              	.LCFI2:
 1294              		.cfi_restore 7
 1295              		.cfi_restore 6
 1296              		.cfi_restore 5
 1297              		.cfi_restore 4
 1298              		.cfi_def_cfa_offset 0
 1299 0024 7047     		bx	lr
 1300              		.cfi_endproc
 1301              	.LFE148:
 1303              		.section	.text.timer_break_enable,"ax",%progbits
 1304              		.align	1
 1305              		.global	timer_break_enable
 1306              		.syntax unified
 1307              		.thumb
 1308              		.thumb_func
 1309              		.fpu fpv4-sp-d16
 1311              	timer_break_enable:
 1312              	.LFB149:
 723:C:/Users/49542/Desktop/GD32F30x_Demo_Suites_V2.0.0/GD32F30x_Demo_Suites_V2.0.0/GD32F30x_Firmware_Library/GD32F30x_standard_peripheral/Source\gd32f30x_timer.c **** 
 724:C:/Users/49542/Desktop/GD32F30x_Demo_Suites_V2.0.0/GD32F30x_Demo_Suites_V2.0.0/GD32F30x_Firmware_Library/GD32F30x_standard_peripheral/Source\gd32f30x_timer.c **** /*!
 725:C:/Users/49542/Desktop/GD32F30x_Demo_Suites_V2.0.0/GD32F30x_Demo_Suites_V2.0.0/GD32F30x_Firmware_Library/GD32F30x_standard_peripheral/Source\gd32f30x_timer.c ****     \brief      enable TIMER break function
 726:C:/Users/49542/Desktop/GD32F30x_Demo_Suites_V2.0.0/GD32F30x_Demo_Suites_V2.0.0/GD32F30x_Firmware_Library/GD32F30x_standard_peripheral/Source\gd32f30x_timer.c ****     \param[in]  timer_periph: TIMERx(x=0,7)
 727:C:/Users/49542/Desktop/GD32F30x_Demo_Suites_V2.0.0/GD32F30x_Demo_Suites_V2.0.0/GD32F30x_Firmware_Library/GD32F30x_standard_peripheral/Source\gd32f30x_timer.c ****     \param[out] none
 728:C:/Users/49542/Desktop/GD32F30x_Demo_Suites_V2.0.0/GD32F30x_Demo_Suites_V2.0.0/GD32F30x_Firmware_Library/GD32F30x_standard_peripheral/Source\gd32f30x_timer.c ****     \retval     none
 729:C:/Users/49542/Desktop/GD32F30x_Demo_Suites_V2.0.0/GD32F30x_Demo_Suites_V2.0.0/GD32F30x_Firmware_Library/GD32F30x_standard_peripheral/Source\gd32f30x_timer.c **** */
 730:C:/Users/49542/Desktop/GD32F30x_Demo_Suites_V2.0.0/GD32F30x_Demo_Suites_V2.0.0/GD32F30x_Firmware_Library/GD32F30x_standard_peripheral/Source\gd32f30x_timer.c **** void timer_break_enable(uint32_t timer_periph)
 731:C:/Users/49542/Desktop/GD32F30x_Demo_Suites_V2.0.0/GD32F30x_Demo_Suites_V2.0.0/GD32F30x_Firmware_Library/GD32F30x_standard_peripheral/Source\gd32f30x_timer.c **** {
 1313              		.loc 1 731 0
 1314              		.cfi_startproc
 1315              		@ args = 0, pretend = 0, frame = 0
 1316              		@ frame_needed = 0, uses_anonymous_args = 0
 1317              		@ link register save eliminated.
 1318              	.LVL109:
 732:C:/Users/49542/Desktop/GD32F30x_Demo_Suites_V2.0.0/GD32F30x_Demo_Suites_V2.0.0/GD32F30x_Firmware_Library/GD32F30x_standard_peripheral/Source\gd32f30x_timer.c ****     TIMER_CCHP(timer_periph) |= (uint32_t)TIMER_CCHP_BRKEN;
 1319              		.loc 1 732 0
 1320 0000 436C     		ldr	r3, [r0, #68]
 1321 0002 43F48053 		orr	r3, r3, #4096
 1322 0006 4364     		str	r3, [r0, #68]
 733:C:/Users/49542/Desktop/GD32F30x_Demo_Suites_V2.0.0/GD32F30x_Demo_Suites_V2.0.0/GD32F30x_Firmware_Library/GD32F30x_standard_peripheral/Source\gd32f30x_timer.c **** }
 1323              		.loc 1 733 0
 1324 0008 7047     		bx	lr
 1325              		.cfi_endproc
 1326              	.LFE149:
 1328              		.section	.text.timer_break_disable,"ax",%progbits
 1329              		.align	1
 1330              		.global	timer_break_disable
 1331              		.syntax unified
 1332              		.thumb
 1333              		.thumb_func
 1334              		.fpu fpv4-sp-d16
 1336              	timer_break_disable:
 1337              	.LFB150:
 734:C:/Users/49542/Desktop/GD32F30x_Demo_Suites_V2.0.0/GD32F30x_Demo_Suites_V2.0.0/GD32F30x_Firmware_Library/GD32F30x_standard_peripheral/Source\gd32f30x_timer.c **** 
 735:C:/Users/49542/Desktop/GD32F30x_Demo_Suites_V2.0.0/GD32F30x_Demo_Suites_V2.0.0/GD32F30x_Firmware_Library/GD32F30x_standard_peripheral/Source\gd32f30x_timer.c **** /*!
ARM GAS  C:\Users\49542\AppData\Local\Temp\ccEBNRSE.s 			page 37


 736:C:/Users/49542/Desktop/GD32F30x_Demo_Suites_V2.0.0/GD32F30x_Demo_Suites_V2.0.0/GD32F30x_Firmware_Library/GD32F30x_standard_peripheral/Source\gd32f30x_timer.c ****     \brief      disable TIMER break function
 737:C:/Users/49542/Desktop/GD32F30x_Demo_Suites_V2.0.0/GD32F30x_Demo_Suites_V2.0.0/GD32F30x_Firmware_Library/GD32F30x_standard_peripheral/Source\gd32f30x_timer.c ****     \param[in]  timer_periph: TIMERx(x=0,7)
 738:C:/Users/49542/Desktop/GD32F30x_Demo_Suites_V2.0.0/GD32F30x_Demo_Suites_V2.0.0/GD32F30x_Firmware_Library/GD32F30x_standard_peripheral/Source\gd32f30x_timer.c ****     \param[out] none
 739:C:/Users/49542/Desktop/GD32F30x_Demo_Suites_V2.0.0/GD32F30x_Demo_Suites_V2.0.0/GD32F30x_Firmware_Library/GD32F30x_standard_peripheral/Source\gd32f30x_timer.c ****     \retval     none
 740:C:/Users/49542/Desktop/GD32F30x_Demo_Suites_V2.0.0/GD32F30x_Demo_Suites_V2.0.0/GD32F30x_Firmware_Library/GD32F30x_standard_peripheral/Source\gd32f30x_timer.c **** */
 741:C:/Users/49542/Desktop/GD32F30x_Demo_Suites_V2.0.0/GD32F30x_Demo_Suites_V2.0.0/GD32F30x_Firmware_Library/GD32F30x_standard_peripheral/Source\gd32f30x_timer.c **** void timer_break_disable(uint32_t timer_periph)
 742:C:/Users/49542/Desktop/GD32F30x_Demo_Suites_V2.0.0/GD32F30x_Demo_Suites_V2.0.0/GD32F30x_Firmware_Library/GD32F30x_standard_peripheral/Source\gd32f30x_timer.c **** {
 1338              		.loc 1 742 0
 1339              		.cfi_startproc
 1340              		@ args = 0, pretend = 0, frame = 0
 1341              		@ frame_needed = 0, uses_anonymous_args = 0
 1342              		@ link register save eliminated.
 1343              	.LVL110:
 743:C:/Users/49542/Desktop/GD32F30x_Demo_Suites_V2.0.0/GD32F30x_Demo_Suites_V2.0.0/GD32F30x_Firmware_Library/GD32F30x_standard_peripheral/Source\gd32f30x_timer.c ****     TIMER_CCHP(timer_periph) &= ~(uint32_t)TIMER_CCHP_BRKEN;
 1344              		.loc 1 743 0
 1345 0000 436C     		ldr	r3, [r0, #68]
 1346 0002 23F48053 		bic	r3, r3, #4096
 1347 0006 4364     		str	r3, [r0, #68]
 744:C:/Users/49542/Desktop/GD32F30x_Demo_Suites_V2.0.0/GD32F30x_Demo_Suites_V2.0.0/GD32F30x_Firmware_Library/GD32F30x_standard_peripheral/Source\gd32f30x_timer.c **** }
 1348              		.loc 1 744 0
 1349 0008 7047     		bx	lr
 1350              		.cfi_endproc
 1351              	.LFE150:
 1353              		.section	.text.timer_automatic_output_enable,"ax",%progbits
 1354              		.align	1
 1355              		.global	timer_automatic_output_enable
 1356              		.syntax unified
 1357              		.thumb
 1358              		.thumb_func
 1359              		.fpu fpv4-sp-d16
 1361              	timer_automatic_output_enable:
 1362              	.LFB151:
 745:C:/Users/49542/Desktop/GD32F30x_Demo_Suites_V2.0.0/GD32F30x_Demo_Suites_V2.0.0/GD32F30x_Firmware_Library/GD32F30x_standard_peripheral/Source\gd32f30x_timer.c **** 
 746:C:/Users/49542/Desktop/GD32F30x_Demo_Suites_V2.0.0/GD32F30x_Demo_Suites_V2.0.0/GD32F30x_Firmware_Library/GD32F30x_standard_peripheral/Source\gd32f30x_timer.c **** /*!
 747:C:/Users/49542/Desktop/GD32F30x_Demo_Suites_V2.0.0/GD32F30x_Demo_Suites_V2.0.0/GD32F30x_Firmware_Library/GD32F30x_standard_peripheral/Source\gd32f30x_timer.c ****     \brief      enable TIMER output automatic function
 748:C:/Users/49542/Desktop/GD32F30x_Demo_Suites_V2.0.0/GD32F30x_Demo_Suites_V2.0.0/GD32F30x_Firmware_Library/GD32F30x_standard_peripheral/Source\gd32f30x_timer.c ****     \param[in]  timer_periph: TIMERx(x=0,7)
 749:C:/Users/49542/Desktop/GD32F30x_Demo_Suites_V2.0.0/GD32F30x_Demo_Suites_V2.0.0/GD32F30x_Firmware_Library/GD32F30x_standard_peripheral/Source\gd32f30x_timer.c ****     \param[out] none
 750:C:/Users/49542/Desktop/GD32F30x_Demo_Suites_V2.0.0/GD32F30x_Demo_Suites_V2.0.0/GD32F30x_Firmware_Library/GD32F30x_standard_peripheral/Source\gd32f30x_timer.c ****     \retval     none
 751:C:/Users/49542/Desktop/GD32F30x_Demo_Suites_V2.0.0/GD32F30x_Demo_Suites_V2.0.0/GD32F30x_Firmware_Library/GD32F30x_standard_peripheral/Source\gd32f30x_timer.c **** */
 752:C:/Users/49542/Desktop/GD32F30x_Demo_Suites_V2.0.0/GD32F30x_Demo_Suites_V2.0.0/GD32F30x_Firmware_Library/GD32F30x_standard_peripheral/Source\gd32f30x_timer.c **** void timer_automatic_output_enable(uint32_t timer_periph)
 753:C:/Users/49542/Desktop/GD32F30x_Demo_Suites_V2.0.0/GD32F30x_Demo_Suites_V2.0.0/GD32F30x_Firmware_Library/GD32F30x_standard_peripheral/Source\gd32f30x_timer.c **** {
 1363              		.loc 1 753 0
 1364              		.cfi_startproc
 1365              		@ args = 0, pretend = 0, frame = 0
 1366              		@ frame_needed = 0, uses_anonymous_args = 0
 1367              		@ link register save eliminated.
 1368              	.LVL111:
 754:C:/Users/49542/Desktop/GD32F30x_Demo_Suites_V2.0.0/GD32F30x_Demo_Suites_V2.0.0/GD32F30x_Firmware_Library/GD32F30x_standard_peripheral/Source\gd32f30x_timer.c ****     TIMER_CCHP(timer_periph) |= (uint32_t)TIMER_CCHP_OAEN;
 1369              		.loc 1 754 0
 1370 0000 436C     		ldr	r3, [r0, #68]
 1371 0002 43F48043 		orr	r3, r3, #16384
 1372 0006 4364     		str	r3, [r0, #68]
 755:C:/Users/49542/Desktop/GD32F30x_Demo_Suites_V2.0.0/GD32F30x_Demo_Suites_V2.0.0/GD32F30x_Firmware_Library/GD32F30x_standard_peripheral/Source\gd32f30x_timer.c **** }
 1373              		.loc 1 755 0
 1374 0008 7047     		bx	lr
 1375              		.cfi_endproc
 1376              	.LFE151:
ARM GAS  C:\Users\49542\AppData\Local\Temp\ccEBNRSE.s 			page 38


 1378              		.section	.text.timer_automatic_output_disable,"ax",%progbits
 1379              		.align	1
 1380              		.global	timer_automatic_output_disable
 1381              		.syntax unified
 1382              		.thumb
 1383              		.thumb_func
 1384              		.fpu fpv4-sp-d16
 1386              	timer_automatic_output_disable:
 1387              	.LFB152:
 756:C:/Users/49542/Desktop/GD32F30x_Demo_Suites_V2.0.0/GD32F30x_Demo_Suites_V2.0.0/GD32F30x_Firmware_Library/GD32F30x_standard_peripheral/Source\gd32f30x_timer.c **** 
 757:C:/Users/49542/Desktop/GD32F30x_Demo_Suites_V2.0.0/GD32F30x_Demo_Suites_V2.0.0/GD32F30x_Firmware_Library/GD32F30x_standard_peripheral/Source\gd32f30x_timer.c **** /*!
 758:C:/Users/49542/Desktop/GD32F30x_Demo_Suites_V2.0.0/GD32F30x_Demo_Suites_V2.0.0/GD32F30x_Firmware_Library/GD32F30x_standard_peripheral/Source\gd32f30x_timer.c ****     \brief      disable TIMER output automatic function
 759:C:/Users/49542/Desktop/GD32F30x_Demo_Suites_V2.0.0/GD32F30x_Demo_Suites_V2.0.0/GD32F30x_Firmware_Library/GD32F30x_standard_peripheral/Source\gd32f30x_timer.c ****     \param[in]  timer_periph: TIMERx(x=0,7)
 760:C:/Users/49542/Desktop/GD32F30x_Demo_Suites_V2.0.0/GD32F30x_Demo_Suites_V2.0.0/GD32F30x_Firmware_Library/GD32F30x_standard_peripheral/Source\gd32f30x_timer.c ****     \param[out] none
 761:C:/Users/49542/Desktop/GD32F30x_Demo_Suites_V2.0.0/GD32F30x_Demo_Suites_V2.0.0/GD32F30x_Firmware_Library/GD32F30x_standard_peripheral/Source\gd32f30x_timer.c ****     \retval     none
 762:C:/Users/49542/Desktop/GD32F30x_Demo_Suites_V2.0.0/GD32F30x_Demo_Suites_V2.0.0/GD32F30x_Firmware_Library/GD32F30x_standard_peripheral/Source\gd32f30x_timer.c **** */
 763:C:/Users/49542/Desktop/GD32F30x_Demo_Suites_V2.0.0/GD32F30x_Demo_Suites_V2.0.0/GD32F30x_Firmware_Library/GD32F30x_standard_peripheral/Source\gd32f30x_timer.c **** void timer_automatic_output_disable(uint32_t timer_periph)
 764:C:/Users/49542/Desktop/GD32F30x_Demo_Suites_V2.0.0/GD32F30x_Demo_Suites_V2.0.0/GD32F30x_Firmware_Library/GD32F30x_standard_peripheral/Source\gd32f30x_timer.c **** {
 1388              		.loc 1 764 0
 1389              		.cfi_startproc
 1390              		@ args = 0, pretend = 0, frame = 0
 1391              		@ frame_needed = 0, uses_anonymous_args = 0
 1392              		@ link register save eliminated.
 1393              	.LVL112:
 765:C:/Users/49542/Desktop/GD32F30x_Demo_Suites_V2.0.0/GD32F30x_Demo_Suites_V2.0.0/GD32F30x_Firmware_Library/GD32F30x_standard_peripheral/Source\gd32f30x_timer.c ****     TIMER_CCHP(timer_periph) &= ~(uint32_t)TIMER_CCHP_OAEN;
 1394              		.loc 1 765 0
 1395 0000 436C     		ldr	r3, [r0, #68]
 1396 0002 23F48043 		bic	r3, r3, #16384
 1397 0006 4364     		str	r3, [r0, #68]
 766:C:/Users/49542/Desktop/GD32F30x_Demo_Suites_V2.0.0/GD32F30x_Demo_Suites_V2.0.0/GD32F30x_Firmware_Library/GD32F30x_standard_peripheral/Source\gd32f30x_timer.c **** }
 1398              		.loc 1 766 0
 1399 0008 7047     		bx	lr
 1400              		.cfi_endproc
 1401              	.LFE152:
 1403              		.section	.text.timer_primary_output_config,"ax",%progbits
 1404              		.align	1
 1405              		.global	timer_primary_output_config
 1406              		.syntax unified
 1407              		.thumb
 1408              		.thumb_func
 1409              		.fpu fpv4-sp-d16
 1411              	timer_primary_output_config:
 1412              	.LFB153:
 767:C:/Users/49542/Desktop/GD32F30x_Demo_Suites_V2.0.0/GD32F30x_Demo_Suites_V2.0.0/GD32F30x_Firmware_Library/GD32F30x_standard_peripheral/Source\gd32f30x_timer.c **** 
 768:C:/Users/49542/Desktop/GD32F30x_Demo_Suites_V2.0.0/GD32F30x_Demo_Suites_V2.0.0/GD32F30x_Firmware_Library/GD32F30x_standard_peripheral/Source\gd32f30x_timer.c **** /*!
 769:C:/Users/49542/Desktop/GD32F30x_Demo_Suites_V2.0.0/GD32F30x_Demo_Suites_V2.0.0/GD32F30x_Firmware_Library/GD32F30x_standard_peripheral/Source\gd32f30x_timer.c ****     \brief      configure TIMER primary output function
 770:C:/Users/49542/Desktop/GD32F30x_Demo_Suites_V2.0.0/GD32F30x_Demo_Suites_V2.0.0/GD32F30x_Firmware_Library/GD32F30x_standard_peripheral/Source\gd32f30x_timer.c ****     \param[in]  timer_periph: TIMERx(x=0,7)
 771:C:/Users/49542/Desktop/GD32F30x_Demo_Suites_V2.0.0/GD32F30x_Demo_Suites_V2.0.0/GD32F30x_Firmware_Library/GD32F30x_standard_peripheral/Source\gd32f30x_timer.c ****     \param[in]  newvalue: ENABLE or DISABLE
 772:C:/Users/49542/Desktop/GD32F30x_Demo_Suites_V2.0.0/GD32F30x_Demo_Suites_V2.0.0/GD32F30x_Firmware_Library/GD32F30x_standard_peripheral/Source\gd32f30x_timer.c ****     \param[out] none
 773:C:/Users/49542/Desktop/GD32F30x_Demo_Suites_V2.0.0/GD32F30x_Demo_Suites_V2.0.0/GD32F30x_Firmware_Library/GD32F30x_standard_peripheral/Source\gd32f30x_timer.c ****     \retval     none
 774:C:/Users/49542/Desktop/GD32F30x_Demo_Suites_V2.0.0/GD32F30x_Demo_Suites_V2.0.0/GD32F30x_Firmware_Library/GD32F30x_standard_peripheral/Source\gd32f30x_timer.c **** */
 775:C:/Users/49542/Desktop/GD32F30x_Demo_Suites_V2.0.0/GD32F30x_Demo_Suites_V2.0.0/GD32F30x_Firmware_Library/GD32F30x_standard_peripheral/Source\gd32f30x_timer.c **** void timer_primary_output_config(uint32_t timer_periph, ControlStatus newvalue)
 776:C:/Users/49542/Desktop/GD32F30x_Demo_Suites_V2.0.0/GD32F30x_Demo_Suites_V2.0.0/GD32F30x_Firmware_Library/GD32F30x_standard_peripheral/Source\gd32f30x_timer.c **** {
 1413              		.loc 1 776 0
 1414              		.cfi_startproc
 1415              		@ args = 0, pretend = 0, frame = 0
 1416              		@ frame_needed = 0, uses_anonymous_args = 0
ARM GAS  C:\Users\49542\AppData\Local\Temp\ccEBNRSE.s 			page 39


 1417              		@ link register save eliminated.
 1418              	.LVL113:
 777:C:/Users/49542/Desktop/GD32F30x_Demo_Suites_V2.0.0/GD32F30x_Demo_Suites_V2.0.0/GD32F30x_Firmware_Library/GD32F30x_standard_peripheral/Source\gd32f30x_timer.c ****     if(ENABLE == newvalue){
 1419              		.loc 1 777 0
 1420 0000 0129     		cmp	r1, #1
 1421 0002 04D0     		beq	.L91
 778:C:/Users/49542/Desktop/GD32F30x_Demo_Suites_V2.0.0/GD32F30x_Demo_Suites_V2.0.0/GD32F30x_Firmware_Library/GD32F30x_standard_peripheral/Source\gd32f30x_timer.c ****         TIMER_CCHP(timer_periph) |= (uint32_t)TIMER_CCHP_POEN;
 779:C:/Users/49542/Desktop/GD32F30x_Demo_Suites_V2.0.0/GD32F30x_Demo_Suites_V2.0.0/GD32F30x_Firmware_Library/GD32F30x_standard_peripheral/Source\gd32f30x_timer.c ****     }else{
 780:C:/Users/49542/Desktop/GD32F30x_Demo_Suites_V2.0.0/GD32F30x_Demo_Suites_V2.0.0/GD32F30x_Firmware_Library/GD32F30x_standard_peripheral/Source\gd32f30x_timer.c ****         TIMER_CCHP(timer_periph) &= (~(uint32_t)TIMER_CCHP_POEN);
 1422              		.loc 1 780 0
 1423 0004 436C     		ldr	r3, [r0, #68]
 1424 0006 23F40043 		bic	r3, r3, #32768
 1425 000a 4364     		str	r3, [r0, #68]
 781:C:/Users/49542/Desktop/GD32F30x_Demo_Suites_V2.0.0/GD32F30x_Demo_Suites_V2.0.0/GD32F30x_Firmware_Library/GD32F30x_standard_peripheral/Source\gd32f30x_timer.c ****     }
 782:C:/Users/49542/Desktop/GD32F30x_Demo_Suites_V2.0.0/GD32F30x_Demo_Suites_V2.0.0/GD32F30x_Firmware_Library/GD32F30x_standard_peripheral/Source\gd32f30x_timer.c **** }
 1426              		.loc 1 782 0
 1427 000c 7047     		bx	lr
 1428              	.L91:
 778:C:/Users/49542/Desktop/GD32F30x_Demo_Suites_V2.0.0/GD32F30x_Demo_Suites_V2.0.0/GD32F30x_Firmware_Library/GD32F30x_standard_peripheral/Source\gd32f30x_timer.c ****         TIMER_CCHP(timer_periph) |= (uint32_t)TIMER_CCHP_POEN;
 1429              		.loc 1 778 0
 1430 000e 436C     		ldr	r3, [r0, #68]
 1431 0010 43F40043 		orr	r3, r3, #32768
 1432 0014 4364     		str	r3, [r0, #68]
 1433 0016 7047     		bx	lr
 1434              		.cfi_endproc
 1435              	.LFE153:
 1437              		.section	.text.timer_channel_control_shadow_config,"ax",%progbits
 1438              		.align	1
 1439              		.global	timer_channel_control_shadow_config
 1440              		.syntax unified
 1441              		.thumb
 1442              		.thumb_func
 1443              		.fpu fpv4-sp-d16
 1445              	timer_channel_control_shadow_config:
 1446              	.LFB154:
 783:C:/Users/49542/Desktop/GD32F30x_Demo_Suites_V2.0.0/GD32F30x_Demo_Suites_V2.0.0/GD32F30x_Firmware_Library/GD32F30x_standard_peripheral/Source\gd32f30x_timer.c **** 
 784:C:/Users/49542/Desktop/GD32F30x_Demo_Suites_V2.0.0/GD32F30x_Demo_Suites_V2.0.0/GD32F30x_Firmware_Library/GD32F30x_standard_peripheral/Source\gd32f30x_timer.c **** /*!
 785:C:/Users/49542/Desktop/GD32F30x_Demo_Suites_V2.0.0/GD32F30x_Demo_Suites_V2.0.0/GD32F30x_Firmware_Library/GD32F30x_standard_peripheral/Source\gd32f30x_timer.c ****     \brief      enable or disable channel capture/compare control shadow register
 786:C:/Users/49542/Desktop/GD32F30x_Demo_Suites_V2.0.0/GD32F30x_Demo_Suites_V2.0.0/GD32F30x_Firmware_Library/GD32F30x_standard_peripheral/Source\gd32f30x_timer.c ****     \param[in]  timer_periph: TIMERx(x=0,7)
 787:C:/Users/49542/Desktop/GD32F30x_Demo_Suites_V2.0.0/GD32F30x_Demo_Suites_V2.0.0/GD32F30x_Firmware_Library/GD32F30x_standard_peripheral/Source\gd32f30x_timer.c ****     \param[in]  newvalue: ENABLE or DISABLE 
 788:C:/Users/49542/Desktop/GD32F30x_Demo_Suites_V2.0.0/GD32F30x_Demo_Suites_V2.0.0/GD32F30x_Firmware_Library/GD32F30x_standard_peripheral/Source\gd32f30x_timer.c ****     \param[out] none
 789:C:/Users/49542/Desktop/GD32F30x_Demo_Suites_V2.0.0/GD32F30x_Demo_Suites_V2.0.0/GD32F30x_Firmware_Library/GD32F30x_standard_peripheral/Source\gd32f30x_timer.c ****     \retval     none
 790:C:/Users/49542/Desktop/GD32F30x_Demo_Suites_V2.0.0/GD32F30x_Demo_Suites_V2.0.0/GD32F30x_Firmware_Library/GD32F30x_standard_peripheral/Source\gd32f30x_timer.c **** */
 791:C:/Users/49542/Desktop/GD32F30x_Demo_Suites_V2.0.0/GD32F30x_Demo_Suites_V2.0.0/GD32F30x_Firmware_Library/GD32F30x_standard_peripheral/Source\gd32f30x_timer.c **** void timer_channel_control_shadow_config(uint32_t timer_periph, ControlStatus newvalue)
 792:C:/Users/49542/Desktop/GD32F30x_Demo_Suites_V2.0.0/GD32F30x_Demo_Suites_V2.0.0/GD32F30x_Firmware_Library/GD32F30x_standard_peripheral/Source\gd32f30x_timer.c **** {
 1447              		.loc 1 792 0
 1448              		.cfi_startproc
 1449              		@ args = 0, pretend = 0, frame = 0
 1450              		@ frame_needed = 0, uses_anonymous_args = 0
 1451              		@ link register save eliminated.
 1452              	.LVL114:
 793:C:/Users/49542/Desktop/GD32F30x_Demo_Suites_V2.0.0/GD32F30x_Demo_Suites_V2.0.0/GD32F30x_Firmware_Library/GD32F30x_standard_peripheral/Source\gd32f30x_timer.c ****      if(ENABLE == newvalue){
 1453              		.loc 1 793 0
 1454 0000 0129     		cmp	r1, #1
 1455 0002 04D0     		beq	.L95
 794:C:/Users/49542/Desktop/GD32F30x_Demo_Suites_V2.0.0/GD32F30x_Demo_Suites_V2.0.0/GD32F30x_Firmware_Library/GD32F30x_standard_peripheral/Source\gd32f30x_timer.c ****         TIMER_CTL1(timer_periph) |= (uint32_t)TIMER_CTL1_CCSE;
 795:C:/Users/49542/Desktop/GD32F30x_Demo_Suites_V2.0.0/GD32F30x_Demo_Suites_V2.0.0/GD32F30x_Firmware_Library/GD32F30x_standard_peripheral/Source\gd32f30x_timer.c ****     }else{
ARM GAS  C:\Users\49542\AppData\Local\Temp\ccEBNRSE.s 			page 40


 796:C:/Users/49542/Desktop/GD32F30x_Demo_Suites_V2.0.0/GD32F30x_Demo_Suites_V2.0.0/GD32F30x_Firmware_Library/GD32F30x_standard_peripheral/Source\gd32f30x_timer.c ****         TIMER_CTL1(timer_periph) &= (~(uint32_t)TIMER_CTL1_CCSE);
 1456              		.loc 1 796 0
 1457 0004 4368     		ldr	r3, [r0, #4]
 1458 0006 23F00103 		bic	r3, r3, #1
 1459 000a 4360     		str	r3, [r0, #4]
 797:C:/Users/49542/Desktop/GD32F30x_Demo_Suites_V2.0.0/GD32F30x_Demo_Suites_V2.0.0/GD32F30x_Firmware_Library/GD32F30x_standard_peripheral/Source\gd32f30x_timer.c ****     }
 798:C:/Users/49542/Desktop/GD32F30x_Demo_Suites_V2.0.0/GD32F30x_Demo_Suites_V2.0.0/GD32F30x_Firmware_Library/GD32F30x_standard_peripheral/Source\gd32f30x_timer.c **** }
 1460              		.loc 1 798 0
 1461 000c 7047     		bx	lr
 1462              	.L95:
 794:C:/Users/49542/Desktop/GD32F30x_Demo_Suites_V2.0.0/GD32F30x_Demo_Suites_V2.0.0/GD32F30x_Firmware_Library/GD32F30x_standard_peripheral/Source\gd32f30x_timer.c ****         TIMER_CTL1(timer_periph) |= (uint32_t)TIMER_CTL1_CCSE;
 1463              		.loc 1 794 0
 1464 000e 4368     		ldr	r3, [r0, #4]
 1465 0010 43F00103 		orr	r3, r3, #1
 1466 0014 4360     		str	r3, [r0, #4]
 1467 0016 7047     		bx	lr
 1468              		.cfi_endproc
 1469              	.LFE154:
 1471              		.section	.text.timer_channel_control_shadow_update_config,"ax",%progbits
 1472              		.align	1
 1473              		.global	timer_channel_control_shadow_update_config
 1474              		.syntax unified
 1475              		.thumb
 1476              		.thumb_func
 1477              		.fpu fpv4-sp-d16
 1479              	timer_channel_control_shadow_update_config:
 1480              	.LFB155:
 799:C:/Users/49542/Desktop/GD32F30x_Demo_Suites_V2.0.0/GD32F30x_Demo_Suites_V2.0.0/GD32F30x_Firmware_Library/GD32F30x_standard_peripheral/Source\gd32f30x_timer.c **** 
 800:C:/Users/49542/Desktop/GD32F30x_Demo_Suites_V2.0.0/GD32F30x_Demo_Suites_V2.0.0/GD32F30x_Firmware_Library/GD32F30x_standard_peripheral/Source\gd32f30x_timer.c **** /*!
 801:C:/Users/49542/Desktop/GD32F30x_Demo_Suites_V2.0.0/GD32F30x_Demo_Suites_V2.0.0/GD32F30x_Firmware_Library/GD32F30x_standard_peripheral/Source\gd32f30x_timer.c ****     \brief      configure TIMER channel control shadow register update control
 802:C:/Users/49542/Desktop/GD32F30x_Demo_Suites_V2.0.0/GD32F30x_Demo_Suites_V2.0.0/GD32F30x_Firmware_Library/GD32F30x_standard_peripheral/Source\gd32f30x_timer.c ****     \param[in]  timer_periph: TIMERx(x=0,7)
 803:C:/Users/49542/Desktop/GD32F30x_Demo_Suites_V2.0.0/GD32F30x_Demo_Suites_V2.0.0/GD32F30x_Firmware_Library/GD32F30x_standard_peripheral/Source\gd32f30x_timer.c ****     \param[in]  ccuctl: channel control shadow register update control
 804:C:/Users/49542/Desktop/GD32F30x_Demo_Suites_V2.0.0/GD32F30x_Demo_Suites_V2.0.0/GD32F30x_Firmware_Library/GD32F30x_standard_peripheral/Source\gd32f30x_timer.c ****                 only one parameter can be selected which is shown as below:
 805:C:/Users/49542/Desktop/GD32F30x_Demo_Suites_V2.0.0/GD32F30x_Demo_Suites_V2.0.0/GD32F30x_Firmware_Library/GD32F30x_standard_peripheral/Source\gd32f30x_timer.c ****       \arg        TIMER_UPDATECTL_CCU: the shadow registers update by when CMTG bit is set
 806:C:/Users/49542/Desktop/GD32F30x_Demo_Suites_V2.0.0/GD32F30x_Demo_Suites_V2.0.0/GD32F30x_Firmware_Library/GD32F30x_standard_peripheral/Source\gd32f30x_timer.c ****       \arg        TIMER_UPDATECTL_CCUTRI: the shadow registers update by when CMTG bit is set or an
 807:C:/Users/49542/Desktop/GD32F30x_Demo_Suites_V2.0.0/GD32F30x_Demo_Suites_V2.0.0/GD32F30x_Firmware_Library/GD32F30x_standard_peripheral/Source\gd32f30x_timer.c ****     \param[out] none
 808:C:/Users/49542/Desktop/GD32F30x_Demo_Suites_V2.0.0/GD32F30x_Demo_Suites_V2.0.0/GD32F30x_Firmware_Library/GD32F30x_standard_peripheral/Source\gd32f30x_timer.c ****     \retval     none
 809:C:/Users/49542/Desktop/GD32F30x_Demo_Suites_V2.0.0/GD32F30x_Demo_Suites_V2.0.0/GD32F30x_Firmware_Library/GD32F30x_standard_peripheral/Source\gd32f30x_timer.c **** */              
 810:C:/Users/49542/Desktop/GD32F30x_Demo_Suites_V2.0.0/GD32F30x_Demo_Suites_V2.0.0/GD32F30x_Firmware_Library/GD32F30x_standard_peripheral/Source\gd32f30x_timer.c **** void timer_channel_control_shadow_update_config(uint32_t timer_periph, uint8_t ccuctl)
 811:C:/Users/49542/Desktop/GD32F30x_Demo_Suites_V2.0.0/GD32F30x_Demo_Suites_V2.0.0/GD32F30x_Firmware_Library/GD32F30x_standard_peripheral/Source\gd32f30x_timer.c **** {
 1481              		.loc 1 811 0
 1482              		.cfi_startproc
 1483              		@ args = 0, pretend = 0, frame = 0
 1484              		@ frame_needed = 0, uses_anonymous_args = 0
 1485              		@ link register save eliminated.
 1486              	.LVL115:
 812:C:/Users/49542/Desktop/GD32F30x_Demo_Suites_V2.0.0/GD32F30x_Demo_Suites_V2.0.0/GD32F30x_Firmware_Library/GD32F30x_standard_peripheral/Source\gd32f30x_timer.c ****     if(TIMER_UPDATECTL_CCU == ccuctl){
 1487              		.loc 1 812 0
 1488 0000 11B1     		cbz	r1, .L99
 813:C:/Users/49542/Desktop/GD32F30x_Demo_Suites_V2.0.0/GD32F30x_Demo_Suites_V2.0.0/GD32F30x_Firmware_Library/GD32F30x_standard_peripheral/Source\gd32f30x_timer.c ****         TIMER_CTL1(timer_periph) &= (~(uint32_t)TIMER_CTL1_CCUC);
 814:C:/Users/49542/Desktop/GD32F30x_Demo_Suites_V2.0.0/GD32F30x_Demo_Suites_V2.0.0/GD32F30x_Firmware_Library/GD32F30x_standard_peripheral/Source\gd32f30x_timer.c ****     }else if(TIMER_UPDATECTL_CCUTRI == ccuctl){
 1489              		.loc 1 814 0
 1490 0002 0129     		cmp	r1, #1
 1491 0004 05D0     		beq	.L100
 1492              	.L96:
 815:C:/Users/49542/Desktop/GD32F30x_Demo_Suites_V2.0.0/GD32F30x_Demo_Suites_V2.0.0/GD32F30x_Firmware_Library/GD32F30x_standard_peripheral/Source\gd32f30x_timer.c ****         TIMER_CTL1(timer_periph) |= (uint32_t)TIMER_CTL1_CCUC;
 816:C:/Users/49542/Desktop/GD32F30x_Demo_Suites_V2.0.0/GD32F30x_Demo_Suites_V2.0.0/GD32F30x_Firmware_Library/GD32F30x_standard_peripheral/Source\gd32f30x_timer.c ****     }else{
ARM GAS  C:\Users\49542\AppData\Local\Temp\ccEBNRSE.s 			page 41


 817:C:/Users/49542/Desktop/GD32F30x_Demo_Suites_V2.0.0/GD32F30x_Demo_Suites_V2.0.0/GD32F30x_Firmware_Library/GD32F30x_standard_peripheral/Source\gd32f30x_timer.c ****         /* illegal parameters */
 818:C:/Users/49542/Desktop/GD32F30x_Demo_Suites_V2.0.0/GD32F30x_Demo_Suites_V2.0.0/GD32F30x_Firmware_Library/GD32F30x_standard_peripheral/Source\gd32f30x_timer.c ****     }
 819:C:/Users/49542/Desktop/GD32F30x_Demo_Suites_V2.0.0/GD32F30x_Demo_Suites_V2.0.0/GD32F30x_Firmware_Library/GD32F30x_standard_peripheral/Source\gd32f30x_timer.c **** }
 1493              		.loc 1 819 0
 1494 0006 7047     		bx	lr
 1495              	.L99:
 813:C:/Users/49542/Desktop/GD32F30x_Demo_Suites_V2.0.0/GD32F30x_Demo_Suites_V2.0.0/GD32F30x_Firmware_Library/GD32F30x_standard_peripheral/Source\gd32f30x_timer.c ****         TIMER_CTL1(timer_periph) &= (~(uint32_t)TIMER_CTL1_CCUC);
 1496              		.loc 1 813 0
 1497 0008 4368     		ldr	r3, [r0, #4]
 1498 000a 23F00403 		bic	r3, r3, #4
 1499 000e 4360     		str	r3, [r0, #4]
 1500 0010 7047     		bx	lr
 1501              	.L100:
 815:C:/Users/49542/Desktop/GD32F30x_Demo_Suites_V2.0.0/GD32F30x_Demo_Suites_V2.0.0/GD32F30x_Firmware_Library/GD32F30x_standard_peripheral/Source\gd32f30x_timer.c ****         TIMER_CTL1(timer_periph) |= (uint32_t)TIMER_CTL1_CCUC;
 1502              		.loc 1 815 0
 1503 0012 4368     		ldr	r3, [r0, #4]
 1504 0014 43F00403 		orr	r3, r3, #4
 1505 0018 4360     		str	r3, [r0, #4]
 1506              		.loc 1 819 0
 1507 001a F4E7     		b	.L96
 1508              		.cfi_endproc
 1509              	.LFE155:
 1511              		.section	.text.timer_channel_output_struct_para_init,"ax",%progbits
 1512              		.align	1
 1513              		.global	timer_channel_output_struct_para_init
 1514              		.syntax unified
 1515              		.thumb
 1516              		.thumb_func
 1517              		.fpu fpv4-sp-d16
 1519              	timer_channel_output_struct_para_init:
 1520              	.LFB156:
 820:C:/Users/49542/Desktop/GD32F30x_Demo_Suites_V2.0.0/GD32F30x_Demo_Suites_V2.0.0/GD32F30x_Firmware_Library/GD32F30x_standard_peripheral/Source\gd32f30x_timer.c **** 
 821:C:/Users/49542/Desktop/GD32F30x_Demo_Suites_V2.0.0/GD32F30x_Demo_Suites_V2.0.0/GD32F30x_Firmware_Library/GD32F30x_standard_peripheral/Source\gd32f30x_timer.c **** /*!
 822:C:/Users/49542/Desktop/GD32F30x_Demo_Suites_V2.0.0/GD32F30x_Demo_Suites_V2.0.0/GD32F30x_Firmware_Library/GD32F30x_standard_peripheral/Source\gd32f30x_timer.c ****     \brief      initialize TIMER channel output parameter struct with a default value
 823:C:/Users/49542/Desktop/GD32F30x_Demo_Suites_V2.0.0/GD32F30x_Demo_Suites_V2.0.0/GD32F30x_Firmware_Library/GD32F30x_standard_peripheral/Source\gd32f30x_timer.c ****     \param[in]  ocpara: TIMER channel n output parameter struct
 824:C:/Users/49542/Desktop/GD32F30x_Demo_Suites_V2.0.0/GD32F30x_Demo_Suites_V2.0.0/GD32F30x_Firmware_Library/GD32F30x_standard_peripheral/Source\gd32f30x_timer.c ****     \param[out] none
 825:C:/Users/49542/Desktop/GD32F30x_Demo_Suites_V2.0.0/GD32F30x_Demo_Suites_V2.0.0/GD32F30x_Firmware_Library/GD32F30x_standard_peripheral/Source\gd32f30x_timer.c ****     \retval     none
 826:C:/Users/49542/Desktop/GD32F30x_Demo_Suites_V2.0.0/GD32F30x_Demo_Suites_V2.0.0/GD32F30x_Firmware_Library/GD32F30x_standard_peripheral/Source\gd32f30x_timer.c **** */
 827:C:/Users/49542/Desktop/GD32F30x_Demo_Suites_V2.0.0/GD32F30x_Demo_Suites_V2.0.0/GD32F30x_Firmware_Library/GD32F30x_standard_peripheral/Source\gd32f30x_timer.c **** void timer_channel_output_struct_para_init(timer_oc_parameter_struct* ocpara)
 828:C:/Users/49542/Desktop/GD32F30x_Demo_Suites_V2.0.0/GD32F30x_Demo_Suites_V2.0.0/GD32F30x_Firmware_Library/GD32F30x_standard_peripheral/Source\gd32f30x_timer.c **** {
 1521              		.loc 1 828 0
 1522              		.cfi_startproc
 1523              		@ args = 0, pretend = 0, frame = 0
 1524              		@ frame_needed = 0, uses_anonymous_args = 0
 1525              		@ link register save eliminated.
 1526              	.LVL116:
 829:C:/Users/49542/Desktop/GD32F30x_Demo_Suites_V2.0.0/GD32F30x_Demo_Suites_V2.0.0/GD32F30x_Firmware_Library/GD32F30x_standard_peripheral/Source\gd32f30x_timer.c ****     /* initialize the channel output parameter struct member with the default value */
 830:C:/Users/49542/Desktop/GD32F30x_Demo_Suites_V2.0.0/GD32F30x_Demo_Suites_V2.0.0/GD32F30x_Firmware_Library/GD32F30x_standard_peripheral/Source\gd32f30x_timer.c ****     ocpara->outputstate  = (uint16_t)TIMER_CCX_DISABLE;
 1527              		.loc 1 830 0
 1528 0000 0023     		movs	r3, #0
 1529 0002 0380     		strh	r3, [r0]	@ movhi
 831:C:/Users/49542/Desktop/GD32F30x_Demo_Suites_V2.0.0/GD32F30x_Demo_Suites_V2.0.0/GD32F30x_Firmware_Library/GD32F30x_standard_peripheral/Source\gd32f30x_timer.c ****     ocpara->outputnstate = TIMER_CCXN_DISABLE;
 1530              		.loc 1 831 0
 1531 0004 4380     		strh	r3, [r0, #2]	@ movhi
 832:C:/Users/49542/Desktop/GD32F30x_Demo_Suites_V2.0.0/GD32F30x_Demo_Suites_V2.0.0/GD32F30x_Firmware_Library/GD32F30x_standard_peripheral/Source\gd32f30x_timer.c ****     ocpara->ocpolarity   = TIMER_OC_POLARITY_HIGH;
 1532              		.loc 1 832 0
 1533 0006 8380     		strh	r3, [r0, #4]	@ movhi
ARM GAS  C:\Users\49542\AppData\Local\Temp\ccEBNRSE.s 			page 42


 833:C:/Users/49542/Desktop/GD32F30x_Demo_Suites_V2.0.0/GD32F30x_Demo_Suites_V2.0.0/GD32F30x_Firmware_Library/GD32F30x_standard_peripheral/Source\gd32f30x_timer.c ****     ocpara->ocnpolarity  = TIMER_OCN_POLARITY_HIGH;
 1534              		.loc 1 833 0
 1535 0008 C380     		strh	r3, [r0, #6]	@ movhi
 834:C:/Users/49542/Desktop/GD32F30x_Demo_Suites_V2.0.0/GD32F30x_Demo_Suites_V2.0.0/GD32F30x_Firmware_Library/GD32F30x_standard_peripheral/Source\gd32f30x_timer.c ****     ocpara->ocidlestate  = TIMER_OC_IDLE_STATE_LOW;
 1536              		.loc 1 834 0
 1537 000a 0381     		strh	r3, [r0, #8]	@ movhi
 835:C:/Users/49542/Desktop/GD32F30x_Demo_Suites_V2.0.0/GD32F30x_Demo_Suites_V2.0.0/GD32F30x_Firmware_Library/GD32F30x_standard_peripheral/Source\gd32f30x_timer.c ****     ocpara->ocnidlestate = TIMER_OCN_IDLE_STATE_LOW;
 1538              		.loc 1 835 0
 1539 000c 4381     		strh	r3, [r0, #10]	@ movhi
 836:C:/Users/49542/Desktop/GD32F30x_Demo_Suites_V2.0.0/GD32F30x_Demo_Suites_V2.0.0/GD32F30x_Firmware_Library/GD32F30x_standard_peripheral/Source\gd32f30x_timer.c **** }
 1540              		.loc 1 836 0
 1541 000e 7047     		bx	lr
 1542              		.cfi_endproc
 1543              	.LFE156:
 1545              		.section	.text.timer_channel_output_config,"ax",%progbits
 1546              		.align	1
 1547              		.global	timer_channel_output_config
 1548              		.syntax unified
 1549              		.thumb
 1550              		.thumb_func
 1551              		.fpu fpv4-sp-d16
 1553              	timer_channel_output_config:
 1554              	.LFB157:
 837:C:/Users/49542/Desktop/GD32F30x_Demo_Suites_V2.0.0/GD32F30x_Demo_Suites_V2.0.0/GD32F30x_Firmware_Library/GD32F30x_standard_peripheral/Source\gd32f30x_timer.c **** 
 838:C:/Users/49542/Desktop/GD32F30x_Demo_Suites_V2.0.0/GD32F30x_Demo_Suites_V2.0.0/GD32F30x_Firmware_Library/GD32F30x_standard_peripheral/Source\gd32f30x_timer.c **** /*!
 839:C:/Users/49542/Desktop/GD32F30x_Demo_Suites_V2.0.0/GD32F30x_Demo_Suites_V2.0.0/GD32F30x_Firmware_Library/GD32F30x_standard_peripheral/Source\gd32f30x_timer.c ****     \brief      configure TIMER channel output function
 840:C:/Users/49542/Desktop/GD32F30x_Demo_Suites_V2.0.0/GD32F30x_Demo_Suites_V2.0.0/GD32F30x_Firmware_Library/GD32F30x_standard_peripheral/Source\gd32f30x_timer.c ****     \param[in]  timer_periph: please refer to the following parameters
 841:C:/Users/49542/Desktop/GD32F30x_Demo_Suites_V2.0.0/GD32F30x_Demo_Suites_V2.0.0/GD32F30x_Firmware_Library/GD32F30x_standard_peripheral/Source\gd32f30x_timer.c ****     \param[in]  channel:
 842:C:/Users/49542/Desktop/GD32F30x_Demo_Suites_V2.0.0/GD32F30x_Demo_Suites_V2.0.0/GD32F30x_Firmware_Library/GD32F30x_standard_peripheral/Source\gd32f30x_timer.c ****                 only one parameter can be selected which is shown as below:
 843:C:/Users/49542/Desktop/GD32F30x_Demo_Suites_V2.0.0/GD32F30x_Demo_Suites_V2.0.0/GD32F30x_Firmware_Library/GD32F30x_standard_peripheral/Source\gd32f30x_timer.c ****       \arg        TIMER_CH_0: TIMER channel 0(TIMERx(x=0..4,7..13))
 844:C:/Users/49542/Desktop/GD32F30x_Demo_Suites_V2.0.0/GD32F30x_Demo_Suites_V2.0.0/GD32F30x_Firmware_Library/GD32F30x_standard_peripheral/Source\gd32f30x_timer.c ****       \arg        TIMER_CH_1: TIMER channel 1(TIMERx(x=0..4,7,8,11))
 845:C:/Users/49542/Desktop/GD32F30x_Demo_Suites_V2.0.0/GD32F30x_Demo_Suites_V2.0.0/GD32F30x_Firmware_Library/GD32F30x_standard_peripheral/Source\gd32f30x_timer.c ****       \arg        TIMER_CH_2: TIMER channel 2(TIMERx(x=0..4,7))
 846:C:/Users/49542/Desktop/GD32F30x_Demo_Suites_V2.0.0/GD32F30x_Demo_Suites_V2.0.0/GD32F30x_Firmware_Library/GD32F30x_standard_peripheral/Source\gd32f30x_timer.c ****       \arg        TIMER_CH_3: TIMER channel 3(TIMERx(x=0..4,7))
 847:C:/Users/49542/Desktop/GD32F30x_Demo_Suites_V2.0.0/GD32F30x_Demo_Suites_V2.0.0/GD32F30x_Firmware_Library/GD32F30x_standard_peripheral/Source\gd32f30x_timer.c ****     \param[in]  ocpara: TIMER channeln output parameter struct
 848:C:/Users/49542/Desktop/GD32F30x_Demo_Suites_V2.0.0/GD32F30x_Demo_Suites_V2.0.0/GD32F30x_Firmware_Library/GD32F30x_standard_peripheral/Source\gd32f30x_timer.c ****                 outputstate: TIMER_CCX_ENABLE,TIMER_CCX_DISABLE
 849:C:/Users/49542/Desktop/GD32F30x_Demo_Suites_V2.0.0/GD32F30x_Demo_Suites_V2.0.0/GD32F30x_Firmware_Library/GD32F30x_standard_peripheral/Source\gd32f30x_timer.c ****                 outputnstate: TIMER_CCXN_ENABLE,TIMER_CCXN_DISABLE
 850:C:/Users/49542/Desktop/GD32F30x_Demo_Suites_V2.0.0/GD32F30x_Demo_Suites_V2.0.0/GD32F30x_Firmware_Library/GD32F30x_standard_peripheral/Source\gd32f30x_timer.c ****                 ocpolarity: TIMER_OC_POLARITY_HIGH,TIMER_OC_POLARITY_LOW
 851:C:/Users/49542/Desktop/GD32F30x_Demo_Suites_V2.0.0/GD32F30x_Demo_Suites_V2.0.0/GD32F30x_Firmware_Library/GD32F30x_standard_peripheral/Source\gd32f30x_timer.c ****                 ocnpolarity: TIMER_OCN_POLARITY_HIGH,TIMER_OCN_POLARITY_LOW
 852:C:/Users/49542/Desktop/GD32F30x_Demo_Suites_V2.0.0/GD32F30x_Demo_Suites_V2.0.0/GD32F30x_Firmware_Library/GD32F30x_standard_peripheral/Source\gd32f30x_timer.c ****                 ocidlestate: TIMER_OC_IDLE_STATE_LOW,TIMER_OC_IDLE_STATE_HIGH
 853:C:/Users/49542/Desktop/GD32F30x_Demo_Suites_V2.0.0/GD32F30x_Demo_Suites_V2.0.0/GD32F30x_Firmware_Library/GD32F30x_standard_peripheral/Source\gd32f30x_timer.c ****                 ocnidlestate: TIMER_OCN_IDLE_STATE_LOW,TIMER_OCN_IDLE_STATE_HIGH
 854:C:/Users/49542/Desktop/GD32F30x_Demo_Suites_V2.0.0/GD32F30x_Demo_Suites_V2.0.0/GD32F30x_Firmware_Library/GD32F30x_standard_peripheral/Source\gd32f30x_timer.c ****     \param[out] none
 855:C:/Users/49542/Desktop/GD32F30x_Demo_Suites_V2.0.0/GD32F30x_Demo_Suites_V2.0.0/GD32F30x_Firmware_Library/GD32F30x_standard_peripheral/Source\gd32f30x_timer.c ****     \retval     none
 856:C:/Users/49542/Desktop/GD32F30x_Demo_Suites_V2.0.0/GD32F30x_Demo_Suites_V2.0.0/GD32F30x_Firmware_Library/GD32F30x_standard_peripheral/Source\gd32f30x_timer.c **** */
 857:C:/Users/49542/Desktop/GD32F30x_Demo_Suites_V2.0.0/GD32F30x_Demo_Suites_V2.0.0/GD32F30x_Firmware_Library/GD32F30x_standard_peripheral/Source\gd32f30x_timer.c **** void timer_channel_output_config(uint32_t timer_periph, uint16_t channel, timer_oc_parameter_struct
 858:C:/Users/49542/Desktop/GD32F30x_Demo_Suites_V2.0.0/GD32F30x_Demo_Suites_V2.0.0/GD32F30x_Firmware_Library/GD32F30x_standard_peripheral/Source\gd32f30x_timer.c **** {
 1555              		.loc 1 858 0
 1556              		.cfi_startproc
 1557              		@ args = 0, pretend = 0, frame = 0
 1558              		@ frame_needed = 0, uses_anonymous_args = 0
 1559              		@ link register save eliminated.
 1560              	.LVL117:
 859:C:/Users/49542/Desktop/GD32F30x_Demo_Suites_V2.0.0/GD32F30x_Demo_Suites_V2.0.0/GD32F30x_Firmware_Library/GD32F30x_standard_peripheral/Source\gd32f30x_timer.c ****     switch(channel){
 1561              		.loc 1 859 0
 1562 0000 0329     		cmp	r1, #3
 1563 0002 00F2EE80 		bhi	.L102
 1564 0006 DFE811F0 		tbh	[pc, r1, lsl #1]
 1565              	.L105:
ARM GAS  C:\Users\49542\AppData\Local\Temp\ccEBNRSE.s 			page 43


 1566 000a 0400     		.2byte	(.L104-.L105)/2
 1567 000c 4100     		.2byte	(.L106-.L105)/2
 1568 000e 8400     		.2byte	(.L107-.L105)/2
 1569 0010 C600     		.2byte	(.L108-.L105)/2
 1570              		.p2align 1
 1571              	.L104:
 860:C:/Users/49542/Desktop/GD32F30x_Demo_Suites_V2.0.0/GD32F30x_Demo_Suites_V2.0.0/GD32F30x_Firmware_Library/GD32F30x_standard_peripheral/Source\gd32f30x_timer.c ****     /* configure TIMER_CH_0 */
 861:C:/Users/49542/Desktop/GD32F30x_Demo_Suites_V2.0.0/GD32F30x_Demo_Suites_V2.0.0/GD32F30x_Firmware_Library/GD32F30x_standard_peripheral/Source\gd32f30x_timer.c ****     case TIMER_CH_0:
 862:C:/Users/49542/Desktop/GD32F30x_Demo_Suites_V2.0.0/GD32F30x_Demo_Suites_V2.0.0/GD32F30x_Firmware_Library/GD32F30x_standard_peripheral/Source\gd32f30x_timer.c ****         /* reset the CH0EN bit */
 863:C:/Users/49542/Desktop/GD32F30x_Demo_Suites_V2.0.0/GD32F30x_Demo_Suites_V2.0.0/GD32F30x_Firmware_Library/GD32F30x_standard_peripheral/Source\gd32f30x_timer.c ****         TIMER_CHCTL2(timer_periph) &= (~(uint32_t)TIMER_CHCTL2_CH0EN);
 1572              		.loc 1 863 0
 1573 0012 036A     		ldr	r3, [r0, #32]
 1574 0014 23F00103 		bic	r3, r3, #1
 1575 0018 0362     		str	r3, [r0, #32]
 864:C:/Users/49542/Desktop/GD32F30x_Demo_Suites_V2.0.0/GD32F30x_Demo_Suites_V2.0.0/GD32F30x_Firmware_Library/GD32F30x_standard_peripheral/Source\gd32f30x_timer.c ****         TIMER_CHCTL0(timer_periph) &= ~(uint32_t)TIMER_CHCTL0_CH0MS;
 1576              		.loc 1 864 0
 1577 001a 8369     		ldr	r3, [r0, #24]
 1578 001c 23F00303 		bic	r3, r3, #3
 1579 0020 8361     		str	r3, [r0, #24]
 865:C:/Users/49542/Desktop/GD32F30x_Demo_Suites_V2.0.0/GD32F30x_Demo_Suites_V2.0.0/GD32F30x_Firmware_Library/GD32F30x_standard_peripheral/Source\gd32f30x_timer.c ****         /* set the CH0EN bit */
 866:C:/Users/49542/Desktop/GD32F30x_Demo_Suites_V2.0.0/GD32F30x_Demo_Suites_V2.0.0/GD32F30x_Firmware_Library/GD32F30x_standard_peripheral/Source\gd32f30x_timer.c ****         TIMER_CHCTL2(timer_periph) |= (uint32_t)ocpara->outputstate;
 1580              		.loc 1 866 0
 1581 0022 036A     		ldr	r3, [r0, #32]
 1582 0024 1188     		ldrh	r1, [r2]
 1583              	.LVL118:
 1584 0026 0B43     		orrs	r3, r3, r1
 1585 0028 0362     		str	r3, [r0, #32]
 867:C:/Users/49542/Desktop/GD32F30x_Demo_Suites_V2.0.0/GD32F30x_Demo_Suites_V2.0.0/GD32F30x_Firmware_Library/GD32F30x_standard_peripheral/Source\gd32f30x_timer.c ****         /* reset the CH0P bit */
