ARM GAS  C:\Users\49542\AppData\Local\Temp\ccEBNRSE.s 			page 1


   1              		.cpu cortex-m4
   2              		.eabi_attribute 27, 1
   3              		.eabi_attribute 28, 1
   4              		.eabi_attribute 20, 1
   5              		.eabi_attribute 21, 1
   6              		.eabi_attribute 23, 3
   7              		.eabi_attribute 24, 1
   8              		.eabi_attribute 25, 1
   9              		.eabi_attribute 26, 1
  10              		.eabi_attribute 30, 1
  11              		.eabi_attribute 34, 1
  12              		.eabi_attribute 18, 4
  13              		.file	"gd32f30x_timer.c"
  14              		.text
  15              	.Ltext0:
  16              		.cfi_sections	.debug_frame
  17              		.section	.text.timer_deinit,"ax",%progbits
  18              		.align	1
  19              		.global	timer_deinit
  20              		.syntax unified
  21              		.thumb
  22              		.thumb_func
  23              		.fpu fpv4-sp-d16
  25              	timer_deinit:
  26              	.LFB116:
  27              		.file 1 "C:/Users/49542/Desktop/GD32F30x_Demo_Suites_V2.0.0/GD32F30x_Demo_Suites_V2.0.0/GD32F30x_F
   1:C:/Users/49542/Desktop/GD32F30x_Demo_Suites_V2.0.0/GD32F30x_Demo_Suites_V2.0.0/GD32F30x_Firmware_Library/GD32F30x_standard_peripheral/Source\gd32f30x_timer.c **** /*!
   2:C:/Users/49542/Desktop/GD32F30x_Demo_Suites_V2.0.0/GD32F30x_Demo_Suites_V2.0.0/GD32F30x_Firmware_Library/GD32F30x_standard_peripheral/Source\gd32f30x_timer.c ****     \file  gd32f30x_timer.c
   3:C:/Users/49542/Desktop/GD32F30x_Demo_Suites_V2.0.0/GD32F30x_Demo_Suites_V2.0.0/GD32F30x_Firmware_Library/GD32F30x_standard_peripheral/Source\gd32f30x_timer.c ****     \brief TIMER driver
   4:C:/Users/49542/Desktop/GD32F30x_Demo_Suites_V2.0.0/GD32F30x_Demo_Suites_V2.0.0/GD32F30x_Firmware_Library/GD32F30x_standard_peripheral/Source\gd32f30x_timer.c **** 
   5:C:/Users/49542/Desktop/GD32F30x_Demo_Suites_V2.0.0/GD32F30x_Demo_Suites_V2.0.0/GD32F30x_Firmware_Library/GD32F30x_standard_peripheral/Source\gd32f30x_timer.c ****     \version 2017-02-10, V1.0.0, firmware for GD32F30x
   6:C:/Users/49542/Desktop/GD32F30x_Demo_Suites_V2.0.0/GD32F30x_Demo_Suites_V2.0.0/GD32F30x_Firmware_Library/GD32F30x_standard_peripheral/Source\gd32f30x_timer.c ****     \version 2018-10-10, V1.1.0, firmware for GD32F30x
   7:C:/Users/49542/Desktop/GD32F30x_Demo_Suites_V2.0.0/GD32F30x_Demo_Suites_V2.0.0/GD32F30x_Firmware_Library/GD32F30x_standard_peripheral/Source\gd32f30x_timer.c ****     \version 2018-12-25, V2.0.0, firmware for GD32F30x
   8:C:/Users/49542/Desktop/GD32F30x_Demo_Suites_V2.0.0/GD32F30x_Demo_Suites_V2.0.0/GD32F30x_Firmware_Library/GD32F30x_standard_peripheral/Source\gd32f30x_timer.c **** */
   9:C:/Users/49542/Desktop/GD32F30x_Demo_Suites_V2.0.0/GD32F30x_Demo_Suites_V2.0.0/GD32F30x_Firmware_Library/GD32F30x_standard_peripheral/Source\gd32f30x_timer.c **** 
  10:C:/Users/49542/Desktop/GD32F30x_Demo_Suites_V2.0.0/GD32F30x_Demo_Suites_V2.0.0/GD32F30x_Firmware_Library/GD32F30x_standard_peripheral/Source\gd32f30x_timer.c **** /*
  11:C:/Users/49542/Desktop/GD32F30x_Demo_Suites_V2.0.0/GD32F30x_Demo_Suites_V2.0.0/GD32F30x_Firmware_Library/GD32F30x_standard_peripheral/Source\gd32f30x_timer.c ****     Copyright (c) 2018, GigaDevice Semiconductor Inc.
  12:C:/Users/49542/Desktop/GD32F30x_Demo_Suites_V2.0.0/GD32F30x_Demo_Suites_V2.0.0/GD32F30x_Firmware_Library/GD32F30x_standard_peripheral/Source\gd32f30x_timer.c **** 
  13:C:/Users/49542/Desktop/GD32F30x_Demo_Suites_V2.0.0/GD32F30x_Demo_Suites_V2.0.0/GD32F30x_Firmware_Library/GD32F30x_standard_peripheral/Source\gd32f30x_timer.c ****     All rights reserved.
  14:C:/Users/49542/Desktop/GD32F30x_Demo_Suites_V2.0.0/GD32F30x_Demo_Suites_V2.0.0/GD32F30x_Firmware_Library/GD32F30x_standard_peripheral/Source\gd32f30x_timer.c **** 
  15:C:/Users/49542/Desktop/GD32F30x_Demo_Suites_V2.0.0/GD32F30x_Demo_Suites_V2.0.0/GD32F30x_Firmware_Library/GD32F30x_standard_peripheral/Source\gd32f30x_timer.c ****     Redistribution and use in source and binary forms, with or without modification, 
  16:C:/Users/49542/Desktop/GD32F30x_Demo_Suites_V2.0.0/GD32F30x_Demo_Suites_V2.0.0/GD32F30x_Firmware_Library/GD32F30x_standard_peripheral/Source\gd32f30x_timer.c **** are permitted provided that the following conditions are met:
  17:C:/Users/49542/Desktop/GD32F30x_Demo_Suites_V2.0.0/GD32F30x_Demo_Suites_V2.0.0/GD32F30x_Firmware_Library/GD32F30x_standard_peripheral/Source\gd32f30x_timer.c **** 
  18:C:/Users/49542/Desktop/GD32F30x_Demo_Suites_V2.0.0/GD32F30x_Demo_Suites_V2.0.0/GD32F30x_Firmware_Library/GD32F30x_standard_peripheral/Source\gd32f30x_timer.c ****     1. Redistributions of source code must retain the above copyright notice, this 
  19:C:/Users/49542/Desktop/GD32F30x_Demo_Suites_V2.0.0/GD32F30x_Demo_Suites_V2.0.0/GD32F30x_Firmware_Library/GD32F30x_standard_peripheral/Source\gd32f30x_timer.c ****        list of conditions and the following disclaimer.
  20:C:/Users/49542/Desktop/GD32F30x_Demo_Suites_V2.0.0/GD32F30x_Demo_Suites_V2.0.0/GD32F30x_Firmware_Library/GD32F30x_standard_peripheral/Source\gd32f30x_timer.c ****     2. Redistributions in binary form must reproduce the above copyright notice, 
  21:C:/Users/49542/Desktop/GD32F30x_Demo_Suites_V2.0.0/GD32F30x_Demo_Suites_V2.0.0/GD32F30x_Firmware_Library/GD32F30x_standard_peripheral/Source\gd32f30x_timer.c ****        this list of conditions and the following disclaimer in the documentation 
  22:C:/Users/49542/Desktop/GD32F30x_Demo_Suites_V2.0.0/GD32F30x_Demo_Suites_V2.0.0/GD32F30x_Firmware_Library/GD32F30x_standard_peripheral/Source\gd32f30x_timer.c ****        and/or other materials provided with the distribution.
  23:C:/Users/49542/Desktop/GD32F30x_Demo_Suites_V2.0.0/GD32F30x_Demo_Suites_V2.0.0/GD32F30x_Firmware_Library/GD32F30x_standard_peripheral/Source\gd32f30x_timer.c ****     3. Neither the name of the copyright holder nor the names of its contributors 
  24:C:/Users/49542/Desktop/GD32F30x_Demo_Suites_V2.0.0/GD32F30x_Demo_Suites_V2.0.0/GD32F30x_Firmware_Library/GD32F30x_standard_peripheral/Source\gd32f30x_timer.c ****        may be used to endorse or promote products derived from this software without 
  25:C:/Users/49542/Desktop/GD32F30x_Demo_Suites_V2.0.0/GD32F30x_Demo_Suites_V2.0.0/GD32F30x_Firmware_Library/GD32F30x_standard_peripheral/Source\gd32f30x_timer.c ****        specific prior written permission.
  26:C:/Users/49542/Desktop/GD32F30x_Demo_Suites_V2.0.0/GD32F30x_Demo_Suites_V2.0.0/GD32F30x_Firmware_Library/GD32F30x_standard_peripheral/Source\gd32f30x_timer.c **** 
  27:C:/Users/49542/Desktop/GD32F30x_Demo_Suites_V2.0.0/GD32F30x_Demo_Suites_V2.0.0/GD32F30x_Firmware_Library/GD32F30x_standard_peripheral/Source\gd32f30x_timer.c ****     THIS SOFTWARE IS PROVIDED BY THE COPYRIGHT HOLDERS AND CONTRIBUTORS "AS IS" 
  28:C:/Users/49542/Desktop/GD32F30x_Demo_Suites_V2.0.0/GD32F30x_Demo_Suites_V2.0.0/GD32F30x_Firmware_Library/GD32F30x_standard_peripheral/Source\gd32f30x_timer.c **** AND ANY EXPRESS OR IMPLIED WARRANTIES, INCLUDING, BUT NOT LIMITED TO, THE IMPLIED 
  29:C:/Users/49542/Desktop/GD32F30x_Demo_Suites_V2.0.0/GD32F30x_Demo_Suites_V2.0.0/GD32F30x_Firmware_Library/GD32F30x_standard_peripheral/Source\gd32f30x_timer.c **** WARRANTIES OF MERCHANTABILITY AND FITNESS FOR A PARTICULAR PURPOSE ARE DISCLAIMED. 
  30:C:/Users/49542/Desktop/GD32F30x_Demo_Suites_V2.0.0/GD32F30x_Demo_Suites_V2.0.0/GD32F30x_Firmware_Library/GD32F30x_standard_peripheral/Source\gd32f30x_timer.c **** IN NO EVENT SHALL THE COPYRIGHT HOLDER OR CONTRIBUTORS BE LIABLE FOR ANY DIRECT, 
  31:C:/Users/49542/Desktop/GD32F30x_Demo_Suites_V2.0.0/GD32F30x_Demo_Suites_V2.0.0/GD32F30x_Firmware_Library/GD32F30x_standard_peripheral/Source\gd32f30x_timer.c **** INDIRECT, INCIDENTAL, SPECIAL, EXEMPLARY, OR CONSEQUENTIAL DAMAGES (INCLUDING, BUT 
ARM GAS  C:\Users\49542\AppData\Local\Temp\ccEBNRSE.s 			page 2


  32:C:/Users/49542/Desktop/GD32F30x_Demo_Suites_V2.0.0/GD32F30x_Demo_Suites_V2.0.0/GD32F30x_Firmware_Library/GD32F30x_standard_peripheral/Source\gd32f30x_timer.c **** NOT LIMITED TO, PROCUREMENT OF SUBSTITUTE GOODS OR SERVICES; LOSS OF USE, DATA, OR 
  33:C:/Users/49542/Desktop/GD32F30x_Demo_Suites_V2.0.0/GD32F30x_Demo_Suites_V2.0.0/GD32F30x_Firmware_Library/GD32F30x_standard_peripheral/Source\gd32f30x_timer.c **** PROFITS; OR BUSINESS INTERRUPTION) HOWEVER CAUSED AND ON ANY THEORY OF LIABILITY, 
  34:C:/Users/49542/Desktop/GD32F30x_Demo_Suites_V2.0.0/GD32F30x_Demo_Suites_V2.0.0/GD32F30x_Firmware_Library/GD32F30x_standard_peripheral/Source\gd32f30x_timer.c **** WHETHER IN CONTRACT, STRICT LIABILITY, OR TORT (INCLUDING NEGLIGENCE OR OTHERWISE) 
  35:C:/Users/49542/Desktop/GD32F30x_Demo_Suites_V2.0.0/GD32F30x_Demo_Suites_V2.0.0/GD32F30x_Firmware_Library/GD32F30x_standard_peripheral/Source\gd32f30x_timer.c **** ARISING IN ANY WAY OUT OF THE USE OF THIS SOFTWARE, EVEN IF ADVISED OF THE POSSIBILITY 
  36:C:/Users/49542/Desktop/GD32F30x_Demo_Suites_V2.0.0/GD32F30x_Demo_Suites_V2.0.0/GD32F30x_Firmware_Library/GD32F30x_standard_peripheral/Source\gd32f30x_timer.c **** OF SUCH DAMAGE.
  37:C:/Users/49542/Desktop/GD32F30x_Demo_Suites_V2.0.0/GD32F30x_Demo_Suites_V2.0.0/GD32F30x_Firmware_Library/GD32F30x_standard_peripheral/Source\gd32f30x_timer.c **** */
  38:C:/Users/49542/Desktop/GD32F30x_Demo_Suites_V2.0.0/GD32F30x_Demo_Suites_V2.0.0/GD32F30x_Firmware_Library/GD32F30x_standard_peripheral/Source\gd32f30x_timer.c **** 
  39:C:/Users/49542/Desktop/GD32F30x_Demo_Suites_V2.0.0/GD32F30x_Demo_Suites_V2.0.0/GD32F30x_Firmware_Library/GD32F30x_standard_peripheral/Source\gd32f30x_timer.c **** #include "gd32f30x_timer.h"
  40:C:/Users/49542/Desktop/GD32F30x_Demo_Suites_V2.0.0/GD32F30x_Demo_Suites_V2.0.0/GD32F30x_Firmware_Library/GD32F30x_standard_peripheral/Source\gd32f30x_timer.c **** 
  41:C:/Users/49542/Desktop/GD32F30x_Demo_Suites_V2.0.0/GD32F30x_Demo_Suites_V2.0.0/GD32F30x_Firmware_Library/GD32F30x_standard_peripheral/Source\gd32f30x_timer.c **** /*!
  42:C:/Users/49542/Desktop/GD32F30x_Demo_Suites_V2.0.0/GD32F30x_Demo_Suites_V2.0.0/GD32F30x_Firmware_Library/GD32F30x_standard_peripheral/Source\gd32f30x_timer.c ****     \brief      deinit a TIMER
  43:C:/Users/49542/Desktop/GD32F30x_Demo_Suites_V2.0.0/GD32F30x_Demo_Suites_V2.0.0/GD32F30x_Firmware_Library/GD32F30x_standard_peripheral/Source\gd32f30x_timer.c ****     \param[in]  timer_periph: TIMERx(x=0..13)
  44:C:/Users/49542/Desktop/GD32F30x_Demo_Suites_V2.0.0/GD32F30x_Demo_Suites_V2.0.0/GD32F30x_Firmware_Library/GD32F30x_standard_peripheral/Source\gd32f30x_timer.c ****     \param[out] none
  45:C:/Users/49542/Desktop/GD32F30x_Demo_Suites_V2.0.0/GD32F30x_Demo_Suites_V2.0.0/GD32F30x_Firmware_Library/GD32F30x_standard_peripheral/Source\gd32f30x_timer.c ****     \retval     none
  46:C:/Users/49542/Desktop/GD32F30x_Demo_Suites_V2.0.0/GD32F30x_Demo_Suites_V2.0.0/GD32F30x_Firmware_Library/GD32F30x_standard_peripheral/Source\gd32f30x_timer.c **** */
  47:C:/Users/49542/Desktop/GD32F30x_Demo_Suites_V2.0.0/GD32F30x_Demo_Suites_V2.0.0/GD32F30x_Firmware_Library/GD32F30x_standard_peripheral/Source\gd32f30x_timer.c **** void timer_deinit(uint32_t timer_periph)
  48:C:/Users/49542/Desktop/GD32F30x_Demo_Suites_V2.0.0/GD32F30x_Demo_Suites_V2.0.0/GD32F30x_Firmware_Library/GD32F30x_standard_peripheral/Source\gd32f30x_timer.c **** {
  28              		.loc 1 48 0
  29              		.cfi_startproc
  30              		@ args = 0, pretend = 0, frame = 0
  31              		@ frame_needed = 0, uses_anonymous_args = 0
  32              	.LVL0:
  33 0000 08B5     		push	{r3, lr}
  34              	.LCFI0:
  35              		.cfi_def_cfa_offset 8
  36              		.cfi_offset 3, -8
  37              		.cfi_offset 14, -4
  49:C:/Users/49542/Desktop/GD32F30x_Demo_Suites_V2.0.0/GD32F30x_Demo_Suites_V2.0.0/GD32F30x_Firmware_Library/GD32F30x_standard_peripheral/Source\gd32f30x_timer.c ****     switch(timer_periph){
  38              		.loc 1 49 0
  39 0002 5B4B     		ldr	r3, .L23
  40 0004 9842     		cmp	r0, r3
  41 0006 00F0A180 		beq	.L3
  42 000a 1AD9     		bls	.L21
  43 000c 594B     		ldr	r3, .L23+4
  44 000e 9842     		cmp	r0, r3
  45 0010 00F08180 		beq	.L12
  46 0014 3ED8     		bhi	.L13
  47 0016 A3F58A33 		sub	r3, r3, #70656
  48 001a 9842     		cmp	r0, r3
  49 001c 00F09F80 		beq	.L14
  50 0020 03F58633 		add	r3, r3, #68608
  51 0024 9842     		cmp	r0, r3
  52 0026 49D0     		beq	.L15
  53 0028 A3F58833 		sub	r3, r3, #69632
  54 002c 9842     		cmp	r0, r3
  55 002e 4DD1     		bne	.L1
  50:C:/Users/49542/Desktop/GD32F30x_Demo_Suites_V2.0.0/GD32F30x_Demo_Suites_V2.0.0/GD32F30x_Firmware_Library/GD32F30x_standard_peripheral/Source\gd32f30x_timer.c ****     case TIMER0:
  51:C:/Users/49542/Desktop/GD32F30x_Demo_Suites_V2.0.0/GD32F30x_Demo_Suites_V2.0.0/GD32F30x_Firmware_Library/GD32F30x_standard_peripheral/Source\gd32f30x_timer.c ****         /* reset TIMER0 */
  52:C:/Users/49542/Desktop/GD32F30x_Demo_Suites_V2.0.0/GD32F30x_Demo_Suites_V2.0.0/GD32F30x_Firmware_Library/GD32F30x_standard_peripheral/Source\gd32f30x_timer.c ****         rcu_periph_reset_enable(RCU_TIMER0RST);
  53:C:/Users/49542/Desktop/GD32F30x_Demo_Suites_V2.0.0/GD32F30x_Demo_Suites_V2.0.0/GD32F30x_Firmware_Library/GD32F30x_standard_peripheral/Source\gd32f30x_timer.c ****         rcu_periph_reset_disable(RCU_TIMER0RST);
  54:C:/Users/49542/Desktop/GD32F30x_Demo_Suites_V2.0.0/GD32F30x_Demo_Suites_V2.0.0/GD32F30x_Firmware_Library/GD32F30x_standard_peripheral/Source\gd32f30x_timer.c ****         break;
  55:C:/Users/49542/Desktop/GD32F30x_Demo_Suites_V2.0.0/GD32F30x_Demo_Suites_V2.0.0/GD32F30x_Firmware_Library/GD32F30x_standard_peripheral/Source\gd32f30x_timer.c ****     case TIMER1:
  56:C:/Users/49542/Desktop/GD32F30x_Demo_Suites_V2.0.0/GD32F30x_Demo_Suites_V2.0.0/GD32F30x_Firmware_Library/GD32F30x_standard_peripheral/Source\gd32f30x_timer.c ****         /* reset TIMER1 */
  57:C:/Users/49542/Desktop/GD32F30x_Demo_Suites_V2.0.0/GD32F30x_Demo_Suites_V2.0.0/GD32F30x_Firmware_Library/GD32F30x_standard_peripheral/Source\gd32f30x_timer.c ****         rcu_periph_reset_enable(RCU_TIMER1RST);
  58:C:/Users/49542/Desktop/GD32F30x_Demo_Suites_V2.0.0/GD32F30x_Demo_Suites_V2.0.0/GD32F30x_Firmware_Library/GD32F30x_standard_peripheral/Source\gd32f30x_timer.c ****         rcu_periph_reset_disable(RCU_TIMER1RST);
  59:C:/Users/49542/Desktop/GD32F30x_Demo_Suites_V2.0.0/GD32F30x_Demo_Suites_V2.0.0/GD32F30x_Firmware_Library/GD32F30x_standard_peripheral/Source\gd32f30x_timer.c ****         break;
  60:C:/Users/49542/Desktop/GD32F30x_Demo_Suites_V2.0.0/GD32F30x_Demo_Suites_V2.0.0/GD32F30x_Firmware_Library/GD32F30x_standard_peripheral/Source\gd32f30x_timer.c ****     case TIMER2:
ARM GAS  C:\Users\49542\AppData\Local\Temp\ccEBNRSE.s 			page 3


  61:C:/Users/49542/Desktop/GD32F30x_Demo_Suites_V2.0.0/GD32F30x_Demo_Suites_V2.0.0/GD32F30x_Firmware_Library/GD32F30x_standard_peripheral/Source\gd32f30x_timer.c ****         /* reset TIMER2 */
  62:C:/Users/49542/Desktop/GD32F30x_Demo_Suites_V2.0.0/GD32F30x_Demo_Suites_V2.0.0/GD32F30x_Firmware_Library/GD32F30x_standard_peripheral/Source\gd32f30x_timer.c ****         rcu_periph_reset_enable(RCU_TIMER2RST);
  63:C:/Users/49542/Desktop/GD32F30x_Demo_Suites_V2.0.0/GD32F30x_Demo_Suites_V2.0.0/GD32F30x_Firmware_Library/GD32F30x_standard_peripheral/Source\gd32f30x_timer.c ****         rcu_periph_reset_disable(RCU_TIMER2RST);
  64:C:/Users/49542/Desktop/GD32F30x_Demo_Suites_V2.0.0/GD32F30x_Demo_Suites_V2.0.0/GD32F30x_Firmware_Library/GD32F30x_standard_peripheral/Source\gd32f30x_timer.c ****         break;
  65:C:/Users/49542/Desktop/GD32F30x_Demo_Suites_V2.0.0/GD32F30x_Demo_Suites_V2.0.0/GD32F30x_Firmware_Library/GD32F30x_standard_peripheral/Source\gd32f30x_timer.c ****     case TIMER3:
  66:C:/Users/49542/Desktop/GD32F30x_Demo_Suites_V2.0.0/GD32F30x_Demo_Suites_V2.0.0/GD32F30x_Firmware_Library/GD32F30x_standard_peripheral/Source\gd32f30x_timer.c ****         /* reset TIMER3 */
  67:C:/Users/49542/Desktop/GD32F30x_Demo_Suites_V2.0.0/GD32F30x_Demo_Suites_V2.0.0/GD32F30x_Firmware_Library/GD32F30x_standard_peripheral/Source\gd32f30x_timer.c ****         rcu_periph_reset_enable(RCU_TIMER3RST);
  68:C:/Users/49542/Desktop/GD32F30x_Demo_Suites_V2.0.0/GD32F30x_Demo_Suites_V2.0.0/GD32F30x_Firmware_Library/GD32F30x_standard_peripheral/Source\gd32f30x_timer.c ****         rcu_periph_reset_disable(RCU_TIMER3RST);
  69:C:/Users/49542/Desktop/GD32F30x_Demo_Suites_V2.0.0/GD32F30x_Demo_Suites_V2.0.0/GD32F30x_Firmware_Library/GD32F30x_standard_peripheral/Source\gd32f30x_timer.c ****         break;
  70:C:/Users/49542/Desktop/GD32F30x_Demo_Suites_V2.0.0/GD32F30x_Demo_Suites_V2.0.0/GD32F30x_Firmware_Library/GD32F30x_standard_peripheral/Source\gd32f30x_timer.c ****     case TIMER4:
  71:C:/Users/49542/Desktop/GD32F30x_Demo_Suites_V2.0.0/GD32F30x_Demo_Suites_V2.0.0/GD32F30x_Firmware_Library/GD32F30x_standard_peripheral/Source\gd32f30x_timer.c ****         /* reset TIMER4 */
  72:C:/Users/49542/Desktop/GD32F30x_Demo_Suites_V2.0.0/GD32F30x_Demo_Suites_V2.0.0/GD32F30x_Firmware_Library/GD32F30x_standard_peripheral/Source\gd32f30x_timer.c ****         rcu_periph_reset_enable(RCU_TIMER4RST);
  73:C:/Users/49542/Desktop/GD32F30x_Demo_Suites_V2.0.0/GD32F30x_Demo_Suites_V2.0.0/GD32F30x_Firmware_Library/GD32F30x_standard_peripheral/Source\gd32f30x_timer.c ****         rcu_periph_reset_disable(RCU_TIMER4RST);
  74:C:/Users/49542/Desktop/GD32F30x_Demo_Suites_V2.0.0/GD32F30x_Demo_Suites_V2.0.0/GD32F30x_Firmware_Library/GD32F30x_standard_peripheral/Source\gd32f30x_timer.c ****         break;
  75:C:/Users/49542/Desktop/GD32F30x_Demo_Suites_V2.0.0/GD32F30x_Demo_Suites_V2.0.0/GD32F30x_Firmware_Library/GD32F30x_standard_peripheral/Source\gd32f30x_timer.c ****     case TIMER5:
  76:C:/Users/49542/Desktop/GD32F30x_Demo_Suites_V2.0.0/GD32F30x_Demo_Suites_V2.0.0/GD32F30x_Firmware_Library/GD32F30x_standard_peripheral/Source\gd32f30x_timer.c ****         /* reset TIMER5 */
  77:C:/Users/49542/Desktop/GD32F30x_Demo_Suites_V2.0.0/GD32F30x_Demo_Suites_V2.0.0/GD32F30x_Firmware_Library/GD32F30x_standard_peripheral/Source\gd32f30x_timer.c ****         rcu_periph_reset_enable(RCU_TIMER5RST);
  78:C:/Users/49542/Desktop/GD32F30x_Demo_Suites_V2.0.0/GD32F30x_Demo_Suites_V2.0.0/GD32F30x_Firmware_Library/GD32F30x_standard_peripheral/Source\gd32f30x_timer.c ****         rcu_periph_reset_disable(RCU_TIMER5RST);
  79:C:/Users/49542/Desktop/GD32F30x_Demo_Suites_V2.0.0/GD32F30x_Demo_Suites_V2.0.0/GD32F30x_Firmware_Library/GD32F30x_standard_peripheral/Source\gd32f30x_timer.c ****         break;
  80:C:/Users/49542/Desktop/GD32F30x_Demo_Suites_V2.0.0/GD32F30x_Demo_Suites_V2.0.0/GD32F30x_Firmware_Library/GD32F30x_standard_peripheral/Source\gd32f30x_timer.c ****     case TIMER6:
  81:C:/Users/49542/Desktop/GD32F30x_Demo_Suites_V2.0.0/GD32F30x_Demo_Suites_V2.0.0/GD32F30x_Firmware_Library/GD32F30x_standard_peripheral/Source\gd32f30x_timer.c ****         /* reset TIMER6 */
  82:C:/Users/49542/Desktop/GD32F30x_Demo_Suites_V2.0.0/GD32F30x_Demo_Suites_V2.0.0/GD32F30x_Firmware_Library/GD32F30x_standard_peripheral/Source\gd32f30x_timer.c ****         rcu_periph_reset_enable(RCU_TIMER6RST);
  83:C:/Users/49542/Desktop/GD32F30x_Demo_Suites_V2.0.0/GD32F30x_Demo_Suites_V2.0.0/GD32F30x_Firmware_Library/GD32F30x_standard_peripheral/Source\gd32f30x_timer.c ****         rcu_periph_reset_disable(RCU_TIMER6RST);
  84:C:/Users/49542/Desktop/GD32F30x_Demo_Suites_V2.0.0/GD32F30x_Demo_Suites_V2.0.0/GD32F30x_Firmware_Library/GD32F30x_standard_peripheral/Source\gd32f30x_timer.c ****         break;
  85:C:/Users/49542/Desktop/GD32F30x_Demo_Suites_V2.0.0/GD32F30x_Demo_Suites_V2.0.0/GD32F30x_Firmware_Library/GD32F30x_standard_peripheral/Source\gd32f30x_timer.c ****     case TIMER7:
  86:C:/Users/49542/Desktop/GD32F30x_Demo_Suites_V2.0.0/GD32F30x_Demo_Suites_V2.0.0/GD32F30x_Firmware_Library/GD32F30x_standard_peripheral/Source\gd32f30x_timer.c ****         /* reset TIMER7 */
  87:C:/Users/49542/Desktop/GD32F30x_Demo_Suites_V2.0.0/GD32F30x_Demo_Suites_V2.0.0/GD32F30x_Firmware_Library/GD32F30x_standard_peripheral/Source\gd32f30x_timer.c ****         rcu_periph_reset_enable(RCU_TIMER7RST);
  88:C:/Users/49542/Desktop/GD32F30x_Demo_Suites_V2.0.0/GD32F30x_Demo_Suites_V2.0.0/GD32F30x_Firmware_Library/GD32F30x_standard_peripheral/Source\gd32f30x_timer.c ****         rcu_periph_reset_disable(RCU_TIMER7RST);
  89:C:/Users/49542/Desktop/GD32F30x_Demo_Suites_V2.0.0/GD32F30x_Demo_Suites_V2.0.0/GD32F30x_Firmware_Library/GD32F30x_standard_peripheral/Source\gd32f30x_timer.c ****         break;
  90:C:/Users/49542/Desktop/GD32F30x_Demo_Suites_V2.0.0/GD32F30x_Demo_Suites_V2.0.0/GD32F30x_Firmware_Library/GD32F30x_standard_peripheral/Source\gd32f30x_timer.c **** #ifndef GD32F30X_HD
  91:C:/Users/49542/Desktop/GD32F30x_Demo_Suites_V2.0.0/GD32F30x_Demo_Suites_V2.0.0/GD32F30x_Firmware_Library/GD32F30x_standard_peripheral/Source\gd32f30x_timer.c ****     case TIMER8:
  92:C:/Users/49542/Desktop/GD32F30x_Demo_Suites_V2.0.0/GD32F30x_Demo_Suites_V2.0.0/GD32F30x_Firmware_Library/GD32F30x_standard_peripheral/Source\gd32f30x_timer.c ****         /* reset TIMER8 */
  93:C:/Users/49542/Desktop/GD32F30x_Demo_Suites_V2.0.0/GD32F30x_Demo_Suites_V2.0.0/GD32F30x_Firmware_Library/GD32F30x_standard_peripheral/Source\gd32f30x_timer.c ****         rcu_periph_reset_enable(RCU_TIMER8RST);
  94:C:/Users/49542/Desktop/GD32F30x_Demo_Suites_V2.0.0/GD32F30x_Demo_Suites_V2.0.0/GD32F30x_Firmware_Library/GD32F30x_standard_peripheral/Source\gd32f30x_timer.c ****         rcu_periph_reset_disable(RCU_TIMER8RST);
  95:C:/Users/49542/Desktop/GD32F30x_Demo_Suites_V2.0.0/GD32F30x_Demo_Suites_V2.0.0/GD32F30x_Firmware_Library/GD32F30x_standard_peripheral/Source\gd32f30x_timer.c ****         break;
  96:C:/Users/49542/Desktop/GD32F30x_Demo_Suites_V2.0.0/GD32F30x_Demo_Suites_V2.0.0/GD32F30x_Firmware_Library/GD32F30x_standard_peripheral/Source\gd32f30x_timer.c ****     case TIMER9:
  97:C:/Users/49542/Desktop/GD32F30x_Demo_Suites_V2.0.0/GD32F30x_Demo_Suites_V2.0.0/GD32F30x_Firmware_Library/GD32F30x_standard_peripheral/Source\gd32f30x_timer.c ****         /* reset TIMER9 */
  98:C:/Users/49542/Desktop/GD32F30x_Demo_Suites_V2.0.0/GD32F30x_Demo_Suites_V2.0.0/GD32F30x_Firmware_Library/GD32F30x_standard_peripheral/Source\gd32f30x_timer.c ****         rcu_periph_reset_enable(RCU_TIMER9RST);
  99:C:/Users/49542/Desktop/GD32F30x_Demo_Suites_V2.0.0/GD32F30x_Demo_Suites_V2.0.0/GD32F30x_Firmware_Library/GD32F30x_standard_peripheral/Source\gd32f30x_timer.c ****         rcu_periph_reset_disable(RCU_TIMER9RST);
 100:C:/Users/49542/Desktop/GD32F30x_Demo_Suites_V2.0.0/GD32F30x_Demo_Suites_V2.0.0/GD32F30x_Firmware_Library/GD32F30x_standard_peripheral/Source\gd32f30x_timer.c ****         break;
 101:C:/Users/49542/Desktop/GD32F30x_Demo_Suites_V2.0.0/GD32F30x_Demo_Suites_V2.0.0/GD32F30x_Firmware_Library/GD32F30x_standard_peripheral/Source\gd32f30x_timer.c ****     case TIMER10:
 102:C:/Users/49542/Desktop/GD32F30x_Demo_Suites_V2.0.0/GD32F30x_Demo_Suites_V2.0.0/GD32F30x_Firmware_Library/GD32F30x_standard_peripheral/Source\gd32f30x_timer.c ****         /* reset TIMER10 */
 103:C:/Users/49542/Desktop/GD32F30x_Demo_Suites_V2.0.0/GD32F30x_Demo_Suites_V2.0.0/GD32F30x_Firmware_Library/GD32F30x_standard_peripheral/Source\gd32f30x_timer.c ****         rcu_periph_reset_enable(RCU_TIMER10RST);
 104:C:/Users/49542/Desktop/GD32F30x_Demo_Suites_V2.0.0/GD32F30x_Demo_Suites_V2.0.0/GD32F30x_Firmware_Library/GD32F30x_standard_peripheral/Source\gd32f30x_timer.c ****         rcu_periph_reset_disable(RCU_TIMER10RST);
 105:C:/Users/49542/Desktop/GD32F30x_Demo_Suites_V2.0.0/GD32F30x_Demo_Suites_V2.0.0/GD32F30x_Firmware_Library/GD32F30x_standard_peripheral/Source\gd32f30x_timer.c ****         break;
 106:C:/Users/49542/Desktop/GD32F30x_Demo_Suites_V2.0.0/GD32F30x_Demo_Suites_V2.0.0/GD32F30x_Firmware_Library/GD32F30x_standard_peripheral/Source\gd32f30x_timer.c ****     case TIMER11:
 107:C:/Users/49542/Desktop/GD32F30x_Demo_Suites_V2.0.0/GD32F30x_Demo_Suites_V2.0.0/GD32F30x_Firmware_Library/GD32F30x_standard_peripheral/Source\gd32f30x_timer.c ****         /* reset TIMER11 */
 108:C:/Users/49542/Desktop/GD32F30x_Demo_Suites_V2.0.0/GD32F30x_Demo_Suites_V2.0.0/GD32F30x_Firmware_Library/GD32F30x_standard_peripheral/Source\gd32f30x_timer.c ****         rcu_periph_reset_enable(RCU_TIMER11RST);
 109:C:/Users/49542/Desktop/GD32F30x_Demo_Suites_V2.0.0/GD32F30x_Demo_Suites_V2.0.0/GD32F30x_Firmware_Library/GD32F30x_standard_peripheral/Source\gd32f30x_timer.c ****         rcu_periph_reset_disable(RCU_TIMER11RST);
 110:C:/Users/49542/Desktop/GD32F30x_Demo_Suites_V2.0.0/GD32F30x_Demo_Suites_V2.0.0/GD32F30x_Firmware_Library/GD32F30x_standard_peripheral/Source\gd32f30x_timer.c ****         break;
 111:C:/Users/49542/Desktop/GD32F30x_Demo_Suites_V2.0.0/GD32F30x_Demo_Suites_V2.0.0/GD32F30x_Firmware_Library/GD32F30x_standard_peripheral/Source\gd32f30x_timer.c ****     case TIMER12:
 112:C:/Users/49542/Desktop/GD32F30x_Demo_Suites_V2.0.0/GD32F30x_Demo_Suites_V2.0.0/GD32F30x_Firmware_Library/GD32F30x_standard_peripheral/Source\gd32f30x_timer.c ****         /* reset TIMER12 */
 113:C:/Users/49542/Desktop/GD32F30x_Demo_Suites_V2.0.0/GD32F30x_Demo_Suites_V2.0.0/GD32F30x_Firmware_Library/GD32F30x_standard_peripheral/Source\gd32f30x_timer.c ****         rcu_periph_reset_enable(RCU_TIMER12RST);
  56              		.loc 1 113 0
  57 0030 40F20740 		movw	r0, #1031
  58              	.LVL1:
  59 0034 FFF7FEFF 		bl	rcu_periph_reset_enable
ARM GAS  C:\Users\49542\AppData\Local\Temp\ccEBNRSE.s 			page 4


  60              	.LVL2:
 114:C:/Users/49542/Desktop/GD32F30x_Demo_Suites_V2.0.0/GD32F30x_Demo_Suites_V2.0.0/GD32F30x_Firmware_Library/GD32F30x_standard_peripheral/Source\gd32f30x_timer.c ****         rcu_periph_reset_disable(RCU_TIMER12RST);
  61              		.loc 1 114 0
  62 0038 40F20740 		movw	r0, #1031
  63 003c FFF7FEFF 		bl	rcu_periph_reset_disable
  64              	.LVL3:
 115:C:/Users/49542/Desktop/GD32F30x_Demo_Suites_V2.0.0/GD32F30x_Demo_Suites_V2.0.0/GD32F30x_Firmware_Library/GD32F30x_standard_peripheral/Source\gd32f30x_timer.c ****         break;
  65              		.loc 1 115 0
  66 0040 44E0     		b	.L1
  67              	.LVL4:
  68              	.L21:
  49:C:/Users/49542/Desktop/GD32F30x_Demo_Suites_V2.0.0/GD32F30x_Demo_Suites_V2.0.0/GD32F30x_Firmware_Library/GD32F30x_standard_peripheral/Source\gd32f30x_timer.c ****     case TIMER0:
  69              		.loc 1 49 0
  70 0042 A3F58053 		sub	r3, r3, #4096
  71 0046 9842     		cmp	r0, r3
  72 0048 4AD0     		beq	.L5
  73 004a 13D9     		bls	.L22
  74 004c 4A4B     		ldr	r3, .L23+8
  75 004e 9842     		cmp	r0, r3
  76 0050 4FD0     		beq	.L9
  77 0052 03F58063 		add	r3, r3, #1024
  78 0056 9842     		cmp	r0, r3
  79 0058 54D0     		beq	.L10
  80 005a A3F50063 		sub	r3, r3, #2048
  81 005e 9842     		cmp	r0, r3
  82 0060 34D1     		bne	.L1
  72:C:/Users/49542/Desktop/GD32F30x_Demo_Suites_V2.0.0/GD32F30x_Demo_Suites_V2.0.0/GD32F30x_Firmware_Library/GD32F30x_standard_peripheral/Source\gd32f30x_timer.c ****         rcu_periph_reset_disable(RCU_TIMER4RST);
  83              		.loc 1 72 0
  84 0062 40F20340 		movw	r0, #1027
  85              	.LVL5:
  86 0066 FFF7FEFF 		bl	rcu_periph_reset_enable
  87              	.LVL6:
  73:C:/Users/49542/Desktop/GD32F30x_Demo_Suites_V2.0.0/GD32F30x_Demo_Suites_V2.0.0/GD32F30x_Firmware_Library/GD32F30x_standard_peripheral/Source\gd32f30x_timer.c ****         break;
  88              		.loc 1 73 0
  89 006a 40F20340 		movw	r0, #1027
  90 006e FFF7FEFF 		bl	rcu_periph_reset_disable
  91              	.LVL7:
  74:C:/Users/49542/Desktop/GD32F30x_Demo_Suites_V2.0.0/GD32F30x_Demo_Suites_V2.0.0/GD32F30x_Firmware_Library/GD32F30x_standard_peripheral/Source\gd32f30x_timer.c ****     case TIMER5:
  92              		.loc 1 74 0
  93 0072 2BE0     		b	.L1
  94              	.LVL8:
  95              	.L22:
  49:C:/Users/49542/Desktop/GD32F30x_Demo_Suites_V2.0.0/GD32F30x_Demo_Suites_V2.0.0/GD32F30x_Firmware_Library/GD32F30x_standard_peripheral/Source\gd32f30x_timer.c ****     case TIMER0:
  96              		.loc 1 49 0
  97 0074 B0F1804F 		cmp	r0, #1073741824
  98 0078 29D0     		beq	.L7
  99 007a A3F58063 		sub	r3, r3, #1024
 100 007e 9842     		cmp	r0, r3
 101 0080 24D1     		bne	.L1
  62:C:/Users/49542/Desktop/GD32F30x_Demo_Suites_V2.0.0/GD32F30x_Demo_Suites_V2.0.0/GD32F30x_Firmware_Library/GD32F30x_standard_peripheral/Source\gd32f30x_timer.c ****         rcu_periph_reset_disable(RCU_TIMER2RST);
 102              		.loc 1 62 0
 103 0082 40F20140 		movw	r0, #1025
 104              	.LVL9:
 105 0086 FFF7FEFF 		bl	rcu_periph_reset_enable
 106              	.LVL10:
  63:C:/Users/49542/Desktop/GD32F30x_Demo_Suites_V2.0.0/GD32F30x_Demo_Suites_V2.0.0/GD32F30x_Firmware_Library/GD32F30x_standard_peripheral/Source\gd32f30x_timer.c ****         break;
 107              		.loc 1 63 0
ARM GAS  C:\Users\49542\AppData\Local\Temp\ccEBNRSE.s 			page 5


 108 008a 40F20140 		movw	r0, #1025
 109 008e FFF7FEFF 		bl	rcu_periph_reset_disable
 110              	.LVL11:
  64:C:/Users/49542/Desktop/GD32F30x_Demo_Suites_V2.0.0/GD32F30x_Demo_Suites_V2.0.0/GD32F30x_Firmware_Library/GD32F30x_standard_peripheral/Source\gd32f30x_timer.c ****     case TIMER3:
 111              		.loc 1 64 0
 112 0092 1BE0     		b	.L1
 113              	.LVL12:
 114              	.L13:
  49:C:/Users/49542/Desktop/GD32F30x_Demo_Suites_V2.0.0/GD32F30x_Demo_Suites_V2.0.0/GD32F30x_Firmware_Library/GD32F30x_standard_peripheral/Source\gd32f30x_timer.c ****     case TIMER0:
 115              		.loc 1 49 0
 116 0094 394B     		ldr	r3, .L23+12
 117 0096 9842     		cmp	r0, r3
 118 0098 46D0     		beq	.L17
 119 009a 03F58063 		add	r3, r3, #1024
 120 009e 9842     		cmp	r0, r3
 121 00a0 4BD0     		beq	.L18
 122 00a2 A3F50063 		sub	r3, r3, #2048
 123 00a6 9842     		cmp	r0, r3
 124 00a8 10D1     		bne	.L1
  93:C:/Users/49542/Desktop/GD32F30x_Demo_Suites_V2.0.0/GD32F30x_Demo_Suites_V2.0.0/GD32F30x_Firmware_Library/GD32F30x_standard_peripheral/Source\gd32f30x_timer.c ****         rcu_periph_reset_disable(RCU_TIMER8RST);
 125              		.loc 1 93 0
 126 00aa 40F21330 		movw	r0, #787
 127              	.LVL13:
 128 00ae FFF7FEFF 		bl	rcu_periph_reset_enable
 129              	.LVL14:
  94:C:/Users/49542/Desktop/GD32F30x_Demo_Suites_V2.0.0/GD32F30x_Demo_Suites_V2.0.0/GD32F30x_Firmware_Library/GD32F30x_standard_peripheral/Source\gd32f30x_timer.c ****         break;
 130              		.loc 1 94 0
 131 00b2 40F21330 		movw	r0, #787
 132 00b6 FFF7FEFF 		bl	rcu_periph_reset_disable
 133              	.LVL15:
  95:C:/Users/49542/Desktop/GD32F30x_Demo_Suites_V2.0.0/GD32F30x_Demo_Suites_V2.0.0/GD32F30x_Firmware_Library/GD32F30x_standard_peripheral/Source\gd32f30x_timer.c ****     case TIMER9:
 134              		.loc 1 95 0
 135 00ba 07E0     		b	.L1
 136              	.LVL16:
 137              	.L15:
  52:C:/Users/49542/Desktop/GD32F30x_Demo_Suites_V2.0.0/GD32F30x_Demo_Suites_V2.0.0/GD32F30x_Firmware_Library/GD32F30x_standard_peripheral/Source\gd32f30x_timer.c ****         rcu_periph_reset_disable(RCU_TIMER0RST);
 138              		.loc 1 52 0
 139 00bc 40F20B30 		movw	r0, #779
 140              	.LVL17:
 141 00c0 FFF7FEFF 		bl	rcu_periph_reset_enable
 142              	.LVL18:
  53:C:/Users/49542/Desktop/GD32F30x_Demo_Suites_V2.0.0/GD32F30x_Demo_Suites_V2.0.0/GD32F30x_Firmware_Library/GD32F30x_standard_peripheral/Source\gd32f30x_timer.c ****         break;
 143              		.loc 1 53 0
 144 00c4 40F20B30 		movw	r0, #779
 145 00c8 FFF7FEFF 		bl	rcu_periph_reset_disable
 146              	.LVL19:
 147              	.L1:
 116:C:/Users/49542/Desktop/GD32F30x_Demo_Suites_V2.0.0/GD32F30x_Demo_Suites_V2.0.0/GD32F30x_Firmware_Library/GD32F30x_standard_peripheral/Source\gd32f30x_timer.c ****     case TIMER13:
 117:C:/Users/49542/Desktop/GD32F30x_Demo_Suites_V2.0.0/GD32F30x_Demo_Suites_V2.0.0/GD32F30x_Firmware_Library/GD32F30x_standard_peripheral/Source\gd32f30x_timer.c ****         /* reset TIMER13 */
 118:C:/Users/49542/Desktop/GD32F30x_Demo_Suites_V2.0.0/GD32F30x_Demo_Suites_V2.0.0/GD32F30x_Firmware_Library/GD32F30x_standard_peripheral/Source\gd32f30x_timer.c ****         rcu_periph_reset_enable(RCU_TIMER13RST);
 119:C:/Users/49542/Desktop/GD32F30x_Demo_Suites_V2.0.0/GD32F30x_Demo_Suites_V2.0.0/GD32F30x_Firmware_Library/GD32F30x_standard_peripheral/Source\gd32f30x_timer.c ****         rcu_periph_reset_disable(RCU_TIMER13RST);
 120:C:/Users/49542/Desktop/GD32F30x_Demo_Suites_V2.0.0/GD32F30x_Demo_Suites_V2.0.0/GD32F30x_Firmware_Library/GD32F30x_standard_peripheral/Source\gd32f30x_timer.c ****         break;
 121:C:/Users/49542/Desktop/GD32F30x_Demo_Suites_V2.0.0/GD32F30x_Demo_Suites_V2.0.0/GD32F30x_Firmware_Library/GD32F30x_standard_peripheral/Source\gd32f30x_timer.c **** #endif /* GD32F30X_HD */
 122:C:/Users/49542/Desktop/GD32F30x_Demo_Suites_V2.0.0/GD32F30x_Demo_Suites_V2.0.0/GD32F30x_Firmware_Library/GD32F30x_standard_peripheral/Source\gd32f30x_timer.c ****     default:
 123:C:/Users/49542/Desktop/GD32F30x_Demo_Suites_V2.0.0/GD32F30x_Demo_Suites_V2.0.0/GD32F30x_Firmware_Library/GD32F30x_standard_peripheral/Source\gd32f30x_timer.c ****         break;
 124:C:/Users/49542/Desktop/GD32F30x_Demo_Suites_V2.0.0/GD32F30x_Demo_Suites_V2.0.0/GD32F30x_Firmware_Library/GD32F30x_standard_peripheral/Source\gd32f30x_timer.c ****     }
 125:C:/Users/49542/Desktop/GD32F30x_Demo_Suites_V2.0.0/GD32F30x_Demo_Suites_V2.0.0/GD32F30x_Firmware_Library/GD32F30x_standard_peripheral/Source\gd32f30x_timer.c **** }
ARM GAS  C:\Users\49542\AppData\Local\Temp\ccEBNRSE.s 			page 6


 148              		.loc 1 125 0
 149 00cc 08BD     		pop	{r3, pc}
 150              	.LVL20:
 151              	.L7:
  57:C:/Users/49542/Desktop/GD32F30x_Demo_Suites_V2.0.0/GD32F30x_Demo_Suites_V2.0.0/GD32F30x_Firmware_Library/GD32F30x_standard_peripheral/Source\gd32f30x_timer.c ****         rcu_periph_reset_disable(RCU_TIMER1RST);
 152              		.loc 1 57 0
 153 00ce 4FF48060 		mov	r0, #1024
 154              	.LVL21:
 155 00d2 FFF7FEFF 		bl	rcu_periph_reset_enable
 156              	.LVL22:
  58:C:/Users/49542/Desktop/GD32F30x_Demo_Suites_V2.0.0/GD32F30x_Demo_Suites_V2.0.0/GD32F30x_Firmware_Library/GD32F30x_standard_peripheral/Source\gd32f30x_timer.c ****         break;
 157              		.loc 1 58 0
 158 00d6 4FF48060 		mov	r0, #1024
 159 00da FFF7FEFF 		bl	rcu_periph_reset_disable
 160              	.LVL23:
  59:C:/Users/49542/Desktop/GD32F30x_Demo_Suites_V2.0.0/GD32F30x_Demo_Suites_V2.0.0/GD32F30x_Firmware_Library/GD32F30x_standard_peripheral/Source\gd32f30x_timer.c ****     case TIMER2:
 161              		.loc 1 59 0
 162 00de F5E7     		b	.L1
 163              	.LVL24:
 164              	.L5:
  67:C:/Users/49542/Desktop/GD32F30x_Demo_Suites_V2.0.0/GD32F30x_Demo_Suites_V2.0.0/GD32F30x_Firmware_Library/GD32F30x_standard_peripheral/Source\gd32f30x_timer.c ****         rcu_periph_reset_disable(RCU_TIMER3RST);
 165              		.loc 1 67 0
 166 00e0 40F20240 		movw	r0, #1026
 167              	.LVL25:
 168 00e4 FFF7FEFF 		bl	rcu_periph_reset_enable
 169              	.LVL26:
  68:C:/Users/49542/Desktop/GD32F30x_Demo_Suites_V2.0.0/GD32F30x_Demo_Suites_V2.0.0/GD32F30x_Firmware_Library/GD32F30x_standard_peripheral/Source\gd32f30x_timer.c ****         break;
 170              		.loc 1 68 0
 171 00e8 40F20240 		movw	r0, #1026
 172 00ec FFF7FEFF 		bl	rcu_periph_reset_disable
 173              	.LVL27:
  69:C:/Users/49542/Desktop/GD32F30x_Demo_Suites_V2.0.0/GD32F30x_Demo_Suites_V2.0.0/GD32F30x_Firmware_Library/GD32F30x_standard_peripheral/Source\gd32f30x_timer.c ****     case TIMER4:
 174              		.loc 1 69 0
 175 00f0 ECE7     		b	.L1
 176              	.LVL28:
 177              	.L9:
  77:C:/Users/49542/Desktop/GD32F30x_Demo_Suites_V2.0.0/GD32F30x_Demo_Suites_V2.0.0/GD32F30x_Firmware_Library/GD32F30x_standard_peripheral/Source\gd32f30x_timer.c ****         rcu_periph_reset_disable(RCU_TIMER5RST);
 178              		.loc 1 77 0
 179 00f2 40F20440 		movw	r0, #1028
 180              	.LVL29:
 181 00f6 FFF7FEFF 		bl	rcu_periph_reset_enable
 182              	.LVL30:
  78:C:/Users/49542/Desktop/GD32F30x_Demo_Suites_V2.0.0/GD32F30x_Demo_Suites_V2.0.0/GD32F30x_Firmware_Library/GD32F30x_standard_peripheral/Source\gd32f30x_timer.c ****         break;
 183              		.loc 1 78 0
 184 00fa 40F20440 		movw	r0, #1028
 185 00fe FFF7FEFF 		bl	rcu_periph_reset_disable
 186              	.LVL31:
  79:C:/Users/49542/Desktop/GD32F30x_Demo_Suites_V2.0.0/GD32F30x_Demo_Suites_V2.0.0/GD32F30x_Firmware_Library/GD32F30x_standard_peripheral/Source\gd32f30x_timer.c ****     case TIMER6:
 187              		.loc 1 79 0
 188 0102 E3E7     		b	.L1
 189              	.LVL32:
 190              	.L10:
  82:C:/Users/49542/Desktop/GD32F30x_Demo_Suites_V2.0.0/GD32F30x_Demo_Suites_V2.0.0/GD32F30x_Firmware_Library/GD32F30x_standard_peripheral/Source\gd32f30x_timer.c ****         rcu_periph_reset_disable(RCU_TIMER6RST);
 191              		.loc 1 82 0
 192 0104 40F20540 		movw	r0, #1029
 193              	.LVL33:
 194 0108 FFF7FEFF 		bl	rcu_periph_reset_enable
ARM GAS  C:\Users\49542\AppData\Local\Temp\ccEBNRSE.s 			page 7


 195              	.LVL34:
  83:C:/Users/49542/Desktop/GD32F30x_Demo_Suites_V2.0.0/GD32F30x_Demo_Suites_V2.0.0/GD32F30x_Firmware_Library/GD32F30x_standard_peripheral/Source\gd32f30x_timer.c ****         break;
 196              		.loc 1 83 0
 197 010c 40F20540 		movw	r0, #1029
 198 0110 FFF7FEFF 		bl	rcu_periph_reset_disable
 199              	.LVL35:
  84:C:/Users/49542/Desktop/GD32F30x_Demo_Suites_V2.0.0/GD32F30x_Demo_Suites_V2.0.0/GD32F30x_Firmware_Library/GD32F30x_standard_peripheral/Source\gd32f30x_timer.c ****     case TIMER7:
 200              		.loc 1 84 0
 201 0114 DAE7     		b	.L1
 202              	.LVL36:
 203              	.L12:
  87:C:/Users/49542/Desktop/GD32F30x_Demo_Suites_V2.0.0/GD32F30x_Demo_Suites_V2.0.0/GD32F30x_Firmware_Library/GD32F30x_standard_peripheral/Source\gd32f30x_timer.c ****         rcu_periph_reset_disable(RCU_TIMER7RST);
 204              		.loc 1 87 0
 205 0116 40F20D30 		movw	r0, #781
 206              	.LVL37:
 207 011a FFF7FEFF 		bl	rcu_periph_reset_enable
 208              	.LVL38:
  88:C:/Users/49542/Desktop/GD32F30x_Demo_Suites_V2.0.0/GD32F30x_Demo_Suites_V2.0.0/GD32F30x_Firmware_Library/GD32F30x_standard_peripheral/Source\gd32f30x_timer.c ****         break;
 209              		.loc 1 88 0
 210 011e 40F20D30 		movw	r0, #781
 211 0122 FFF7FEFF 		bl	rcu_periph_reset_disable
 212              	.LVL39:
  89:C:/Users/49542/Desktop/GD32F30x_Demo_Suites_V2.0.0/GD32F30x_Demo_Suites_V2.0.0/GD32F30x_Firmware_Library/GD32F30x_standard_peripheral/Source\gd32f30x_timer.c **** #ifndef GD32F30X_HD
 213              		.loc 1 89 0
 214 0126 D1E7     		b	.L1
 215              	.LVL40:
 216              	.L17:
  98:C:/Users/49542/Desktop/GD32F30x_Demo_Suites_V2.0.0/GD32F30x_Demo_Suites_V2.0.0/GD32F30x_Firmware_Library/GD32F30x_standard_peripheral/Source\gd32f30x_timer.c ****         rcu_periph_reset_disable(RCU_TIMER9RST);
 217              		.loc 1 98 0
 218 0128 4FF44570 		mov	r0, #788
 219              	.LVL41:
 220 012c FFF7FEFF 		bl	rcu_periph_reset_enable
 221              	.LVL42:
  99:C:/Users/49542/Desktop/GD32F30x_Demo_Suites_V2.0.0/GD32F30x_Demo_Suites_V2.0.0/GD32F30x_Firmware_Library/GD32F30x_standard_peripheral/Source\gd32f30x_timer.c ****         break;
 222              		.loc 1 99 0
 223 0130 4FF44570 		mov	r0, #788
 224 0134 FFF7FEFF 		bl	rcu_periph_reset_disable
 225              	.LVL43:
 100:C:/Users/49542/Desktop/GD32F30x_Demo_Suites_V2.0.0/GD32F30x_Demo_Suites_V2.0.0/GD32F30x_Firmware_Library/GD32F30x_standard_peripheral/Source\gd32f30x_timer.c ****     case TIMER10:
 226              		.loc 1 100 0
 227 0138 C8E7     		b	.L1
 228              	.LVL44:
 229              	.L18:
 103:C:/Users/49542/Desktop/GD32F30x_Demo_Suites_V2.0.0/GD32F30x_Demo_Suites_V2.0.0/GD32F30x_Firmware_Library/GD32F30x_standard_peripheral/Source\gd32f30x_timer.c ****         rcu_periph_reset_disable(RCU_TIMER10RST);
 230              		.loc 1 103 0
 231 013a 40F21530 		movw	r0, #789
 232              	.LVL45:
 233 013e FFF7FEFF 		bl	rcu_periph_reset_enable
 234              	.LVL46:
 104:C:/Users/49542/Desktop/GD32F30x_Demo_Suites_V2.0.0/GD32F30x_Demo_Suites_V2.0.0/GD32F30x_Firmware_Library/GD32F30x_standard_peripheral/Source\gd32f30x_timer.c ****         break;
 235              		.loc 1 104 0
 236 0142 40F21530 		movw	r0, #789
 237 0146 FFF7FEFF 		bl	rcu_periph_reset_disable
 238              	.LVL47:
 105:C:/Users/49542/Desktop/GD32F30x_Demo_Suites_V2.0.0/GD32F30x_Demo_Suites_V2.0.0/GD32F30x_Firmware_Library/GD32F30x_standard_peripheral/Source\gd32f30x_timer.c ****     case TIMER11:
 239              		.loc 1 105 0
 240 014a BFE7     		b	.L1
ARM GAS  C:\Users\49542\AppData\Local\Temp\ccEBNRSE.s 			page 8


 241              	.LVL48:
 242              	.L3:
 108:C:/Users/49542/Desktop/GD32F30x_Demo_Suites_V2.0.0/GD32F30x_Demo_Suites_V2.0.0/GD32F30x_Firmware_Library/GD32F30x_standard_peripheral/Source\gd32f30x_timer.c ****         rcu_periph_reset_disable(RCU_TIMER11RST);
 243              		.loc 1 108 0
 244 014c 40F20640 		movw	r0, #1030
 245              	.LVL49:
 246 0150 FFF7FEFF 		bl	rcu_periph_reset_enable
 247              	.LVL50:
 109:C:/Users/49542/Desktop/GD32F30x_Demo_Suites_V2.0.0/GD32F30x_Demo_Suites_V2.0.0/GD32F30x_Firmware_Library/GD32F30x_standard_peripheral/Source\gd32f30x_timer.c ****         break;
 248              		.loc 1 109 0
 249 0154 40F20640 		movw	r0, #1030
 250 0158 FFF7FEFF 		bl	rcu_periph_reset_disable
 251              	.LVL51:
 110:C:/Users/49542/Desktop/GD32F30x_Demo_Suites_V2.0.0/GD32F30x_Demo_Suites_V2.0.0/GD32F30x_Firmware_Library/GD32F30x_standard_peripheral/Source\gd32f30x_timer.c ****     case TIMER12:
 252              		.loc 1 110 0
 253 015c B6E7     		b	.L1
 254              	.LVL52:
 255              	.L14:
 118:C:/Users/49542/Desktop/GD32F30x_Demo_Suites_V2.0.0/GD32F30x_Demo_Suites_V2.0.0/GD32F30x_Firmware_Library/GD32F30x_standard_peripheral/Source\gd32f30x_timer.c ****         rcu_periph_reset_disable(RCU_TIMER13RST);
 256              		.loc 1 118 0
 257 015e 4FF48160 		mov	r0, #1032
 258              	.LVL53:
 259 0162 FFF7FEFF 		bl	rcu_periph_reset_enable
 260              	.LVL54:
 119:C:/Users/49542/Desktop/GD32F30x_Demo_Suites_V2.0.0/GD32F30x_Demo_Suites_V2.0.0/GD32F30x_Firmware_Library/GD32F30x_standard_peripheral/Source\gd32f30x_timer.c ****         break;
 261              		.loc 1 119 0
 262 0166 4FF48160 		mov	r0, #1032
 263 016a FFF7FEFF 		bl	rcu_periph_reset_disable
 264              	.LVL55:
 265              		.loc 1 125 0
 266 016e ADE7     		b	.L1
 267              	.L24:
 268              		.align	2
 269              	.L23:
 270 0170 00180040 		.word	1073747968
 271 0174 00340140 		.word	1073820672
 272 0178 00100040 		.word	1073745920
 273 017c 00500140 		.word	1073827840
 274              		.cfi_endproc
 275              	.LFE116:
 277              		.section	.text.timer_struct_para_init,"ax",%progbits
 278              		.align	1
 279              		.global	timer_struct_para_init
 280              		.syntax unified
 281              		.thumb
 282              		.thumb_func
 283              		.fpu fpv4-sp-d16
 285              	timer_struct_para_init:
 286              	.LFB117:
 126:C:/Users/49542/Desktop/GD32F30x_Demo_Suites_V2.0.0/GD32F30x_Demo_Suites_V2.0.0/GD32F30x_Firmware_Library/GD32F30x_standard_peripheral/Source\gd32f30x_timer.c **** 
 127:C:/Users/49542/Desktop/GD32F30x_Demo_Suites_V2.0.0/GD32F30x_Demo_Suites_V2.0.0/GD32F30x_Firmware_Library/GD32F30x_standard_peripheral/Source\gd32f30x_timer.c **** /*!
 128:C:/Users/49542/Desktop/GD32F30x_Demo_Suites_V2.0.0/GD32F30x_Demo_Suites_V2.0.0/GD32F30x_Firmware_Library/GD32F30x_standard_peripheral/Source\gd32f30x_timer.c ****     \brief      initialize TIMER init parameter struct with a default value
 129:C:/Users/49542/Desktop/GD32F30x_Demo_Suites_V2.0.0/GD32F30x_Demo_Suites_V2.0.0/GD32F30x_Firmware_Library/GD32F30x_standard_peripheral/Source\gd32f30x_timer.c ****     \param[in]  initpara: init parameter struct
 130:C:/Users/49542/Desktop/GD32F30x_Demo_Suites_V2.0.0/GD32F30x_Demo_Suites_V2.0.0/GD32F30x_Firmware_Library/GD32F30x_standard_peripheral/Source\gd32f30x_timer.c ****     \param[out] none
 131:C:/Users/49542/Desktop/GD32F30x_Demo_Suites_V2.0.0/GD32F30x_Demo_Suites_V2.0.0/GD32F30x_Firmware_Library/GD32F30x_standard_peripheral/Source\gd32f30x_timer.c ****     \retval     none
 132:C:/Users/49542/Desktop/GD32F30x_Demo_Suites_V2.0.0/GD32F30x_Demo_Suites_V2.0.0/GD32F30x_Firmware_Library/GD32F30x_standard_peripheral/Source\gd32f30x_timer.c **** */
 133:C:/Users/49542/Desktop/GD32F30x_Demo_Suites_V2.0.0/GD32F30x_Demo_Suites_V2.0.0/GD32F30x_Firmware_Library/GD32F30x_standard_peripheral/Source\gd32f30x_timer.c **** void timer_struct_para_init(timer_parameter_struct* initpara)
ARM GAS  C:\Users\49542\AppData\Local\Temp\ccEBNRSE.s 			page 9


 134:C:/Users/49542/Desktop/GD32F30x_Demo_Suites_V2.0.0/GD32F30x_Demo_Suites_V2.0.0/GD32F30x_Firmware_Library/GD32F30x_standard_peripheral/Source\gd32f30x_timer.c **** {
 287              		.loc 1 134 0
 288              		.cfi_startproc
 289              		@ args = 0, pretend = 0, frame = 0
 290              		@ frame_needed = 0, uses_anonymous_args = 0
 291              		@ link register save eliminated.
 292              	.LVL56:
 135:C:/Users/49542/Desktop/GD32F30x_Demo_Suites_V2.0.0/GD32F30x_Demo_Suites_V2.0.0/GD32F30x_Firmware_Library/GD32F30x_standard_peripheral/Source\gd32f30x_timer.c ****     /* initialize the init parameter struct member with the default value */
 136:C:/Users/49542/Desktop/GD32F30x_Demo_Suites_V2.0.0/GD32F30x_Demo_Suites_V2.0.0/GD32F30x_Firmware_Library/GD32F30x_standard_peripheral/Source\gd32f30x_timer.c ****     initpara->prescaler         = 0U;
 293              		.loc 1 136 0
 294 0000 0023     		movs	r3, #0
 295 0002 0380     		strh	r3, [r0]	@ movhi
 137:C:/Users/49542/Desktop/GD32F30x_Demo_Suites_V2.0.0/GD32F30x_Demo_Suites_V2.0.0/GD32F30x_Firmware_Library/GD32F30x_standard_peripheral/Source\gd32f30x_timer.c ****     initpara->alignedmode       = TIMER_COUNTER_EDGE;
 296              		.loc 1 137 0
 297 0004 4380     		strh	r3, [r0, #2]	@ movhi
 138:C:/Users/49542/Desktop/GD32F30x_Demo_Suites_V2.0.0/GD32F30x_Demo_Suites_V2.0.0/GD32F30x_Firmware_Library/GD32F30x_standard_peripheral/Source\gd32f30x_timer.c ****     initpara->counterdirection  = TIMER_COUNTER_UP;
 298              		.loc 1 138 0
 299 0006 8380     		strh	r3, [r0, #4]	@ movhi
 139:C:/Users/49542/Desktop/GD32F30x_Demo_Suites_V2.0.0/GD32F30x_Demo_Suites_V2.0.0/GD32F30x_Firmware_Library/GD32F30x_standard_peripheral/Source\gd32f30x_timer.c ****     initpara->period            = 65535U;
 300              		.loc 1 139 0
 301 0008 4FF6FF72 		movw	r2, #65535
 302 000c 8260     		str	r2, [r0, #8]
 140:C:/Users/49542/Desktop/GD32F30x_Demo_Suites_V2.0.0/GD32F30x_Demo_Suites_V2.0.0/GD32F30x_Firmware_Library/GD32F30x_standard_peripheral/Source\gd32f30x_timer.c ****     initpara->clockdivision     = TIMER_CKDIV_DIV1;
 303              		.loc 1 140 0
 304 000e C380     		strh	r3, [r0, #6]	@ movhi
 141:C:/Users/49542/Desktop/GD32F30x_Demo_Suites_V2.0.0/GD32F30x_Demo_Suites_V2.0.0/GD32F30x_Firmware_Library/GD32F30x_standard_peripheral/Source\gd32f30x_timer.c ****     initpara->repetitioncounter = 0U;
 305              		.loc 1 141 0
 306 0010 0373     		strb	r3, [r0, #12]
 142:C:/Users/49542/Desktop/GD32F30x_Demo_Suites_V2.0.0/GD32F30x_Demo_Suites_V2.0.0/GD32F30x_Firmware_Library/GD32F30x_standard_peripheral/Source\gd32f30x_timer.c **** }
 307              		.loc 1 142 0
 308 0012 7047     		bx	lr
 309              		.cfi_endproc
 310              	.LFE117:
 312              		.section	.text.timer_init,"ax",%progbits
 313              		.align	1
 314              		.global	timer_init
 315              		.syntax unified
 316              		.thumb
 317              		.thumb_func
 318              		.fpu fpv4-sp-d16
 320              	timer_init:
 321              	.LFB118:
 143:C:/Users/49542/Desktop/GD32F30x_Demo_Suites_V2.0.0/GD32F30x_Demo_Suites_V2.0.0/GD32F30x_Firmware_Library/GD32F30x_standard_peripheral/Source\gd32f30x_timer.c **** 
 144:C:/Users/49542/Desktop/GD32F30x_Demo_Suites_V2.0.0/GD32F30x_Demo_Suites_V2.0.0/GD32F30x_Firmware_Library/GD32F30x_standard_peripheral/Source\gd32f30x_timer.c **** /*!
 145:C:/Users/49542/Desktop/GD32F30x_Demo_Suites_V2.0.0/GD32F30x_Demo_Suites_V2.0.0/GD32F30x_Firmware_Library/GD32F30x_standard_peripheral/Source\gd32f30x_timer.c ****     \brief      initialize TIMER counter
 146:C:/Users/49542/Desktop/GD32F30x_Demo_Suites_V2.0.0/GD32F30x_Demo_Suites_V2.0.0/GD32F30x_Firmware_Library/GD32F30x_standard_peripheral/Source\gd32f30x_timer.c ****     \param[in]  timer_periph: TIMERx(x=0..13)
 147:C:/Users/49542/Desktop/GD32F30x_Demo_Suites_V2.0.0/GD32F30x_Demo_Suites_V2.0.0/GD32F30x_Firmware_Library/GD32F30x_standard_peripheral/Source\gd32f30x_timer.c ****     \param[in]  initpara: init parameter struct
 148:C:/Users/49542/Desktop/GD32F30x_Demo_Suites_V2.0.0/GD32F30x_Demo_Suites_V2.0.0/GD32F30x_Firmware_Library/GD32F30x_standard_peripheral/Source\gd32f30x_timer.c ****                   prescaler: prescaler value of the counter clock, 0~65535
 149:C:/Users/49542/Desktop/GD32F30x_Demo_Suites_V2.0.0/GD32F30x_Demo_Suites_V2.0.0/GD32F30x_Firmware_Library/GD32F30x_standard_peripheral/Source\gd32f30x_timer.c ****                   alignedmode: TIMER_COUNTER_EDGE, TIMER_COUNTER_CENTER_DOWN, TIMER_COUNTER_CENTER_
 150:C:/Users/49542/Desktop/GD32F30x_Demo_Suites_V2.0.0/GD32F30x_Demo_Suites_V2.0.0/GD32F30x_Firmware_Library/GD32F30x_standard_peripheral/Source\gd32f30x_timer.c ****                   counterdirection: TIMER_COUNTER_UP, TIMER_COUNTER_DOWN
 151:C:/Users/49542/Desktop/GD32F30x_Demo_Suites_V2.0.0/GD32F30x_Demo_Suites_V2.0.0/GD32F30x_Firmware_Library/GD32F30x_standard_peripheral/Source\gd32f30x_timer.c ****                   period: counter auto reload value, 0~65535
 152:C:/Users/49542/Desktop/GD32F30x_Demo_Suites_V2.0.0/GD32F30x_Demo_Suites_V2.0.0/GD32F30x_Firmware_Library/GD32F30x_standard_peripheral/Source\gd32f30x_timer.c ****                   clockdivision: TIMER_CKDIV_DIV1, TIMER_CKDIV_DIV2, TIMER_CKDIV_DIV4
 153:C:/Users/49542/Desktop/GD32F30x_Demo_Suites_V2.0.0/GD32F30x_Demo_Suites_V2.0.0/GD32F30x_Firmware_Library/GD32F30x_standard_peripheral/Source\gd32f30x_timer.c ****                   repetitioncounter: counter repetition value, 0~255
 154:C:/Users/49542/Desktop/GD32F30x_Demo_Suites_V2.0.0/GD32F30x_Demo_Suites_V2.0.0/GD32F30x_Firmware_Library/GD32F30x_standard_peripheral/Source\gd32f30x_timer.c ****     \param[out] none
 155:C:/Users/49542/Desktop/GD32F30x_Demo_Suites_V2.0.0/GD32F30x_Demo_Suites_V2.0.0/GD32F30x_Firmware_Library/GD32F30x_standard_peripheral/Source\gd32f30x_timer.c ****     \retval     none
 156:C:/Users/49542/Desktop/GD32F30x_Demo_Suites_V2.0.0/GD32F30x_Demo_Suites_V2.0.0/GD32F30x_Firmware_Library/GD32F30x_standard_peripheral/Source\gd32f30x_timer.c **** */
 157:C:/Users/49542/Desktop/GD32F30x_Demo_Suites_V2.0.0/GD32F30x_Demo_Suites_V2.0.0/GD32F30x_Firmware_Library/GD32F30x_standard_peripheral/Source\gd32f30x_timer.c **** void timer_init(uint32_t timer_periph, timer_parameter_struct* initpara)
ARM GAS  C:\Users\49542\AppData\Local\Temp\ccEBNRSE.s 			page 10


 158:C:/Users/49542/Desktop/GD32F30x_Demo_Suites_V2.0.0/GD32F30x_Demo_Suites_V2.0.0/GD32F30x_Firmware_Library/GD32F30x_standard_peripheral/Source\gd32f30x_timer.c **** {
 322              		.loc 1 158 0
 323              		.cfi_startproc
 324              		@ args = 0, pretend = 0, frame = 0
 325              		@ frame_needed = 0, uses_anonymous_args = 0
 326              		@ link register save eliminated.
 327              	.LVL57:
 159:C:/Users/49542/Desktop/GD32F30x_Demo_Suites_V2.0.0/GD32F30x_Demo_Suites_V2.0.0/GD32F30x_Firmware_Library/GD32F30x_standard_peripheral/Source\gd32f30x_timer.c ****     /* configure the counter prescaler value */
 160:C:/Users/49542/Desktop/GD32F30x_Demo_Suites_V2.0.0/GD32F30x_Demo_Suites_V2.0.0/GD32F30x_Firmware_Library/GD32F30x_standard_peripheral/Source\gd32f30x_timer.c ****     TIMER_PSC(timer_periph) = (uint16_t)initpara->prescaler;
 328              		.loc 1 160 0
 329 0000 0B88     		ldrh	r3, [r1]
 330 0002 8362     		str	r3, [r0, #40]
 161:C:/Users/49542/Desktop/GD32F30x_Demo_Suites_V2.0.0/GD32F30x_Demo_Suites_V2.0.0/GD32F30x_Firmware_Library/GD32F30x_standard_peripheral/Source\gd32f30x_timer.c **** 
 162:C:/Users/49542/Desktop/GD32F30x_Demo_Suites_V2.0.0/GD32F30x_Demo_Suites_V2.0.0/GD32F30x_Firmware_Library/GD32F30x_standard_peripheral/Source\gd32f30x_timer.c ****     /* configure the counter direction and aligned mode */
 163:C:/Users/49542/Desktop/GD32F30x_Demo_Suites_V2.0.0/GD32F30x_Demo_Suites_V2.0.0/GD32F30x_Firmware_Library/GD32F30x_standard_peripheral/Source\gd32f30x_timer.c ****     if((TIMER0 == timer_periph) || (TIMER1 == timer_periph) || (TIMER2 == timer_periph)
 331              		.loc 1 163 0
 332 0004 204B     		ldr	r3, .L32
 333 0006 9842     		cmp	r0, r3
 334 0008 12D0     		beq	.L27
 335              		.loc 1 163 0 is_stmt 0 discriminator 1
 336 000a B0F1804F 		cmp	r0, #1073741824
 337 000e 0FD0     		beq	.L27
 338              		.loc 1 163 0 discriminator 2
 339 0010 A3F59433 		sub	r3, r3, #75776
 340 0014 9842     		cmp	r0, r3
 341 0016 0BD0     		beq	.L27
 164:C:/Users/49542/Desktop/GD32F30x_Demo_Suites_V2.0.0/GD32F30x_Demo_Suites_V2.0.0/GD32F30x_Firmware_Library/GD32F30x_standard_peripheral/Source\gd32f30x_timer.c ****         || (TIMER3 == timer_periph) || (TIMER4 == timer_periph) || (TIMER7 == timer_periph)){
 342              		.loc 1 164 0 is_stmt 1
 343 0018 03F58063 		add	r3, r3, #1024
 344 001c 9842     		cmp	r0, r3
 345 001e 07D0     		beq	.L27
 346              		.loc 1 164 0 is_stmt 0 discriminator 1
 347 0020 03F58063 		add	r3, r3, #1024
 348 0024 9842     		cmp	r0, r3
 349 0026 03D0     		beq	.L27
 350              		.loc 1 164 0 discriminator 2
 351 0028 03F59433 		add	r3, r3, #75776
 352 002c 9842     		cmp	r0, r3
 353 002e 0BD1     		bne	.L28
 354              	.L27:
 165:C:/Users/49542/Desktop/GD32F30x_Demo_Suites_V2.0.0/GD32F30x_Demo_Suites_V2.0.0/GD32F30x_Firmware_Library/GD32F30x_standard_peripheral/Source\gd32f30x_timer.c ****         TIMER_CTL0(timer_periph) &= ~(uint32_t)(TIMER_CTL0_DIR|TIMER_CTL0_CAM);
 355              		.loc 1 165 0 is_stmt 1
 356 0030 0368     		ldr	r3, [r0]
 357 0032 23F07003 		bic	r3, r3, #112
 358 0036 0360     		str	r3, [r0]
 166:C:/Users/49542/Desktop/GD32F30x_Demo_Suites_V2.0.0/GD32F30x_Demo_Suites_V2.0.0/GD32F30x_Firmware_Library/GD32F30x_standard_peripheral/Source\gd32f30x_timer.c ****         TIMER_CTL0(timer_periph) |= (uint32_t)initpara->alignedmode;
 359              		.loc 1 166 0
 360 0038 0368     		ldr	r3, [r0]
 361 003a 4A88     		ldrh	r2, [r1, #2]
 362 003c 1343     		orrs	r3, r3, r2
 363 003e 0360     		str	r3, [r0]
 167:C:/Users/49542/Desktop/GD32F30x_Demo_Suites_V2.0.0/GD32F30x_Demo_Suites_V2.0.0/GD32F30x_Firmware_Library/GD32F30x_standard_peripheral/Source\gd32f30x_timer.c ****         TIMER_CTL0(timer_periph) |= (uint32_t)initpara->counterdirection;
 364              		.loc 1 167 0
 365 0040 0368     		ldr	r3, [r0]
 366 0042 8A88     		ldrh	r2, [r1, #4]
 367 0044 1343     		orrs	r3, r3, r2
 368 0046 0360     		str	r3, [r0]
ARM GAS  C:\Users\49542\AppData\Local\Temp\ccEBNRSE.s 			page 11


 369              	.L28:
 168:C:/Users/49542/Desktop/GD32F30x_Demo_Suites_V2.0.0/GD32F30x_Demo_Suites_V2.0.0/GD32F30x_Firmware_Library/GD32F30x_standard_peripheral/Source\gd32f30x_timer.c ****     }
 169:C:/Users/49542/Desktop/GD32F30x_Demo_Suites_V2.0.0/GD32F30x_Demo_Suites_V2.0.0/GD32F30x_Firmware_Library/GD32F30x_standard_peripheral/Source\gd32f30x_timer.c **** 
 170:C:/Users/49542/Desktop/GD32F30x_Demo_Suites_V2.0.0/GD32F30x_Demo_Suites_V2.0.0/GD32F30x_Firmware_Library/GD32F30x_standard_peripheral/Source\gd32f30x_timer.c ****     /* configure the autoreload value */
 171:C:/Users/49542/Desktop/GD32F30x_Demo_Suites_V2.0.0/GD32F30x_Demo_Suites_V2.0.0/GD32F30x_Firmware_Library/GD32F30x_standard_peripheral/Source\gd32f30x_timer.c ****     TIMER_CAR(timer_periph) = (uint32_t)initpara->period;
 370              		.loc 1 171 0
 371 0048 8B68     		ldr	r3, [r1, #8]
 372 004a C362     		str	r3, [r0, #44]
 172:C:/Users/49542/Desktop/GD32F30x_Demo_Suites_V2.0.0/GD32F30x_Demo_Suites_V2.0.0/GD32F30x_Firmware_Library/GD32F30x_standard_peripheral/Source\gd32f30x_timer.c **** 
 173:C:/Users/49542/Desktop/GD32F30x_Demo_Suites_V2.0.0/GD32F30x_Demo_Suites_V2.0.0/GD32F30x_Firmware_Library/GD32F30x_standard_peripheral/Source\gd32f30x_timer.c ****     if((TIMER5 != timer_periph) && (TIMER6 != timer_periph)){
 373              		.loc 1 173 0
 374 004c 0F4B     		ldr	r3, .L32+4
 375 004e 9842     		cmp	r0, r3
 376 0050 0BD0     		beq	.L29
 377              		.loc 1 173 0 is_stmt 0 discriminator 1
 378 0052 03F58063 		add	r3, r3, #1024
 379 0056 9842     		cmp	r0, r3
 380 0058 07D0     		beq	.L29
 174:C:/Users/49542/Desktop/GD32F30x_Demo_Suites_V2.0.0/GD32F30x_Demo_Suites_V2.0.0/GD32F30x_Firmware_Library/GD32F30x_standard_peripheral/Source\gd32f30x_timer.c ****         /* reset the CKDIV bit */
 175:C:/Users/49542/Desktop/GD32F30x_Demo_Suites_V2.0.0/GD32F30x_Demo_Suites_V2.0.0/GD32F30x_Firmware_Library/GD32F30x_standard_peripheral/Source\gd32f30x_timer.c ****         TIMER_CTL0(timer_periph) &= ~(uint32_t)TIMER_CTL0_CKDIV;
 381              		.loc 1 175 0 is_stmt 1
 382 005a 0368     		ldr	r3, [r0]
 383 005c 23F44073 		bic	r3, r3, #768
 384 0060 0360     		str	r3, [r0]
 176:C:/Users/49542/Desktop/GD32F30x_Demo_Suites_V2.0.0/GD32F30x_Demo_Suites_V2.0.0/GD32F30x_Firmware_Library/GD32F30x_standard_peripheral/Source\gd32f30x_timer.c ****         TIMER_CTL0(timer_periph) |= (uint32_t)initpara->clockdivision;
 385              		.loc 1 176 0
 386 0062 0368     		ldr	r3, [r0]
 387 0064 CA88     		ldrh	r2, [r1, #6]
 388 0066 1343     		orrs	r3, r3, r2
 389 0068 0360     		str	r3, [r0]
 390              	.L29:
 177:C:/Users/49542/Desktop/GD32F30x_Demo_Suites_V2.0.0/GD32F30x_Demo_Suites_V2.0.0/GD32F30x_Firmware_Library/GD32F30x_standard_peripheral/Source\gd32f30x_timer.c ****     }
 178:C:/Users/49542/Desktop/GD32F30x_Demo_Suites_V2.0.0/GD32F30x_Demo_Suites_V2.0.0/GD32F30x_Firmware_Library/GD32F30x_standard_peripheral/Source\gd32f30x_timer.c **** 
 179:C:/Users/49542/Desktop/GD32F30x_Demo_Suites_V2.0.0/GD32F30x_Demo_Suites_V2.0.0/GD32F30x_Firmware_Library/GD32F30x_standard_peripheral/Source\gd32f30x_timer.c ****     if((TIMER0 == timer_periph) || (TIMER7 == timer_periph)){
 391              		.loc 1 179 0
 392 006a 074B     		ldr	r3, .L32
 393 006c 9842     		cmp	r0, r3
 394 006e 03D0     		beq	.L30
 395              		.loc 1 179 0 is_stmt 0 discriminator 1
 396 0070 03F50063 		add	r3, r3, #2048
 397 0074 9842     		cmp	r0, r3
 398 0076 01D1     		bne	.L31
 399              	.L30:
 180:C:/Users/49542/Desktop/GD32F30x_Demo_Suites_V2.0.0/GD32F30x_Demo_Suites_V2.0.0/GD32F30x_Firmware_Library/GD32F30x_standard_peripheral/Source\gd32f30x_timer.c ****         /* configure the repetition counter value */
 181:C:/Users/49542/Desktop/GD32F30x_Demo_Suites_V2.0.0/GD32F30x_Demo_Suites_V2.0.0/GD32F30x_Firmware_Library/GD32F30x_standard_peripheral/Source\gd32f30x_timer.c ****         TIMER_CREP(timer_periph) = (uint32_t)initpara->repetitioncounter;
 400              		.loc 1 181 0 is_stmt 1
 401 0078 0B7B     		ldrb	r3, [r1, #12]	@ zero_extendqisi2
 402 007a 0363     		str	r3, [r0, #48]
 403              	.L31:
 182:C:/Users/49542/Desktop/GD32F30x_Demo_Suites_V2.0.0/GD32F30x_Demo_Suites_V2.0.0/GD32F30x_Firmware_Library/GD32F30x_standard_peripheral/Source\gd32f30x_timer.c ****     }
 183:C:/Users/49542/Desktop/GD32F30x_Demo_Suites_V2.0.0/GD32F30x_Demo_Suites_V2.0.0/GD32F30x_Firmware_Library/GD32F30x_standard_peripheral/Source\gd32f30x_timer.c **** 
 184:C:/Users/49542/Desktop/GD32F30x_Demo_Suites_V2.0.0/GD32F30x_Demo_Suites_V2.0.0/GD32F30x_Firmware_Library/GD32F30x_standard_peripheral/Source\gd32f30x_timer.c ****     /* generate an update event */
 185:C:/Users/49542/Desktop/GD32F30x_Demo_Suites_V2.0.0/GD32F30x_Demo_Suites_V2.0.0/GD32F30x_Firmware_Library/GD32F30x_standard_peripheral/Source\gd32f30x_timer.c ****     TIMER_SWEVG(timer_periph) |= (uint32_t)TIMER_SWEVG_UPG;
 404              		.loc 1 185 0
 405 007c 4369     		ldr	r3, [r0, #20]
 406 007e 43F00103 		orr	r3, r3, #1
 407 0082 4361     		str	r3, [r0, #20]
ARM GAS  C:\Users\49542\AppData\Local\Temp\ccEBNRSE.s 			page 12


 186:C:/Users/49542/Desktop/GD32F30x_Demo_Suites_V2.0.0/GD32F30x_Demo_Suites_V2.0.0/GD32F30x_Firmware_Library/GD32F30x_standard_peripheral/Source\gd32f30x_timer.c **** }
 408              		.loc 1 186 0
 409 0084 7047     		bx	lr
 410              	.L33:
 411 0086 00BF     		.align	2
 412              	.L32:
 413 0088 002C0140 		.word	1073818624
 414 008c 00100040 		.word	1073745920
 415              		.cfi_endproc
 416              	.LFE118:
 418              		.section	.text.timer_enable,"ax",%progbits
 419              		.align	1
 420              		.global	timer_enable
 421              		.syntax unified
 422              		.thumb
 423              		.thumb_func
 424              		.fpu fpv4-sp-d16
 426              	timer_enable:
 427              	.LFB119:
 187:C:/Users/49542/Desktop/GD32F30x_Demo_Suites_V2.0.0/GD32F30x_Demo_Suites_V2.0.0/GD32F30x_Firmware_Library/GD32F30x_standard_peripheral/Source\gd32f30x_timer.c **** 
 188:C:/Users/49542/Desktop/GD32F30x_Demo_Suites_V2.0.0/GD32F30x_Demo_Suites_V2.0.0/GD32F30x_Firmware_Library/GD32F30x_standard_peripheral/Source\gd32f30x_timer.c **** /*!
 189:C:/Users/49542/Desktop/GD32F30x_Demo_Suites_V2.0.0/GD32F30x_Demo_Suites_V2.0.0/GD32F30x_Firmware_Library/GD32F30x_standard_peripheral/Source\gd32f30x_timer.c ****     \brief      enable a TIMER
 190:C:/Users/49542/Desktop/GD32F30x_Demo_Suites_V2.0.0/GD32F30x_Demo_Suites_V2.0.0/GD32F30x_Firmware_Library/GD32F30x_standard_peripheral/Source\gd32f30x_timer.c ****     \param[in]  timer_periph: TIMERx(x=0..13)
 191:C:/Users/49542/Desktop/GD32F30x_Demo_Suites_V2.0.0/GD32F30x_Demo_Suites_V2.0.0/GD32F30x_Firmware_Library/GD32F30x_standard_peripheral/Source\gd32f30x_timer.c ****     \param[out] none
 192:C:/Users/49542/Desktop/GD32F30x_Demo_Suites_V2.0.0/GD32F30x_Demo_Suites_V2.0.0/GD32F30x_Firmware_Library/GD32F30x_standard_peripheral/Source\gd32f30x_timer.c ****     \retval     none
 193:C:/Users/49542/Desktop/GD32F30x_Demo_Suites_V2.0.0/GD32F30x_Demo_Suites_V2.0.0/GD32F30x_Firmware_Library/GD32F30x_standard_peripheral/Source\gd32f30x_timer.c **** */
 194:C:/Users/49542/Desktop/GD32F30x_Demo_Suites_V2.0.0/GD32F30x_Demo_Suites_V2.0.0/GD32F30x_Firmware_Library/GD32F30x_standard_peripheral/Source\gd32f30x_timer.c **** void timer_enable(uint32_t timer_periph)
 195:C:/Users/49542/Desktop/GD32F30x_Demo_Suites_V2.0.0/GD32F30x_Demo_Suites_V2.0.0/GD32F30x_Firmware_Library/GD32F30x_standard_peripheral/Source\gd32f30x_timer.c **** {
 428              		.loc 1 195 0
 429              		.cfi_startproc
 430              		@ args = 0, pretend = 0, frame = 0
 431              		@ frame_needed = 0, uses_anonymous_args = 0
 432              		@ link register save eliminated.
 433              	.LVL58:
 196:C:/Users/49542/Desktop/GD32F30x_Demo_Suites_V2.0.0/GD32F30x_Demo_Suites_V2.0.0/GD32F30x_Firmware_Library/GD32F30x_standard_peripheral/Source\gd32f30x_timer.c ****     TIMER_CTL0(timer_periph) |= (uint32_t)TIMER_CTL0_CEN;
 434              		.loc 1 196 0
 435 0000 0368     		ldr	r3, [r0]
 436 0002 43F00103 		orr	r3, r3, #1
 437 0006 0360     		str	r3, [r0]
 197:C:/Users/49542/Desktop/GD32F30x_Demo_Suites_V2.0.0/GD32F30x_Demo_Suites_V2.0.0/GD32F30x_Firmware_Library/GD32F30x_standard_peripheral/Source\gd32f30x_timer.c **** }
 438              		.loc 1 197 0
 439 0008 7047     		bx	lr
 440              		.cfi_endproc
 441              	.LFE119:
 443              		.section	.text.timer_disable,"ax",%progbits
 444              		.align	1
 445              		.global	timer_disable
 446              		.syntax unified
 447              		.thumb
 448              		.thumb_func
 449              		.fpu fpv4-sp-d16
 451              	timer_disable:
 452              	.LFB120:
 198:C:/Users/49542/Desktop/GD32F30x_Demo_Suites_V2.0.0/GD32F30x_Demo_Suites_V2.0.0/GD32F30x_Firmware_Library/GD32F30x_standard_peripheral/Source\gd32f30x_timer.c **** 
 199:C:/Users/49542/Desktop/GD32F30x_Demo_Suites_V2.0.0/GD32F30x_Demo_Suites_V2.0.0/GD32F30x_Firmware_Library/GD32F30x_standard_peripheral/Source\gd32f30x_timer.c **** /*!
 200:C:/Users/49542/Desktop/GD32F30x_Demo_Suites_V2.0.0/GD32F30x_Demo_Suites_V2.0.0/GD32F30x_Firmware_Library/GD32F30x_standard_peripheral/Source\gd32f30x_timer.c ****     \brief      disable a TIMER
 201:C:/Users/49542/Desktop/GD32F30x_Demo_Suites_V2.0.0/GD32F30x_Demo_Suites_V2.0.0/GD32F30x_Firmware_Library/GD32F30x_standard_peripheral/Source\gd32f30x_timer.c ****     \param[in]  timer_periph: TIMERx(x=0..13)
ARM GAS  C:\Users\49542\AppData\Local\Temp\ccEBNRSE.s 			page 13


 202:C:/Users/49542/Desktop/GD32F30x_Demo_Suites_V2.0.0/GD32F30x_Demo_Suites_V2.0.0/GD32F30x_Firmware_Library/GD32F30x_standard_peripheral/Source\gd32f30x_timer.c ****     \param[out] none
 203:C:/Users/49542/Desktop/GD32F30x_Demo_Suites_V2.0.0/GD32F30x_Demo_Suites_V2.0.0/GD32F30x_Firmware_Library/GD32F30x_standard_peripheral/Source\gd32f30x_timer.c ****     \retval     none
 204:C:/Users/49542/Desktop/GD32F30x_Demo_Suites_V2.0.0/GD32F30x_Demo_Suites_V2.0.0/GD32F30x_Firmware_Library/GD32F30x_standard_peripheral/Source\gd32f30x_timer.c **** */
 205:C:/Users/49542/Desktop/GD32F30x_Demo_Suites_V2.0.0/GD32F30x_Demo_Suites_V2.0.0/GD32F30x_Firmware_Library/GD32F30x_standard_peripheral/Source\gd32f30x_timer.c **** void timer_disable(uint32_t timer_periph)
 206:C:/Users/49542/Desktop/GD32F30x_Demo_Suites_V2.0.0/GD32F30x_Demo_Suites_V2.0.0/GD32F30x_Firmware_Library/GD32F30x_standard_peripheral/Source\gd32f30x_timer.c **** {
 453              		.loc 1 206 0
 454              		.cfi_startproc
 455              		@ args = 0, pretend = 0, frame = 0
 456              		@ frame_needed = 0, uses_anonymous_args = 0
 457              		@ link register save eliminated.
 458              	.LVL59:
 207:C:/Users/49542/Desktop/GD32F30x_Demo_Suites_V2.0.0/GD32F30x_Demo_Suites_V2.0.0/GD32F30x_Firmware_Library/GD32F30x_standard_peripheral/Source\gd32f30x_timer.c ****     TIMER_CTL0(timer_periph) &= ~(uint32_t)TIMER_CTL0_CEN;
 459              		.loc 1 207 0
 460 0000 0368     		ldr	r3, [r0]
 461 0002 23F00103 		bic	r3, r3, #1
 462 0006 0360     		str	r3, [r0]
 208:C:/Users/49542/Desktop/GD32F30x_Demo_Suites_V2.0.0/GD32F30x_Demo_Suites_V2.0.0/GD32F30x_Firmware_Library/GD32F30x_standard_peripheral/Source\gd32f30x_timer.c **** }
 463              		.loc 1 208 0
 464 0008 7047     		bx	lr
 465              		.cfi_endproc
 466              	.LFE120:
 468              		.section	.text.timer_auto_reload_shadow_enable,"ax",%progbits
 469              		.align	1
 470              		.global	timer_auto_reload_shadow_enable
 471              		.syntax unified
 472              		.thumb
 473              		.thumb_func
 474              		.fpu fpv4-sp-d16
 476              	timer_auto_reload_shadow_enable:
 477              	.LFB121:
 209:C:/Users/49542/Desktop/GD32F30x_Demo_Suites_V2.0.0/GD32F30x_Demo_Suites_V2.0.0/GD32F30x_Firmware_Library/GD32F30x_standard_peripheral/Source\gd32f30x_timer.c **** 
 210:C:/Users/49542/Desktop/GD32F30x_Demo_Suites_V2.0.0/GD32F30x_Demo_Suites_V2.0.0/GD32F30x_Firmware_Library/GD32F30x_standard_peripheral/Source\gd32f30x_timer.c **** /*!
 211:C:/Users/49542/Desktop/GD32F30x_Demo_Suites_V2.0.0/GD32F30x_Demo_Suites_V2.0.0/GD32F30x_Firmware_Library/GD32F30x_standard_peripheral/Source\gd32f30x_timer.c ****     \brief      enable the auto reload shadow function
 212:C:/Users/49542/Desktop/GD32F30x_Demo_Suites_V2.0.0/GD32F30x_Demo_Suites_V2.0.0/GD32F30x_Firmware_Library/GD32F30x_standard_peripheral/Source\gd32f30x_timer.c ****     \param[in]  timer_periph: TIMERx(x=0..13)
 213:C:/Users/49542/Desktop/GD32F30x_Demo_Suites_V2.0.0/GD32F30x_Demo_Suites_V2.0.0/GD32F30x_Firmware_Library/GD32F30x_standard_peripheral/Source\gd32f30x_timer.c ****     \param[out] none
 214:C:/Users/49542/Desktop/GD32F30x_Demo_Suites_V2.0.0/GD32F30x_Demo_Suites_V2.0.0/GD32F30x_Firmware_Library/GD32F30x_standard_peripheral/Source\gd32f30x_timer.c ****     \retval     none
 215:C:/Users/49542/Desktop/GD32F30x_Demo_Suites_V2.0.0/GD32F30x_Demo_Suites_V2.0.0/GD32F30x_Firmware_Library/GD32F30x_standard_peripheral/Source\gd32f30x_timer.c **** */
 216:C:/Users/49542/Desktop/GD32F30x_Demo_Suites_V2.0.0/GD32F30x_Demo_Suites_V2.0.0/GD32F30x_Firmware_Library/GD32F30x_standard_peripheral/Source\gd32f30x_timer.c **** void timer_auto_reload_shadow_enable(uint32_t timer_periph)
 217:C:/Users/49542/Desktop/GD32F30x_Demo_Suites_V2.0.0/GD32F30x_Demo_Suites_V2.0.0/GD32F30x_Firmware_Library/GD32F30x_standard_peripheral/Source\gd32f30x_timer.c **** {
 478              		.loc 1 217 0
 479              		.cfi_startproc
 480              		@ args = 0, pretend = 0, frame = 0
 481              		@ frame_needed = 0, uses_anonymous_args = 0
 482              		@ link register save eliminated.
 483              	.LVL60:
 218:C:/Users/49542/Desktop/GD32F30x_Demo_Suites_V2.0.0/GD32F30x_Demo_Suites_V2.0.0/GD32F30x_Firmware_Library/GD32F30x_standard_peripheral/Source\gd32f30x_timer.c ****     TIMER_CTL0(timer_periph) |= (uint32_t)TIMER_CTL0_ARSE;
 484              		.loc 1 218 0
 485 0000 0368     		ldr	r3, [r0]
 486 0002 43F08003 		orr	r3, r3, #128
 487 0006 0360     		str	r3, [r0]
 219:C:/Users/49542/Desktop/GD32F30x_Demo_Suites_V2.0.0/GD32F30x_Demo_Suites_V2.0.0/GD32F30x_Firmware_Library/GD32F30x_standard_peripheral/Source\gd32f30x_timer.c **** }
 488              		.loc 1 219 0
 489 0008 7047     		bx	lr
 490              		.cfi_endproc
 491              	.LFE121:
 493              		.section	.text.timer_auto_reload_shadow_disable,"ax",%progbits
 494              		.align	1
ARM GAS  C:\Users\49542\AppData\Local\Temp\ccEBNRSE.s 			page 14


 495              		.global	timer_auto_reload_shadow_disable
 496              		.syntax unified
 497              		.thumb
 498              		.thumb_func
 499              		.fpu fpv4-sp-d16
 501              	timer_auto_reload_shadow_disable:
 502              	.LFB122:
 220:C:/Users/49542/Desktop/GD32F30x_Demo_Suites_V2.0.0/GD32F30x_Demo_Suites_V2.0.0/GD32F30x_Firmware_Library/GD32F30x_standard_peripheral/Source\gd32f30x_timer.c **** 
 221:C:/Users/49542/Desktop/GD32F30x_Demo_Suites_V2.0.0/GD32F30x_Demo_Suites_V2.0.0/GD32F30x_Firmware_Library/GD32F30x_standard_peripheral/Source\gd32f30x_timer.c **** /*!
 222:C:/Users/49542/Desktop/GD32F30x_Demo_Suites_V2.0.0/GD32F30x_Demo_Suites_V2.0.0/GD32F30x_Firmware_Library/GD32F30x_standard_peripheral/Source\gd32f30x_timer.c ****     \brief      disable the auto reload shadow function
 223:C:/Users/49542/Desktop/GD32F30x_Demo_Suites_V2.0.0/GD32F30x_Demo_Suites_V2.0.0/GD32F30x_Firmware_Library/GD32F30x_standard_peripheral/Source\gd32f30x_timer.c ****     \param[in]  timer_periph: TIMERx(x=0..13)
 224:C:/Users/49542/Desktop/GD32F30x_Demo_Suites_V2.0.0/GD32F30x_Demo_Suites_V2.0.0/GD32F30x_Firmware_Library/GD32F30x_standard_peripheral/Source\gd32f30x_timer.c ****     \param[out] none
 225:C:/Users/49542/Desktop/GD32F30x_Demo_Suites_V2.0.0/GD32F30x_Demo_Suites_V2.0.0/GD32F30x_Firmware_Library/GD32F30x_standard_peripheral/Source\gd32f30x_timer.c ****     \retval     none
 226:C:/Users/49542/Desktop/GD32F30x_Demo_Suites_V2.0.0/GD32F30x_Demo_Suites_V2.0.0/GD32F30x_Firmware_Library/GD32F30x_standard_peripheral/Source\gd32f30x_timer.c **** */
 227:C:/Users/49542/Desktop/GD32F30x_Demo_Suites_V2.0.0/GD32F30x_Demo_Suites_V2.0.0/GD32F30x_Firmware_Library/GD32F30x_standard_peripheral/Source\gd32f30x_timer.c **** void timer_auto_reload_shadow_disable(uint32_t timer_periph)
 228:C:/Users/49542/Desktop/GD32F30x_Demo_Suites_V2.0.0/GD32F30x_Demo_Suites_V2.0.0/GD32F30x_Firmware_Library/GD32F30x_standard_peripheral/Source\gd32f30x_timer.c **** {
 503              		.loc 1 228 0
 504              		.cfi_startproc
 505              		@ args = 0, pretend = 0, frame = 0
 506              		@ frame_needed = 0, uses_anonymous_args = 0
 507              		@ link register save eliminated.
 508              	.LVL61:
 229:C:/Users/49542/Desktop/GD32F30x_Demo_Suites_V2.0.0/GD32F30x_Demo_Suites_V2.0.0/GD32F30x_Firmware_Library/GD32F30x_standard_peripheral/Source\gd32f30x_timer.c ****     TIMER_CTL0(timer_periph) &= ~(uint32_t)TIMER_CTL0_ARSE;
 509              		.loc 1 229 0
 510 0000 0368     		ldr	r3, [r0]
 511 0002 23F08003 		bic	r3, r3, #128
 512 0006 0360     		str	r3, [r0]
 230:C:/Users/49542/Desktop/GD32F30x_Demo_Suites_V2.0.0/GD32F30x_Demo_Suites_V2.0.0/GD32F30x_Firmware_Library/GD32F30x_standard_peripheral/Source\gd32f30x_timer.c **** }
 513              		.loc 1 230 0
 514 0008 7047     		bx	lr
 515              		.cfi_endproc
 516              	.LFE122:
 518              		.section	.text.timer_update_event_enable,"ax",%progbits
 519              		.align	1
 520              		.global	timer_update_event_enable
 521              		.syntax unified
 522              		.thumb
 523              		.thumb_func
 524              		.fpu fpv4-sp-d16
 526              	timer_update_event_enable:
 527              	.LFB123:
 231:C:/Users/49542/Desktop/GD32F30x_Demo_Suites_V2.0.0/GD32F30x_Demo_Suites_V2.0.0/GD32F30x_Firmware_Library/GD32F30x_standard_peripheral/Source\gd32f30x_timer.c **** 
 232:C:/Users/49542/Desktop/GD32F30x_Demo_Suites_V2.0.0/GD32F30x_Demo_Suites_V2.0.0/GD32F30x_Firmware_Library/GD32F30x_standard_peripheral/Source\gd32f30x_timer.c **** /*!
 233:C:/Users/49542/Desktop/GD32F30x_Demo_Suites_V2.0.0/GD32F30x_Demo_Suites_V2.0.0/GD32F30x_Firmware_Library/GD32F30x_standard_peripheral/Source\gd32f30x_timer.c ****     \brief      enable the update event
 234:C:/Users/49542/Desktop/GD32F30x_Demo_Suites_V2.0.0/GD32F30x_Demo_Suites_V2.0.0/GD32F30x_Firmware_Library/GD32F30x_standard_peripheral/Source\gd32f30x_timer.c ****     \param[in]  timer_periph: TIMERx(x=0..13)
 235:C:/Users/49542/Desktop/GD32F30x_Demo_Suites_V2.0.0/GD32F30x_Demo_Suites_V2.0.0/GD32F30x_Firmware_Library/GD32F30x_standard_peripheral/Source\gd32f30x_timer.c ****     \param[out] none
 236:C:/Users/49542/Desktop/GD32F30x_Demo_Suites_V2.0.0/GD32F30x_Demo_Suites_V2.0.0/GD32F30x_Firmware_Library/GD32F30x_standard_peripheral/Source\gd32f30x_timer.c ****     \retval     none
 237:C:/Users/49542/Desktop/GD32F30x_Demo_Suites_V2.0.0/GD32F30x_Demo_Suites_V2.0.0/GD32F30x_Firmware_Library/GD32F30x_standard_peripheral/Source\gd32f30x_timer.c **** */
 238:C:/Users/49542/Desktop/GD32F30x_Demo_Suites_V2.0.0/GD32F30x_Demo_Suites_V2.0.0/GD32F30x_Firmware_Library/GD32F30x_standard_peripheral/Source\gd32f30x_timer.c **** void timer_update_event_enable(uint32_t timer_periph)
 239:C:/Users/49542/Desktop/GD32F30x_Demo_Suites_V2.0.0/GD32F30x_Demo_Suites_V2.0.0/GD32F30x_Firmware_Library/GD32F30x_standard_peripheral/Source\gd32f30x_timer.c **** {
 528              		.loc 1 239 0
 529              		.cfi_startproc
 530              		@ args = 0, pretend = 0, frame = 0
 531              		@ frame_needed = 0, uses_anonymous_args = 0
 532              		@ link register save eliminated.
 533              	.LVL62:
 240:C:/Users/49542/Desktop/GD32F30x_Demo_Suites_V2.0.0/GD32F30x_Demo_Suites_V2.0.0/GD32F30x_Firmware_Library/GD32F30x_standard_peripheral/Source\gd32f30x_timer.c ****     TIMER_CTL0(timer_periph) &= ~(uint32_t)TIMER_CTL0_UPDIS;
ARM GAS  C:\Users\49542\AppData\Local\Temp\ccEBNRSE.s 			page 15


 534              		.loc 1 240 0
 535 0000 0368     		ldr	r3, [r0]
 536 0002 23F00203 		bic	r3, r3, #2
 537 0006 0360     		str	r3, [r0]
 241:C:/Users/49542/Desktop/GD32F30x_Demo_Suites_V2.0.0/GD32F30x_Demo_Suites_V2.0.0/GD32F30x_Firmware_Library/GD32F30x_standard_peripheral/Source\gd32f30x_timer.c **** }
 538              		.loc 1 241 0
 539 0008 7047     		bx	lr
 540              		.cfi_endproc
 541              	.LFE123:
 543              		.section	.text.timer_update_event_disable,"ax",%progbits
 544              		.align	1
 545              		.global	timer_update_event_disable
 546              		.syntax unified
 547              		.thumb
 548              		.thumb_func
 549              		.fpu fpv4-sp-d16
 551              	timer_update_event_disable:
 552              	.LFB124:
 242:C:/Users/49542/Desktop/GD32F30x_Demo_Suites_V2.0.0/GD32F30x_Demo_Suites_V2.0.0/GD32F30x_Firmware_Library/GD32F30x_standard_peripheral/Source\gd32f30x_timer.c **** 
 243:C:/Users/49542/Desktop/GD32F30x_Demo_Suites_V2.0.0/GD32F30x_Demo_Suites_V2.0.0/GD32F30x_Firmware_Library/GD32F30x_standard_peripheral/Source\gd32f30x_timer.c **** /*!
 244:C:/Users/49542/Desktop/GD32F30x_Demo_Suites_V2.0.0/GD32F30x_Demo_Suites_V2.0.0/GD32F30x_Firmware_Library/GD32F30x_standard_peripheral/Source\gd32f30x_timer.c ****     \brief      disable the update event
 245:C:/Users/49542/Desktop/GD32F30x_Demo_Suites_V2.0.0/GD32F30x_Demo_Suites_V2.0.0/GD32F30x_Firmware_Library/GD32F30x_standard_peripheral/Source\gd32f30x_timer.c ****     \param[in]  timer_periph: TIMERx(x=0..13)
 246:C:/Users/49542/Desktop/GD32F30x_Demo_Suites_V2.0.0/GD32F30x_Demo_Suites_V2.0.0/GD32F30x_Firmware_Library/GD32F30x_standard_peripheral/Source\gd32f30x_timer.c ****     \param[out] none
 247:C:/Users/49542/Desktop/GD32F30x_Demo_Suites_V2.0.0/GD32F30x_Demo_Suites_V2.0.0/GD32F30x_Firmware_Library/GD32F30x_standard_peripheral/Source\gd32f30x_timer.c ****     \retval     none
 248:C:/Users/49542/Desktop/GD32F30x_Demo_Suites_V2.0.0/GD32F30x_Demo_Suites_V2.0.0/GD32F30x_Firmware_Library/GD32F30x_standard_peripheral/Source\gd32f30x_timer.c **** */
 249:C:/Users/49542/Desktop/GD32F30x_Demo_Suites_V2.0.0/GD32F30x_Demo_Suites_V2.0.0/GD32F30x_Firmware_Library/GD32F30x_standard_peripheral/Source\gd32f30x_timer.c **** void timer_update_event_disable(uint32_t timer_periph)
 250:C:/Users/49542/Desktop/GD32F30x_Demo_Suites_V2.0.0/GD32F30x_Demo_Suites_V2.0.0/GD32F30x_Firmware_Library/GD32F30x_standard_peripheral/Source\gd32f30x_timer.c **** {
 553              		.loc 1 250 0
 554              		.cfi_startproc
 555              		@ args = 0, pretend = 0, frame = 0
 556              		@ frame_needed = 0, uses_anonymous_args = 0
 557              		@ link register save eliminated.
 558              	.LVL63:
 251:C:/Users/49542/Desktop/GD32F30x_Demo_Suites_V2.0.0/GD32F30x_Demo_Suites_V2.0.0/GD32F30x_Firmware_Library/GD32F30x_standard_peripheral/Source\gd32f30x_timer.c ****     TIMER_CTL0(timer_periph) |= (uint32_t) TIMER_CTL0_UPDIS;
 559              		.loc 1 251 0
 560 0000 0368     		ldr	r3, [r0]
 561 0002 43F00203 		orr	r3, r3, #2
 562 0006 0360     		str	r3, [r0]
 252:C:/Users/49542/Desktop/GD32F30x_Demo_Suites_V2.0.0/GD32F30x_Demo_Suites_V2.0.0/GD32F30x_Firmware_Library/GD32F30x_standard_peripheral/Source\gd32f30x_timer.c **** }
 563              		.loc 1 252 0
 564 0008 7047     		bx	lr
 565              		.cfi_endproc
 566              	.LFE124:
 568              		.section	.text.timer_counter_alignment,"ax",%progbits
 569              		.align	1
 570              		.global	timer_counter_alignment
 571              		.syntax unified
 572              		.thumb
 573              		.thumb_func
 574              		.fpu fpv4-sp-d16
 576              	timer_counter_alignment:
 577              	.LFB125:
 253:C:/Users/49542/Desktop/GD32F30x_Demo_Suites_V2.0.0/GD32F30x_Demo_Suites_V2.0.0/GD32F30x_Firmware_Library/GD32F30x_standard_peripheral/Source\gd32f30x_timer.c **** 
 254:C:/Users/49542/Desktop/GD32F30x_Demo_Suites_V2.0.0/GD32F30x_Demo_Suites_V2.0.0/GD32F30x_Firmware_Library/GD32F30x_standard_peripheral/Source\gd32f30x_timer.c **** /*!
 255:C:/Users/49542/Desktop/GD32F30x_Demo_Suites_V2.0.0/GD32F30x_Demo_Suites_V2.0.0/GD32F30x_Firmware_Library/GD32F30x_standard_peripheral/Source\gd32f30x_timer.c ****     \brief      set TIMER counter alignment mode
 256:C:/Users/49542/Desktop/GD32F30x_Demo_Suites_V2.0.0/GD32F30x_Demo_Suites_V2.0.0/GD32F30x_Firmware_Library/GD32F30x_standard_peripheral/Source\gd32f30x_timer.c ****     \param[in]  timer_periph: TIMERx(x=0..4,7)
 257:C:/Users/49542/Desktop/GD32F30x_Demo_Suites_V2.0.0/GD32F30x_Demo_Suites_V2.0.0/GD32F30x_Firmware_Library/GD32F30x_standard_peripheral/Source\gd32f30x_timer.c ****     \param[in]  aligned:
ARM GAS  C:\Users\49542\AppData\Local\Temp\ccEBNRSE.s 			page 16


 258:C:/Users/49542/Desktop/GD32F30x_Demo_Suites_V2.0.0/GD32F30x_Demo_Suites_V2.0.0/GD32F30x_Firmware_Library/GD32F30x_standard_peripheral/Source\gd32f30x_timer.c ****                 only one parameter can be selected which is shown as below:
 259:C:/Users/49542/Desktop/GD32F30x_Demo_Suites_V2.0.0/GD32F30x_Demo_Suites_V2.0.0/GD32F30x_Firmware_Library/GD32F30x_standard_peripheral/Source\gd32f30x_timer.c ****       \arg        TIMER_COUNTER_EDGE: edge-aligned mode
 260:C:/Users/49542/Desktop/GD32F30x_Demo_Suites_V2.0.0/GD32F30x_Demo_Suites_V2.0.0/GD32F30x_Firmware_Library/GD32F30x_standard_peripheral/Source\gd32f30x_timer.c ****       \arg        TIMER_COUNTER_CENTER_DOWN: center-aligned and counting down assert mode
 261:C:/Users/49542/Desktop/GD32F30x_Demo_Suites_V2.0.0/GD32F30x_Demo_Suites_V2.0.0/GD32F30x_Firmware_Library/GD32F30x_standard_peripheral/Source\gd32f30x_timer.c ****       \arg        TIMER_COUNTER_CENTER_UP: center-aligned and counting up assert mode
 262:C:/Users/49542/Desktop/GD32F30x_Demo_Suites_V2.0.0/GD32F30x_Demo_Suites_V2.0.0/GD32F30x_Firmware_Library/GD32F30x_standard_peripheral/Source\gd32f30x_timer.c ****       \arg        TIMER_COUNTER_CENTER_BOTH: center-aligned and counting up/down assert mode
 263:C:/Users/49542/Desktop/GD32F30x_Demo_Suites_V2.0.0/GD32F30x_Demo_Suites_V2.0.0/GD32F30x_Firmware_Library/GD32F30x_standard_peripheral/Source\gd32f30x_timer.c ****     \param[out] none
 264:C:/Users/49542/Desktop/GD32F30x_Demo_Suites_V2.0.0/GD32F30x_Demo_Suites_V2.0.0/GD32F30x_Firmware_Library/GD32F30x_standard_peripheral/Source\gd32f30x_timer.c ****     \retval     none
 265:C:/Users/49542/Desktop/GD32F30x_Demo_Suites_V2.0.0/GD32F30x_Demo_Suites_V2.0.0/GD32F30x_Firmware_Library/GD32F30x_standard_peripheral/Source\gd32f30x_timer.c **** */
 266:C:/Users/49542/Desktop/GD32F30x_Demo_Suites_V2.0.0/GD32F30x_Demo_Suites_V2.0.0/GD32F30x_Firmware_Library/GD32F30x_standard_peripheral/Source\gd32f30x_timer.c **** void timer_counter_alignment(uint32_t timer_periph, uint16_t aligned)
 267:C:/Users/49542/Desktop/GD32F30x_Demo_Suites_V2.0.0/GD32F30x_Demo_Suites_V2.0.0/GD32F30x_Firmware_Library/GD32F30x_standard_peripheral/Source\gd32f30x_timer.c **** {
 578              		.loc 1 267 0
 579              		.cfi_startproc
 580              		@ args = 0, pretend = 0, frame = 0
 581              		@ frame_needed = 0, uses_anonymous_args = 0
 582              		@ link register save eliminated.
 583              	.LVL64:
 268:C:/Users/49542/Desktop/GD32F30x_Demo_Suites_V2.0.0/GD32F30x_Demo_Suites_V2.0.0/GD32F30x_Firmware_Library/GD32F30x_standard_peripheral/Source\gd32f30x_timer.c ****     TIMER_CTL0(timer_periph) &= ~(uint32_t)TIMER_CTL0_CAM;
 584              		.loc 1 268 0
 585 0000 0368     		ldr	r3, [r0]
 586 0002 23F06003 		bic	r3, r3, #96
 587 0006 0360     		str	r3, [r0]
 269:C:/Users/49542/Desktop/GD32F30x_Demo_Suites_V2.0.0/GD32F30x_Demo_Suites_V2.0.0/GD32F30x_Firmware_Library/GD32F30x_standard_peripheral/Source\gd32f30x_timer.c ****     TIMER_CTL0(timer_periph) |= (uint32_t)aligned;
 588              		.loc 1 269 0
 589 0008 0368     		ldr	r3, [r0]
 590 000a 1943     		orrs	r1, r1, r3
 591              	.LVL65:
 592 000c 0160     		str	r1, [r0]
 270:C:/Users/49542/Desktop/GD32F30x_Demo_Suites_V2.0.0/GD32F30x_Demo_Suites_V2.0.0/GD32F30x_Firmware_Library/GD32F30x_standard_peripheral/Source\gd32f30x_timer.c **** }
 593              		.loc 1 270 0
 594 000e 7047     		bx	lr
 595              		.cfi_endproc
 596              	.LFE125:
 598              		.section	.text.timer_counter_up_direction,"ax",%progbits
 599              		.align	1
 600              		.global	timer_counter_up_direction
 601              		.syntax unified
 602              		.thumb
 603              		.thumb_func
 604              		.fpu fpv4-sp-d16
 606              	timer_counter_up_direction:
 607              	.LFB126:
 271:C:/Users/49542/Desktop/GD32F30x_Demo_Suites_V2.0.0/GD32F30x_Demo_Suites_V2.0.0/GD32F30x_Firmware_Library/GD32F30x_standard_peripheral/Source\gd32f30x_timer.c **** 
 272:C:/Users/49542/Desktop/GD32F30x_Demo_Suites_V2.0.0/GD32F30x_Demo_Suites_V2.0.0/GD32F30x_Firmware_Library/GD32F30x_standard_peripheral/Source\gd32f30x_timer.c **** /*!
 273:C:/Users/49542/Desktop/GD32F30x_Demo_Suites_V2.0.0/GD32F30x_Demo_Suites_V2.0.0/GD32F30x_Firmware_Library/GD32F30x_standard_peripheral/Source\gd32f30x_timer.c ****     \brief      set TIMER counter up direction
 274:C:/Users/49542/Desktop/GD32F30x_Demo_Suites_V2.0.0/GD32F30x_Demo_Suites_V2.0.0/GD32F30x_Firmware_Library/GD32F30x_standard_peripheral/Source\gd32f30x_timer.c ****     \param[in]  timer_periph: TIMERx(x=0..4,7)
 275:C:/Users/49542/Desktop/GD32F30x_Demo_Suites_V2.0.0/GD32F30x_Demo_Suites_V2.0.0/GD32F30x_Firmware_Library/GD32F30x_standard_peripheral/Source\gd32f30x_timer.c ****     \param[out] none
 276:C:/Users/49542/Desktop/GD32F30x_Demo_Suites_V2.0.0/GD32F30x_Demo_Suites_V2.0.0/GD32F30x_Firmware_Library/GD32F30x_standard_peripheral/Source\gd32f30x_timer.c ****     \retval     none
 277:C:/Users/49542/Desktop/GD32F30x_Demo_Suites_V2.0.0/GD32F30x_Demo_Suites_V2.0.0/GD32F30x_Firmware_Library/GD32F30x_standard_peripheral/Source\gd32f30x_timer.c **** */
 278:C:/Users/49542/Desktop/GD32F30x_Demo_Suites_V2.0.0/GD32F30x_Demo_Suites_V2.0.0/GD32F30x_Firmware_Library/GD32F30x_standard_peripheral/Source\gd32f30x_timer.c **** void timer_counter_up_direction(uint32_t timer_periph)
 279:C:/Users/49542/Desktop/GD32F30x_Demo_Suites_V2.0.0/GD32F30x_Demo_Suites_V2.0.0/GD32F30x_Firmware_Library/GD32F30x_standard_peripheral/Source\gd32f30x_timer.c **** {
 608              		.loc 1 279 0
 609              		.cfi_startproc
 610              		@ args = 0, pretend = 0, frame = 0
 611              		@ frame_needed = 0, uses_anonymous_args = 0
 612              		@ link register save eliminated.
 613              	.LVL66:
 280:C:/Users/49542/Desktop/GD32F30x_Demo_Suites_V2.0.0/GD32F30x_Demo_Suites_V2.0.0/GD32F30x_Firmware_Library/GD32F30x_standard_peripheral/Source\gd32f30x_timer.c ****     TIMER_CTL0(timer_periph) &= ~(uint32_t)TIMER_CTL0_DIR;
ARM GAS  C:\Users\49542\AppData\Local\Temp\ccEBNRSE.s 			page 17


 614              		.loc 1 280 0
 615 0000 0368     		ldr	r3, [r0]
 616 0002 23F01003 		bic	r3, r3, #16
 617 0006 0360     		str	r3, [r0]
 281:C:/Users/49542/Desktop/GD32F30x_Demo_Suites_V2.0.0/GD32F30x_Demo_Suites_V2.0.0/GD32F30x_Firmware_Library/GD32F30x_standard_peripheral/Source\gd32f30x_timer.c **** }
 618              		.loc 1 281 0
 619 0008 7047     		bx	lr
 620              		.cfi_endproc
 621              	.LFE126:
 623              		.section	.text.timer_counter_down_direction,"ax",%progbits
 624              		.align	1
 625              		.global	timer_counter_down_direction
 626              		.syntax unified
 627              		.thumb
 628              		.thumb_func
 629              		.fpu fpv4-sp-d16
 631              	timer_counter_down_direction:
 632              	.LFB127:
 282:C:/Users/49542/Desktop/GD32F30x_Demo_Suites_V2.0.0/GD32F30x_Demo_Suites_V2.0.0/GD32F30x_Firmware_Library/GD32F30x_standard_peripheral/Source\gd32f30x_timer.c **** 
 283:C:/Users/49542/Desktop/GD32F30x_Demo_Suites_V2.0.0/GD32F30x_Demo_Suites_V2.0.0/GD32F30x_Firmware_Library/GD32F30x_standard_peripheral/Source\gd32f30x_timer.c **** /*!
 284:C:/Users/49542/Desktop/GD32F30x_Demo_Suites_V2.0.0/GD32F30x_Demo_Suites_V2.0.0/GD32F30x_Firmware_Library/GD32F30x_standard_peripheral/Source\gd32f30x_timer.c ****     \brief      set TIMER counter down direction
 285:C:/Users/49542/Desktop/GD32F30x_Demo_Suites_V2.0.0/GD32F30x_Demo_Suites_V2.0.0/GD32F30x_Firmware_Library/GD32F30x_standard_peripheral/Source\gd32f30x_timer.c ****     \param[in]  timer_periph: TIMERx(x=0..4,7)
 286:C:/Users/49542/Desktop/GD32F30x_Demo_Suites_V2.0.0/GD32F30x_Demo_Suites_V2.0.0/GD32F30x_Firmware_Library/GD32F30x_standard_peripheral/Source\gd32f30x_timer.c ****     \param[out] none
 287:C:/Users/49542/Desktop/GD32F30x_Demo_Suites_V2.0.0/GD32F30x_Demo_Suites_V2.0.0/GD32F30x_Firmware_Library/GD32F30x_standard_peripheral/Source\gd32f30x_timer.c ****     \retval     none
 288:C:/Users/49542/Desktop/GD32F30x_Demo_Suites_V2.0.0/GD32F30x_Demo_Suites_V2.0.0/GD32F30x_Firmware_Library/GD32F30x_standard_peripheral/Source\gd32f30x_timer.c **** */
 289:C:/Users/49542/Desktop/GD32F30x_Demo_Suites_V2.0.0/GD32F30x_Demo_Suites_V2.0.0/GD32F30x_Firmware_Library/GD32F30x_standard_peripheral/Source\gd32f30x_timer.c **** void timer_counter_down_direction(uint32_t timer_periph)
 290:C:/Users/49542/Desktop/GD32F30x_Demo_Suites_V2.0.0/GD32F30x_Demo_Suites_V2.0.0/GD32F30x_Firmware_Library/GD32F30x_standard_peripheral/Source\gd32f30x_timer.c **** {
 633              		.loc 1 290 0
 634              		.cfi_startproc
 635              		@ args = 0, pretend = 0, frame = 0
 636              		@ frame_needed = 0, uses_anonymous_args = 0
 637              		@ link register save eliminated.
 638              	.LVL67:
 291:C:/Users/49542/Desktop/GD32F30x_Demo_Suites_V2.0.0/GD32F30x_Demo_Suites_V2.0.0/GD32F30x_Firmware_Library/GD32F30x_standard_peripheral/Source\gd32f30x_timer.c ****     TIMER_CTL0(timer_periph) |= (uint32_t)TIMER_CTL0_DIR;
 639              		.loc 1 291 0
 640 0000 0368     		ldr	r3, [r0]
 641 0002 43F01003 		orr	r3, r3, #16
 642 0006 0360     		str	r3, [r0]
 292:C:/Users/49542/Desktop/GD32F30x_Demo_Suites_V2.0.0/GD32F30x_Demo_Suites_V2.0.0/GD32F30x_Firmware_Library/GD32F30x_standard_peripheral/Source\gd32f30x_timer.c **** }
 643              		.loc 1 292 0
 644 0008 7047     		bx	lr
 645              		.cfi_endproc
 646              	.LFE127:
 648              		.section	.text.timer_prescaler_config,"ax",%progbits
 649              		.align	1
 650              		.global	timer_prescaler_config
 651              		.syntax unified
 652              		.thumb
 653              		.thumb_func
 654              		.fpu fpv4-sp-d16
 656              	timer_prescaler_config:
 657              	.LFB128:
 293:C:/Users/49542/Desktop/GD32F30x_Demo_Suites_V2.0.0/GD32F30x_Demo_Suites_V2.0.0/GD32F30x_Firmware_Library/GD32F30x_standard_peripheral/Source\gd32f30x_timer.c **** 
 294:C:/Users/49542/Desktop/GD32F30x_Demo_Suites_V2.0.0/GD32F30x_Demo_Suites_V2.0.0/GD32F30x_Firmware_Library/GD32F30x_standard_peripheral/Source\gd32f30x_timer.c **** /*!
 295:C:/Users/49542/Desktop/GD32F30x_Demo_Suites_V2.0.0/GD32F30x_Demo_Suites_V2.0.0/GD32F30x_Firmware_Library/GD32F30x_standard_peripheral/Source\gd32f30x_timer.c ****     \brief      configure TIMER prescaler
 296:C:/Users/49542/Desktop/GD32F30x_Demo_Suites_V2.0.0/GD32F30x_Demo_Suites_V2.0.0/GD32F30x_Firmware_Library/GD32F30x_standard_peripheral/Source\gd32f30x_timer.c ****     \param[in]  timer_periph: TIMERx(x=0..13)
 297:C:/Users/49542/Desktop/GD32F30x_Demo_Suites_V2.0.0/GD32F30x_Demo_Suites_V2.0.0/GD32F30x_Firmware_Library/GD32F30x_standard_peripheral/Source\gd32f30x_timer.c ****     \param[in]  prescaler: prescaler value,0~65535
ARM GAS  C:\Users\49542\AppData\Local\Temp\ccEBNRSE.s 			page 18


 298:C:/Users/49542/Desktop/GD32F30x_Demo_Suites_V2.0.0/GD32F30x_Demo_Suites_V2.0.0/GD32F30x_Firmware_Library/GD32F30x_standard_peripheral/Source\gd32f30x_timer.c ****     \param[in]  pscreload: prescaler reload mode
 299:C:/Users/49542/Desktop/GD32F30x_Demo_Suites_V2.0.0/GD32F30x_Demo_Suites_V2.0.0/GD32F30x_Firmware_Library/GD32F30x_standard_peripheral/Source\gd32f30x_timer.c ****                 only one parameter can be selected which is shown as below:
 300:C:/Users/49542/Desktop/GD32F30x_Demo_Suites_V2.0.0/GD32F30x_Demo_Suites_V2.0.0/GD32F30x_Firmware_Library/GD32F30x_standard_peripheral/Source\gd32f30x_timer.c ****       \arg        TIMER_PSC_RELOAD_NOW: the prescaler is loaded right now
 301:C:/Users/49542/Desktop/GD32F30x_Demo_Suites_V2.0.0/GD32F30x_Demo_Suites_V2.0.0/GD32F30x_Firmware_Library/GD32F30x_standard_peripheral/Source\gd32f30x_timer.c ****       \arg        TIMER_PSC_RELOAD_UPDATE: the prescaler is loaded at the next update event
 302:C:/Users/49542/Desktop/GD32F30x_Demo_Suites_V2.0.0/GD32F30x_Demo_Suites_V2.0.0/GD32F30x_Firmware_Library/GD32F30x_standard_peripheral/Source\gd32f30x_timer.c ****     \param[out] none
 303:C:/Users/49542/Desktop/GD32F30x_Demo_Suites_V2.0.0/GD32F30x_Demo_Suites_V2.0.0/GD32F30x_Firmware_Library/GD32F30x_standard_peripheral/Source\gd32f30x_timer.c ****     \retval     none
 304:C:/Users/49542/Desktop/GD32F30x_Demo_Suites_V2.0.0/GD32F30x_Demo_Suites_V2.0.0/GD32F30x_Firmware_Library/GD32F30x_standard_peripheral/Source\gd32f30x_timer.c **** */
 305:C:/Users/49542/Desktop/GD32F30x_Demo_Suites_V2.0.0/GD32F30x_Demo_Suites_V2.0.0/GD32F30x_Firmware_Library/GD32F30x_standard_peripheral/Source\gd32f30x_timer.c **** void timer_prescaler_config(uint32_t timer_periph, uint16_t prescaler, uint8_t pscreload)
 306:C:/Users/49542/Desktop/GD32F30x_Demo_Suites_V2.0.0/GD32F30x_Demo_Suites_V2.0.0/GD32F30x_Firmware_Library/GD32F30x_standard_peripheral/Source\gd32f30x_timer.c **** {
 658              		.loc 1 306 0
 659              		.cfi_startproc
 660              		@ args = 0, pretend = 0, frame = 0
 661              		@ frame_needed = 0, uses_anonymous_args = 0
 662              		@ link register save eliminated.
 663              	.LVL68:
 307:C:/Users/49542/Desktop/GD32F30x_Demo_Suites_V2.0.0/GD32F30x_Demo_Suites_V2.0.0/GD32F30x_Firmware_Library/GD32F30x_standard_peripheral/Source\gd32f30x_timer.c ****     TIMER_PSC(timer_periph) = (uint32_t)prescaler;
 664              		.loc 1 307 0
 665 0000 8162     		str	r1, [r0, #40]
 308:C:/Users/49542/Desktop/GD32F30x_Demo_Suites_V2.0.0/GD32F30x_Demo_Suites_V2.0.0/GD32F30x_Firmware_Library/GD32F30x_standard_peripheral/Source\gd32f30x_timer.c ****     
 309:C:/Users/49542/Desktop/GD32F30x_Demo_Suites_V2.0.0/GD32F30x_Demo_Suites_V2.0.0/GD32F30x_Firmware_Library/GD32F30x_standard_peripheral/Source\gd32f30x_timer.c ****     if(TIMER_PSC_RELOAD_NOW == pscreload){
 666              		.loc 1 309 0
 667 0002 1AB9     		cbnz	r2, .L43
 310:C:/Users/49542/Desktop/GD32F30x_Demo_Suites_V2.0.0/GD32F30x_Demo_Suites_V2.0.0/GD32F30x_Firmware_Library/GD32F30x_standard_peripheral/Source\gd32f30x_timer.c ****         TIMER_SWEVG(timer_periph) |= (uint32_t)TIMER_SWEVG_UPG;
 668              		.loc 1 310 0
 669 0004 4369     		ldr	r3, [r0, #20]
 670 0006 43F00103 		orr	r3, r3, #1
 671 000a 4361     		str	r3, [r0, #20]
 672              	.L43:
 311:C:/Users/49542/Desktop/GD32F30x_Demo_Suites_V2.0.0/GD32F30x_Demo_Suites_V2.0.0/GD32F30x_Firmware_Library/GD32F30x_standard_peripheral/Source\gd32f30x_timer.c ****     }
 312:C:/Users/49542/Desktop/GD32F30x_Demo_Suites_V2.0.0/GD32F30x_Demo_Suites_V2.0.0/GD32F30x_Firmware_Library/GD32F30x_standard_peripheral/Source\gd32f30x_timer.c **** }
 673              		.loc 1 312 0
 674 000c 7047     		bx	lr
 675              		.cfi_endproc
 676              	.LFE128:
 678              		.section	.text.timer_repetition_value_config,"ax",%progbits
 679              		.align	1
 680              		.global	timer_repetition_value_config
 681              		.syntax unified
 682              		.thumb
 683              		.thumb_func
 684              		.fpu fpv4-sp-d16
 686              	timer_repetition_value_config:
 687              	.LFB129:
 313:C:/Users/49542/Desktop/GD32F30x_Demo_Suites_V2.0.0/GD32F30x_Demo_Suites_V2.0.0/GD32F30x_Firmware_Library/GD32F30x_standard_peripheral/Source\gd32f30x_timer.c **** 
 314:C:/Users/49542/Desktop/GD32F30x_Demo_Suites_V2.0.0/GD32F30x_Demo_Suites_V2.0.0/GD32F30x_Firmware_Library/GD32F30x_standard_peripheral/Source\gd32f30x_timer.c **** /*!
 315:C:/Users/49542/Desktop/GD32F30x_Demo_Suites_V2.0.0/GD32F30x_Demo_Suites_V2.0.0/GD32F30x_Firmware_Library/GD32F30x_standard_peripheral/Source\gd32f30x_timer.c ****     \brief      configure TIMER repetition register value
 316:C:/Users/49542/Desktop/GD32F30x_Demo_Suites_V2.0.0/GD32F30x_Demo_Suites_V2.0.0/GD32F30x_Firmware_Library/GD32F30x_standard_peripheral/Source\gd32f30x_timer.c ****     \param[in]  timer_periph: TIMERx(x=0,7)
 317:C:/Users/49542/Desktop/GD32F30x_Demo_Suites_V2.0.0/GD32F30x_Demo_Suites_V2.0.0/GD32F30x_Firmware_Library/GD32F30x_standard_peripheral/Source\gd32f30x_timer.c ****     \param[in]  repetition: the counter repetition value,0~255
 318:C:/Users/49542/Desktop/GD32F30x_Demo_Suites_V2.0.0/GD32F30x_Demo_Suites_V2.0.0/GD32F30x_Firmware_Library/GD32F30x_standard_peripheral/Source\gd32f30x_timer.c ****     \param[out] none
 319:C:/Users/49542/Desktop/GD32F30x_Demo_Suites_V2.0.0/GD32F30x_Demo_Suites_V2.0.0/GD32F30x_Firmware_Library/GD32F30x_standard_peripheral/Source\gd32f30x_timer.c ****     \retval     none
 320:C:/Users/49542/Desktop/GD32F30x_Demo_Suites_V2.0.0/GD32F30x_Demo_Suites_V2.0.0/GD32F30x_Firmware_Library/GD32F30x_standard_peripheral/Source\gd32f30x_timer.c **** */
 321:C:/Users/49542/Desktop/GD32F30x_Demo_Suites_V2.0.0/GD32F30x_Demo_Suites_V2.0.0/GD32F30x_Firmware_Library/GD32F30x_standard_peripheral/Source\gd32f30x_timer.c **** void timer_repetition_value_config(uint32_t timer_periph, uint16_t repetition)
 322:C:/Users/49542/Desktop/GD32F30x_Demo_Suites_V2.0.0/GD32F30x_Demo_Suites_V2.0.0/GD32F30x_Firmware_Library/GD32F30x_standard_peripheral/Source\gd32f30x_timer.c **** {
 688              		.loc 1 322 0
 689              		.cfi_startproc
 690              		@ args = 0, pretend = 0, frame = 0
 691              		@ frame_needed = 0, uses_anonymous_args = 0
ARM GAS  C:\Users\49542\AppData\Local\Temp\ccEBNRSE.s 			page 19


 692              		@ link register save eliminated.
 693              	.LVL69:
 323:C:/Users/49542/Desktop/GD32F30x_Demo_Suites_V2.0.0/GD32F30x_Demo_Suites_V2.0.0/GD32F30x_Firmware_Library/GD32F30x_standard_peripheral/Source\gd32f30x_timer.c ****     TIMER_CREP(timer_periph) = (uint32_t)repetition;
 694              		.loc 1 323 0
 695 0000 0163     		str	r1, [r0, #48]
 324:C:/Users/49542/Desktop/GD32F30x_Demo_Suites_V2.0.0/GD32F30x_Demo_Suites_V2.0.0/GD32F30x_Firmware_Library/GD32F30x_standard_peripheral/Source\gd32f30x_timer.c **** } 
 696              		.loc 1 324 0
 697 0002 7047     		bx	lr
 698              		.cfi_endproc
 699              	.LFE129:
 701              		.section	.text.timer_autoreload_value_config,"ax",%progbits
 702              		.align	1
 703              		.global	timer_autoreload_value_config
 704              		.syntax unified
 705              		.thumb
 706              		.thumb_func
 707              		.fpu fpv4-sp-d16
 709              	timer_autoreload_value_config:
 710              	.LFB130:
 325:C:/Users/49542/Desktop/GD32F30x_Demo_Suites_V2.0.0/GD32F30x_Demo_Suites_V2.0.0/GD32F30x_Firmware_Library/GD32F30x_standard_peripheral/Source\gd32f30x_timer.c ****  
 326:C:/Users/49542/Desktop/GD32F30x_Demo_Suites_V2.0.0/GD32F30x_Demo_Suites_V2.0.0/GD32F30x_Firmware_Library/GD32F30x_standard_peripheral/Source\gd32f30x_timer.c **** /*!
 327:C:/Users/49542/Desktop/GD32F30x_Demo_Suites_V2.0.0/GD32F30x_Demo_Suites_V2.0.0/GD32F30x_Firmware_Library/GD32F30x_standard_peripheral/Source\gd32f30x_timer.c ****     \brief      configure TIMER autoreload register value
 328:C:/Users/49542/Desktop/GD32F30x_Demo_Suites_V2.0.0/GD32F30x_Demo_Suites_V2.0.0/GD32F30x_Firmware_Library/GD32F30x_standard_peripheral/Source\gd32f30x_timer.c ****     \param[in]  timer_periph: TIMERx(x=0..13)
 329:C:/Users/49542/Desktop/GD32F30x_Demo_Suites_V2.0.0/GD32F30x_Demo_Suites_V2.0.0/GD32F30x_Firmware_Library/GD32F30x_standard_peripheral/Source\gd32f30x_timer.c ****     \param[in]  autoreload: the counter auto-reload value,0~65535
 330:C:/Users/49542/Desktop/GD32F30x_Demo_Suites_V2.0.0/GD32F30x_Demo_Suites_V2.0.0/GD32F30x_Firmware_Library/GD32F30x_standard_peripheral/Source\gd32f30x_timer.c ****     \param[out] none
 331:C:/Users/49542/Desktop/GD32F30x_Demo_Suites_V2.0.0/GD32F30x_Demo_Suites_V2.0.0/GD32F30x_Firmware_Library/GD32F30x_standard_peripheral/Source\gd32f30x_timer.c ****     \retval     none
 332:C:/Users/49542/Desktop/GD32F30x_Demo_Suites_V2.0.0/GD32F30x_Demo_Suites_V2.0.0/GD32F30x_Firmware_Library/GD32F30x_standard_peripheral/Source\gd32f30x_timer.c **** */         
 333:C:/Users/49542/Desktop/GD32F30x_Demo_Suites_V2.0.0/GD32F30x_Demo_Suites_V2.0.0/GD32F30x_Firmware_Library/GD32F30x_standard_peripheral/Source\gd32f30x_timer.c **** void timer_autoreload_value_config(uint32_t timer_periph, uint16_t autoreload)
 334:C:/Users/49542/Desktop/GD32F30x_Demo_Suites_V2.0.0/GD32F30x_Demo_Suites_V2.0.0/GD32F30x_Firmware_Library/GD32F30x_standard_peripheral/Source\gd32f30x_timer.c **** {
 711              		.loc 1 334 0
 712              		.cfi_startproc
 713              		@ args = 0, pretend = 0, frame = 0
 714              		@ frame_needed = 0, uses_anonymous_args = 0
 715              		@ link register save eliminated.
 716              	.LVL70:
 335:C:/Users/49542/Desktop/GD32F30x_Demo_Suites_V2.0.0/GD32F30x_Demo_Suites_V2.0.0/GD32F30x_Firmware_Library/GD32F30x_standard_peripheral/Source\gd32f30x_timer.c ****     TIMER_CAR(timer_periph) = (uint32_t)autoreload;
 717              		.loc 1 335 0
 718 0000 C162     		str	r1, [r0, #44]
 336:C:/Users/49542/Desktop/GD32F30x_Demo_Suites_V2.0.0/GD32F30x_Demo_Suites_V2.0.0/GD32F30x_Firmware_Library/GD32F30x_standard_peripheral/Source\gd32f30x_timer.c **** }
 719              		.loc 1 336 0
 720 0002 7047     		bx	lr
 721              		.cfi_endproc
 722              	.LFE130:
 724              		.section	.text.timer_counter_value_config,"ax",%progbits
 725              		.align	1
 726              		.global	timer_counter_value_config
 727              		.syntax unified
 728              		.thumb
 729              		.thumb_func
 730              		.fpu fpv4-sp-d16
 732              	timer_counter_value_config:
 733              	.LFB131:
 337:C:/Users/49542/Desktop/GD32F30x_Demo_Suites_V2.0.0/GD32F30x_Demo_Suites_V2.0.0/GD32F30x_Firmware_Library/GD32F30x_standard_peripheral/Source\gd32f30x_timer.c **** 
 338:C:/Users/49542/Desktop/GD32F30x_Demo_Suites_V2.0.0/GD32F30x_Demo_Suites_V2.0.0/GD32F30x_Firmware_Library/GD32F30x_standard_peripheral/Source\gd32f30x_timer.c **** /*!
 339:C:/Users/49542/Desktop/GD32F30x_Demo_Suites_V2.0.0/GD32F30x_Demo_Suites_V2.0.0/GD32F30x_Firmware_Library/GD32F30x_standard_peripheral/Source\gd32f30x_timer.c ****     \brief      configure TIMER counter register value
 340:C:/Users/49542/Desktop/GD32F30x_Demo_Suites_V2.0.0/GD32F30x_Demo_Suites_V2.0.0/GD32F30x_Firmware_Library/GD32F30x_standard_peripheral/Source\gd32f30x_timer.c ****     \param[in]  timer_periph: TIMERx(x=0..13)
 341:C:/Users/49542/Desktop/GD32F30x_Demo_Suites_V2.0.0/GD32F30x_Demo_Suites_V2.0.0/GD32F30x_Firmware_Library/GD32F30x_standard_peripheral/Source\gd32f30x_timer.c ****     \param[in]  counter: the counter value,0~65535
ARM GAS  C:\Users\49542\AppData\Local\Temp\ccEBNRSE.s 			page 20


 342:C:/Users/49542/Desktop/GD32F30x_Demo_Suites_V2.0.0/GD32F30x_Demo_Suites_V2.0.0/GD32F30x_Firmware_Library/GD32F30x_standard_peripheral/Source\gd32f30x_timer.c ****     \param[out] none
 343:C:/Users/49542/Desktop/GD32F30x_Demo_Suites_V2.0.0/GD32F30x_Demo_Suites_V2.0.0/GD32F30x_Firmware_Library/GD32F30x_standard_peripheral/Source\gd32f30x_timer.c ****     \retval     none
 344:C:/Users/49542/Desktop/GD32F30x_Demo_Suites_V2.0.0/GD32F30x_Demo_Suites_V2.0.0/GD32F30x_Firmware_Library/GD32F30x_standard_peripheral/Source\gd32f30x_timer.c **** */         
 345:C:/Users/49542/Desktop/GD32F30x_Demo_Suites_V2.0.0/GD32F30x_Demo_Suites_V2.0.0/GD32F30x_Firmware_Library/GD32F30x_standard_peripheral/Source\gd32f30x_timer.c **** void timer_counter_value_config(uint32_t timer_periph, uint16_t counter)
 346:C:/Users/49542/Desktop/GD32F30x_Demo_Suites_V2.0.0/GD32F30x_Demo_Suites_V2.0.0/GD32F30x_Firmware_Library/GD32F30x_standard_peripheral/Source\gd32f30x_timer.c **** {
 734              		.loc 1 346 0
 735              		.cfi_startproc
 736              		@ args = 0, pretend = 0, frame = 0
 737              		@ frame_needed = 0, uses_anonymous_args = 0
 738              		@ link register save eliminated.
 739              	.LVL71:
 347:C:/Users/49542/Desktop/GD32F30x_Demo_Suites_V2.0.0/GD32F30x_Demo_Suites_V2.0.0/GD32F30x_Firmware_Library/GD32F30x_standard_peripheral/Source\gd32f30x_timer.c ****     TIMER_CNT(timer_periph) = (uint32_t)counter;
 740              		.loc 1 347 0
 741 0000 4162     		str	r1, [r0, #36]
 348:C:/Users/49542/Desktop/GD32F30x_Demo_Suites_V2.0.0/GD32F30x_Demo_Suites_V2.0.0/GD32F30x_Firmware_Library/GD32F30x_standard_peripheral/Source\gd32f30x_timer.c **** }
 742              		.loc 1 348 0
 743 0002 7047     		bx	lr
 744              		.cfi_endproc
 745              	.LFE131:
 747              		.section	.text.timer_counter_read,"ax",%progbits
 748              		.align	1
 749              		.global	timer_counter_read
 750              		.syntax unified
 751              		.thumb
 752              		.thumb_func
 753              		.fpu fpv4-sp-d16
 755              	timer_counter_read:
 756              	.LFB132:
 349:C:/Users/49542/Desktop/GD32F30x_Demo_Suites_V2.0.0/GD32F30x_Demo_Suites_V2.0.0/GD32F30x_Firmware_Library/GD32F30x_standard_peripheral/Source\gd32f30x_timer.c **** 
 350:C:/Users/49542/Desktop/GD32F30x_Demo_Suites_V2.0.0/GD32F30x_Demo_Suites_V2.0.0/GD32F30x_Firmware_Library/GD32F30x_standard_peripheral/Source\gd32f30x_timer.c **** /*!
 351:C:/Users/49542/Desktop/GD32F30x_Demo_Suites_V2.0.0/GD32F30x_Demo_Suites_V2.0.0/GD32F30x_Firmware_Library/GD32F30x_standard_peripheral/Source\gd32f30x_timer.c ****     \brief      read TIMER counter value
 352:C:/Users/49542/Desktop/GD32F30x_Demo_Suites_V2.0.0/GD32F30x_Demo_Suites_V2.0.0/GD32F30x_Firmware_Library/GD32F30x_standard_peripheral/Source\gd32f30x_timer.c ****     \param[in]  timer_periph: TIMERx(x=0..13)
 353:C:/Users/49542/Desktop/GD32F30x_Demo_Suites_V2.0.0/GD32F30x_Demo_Suites_V2.0.0/GD32F30x_Firmware_Library/GD32F30x_standard_peripheral/Source\gd32f30x_timer.c ****     \param[out] none
 354:C:/Users/49542/Desktop/GD32F30x_Demo_Suites_V2.0.0/GD32F30x_Demo_Suites_V2.0.0/GD32F30x_Firmware_Library/GD32F30x_standard_peripheral/Source\gd32f30x_timer.c ****     \retval     counter value
 355:C:/Users/49542/Desktop/GD32F30x_Demo_Suites_V2.0.0/GD32F30x_Demo_Suites_V2.0.0/GD32F30x_Firmware_Library/GD32F30x_standard_peripheral/Source\gd32f30x_timer.c **** */         
 356:C:/Users/49542/Desktop/GD32F30x_Demo_Suites_V2.0.0/GD32F30x_Demo_Suites_V2.0.0/GD32F30x_Firmware_Library/GD32F30x_standard_peripheral/Source\gd32f30x_timer.c **** uint32_t timer_counter_read(uint32_t timer_periph)
 357:C:/Users/49542/Desktop/GD32F30x_Demo_Suites_V2.0.0/GD32F30x_Demo_Suites_V2.0.0/GD32F30x_Firmware_Library/GD32F30x_standard_peripheral/Source\gd32f30x_timer.c **** {
 757              		.loc 1 357 0
 758              		.cfi_startproc
 759              		@ args = 0, pretend = 0, frame = 0
 760              		@ frame_needed = 0, uses_anonymous_args = 0
 761              		@ link register save eliminated.
 762              	.LVL72:
 358:C:/Users/49542/Desktop/GD32F30x_Demo_Suites_V2.0.0/GD32F30x_Demo_Suites_V2.0.0/GD32F30x_Firmware_Library/GD32F30x_standard_peripheral/Source\gd32f30x_timer.c ****     uint32_t count_value = 0U;
 359:C:/Users/49542/Desktop/GD32F30x_Demo_Suites_V2.0.0/GD32F30x_Demo_Suites_V2.0.0/GD32F30x_Firmware_Library/GD32F30x_standard_peripheral/Source\gd32f30x_timer.c ****     count_value = TIMER_CNT(timer_periph);
 763              		.loc 1 359 0
 764 0000 406A     		ldr	r0, [r0, #36]
 765              	.LVL73:
 360:C:/Users/49542/Desktop/GD32F30x_Demo_Suites_V2.0.0/GD32F30x_Demo_Suites_V2.0.0/GD32F30x_Firmware_Library/GD32F30x_standard_peripheral/Source\gd32f30x_timer.c ****     return (count_value);
 361:C:/Users/49542/Desktop/GD32F30x_Demo_Suites_V2.0.0/GD32F30x_Demo_Suites_V2.0.0/GD32F30x_Firmware_Library/GD32F30x_standard_peripheral/Source\gd32f30x_timer.c **** }
 766              		.loc 1 361 0
 767 0002 7047     		bx	lr
 768              		.cfi_endproc
 769              	.LFE132:
 771              		.section	.text.timer_prescaler_read,"ax",%progbits
 772              		.align	1
 773              		.global	timer_prescaler_read
ARM GAS  C:\Users\49542\AppData\Local\Temp\ccEBNRSE.s 			page 21


 774              		.syntax unified
 775              		.thumb
 776              		.thumb_func
 777              		.fpu fpv4-sp-d16
 779              	timer_prescaler_read:
 780              	.LFB133:
 362:C:/Users/49542/Desktop/GD32F30x_Demo_Suites_V2.0.0/GD32F30x_Demo_Suites_V2.0.0/GD32F30x_Firmware_Library/GD32F30x_standard_peripheral/Source\gd32f30x_timer.c **** 
 363:C:/Users/49542/Desktop/GD32F30x_Demo_Suites_V2.0.0/GD32F30x_Demo_Suites_V2.0.0/GD32F30x_Firmware_Library/GD32F30x_standard_peripheral/Source\gd32f30x_timer.c **** /*!
 364:C:/Users/49542/Desktop/GD32F30x_Demo_Suites_V2.0.0/GD32F30x_Demo_Suites_V2.0.0/GD32F30x_Firmware_Library/GD32F30x_standard_peripheral/Source\gd32f30x_timer.c ****     \brief      read TIMER prescaler value
 365:C:/Users/49542/Desktop/GD32F30x_Demo_Suites_V2.0.0/GD32F30x_Demo_Suites_V2.0.0/GD32F30x_Firmware_Library/GD32F30x_standard_peripheral/Source\gd32f30x_timer.c ****     \param[in]  timer_periph: TIMERx(x=0..13)
 366:C:/Users/49542/Desktop/GD32F30x_Demo_Suites_V2.0.0/GD32F30x_Demo_Suites_V2.0.0/GD32F30x_Firmware_Library/GD32F30x_standard_peripheral/Source\gd32f30x_timer.c ****     \param[out] none
 367:C:/Users/49542/Desktop/GD32F30x_Demo_Suites_V2.0.0/GD32F30x_Demo_Suites_V2.0.0/GD32F30x_Firmware_Library/GD32F30x_standard_peripheral/Source\gd32f30x_timer.c ****     \retval     prescaler register value
 368:C:/Users/49542/Desktop/GD32F30x_Demo_Suites_V2.0.0/GD32F30x_Demo_Suites_V2.0.0/GD32F30x_Firmware_Library/GD32F30x_standard_peripheral/Source\gd32f30x_timer.c **** */         
 369:C:/Users/49542/Desktop/GD32F30x_Demo_Suites_V2.0.0/GD32F30x_Demo_Suites_V2.0.0/GD32F30x_Firmware_Library/GD32F30x_standard_peripheral/Source\gd32f30x_timer.c **** uint16_t timer_prescaler_read(uint32_t timer_periph)
 370:C:/Users/49542/Desktop/GD32F30x_Demo_Suites_V2.0.0/GD32F30x_Demo_Suites_V2.0.0/GD32F30x_Firmware_Library/GD32F30x_standard_peripheral/Source\gd32f30x_timer.c **** {
 781              		.loc 1 370 0
 782              		.cfi_startproc
 783              		@ args = 0, pretend = 0, frame = 0
 784              		@ frame_needed = 0, uses_anonymous_args = 0
 785              		@ link register save eliminated.
 786              	.LVL74:
 371:C:/Users/49542/Desktop/GD32F30x_Demo_Suites_V2.0.0/GD32F30x_Demo_Suites_V2.0.0/GD32F30x_Firmware_Library/GD32F30x_standard_peripheral/Source\gd32f30x_timer.c ****     uint16_t prescaler_value = 0U;
 372:C:/Users/49542/Desktop/GD32F30x_Demo_Suites_V2.0.0/GD32F30x_Demo_Suites_V2.0.0/GD32F30x_Firmware_Library/GD32F30x_standard_peripheral/Source\gd32f30x_timer.c ****     prescaler_value = (uint16_t)(TIMER_PSC(timer_periph));
 787              		.loc 1 372 0
 788 0000 806A     		ldr	r0, [r0, #40]
 789              	.LVL75:
 373:C:/Users/49542/Desktop/GD32F30x_Demo_Suites_V2.0.0/GD32F30x_Demo_Suites_V2.0.0/GD32F30x_Firmware_Library/GD32F30x_standard_peripheral/Source\gd32f30x_timer.c ****     return (prescaler_value);
 374:C:/Users/49542/Desktop/GD32F30x_Demo_Suites_V2.0.0/GD32F30x_Demo_Suites_V2.0.0/GD32F30x_Firmware_Library/GD32F30x_standard_peripheral/Source\gd32f30x_timer.c **** }
 790              		.loc 1 374 0
 791 0002 80B2     		uxth	r0, r0
 792 0004 7047     		bx	lr
 793              		.cfi_endproc
 794              	.LFE133:
 796              		.section	.text.timer_single_pulse_mode_config,"ax",%progbits
 797              		.align	1
 798              		.global	timer_single_pulse_mode_config
 799              		.syntax unified
 800              		.thumb
 801              		.thumb_func
 802              		.fpu fpv4-sp-d16
 804              	timer_single_pulse_mode_config:
 805              	.LFB134:
 375:C:/Users/49542/Desktop/GD32F30x_Demo_Suites_V2.0.0/GD32F30x_Demo_Suites_V2.0.0/GD32F30x_Firmware_Library/GD32F30x_standard_peripheral/Source\gd32f30x_timer.c **** 
 376:C:/Users/49542/Desktop/GD32F30x_Demo_Suites_V2.0.0/GD32F30x_Demo_Suites_V2.0.0/GD32F30x_Firmware_Library/GD32F30x_standard_peripheral/Source\gd32f30x_timer.c **** /*!
 377:C:/Users/49542/Desktop/GD32F30x_Demo_Suites_V2.0.0/GD32F30x_Demo_Suites_V2.0.0/GD32F30x_Firmware_Library/GD32F30x_standard_peripheral/Source\gd32f30x_timer.c ****     \brief      configure TIMER single pulse mode
 378:C:/Users/49542/Desktop/GD32F30x_Demo_Suites_V2.0.0/GD32F30x_Demo_Suites_V2.0.0/GD32F30x_Firmware_Library/GD32F30x_standard_peripheral/Source\gd32f30x_timer.c ****     \param[in]  timer_periph: TIMERx(x=0..8,11)
 379:C:/Users/49542/Desktop/GD32F30x_Demo_Suites_V2.0.0/GD32F30x_Demo_Suites_V2.0.0/GD32F30x_Firmware_Library/GD32F30x_standard_peripheral/Source\gd32f30x_timer.c ****     \param[in]  spmode:
 380:C:/Users/49542/Desktop/GD32F30x_Demo_Suites_V2.0.0/GD32F30x_Demo_Suites_V2.0.0/GD32F30x_Firmware_Library/GD32F30x_standard_peripheral/Source\gd32f30x_timer.c ****                 only one parameter can be selected which is shown as below:
 381:C:/Users/49542/Desktop/GD32F30x_Demo_Suites_V2.0.0/GD32F30x_Demo_Suites_V2.0.0/GD32F30x_Firmware_Library/GD32F30x_standard_peripheral/Source\gd32f30x_timer.c ****       \arg        TIMER_SP_MODE_SINGLE: single pulse mode
 382:C:/Users/49542/Desktop/GD32F30x_Demo_Suites_V2.0.0/GD32F30x_Demo_Suites_V2.0.0/GD32F30x_Firmware_Library/GD32F30x_standard_peripheral/Source\gd32f30x_timer.c ****       \arg        TIMER_SP_MODE_REPETITIVE: repetitive pulse mode
 383:C:/Users/49542/Desktop/GD32F30x_Demo_Suites_V2.0.0/GD32F30x_Demo_Suites_V2.0.0/GD32F30x_Firmware_Library/GD32F30x_standard_peripheral/Source\gd32f30x_timer.c ****     \param[out] none
 384:C:/Users/49542/Desktop/GD32F30x_Demo_Suites_V2.0.0/GD32F30x_Demo_Suites_V2.0.0/GD32F30x_Firmware_Library/GD32F30x_standard_peripheral/Source\gd32f30x_timer.c ****     \retval     none
 385:C:/Users/49542/Desktop/GD32F30x_Demo_Suites_V2.0.0/GD32F30x_Demo_Suites_V2.0.0/GD32F30x_Firmware_Library/GD32F30x_standard_peripheral/Source\gd32f30x_timer.c **** */
 386:C:/Users/49542/Desktop/GD32F30x_Demo_Suites_V2.0.0/GD32F30x_Demo_Suites_V2.0.0/GD32F30x_Firmware_Library/GD32F30x_standard_peripheral/Source\gd32f30x_timer.c **** void timer_single_pulse_mode_config(uint32_t timer_periph, uint32_t spmode)
 387:C:/Users/49542/Desktop/GD32F30x_Demo_Suites_V2.0.0/GD32F30x_Demo_Suites_V2.0.0/GD32F30x_Firmware_Library/GD32F30x_standard_peripheral/Source\gd32f30x_timer.c **** {
 806              		.loc 1 387 0
 807              		.cfi_startproc
ARM GAS  C:\Users\49542\AppData\Local\Temp\ccEBNRSE.s 			page 22


 808              		@ args = 0, pretend = 0, frame = 0
 809              		@ frame_needed = 0, uses_anonymous_args = 0
 810              		@ link register save eliminated.
 811              	.LVL76:
 388:C:/Users/49542/Desktop/GD32F30x_Demo_Suites_V2.0.0/GD32F30x_Demo_Suites_V2.0.0/GD32F30x_Firmware_Library/GD32F30x_standard_peripheral/Source\gd32f30x_timer.c ****     if(TIMER_SP_MODE_SINGLE == spmode){
 812              		.loc 1 388 0
 813 0000 11B1     		cbz	r1, .L53
 389:C:/Users/49542/Desktop/GD32F30x_Demo_Suites_V2.0.0/GD32F30x_Demo_Suites_V2.0.0/GD32F30x_Firmware_Library/GD32F30x_standard_peripheral/Source\gd32f30x_timer.c ****         TIMER_CTL0(timer_periph) |= (uint32_t)TIMER_CTL0_SPM;
 390:C:/Users/49542/Desktop/GD32F30x_Demo_Suites_V2.0.0/GD32F30x_Demo_Suites_V2.0.0/GD32F30x_Firmware_Library/GD32F30x_standard_peripheral/Source\gd32f30x_timer.c ****     }else if(TIMER_SP_MODE_REPETITIVE == spmode){
 814              		.loc 1 390 0
 815 0002 0129     		cmp	r1, #1
 816 0004 05D0     		beq	.L54
 817              	.L50:
 391:C:/Users/49542/Desktop/GD32F30x_Demo_Suites_V2.0.0/GD32F30x_Demo_Suites_V2.0.0/GD32F30x_Firmware_Library/GD32F30x_standard_peripheral/Source\gd32f30x_timer.c ****         TIMER_CTL0(timer_periph) &= ~((uint32_t)TIMER_CTL0_SPM);
 392:C:/Users/49542/Desktop/GD32F30x_Demo_Suites_V2.0.0/GD32F30x_Demo_Suites_V2.0.0/GD32F30x_Firmware_Library/GD32F30x_standard_peripheral/Source\gd32f30x_timer.c ****     }else{
 393:C:/Users/49542/Desktop/GD32F30x_Demo_Suites_V2.0.0/GD32F30x_Demo_Suites_V2.0.0/GD32F30x_Firmware_Library/GD32F30x_standard_peripheral/Source\gd32f30x_timer.c ****         /* illegal parameters */
 394:C:/Users/49542/Desktop/GD32F30x_Demo_Suites_V2.0.0/GD32F30x_Demo_Suites_V2.0.0/GD32F30x_Firmware_Library/GD32F30x_standard_peripheral/Source\gd32f30x_timer.c ****     }
 395:C:/Users/49542/Desktop/GD32F30x_Demo_Suites_V2.0.0/GD32F30x_Demo_Suites_V2.0.0/GD32F30x_Firmware_Library/GD32F30x_standard_peripheral/Source\gd32f30x_timer.c **** }
 818              		.loc 1 395 0
 819 0006 7047     		bx	lr
 820              	.L53:
 389:C:/Users/49542/Desktop/GD32F30x_Demo_Suites_V2.0.0/GD32F30x_Demo_Suites_V2.0.0/GD32F30x_Firmware_Library/GD32F30x_standard_peripheral/Source\gd32f30x_timer.c ****         TIMER_CTL0(timer_periph) |= (uint32_t)TIMER_CTL0_SPM;
 821              		.loc 1 389 0
 822 0008 0368     		ldr	r3, [r0]
 823 000a 43F00803 		orr	r3, r3, #8
 824 000e 0360     		str	r3, [r0]
 825 0010 7047     		bx	lr
 826              	.L54:
 391:C:/Users/49542/Desktop/GD32F30x_Demo_Suites_V2.0.0/GD32F30x_Demo_Suites_V2.0.0/GD32F30x_Firmware_Library/GD32F30x_standard_peripheral/Source\gd32f30x_timer.c ****         TIMER_CTL0(timer_periph) &= ~((uint32_t)TIMER_CTL0_SPM);
 827              		.loc 1 391 0
 828 0012 0368     		ldr	r3, [r0]
 829 0014 23F00803 		bic	r3, r3, #8
 830 0018 0360     		str	r3, [r0]
 831              		.loc 1 395 0
 832 001a F4E7     		b	.L50
 833              		.cfi_endproc
 834              	.LFE134:
 836              		.section	.text.timer_update_source_config,"ax",%progbits
 837              		.align	1
 838              		.global	timer_update_source_config
 839              		.syntax unified
 840              		.thumb
 841              		.thumb_func
 842              		.fpu fpv4-sp-d16
 844              	timer_update_source_config:
 845              	.LFB135:
 396:C:/Users/49542/Desktop/GD32F30x_Demo_Suites_V2.0.0/GD32F30x_Demo_Suites_V2.0.0/GD32F30x_Firmware_Library/GD32F30x_standard_peripheral/Source\gd32f30x_timer.c **** 
 397:C:/Users/49542/Desktop/GD32F30x_Demo_Suites_V2.0.0/GD32F30x_Demo_Suites_V2.0.0/GD32F30x_Firmware_Library/GD32F30x_standard_peripheral/Source\gd32f30x_timer.c **** /*!
 398:C:/Users/49542/Desktop/GD32F30x_Demo_Suites_V2.0.0/GD32F30x_Demo_Suites_V2.0.0/GD32F30x_Firmware_Library/GD32F30x_standard_peripheral/Source\gd32f30x_timer.c ****     \brief      configure TIMER update source 
 399:C:/Users/49542/Desktop/GD32F30x_Demo_Suites_V2.0.0/GD32F30x_Demo_Suites_V2.0.0/GD32F30x_Firmware_Library/GD32F30x_standard_peripheral/Source\gd32f30x_timer.c ****     \param[in]  timer_periph: TIMERx(x=0..13)
 400:C:/Users/49542/Desktop/GD32F30x_Demo_Suites_V2.0.0/GD32F30x_Demo_Suites_V2.0.0/GD32F30x_Firmware_Library/GD32F30x_standard_peripheral/Source\gd32f30x_timer.c ****     \param[in]  update: 
 401:C:/Users/49542/Desktop/GD32F30x_Demo_Suites_V2.0.0/GD32F30x_Demo_Suites_V2.0.0/GD32F30x_Firmware_Library/GD32F30x_standard_peripheral/Source\gd32f30x_timer.c ****                 only one parameter can be selected which is shown as below:
 402:C:/Users/49542/Desktop/GD32F30x_Demo_Suites_V2.0.0/GD32F30x_Demo_Suites_V2.0.0/GD32F30x_Firmware_Library/GD32F30x_standard_peripheral/Source\gd32f30x_timer.c ****       \arg        TIMER_UPDATE_SRC_GLOBAL: update generate by setting of UPG bit or the counter ove
 403:C:/Users/49542/Desktop/GD32F30x_Demo_Suites_V2.0.0/GD32F30x_Demo_Suites_V2.0.0/GD32F30x_Firmware_Library/GD32F30x_standard_peripheral/Source\gd32f30x_timer.c ****       \arg        TIMER_UPDATE_SRC_REGULAR: update generate only by counter overflow/underflow
 404:C:/Users/49542/Desktop/GD32F30x_Demo_Suites_V2.0.0/GD32F30x_Demo_Suites_V2.0.0/GD32F30x_Firmware_Library/GD32F30x_standard_peripheral/Source\gd32f30x_timer.c ****     \param[out] none
 405:C:/Users/49542/Desktop/GD32F30x_Demo_Suites_V2.0.0/GD32F30x_Demo_Suites_V2.0.0/GD32F30x_Firmware_Library/GD32F30x_standard_peripheral/Source\gd32f30x_timer.c ****     \retval     none
 406:C:/Users/49542/Desktop/GD32F30x_Demo_Suites_V2.0.0/GD32F30x_Demo_Suites_V2.0.0/GD32F30x_Firmware_Library/GD32F30x_standard_peripheral/Source\gd32f30x_timer.c **** */
ARM GAS  C:\Users\49542\AppData\Local\Temp\ccEBNRSE.s 			page 23


 407:C:/Users/49542/Desktop/GD32F30x_Demo_Suites_V2.0.0/GD32F30x_Demo_Suites_V2.0.0/GD32F30x_Firmware_Library/GD32F30x_standard_peripheral/Source\gd32f30x_timer.c **** void timer_update_source_config(uint32_t timer_periph, uint32_t update)
 408:C:/Users/49542/Desktop/GD32F30x_Demo_Suites_V2.0.0/GD32F30x_Demo_Suites_V2.0.0/GD32F30x_Firmware_Library/GD32F30x_standard_peripheral/Source\gd32f30x_timer.c **** {
 846              		.loc 1 408 0
 847              		.cfi_startproc
 848              		@ args = 0, pretend = 0, frame = 0
 849              		@ frame_needed = 0, uses_anonymous_args = 0
 850              		@ link register save eliminated.
 851              	.LVL77:
 409:C:/Users/49542/Desktop/GD32F30x_Demo_Suites_V2.0.0/GD32F30x_Demo_Suites_V2.0.0/GD32F30x_Firmware_Library/GD32F30x_standard_peripheral/Source\gd32f30x_timer.c ****     if(TIMER_UPDATE_SRC_REGULAR == update){
 852              		.loc 1 409 0
 853 0000 11B1     		cbz	r1, .L58
 410:C:/Users/49542/Desktop/GD32F30x_Demo_Suites_V2.0.0/GD32F30x_Demo_Suites_V2.0.0/GD32F30x_Firmware_Library/GD32F30x_standard_peripheral/Source\gd32f30x_timer.c ****         TIMER_CTL0(timer_periph) |= (uint32_t)TIMER_CTL0_UPS;
 411:C:/Users/49542/Desktop/GD32F30x_Demo_Suites_V2.0.0/GD32F30x_Demo_Suites_V2.0.0/GD32F30x_Firmware_Library/GD32F30x_standard_peripheral/Source\gd32f30x_timer.c ****     }else if(TIMER_UPDATE_SRC_GLOBAL == update){
 854              		.loc 1 411 0
 855 0002 0129     		cmp	r1, #1
 856 0004 05D0     		beq	.L59
 857              	.L55:
 412:C:/Users/49542/Desktop/GD32F30x_Demo_Suites_V2.0.0/GD32F30x_Demo_Suites_V2.0.0/GD32F30x_Firmware_Library/GD32F30x_standard_peripheral/Source\gd32f30x_timer.c ****         TIMER_CTL0(timer_periph) &= ~(uint32_t)TIMER_CTL0_UPS;
 413:C:/Users/49542/Desktop/GD32F30x_Demo_Suites_V2.0.0/GD32F30x_Demo_Suites_V2.0.0/GD32F30x_Firmware_Library/GD32F30x_standard_peripheral/Source\gd32f30x_timer.c ****     }else{
 414:C:/Users/49542/Desktop/GD32F30x_Demo_Suites_V2.0.0/GD32F30x_Demo_Suites_V2.0.0/GD32F30x_Firmware_Library/GD32F30x_standard_peripheral/Source\gd32f30x_timer.c ****         /* illegal parameters */
 415:C:/Users/49542/Desktop/GD32F30x_Demo_Suites_V2.0.0/GD32F30x_Demo_Suites_V2.0.0/GD32F30x_Firmware_Library/GD32F30x_standard_peripheral/Source\gd32f30x_timer.c ****     }
 416:C:/Users/49542/Desktop/GD32F30x_Demo_Suites_V2.0.0/GD32F30x_Demo_Suites_V2.0.0/GD32F30x_Firmware_Library/GD32F30x_standard_peripheral/Source\gd32f30x_timer.c **** }
 858              		.loc 1 416 0
 859 0006 7047     		bx	lr
 860              	.L58:
 410:C:/Users/49542/Desktop/GD32F30x_Demo_Suites_V2.0.0/GD32F30x_Demo_Suites_V2.0.0/GD32F30x_Firmware_Library/GD32F30x_standard_peripheral/Source\gd32f30x_timer.c ****         TIMER_CTL0(timer_periph) |= (uint32_t)TIMER_CTL0_UPS;
 861              		.loc 1 410 0
 862 0008 0368     		ldr	r3, [r0]
 863 000a 43F00403 		orr	r3, r3, #4
 864 000e 0360     		str	r3, [r0]
 865 0010 7047     		bx	lr
 866              	.L59:
 412:C:/Users/49542/Desktop/GD32F30x_Demo_Suites_V2.0.0/GD32F30x_Demo_Suites_V2.0.0/GD32F30x_Firmware_Library/GD32F30x_standard_peripheral/Source\gd32f30x_timer.c ****         TIMER_CTL0(timer_periph) &= ~(uint32_t)TIMER_CTL0_UPS;
 867              		.loc 1 412 0
 868 0012 0368     		ldr	r3, [r0]
 869 0014 23F00403 		bic	r3, r3, #4
 870 0018 0360     		str	r3, [r0]
 871              		.loc 1 416 0
 872 001a F4E7     		b	.L55
 873              		.cfi_endproc
 874              	.LFE135:
 876              		.section	.text.timer_interrupt_enable,"ax",%progbits
 877              		.align	1
 878              		.global	timer_interrupt_enable
 879              		.syntax unified
 880              		.thumb
 881              		.thumb_func
 882              		.fpu fpv4-sp-d16
 884              	timer_interrupt_enable:
 885              	.LFB136:
 417:C:/Users/49542/Desktop/GD32F30x_Demo_Suites_V2.0.0/GD32F30x_Demo_Suites_V2.0.0/GD32F30x_Firmware_Library/GD32F30x_standard_peripheral/Source\gd32f30x_timer.c **** 
 418:C:/Users/49542/Desktop/GD32F30x_Demo_Suites_V2.0.0/GD32F30x_Demo_Suites_V2.0.0/GD32F30x_Firmware_Library/GD32F30x_standard_peripheral/Source\gd32f30x_timer.c **** /*!
 419:C:/Users/49542/Desktop/GD32F30x_Demo_Suites_V2.0.0/GD32F30x_Demo_Suites_V2.0.0/GD32F30x_Firmware_Library/GD32F30x_standard_peripheral/Source\gd32f30x_timer.c ****     \brief      enable the TIMER interrupt
 420:C:/Users/49542/Desktop/GD32F30x_Demo_Suites_V2.0.0/GD32F30x_Demo_Suites_V2.0.0/GD32F30x_Firmware_Library/GD32F30x_standard_peripheral/Source\gd32f30x_timer.c ****     \param[in]  timer_periph: please refer to the following parameters 
 421:C:/Users/49542/Desktop/GD32F30x_Demo_Suites_V2.0.0/GD32F30x_Demo_Suites_V2.0.0/GD32F30x_Firmware_Library/GD32F30x_standard_peripheral/Source\gd32f30x_timer.c ****     \param[in]  interrupt: timer interrupt enable source
 422:C:/Users/49542/Desktop/GD32F30x_Demo_Suites_V2.0.0/GD32F30x_Demo_Suites_V2.0.0/GD32F30x_Firmware_Library/GD32F30x_standard_peripheral/Source\gd32f30x_timer.c ****                 only one parameter can be selected which is shown as below:
 423:C:/Users/49542/Desktop/GD32F30x_Demo_Suites_V2.0.0/GD32F30x_Demo_Suites_V2.0.0/GD32F30x_Firmware_Library/GD32F30x_standard_peripheral/Source\gd32f30x_timer.c ****       \arg        TIMER_INT_UP: update interrupt enable, TIMERx(x=0..13)
ARM GAS  C:\Users\49542\AppData\Local\Temp\ccEBNRSE.s 			page 24


 424:C:/Users/49542/Desktop/GD32F30x_Demo_Suites_V2.0.0/GD32F30x_Demo_Suites_V2.0.0/GD32F30x_Firmware_Library/GD32F30x_standard_peripheral/Source\gd32f30x_timer.c ****       \arg        TIMER_INT_CH0: channel 0 interrupt enable, TIMERx(x=0..4,7..13)
 425:C:/Users/49542/Desktop/GD32F30x_Demo_Suites_V2.0.0/GD32F30x_Demo_Suites_V2.0.0/GD32F30x_Firmware_Library/GD32F30x_standard_peripheral/Source\gd32f30x_timer.c ****       \arg        TIMER_INT_CH1: channel 1 interrupt enable, TIMERx(x=0..4,7,8,11)
 426:C:/Users/49542/Desktop/GD32F30x_Demo_Suites_V2.0.0/GD32F30x_Demo_Suites_V2.0.0/GD32F30x_Firmware_Library/GD32F30x_standard_peripheral/Source\gd32f30x_timer.c ****       \arg        TIMER_INT_CH2: channel 2 interrupt enable, TIMERx(x=0..4,7)
 427:C:/Users/49542/Desktop/GD32F30x_Demo_Suites_V2.0.0/GD32F30x_Demo_Suites_V2.0.0/GD32F30x_Firmware_Library/GD32F30x_standard_peripheral/Source\gd32f30x_timer.c ****       \arg        TIMER_INT_CH3: channel 3 interrupt enable , TIMERx(x=0..4,7)
 428:C:/Users/49542/Desktop/GD32F30x_Demo_Suites_V2.0.0/GD32F30x_Demo_Suites_V2.0.0/GD32F30x_Firmware_Library/GD32F30x_standard_peripheral/Source\gd32f30x_timer.c ****       \arg        TIMER_INT_CMT: commutation interrupt enable, TIMERx(x=0,7)
 429:C:/Users/49542/Desktop/GD32F30x_Demo_Suites_V2.0.0/GD32F30x_Demo_Suites_V2.0.0/GD32F30x_Firmware_Library/GD32F30x_standard_peripheral/Source\gd32f30x_timer.c ****       \arg        TIMER_INT_TRG: trigger interrupt enable, TIMERx(x=0..4,7,8,11)
 430:C:/Users/49542/Desktop/GD32F30x_Demo_Suites_V2.0.0/GD32F30x_Demo_Suites_V2.0.0/GD32F30x_Firmware_Library/GD32F30x_standard_peripheral/Source\gd32f30x_timer.c ****       \arg        TIMER_INT_BRK: break interrupt enable, TIMERx(x=0,7)
 431:C:/Users/49542/Desktop/GD32F30x_Demo_Suites_V2.0.0/GD32F30x_Demo_Suites_V2.0.0/GD32F30x_Firmware_Library/GD32F30x_standard_peripheral/Source\gd32f30x_timer.c ****     \param[out] none
 432:C:/Users/49542/Desktop/GD32F30x_Demo_Suites_V2.0.0/GD32F30x_Demo_Suites_V2.0.0/GD32F30x_Firmware_Library/GD32F30x_standard_peripheral/Source\gd32f30x_timer.c ****     \retval     none
 433:C:/Users/49542/Desktop/GD32F30x_Demo_Suites_V2.0.0/GD32F30x_Demo_Suites_V2.0.0/GD32F30x_Firmware_Library/GD32F30x_standard_peripheral/Source\gd32f30x_timer.c **** */
 434:C:/Users/49542/Desktop/GD32F30x_Demo_Suites_V2.0.0/GD32F30x_Demo_Suites_V2.0.0/GD32F30x_Firmware_Library/GD32F30x_standard_peripheral/Source\gd32f30x_timer.c **** void timer_interrupt_enable(uint32_t timer_periph, uint32_t interrupt)
 435:C:/Users/49542/Desktop/GD32F30x_Demo_Suites_V2.0.0/GD32F30x_Demo_Suites_V2.0.0/GD32F30x_Firmware_Library/GD32F30x_standard_peripheral/Source\gd32f30x_timer.c **** {
 886              		.loc 1 435 0
 887              		.cfi_startproc
 888              		@ args = 0, pretend = 0, frame = 0
 889              		@ frame_needed = 0, uses_anonymous_args = 0
 890              		@ link register save eliminated.
 891              	.LVL78:
 436:C:/Users/49542/Desktop/GD32F30x_Demo_Suites_V2.0.0/GD32F30x_Demo_Suites_V2.0.0/GD32F30x_Firmware_Library/GD32F30x_standard_peripheral/Source\gd32f30x_timer.c ****     TIMER_DMAINTEN(timer_periph) |= (uint32_t) interrupt; 
 892              		.loc 1 436 0
 893 0000 C368     		ldr	r3, [r0, #12]
 894 0002 1943     		orrs	r1, r1, r3
 895              	.LVL79:
 896 0004 C160     		str	r1, [r0, #12]
 437:C:/Users/49542/Desktop/GD32F30x_Demo_Suites_V2.0.0/GD32F30x_Demo_Suites_V2.0.0/GD32F30x_Firmware_Library/GD32F30x_standard_peripheral/Source\gd32f30x_timer.c **** }
 897              		.loc 1 437 0
 898 0006 7047     		bx	lr
 899              		.cfi_endproc
 900              	.LFE136:
 902              		.section	.text.timer_interrupt_disable,"ax",%progbits
 903              		.align	1
 904              		.global	timer_interrupt_disable
 905              		.syntax unified
 906              		.thumb
 907              		.thumb_func
 908              		.fpu fpv4-sp-d16
 910              	timer_interrupt_disable:
 911              	.LFB137:
 438:C:/Users/49542/Desktop/GD32F30x_Demo_Suites_V2.0.0/GD32F30x_Demo_Suites_V2.0.0/GD32F30x_Firmware_Library/GD32F30x_standard_peripheral/Source\gd32f30x_timer.c **** 
 439:C:/Users/49542/Desktop/GD32F30x_Demo_Suites_V2.0.0/GD32F30x_Demo_Suites_V2.0.0/GD32F30x_Firmware_Library/GD32F30x_standard_peripheral/Source\gd32f30x_timer.c **** /*!
 440:C:/Users/49542/Desktop/GD32F30x_Demo_Suites_V2.0.0/GD32F30x_Demo_Suites_V2.0.0/GD32F30x_Firmware_Library/GD32F30x_standard_peripheral/Source\gd32f30x_timer.c ****     \brief      disable the TIMER interrupt
 441:C:/Users/49542/Desktop/GD32F30x_Demo_Suites_V2.0.0/GD32F30x_Demo_Suites_V2.0.0/GD32F30x_Firmware_Library/GD32F30x_standard_peripheral/Source\gd32f30x_timer.c ****     \param[in]  timer_periph: please refer to the following parameters
 442:C:/Users/49542/Desktop/GD32F30x_Demo_Suites_V2.0.0/GD32F30x_Demo_Suites_V2.0.0/GD32F30x_Firmware_Library/GD32F30x_standard_peripheral/Source\gd32f30x_timer.c ****     \param[in]  interrupt: timer interrupt source disable 
 443:C:/Users/49542/Desktop/GD32F30x_Demo_Suites_V2.0.0/GD32F30x_Demo_Suites_V2.0.0/GD32F30x_Firmware_Library/GD32F30x_standard_peripheral/Source\gd32f30x_timer.c ****                 only one parameter can be selected which is shown as below:
 444:C:/Users/49542/Desktop/GD32F30x_Demo_Suites_V2.0.0/GD32F30x_Demo_Suites_V2.0.0/GD32F30x_Firmware_Library/GD32F30x_standard_peripheral/Source\gd32f30x_timer.c ****       \arg        TIMER_INT_UP: update interrupt disable, TIMERx(x=0..13)
 445:C:/Users/49542/Desktop/GD32F30x_Demo_Suites_V2.0.0/GD32F30x_Demo_Suites_V2.0.0/GD32F30x_Firmware_Library/GD32F30x_standard_peripheral/Source\gd32f30x_timer.c ****       \arg        TIMER_INT_CH0: channel 0 interrupt disable, TIMERx(x=0..4,7..13)
 446:C:/Users/49542/Desktop/GD32F30x_Demo_Suites_V2.0.0/GD32F30x_Demo_Suites_V2.0.0/GD32F30x_Firmware_Library/GD32F30x_standard_peripheral/Source\gd32f30x_timer.c ****       \arg        TIMER_INT_CH1: channel 1 interrupt disable, TIMERx(x=0..4,7,8,11)
 447:C:/Users/49542/Desktop/GD32F30x_Demo_Suites_V2.0.0/GD32F30x_Demo_Suites_V2.0.0/GD32F30x_Firmware_Library/GD32F30x_standard_peripheral/Source\gd32f30x_timer.c ****       \arg        TIMER_INT_CH2: channel 2 interrupt disable, TIMERx(x=0..4,7)
 448:C:/Users/49542/Desktop/GD32F30x_Demo_Suites_V2.0.0/GD32F30x_Demo_Suites_V2.0.0/GD32F30x_Firmware_Library/GD32F30x_standard_peripheral/Source\gd32f30x_timer.c ****       \arg        TIMER_INT_CH3: channel 3 interrupt disable , TIMERx(x=0..4,7)
 449:C:/Users/49542/Desktop/GD32F30x_Demo_Suites_V2.0.0/GD32F30x_Demo_Suites_V2.0.0/GD32F30x_Firmware_Library/GD32F30x_standard_peripheral/Source\gd32f30x_timer.c ****       \arg        TIMER_INT_CMT: commutation interrupt disable, TIMERx(x=0,7)
 450:C:/Users/49542/Desktop/GD32F30x_Demo_Suites_V2.0.0/GD32F30x_Demo_Suites_V2.0.0/GD32F30x_Firmware_Library/GD32F30x_standard_peripheral/Source\gd32f30x_timer.c ****       \arg        TIMER_INT_TRG: trigger interrupt disable, TIMERx(x=0..4,7,8,11)
 451:C:/Users/49542/Desktop/GD32F30x_Demo_Suites_V2.0.0/GD32F30x_Demo_Suites_V2.0.0/GD32F30x_Firmware_Library/GD32F30x_standard_peripheral/Source\gd32f30x_timer.c ****       \arg        TIMER_INT_BRK: break interrupt disable, TIMERx(x=0,7)
 452:C:/Users/49542/Desktop/GD32F30x_Demo_Suites_V2.0.0/GD32F30x_Demo_Suites_V2.0.0/GD32F30x_Firmware_Library/GD32F30x_standard_peripheral/Source\gd32f30x_timer.c ****     \param[out] none
 453:C:/Users/49542/Desktop/GD32F30x_Demo_Suites_V2.0.0/GD32F30x_Demo_Suites_V2.0.0/GD32F30x_Firmware_Library/GD32F30x_standard_peripheral/Source\gd32f30x_timer.c ****     \retval     none
 454:C:/Users/49542/Desktop/GD32F30x_Demo_Suites_V2.0.0/GD32F30x_Demo_Suites_V2.0.0/GD32F30x_Firmware_Library/GD32F30x_standard_peripheral/Source\gd32f30x_timer.c **** */
 455:C:/Users/49542/Desktop/GD32F30x_Demo_Suites_V2.0.0/GD32F30x_Demo_Suites_V2.0.0/GD32F30x_Firmware_Library/GD32F30x_standard_peripheral/Source\gd32f30x_timer.c **** void timer_interrupt_disable(uint32_t timer_periph, uint32_t interrupt)
 456:C:/Users/49542/Desktop/GD32F30x_Demo_Suites_V2.0.0/GD32F30x_Demo_Suites_V2.0.0/GD32F30x_Firmware_Library/GD32F30x_standard_peripheral/Source\gd32f30x_timer.c **** {
ARM GAS  C:\Users\49542\AppData\Local\Temp\ccEBNRSE.s 			page 25


 912              		.loc 1 456 0
 913              		.cfi_startproc
 914              		@ args = 0, pretend = 0, frame = 0
 915              		@ frame_needed = 0, uses_anonymous_args = 0
 916              		@ link register save eliminated.
 917              	.LVL80:
 457:C:/Users/49542/Desktop/GD32F30x_Demo_Suites_V2.0.0/GD32F30x_Demo_Suites_V2.0.0/GD32F30x_Firmware_Library/GD32F30x_standard_peripheral/Source\gd32f30x_timer.c ****     TIMER_DMAINTEN(timer_periph) &= (~(uint32_t)interrupt); 
 918              		.loc 1 457 0
 919 0000 C368     		ldr	r3, [r0, #12]
 920 0002 23EA0101 		bic	r1, r3, r1
 921              	.LVL81:
 922 0006 C160     		str	r1, [r0, #12]
 458:C:/Users/49542/Desktop/GD32F30x_Demo_Suites_V2.0.0/GD32F30x_Demo_Suites_V2.0.0/GD32F30x_Firmware_Library/GD32F30x_standard_peripheral/Source\gd32f30x_timer.c **** }
 923              		.loc 1 458 0
 924 0008 7047     		bx	lr
 925              		.cfi_endproc
 926              	.LFE137:
 928              		.section	.text.timer_interrupt_flag_get,"ax",%progbits
 929              		.align	1
 930              		.global	timer_interrupt_flag_get
 931              		.syntax unified
 932              		.thumb
 933              		.thumb_func
 934              		.fpu fpv4-sp-d16
 936              	timer_interrupt_flag_get:
 937              	.LFB138:
 459:C:/Users/49542/Desktop/GD32F30x_Demo_Suites_V2.0.0/GD32F30x_Demo_Suites_V2.0.0/GD32F30x_Firmware_Library/GD32F30x_standard_peripheral/Source\gd32f30x_timer.c **** 
 460:C:/Users/49542/Desktop/GD32F30x_Demo_Suites_V2.0.0/GD32F30x_Demo_Suites_V2.0.0/GD32F30x_Firmware_Library/GD32F30x_standard_peripheral/Source\gd32f30x_timer.c **** /*!
 461:C:/Users/49542/Desktop/GD32F30x_Demo_Suites_V2.0.0/GD32F30x_Demo_Suites_V2.0.0/GD32F30x_Firmware_Library/GD32F30x_standard_peripheral/Source\gd32f30x_timer.c ****     \brief      get timer interrupt flag
 462:C:/Users/49542/Desktop/GD32F30x_Demo_Suites_V2.0.0/GD32F30x_Demo_Suites_V2.0.0/GD32F30x_Firmware_Library/GD32F30x_standard_peripheral/Source\gd32f30x_timer.c ****     \param[in]  timer_periph: please refer to the following parameters
 463:C:/Users/49542/Desktop/GD32F30x_Demo_Suites_V2.0.0/GD32F30x_Demo_Suites_V2.0.0/GD32F30x_Firmware_Library/GD32F30x_standard_peripheral/Source\gd32f30x_timer.c ****     \param[in]  interrupt: the timer interrupt bits
 464:C:/Users/49542/Desktop/GD32F30x_Demo_Suites_V2.0.0/GD32F30x_Demo_Suites_V2.0.0/GD32F30x_Firmware_Library/GD32F30x_standard_peripheral/Source\gd32f30x_timer.c ****                 only one parameter can be selected which is shown as below:
 465:C:/Users/49542/Desktop/GD32F30x_Demo_Suites_V2.0.0/GD32F30x_Demo_Suites_V2.0.0/GD32F30x_Firmware_Library/GD32F30x_standard_peripheral/Source\gd32f30x_timer.c ****       \arg        TIMER_INT_FLAG_UP: update interrupt flag,TIMERx(x=0..13)
 466:C:/Users/49542/Desktop/GD32F30x_Demo_Suites_V2.0.0/GD32F30x_Demo_Suites_V2.0.0/GD32F30x_Firmware_Library/GD32F30x_standard_peripheral/Source\gd32f30x_timer.c ****       \arg        TIMER_INT_FLAG_CH0: channel 0 interrupt flag,TIMERx(x=0..4,7..13)
 467:C:/Users/49542/Desktop/GD32F30x_Demo_Suites_V2.0.0/GD32F30x_Demo_Suites_V2.0.0/GD32F30x_Firmware_Library/GD32F30x_standard_peripheral/Source\gd32f30x_timer.c ****       \arg        TIMER_INT_FLAG_CH1: channel 1 interrupt flag,TIMERx(x=0..4,7,8,11)
 468:C:/Users/49542/Desktop/GD32F30x_Demo_Suites_V2.0.0/GD32F30x_Demo_Suites_V2.0.0/GD32F30x_Firmware_Library/GD32F30x_standard_peripheral/Source\gd32f30x_timer.c ****       \arg        TIMER_INT_FLAG_CH2: channel 2 interrupt flag,TIMERx(x=0..4,7)
 469:C:/Users/49542/Desktop/GD32F30x_Demo_Suites_V2.0.0/GD32F30x_Demo_Suites_V2.0.0/GD32F30x_Firmware_Library/GD32F30x_standard_peripheral/Source\gd32f30x_timer.c ****       \arg        TIMER_INT_FLAG_CH3: channel 3 interrupt flag,TIMERx(x=0..4,7)
 470:C:/Users/49542/Desktop/GD32F30x_Demo_Suites_V2.0.0/GD32F30x_Demo_Suites_V2.0.0/GD32F30x_Firmware_Library/GD32F30x_standard_peripheral/Source\gd32f30x_timer.c ****       \arg        TIMER_INT_FLAG_CMT: channel commutation interrupt flag,TIMERx(x=0,7) 
 471:C:/Users/49542/Desktop/GD32F30x_Demo_Suites_V2.0.0/GD32F30x_Demo_Suites_V2.0.0/GD32F30x_Firmware_Library/GD32F30x_standard_peripheral/Source\gd32f30x_timer.c ****       \arg        TIMER_INT_FLAG_TRG: trigger interrupt flag,TIMERx(x=0,7,8,11)
 472:C:/Users/49542/Desktop/GD32F30x_Demo_Suites_V2.0.0/GD32F30x_Demo_Suites_V2.0.0/GD32F30x_Firmware_Library/GD32F30x_standard_peripheral/Source\gd32f30x_timer.c ****       \arg        TIMER_INT_FLAG_BRK:  break interrupt flag,TIMERx(x=0,7)
 473:C:/Users/49542/Desktop/GD32F30x_Demo_Suites_V2.0.0/GD32F30x_Demo_Suites_V2.0.0/GD32F30x_Firmware_Library/GD32F30x_standard_peripheral/Source\gd32f30x_timer.c ****     \param[out] none
 474:C:/Users/49542/Desktop/GD32F30x_Demo_Suites_V2.0.0/GD32F30x_Demo_Suites_V2.0.0/GD32F30x_Firmware_Library/GD32F30x_standard_peripheral/Source\gd32f30x_timer.c ****     \retval     FlagStatus: SET or RESET
 475:C:/Users/49542/Desktop/GD32F30x_Demo_Suites_V2.0.0/GD32F30x_Demo_Suites_V2.0.0/GD32F30x_Firmware_Library/GD32F30x_standard_peripheral/Source\gd32f30x_timer.c **** */
 476:C:/Users/49542/Desktop/GD32F30x_Demo_Suites_V2.0.0/GD32F30x_Demo_Suites_V2.0.0/GD32F30x_Firmware_Library/GD32F30x_standard_peripheral/Source\gd32f30x_timer.c **** FlagStatus timer_interrupt_flag_get(uint32_t timer_periph, uint32_t interrupt)
 477:C:/Users/49542/Desktop/GD32F30x_Demo_Suites_V2.0.0/GD32F30x_Demo_Suites_V2.0.0/GD32F30x_Firmware_Library/GD32F30x_standard_peripheral/Source\gd32f30x_timer.c **** {
 938              		.loc 1 477 0
 939              		.cfi_startproc
 940              		@ args = 0, pretend = 0, frame = 0
 941              		@ frame_needed = 0, uses_anonymous_args = 0
 942              		@ link register save eliminated.
 943              	.LVL82:
 478:C:/Users/49542/Desktop/GD32F30x_Demo_Suites_V2.0.0/GD32F30x_Demo_Suites_V2.0.0/GD32F30x_Firmware_Library/GD32F30x_standard_peripheral/Source\gd32f30x_timer.c ****     uint32_t val;
 479:C:/Users/49542/Desktop/GD32F30x_Demo_Suites_V2.0.0/GD32F30x_Demo_Suites_V2.0.0/GD32F30x_Firmware_Library/GD32F30x_standard_peripheral/Source\gd32f30x_timer.c ****     val = (TIMER_DMAINTEN(timer_periph) & interrupt);
 944              		.loc 1 479 0
 945 0000 C368     		ldr	r3, [r0, #12]
 946 0002 0B40     		ands	r3, r3, r1
 947              	.LVL83:
ARM GAS  C:\Users\49542\AppData\Local\Temp\ccEBNRSE.s 			page 26


 480:C:/Users/49542/Desktop/GD32F30x_Demo_Suites_V2.0.0/GD32F30x_Demo_Suites_V2.0.0/GD32F30x_Firmware_Library/GD32F30x_standard_peripheral/Source\gd32f30x_timer.c ****     if((RESET != (TIMER_INTF(timer_periph) & interrupt) ) && (RESET != val)){
 948              		.loc 1 480 0
 949 0004 0269     		ldr	r2, [r0, #16]
 950 0006 0A42     		tst	r2, r1
 951 0008 02D0     		beq	.L64
 952              		.loc 1 480 0 is_stmt 0 discriminator 1
 953 000a 1BB9     		cbnz	r3, .L65
 481:C:/Users/49542/Desktop/GD32F30x_Demo_Suites_V2.0.0/GD32F30x_Demo_Suites_V2.0.0/GD32F30x_Firmware_Library/GD32F30x_standard_peripheral/Source\gd32f30x_timer.c ****         return SET;
 482:C:/Users/49542/Desktop/GD32F30x_Demo_Suites_V2.0.0/GD32F30x_Demo_Suites_V2.0.0/GD32F30x_Firmware_Library/GD32F30x_standard_peripheral/Source\gd32f30x_timer.c ****     }else{
 483:C:/Users/49542/Desktop/GD32F30x_Demo_Suites_V2.0.0/GD32F30x_Demo_Suites_V2.0.0/GD32F30x_Firmware_Library/GD32F30x_standard_peripheral/Source\gd32f30x_timer.c ****         return RESET;
 954              		.loc 1 483 0 is_stmt 1
 955 000c 0020     		movs	r0, #0
 956              	.LVL84:
 957 000e 7047     		bx	lr
 958              	.LVL85:
 959              	.L64:
 960 0010 0020     		movs	r0, #0
 961              	.LVL86:
 962 0012 7047     		bx	lr
 963              	.LVL87:
 964              	.L65:
 481:C:/Users/49542/Desktop/GD32F30x_Demo_Suites_V2.0.0/GD32F30x_Demo_Suites_V2.0.0/GD32F30x_Firmware_Library/GD32F30x_standard_peripheral/Source\gd32f30x_timer.c ****         return SET;
 965              		.loc 1 481 0
 966 0014 0120     		movs	r0, #1
 967              	.LVL88:
 484:C:/Users/49542/Desktop/GD32F30x_Demo_Suites_V2.0.0/GD32F30x_Demo_Suites_V2.0.0/GD32F30x_Firmware_Library/GD32F30x_standard_peripheral/Source\gd32f30x_timer.c ****     }
 485:C:/Users/49542/Desktop/GD32F30x_Demo_Suites_V2.0.0/GD32F30x_Demo_Suites_V2.0.0/GD32F30x_Firmware_Library/GD32F30x_standard_peripheral/Source\gd32f30x_timer.c **** }
 968              		.loc 1 485 0
 969 0016 7047     		bx	lr
 970              		.cfi_endproc
 971              	.LFE138:
 973              		.section	.text.timer_interrupt_flag_clear,"ax",%progbits
 974              		.align	1
 975              		.global	timer_interrupt_flag_clear
 976              		.syntax unified
 977              		.thumb
 978              		.thumb_func
 979              		.fpu fpv4-sp-d16
 981              	timer_interrupt_flag_clear:
 982              	.LFB139:
 486:C:/Users/49542/Desktop/GD32F30x_Demo_Suites_V2.0.0/GD32F30x_Demo_Suites_V2.0.0/GD32F30x_Firmware_Library/GD32F30x_standard_peripheral/Source\gd32f30x_timer.c **** 
 487:C:/Users/49542/Desktop/GD32F30x_Demo_Suites_V2.0.0/GD32F30x_Demo_Suites_V2.0.0/GD32F30x_Firmware_Library/GD32F30x_standard_peripheral/Source\gd32f30x_timer.c **** /*!
 488:C:/Users/49542/Desktop/GD32F30x_Demo_Suites_V2.0.0/GD32F30x_Demo_Suites_V2.0.0/GD32F30x_Firmware_Library/GD32F30x_standard_peripheral/Source\gd32f30x_timer.c ****     \brief      clear TIMER interrupt flag
 489:C:/Users/49542/Desktop/GD32F30x_Demo_Suites_V2.0.0/GD32F30x_Demo_Suites_V2.0.0/GD32F30x_Firmware_Library/GD32F30x_standard_peripheral/Source\gd32f30x_timer.c ****     \param[in]  timer_periph: please refer to the following parameters
 490:C:/Users/49542/Desktop/GD32F30x_Demo_Suites_V2.0.0/GD32F30x_Demo_Suites_V2.0.0/GD32F30x_Firmware_Library/GD32F30x_standard_peripheral/Source\gd32f30x_timer.c ****     \param[in]  interrupt: the timer interrupt bits
 491:C:/Users/49542/Desktop/GD32F30x_Demo_Suites_V2.0.0/GD32F30x_Demo_Suites_V2.0.0/GD32F30x_Firmware_Library/GD32F30x_standard_peripheral/Source\gd32f30x_timer.c ****                 only one parameter can be selected which is shown as below:
 492:C:/Users/49542/Desktop/GD32F30x_Demo_Suites_V2.0.0/GD32F30x_Demo_Suites_V2.0.0/GD32F30x_Firmware_Library/GD32F30x_standard_peripheral/Source\gd32f30x_timer.c ****       \arg        TIMER_INT_FLAG_UP: update interrupt flag,TIMERx(x=0..13)
 493:C:/Users/49542/Desktop/GD32F30x_Demo_Suites_V2.0.0/GD32F30x_Demo_Suites_V2.0.0/GD32F30x_Firmware_Library/GD32F30x_standard_peripheral/Source\gd32f30x_timer.c ****       \arg        TIMER_INT_FLAG_CH0: channel 0 interrupt flag,TIMERx(x=0..4,7..13)
 494:C:/Users/49542/Desktop/GD32F30x_Demo_Suites_V2.0.0/GD32F30x_Demo_Suites_V2.0.0/GD32F30x_Firmware_Library/GD32F30x_standard_peripheral/Source\gd32f30x_timer.c ****       \arg        TIMER_INT_FLAG_CH1: channel 1 interrupt flag,TIMERx(x=0..4,7,8,11)
 495:C:/Users/49542/Desktop/GD32F30x_Demo_Suites_V2.0.0/GD32F30x_Demo_Suites_V2.0.0/GD32F30x_Firmware_Library/GD32F30x_standard_peripheral/Source\gd32f30x_timer.c ****       \arg        TIMER_INT_FLAG_CH2: channel 2 interrupt flag,TIMERx(x=0..4,7)
 496:C:/Users/49542/Desktop/GD32F30x_Demo_Suites_V2.0.0/GD32F30x_Demo_Suites_V2.0.0/GD32F30x_Firmware_Library/GD32F30x_standard_peripheral/Source\gd32f30x_timer.c ****       \arg        TIMER_INT_FLAG_CH3: channel 3 interrupt flag,TIMERx(x=0..4,7)
 497:C:/Users/49542/Desktop/GD32F30x_Demo_Suites_V2.0.0/GD32F30x_Demo_Suites_V2.0.0/GD32F30x_Firmware_Library/GD32F30x_standard_peripheral/Source\gd32f30x_timer.c ****       \arg        TIMER_INT_FLAG_CMT: channel commutation interrupt flag,TIMERx(x=0,7) 
 498:C:/Users/49542/Desktop/GD32F30x_Demo_Suites_V2.0.0/GD32F30x_Demo_Suites_V2.0.0/GD32F30x_Firmware_Library/GD32F30x_standard_peripheral/Source\gd32f30x_timer.c ****       \arg        TIMER_INT_FLAG_TRG: trigger interrupt flag,TIMERx(x=0,7,8,11)
 499:C:/Users/49542/Desktop/GD32F30x_Demo_Suites_V2.0.0/GD32F30x_Demo_Suites_V2.0.0/GD32F30x_Firmware_Library/GD32F30x_standard_peripheral/Source\gd32f30x_timer.c ****       \arg        TIMER_INT_FLAG_BRK:  break interrupt flag,TIMERx(x=0,7)
 500:C:/Users/49542/Desktop/GD32F30x_Demo_Suites_V2.0.0/GD32F30x_Demo_Suites_V2.0.0/GD32F30x_Firmware_Library/GD32F30x_standard_peripheral/Source\gd32f30x_timer.c ****     \param[out] none
 501:C:/Users/49542/Desktop/GD32F30x_Demo_Suites_V2.0.0/GD32F30x_Demo_Suites_V2.0.0/GD32F30x_Firmware_Library/GD32F30x_standard_peripheral/Source\gd32f30x_timer.c ****     \retval     none
 502:C:/Users/49542/Desktop/GD32F30x_Demo_Suites_V2.0.0/GD32F30x_Demo_Suites_V2.0.0/GD32F30x_Firmware_Library/GD32F30x_standard_peripheral/Source\gd32f30x_timer.c **** */
ARM GAS  C:\Users\49542\AppData\Local\Temp\ccEBNRSE.s 			page 27


 503:C:/Users/49542/Desktop/GD32F30x_Demo_Suites_V2.0.0/GD32F30x_Demo_Suites_V2.0.0/GD32F30x_Firmware_Library/GD32F30x_standard_peripheral/Source\gd32f30x_timer.c **** void timer_interrupt_flag_clear(uint32_t timer_periph, uint32_t interrupt)
 504:C:/Users/49542/Desktop/GD32F30x_Demo_Suites_V2.0.0/GD32F30x_Demo_Suites_V2.0.0/GD32F30x_Firmware_Library/GD32F30x_standard_peripheral/Source\gd32f30x_timer.c **** {
 983              		.loc 1 504 0
 984              		.cfi_startproc
 985              		@ args = 0, pretend = 0, frame = 0
 986              		@ frame_needed = 0, uses_anonymous_args = 0
 987              		@ link register save eliminated.
 988              	.LVL89:
 505:C:/Users/49542/Desktop/GD32F30x_Demo_Suites_V2.0.0/GD32F30x_Demo_Suites_V2.0.0/GD32F30x_Firmware_Library/GD32F30x_standard_peripheral/Source\gd32f30x_timer.c ****     TIMER_INTF(timer_periph) &= (~(uint32_t)interrupt);
 989              		.loc 1 505 0
 990 0000 0369     		ldr	r3, [r0, #16]
 991 0002 23EA0101 		bic	r1, r3, r1
 992              	.LVL90:
 993 0006 0161     		str	r1, [r0, #16]
 506:C:/Users/49542/Desktop/GD32F30x_Demo_Suites_V2.0.0/GD32F30x_Demo_Suites_V2.0.0/GD32F30x_Firmware_Library/GD32F30x_standard_peripheral/Source\gd32f30x_timer.c **** }
 994              		.loc 1 506 0
 995 0008 7047     		bx	lr
 996              		.cfi_endproc
 997              	.LFE139:
 999              		.section	.text.timer_flag_get,"ax",%progbits
 1000              		.align	1
 1001              		.global	timer_flag_get
 1002              		.syntax unified
 1003              		.thumb
 1004              		.thumb_func
 1005              		.fpu fpv4-sp-d16
 1007              	timer_flag_get:
 1008              	.LFB140:
 507:C:/Users/49542/Desktop/GD32F30x_Demo_Suites_V2.0.0/GD32F30x_Demo_Suites_V2.0.0/GD32F30x_Firmware_Library/GD32F30x_standard_peripheral/Source\gd32f30x_timer.c **** 
 508:C:/Users/49542/Desktop/GD32F30x_Demo_Suites_V2.0.0/GD32F30x_Demo_Suites_V2.0.0/GD32F30x_Firmware_Library/GD32F30x_standard_peripheral/Source\gd32f30x_timer.c **** /*!
 509:C:/Users/49542/Desktop/GD32F30x_Demo_Suites_V2.0.0/GD32F30x_Demo_Suites_V2.0.0/GD32F30x_Firmware_Library/GD32F30x_standard_peripheral/Source\gd32f30x_timer.c ****     \brief      get TIMER flags
 510:C:/Users/49542/Desktop/GD32F30x_Demo_Suites_V2.0.0/GD32F30x_Demo_Suites_V2.0.0/GD32F30x_Firmware_Library/GD32F30x_standard_peripheral/Source\gd32f30x_timer.c ****     \param[in]  timer_periph: please refer to the following parameters
 511:C:/Users/49542/Desktop/GD32F30x_Demo_Suites_V2.0.0/GD32F30x_Demo_Suites_V2.0.0/GD32F30x_Firmware_Library/GD32F30x_standard_peripheral/Source\gd32f30x_timer.c ****     \param[in]  flag: the timer interrupt flags
 512:C:/Users/49542/Desktop/GD32F30x_Demo_Suites_V2.0.0/GD32F30x_Demo_Suites_V2.0.0/GD32F30x_Firmware_Library/GD32F30x_standard_peripheral/Source\gd32f30x_timer.c ****                 only one parameter can be selected which is shown as below:
 513:C:/Users/49542/Desktop/GD32F30x_Demo_Suites_V2.0.0/GD32F30x_Demo_Suites_V2.0.0/GD32F30x_Firmware_Library/GD32F30x_standard_peripheral/Source\gd32f30x_timer.c ****       \arg        TIMER_FLAG_UP: update flag,TIMERx(x=0..13)
 514:C:/Users/49542/Desktop/GD32F30x_Demo_Suites_V2.0.0/GD32F30x_Demo_Suites_V2.0.0/GD32F30x_Firmware_Library/GD32F30x_standard_peripheral/Source\gd32f30x_timer.c ****       \arg        TIMER_FLAG_CH0: channel 0 flag,TIMERx(x=0..4,7..13)
 515:C:/Users/49542/Desktop/GD32F30x_Demo_Suites_V2.0.0/GD32F30x_Demo_Suites_V2.0.0/GD32F30x_Firmware_Library/GD32F30x_standard_peripheral/Source\gd32f30x_timer.c ****       \arg        TIMER_FLAG_CH1: channel 1 flag,TIMERx(x=0..4,7,8,11)
 516:C:/Users/49542/Desktop/GD32F30x_Demo_Suites_V2.0.0/GD32F30x_Demo_Suites_V2.0.0/GD32F30x_Firmware_Library/GD32F30x_standard_peripheral/Source\gd32f30x_timer.c ****       \arg        TIMER_FLAG_CH2: channel 2 flag,TIMERx(x=0..4,7)
 517:C:/Users/49542/Desktop/GD32F30x_Demo_Suites_V2.0.0/GD32F30x_Demo_Suites_V2.0.0/GD32F30x_Firmware_Library/GD32F30x_standard_peripheral/Source\gd32f30x_timer.c ****       \arg        TIMER_FLAG_CH3: channel 3 flag,TIMERx(x=0..4,7)
 518:C:/Users/49542/Desktop/GD32F30x_Demo_Suites_V2.0.0/GD32F30x_Demo_Suites_V2.0.0/GD32F30x_Firmware_Library/GD32F30x_standard_peripheral/Source\gd32f30x_timer.c ****       \arg        TIMER_FLAG_CMT: channel control update flag,TIMERx(x=0,7) 
 519:C:/Users/49542/Desktop/GD32F30x_Demo_Suites_V2.0.0/GD32F30x_Demo_Suites_V2.0.0/GD32F30x_Firmware_Library/GD32F30x_standard_peripheral/Source\gd32f30x_timer.c ****       \arg        TIMER_FLAG_TRG: trigger flag,TIMERx(x=0,7,8,11) 
 520:C:/Users/49542/Desktop/GD32F30x_Demo_Suites_V2.0.0/GD32F30x_Demo_Suites_V2.0.0/GD32F30x_Firmware_Library/GD32F30x_standard_peripheral/Source\gd32f30x_timer.c ****       \arg        TIMER_FLAG_BRK: break flag,TIMERx(x=0,7)
 521:C:/Users/49542/Desktop/GD32F30x_Demo_Suites_V2.0.0/GD32F30x_Demo_Suites_V2.0.0/GD32F30x_Firmware_Library/GD32F30x_standard_peripheral/Source\gd32f30x_timer.c ****       \arg        TIMER_FLAG_CH0O: channel 0 overcapture flag,TIMERx(x=0..4,7..11)
 522:C:/Users/49542/Desktop/GD32F30x_Demo_Suites_V2.0.0/GD32F30x_Demo_Suites_V2.0.0/GD32F30x_Firmware_Library/GD32F30x_standard_peripheral/Source\gd32f30x_timer.c ****       \arg        TIMER_FLAG_CH1O: channel 1 overcapture flag,TIMERx(x=0..4,7,8,11)
 523:C:/Users/49542/Desktop/GD32F30x_Demo_Suites_V2.0.0/GD32F30x_Demo_Suites_V2.0.0/GD32F30x_Firmware_Library/GD32F30x_standard_peripheral/Source\gd32f30x_timer.c ****       \arg        TIMER_FLAG_CH2O: channel 2 overcapture flag,TIMERx(x=0..4,7)
 524:C:/Users/49542/Desktop/GD32F30x_Demo_Suites_V2.0.0/GD32F30x_Demo_Suites_V2.0.0/GD32F30x_Firmware_Library/GD32F30x_standard_peripheral/Source\gd32f30x_timer.c ****       \arg        TIMER_FLAG_CH3O: channel 3 overcapture flag,TIMERx(x=0..4,7)
 525:C:/Users/49542/Desktop/GD32F30x_Demo_Suites_V2.0.0/GD32F30x_Demo_Suites_V2.0.0/GD32F30x_Firmware_Library/GD32F30x_standard_peripheral/Source\gd32f30x_timer.c ****     \param[out] none
 526:C:/Users/49542/Desktop/GD32F30x_Demo_Suites_V2.0.0/GD32F30x_Demo_Suites_V2.0.0/GD32F30x_Firmware_Library/GD32F30x_standard_peripheral/Source\gd32f30x_timer.c ****     \retval     FlagStatus: SET or RESET
 527:C:/Users/49542/Desktop/GD32F30x_Demo_Suites_V2.0.0/GD32F30x_Demo_Suites_V2.0.0/GD32F30x_Firmware_Library/GD32F30x_standard_peripheral/Source\gd32f30x_timer.c **** */
 528:C:/Users/49542/Desktop/GD32F30x_Demo_Suites_V2.0.0/GD32F30x_Demo_Suites_V2.0.0/GD32F30x_Firmware_Library/GD32F30x_standard_peripheral/Source\gd32f30x_timer.c **** FlagStatus timer_flag_get(uint32_t timer_periph, uint32_t flag)
 529:C:/Users/49542/Desktop/GD32F30x_Demo_Suites_V2.0.0/GD32F30x_Demo_Suites_V2.0.0/GD32F30x_Firmware_Library/GD32F30x_standard_peripheral/Source\gd32f30x_timer.c **** {
 1009              		.loc 1 529 0
 1010              		.cfi_startproc
 1011              		@ args = 0, pretend = 0, frame = 0
 1012              		@ frame_needed = 0, uses_anonymous_args = 0
 1013              		@ link register save eliminated.
 1014              	.LVL91:
ARM GAS  C:\Users\49542\AppData\Local\Temp\ccEBNRSE.s 			page 28


 530:C:/Users/49542/Desktop/GD32F30x_Demo_Suites_V2.0.0/GD32F30x_Demo_Suites_V2.0.0/GD32F30x_Firmware_Library/GD32F30x_standard_peripheral/Source\gd32f30x_timer.c ****     if(RESET != (TIMER_INTF(timer_periph) & flag)){
 1015              		.loc 1 530 0
 1016 0000 0369     		ldr	r3, [r0, #16]
 1017 0002 0B42     		tst	r3, r1
 1018 0004 01D1     		bne	.L70
 531:C:/Users/49542/Desktop/GD32F30x_Demo_Suites_V2.0.0/GD32F30x_Demo_Suites_V2.0.0/GD32F30x_Firmware_Library/GD32F30x_standard_peripheral/Source\gd32f30x_timer.c ****         return SET;
 532:C:/Users/49542/Desktop/GD32F30x_Demo_Suites_V2.0.0/GD32F30x_Demo_Suites_V2.0.0/GD32F30x_Firmware_Library/GD32F30x_standard_peripheral/Source\gd32f30x_timer.c ****     }else{
 533:C:/Users/49542/Desktop/GD32F30x_Demo_Suites_V2.0.0/GD32F30x_Demo_Suites_V2.0.0/GD32F30x_Firmware_Library/GD32F30x_standard_peripheral/Source\gd32f30x_timer.c ****         return RESET;
 1019              		.loc 1 533 0
 1020 0006 0020     		movs	r0, #0
 1021              	.LVL92:
 534:C:/Users/49542/Desktop/GD32F30x_Demo_Suites_V2.0.0/GD32F30x_Demo_Suites_V2.0.0/GD32F30x_Firmware_Library/GD32F30x_standard_peripheral/Source\gd32f30x_timer.c ****     }
 535:C:/Users/49542/Desktop/GD32F30x_Demo_Suites_V2.0.0/GD32F30x_Demo_Suites_V2.0.0/GD32F30x_Firmware_Library/GD32F30x_standard_peripheral/Source\gd32f30x_timer.c **** }
 1022              		.loc 1 535 0
 1023 0008 7047     		bx	lr
 1024              	.LVL93:
 1025              	.L70:
 531:C:/Users/49542/Desktop/GD32F30x_Demo_Suites_V2.0.0/GD32F30x_Demo_Suites_V2.0.0/GD32F30x_Firmware_Library/GD32F30x_standard_peripheral/Source\gd32f30x_timer.c ****         return SET;
 1026              		.loc 1 531 0
 1027 000a 0120     		movs	r0, #1
 1028              	.LVL94:
 1029 000c 7047     		bx	lr
 1030              		.cfi_endproc
 1031              	.LFE140:
 1033              		.section	.text.timer_flag_clear,"ax",%progbits
 1034              		.align	1
 1035              		.global	timer_flag_clear
 1036              		.syntax unified
 1037              		.thumb
 1038              		.thumb_func
 1039              		.fpu fpv4-sp-d16
 1041              	timer_flag_clear:
 1042              	.LFB141:
 536:C:/Users/49542/Desktop/GD32F30x_Demo_Suites_V2.0.0/GD32F30x_Demo_Suites_V2.0.0/GD32F30x_Firmware_Library/GD32F30x_standard_peripheral/Source\gd32f30x_timer.c **** 
 537:C:/Users/49542/Desktop/GD32F30x_Demo_Suites_V2.0.0/GD32F30x_Demo_Suites_V2.0.0/GD32F30x_Firmware_Library/GD32F30x_standard_peripheral/Source\gd32f30x_timer.c **** /*!
 538:C:/Users/49542/Desktop/GD32F30x_Demo_Suites_V2.0.0/GD32F30x_Demo_Suites_V2.0.0/GD32F30x_Firmware_Library/GD32F30x_standard_peripheral/Source\gd32f30x_timer.c ****     \brief      clear TIMER flags
 539:C:/Users/49542/Desktop/GD32F30x_Demo_Suites_V2.0.0/GD32F30x_Demo_Suites_V2.0.0/GD32F30x_Firmware_Library/GD32F30x_standard_peripheral/Source\gd32f30x_timer.c ****     \param[in]  timer_periph: please refer to the following parameters
 540:C:/Users/49542/Desktop/GD32F30x_Demo_Suites_V2.0.0/GD32F30x_Demo_Suites_V2.0.0/GD32F30x_Firmware_Library/GD32F30x_standard_peripheral/Source\gd32f30x_timer.c ****     \param[in]  flag: the timer interrupt flags
 541:C:/Users/49542/Desktop/GD32F30x_Demo_Suites_V2.0.0/GD32F30x_Demo_Suites_V2.0.0/GD32F30x_Firmware_Library/GD32F30x_standard_peripheral/Source\gd32f30x_timer.c ****                 only one parameter can be selected which is shown as below:
 542:C:/Users/49542/Desktop/GD32F30x_Demo_Suites_V2.0.0/GD32F30x_Demo_Suites_V2.0.0/GD32F30x_Firmware_Library/GD32F30x_standard_peripheral/Source\gd32f30x_timer.c ****       \arg        TIMER_FLAG_UP: update flag,TIMERx(x=0..13)
 543:C:/Users/49542/Desktop/GD32F30x_Demo_Suites_V2.0.0/GD32F30x_Demo_Suites_V2.0.0/GD32F30x_Firmware_Library/GD32F30x_standard_peripheral/Source\gd32f30x_timer.c ****       \arg        TIMER_FLAG_CH0: channel 0 flag,TIMERx(x=0..4,7..13)
 544:C:/Users/49542/Desktop/GD32F30x_Demo_Suites_V2.0.0/GD32F30x_Demo_Suites_V2.0.0/GD32F30x_Firmware_Library/GD32F30x_standard_peripheral/Source\gd32f30x_timer.c ****       \arg        TIMER_FLAG_CH1: channel 1 flag,TIMERx(x=0..4,7,8,11)
 545:C:/Users/49542/Desktop/GD32F30x_Demo_Suites_V2.0.0/GD32F30x_Demo_Suites_V2.0.0/GD32F30x_Firmware_Library/GD32F30x_standard_peripheral/Source\gd32f30x_timer.c ****       \arg        TIMER_FLAG_CH2: channel 2 flag,TIMERx(x=0..4,7)
 546:C:/Users/49542/Desktop/GD32F30x_Demo_Suites_V2.0.0/GD32F30x_Demo_Suites_V2.0.0/GD32F30x_Firmware_Library/GD32F30x_standard_peripheral/Source\gd32f30x_timer.c ****       \arg        TIMER_FLAG_CH3: channel 3 flag,TIMERx(x=0..4,7)
 547:C:/Users/49542/Desktop/GD32F30x_Demo_Suites_V2.0.0/GD32F30x_Demo_Suites_V2.0.0/GD32F30x_Firmware_Library/GD32F30x_standard_peripheral/Source\gd32f30x_timer.c ****       \arg        TIMER_FLAG_CMT: channel control update flag,TIMERx(x=0,7) 
 548:C:/Users/49542/Desktop/GD32F30x_Demo_Suites_V2.0.0/GD32F30x_Demo_Suites_V2.0.0/GD32F30x_Firmware_Library/GD32F30x_standard_peripheral/Source\gd32f30x_timer.c ****       \arg        TIMER_FLAG_TRG: trigger flag,TIMERx(x=0,7,8,11) 
 549:C:/Users/49542/Desktop/GD32F30x_Demo_Suites_V2.0.0/GD32F30x_Demo_Suites_V2.0.0/GD32F30x_Firmware_Library/GD32F30x_standard_peripheral/Source\gd32f30x_timer.c ****       \arg        TIMER_FLAG_BRK: break flag,TIMERx(x=0,7)
 550:C:/Users/49542/Desktop/GD32F30x_Demo_Suites_V2.0.0/GD32F30x_Demo_Suites_V2.0.0/GD32F30x_Firmware_Library/GD32F30x_standard_peripheral/Source\gd32f30x_timer.c ****       \arg        TIMER_FLAG_CH0O: channel 0 overcapture flag,TIMERx(x=0..4,7..11)
 551:C:/Users/49542/Desktop/GD32F30x_Demo_Suites_V2.0.0/GD32F30x_Demo_Suites_V2.0.0/GD32F30x_Firmware_Library/GD32F30x_standard_peripheral/Source\gd32f30x_timer.c ****       \arg        TIMER_FLAG_CH1O: channel 1 overcapture flag,TIMERx(x=0..4,7,8,11)
 552:C:/Users/49542/Desktop/GD32F30x_Demo_Suites_V2.0.0/GD32F30x_Demo_Suites_V2.0.0/GD32F30x_Firmware_Library/GD32F30x_standard_peripheral/Source\gd32f30x_timer.c ****       \arg        TIMER_FLAG_CH2O: channel 2 overcapture flag,TIMERx(x=0..4,7)
 553:C:/Users/49542/Desktop/GD32F30x_Demo_Suites_V2.0.0/GD32F30x_Demo_Suites_V2.0.0/GD32F30x_Firmware_Library/GD32F30x_standard_peripheral/Source\gd32f30x_timer.c ****       \arg        TIMER_FLAG_CH3O: channel 3 overcapture flag,TIMERx(x=0..4,7)
 554:C:/Users/49542/Desktop/GD32F30x_Demo_Suites_V2.0.0/GD32F30x_Demo_Suites_V2.0.0/GD32F30x_Firmware_Library/GD32F30x_standard_peripheral/Source\gd32f30x_timer.c ****     \param[out] none
 555:C:/Users/49542/Desktop/GD32F30x_Demo_Suites_V2.0.0/GD32F30x_Demo_Suites_V2.0.0/GD32F30x_Firmware_Library/GD32F30x_standard_peripheral/Source\gd32f30x_timer.c ****     \retval     none
 556:C:/Users/49542/Desktop/GD32F30x_Demo_Suites_V2.0.0/GD32F30x_Demo_Suites_V2.0.0/GD32F30x_Firmware_Library/GD32F30x_standard_peripheral/Source\gd32f30x_timer.c **** */
 557:C:/Users/49542/Desktop/GD32F30x_Demo_Suites_V2.0.0/GD32F30x_Demo_Suites_V2.0.0/GD32F30x_Firmware_Library/GD32F30x_standard_peripheral/Source\gd32f30x_timer.c **** void timer_flag_clear(uint32_t timer_periph, uint32_t flag)
 558:C:/Users/49542/Desktop/GD32F30x_Demo_Suites_V2.0.0/GD32F30x_Demo_Suites_V2.0.0/GD32F30x_Firmware_Library/GD32F30x_standard_peripheral/Source\gd32f30x_timer.c **** {
 1043              		.loc 1 558 0
ARM GAS  C:\Users\49542\AppData\Local\Temp\ccEBNRSE.s 			page 29


 1044              		.cfi_startproc
 1045              		@ args = 0, pretend = 0, frame = 0
 1046              		@ frame_needed = 0, uses_anonymous_args = 0
 1047              		@ link register save eliminated.
 1048              	.LVL95:
 559:C:/Users/49542/Desktop/GD32F30x_Demo_Suites_V2.0.0/GD32F30x_Demo_Suites_V2.0.0/GD32F30x_Firmware_Library/GD32F30x_standard_peripheral/Source\gd32f30x_timer.c ****     TIMER_INTF(timer_periph) &= (~(uint32_t)flag);
 1049              		.loc 1 559 0
 1050 0000 0369     		ldr	r3, [r0, #16]
 1051 0002 23EA0101 		bic	r1, r3, r1
 1052              	.LVL96:
 1053 0006 0161     		str	r1, [r0, #16]
 560:C:/Users/49542/Desktop/GD32F30x_Demo_Suites_V2.0.0/GD32F30x_Demo_Suites_V2.0.0/GD32F30x_Firmware_Library/GD32F30x_standard_peripheral/Source\gd32f30x_timer.c **** }
 1054              		.loc 1 560 0
 1055 0008 7047     		bx	lr
 1056              		.cfi_endproc
 1057              	.LFE141:
 1059              		.section	.text.timer_dma_enable,"ax",%progbits
 1060              		.align	1
 1061              		.global	timer_dma_enable
 1062              		.syntax unified
 1063              		.thumb
 1064              		.thumb_func
 1065              		.fpu fpv4-sp-d16
 1067              	timer_dma_enable:
 1068              	.LFB142:
 561:C:/Users/49542/Desktop/GD32F30x_Demo_Suites_V2.0.0/GD32F30x_Demo_Suites_V2.0.0/GD32F30x_Firmware_Library/GD32F30x_standard_peripheral/Source\gd32f30x_timer.c **** 
 562:C:/Users/49542/Desktop/GD32F30x_Demo_Suites_V2.0.0/GD32F30x_Demo_Suites_V2.0.0/GD32F30x_Firmware_Library/GD32F30x_standard_peripheral/Source\gd32f30x_timer.c **** /*!
 563:C:/Users/49542/Desktop/GD32F30x_Demo_Suites_V2.0.0/GD32F30x_Demo_Suites_V2.0.0/GD32F30x_Firmware_Library/GD32F30x_standard_peripheral/Source\gd32f30x_timer.c ****     \brief      enable the TIMER DMA
 564:C:/Users/49542/Desktop/GD32F30x_Demo_Suites_V2.0.0/GD32F30x_Demo_Suites_V2.0.0/GD32F30x_Firmware_Library/GD32F30x_standard_peripheral/Source\gd32f30x_timer.c ****     \param[in]  timer_periph: please refer to the following parameters
 565:C:/Users/49542/Desktop/GD32F30x_Demo_Suites_V2.0.0/GD32F30x_Demo_Suites_V2.0.0/GD32F30x_Firmware_Library/GD32F30x_standard_peripheral/Source\gd32f30x_timer.c ****     \param[in]  dma: specify which DMA to enable
 566:C:/Users/49542/Desktop/GD32F30x_Demo_Suites_V2.0.0/GD32F30x_Demo_Suites_V2.0.0/GD32F30x_Firmware_Library/GD32F30x_standard_peripheral/Source\gd32f30x_timer.c ****                 only one parameter can be selected which is shown as below:
 567:C:/Users/49542/Desktop/GD32F30x_Demo_Suites_V2.0.0/GD32F30x_Demo_Suites_V2.0.0/GD32F30x_Firmware_Library/GD32F30x_standard_peripheral/Source\gd32f30x_timer.c ****       \arg        TIMER_DMA_UPD:  update DMA enable,TIMERx(x=0..7)
 568:C:/Users/49542/Desktop/GD32F30x_Demo_Suites_V2.0.0/GD32F30x_Demo_Suites_V2.0.0/GD32F30x_Firmware_Library/GD32F30x_standard_peripheral/Source\gd32f30x_timer.c ****       \arg        TIMER_DMA_CH0D: channel 0 DMA enable,TIMERx(x=0..4,7)
 569:C:/Users/49542/Desktop/GD32F30x_Demo_Suites_V2.0.0/GD32F30x_Demo_Suites_V2.0.0/GD32F30x_Firmware_Library/GD32F30x_standard_peripheral/Source\gd32f30x_timer.c ****       \arg        TIMER_DMA_CH1D: channel 1 DMA enable,TIMERx(x=0..4,7)
 570:C:/Users/49542/Desktop/GD32F30x_Demo_Suites_V2.0.0/GD32F30x_Demo_Suites_V2.0.0/GD32F30x_Firmware_Library/GD32F30x_standard_peripheral/Source\gd32f30x_timer.c ****       \arg        TIMER_DMA_CH2D: channel 2 DMA enable,TIMERx(x=0..4,7)
 571:C:/Users/49542/Desktop/GD32F30x_Demo_Suites_V2.0.0/GD32F30x_Demo_Suites_V2.0.0/GD32F30x_Firmware_Library/GD32F30x_standard_peripheral/Source\gd32f30x_timer.c ****       \arg        TIMER_DMA_CH3D: channel 3 DMA enable,TIMERx(x=0..4,7)
 572:C:/Users/49542/Desktop/GD32F30x_Demo_Suites_V2.0.0/GD32F30x_Demo_Suites_V2.0.0/GD32F30x_Firmware_Library/GD32F30x_standard_peripheral/Source\gd32f30x_timer.c ****       \arg        TIMER_DMA_CMTD: commutation DMA request enable,TIMERx(x=0,7)
 573:C:/Users/49542/Desktop/GD32F30x_Demo_Suites_V2.0.0/GD32F30x_Demo_Suites_V2.0.0/GD32F30x_Firmware_Library/GD32F30x_standard_peripheral/Source\gd32f30x_timer.c ****       \arg        TIMER_DMA_TRGD: trigger DMA enable,TIMERx(x=0..4,7)
 574:C:/Users/49542/Desktop/GD32F30x_Demo_Suites_V2.0.0/GD32F30x_Demo_Suites_V2.0.0/GD32F30x_Firmware_Library/GD32F30x_standard_peripheral/Source\gd32f30x_timer.c ****     \param[out] none
 575:C:/Users/49542/Desktop/GD32F30x_Demo_Suites_V2.0.0/GD32F30x_Demo_Suites_V2.0.0/GD32F30x_Firmware_Library/GD32F30x_standard_peripheral/Source\gd32f30x_timer.c ****     \retval     none
 576:C:/Users/49542/Desktop/GD32F30x_Demo_Suites_V2.0.0/GD32F30x_Demo_Suites_V2.0.0/GD32F30x_Firmware_Library/GD32F30x_standard_peripheral/Source\gd32f30x_timer.c **** */
 577:C:/Users/49542/Desktop/GD32F30x_Demo_Suites_V2.0.0/GD32F30x_Demo_Suites_V2.0.0/GD32F30x_Firmware_Library/GD32F30x_standard_peripheral/Source\gd32f30x_timer.c **** void timer_dma_enable(uint32_t timer_periph, uint16_t dma)
 578:C:/Users/49542/Desktop/GD32F30x_Demo_Suites_V2.0.0/GD32F30x_Demo_Suites_V2.0.0/GD32F30x_Firmware_Library/GD32F30x_standard_peripheral/Source\gd32f30x_timer.c **** {
 1069              		.loc 1 578 0
 1070              		.cfi_startproc
 1071              		@ args = 0, pretend = 0, frame = 0
 1072              		@ frame_needed = 0, uses_anonymous_args = 0
 1073              		@ link register save eliminated.
 1074              	.LVL97:
 579:C:/Users/49542/Desktop/GD32F30x_Demo_Suites_V2.0.0/GD32F30x_Demo_Suites_V2.0.0/GD32F30x_Firmware_Library/GD32F30x_standard_peripheral/Source\gd32f30x_timer.c ****     TIMER_DMAINTEN(timer_periph) |= (uint32_t) dma; 
 1075              		.loc 1 579 0
 1076 0000 C368     		ldr	r3, [r0, #12]
 1077 0002 1943     		orrs	r1, r1, r3
 1078              	.LVL98:
 1079 0004 C160     		str	r1, [r0, #12]
 580:C:/Users/49542/Desktop/GD32F30x_Demo_Suites_V2.0.0/GD32F30x_Demo_Suites_V2.0.0/GD32F30x_Firmware_Library/GD32F30x_standard_peripheral/Source\gd32f30x_timer.c **** }
 1080              		.loc 1 580 0
ARM GAS  C:\Users\49542\AppData\Local\Temp\ccEBNRSE.s 			page 30


 1081 0006 7047     		bx	lr
 1082              		.cfi_endproc
 1083              	.LFE142:
 1085              		.section	.text.timer_dma_disable,"ax",%progbits
 1086              		.align	1
 1087              		.global	timer_dma_disable
 1088              		.syntax unified
 1089              		.thumb
 1090              		.thumb_func
 1091              		.fpu fpv4-sp-d16
 1093              	timer_dma_disable:
 1094              	.LFB143:
 581:C:/Users/49542/Desktop/GD32F30x_Demo_Suites_V2.0.0/GD32F30x_Demo_Suites_V2.0.0/GD32F30x_Firmware_Library/GD32F30x_standard_peripheral/Source\gd32f30x_timer.c **** 
 582:C:/Users/49542/Desktop/GD32F30x_Demo_Suites_V2.0.0/GD32F30x_Demo_Suites_V2.0.0/GD32F30x_Firmware_Library/GD32F30x_standard_peripheral/Source\gd32f30x_timer.c **** /*!
 583:C:/Users/49542/Desktop/GD32F30x_Demo_Suites_V2.0.0/GD32F30x_Demo_Suites_V2.0.0/GD32F30x_Firmware_Library/GD32F30x_standard_peripheral/Source\gd32f30x_timer.c ****     \brief      disable the TIMER DMA
 584:C:/Users/49542/Desktop/GD32F30x_Demo_Suites_V2.0.0/GD32F30x_Demo_Suites_V2.0.0/GD32F30x_Firmware_Library/GD32F30x_standard_peripheral/Source\gd32f30x_timer.c ****     \param[in]  timer_periph: please refer to the following parameters
 585:C:/Users/49542/Desktop/GD32F30x_Demo_Suites_V2.0.0/GD32F30x_Demo_Suites_V2.0.0/GD32F30x_Firmware_Library/GD32F30x_standard_peripheral/Source\gd32f30x_timer.c ****     \param[in]  dma: specify which DMA to enable
 586:C:/Users/49542/Desktop/GD32F30x_Demo_Suites_V2.0.0/GD32F30x_Demo_Suites_V2.0.0/GD32F30x_Firmware_Library/GD32F30x_standard_peripheral/Source\gd32f30x_timer.c ****                 one or more parameters can be selected which are shown as below:
 587:C:/Users/49542/Desktop/GD32F30x_Demo_Suites_V2.0.0/GD32F30x_Demo_Suites_V2.0.0/GD32F30x_Firmware_Library/GD32F30x_standard_peripheral/Source\gd32f30x_timer.c ****       \arg        TIMER_DMA_UPD:  update DMA ,TIMERx(x=0..7)
 588:C:/Users/49542/Desktop/GD32F30x_Demo_Suites_V2.0.0/GD32F30x_Demo_Suites_V2.0.0/GD32F30x_Firmware_Library/GD32F30x_standard_peripheral/Source\gd32f30x_timer.c ****       \arg        TIMER_DMA_CH0D: channel 0 DMA request,TIMERx(x=0..4,7)
 589:C:/Users/49542/Desktop/GD32F30x_Demo_Suites_V2.0.0/GD32F30x_Demo_Suites_V2.0.0/GD32F30x_Firmware_Library/GD32F30x_standard_peripheral/Source\gd32f30x_timer.c ****       \arg        TIMER_DMA_CH1D: channel 1 DMA request,TIMERx(x=0..4,7)
 590:C:/Users/49542/Desktop/GD32F30x_Demo_Suites_V2.0.0/GD32F30x_Demo_Suites_V2.0.0/GD32F30x_Firmware_Library/GD32F30x_standard_peripheral/Source\gd32f30x_timer.c ****       \arg        TIMER_DMA_CH2D: channel 2 DMA request,TIMERx(x=0..4,7)
 591:C:/Users/49542/Desktop/GD32F30x_Demo_Suites_V2.0.0/GD32F30x_Demo_Suites_V2.0.0/GD32F30x_Firmware_Library/GD32F30x_standard_peripheral/Source\gd32f30x_timer.c ****       \arg        TIMER_DMA_CH3D: channel 3 DMA request,TIMERx(x=0..4,7)
 592:C:/Users/49542/Desktop/GD32F30x_Demo_Suites_V2.0.0/GD32F30x_Demo_Suites_V2.0.0/GD32F30x_Firmware_Library/GD32F30x_standard_peripheral/Source\gd32f30x_timer.c ****       \arg        TIMER_DMA_CMTD: commutation DMA request ,TIMERx(x=0,7)
 593:C:/Users/49542/Desktop/GD32F30x_Demo_Suites_V2.0.0/GD32F30x_Demo_Suites_V2.0.0/GD32F30x_Firmware_Library/GD32F30x_standard_peripheral/Source\gd32f30x_timer.c ****       \arg        TIMER_DMA_TRGD: trigger DMA request,TIMERx(x=0..4,7)
 594:C:/Users/49542/Desktop/GD32F30x_Demo_Suites_V2.0.0/GD32F30x_Demo_Suites_V2.0.0/GD32F30x_Firmware_Library/GD32F30x_standard_peripheral/Source\gd32f30x_timer.c ****     \param[out] none
 595:C:/Users/49542/Desktop/GD32F30x_Demo_Suites_V2.0.0/GD32F30x_Demo_Suites_V2.0.0/GD32F30x_Firmware_Library/GD32F30x_standard_peripheral/Source\gd32f30x_timer.c ****     \retval     none
 596:C:/Users/49542/Desktop/GD32F30x_Demo_Suites_V2.0.0/GD32F30x_Demo_Suites_V2.0.0/GD32F30x_Firmware_Library/GD32F30x_standard_peripheral/Source\gd32f30x_timer.c **** */
 597:C:/Users/49542/Desktop/GD32F30x_Demo_Suites_V2.0.0/GD32F30x_Demo_Suites_V2.0.0/GD32F30x_Firmware_Library/GD32F30x_standard_peripheral/Source\gd32f30x_timer.c **** void timer_dma_disable(uint32_t timer_periph, uint16_t dma)
 598:C:/Users/49542/Desktop/GD32F30x_Demo_Suites_V2.0.0/GD32F30x_Demo_Suites_V2.0.0/GD32F30x_Firmware_Library/GD32F30x_standard_peripheral/Source\gd32f30x_timer.c **** {
 1095              		.loc 1 598 0
 1096              		.cfi_startproc
 1097              		@ args = 0, pretend = 0, frame = 0
 1098              		@ frame_needed = 0, uses_anonymous_args = 0
 1099              		@ link register save eliminated.
 1100              	.LVL99:
 599:C:/Users/49542/Desktop/GD32F30x_Demo_Suites_V2.0.0/GD32F30x_Demo_Suites_V2.0.0/GD32F30x_Firmware_Library/GD32F30x_standard_peripheral/Source\gd32f30x_timer.c ****     TIMER_DMAINTEN(timer_periph) &= (~(uint32_t)(dma)); 
 1101              		.loc 1 599 0
 1102 0000 C368     		ldr	r3, [r0, #12]
 1103 0002 23EA0101 		bic	r1, r3, r1
 1104              	.LVL100:
 1105 0006 C160     		str	r1, [r0, #12]
 600:C:/Users/49542/Desktop/GD32F30x_Demo_Suites_V2.0.0/GD32F30x_Demo_Suites_V2.0.0/GD32F30x_Firmware_Library/GD32F30x_standard_peripheral/Source\gd32f30x_timer.c **** }
 1106              		.loc 1 600 0
 1107 0008 7047     		bx	lr
 1108              		.cfi_endproc
 1109              	.LFE143:
 1111              		.section	.text.timer_channel_dma_request_source_select,"ax",%progbits
 1112              		.align	1
 1113              		.global	timer_channel_dma_request_source_select
 1114              		.syntax unified
 1115              		.thumb
 1116              		.thumb_func
 1117              		.fpu fpv4-sp-d16
 1119              	timer_channel_dma_request_source_select:
 1120              	.LFB144:
 601:C:/Users/49542/Desktop/GD32F30x_Demo_Suites_V2.0.0/GD32F30x_Demo_Suites_V2.0.0/GD32F30x_Firmware_Library/GD32F30x_standard_peripheral/Source\gd32f30x_timer.c **** 
ARM GAS  C:\Users\49542\AppData\Local\Temp\ccEBNRSE.s 			page 31


 602:C:/Users/49542/Desktop/GD32F30x_Demo_Suites_V2.0.0/GD32F30x_Demo_Suites_V2.0.0/GD32F30x_Firmware_Library/GD32F30x_standard_peripheral/Source\gd32f30x_timer.c **** /*!
 603:C:/Users/49542/Desktop/GD32F30x_Demo_Suites_V2.0.0/GD32F30x_Demo_Suites_V2.0.0/GD32F30x_Firmware_Library/GD32F30x_standard_peripheral/Source\gd32f30x_timer.c ****     \brief      channel DMA request source selection
 604:C:/Users/49542/Desktop/GD32F30x_Demo_Suites_V2.0.0/GD32F30x_Demo_Suites_V2.0.0/GD32F30x_Firmware_Library/GD32F30x_standard_peripheral/Source\gd32f30x_timer.c ****     \param[in]  timer_periph: TIMERx(x=0..4,7)
 605:C:/Users/49542/Desktop/GD32F30x_Demo_Suites_V2.0.0/GD32F30x_Demo_Suites_V2.0.0/GD32F30x_Firmware_Library/GD32F30x_standard_peripheral/Source\gd32f30x_timer.c ****     \param[in]  dma_request: channel DMA request source selection
 606:C:/Users/49542/Desktop/GD32F30x_Demo_Suites_V2.0.0/GD32F30x_Demo_Suites_V2.0.0/GD32F30x_Firmware_Library/GD32F30x_standard_peripheral/Source\gd32f30x_timer.c ****                 only one parameter can be selected which is shown as below:
 607:C:/Users/49542/Desktop/GD32F30x_Demo_Suites_V2.0.0/GD32F30x_Demo_Suites_V2.0.0/GD32F30x_Firmware_Library/GD32F30x_standard_peripheral/Source\gd32f30x_timer.c ****        \arg        TIMER_DMAREQUEST_CHANNELEVENT: DMA request of channel y is sent when channel y e
 608:C:/Users/49542/Desktop/GD32F30x_Demo_Suites_V2.0.0/GD32F30x_Demo_Suites_V2.0.0/GD32F30x_Firmware_Library/GD32F30x_standard_peripheral/Source\gd32f30x_timer.c ****        \arg        TIMER_DMAREQUEST_UPDATEEVENT: DMA request of channel y is sent when update event
 609:C:/Users/49542/Desktop/GD32F30x_Demo_Suites_V2.0.0/GD32F30x_Demo_Suites_V2.0.0/GD32F30x_Firmware_Library/GD32F30x_standard_peripheral/Source\gd32f30x_timer.c ****     \param[out] none
 610:C:/Users/49542/Desktop/GD32F30x_Demo_Suites_V2.0.0/GD32F30x_Demo_Suites_V2.0.0/GD32F30x_Firmware_Library/GD32F30x_standard_peripheral/Source\gd32f30x_timer.c ****     \retval     none
 611:C:/Users/49542/Desktop/GD32F30x_Demo_Suites_V2.0.0/GD32F30x_Demo_Suites_V2.0.0/GD32F30x_Firmware_Library/GD32F30x_standard_peripheral/Source\gd32f30x_timer.c **** */
 612:C:/Users/49542/Desktop/GD32F30x_Demo_Suites_V2.0.0/GD32F30x_Demo_Suites_V2.0.0/GD32F30x_Firmware_Library/GD32F30x_standard_peripheral/Source\gd32f30x_timer.c **** void timer_channel_dma_request_source_select(uint32_t timer_periph, uint8_t dma_request)
 613:C:/Users/49542/Desktop/GD32F30x_Demo_Suites_V2.0.0/GD32F30x_Demo_Suites_V2.0.0/GD32F30x_Firmware_Library/GD32F30x_standard_peripheral/Source\gd32f30x_timer.c **** {
 1121              		.loc 1 613 0
 1122              		.cfi_startproc
 1123              		@ args = 0, pretend = 0, frame = 0
 1124              		@ frame_needed = 0, uses_anonymous_args = 0
 1125              		@ link register save eliminated.
 1126              	.LVL101:
 614:C:/Users/49542/Desktop/GD32F30x_Demo_Suites_V2.0.0/GD32F30x_Demo_Suites_V2.0.0/GD32F30x_Firmware_Library/GD32F30x_standard_peripheral/Source\gd32f30x_timer.c ****     if(TIMER_DMAREQUEST_UPDATEEVENT == dma_request){
 1127              		.loc 1 614 0
 1128 0000 11B1     		cbz	r1, .L77
 615:C:/Users/49542/Desktop/GD32F30x_Demo_Suites_V2.0.0/GD32F30x_Demo_Suites_V2.0.0/GD32F30x_Firmware_Library/GD32F30x_standard_peripheral/Source\gd32f30x_timer.c ****         TIMER_CTL1(timer_periph) |= (uint32_t)TIMER_CTL1_DMAS;
 616:C:/Users/49542/Desktop/GD32F30x_Demo_Suites_V2.0.0/GD32F30x_Demo_Suites_V2.0.0/GD32F30x_Firmware_Library/GD32F30x_standard_peripheral/Source\gd32f30x_timer.c ****     }else if(TIMER_DMAREQUEST_CHANNELEVENT == dma_request){
 1129              		.loc 1 616 0
 1130 0002 0129     		cmp	r1, #1
 1131 0004 05D0     		beq	.L78
 1132              	.L74:
 617:C:/Users/49542/Desktop/GD32F30x_Demo_Suites_V2.0.0/GD32F30x_Demo_Suites_V2.0.0/GD32F30x_Firmware_Library/GD32F30x_standard_peripheral/Source\gd32f30x_timer.c ****         TIMER_CTL1(timer_periph) &= ~(uint32_t)TIMER_CTL1_DMAS;
 618:C:/Users/49542/Desktop/GD32F30x_Demo_Suites_V2.0.0/GD32F30x_Demo_Suites_V2.0.0/GD32F30x_Firmware_Library/GD32F30x_standard_peripheral/Source\gd32f30x_timer.c ****     }else{
 619:C:/Users/49542/Desktop/GD32F30x_Demo_Suites_V2.0.0/GD32F30x_Demo_Suites_V2.0.0/GD32F30x_Firmware_Library/GD32F30x_standard_peripheral/Source\gd32f30x_timer.c ****         /* illegal parameters */
 620:C:/Users/49542/Desktop/GD32F30x_Demo_Suites_V2.0.0/GD32F30x_Demo_Suites_V2.0.0/GD32F30x_Firmware_Library/GD32F30x_standard_peripheral/Source\gd32f30x_timer.c ****     }
 621:C:/Users/49542/Desktop/GD32F30x_Demo_Suites_V2.0.0/GD32F30x_Demo_Suites_V2.0.0/GD32F30x_Firmware_Library/GD32F30x_standard_peripheral/Source\gd32f30x_timer.c **** }
 1133              		.loc 1 621 0
 1134 0006 7047     		bx	lr
 1135              	.L77:
 615:C:/Users/49542/Desktop/GD32F30x_Demo_Suites_V2.0.0/GD32F30x_Demo_Suites_V2.0.0/GD32F30x_Firmware_Library/GD32F30x_standard_peripheral/Source\gd32f30x_timer.c ****         TIMER_CTL1(timer_periph) |= (uint32_t)TIMER_CTL1_DMAS;
 1136              		.loc 1 615 0
 1137 0008 4368     		ldr	r3, [r0, #4]
 1138 000a 43F00803 		orr	r3, r3, #8
 1139 000e 4360     		str	r3, [r0, #4]
 1140 0010 7047     		bx	lr
 1141              	.L78:
 617:C:/Users/49542/Desktop/GD32F30x_Demo_Suites_V2.0.0/GD32F30x_Demo_Suites_V2.0.0/GD32F30x_Firmware_Library/GD32F30x_standard_peripheral/Source\gd32f30x_timer.c ****         TIMER_CTL1(timer_periph) &= ~(uint32_t)TIMER_CTL1_DMAS;
 1142              		.loc 1 617 0
 1143 0012 4368     		ldr	r3, [r0, #4]
 1144 0014 23F00803 		bic	r3, r3, #8
 1145 0018 4360     		str	r3, [r0, #4]
 1146              		.loc 1 621 0
 1147 001a F4E7     		b	.L74
 1148              		.cfi_endproc
 1149              	.LFE144:
 1151              		.section	.text.timer_dma_transfer_config,"ax",%progbits
 1152              		.align	1
 1153              		.global	timer_dma_transfer_config
 1154              		.syntax unified
 1155              		.thumb
 1156              		.thumb_func
ARM GAS  C:\Users\49542\AppData\Local\Temp\ccEBNRSE.s 			page 32


 1157              		.fpu fpv4-sp-d16
 1159              	timer_dma_transfer_config:
 1160              	.LFB145:
 622:C:/Users/49542/Desktop/GD32F30x_Demo_Suites_V2.0.0/GD32F30x_Demo_Suites_V2.0.0/GD32F30x_Firmware_Library/GD32F30x_standard_peripheral/Source\gd32f30x_timer.c **** 
 623:C:/Users/49542/Desktop/GD32F30x_Demo_Suites_V2.0.0/GD32F30x_Demo_Suites_V2.0.0/GD32F30x_Firmware_Library/GD32F30x_standard_peripheral/Source\gd32f30x_timer.c **** /*!
 624:C:/Users/49542/Desktop/GD32F30x_Demo_Suites_V2.0.0/GD32F30x_Demo_Suites_V2.0.0/GD32F30x_Firmware_Library/GD32F30x_standard_peripheral/Source\gd32f30x_timer.c ****     \brief      configure the TIMER DMA transfer
 625:C:/Users/49542/Desktop/GD32F30x_Demo_Suites_V2.0.0/GD32F30x_Demo_Suites_V2.0.0/GD32F30x_Firmware_Library/GD32F30x_standard_peripheral/Source\gd32f30x_timer.c ****     \param[in]  timer_periph: please refer to the following parameters
 626:C:/Users/49542/Desktop/GD32F30x_Demo_Suites_V2.0.0/GD32F30x_Demo_Suites_V2.0.0/GD32F30x_Firmware_Library/GD32F30x_standard_peripheral/Source\gd32f30x_timer.c ****     \param[in]  dma_baseaddr:
 627:C:/Users/49542/Desktop/GD32F30x_Demo_Suites_V2.0.0/GD32F30x_Demo_Suites_V2.0.0/GD32F30x_Firmware_Library/GD32F30x_standard_peripheral/Source\gd32f30x_timer.c ****                 only one parameter can be selected which is shown as below:
 628:C:/Users/49542/Desktop/GD32F30x_Demo_Suites_V2.0.0/GD32F30x_Demo_Suites_V2.0.0/GD32F30x_Firmware_Library/GD32F30x_standard_peripheral/Source\gd32f30x_timer.c ****        \arg        TIMER_DMACFG_DMATA_CTL0: DMA transfer address is TIMER_CTL0,TIMERx(x=0..4,7)
 629:C:/Users/49542/Desktop/GD32F30x_Demo_Suites_V2.0.0/GD32F30x_Demo_Suites_V2.0.0/GD32F30x_Firmware_Library/GD32F30x_standard_peripheral/Source\gd32f30x_timer.c ****        \arg        TIMER_DMACFG_DMATA_CTL1: DMA transfer address is TIMER_CTL1,TIMERx(x=0..4,7)
 630:C:/Users/49542/Desktop/GD32F30x_Demo_Suites_V2.0.0/GD32F30x_Demo_Suites_V2.0.0/GD32F30x_Firmware_Library/GD32F30x_standard_peripheral/Source\gd32f30x_timer.c ****        \arg        TIMER_DMACFG_DMATA_SMCFG: DMA transfer address is TIMER_SMCFG,TIMERx(x=0..4,7)
 631:C:/Users/49542/Desktop/GD32F30x_Demo_Suites_V2.0.0/GD32F30x_Demo_Suites_V2.0.0/GD32F30x_Firmware_Library/GD32F30x_standard_peripheral/Source\gd32f30x_timer.c ****        \arg        TIMER_DMACFG_DMATA_DMAINTEN: DMA transfer address is TIMER_DMAINTEN,TIMERx(x=0..
 632:C:/Users/49542/Desktop/GD32F30x_Demo_Suites_V2.0.0/GD32F30x_Demo_Suites_V2.0.0/GD32F30x_Firmware_Library/GD32F30x_standard_peripheral/Source\gd32f30x_timer.c ****        \arg        TIMER_DMACFG_DMATA_INTF: DMA transfer address is TIMER_INTF,TIMERx(x=0..4,7)
 633:C:/Users/49542/Desktop/GD32F30x_Demo_Suites_V2.0.0/GD32F30x_Demo_Suites_V2.0.0/GD32F30x_Firmware_Library/GD32F30x_standard_peripheral/Source\gd32f30x_timer.c ****        \arg        TIMER_DMACFG_DMATA_SWEVG: DMA transfer address is TIMER_SWEVG,TIMERx(x=0..4,7)
 634:C:/Users/49542/Desktop/GD32F30x_Demo_Suites_V2.0.0/GD32F30x_Demo_Suites_V2.0.0/GD32F30x_Firmware_Library/GD32F30x_standard_peripheral/Source\gd32f30x_timer.c ****        \arg        TIMER_DMACFG_DMATA_CHCTL0: DMA transfer address is TIMER_CHCTL0,TIMERx(x=0..4,7)
 635:C:/Users/49542/Desktop/GD32F30x_Demo_Suites_V2.0.0/GD32F30x_Demo_Suites_V2.0.0/GD32F30x_Firmware_Library/GD32F30x_standard_peripheral/Source\gd32f30x_timer.c ****        \arg        TIMER_DMACFG_DMATA_CHCTL1: DMA transfer address is TIMER_CHCTL1,TIMERx(x=0..4,7)
 636:C:/Users/49542/Desktop/GD32F30x_Demo_Suites_V2.0.0/GD32F30x_Demo_Suites_V2.0.0/GD32F30x_Firmware_Library/GD32F30x_standard_peripheral/Source\gd32f30x_timer.c ****        \arg        TIMER_DMACFG_DMATA_CHCTL2: DMA transfer address is TIMER_CHCTL2,TIMERx(x=0..4,7)
 637:C:/Users/49542/Desktop/GD32F30x_Demo_Suites_V2.0.0/GD32F30x_Demo_Suites_V2.0.0/GD32F30x_Firmware_Library/GD32F30x_standard_peripheral/Source\gd32f30x_timer.c ****        \arg        TIMER_DMACFG_DMATA_CNT: DMA transfer address is TIMER_CNT,TIMERx(x=0..4,7)
 638:C:/Users/49542/Desktop/GD32F30x_Demo_Suites_V2.0.0/GD32F30x_Demo_Suites_V2.0.0/GD32F30x_Firmware_Library/GD32F30x_standard_peripheral/Source\gd32f30x_timer.c ****        \arg        TIMER_DMACFG_DMATA_PSC: DMA transfer address is TIMER_PSC,TIMERx(x=0..4,7)
 639:C:/Users/49542/Desktop/GD32F30x_Demo_Suites_V2.0.0/GD32F30x_Demo_Suites_V2.0.0/GD32F30x_Firmware_Library/GD32F30x_standard_peripheral/Source\gd32f30x_timer.c ****        \arg        TIMER_DMACFG_DMATA_CAR: DMA transfer address is TIMER_CAR,TIMERx(x=0..4,7)
 640:C:/Users/49542/Desktop/GD32F30x_Demo_Suites_V2.0.0/GD32F30x_Demo_Suites_V2.0.0/GD32F30x_Firmware_Library/GD32F30x_standard_peripheral/Source\gd32f30x_timer.c ****        \arg        TIMER_DMACFG_DMATA_CREP: DMA transfer address is TIMER_CREP,TIMERx(x=0,7)
 641:C:/Users/49542/Desktop/GD32F30x_Demo_Suites_V2.0.0/GD32F30x_Demo_Suites_V2.0.0/GD32F30x_Firmware_Library/GD32F30x_standard_peripheral/Source\gd32f30x_timer.c ****        \arg        TIMER_DMACFG_DMATA_CH0CV: DMA transfer address is TIMER_CH0CV,TIMERx(x=0..4,7)
 642:C:/Users/49542/Desktop/GD32F30x_Demo_Suites_V2.0.0/GD32F30x_Demo_Suites_V2.0.0/GD32F30x_Firmware_Library/GD32F30x_standard_peripheral/Source\gd32f30x_timer.c ****        \arg        TIMER_DMACFG_DMATA_CH1CV: DMA transfer address is TIMER_CH1CV,TIMERx(x=0..4,7)
 643:C:/Users/49542/Desktop/GD32F30x_Demo_Suites_V2.0.0/GD32F30x_Demo_Suites_V2.0.0/GD32F30x_Firmware_Library/GD32F30x_standard_peripheral/Source\gd32f30x_timer.c ****        \arg        TIMER_DMACFG_DMATA_CH2CV: DMA transfer address is TIMER_CH2CV,TIMERx(x=0..4,7)
 644:C:/Users/49542/Desktop/GD32F30x_Demo_Suites_V2.0.0/GD32F30x_Demo_Suites_V2.0.0/GD32F30x_Firmware_Library/GD32F30x_standard_peripheral/Source\gd32f30x_timer.c ****        \arg        TIMER_DMACFG_DMATA_CH3CV: DMA transfer address is TIMER_CH3CV,TIMERx(x=0..4,7)
 645:C:/Users/49542/Desktop/GD32F30x_Demo_Suites_V2.0.0/GD32F30x_Demo_Suites_V2.0.0/GD32F30x_Firmware_Library/GD32F30x_standard_peripheral/Source\gd32f30x_timer.c ****        \arg        TIMER_DMACFG_DMATA_CCHP: DMA transfer address is TIMER_CCHP,TIMERx(x=0,7)
 646:C:/Users/49542/Desktop/GD32F30x_Demo_Suites_V2.0.0/GD32F30x_Demo_Suites_V2.0.0/GD32F30x_Firmware_Library/GD32F30x_standard_peripheral/Source\gd32f30x_timer.c ****        \arg        TIMER_DMACFG_DMATA_DMACFG: DMA transfer address is TIMER_DMACFG,TIMERx(x=0..4,7)
 647:C:/Users/49542/Desktop/GD32F30x_Demo_Suites_V2.0.0/GD32F30x_Demo_Suites_V2.0.0/GD32F30x_Firmware_Library/GD32F30x_standard_peripheral/Source\gd32f30x_timer.c ****        \arg        TIMER_DMACFG_DMATA_DMATB: DMA transfer address is TIMER_DMATB,TIMERx(x=0..4,7)
 648:C:/Users/49542/Desktop/GD32F30x_Demo_Suites_V2.0.0/GD32F30x_Demo_Suites_V2.0.0/GD32F30x_Firmware_Library/GD32F30x_standard_peripheral/Source\gd32f30x_timer.c ****     \param[in]  dma_lenth:
 649:C:/Users/49542/Desktop/GD32F30x_Demo_Suites_V2.0.0/GD32F30x_Demo_Suites_V2.0.0/GD32F30x_Firmware_Library/GD32F30x_standard_peripheral/Source\gd32f30x_timer.c ****                 only one parameter can be selected which is shown as below:
 650:C:/Users/49542/Desktop/GD32F30x_Demo_Suites_V2.0.0/GD32F30x_Demo_Suites_V2.0.0/GD32F30x_Firmware_Library/GD32F30x_standard_peripheral/Source\gd32f30x_timer.c ****        \arg        TIMER_DMACFG_DMATC_xTRANSFER(x=1..18): DMA transfer x time
 651:C:/Users/49542/Desktop/GD32F30x_Demo_Suites_V2.0.0/GD32F30x_Demo_Suites_V2.0.0/GD32F30x_Firmware_Library/GD32F30x_standard_peripheral/Source\gd32f30x_timer.c ****     \param[out] none
 652:C:/Users/49542/Desktop/GD32F30x_Demo_Suites_V2.0.0/GD32F30x_Demo_Suites_V2.0.0/GD32F30x_Firmware_Library/GD32F30x_standard_peripheral/Source\gd32f30x_timer.c ****     \retval     none
 653:C:/Users/49542/Desktop/GD32F30x_Demo_Suites_V2.0.0/GD32F30x_Demo_Suites_V2.0.0/GD32F30x_Firmware_Library/GD32F30x_standard_peripheral/Source\gd32f30x_timer.c **** */
 654:C:/Users/49542/Desktop/GD32F30x_Demo_Suites_V2.0.0/GD32F30x_Demo_Suites_V2.0.0/GD32F30x_Firmware_Library/GD32F30x_standard_peripheral/Source\gd32f30x_timer.c **** void timer_dma_transfer_config(uint32_t timer_periph, uint32_t dma_baseaddr, uint32_t dma_lenth)
 655:C:/Users/49542/Desktop/GD32F30x_Demo_Suites_V2.0.0/GD32F30x_Demo_Suites_V2.0.0/GD32F30x_Firmware_Library/GD32F30x_standard_peripheral/Source\gd32f30x_timer.c **** {
 1161              		.loc 1 655 0
 1162              		.cfi_startproc
 1163              		@ args = 0, pretend = 0, frame = 0
 1164              		@ frame_needed = 0, uses_anonymous_args = 0
 1165              		@ link register save eliminated.
 1166              	.LVL102:
 656:C:/Users/49542/Desktop/GD32F30x_Demo_Suites_V2.0.0/GD32F30x_Demo_Suites_V2.0.0/GD32F30x_Firmware_Library/GD32F30x_standard_peripheral/Source\gd32f30x_timer.c ****     TIMER_DMACFG(timer_periph) &= (~(uint32_t)(TIMER_DMACFG_DMATA | TIMER_DMACFG_DMATC));
 1167              		.loc 1 656 0
 1168 0000 836C     		ldr	r3, [r0, #72]
 1169 0002 23F4F853 		bic	r3, r3, #7936
 1170 0006 23F01F03 		bic	r3, r3, #31
 1171 000a 8364     		str	r3, [r0, #72]
 657:C:/Users/49542/Desktop/GD32F30x_Demo_Suites_V2.0.0/GD32F30x_Demo_Suites_V2.0.0/GD32F30x_Firmware_Library/GD32F30x_standard_peripheral/Source\gd32f30x_timer.c ****     TIMER_DMACFG(timer_periph) |= (uint32_t)(dma_baseaddr | dma_lenth);
 1172              		.loc 1 657 0
 1173 000c 836C     		ldr	r3, [r0, #72]
 1174 000e 0A43     		orrs	r2, r2, r1
 1175              	.LVL103:
 1176 0010 1343     		orrs	r3, r3, r2
 1177 0012 8364     		str	r3, [r0, #72]
 658:C:/Users/49542/Desktop/GD32F30x_Demo_Suites_V2.0.0/GD32F30x_Demo_Suites_V2.0.0/GD32F30x_Firmware_Library/GD32F30x_standard_peripheral/Source\gd32f30x_timer.c **** }
ARM GAS  C:\Users\49542\AppData\Local\Temp\ccEBNRSE.s 			page 33


 1178              		.loc 1 658 0
 1179 0014 7047     		bx	lr
 1180              		.cfi_endproc
 1181              	.LFE145:
 1183              		.section	.text.timer_event_software_generate,"ax",%progbits
 1184              		.align	1
 1185              		.global	timer_event_software_generate
 1186              		.syntax unified
 1187              		.thumb
 1188              		.thumb_func
 1189              		.fpu fpv4-sp-d16
 1191              	timer_event_software_generate:
 1192              	.LFB146:
 659:C:/Users/49542/Desktop/GD32F30x_Demo_Suites_V2.0.0/GD32F30x_Demo_Suites_V2.0.0/GD32F30x_Firmware_Library/GD32F30x_standard_peripheral/Source\gd32f30x_timer.c **** 
 660:C:/Users/49542/Desktop/GD32F30x_Demo_Suites_V2.0.0/GD32F30x_Demo_Suites_V2.0.0/GD32F30x_Firmware_Library/GD32F30x_standard_peripheral/Source\gd32f30x_timer.c **** /*!
 661:C:/Users/49542/Desktop/GD32F30x_Demo_Suites_V2.0.0/GD32F30x_Demo_Suites_V2.0.0/GD32F30x_Firmware_Library/GD32F30x_standard_peripheral/Source\gd32f30x_timer.c ****     \brief      software generate events 
 662:C:/Users/49542/Desktop/GD32F30x_Demo_Suites_V2.0.0/GD32F30x_Demo_Suites_V2.0.0/GD32F30x_Firmware_Library/GD32F30x_standard_peripheral/Source\gd32f30x_timer.c ****     \param[in]  timer_periph: please refer to the following parameters
 663:C:/Users/49542/Desktop/GD32F30x_Demo_Suites_V2.0.0/GD32F30x_Demo_Suites_V2.0.0/GD32F30x_Firmware_Library/GD32F30x_standard_peripheral/Source\gd32f30x_timer.c ****     \param[in]  event: the timer software event generation sources
 664:C:/Users/49542/Desktop/GD32F30x_Demo_Suites_V2.0.0/GD32F30x_Demo_Suites_V2.0.0/GD32F30x_Firmware_Library/GD32F30x_standard_peripheral/Source\gd32f30x_timer.c ****                 one or more parameters can be selected which are shown as below:
 665:C:/Users/49542/Desktop/GD32F30x_Demo_Suites_V2.0.0/GD32F30x_Demo_Suites_V2.0.0/GD32F30x_Firmware_Library/GD32F30x_standard_peripheral/Source\gd32f30x_timer.c ****       \arg        TIMER_EVENT_SRC_UPG: update event,TIMERx(x=0..13)
 666:C:/Users/49542/Desktop/GD32F30x_Demo_Suites_V2.0.0/GD32F30x_Demo_Suites_V2.0.0/GD32F30x_Firmware_Library/GD32F30x_standard_peripheral/Source\gd32f30x_timer.c ****       \arg        TIMER_EVENT_SRC_CH0G: channel 0 capture or compare event generation,TIMERx(x=0..4
 667:C:/Users/49542/Desktop/GD32F30x_Demo_Suites_V2.0.0/GD32F30x_Demo_Suites_V2.0.0/GD32F30x_Firmware_Library/GD32F30x_standard_peripheral/Source\gd32f30x_timer.c ****       \arg        TIMER_EVENT_SRC_CH1G: channel 1 capture or compare event generation,TIMERx(x=0..4
 668:C:/Users/49542/Desktop/GD32F30x_Demo_Suites_V2.0.0/GD32F30x_Demo_Suites_V2.0.0/GD32F30x_Firmware_Library/GD32F30x_standard_peripheral/Source\gd32f30x_timer.c ****       \arg        TIMER_EVENT_SRC_CH2G: channel 2 capture or compare event generation,TIMERx(x=0..4
 669:C:/Users/49542/Desktop/GD32F30x_Demo_Suites_V2.0.0/GD32F30x_Demo_Suites_V2.0.0/GD32F30x_Firmware_Library/GD32F30x_standard_peripheral/Source\gd32f30x_timer.c ****       \arg        TIMER_EVENT_SRC_CH3G: channel 3 capture or compare event generation,TIMERx(x=0..4
 670:C:/Users/49542/Desktop/GD32F30x_Demo_Suites_V2.0.0/GD32F30x_Demo_Suites_V2.0.0/GD32F30x_Firmware_Library/GD32F30x_standard_peripheral/Source\gd32f30x_timer.c ****       \arg        TIMER_EVENT_SRC_CMTG: channel commutation event generation,TIMERx(x=0,7) 
 671:C:/Users/49542/Desktop/GD32F30x_Demo_Suites_V2.0.0/GD32F30x_Demo_Suites_V2.0.0/GD32F30x_Firmware_Library/GD32F30x_standard_peripheral/Source\gd32f30x_timer.c ****       \arg        TIMER_EVENT_SRC_TRGG: trigger event generation,TIMERx(x=0..4,7,8,11)
 672:C:/Users/49542/Desktop/GD32F30x_Demo_Suites_V2.0.0/GD32F30x_Demo_Suites_V2.0.0/GD32F30x_Firmware_Library/GD32F30x_standard_peripheral/Source\gd32f30x_timer.c ****       \arg        TIMER_EVENT_SRC_BRKG:  break event generation,TIMERx(x=0,7)
 673:C:/Users/49542/Desktop/GD32F30x_Demo_Suites_V2.0.0/GD32F30x_Demo_Suites_V2.0.0/GD32F30x_Firmware_Library/GD32F30x_standard_peripheral/Source\gd32f30x_timer.c ****     \param[out] none
 674:C:/Users/49542/Desktop/GD32F30x_Demo_Suites_V2.0.0/GD32F30x_Demo_Suites_V2.0.0/GD32F30x_Firmware_Library/GD32F30x_standard_peripheral/Source\gd32f30x_timer.c ****     \retval     none
 675:C:/Users/49542/Desktop/GD32F30x_Demo_Suites_V2.0.0/GD32F30x_Demo_Suites_V2.0.0/GD32F30x_Firmware_Library/GD32F30x_standard_peripheral/Source\gd32f30x_timer.c **** */
 676:C:/Users/49542/Desktop/GD32F30x_Demo_Suites_V2.0.0/GD32F30x_Demo_Suites_V2.0.0/GD32F30x_Firmware_Library/GD32F30x_standard_peripheral/Source\gd32f30x_timer.c **** void timer_event_software_generate(uint32_t timer_periph, uint16_t event)
 677:C:/Users/49542/Desktop/GD32F30x_Demo_Suites_V2.0.0/GD32F30x_Demo_Suites_V2.0.0/GD32F30x_Firmware_Library/GD32F30x_standard_peripheral/Source\gd32f30x_timer.c **** {
 1193              		.loc 1 677 0
 1194              		.cfi_startproc
 1195              		@ args = 0, pretend = 0, frame = 0
 1196              		@ frame_needed = 0, uses_anonymous_args = 0
 1197              		@ link register save eliminated.
 1198              	.LVL104:
 678:C:/Users/49542/Desktop/GD32F30x_Demo_Suites_V2.0.0/GD32F30x_Demo_Suites_V2.0.0/GD32F30x_Firmware_Library/GD32F30x_standard_peripheral/Source\gd32f30x_timer.c ****     TIMER_SWEVG(timer_periph) |= (uint32_t)event;
 1199              		.loc 1 678 0
 1200 0000 4369     		ldr	r3, [r0, #20]
 1201 0002 1943     		orrs	r1, r1, r3
 1202              	.LVL105:
 1203 0004 4161     		str	r1, [r0, #20]
 679:C:/Users/49542/Desktop/GD32F30x_Demo_Suites_V2.0.0/GD32F30x_Demo_Suites_V2.0.0/GD32F30x_Firmware_Library/GD32F30x_standard_peripheral/Source\gd32f30x_timer.c **** }
 1204              		.loc 1 679 0
 1205 0006 7047     		bx	lr
 1206              		.cfi_endproc
 1207              	.LFE146:
 1209              		.section	.text.timer_break_struct_para_init,"ax",%progbits
 1210              		.align	1
 1211              		.global	timer_break_struct_para_init
 1212              		.syntax unified
 1213              		.thumb
 1214              		.thumb_func
 1215              		.fpu fpv4-sp-d16
 1217              	timer_break_struct_para_init:
ARM GAS  C:\Users\49542\AppData\Local\Temp\ccEBNRSE.s 			page 34


 1218              	.LFB147:
 680:C:/Users/49542/Desktop/GD32F30x_Demo_Suites_V2.0.0/GD32F30x_Demo_Suites_V2.0.0/GD32F30x_Firmware_Library/GD32F30x_standard_peripheral/Source\gd32f30x_timer.c **** 
 681:C:/Users/49542/Desktop/GD32F30x_Demo_Suites_V2.0.0/GD32F30x_Demo_Suites_V2.0.0/GD32F30x_Firmware_Library/GD32F30x_standard_peripheral/Source\gd32f30x_timer.c **** /*!
 682:C:/Users/49542/Desktop/GD32F30x_Demo_Suites_V2.0.0/GD32F30x_Demo_Suites_V2.0.0/GD32F30x_Firmware_Library/GD32F30x_standard_peripheral/Source\gd32f30x_timer.c ****     \brief      initialize TIMER break parameter struct with a default value
 683:C:/Users/49542/Desktop/GD32F30x_Demo_Suites_V2.0.0/GD32F30x_Demo_Suites_V2.0.0/GD32F30x_Firmware_Library/GD32F30x_standard_peripheral/Source\gd32f30x_timer.c ****     \param[in]  breakpara: TIMER break parameter struct
 684:C:/Users/49542/Desktop/GD32F30x_Demo_Suites_V2.0.0/GD32F30x_Demo_Suites_V2.0.0/GD32F30x_Firmware_Library/GD32F30x_standard_peripheral/Source\gd32f30x_timer.c ****     \param[out] none
 685:C:/Users/49542/Desktop/GD32F30x_Demo_Suites_V2.0.0/GD32F30x_Demo_Suites_V2.0.0/GD32F30x_Firmware_Library/GD32F30x_standard_peripheral/Source\gd32f30x_timer.c ****     \retval     none
 686:C:/Users/49542/Desktop/GD32F30x_Demo_Suites_V2.0.0/GD32F30x_Demo_Suites_V2.0.0/GD32F30x_Firmware_Library/GD32F30x_standard_peripheral/Source\gd32f30x_timer.c **** */
 687:C:/Users/49542/Desktop/GD32F30x_Demo_Suites_V2.0.0/GD32F30x_Demo_Suites_V2.0.0/GD32F30x_Firmware_Library/GD32F30x_standard_peripheral/Source\gd32f30x_timer.c **** void timer_break_struct_para_init(timer_break_parameter_struct* breakpara)
 688:C:/Users/49542/Desktop/GD32F30x_Demo_Suites_V2.0.0/GD32F30x_Demo_Suites_V2.0.0/GD32F30x_Firmware_Library/GD32F30x_standard_peripheral/Source\gd32f30x_timer.c **** {
 1219              		.loc 1 688 0
 1220              		.cfi_startproc
 1221              		@ args = 0, pretend = 0, frame = 0
 1222              		@ frame_needed = 0, uses_anonymous_args = 0
 1223              		@ link register save eliminated.
 1224              	.LVL106:
 689:C:/Users/49542/Desktop/GD32F30x_Demo_Suites_V2.0.0/GD32F30x_Demo_Suites_V2.0.0/GD32F30x_Firmware_Library/GD32F30x_standard_peripheral/Source\gd32f30x_timer.c ****     /* initialize the break parameter struct member with the default value */
 690:C:/Users/49542/Desktop/GD32F30x_Demo_Suites_V2.0.0/GD32F30x_Demo_Suites_V2.0.0/GD32F30x_Firmware_Library/GD32F30x_standard_peripheral/Source\gd32f30x_timer.c ****     breakpara->runoffstate     = TIMER_ROS_STATE_DISABLE;
 1225              		.loc 1 690 0
 1226 0000 0023     		movs	r3, #0
 1227 0002 0380     		strh	r3, [r0]	@ movhi
 691:C:/Users/49542/Desktop/GD32F30x_Demo_Suites_V2.0.0/GD32F30x_Demo_Suites_V2.0.0/GD32F30x_Firmware_Library/GD32F30x_standard_peripheral/Source\gd32f30x_timer.c ****     breakpara->ideloffstate    = TIMER_IOS_STATE_DISABLE;
 1228              		.loc 1 691 0
 1229 0004 4380     		strh	r3, [r0, #2]	@ movhi
 692:C:/Users/49542/Desktop/GD32F30x_Demo_Suites_V2.0.0/GD32F30x_Demo_Suites_V2.0.0/GD32F30x_Firmware_Library/GD32F30x_standard_peripheral/Source\gd32f30x_timer.c ****     breakpara->deadtime        = 0U;
 1230              		.loc 1 692 0
 1231 0006 8380     		strh	r3, [r0, #4]	@ movhi
 693:C:/Users/49542/Desktop/GD32F30x_Demo_Suites_V2.0.0/GD32F30x_Demo_Suites_V2.0.0/GD32F30x_Firmware_Library/GD32F30x_standard_peripheral/Source\gd32f30x_timer.c ****     breakpara->breakpolarity   = TIMER_BREAK_POLARITY_LOW;
 1232              		.loc 1 693 0
 1233 0008 C380     		strh	r3, [r0, #6]	@ movhi
 694:C:/Users/49542/Desktop/GD32F30x_Demo_Suites_V2.0.0/GD32F30x_Demo_Suites_V2.0.0/GD32F30x_Firmware_Library/GD32F30x_standard_peripheral/Source\gd32f30x_timer.c ****     breakpara->outputautostate = TIMER_OUTAUTO_DISABLE;
 1234              		.loc 1 694 0
 1235 000a 0381     		strh	r3, [r0, #8]	@ movhi
 695:C:/Users/49542/Desktop/GD32F30x_Demo_Suites_V2.0.0/GD32F30x_Demo_Suites_V2.0.0/GD32F30x_Firmware_Library/GD32F30x_standard_peripheral/Source\gd32f30x_timer.c ****     breakpara->protectmode     = TIMER_CCHP_PROT_OFF;
 1236              		.loc 1 695 0
 1237 000c 4381     		strh	r3, [r0, #10]	@ movhi
 696:C:/Users/49542/Desktop/GD32F30x_Demo_Suites_V2.0.0/GD32F30x_Demo_Suites_V2.0.0/GD32F30x_Firmware_Library/GD32F30x_standard_peripheral/Source\gd32f30x_timer.c ****     breakpara->breakstate      = TIMER_BREAK_DISABLE;
 1238              		.loc 1 696 0
 1239 000e 8381     		strh	r3, [r0, #12]	@ movhi
 697:C:/Users/49542/Desktop/GD32F30x_Demo_Suites_V2.0.0/GD32F30x_Demo_Suites_V2.0.0/GD32F30x_Firmware_Library/GD32F30x_standard_peripheral/Source\gd32f30x_timer.c **** }
 1240              		.loc 1 697 0
 1241 0010 7047     		bx	lr
 1242              		.cfi_endproc
 1243              	.LFE147:
 1245              		.section	.text.timer_break_config,"ax",%progbits
 1246              		.align	1
 1247              		.global	timer_break_config
 1248              		.syntax unified
 1249              		.thumb
 1250              		.thumb_func
 1251              		.fpu fpv4-sp-d16
 1253              	timer_break_config:
 1254              	.LFB148:
 698:C:/Users/49542/Desktop/GD32F30x_Demo_Suites_V2.0.0/GD32F30x_Demo_Suites_V2.0.0/GD32F30x_Firmware_Library/GD32F30x_standard_peripheral/Source\gd32f30x_timer.c **** 
 699:C:/Users/49542/Desktop/GD32F30x_Demo_Suites_V2.0.0/GD32F30x_Demo_Suites_V2.0.0/GD32F30x_Firmware_Library/GD32F30x_standard_peripheral/Source\gd32f30x_timer.c **** /*!
 700:C:/Users/49542/Desktop/GD32F30x_Demo_Suites_V2.0.0/GD32F30x_Demo_Suites_V2.0.0/GD32F30x_Firmware_Library/GD32F30x_standard_peripheral/Source\gd32f30x_timer.c ****     \brief      configure TIMER break function 
 701:C:/Users/49542/Desktop/GD32F30x_Demo_Suites_V2.0.0/GD32F30x_Demo_Suites_V2.0.0/GD32F30x_Firmware_Library/GD32F30x_standard_peripheral/Source\gd32f30x_timer.c ****     \param[in]  timer_periph: TIMERx(x=0,7)
ARM GAS  C:\Users\49542\AppData\Local\Temp\ccEBNRSE.s 			page 35


 702:C:/Users/49542/Desktop/GD32F30x_Demo_Suites_V2.0.0/GD32F30x_Demo_Suites_V2.0.0/GD32F30x_Firmware_Library/GD32F30x_standard_peripheral/Source\gd32f30x_timer.c ****     \param[in]  breakpara: TIMER break parameter struct
 703:C:/Users/49542/Desktop/GD32F30x_Demo_Suites_V2.0.0/GD32F30x_Demo_Suites_V2.0.0/GD32F30x_Firmware_Library/GD32F30x_standard_peripheral/Source\gd32f30x_timer.c ****                 runoffstate: TIMER_ROS_STATE_ENABLE,TIMER_ROS_STATE_DISABLE
 704:C:/Users/49542/Desktop/GD32F30x_Demo_Suites_V2.0.0/GD32F30x_Demo_Suites_V2.0.0/GD32F30x_Firmware_Library/GD32F30x_standard_peripheral/Source\gd32f30x_timer.c ****                 ideloffstate: TIMER_IOS_STATE_ENABLE,TIMER_IOS_STATE_DISABLE
 705:C:/Users/49542/Desktop/GD32F30x_Demo_Suites_V2.0.0/GD32F30x_Demo_Suites_V2.0.0/GD32F30x_Firmware_Library/GD32F30x_standard_peripheral/Source\gd32f30x_timer.c ****                 deadtime: 0~255
 706:C:/Users/49542/Desktop/GD32F30x_Demo_Suites_V2.0.0/GD32F30x_Demo_Suites_V2.0.0/GD32F30x_Firmware_Library/GD32F30x_standard_peripheral/Source\gd32f30x_timer.c ****                 breakpolarity: TIMER_BREAK_POLARITY_LOW,TIMER_BREAK_POLARITY_HIGH
 707:C:/Users/49542/Desktop/GD32F30x_Demo_Suites_V2.0.0/GD32F30x_Demo_Suites_V2.0.0/GD32F30x_Firmware_Library/GD32F30x_standard_peripheral/Source\gd32f30x_timer.c ****                 outputautostate: TIMER_OUTAUTO_ENABLE,TIMER_OUTAUTO_DISABLE
 708:C:/Users/49542/Desktop/GD32F30x_Demo_Suites_V2.0.0/GD32F30x_Demo_Suites_V2.0.0/GD32F30x_Firmware_Library/GD32F30x_standard_peripheral/Source\gd32f30x_timer.c ****                 protectmode: TIMER_CCHP_PROT_OFF,TIMER_CCHP_PROT_0,TIMER_CCHP_PROT_1,TIMER_CCHP_PRO
 709:C:/Users/49542/Desktop/GD32F30x_Demo_Suites_V2.0.0/GD32F30x_Demo_Suites_V2.0.0/GD32F30x_Firmware_Library/GD32F30x_standard_peripheral/Source\gd32f30x_timer.c ****                 breakstate: TIMER_BREAK_ENABLE,TIMER_BREAK_DISABLE
 710:C:/Users/49542/Desktop/GD32F30x_Demo_Suites_V2.0.0/GD32F30x_Demo_Suites_V2.0.0/GD32F30x_Firmware_Library/GD32F30x_standard_peripheral/Source\gd32f30x_timer.c ****     \param[out] none
 711:C:/Users/49542/Desktop/GD32F30x_Demo_Suites_V2.0.0/GD32F30x_Demo_Suites_V2.0.0/GD32F30x_Firmware_Library/GD32F30x_standard_peripheral/Source\gd32f30x_timer.c ****     \retval     none
 712:C:/Users/49542/Desktop/GD32F30x_Demo_Suites_V2.0.0/GD32F30x_Demo_Suites_V2.0.0/GD32F30x_Firmware_Library/GD32F30x_standard_peripheral/Source\gd32f30x_timer.c **** */
 713:C:/Users/49542/Desktop/GD32F30x_Demo_Suites_V2.0.0/GD32F30x_Demo_Suites_V2.0.0/GD32F30x_Firmware_Library/GD32F30x_standard_peripheral/Source\gd32f30x_timer.c **** void timer_break_config(uint32_t timer_periph, timer_break_parameter_struct* breakpara)
 714:C:/Users/49542/Desktop/GD32F30x_Demo_Suites_V2.0.0/GD32F30x_Demo_Suites_V2.0.0/GD32F30x_Firmware_Library/GD32F30x_standard_peripheral/Source\gd32f30x_timer.c **** {
 1255              		.loc 1 714 0
 1256              		.cfi_startproc
 1257              		@ args = 0, pretend = 0, frame = 0
 1258              		@ frame_needed = 0, uses_anonymous_args = 0
 1259              		@ link register save eliminated.
 1260              	.LVL107:
 1261 0000 F0B4     		push	{r4, r5, r6, r7}
 1262              	.LCFI1:
 1263              		.cfi_def_cfa_offset 16
 1264              		.cfi_offset 4, -16
 1265              		.cfi_offset 5, -12
 1266              		.cfi_offset 6, -8
 1267              		.cfi_offset 7, -4
 715:C:/Users/49542/Desktop/GD32F30x_Demo_Suites_V2.0.0/GD32F30x_Demo_Suites_V2.0.0/GD32F30x_Firmware_Library/GD32F30x_standard_peripheral/Source\gd32f30x_timer.c ****     TIMER_CCHP(timer_periph) = (uint32_t)(((uint32_t)(breakpara->runoffstate))|
 1268              		.loc 1 715 0
 1269 0002 0F88     		ldrh	r7, [r1]
 716:C:/Users/49542/Desktop/GD32F30x_Demo_Suites_V2.0.0/GD32F30x_Demo_Suites_V2.0.0/GD32F30x_Firmware_Library/GD32F30x_standard_peripheral/Source\gd32f30x_timer.c ****                                           ((uint32_t)(breakpara->ideloffstate))|
 1270              		.loc 1 716 0
 1271 0004 B1F802C0 		ldrh	ip, [r1, #2]
 717:C:/Users/49542/Desktop/GD32F30x_Demo_Suites_V2.0.0/GD32F30x_Demo_Suites_V2.0.0/GD32F30x_Firmware_Library/GD32F30x_standard_peripheral/Source\gd32f30x_timer.c ****                                           ((uint32_t)(breakpara->deadtime))|
 1272              		.loc 1 717 0
 1273 0008 8E88     		ldrh	r6, [r1, #4]
 718:C:/Users/49542/Desktop/GD32F30x_Demo_Suites_V2.0.0/GD32F30x_Demo_Suites_V2.0.0/GD32F30x_Firmware_Library/GD32F30x_standard_peripheral/Source\gd32f30x_timer.c ****                                           ((uint32_t)(breakpara->breakpolarity))|
 1274              		.loc 1 718 0
 1275 000a CD88     		ldrh	r5, [r1, #6]
 719:C:/Users/49542/Desktop/GD32F30x_Demo_Suites_V2.0.0/GD32F30x_Demo_Suites_V2.0.0/GD32F30x_Firmware_Library/GD32F30x_standard_peripheral/Source\gd32f30x_timer.c ****                                           ((uint32_t)(breakpara->outputautostate)) |
 1276              		.loc 1 719 0
 1277 000c 0C89     		ldrh	r4, [r1, #8]
 720:C:/Users/49542/Desktop/GD32F30x_Demo_Suites_V2.0.0/GD32F30x_Demo_Suites_V2.0.0/GD32F30x_Firmware_Library/GD32F30x_standard_peripheral/Source\gd32f30x_timer.c ****                                           ((uint32_t)(breakpara->protectmode))|
 1278              		.loc 1 720 0
 1279 000e 4A89     		ldrh	r2, [r1, #10]
 721:C:/Users/49542/Desktop/GD32F30x_Demo_Suites_V2.0.0/GD32F30x_Demo_Suites_V2.0.0/GD32F30x_Firmware_Library/GD32F30x_standard_peripheral/Source\gd32f30x_timer.c ****                                           ((uint32_t)(breakpara->breakstate))) ;
 1280              		.loc 1 721 0
 1281 0010 8B89     		ldrh	r3, [r1, #12]
 715:C:/Users/49542/Desktop/GD32F30x_Demo_Suites_V2.0.0/GD32F30x_Demo_Suites_V2.0.0/GD32F30x_Firmware_Library/GD32F30x_standard_peripheral/Source\gd32f30x_timer.c ****                                           ((uint32_t)(breakpara->ideloffstate))|
 1282              		.loc 1 715 0
 1283 0012 47EA0C01 		orr	r1, r7, ip
 1284              	.LVL108:
 1285 0016 3143     		orrs	r1, r1, r6
 1286 0018 2943     		orrs	r1, r1, r5
 1287 001a 2143     		orrs	r1, r1, r4
 1288 001c 0A43     		orrs	r2, r2, r1
 1289 001e 1343     		orrs	r3, r3, r2
 1290 0020 4364     		str	r3, [r0, #68]
ARM GAS  C:\Users\49542\AppData\Local\Temp\ccEBNRSE.s 			page 36


 722:C:/Users/49542/Desktop/GD32F30x_Demo_Suites_V2.0.0/GD32F30x_Demo_Suites_V2.0.0/GD32F30x_Firmware_Library/GD32F30x_standard_peripheral/Source\gd32f30x_timer.c **** }
 1291              		.loc 1 722 0
 1292 0022 F0BC     		pop	{r4, r5, r6, r7}
 1293              	.LCFI2:
 1294              		.cfi_restore 7
 1295              		.cfi_restore 6
 1296              		.cfi_restore 5
 1297              		.cfi_restore 4
 1298              		.cfi_def_cfa_offset 0
 1299 0024 7047     		bx	lr
 1300              		.cfi_endproc
 1301              	.LFE148:
 1303              		.section	.text.timer_break_enable,"ax",%progbits
 1304              		.align	1
 1305              		.global	timer_break_enable
 1306              		.syntax unified
 1307              		.thumb
 1308              		.thumb_func
 1309              		.fpu fpv4-sp-d16
 1311              	timer_break_enable:
 1312              	.LFB149:
 723:C:/Users/49542/Desktop/GD32F30x_Demo_Suites_V2.0.0/GD32F30x_Demo_Suites_V2.0.0/GD32F30x_Firmware_Library/GD32F30x_standard_peripheral/Source\gd32f30x_timer.c **** 
 724:C:/Users/49542/Desktop/GD32F30x_Demo_Suites_V2.0.0/GD32F30x_Demo_Suites_V2.0.0/GD32F30x_Firmware_Library/GD32F30x_standard_peripheral/Source\gd32f30x_timer.c **** /*!
 725:C:/Users/49542/Desktop/GD32F30x_Demo_Suites_V2.0.0/GD32F30x_Demo_Suites_V2.0.0/GD32F30x_Firmware_Library/GD32F30x_standard_peripheral/Source\gd32f30x_timer.c ****     \brief      enable TIMER break function
 726:C:/Users/49542/Desktop/GD32F30x_Demo_Suites_V2.0.0/GD32F30x_Demo_Suites_V2.0.0/GD32F30x_Firmware_Library/GD32F30x_standard_peripheral/Source\gd32f30x_timer.c ****     \param[in]  timer_periph: TIMERx(x=0,7)
 727:C:/Users/49542/Desktop/GD32F30x_Demo_Suites_V2.0.0/GD32F30x_Demo_Suites_V2.0.0/GD32F30x_Firmware_Library/GD32F30x_standard_peripheral/Source\gd32f30x_timer.c ****     \param[out] none
 728:C:/Users/49542/Desktop/GD32F30x_Demo_Suites_V2.0.0/GD32F30x_Demo_Suites_V2.0.0/GD32F30x_Firmware_Library/GD32F30x_standard_peripheral/Source\gd32f30x_timer.c ****     \retval     none
 729:C:/Users/49542/Desktop/GD32F30x_Demo_Suites_V2.0.0/GD32F30x_Demo_Suites_V2.0.0/GD32F30x_Firmware_Library/GD32F30x_standard_peripheral/Source\gd32f30x_timer.c **** */
 730:C:/Users/49542/Desktop/GD32F30x_Demo_Suites_V2.0.0/GD32F30x_Demo_Suites_V2.0.0/GD32F30x_Firmware_Library/GD32F30x_standard_peripheral/Source\gd32f30x_timer.c **** void timer_break_enable(uint32_t timer_periph)
 731:C:/Users/49542/Desktop/GD32F30x_Demo_Suites_V2.0.0/GD32F30x_Demo_Suites_V2.0.0/GD32F30x_Firmware_Library/GD32F30x_standard_peripheral/Source\gd32f30x_timer.c **** {
 1313              		.loc 1 731 0
 1314              		.cfi_startproc
 1315              		@ args = 0, pretend = 0, frame = 0
 1316              		@ frame_needed = 0, uses_anonymous_args = 0
 1317              		@ link register save eliminated.
 1318              	.LVL109:
 732:C:/Users/49542/Desktop/GD32F30x_Demo_Suites_V2.0.0/GD32F30x_Demo_Suites_V2.0.0/GD32F30x_Firmware_Library/GD32F30x_standard_peripheral/Source\gd32f30x_timer.c ****     TIMER_CCHP(timer_periph) |= (uint32_t)TIMER_CCHP_BRKEN;
 1319              		.loc 1 732 0
 1320 0000 436C     		ldr	r3, [r0, #68]
 1321 0002 43F48053 		orr	r3, r3, #4096
 1322 0006 4364     		str	r3, [r0, #68]
 733:C:/Users/49542/Desktop/GD32F30x_Demo_Suites_V2.0.0/GD32F30x_Demo_Suites_V2.0.0/GD32F30x_Firmware_Library/GD32F30x_standard_peripheral/Source\gd32f30x_timer.c **** }
 1323              		.loc 1 733 0
 1324 0008 7047     		bx	lr
 1325              		.cfi_endproc
 1326              	.LFE149:
 1328              		.section	.text.timer_break_disable,"ax",%progbits
 1329              		.align	1
 1330              		.global	timer_break_disable
 1331              		.syntax unified
 1332              		.thumb
 1333              		.thumb_func
 1334              		.fpu fpv4-sp-d16
 1336              	timer_break_disable:
 1337              	.LFB150:
 734:C:/Users/49542/Desktop/GD32F30x_Demo_Suites_V2.0.0/GD32F30x_Demo_Suites_V2.0.0/GD32F30x_Firmware_Library/GD32F30x_standard_peripheral/Source\gd32f30x_timer.c **** 
 735:C:/Users/49542/Desktop/GD32F30x_Demo_Suites_V2.0.0/GD32F30x_Demo_Suites_V2.0.0/GD32F30x_Firmware_Library/GD32F30x_standard_peripheral/Source\gd32f30x_timer.c **** /*!
ARM GAS  C:\Users\49542\AppData\Local\Temp\ccEBNRSE.s 			page 37


 736:C:/Users/49542/Desktop/GD32F30x_Demo_Suites_V2.0.0/GD32F30x_Demo_Suites_V2.0.0/GD32F30x_Firmware_Library/GD32F30x_standard_peripheral/Source\gd32f30x_timer.c ****     \brief      disable TIMER break function
 737:C:/Users/49542/Desktop/GD32F30x_Demo_Suites_V2.0.0/GD32F30x_Demo_Suites_V2.0.0/GD32F30x_Firmware_Library/GD32F30x_standard_peripheral/Source\gd32f30x_timer.c ****     \param[in]  timer_periph: TIMERx(x=0,7)
 738:C:/Users/49542/Desktop/GD32F30x_Demo_Suites_V2.0.0/GD32F30x_Demo_Suites_V2.0.0/GD32F30x_Firmware_Library/GD32F30x_standard_peripheral/Source\gd32f30x_timer.c ****     \param[out] none
 739:C:/Users/49542/Desktop/GD32F30x_Demo_Suites_V2.0.0/GD32F30x_Demo_Suites_V2.0.0/GD32F30x_Firmware_Library/GD32F30x_standard_peripheral/Source\gd32f30x_timer.c ****     \retval     none
 740:C:/Users/49542/Desktop/GD32F30x_Demo_Suites_V2.0.0/GD32F30x_Demo_Suites_V2.0.0/GD32F30x_Firmware_Library/GD32F30x_standard_peripheral/Source\gd32f30x_timer.c **** */
 741:C:/Users/49542/Desktop/GD32F30x_Demo_Suites_V2.0.0/GD32F30x_Demo_Suites_V2.0.0/GD32F30x_Firmware_Library/GD32F30x_standard_peripheral/Source\gd32f30x_timer.c **** void timer_break_disable(uint32_t timer_periph)
 742:C:/Users/49542/Desktop/GD32F30x_Demo_Suites_V2.0.0/GD32F30x_Demo_Suites_V2.0.0/GD32F30x_Firmware_Library/GD32F30x_standard_peripheral/Source\gd32f30x_timer.c **** {
 1338              		.loc 1 742 0
 1339              		.cfi_startproc
 1340              		@ args = 0, pretend = 0, frame = 0
 1341              		@ frame_needed = 0, uses_anonymous_args = 0
 1342              		@ link register save eliminated.
 1343              	.LVL110:
 743:C:/Users/49542/Desktop/GD32F30x_Demo_Suites_V2.0.0/GD32F30x_Demo_Suites_V2.0.0/GD32F30x_Firmware_Library/GD32F30x_standard_peripheral/Source\gd32f30x_timer.c ****     TIMER_CCHP(timer_periph) &= ~(uint32_t)TIMER_CCHP_BRKEN;
 1344              		.loc 1 743 0
 1345 0000 436C     		ldr	r3, [r0, #68]
 1346 0002 23F48053 		bic	r3, r3, #4096
 1347 0006 4364     		str	r3, [r0, #68]
 744:C:/Users/49542/Desktop/GD32F30x_Demo_Suites_V2.0.0/GD32F30x_Demo_Suites_V2.0.0/GD32F30x_Firmware_Library/GD32F30x_standard_peripheral/Source\gd32f30x_timer.c **** }
 1348              		.loc 1 744 0
 1349 0008 7047     		bx	lr
 1350              		.cfi_endproc
 1351              	.LFE150:
 1353              		.section	.text.timer_automatic_output_enable,"ax",%progbits
 1354              		.align	1
 1355              		.global	timer_automatic_output_enable
 1356              		.syntax unified
 1357              		.thumb
 1358              		.thumb_func
 1359              		.fpu fpv4-sp-d16
 1361              	timer_automatic_output_enable:
 1362              	.LFB151:
 745:C:/Users/49542/Desktop/GD32F30x_Demo_Suites_V2.0.0/GD32F30x_Demo_Suites_V2.0.0/GD32F30x_Firmware_Library/GD32F30x_standard_peripheral/Source\gd32f30x_timer.c **** 
 746:C:/Users/49542/Desktop/GD32F30x_Demo_Suites_V2.0.0/GD32F30x_Demo_Suites_V2.0.0/GD32F30x_Firmware_Library/GD32F30x_standard_peripheral/Source\gd32f30x_timer.c **** /*!
 747:C:/Users/49542/Desktop/GD32F30x_Demo_Suites_V2.0.0/GD32F30x_Demo_Suites_V2.0.0/GD32F30x_Firmware_Library/GD32F30x_standard_peripheral/Source\gd32f30x_timer.c ****     \brief      enable TIMER output automatic function
 748:C:/Users/49542/Desktop/GD32F30x_Demo_Suites_V2.0.0/GD32F30x_Demo_Suites_V2.0.0/GD32F30x_Firmware_Library/GD32F30x_standard_peripheral/Source\gd32f30x_timer.c ****     \param[in]  timer_periph: TIMERx(x=0,7)
 749:C:/Users/49542/Desktop/GD32F30x_Demo_Suites_V2.0.0/GD32F30x_Demo_Suites_V2.0.0/GD32F30x_Firmware_Library/GD32F30x_standard_peripheral/Source\gd32f30x_timer.c ****     \param[out] none
 750:C:/Users/49542/Desktop/GD32F30x_Demo_Suites_V2.0.0/GD32F30x_Demo_Suites_V2.0.0/GD32F30x_Firmware_Library/GD32F30x_standard_peripheral/Source\gd32f30x_timer.c ****     \retval     none
 751:C:/Users/49542/Desktop/GD32F30x_Demo_Suites_V2.0.0/GD32F30x_Demo_Suites_V2.0.0/GD32F30x_Firmware_Library/GD32F30x_standard_peripheral/Source\gd32f30x_timer.c **** */
 752:C:/Users/49542/Desktop/GD32F30x_Demo_Suites_V2.0.0/GD32F30x_Demo_Suites_V2.0.0/GD32F30x_Firmware_Library/GD32F30x_standard_peripheral/Source\gd32f30x_timer.c **** void timer_automatic_output_enable(uint32_t timer_periph)
 753:C:/Users/49542/Desktop/GD32F30x_Demo_Suites_V2.0.0/GD32F30x_Demo_Suites_V2.0.0/GD32F30x_Firmware_Library/GD32F30x_standard_peripheral/Source\gd32f30x_timer.c **** {
 1363              		.loc 1 753 0
 1364              		.cfi_startproc
 1365              		@ args = 0, pretend = 0, frame = 0
 1366              		@ frame_needed = 0, uses_anonymous_args = 0
 1367              		@ link register save eliminated.
 1368              	.LVL111:
 754:C:/Users/49542/Desktop/GD32F30x_Demo_Suites_V2.0.0/GD32F30x_Demo_Suites_V2.0.0/GD32F30x_Firmware_Library/GD32F30x_standard_peripheral/Source\gd32f30x_timer.c ****     TIMER_CCHP(timer_periph) |= (uint32_t)TIMER_CCHP_OAEN;
 1369              		.loc 1 754 0
 1370 0000 436C     		ldr	r3, [r0, #68]
 1371 0002 43F48043 		orr	r3, r3, #16384
 1372 0006 4364     		str	r3, [r0, #68]
 755:C:/Users/49542/Desktop/GD32F30x_Demo_Suites_V2.0.0/GD32F30x_Demo_Suites_V2.0.0/GD32F30x_Firmware_Library/GD32F30x_standard_peripheral/Source\gd32f30x_timer.c **** }
 1373              		.loc 1 755 0
 1374 0008 7047     		bx	lr
 1375              		.cfi_endproc
 1376              	.LFE151:
ARM GAS  C:\Users\49542\AppData\Local\Temp\ccEBNRSE.s 			page 38


 1378              		.section	.text.timer_automatic_output_disable,"ax",%progbits
 1379              		.align	1
 1380              		.global	timer_automatic_output_disable
 1381              		.syntax unified
 1382              		.thumb
 1383              		.thumb_func
 1384              		.fpu fpv4-sp-d16
 1386              	timer_automatic_output_disable:
 1387              	.LFB152:
 756:C:/Users/49542/Desktop/GD32F30x_Demo_Suites_V2.0.0/GD32F30x_Demo_Suites_V2.0.0/GD32F30x_Firmware_Library/GD32F30x_standard_peripheral/Source\gd32f30x_timer.c **** 
 757:C:/Users/49542/Desktop/GD32F30x_Demo_Suites_V2.0.0/GD32F30x_Demo_Suites_V2.0.0/GD32F30x_Firmware_Library/GD32F30x_standard_peripheral/Source\gd32f30x_timer.c **** /*!
 758:C:/Users/49542/Desktop/GD32F30x_Demo_Suites_V2.0.0/GD32F30x_Demo_Suites_V2.0.0/GD32F30x_Firmware_Library/GD32F30x_standard_peripheral/Source\gd32f30x_timer.c ****     \brief      disable TIMER output automatic function
 759:C:/Users/49542/Desktop/GD32F30x_Demo_Suites_V2.0.0/GD32F30x_Demo_Suites_V2.0.0/GD32F30x_Firmware_Library/GD32F30x_standard_peripheral/Source\gd32f30x_timer.c ****     \param[in]  timer_periph: TIMERx(x=0,7)
 760:C:/Users/49542/Desktop/GD32F30x_Demo_Suites_V2.0.0/GD32F30x_Demo_Suites_V2.0.0/GD32F30x_Firmware_Library/GD32F30x_standard_peripheral/Source\gd32f30x_timer.c ****     \param[out] none
 761:C:/Users/49542/Desktop/GD32F30x_Demo_Suites_V2.0.0/GD32F30x_Demo_Suites_V2.0.0/GD32F30x_Firmware_Library/GD32F30x_standard_peripheral/Source\gd32f30x_timer.c ****     \retval     none
 762:C:/Users/49542/Desktop/GD32F30x_Demo_Suites_V2.0.0/GD32F30x_Demo_Suites_V2.0.0/GD32F30x_Firmware_Library/GD32F30x_standard_peripheral/Source\gd32f30x_timer.c **** */
 763:C:/Users/49542/Desktop/GD32F30x_Demo_Suites_V2.0.0/GD32F30x_Demo_Suites_V2.0.0/GD32F30x_Firmware_Library/GD32F30x_standard_peripheral/Source\gd32f30x_timer.c **** void timer_automatic_output_disable(uint32_t timer_periph)
 764:C:/Users/49542/Desktop/GD32F30x_Demo_Suites_V2.0.0/GD32F30x_Demo_Suites_V2.0.0/GD32F30x_Firmware_Library/GD32F30x_standard_peripheral/Source\gd32f30x_timer.c **** {
 1388              		.loc 1 764 0
 1389              		.cfi_startproc
 1390              		@ args = 0, pretend = 0, frame = 0
 1391              		@ frame_needed = 0, uses_anonymous_args = 0
 1392              		@ link register save eliminated.
 1393              	.LVL112:
 765:C:/Users/49542/Desktop/GD32F30x_Demo_Suites_V2.0.0/GD32F30x_Demo_Suites_V2.0.0/GD32F30x_Firmware_Library/GD32F30x_standard_peripheral/Source\gd32f30x_timer.c ****     TIMER_CCHP(timer_periph) &= ~(uint32_t)TIMER_CCHP_OAEN;
 1394              		.loc 1 765 0
 1395 0000 436C     		ldr	r3, [r0, #68]
 1396 0002 23F48043 		bic	r3, r3, #16384
 1397 0006 4364     		str	r3, [r0, #68]
 766:C:/Users/49542/Desktop/GD32F30x_Demo_Suites_V2.0.0/GD32F30x_Demo_Suites_V2.0.0/GD32F30x_Firmware_Library/GD32F30x_standard_peripheral/Source\gd32f30x_timer.c **** }
 1398              		.loc 1 766 0
 1399 0008 7047     		bx	lr
 1400              		.cfi_endproc
 1401              	.LFE152:
 1403              		.section	.text.timer_primary_output_config,"ax",%progbits
 1404              		.align	1
 1405              		.global	timer_primary_output_config
 1406              		.syntax unified
 1407              		.thumb
 1408              		.thumb_func
 1409              		.fpu fpv4-sp-d16
 1411              	timer_primary_output_config:
 1412              	.LFB153:
 767:C:/Users/49542/Desktop/GD32F30x_Demo_Suites_V2.0.0/GD32F30x_Demo_Suites_V2.0.0/GD32F30x_Firmware_Library/GD32F30x_standard_peripheral/Source\gd32f30x_timer.c **** 
 768:C:/Users/49542/Desktop/GD32F30x_Demo_Suites_V2.0.0/GD32F30x_Demo_Suites_V2.0.0/GD32F30x_Firmware_Library/GD32F30x_standard_peripheral/Source\gd32f30x_timer.c **** /*!
 769:C:/Users/49542/Desktop/GD32F30x_Demo_Suites_V2.0.0/GD32F30x_Demo_Suites_V2.0.0/GD32F30x_Firmware_Library/GD32F30x_standard_peripheral/Source\gd32f30x_timer.c ****     \brief      configure TIMER primary output function
 770:C:/Users/49542/Desktop/GD32F30x_Demo_Suites_V2.0.0/GD32F30x_Demo_Suites_V2.0.0/GD32F30x_Firmware_Library/GD32F30x_standard_peripheral/Source\gd32f30x_timer.c ****     \param[in]  timer_periph: TIMERx(x=0,7)
 771:C:/Users/49542/Desktop/GD32F30x_Demo_Suites_V2.0.0/GD32F30x_Demo_Suites_V2.0.0/GD32F30x_Firmware_Library/GD32F30x_standard_peripheral/Source\gd32f30x_timer.c ****     \param[in]  newvalue: ENABLE or DISABLE
 772:C:/Users/49542/Desktop/GD32F30x_Demo_Suites_V2.0.0/GD32F30x_Demo_Suites_V2.0.0/GD32F30x_Firmware_Library/GD32F30x_standard_peripheral/Source\gd32f30x_timer.c ****     \param[out] none
 773:C:/Users/49542/Desktop/GD32F30x_Demo_Suites_V2.0.0/GD32F30x_Demo_Suites_V2.0.0/GD32F30x_Firmware_Library/GD32F30x_standard_peripheral/Source\gd32f30x_timer.c ****     \retval     none
 774:C:/Users/49542/Desktop/GD32F30x_Demo_Suites_V2.0.0/GD32F30x_Demo_Suites_V2.0.0/GD32F30x_Firmware_Library/GD32F30x_standard_peripheral/Source\gd32f30x_timer.c **** */
 775:C:/Users/49542/Desktop/GD32F30x_Demo_Suites_V2.0.0/GD32F30x_Demo_Suites_V2.0.0/GD32F30x_Firmware_Library/GD32F30x_standard_peripheral/Source\gd32f30x_timer.c **** void timer_primary_output_config(uint32_t timer_periph, ControlStatus newvalue)
 776:C:/Users/49542/Desktop/GD32F30x_Demo_Suites_V2.0.0/GD32F30x_Demo_Suites_V2.0.0/GD32F30x_Firmware_Library/GD32F30x_standard_peripheral/Source\gd32f30x_timer.c **** {
 1413              		.loc 1 776 0
 1414              		.cfi_startproc
 1415              		@ args = 0, pretend = 0, frame = 0
 1416              		@ frame_needed = 0, uses_anonymous_args = 0
ARM GAS  C:\Users\49542\AppData\Local\Temp\ccEBNRSE.s 			page 39


 1417              		@ link register save eliminated.
 1418              	.LVL113:
 777:C:/Users/49542/Desktop/GD32F30x_Demo_Suites_V2.0.0/GD32F30x_Demo_Suites_V2.0.0/GD32F30x_Firmware_Library/GD32F30x_standard_peripheral/Source\gd32f30x_timer.c ****     if(ENABLE == newvalue){
 1419              		.loc 1 777 0
 1420 0000 0129     		cmp	r1, #1
 1421 0002 04D0     		beq	.L91
 778:C:/Users/49542/Desktop/GD32F30x_Demo_Suites_V2.0.0/GD32F30x_Demo_Suites_V2.0.0/GD32F30x_Firmware_Library/GD32F30x_standard_peripheral/Source\gd32f30x_timer.c ****         TIMER_CCHP(timer_periph) |= (uint32_t)TIMER_CCHP_POEN;
 779:C:/Users/49542/Desktop/GD32F30x_Demo_Suites_V2.0.0/GD32F30x_Demo_Suites_V2.0.0/GD32F30x_Firmware_Library/GD32F30x_standard_peripheral/Source\gd32f30x_timer.c ****     }else{
 780:C:/Users/49542/Desktop/GD32F30x_Demo_Suites_V2.0.0/GD32F30x_Demo_Suites_V2.0.0/GD32F30x_Firmware_Library/GD32F30x_standard_peripheral/Source\gd32f30x_timer.c ****         TIMER_CCHP(timer_periph) &= (~(uint32_t)TIMER_CCHP_POEN);
 1422              		.loc 1 780 0
 1423 0004 436C     		ldr	r3, [r0, #68]
 1424 0006 23F40043 		bic	r3, r3, #32768
 1425 000a 4364     		str	r3, [r0, #68]
 781:C:/Users/49542/Desktop/GD32F30x_Demo_Suites_V2.0.0/GD32F30x_Demo_Suites_V2.0.0/GD32F30x_Firmware_Library/GD32F30x_standard_peripheral/Source\gd32f30x_timer.c ****     }
 782:C:/Users/49542/Desktop/GD32F30x_Demo_Suites_V2.0.0/GD32F30x_Demo_Suites_V2.0.0/GD32F30x_Firmware_Library/GD32F30x_standard_peripheral/Source\gd32f30x_timer.c **** }
 1426              		.loc 1 782 0
 1427 000c 7047     		bx	lr
 1428              	.L91:
 778:C:/Users/49542/Desktop/GD32F30x_Demo_Suites_V2.0.0/GD32F30x_Demo_Suites_V2.0.0/GD32F30x_Firmware_Library/GD32F30x_standard_peripheral/Source\gd32f30x_timer.c ****         TIMER_CCHP(timer_periph) |= (uint32_t)TIMER_CCHP_POEN;
 1429              		.loc 1 778 0
 1430 000e 436C     		ldr	r3, [r0, #68]
 1431 0010 43F40043 		orr	r3, r3, #32768
 1432 0014 4364     		str	r3, [r0, #68]
 1433 0016 7047     		bx	lr
 1434              		.cfi_endproc
 1435              	.LFE153:
 1437              		.section	.text.timer_channel_control_shadow_config,"ax",%progbits
 1438              		.align	1
 1439              		.global	timer_channel_control_shadow_config
 1440              		.syntax unified
 1441              		.thumb
 1442              		.thumb_func
 1443              		.fpu fpv4-sp-d16
 1445              	timer_channel_control_shadow_config:
 1446              	.LFB154:
 783:C:/Users/49542/Desktop/GD32F30x_Demo_Suites_V2.0.0/GD32F30x_Demo_Suites_V2.0.0/GD32F30x_Firmware_Library/GD32F30x_standard_peripheral/Source\gd32f30x_timer.c **** 
 784:C:/Users/49542/Desktop/GD32F30x_Demo_Suites_V2.0.0/GD32F30x_Demo_Suites_V2.0.0/GD32F30x_Firmware_Library/GD32F30x_standard_peripheral/Source\gd32f30x_timer.c **** /*!
 785:C:/Users/49542/Desktop/GD32F30x_Demo_Suites_V2.0.0/GD32F30x_Demo_Suites_V2.0.0/GD32F30x_Firmware_Library/GD32F30x_standard_peripheral/Source\gd32f30x_timer.c ****     \brief      enable or disable channel capture/compare control shadow register
 786:C:/Users/49542/Desktop/GD32F30x_Demo_Suites_V2.0.0/GD32F30x_Demo_Suites_V2.0.0/GD32F30x_Firmware_Library/GD32F30x_standard_peripheral/Source\gd32f30x_timer.c ****     \param[in]  timer_periph: TIMERx(x=0,7)
 787:C:/Users/49542/Desktop/GD32F30x_Demo_Suites_V2.0.0/GD32F30x_Demo_Suites_V2.0.0/GD32F30x_Firmware_Library/GD32F30x_standard_peripheral/Source\gd32f30x_timer.c ****     \param[in]  newvalue: ENABLE or DISABLE 
 788:C:/Users/49542/Desktop/GD32F30x_Demo_Suites_V2.0.0/GD32F30x_Demo_Suites_V2.0.0/GD32F30x_Firmware_Library/GD32F30x_standard_peripheral/Source\gd32f30x_timer.c ****     \param[out] none
 789:C:/Users/49542/Desktop/GD32F30x_Demo_Suites_V2.0.0/GD32F30x_Demo_Suites_V2.0.0/GD32F30x_Firmware_Library/GD32F30x_standard_peripheral/Source\gd32f30x_timer.c ****     \retval     none
 790:C:/Users/49542/Desktop/GD32F30x_Demo_Suites_V2.0.0/GD32F30x_Demo_Suites_V2.0.0/GD32F30x_Firmware_Library/GD32F30x_standard_peripheral/Source\gd32f30x_timer.c **** */
 791:C:/Users/49542/Desktop/GD32F30x_Demo_Suites_V2.0.0/GD32F30x_Demo_Suites_V2.0.0/GD32F30x_Firmware_Library/GD32F30x_standard_peripheral/Source\gd32f30x_timer.c **** void timer_channel_control_shadow_config(uint32_t timer_periph, ControlStatus newvalue)
 792:C:/Users/49542/Desktop/GD32F30x_Demo_Suites_V2.0.0/GD32F30x_Demo_Suites_V2.0.0/GD32F30x_Firmware_Library/GD32F30x_standard_peripheral/Source\gd32f30x_timer.c **** {
 1447              		.loc 1 792 0
 1448              		.cfi_startproc
 1449              		@ args = 0, pretend = 0, frame = 0
 1450              		@ frame_needed = 0, uses_anonymous_args = 0
 1451              		@ link register save eliminated.
 1452              	.LVL114:
 793:C:/Users/49542/Desktop/GD32F30x_Demo_Suites_V2.0.0/GD32F30x_Demo_Suites_V2.0.0/GD32F30x_Firmware_Library/GD32F30x_standard_peripheral/Source\gd32f30x_timer.c ****      if(ENABLE == newvalue){
 1453              		.loc 1 793 0
 1454 0000 0129     		cmp	r1, #1
 1455 0002 04D0     		beq	.L95
 794:C:/Users/49542/Desktop/GD32F30x_Demo_Suites_V2.0.0/GD32F30x_Demo_Suites_V2.0.0/GD32F30x_Firmware_Library/GD32F30x_standard_peripheral/Source\gd32f30x_timer.c ****         TIMER_CTL1(timer_periph) |= (uint32_t)TIMER_CTL1_CCSE;
 795:C:/Users/49542/Desktop/GD32F30x_Demo_Suites_V2.0.0/GD32F30x_Demo_Suites_V2.0.0/GD32F30x_Firmware_Library/GD32F30x_standard_peripheral/Source\gd32f30x_timer.c ****     }else{
ARM GAS  C:\Users\49542\AppData\Local\Temp\ccEBNRSE.s 			page 40


 796:C:/Users/49542/Desktop/GD32F30x_Demo_Suites_V2.0.0/GD32F30x_Demo_Suites_V2.0.0/GD32F30x_Firmware_Library/GD32F30x_standard_peripheral/Source\gd32f30x_timer.c ****         TIMER_CTL1(timer_periph) &= (~(uint32_t)TIMER_CTL1_CCSE);
 1456              		.loc 1 796 0
 1457 0004 4368     		ldr	r3, [r0, #4]
 1458 0006 23F00103 		bic	r3, r3, #1
 1459 000a 4360     		str	r3, [r0, #4]
 797:C:/Users/49542/Desktop/GD32F30x_Demo_Suites_V2.0.0/GD32F30x_Demo_Suites_V2.0.0/GD32F30x_Firmware_Library/GD32F30x_standard_peripheral/Source\gd32f30x_timer.c ****     }
 798:C:/Users/49542/Desktop/GD32F30x_Demo_Suites_V2.0.0/GD32F30x_Demo_Suites_V2.0.0/GD32F30x_Firmware_Library/GD32F30x_standard_peripheral/Source\gd32f30x_timer.c **** }
 1460              		.loc 1 798 0
 1461 000c 7047     		bx	lr
 1462              	.L95:
 794:C:/Users/49542/Desktop/GD32F30x_Demo_Suites_V2.0.0/GD32F30x_Demo_Suites_V2.0.0/GD32F30x_Firmware_Library/GD32F30x_standard_peripheral/Source\gd32f30x_timer.c ****         TIMER_CTL1(timer_periph) |= (uint32_t)TIMER_CTL1_CCSE;
 1463              		.loc 1 794 0
 1464 000e 4368     		ldr	r3, [r0, #4]
 1465 0010 43F00103 		orr	r3, r3, #1
 1466 0014 4360     		str	r3, [r0, #4]
 1467 0016 7047     		bx	lr
 1468              		.cfi_endproc
 1469              	.LFE154:
 1471              		.section	.text.timer_channel_control_shadow_update_config,"ax",%progbits
 1472              		.align	1
 1473              		.global	timer_channel_control_shadow_update_config
 1474              		.syntax unified
 1475              		.thumb
 1476              		.thumb_func
 1477              		.fpu fpv4-sp-d16
 1479              	timer_channel_control_shadow_update_config:
 1480              	.LFB155:
 799:C:/Users/49542/Desktop/GD32F30x_Demo_Suites_V2.0.0/GD32F30x_Demo_Suites_V2.0.0/GD32F30x_Firmware_Library/GD32F30x_standard_peripheral/Source\gd32f30x_timer.c **** 
 800:C:/Users/49542/Desktop/GD32F30x_Demo_Suites_V2.0.0/GD32F30x_Demo_Suites_V2.0.0/GD32F30x_Firmware_Library/GD32F30x_standard_peripheral/Source\gd32f30x_timer.c **** /*!
 801:C:/Users/49542/Desktop/GD32F30x_Demo_Suites_V2.0.0/GD32F30x_Demo_Suites_V2.0.0/GD32F30x_Firmware_Library/GD32F30x_standard_peripheral/Source\gd32f30x_timer.c ****     \brief      configure TIMER channel control shadow register update control
 802:C:/Users/49542/Desktop/GD32F30x_Demo_Suites_V2.0.0/GD32F30x_Demo_Suites_V2.0.0/GD32F30x_Firmware_Library/GD32F30x_standard_peripheral/Source\gd32f30x_timer.c ****     \param[in]  timer_periph: TIMERx(x=0,7)
 803:C:/Users/49542/Desktop/GD32F30x_Demo_Suites_V2.0.0/GD32F30x_Demo_Suites_V2.0.0/GD32F30x_Firmware_Library/GD32F30x_standard_peripheral/Source\gd32f30x_timer.c ****     \param[in]  ccuctl: channel control shadow register update control
 804:C:/Users/49542/Desktop/GD32F30x_Demo_Suites_V2.0.0/GD32F30x_Demo_Suites_V2.0.0/GD32F30x_Firmware_Library/GD32F30x_standard_peripheral/Source\gd32f30x_timer.c ****                 only one parameter can be selected which is shown as below:
 805:C:/Users/49542/Desktop/GD32F30x_Demo_Suites_V2.0.0/GD32F30x_Demo_Suites_V2.0.0/GD32F30x_Firmware_Library/GD32F30x_standard_peripheral/Source\gd32f30x_timer.c ****       \arg        TIMER_UPDATECTL_CCU: the shadow registers update by when CMTG bit is set
 806:C:/Users/49542/Desktop/GD32F30x_Demo_Suites_V2.0.0/GD32F30x_Demo_Suites_V2.0.0/GD32F30x_Firmware_Library/GD32F30x_standard_peripheral/Source\gd32f30x_timer.c ****       \arg        TIMER_UPDATECTL_CCUTRI: the shadow registers update by when CMTG bit is set or an
 807:C:/Users/49542/Desktop/GD32F30x_Demo_Suites_V2.0.0/GD32F30x_Demo_Suites_V2.0.0/GD32F30x_Firmware_Library/GD32F30x_standard_peripheral/Source\gd32f30x_timer.c ****     \param[out] none
 808:C:/Users/49542/Desktop/GD32F30x_Demo_Suites_V2.0.0/GD32F30x_Demo_Suites_V2.0.0/GD32F30x_Firmware_Library/GD32F30x_standard_peripheral/Source\gd32f30x_timer.c ****     \retval     none
 809:C:/Users/49542/Desktop/GD32F30x_Demo_Suites_V2.0.0/GD32F30x_Demo_Suites_V2.0.0/GD32F30x_Firmware_Library/GD32F30x_standard_peripheral/Source\gd32f30x_timer.c **** */              
 810:C:/Users/49542/Desktop/GD32F30x_Demo_Suites_V2.0.0/GD32F30x_Demo_Suites_V2.0.0/GD32F30x_Firmware_Library/GD32F30x_standard_peripheral/Source\gd32f30x_timer.c **** void timer_channel_control_shadow_update_config(uint32_t timer_periph, uint8_t ccuctl)
 811:C:/Users/49542/Desktop/GD32F30x_Demo_Suites_V2.0.0/GD32F30x_Demo_Suites_V2.0.0/GD32F30x_Firmware_Library/GD32F30x_standard_peripheral/Source\gd32f30x_timer.c **** {
 1481              		.loc 1 811 0
 1482              		.cfi_startproc
 1483              		@ args = 0, pretend = 0, frame = 0
 1484              		@ frame_needed = 0, uses_anonymous_args = 0
 1485              		@ link register save eliminated.
 1486              	.LVL115:
 812:C:/Users/49542/Desktop/GD32F30x_Demo_Suites_V2.0.0/GD32F30x_Demo_Suites_V2.0.0/GD32F30x_Firmware_Library/GD32F30x_standard_peripheral/Source\gd32f30x_timer.c ****     if(TIMER_UPDATECTL_CCU == ccuctl){
 1487              		.loc 1 812 0
 1488 0000 11B1     		cbz	r1, .L99
 813:C:/Users/49542/Desktop/GD32F30x_Demo_Suites_V2.0.0/GD32F30x_Demo_Suites_V2.0.0/GD32F30x_Firmware_Library/GD32F30x_standard_peripheral/Source\gd32f30x_timer.c ****         TIMER_CTL1(timer_periph) &= (~(uint32_t)TIMER_CTL1_CCUC);
 814:C:/Users/49542/Desktop/GD32F30x_Demo_Suites_V2.0.0/GD32F30x_Demo_Suites_V2.0.0/GD32F30x_Firmware_Library/GD32F30x_standard_peripheral/Source\gd32f30x_timer.c ****     }else if(TIMER_UPDATECTL_CCUTRI == ccuctl){
 1489              		.loc 1 814 0
 1490 0002 0129     		cmp	r1, #1
 1491 0004 05D0     		beq	.L100
 1492              	.L96:
 815:C:/Users/49542/Desktop/GD32F30x_Demo_Suites_V2.0.0/GD32F30x_Demo_Suites_V2.0.0/GD32F30x_Firmware_Library/GD32F30x_standard_peripheral/Source\gd32f30x_timer.c ****         TIMER_CTL1(timer_periph) |= (uint32_t)TIMER_CTL1_CCUC;
 816:C:/Users/49542/Desktop/GD32F30x_Demo_Suites_V2.0.0/GD32F30x_Demo_Suites_V2.0.0/GD32F30x_Firmware_Library/GD32F30x_standard_peripheral/Source\gd32f30x_timer.c ****     }else{
ARM GAS  C:\Users\49542\AppData\Local\Temp\ccEBNRSE.s 			page 41


 817:C:/Users/49542/Desktop/GD32F30x_Demo_Suites_V2.0.0/GD32F30x_Demo_Suites_V2.0.0/GD32F30x_Firmware_Library/GD32F30x_standard_peripheral/Source\gd32f30x_timer.c ****         /* illegal parameters */
 818:C:/Users/49542/Desktop/GD32F30x_Demo_Suites_V2.0.0/GD32F30x_Demo_Suites_V2.0.0/GD32F30x_Firmware_Library/GD32F30x_standard_peripheral/Source\gd32f30x_timer.c ****     }
 819:C:/Users/49542/Desktop/GD32F30x_Demo_Suites_V2.0.0/GD32F30x_Demo_Suites_V2.0.0/GD32F30x_Firmware_Library/GD32F30x_standard_peripheral/Source\gd32f30x_timer.c **** }
 1493              		.loc 1 819 0
 1494 0006 7047     		bx	lr
 1495              	.L99:
 813:C:/Users/49542/Desktop/GD32F30x_Demo_Suites_V2.0.0/GD32F30x_Demo_Suites_V2.0.0/GD32F30x_Firmware_Library/GD32F30x_standard_peripheral/Source\gd32f30x_timer.c ****         TIMER_CTL1(timer_periph) &= (~(uint32_t)TIMER_CTL1_CCUC);
 1496              		.loc 1 813 0
 1497 0008 4368     		ldr	r3, [r0, #4]
 1498 000a 23F00403 		bic	r3, r3, #4
 1499 000e 4360     		str	r3, [r0, #4]
 1500 0010 7047     		bx	lr
 1501              	.L100:
 815:C:/Users/49542/Desktop/GD32F30x_Demo_Suites_V2.0.0/GD32F30x_Demo_Suites_V2.0.0/GD32F30x_Firmware_Library/GD32F30x_standard_peripheral/Source\gd32f30x_timer.c ****         TIMER_CTL1(timer_periph) |= (uint32_t)TIMER_CTL1_CCUC;
 1502              		.loc 1 815 0
 1503 0012 4368     		ldr	r3, [r0, #4]
 1504 0014 43F00403 		orr	r3, r3, #4
 1505 0018 4360     		str	r3, [r0, #4]
 1506              		.loc 1 819 0
 1507 001a F4E7     		b	.L96
 1508              		.cfi_endproc
 1509              	.LFE155:
 1511              		.section	.text.timer_channel_output_struct_para_init,"ax",%progbits
 1512              		.align	1
 1513              		.global	timer_channel_output_struct_para_init
 1514              		.syntax unified
 1515              		.thumb
 1516              		.thumb_func
 1517              		.fpu fpv4-sp-d16
 1519              	timer_channel_output_struct_para_init:
 1520              	.LFB156:
 820:C:/Users/49542/Desktop/GD32F30x_Demo_Suites_V2.0.0/GD32F30x_Demo_Suites_V2.0.0/GD32F30x_Firmware_Library/GD32F30x_standard_peripheral/Source\gd32f30x_timer.c **** 
 821:C:/Users/49542/Desktop/GD32F30x_Demo_Suites_V2.0.0/GD32F30x_Demo_Suites_V2.0.0/GD32F30x_Firmware_Library/GD32F30x_standard_peripheral/Source\gd32f30x_timer.c **** /*!
 822:C:/Users/49542/Desktop/GD32F30x_Demo_Suites_V2.0.0/GD32F30x_Demo_Suites_V2.0.0/GD32F30x_Firmware_Library/GD32F30x_standard_peripheral/Source\gd32f30x_timer.c ****     \brief      initialize TIMER channel output parameter struct with a default value
 823:C:/Users/49542/Desktop/GD32F30x_Demo_Suites_V2.0.0/GD32F30x_Demo_Suites_V2.0.0/GD32F30x_Firmware_Library/GD32F30x_standard_peripheral/Source\gd32f30x_timer.c ****     \param[in]  ocpara: TIMER channel n output parameter struct
 824:C:/Users/49542/Desktop/GD32F30x_Demo_Suites_V2.0.0/GD32F30x_Demo_Suites_V2.0.0/GD32F30x_Firmware_Library/GD32F30x_standard_peripheral/Source\gd32f30x_timer.c ****     \param[out] none
 825:C:/Users/49542/Desktop/GD32F30x_Demo_Suites_V2.0.0/GD32F30x_Demo_Suites_V2.0.0/GD32F30x_Firmware_Library/GD32F30x_standard_peripheral/Source\gd32f30x_timer.c ****     \retval     none
 826:C:/Users/49542/Desktop/GD32F30x_Demo_Suites_V2.0.0/GD32F30x_Demo_Suites_V2.0.0/GD32F30x_Firmware_Library/GD32F30x_standard_peripheral/Source\gd32f30x_timer.c **** */
 827:C:/Users/49542/Desktop/GD32F30x_Demo_Suites_V2.0.0/GD32F30x_Demo_Suites_V2.0.0/GD32F30x_Firmware_Library/GD32F30x_standard_peripheral/Source\gd32f30x_timer.c **** void timer_channel_output_struct_para_init(timer_oc_parameter_struct* ocpara)
 828:C:/Users/49542/Desktop/GD32F30x_Demo_Suites_V2.0.0/GD32F30x_Demo_Suites_V2.0.0/GD32F30x_Firmware_Library/GD32F30x_standard_peripheral/Source\gd32f30x_timer.c **** {
 1521              		.loc 1 828 0
 1522              		.cfi_startproc
 1523              		@ args = 0, pretend = 0, frame = 0
 1524              		@ frame_needed = 0, uses_anonymous_args = 0
 1525              		@ link register save eliminated.
 1526              	.LVL116:
 829:C:/Users/49542/Desktop/GD32F30x_Demo_Suites_V2.0.0/GD32F30x_Demo_Suites_V2.0.0/GD32F30x_Firmware_Library/GD32F30x_standard_peripheral/Source\gd32f30x_timer.c ****     /* initialize the channel output parameter struct member with the default value */
 830:C:/Users/49542/Desktop/GD32F30x_Demo_Suites_V2.0.0/GD32F30x_Demo_Suites_V2.0.0/GD32F30x_Firmware_Library/GD32F30x_standard_peripheral/Source\gd32f30x_timer.c ****     ocpara->outputstate  = (uint16_t)TIMER_CCX_DISABLE;
 1527              		.loc 1 830 0
 1528 0000 0023     		movs	r3, #0
 1529 0002 0380     		strh	r3, [r0]	@ movhi
 831:C:/Users/49542/Desktop/GD32F30x_Demo_Suites_V2.0.0/GD32F30x_Demo_Suites_V2.0.0/GD32F30x_Firmware_Library/GD32F30x_standard_peripheral/Source\gd32f30x_timer.c ****     ocpara->outputnstate = TIMER_CCXN_DISABLE;
 1530              		.loc 1 831 0
 1531 0004 4380     		strh	r3, [r0, #2]	@ movhi
 832:C:/Users/49542/Desktop/GD32F30x_Demo_Suites_V2.0.0/GD32F30x_Demo_Suites_V2.0.0/GD32F30x_Firmware_Library/GD32F30x_standard_peripheral/Source\gd32f30x_timer.c ****     ocpara->ocpolarity   = TIMER_OC_POLARITY_HIGH;
 1532              		.loc 1 832 0
 1533 0006 8380     		strh	r3, [r0, #4]	@ movhi
ARM GAS  C:\Users\49542\AppData\Local\Temp\ccEBNRSE.s 			page 42


 833:C:/Users/49542/Desktop/GD32F30x_Demo_Suites_V2.0.0/GD32F30x_Demo_Suites_V2.0.0/GD32F30x_Firmware_Library/GD32F30x_standard_peripheral/Source\gd32f30x_timer.c ****     ocpara->ocnpolarity  = TIMER_OCN_POLARITY_HIGH;
 1534              		.loc 1 833 0
 1535 0008 C380     		strh	r3, [r0, #6]	@ movhi
 834:C:/Users/49542/Desktop/GD32F30x_Demo_Suites_V2.0.0/GD32F30x_Demo_Suites_V2.0.0/GD32F30x_Firmware_Library/GD32F30x_standard_peripheral/Source\gd32f30x_timer.c ****     ocpara->ocidlestate  = TIMER_OC_IDLE_STATE_LOW;
 1536              		.loc 1 834 0
 1537 000a 0381     		strh	r3, [r0, #8]	@ movhi
 835:C:/Users/49542/Desktop/GD32F30x_Demo_Suites_V2.0.0/GD32F30x_Demo_Suites_V2.0.0/GD32F30x_Firmware_Library/GD32F30x_standard_peripheral/Source\gd32f30x_timer.c ****     ocpara->ocnidlestate = TIMER_OCN_IDLE_STATE_LOW;
 1538              		.loc 1 835 0
 1539 000c 4381     		strh	r3, [r0, #10]	@ movhi
 836:C:/Users/49542/Desktop/GD32F30x_Demo_Suites_V2.0.0/GD32F30x_Demo_Suites_V2.0.0/GD32F30x_Firmware_Library/GD32F30x_standard_peripheral/Source\gd32f30x_timer.c **** }
 1540              		.loc 1 836 0
 1541 000e 7047     		bx	lr
 1542              		.cfi_endproc
 1543              	.LFE156:
 1545              		.section	.text.timer_channel_output_config,"ax",%progbits
 1546              		.align	1
 1547              		.global	timer_channel_output_config
 1548              		.syntax unified
 1549              		.thumb
 1550              		.thumb_func
 1551              		.fpu fpv4-sp-d16
 1553              	timer_channel_output_config:
 1554              	.LFB157:
 837:C:/Users/49542/Desktop/GD32F30x_Demo_Suites_V2.0.0/GD32F30x_Demo_Suites_V2.0.0/GD32F30x_Firmware_Library/GD32F30x_standard_peripheral/Source\gd32f30x_timer.c **** 
 838:C:/Users/49542/Desktop/GD32F30x_Demo_Suites_V2.0.0/GD32F30x_Demo_Suites_V2.0.0/GD32F30x_Firmware_Library/GD32F30x_standard_peripheral/Source\gd32f30x_timer.c **** /*!
 839:C:/Users/49542/Desktop/GD32F30x_Demo_Suites_V2.0.0/GD32F30x_Demo_Suites_V2.0.0/GD32F30x_Firmware_Library/GD32F30x_standard_peripheral/Source\gd32f30x_timer.c ****     \brief      configure TIMER channel output function
 840:C:/Users/49542/Desktop/GD32F30x_Demo_Suites_V2.0.0/GD32F30x_Demo_Suites_V2.0.0/GD32F30x_Firmware_Library/GD32F30x_standard_peripheral/Source\gd32f30x_timer.c ****     \param[in]  timer_periph: please refer to the following parameters
 841:C:/Users/49542/Desktop/GD32F30x_Demo_Suites_V2.0.0/GD32F30x_Demo_Suites_V2.0.0/GD32F30x_Firmware_Library/GD32F30x_standard_peripheral/Source\gd32f30x_timer.c ****     \param[in]  channel:
 842:C:/Users/49542/Desktop/GD32F30x_Demo_Suites_V2.0.0/GD32F30x_Demo_Suites_V2.0.0/GD32F30x_Firmware_Library/GD32F30x_standard_peripheral/Source\gd32f30x_timer.c ****                 only one parameter can be selected which is shown as below:
 843:C:/Users/49542/Desktop/GD32F30x_Demo_Suites_V2.0.0/GD32F30x_Demo_Suites_V2.0.0/GD32F30x_Firmware_Library/GD32F30x_standard_peripheral/Source\gd32f30x_timer.c ****       \arg        TIMER_CH_0: TIMER channel 0(TIMERx(x=0..4,7..13))
 844:C:/Users/49542/Desktop/GD32F30x_Demo_Suites_V2.0.0/GD32F30x_Demo_Suites_V2.0.0/GD32F30x_Firmware_Library/GD32F30x_standard_peripheral/Source\gd32f30x_timer.c ****       \arg        TIMER_CH_1: TIMER channel 1(TIMERx(x=0..4,7,8,11))
 845:C:/Users/49542/Desktop/GD32F30x_Demo_Suites_V2.0.0/GD32F30x_Demo_Suites_V2.0.0/GD32F30x_Firmware_Library/GD32F30x_standard_peripheral/Source\gd32f30x_timer.c ****       \arg        TIMER_CH_2: TIMER channel 2(TIMERx(x=0..4,7))
 846:C:/Users/49542/Desktop/GD32F30x_Demo_Suites_V2.0.0/GD32F30x_Demo_Suites_V2.0.0/GD32F30x_Firmware_Library/GD32F30x_standard_peripheral/Source\gd32f30x_timer.c ****       \arg        TIMER_CH_3: TIMER channel 3(TIMERx(x=0..4,7))
 847:C:/Users/49542/Desktop/GD32F30x_Demo_Suites_V2.0.0/GD32F30x_Demo_Suites_V2.0.0/GD32F30x_Firmware_Library/GD32F30x_standard_peripheral/Source\gd32f30x_timer.c ****     \param[in]  ocpara: TIMER channeln output parameter struct
 848:C:/Users/49542/Desktop/GD32F30x_Demo_Suites_V2.0.0/GD32F30x_Demo_Suites_V2.0.0/GD32F30x_Firmware_Library/GD32F30x_standard_peripheral/Source\gd32f30x_timer.c ****                 outputstate: TIMER_CCX_ENABLE,TIMER_CCX_DISABLE
 849:C:/Users/49542/Desktop/GD32F30x_Demo_Suites_V2.0.0/GD32F30x_Demo_Suites_V2.0.0/GD32F30x_Firmware_Library/GD32F30x_standard_peripheral/Source\gd32f30x_timer.c ****                 outputnstate: TIMER_CCXN_ENABLE,TIMER_CCXN_DISABLE
 850:C:/Users/49542/Desktop/GD32F30x_Demo_Suites_V2.0.0/GD32F30x_Demo_Suites_V2.0.0/GD32F30x_Firmware_Library/GD32F30x_standard_peripheral/Source\gd32f30x_timer.c ****                 ocpolarity: TIMER_OC_POLARITY_HIGH,TIMER_OC_POLARITY_LOW
 851:C:/Users/49542/Desktop/GD32F30x_Demo_Suites_V2.0.0/GD32F30x_Demo_Suites_V2.0.0/GD32F30x_Firmware_Library/GD32F30x_standard_peripheral/Source\gd32f30x_timer.c ****                 ocnpolarity: TIMER_OCN_POLARITY_HIGH,TIMER_OCN_POLARITY_LOW
 852:C:/Users/49542/Desktop/GD32F30x_Demo_Suites_V2.0.0/GD32F30x_Demo_Suites_V2.0.0/GD32F30x_Firmware_Library/GD32F30x_standard_peripheral/Source\gd32f30x_timer.c ****                 ocidlestate: TIMER_OC_IDLE_STATE_LOW,TIMER_OC_IDLE_STATE_HIGH
 853:C:/Users/49542/Desktop/GD32F30x_Demo_Suites_V2.0.0/GD32F30x_Demo_Suites_V2.0.0/GD32F30x_Firmware_Library/GD32F30x_standard_peripheral/Source\gd32f30x_timer.c ****                 ocnidlestate: TIMER_OCN_IDLE_STATE_LOW,TIMER_OCN_IDLE_STATE_HIGH
 854:C:/Users/49542/Desktop/GD32F30x_Demo_Suites_V2.0.0/GD32F30x_Demo_Suites_V2.0.0/GD32F30x_Firmware_Library/GD32F30x_standard_peripheral/Source\gd32f30x_timer.c ****     \param[out] none
 855:C:/Users/49542/Desktop/GD32F30x_Demo_Suites_V2.0.0/GD32F30x_Demo_Suites_V2.0.0/GD32F30x_Firmware_Library/GD32F30x_standard_peripheral/Source\gd32f30x_timer.c ****     \retval     none
 856:C:/Users/49542/Desktop/GD32F30x_Demo_Suites_V2.0.0/GD32F30x_Demo_Suites_V2.0.0/GD32F30x_Firmware_Library/GD32F30x_standard_peripheral/Source\gd32f30x_timer.c **** */
 857:C:/Users/49542/Desktop/GD32F30x_Demo_Suites_V2.0.0/GD32F30x_Demo_Suites_V2.0.0/GD32F30x_Firmware_Library/GD32F30x_standard_peripheral/Source\gd32f30x_timer.c **** void timer_channel_output_config(uint32_t timer_periph, uint16_t channel, timer_oc_parameter_struct
 858:C:/Users/49542/Desktop/GD32F30x_Demo_Suites_V2.0.0/GD32F30x_Demo_Suites_V2.0.0/GD32F30x_Firmware_Library/GD32F30x_standard_peripheral/Source\gd32f30x_timer.c **** {
 1555              		.loc 1 858 0
 1556              		.cfi_startproc
 1557              		@ args = 0, pretend = 0, frame = 0
 1558              		@ frame_needed = 0, uses_anonymous_args = 0
 1559              		@ link register save eliminated.
 1560              	.LVL117:
 859:C:/Users/49542/Desktop/GD32F30x_Demo_Suites_V2.0.0/GD32F30x_Demo_Suites_V2.0.0/GD32F30x_Firmware_Library/GD32F30x_standard_peripheral/Source\gd32f30x_timer.c ****     switch(channel){
 1561              		.loc 1 859 0
 1562 0000 0329     		cmp	r1, #3
 1563 0002 00F2EE80 		bhi	.L102
 1564 0006 DFE811F0 		tbh	[pc, r1, lsl #1]
 1565              	.L105:
ARM GAS  C:\Users\49542\AppData\Local\Temp\ccEBNRSE.s 			page 43


 1566 000a 0400     		.2byte	(.L104-.L105)/2
 1567 000c 4100     		.2byte	(.L106-.L105)/2
 1568 000e 8400     		.2byte	(.L107-.L105)/2
 1569 0010 C600     		.2byte	(.L108-.L105)/2
 1570              		.p2align 1
 1571              	.L104:
 860:C:/Users/49542/Desktop/GD32F30x_Demo_Suites_V2.0.0/GD32F30x_Demo_Suites_V2.0.0/GD32F30x_Firmware_Library/GD32F30x_standard_peripheral/Source\gd32f30x_timer.c ****     /* configure TIMER_CH_0 */
 861:C:/Users/49542/Desktop/GD32F30x_Demo_Suites_V2.0.0/GD32F30x_Demo_Suites_V2.0.0/GD32F30x_Firmware_Library/GD32F30x_standard_peripheral/Source\gd32f30x_timer.c ****     case TIMER_CH_0:
 862:C:/Users/49542/Desktop/GD32F30x_Demo_Suites_V2.0.0/GD32F30x_Demo_Suites_V2.0.0/GD32F30x_Firmware_Library/GD32F30x_standard_peripheral/Source\gd32f30x_timer.c ****         /* reset the CH0EN bit */
 863:C:/Users/49542/Desktop/GD32F30x_Demo_Suites_V2.0.0/GD32F30x_Demo_Suites_V2.0.0/GD32F30x_Firmware_Library/GD32F30x_standard_peripheral/Source\gd32f30x_timer.c ****         TIMER_CHCTL2(timer_periph) &= (~(uint32_t)TIMER_CHCTL2_CH0EN);
 1572              		.loc 1 863 0
 1573 0012 036A     		ldr	r3, [r0, #32]
 1574 0014 23F00103 		bic	r3, r3, #1
 1575 0018 0362     		str	r3, [r0, #32]
 864:C:/Users/49542/Desktop/GD32F30x_Demo_Suites_V2.0.0/GD32F30x_Demo_Suites_V2.0.0/GD32F30x_Firmware_Library/GD32F30x_standard_peripheral/Source\gd32f30x_timer.c ****         TIMER_CHCTL0(timer_periph) &= ~(uint32_t)TIMER_CHCTL0_CH0MS;
 1576              		.loc 1 864 0
 1577 001a 8369     		ldr	r3, [r0, #24]
 1578 001c 23F00303 		bic	r3, r3, #3
 1579 0020 8361     		str	r3, [r0, #24]
 865:C:/Users/49542/Desktop/GD32F30x_Demo_Suites_V2.0.0/GD32F30x_Demo_Suites_V2.0.0/GD32F30x_Firmware_Library/GD32F30x_standard_peripheral/Source\gd32f30x_timer.c ****         /* set the CH0EN bit */
 866:C:/Users/49542/Desktop/GD32F30x_Demo_Suites_V2.0.0/GD32F30x_Demo_Suites_V2.0.0/GD32F30x_Firmware_Library/GD32F30x_standard_peripheral/Source\gd32f30x_timer.c ****         TIMER_CHCTL2(timer_periph) |= (uint32_t)ocpara->outputstate;
 1580              		.loc 1 866 0
 1581 0022 036A     		ldr	r3, [r0, #32]
 1582 0024 1188     		ldrh	r1, [r2]
 1583              	.LVL118:
 1584 0026 0B43     		orrs	r3, r3, r1
 1585 0028 0362     		str	r3, [r0, #32]
 867:C:/Users/49542/Desktop/GD32F30x_Demo_Suites_V2.0.0/GD32F30x_Demo_Suites_V2.0.0/GD32F30x_Firmware_Library/GD32F30x_standard_peripheral/Source\gd32f30x_timer.c ****         /* reset the CH0P bit */
 868:C:/Users/49542/Desktop/GD32F30x_Demo_Suites_V2.0.0/GD32F30x_Demo_Suites_V2.0.0/GD32F30x_Firmware_Library/GD32F30x_standard_peripheral/Source\gd32f30x_timer.c ****         TIMER_CHCTL2(timer_periph) &= (~(uint32_t)TIMER_CHCTL2_CH0P);
 1586              		.loc 1 868 0
 1587 002a 036A     		ldr	r3, [r0, #32]
 1588 002c 23F00203 		bic	r3, r3, #2
 1589 0030 0362     		str	r3, [r0, #32]
 869:C:/Users/49542/Desktop/GD32F30x_Demo_Suites_V2.0.0/GD32F30x_Demo_Suites_V2.0.0/GD32F30x_Firmware_Library/GD32F30x_standard_peripheral/Source\gd32f30x_timer.c ****         /* set the CH0P bit */
 870:C:/Users/49542/Desktop/GD32F30x_Demo_Suites_V2.0.0/GD32F30x_Demo_Suites_V2.0.0/GD32F30x_Firmware_Library/GD32F30x_standard_peripheral/Source\gd32f30x_timer.c ****         TIMER_CHCTL2(timer_periph) |= (uint32_t)ocpara->ocpolarity;
 1590              		.loc 1 870 0
 1591 0032 036A     		ldr	r3, [r0, #32]
 1592 0034 9188     		ldrh	r1, [r2, #4]
 1593 0036 0B43     		orrs	r3, r3, r1
 1594 0038 0362     		str	r3, [r0, #32]
 871:C:/Users/49542/Desktop/GD32F30x_Demo_Suites_V2.0.0/GD32F30x_Demo_Suites_V2.0.0/GD32F30x_Firmware_Library/GD32F30x_standard_peripheral/Source\gd32f30x_timer.c **** 
 872:C:/Users/49542/Desktop/GD32F30x_Demo_Suites_V2.0.0/GD32F30x_Demo_Suites_V2.0.0/GD32F30x_Firmware_Library/GD32F30x_standard_peripheral/Source\gd32f30x_timer.c ****         if((TIMER0 == timer_periph) || (TIMER7 == timer_periph)){
 1595              		.loc 1 872 0
 1596 003a 6A4B     		ldr	r3, .L113
 1597 003c 9842     		cmp	r0, r3
 1598 003e 04D0     		beq	.L109
 1599              		.loc 1 872 0 is_stmt 0 discriminator 1
 1600 0040 03F50063 		add	r3, r3, #2048
 1601 0044 9842     		cmp	r0, r3
 1602 0046 40F0CC80 		bne	.L102
 1603              	.L109:
 873:C:/Users/49542/Desktop/GD32F30x_Demo_Suites_V2.0.0/GD32F30x_Demo_Suites_V2.0.0/GD32F30x_Firmware_Library/GD32F30x_standard_peripheral/Source\gd32f30x_timer.c ****             /* reset the CH0NEN bit */
 874:C:/Users/49542/Desktop/GD32F30x_Demo_Suites_V2.0.0/GD32F30x_Demo_Suites_V2.0.0/GD32F30x_Firmware_Library/GD32F30x_standard_peripheral/Source\gd32f30x_timer.c ****             TIMER_CHCTL2(timer_periph) &= (~(uint32_t)TIMER_CHCTL2_CH0NEN);
 1604              		.loc 1 874 0 is_stmt 1
 1605 004a 036A     		ldr	r3, [r0, #32]
 1606 004c 23F00403 		bic	r3, r3, #4
 1607 0050 0362     		str	r3, [r0, #32]
ARM GAS  C:\Users\49542\AppData\Local\Temp\ccEBNRSE.s 			page 44


 875:C:/Users/49542/Desktop/GD32F30x_Demo_Suites_V2.0.0/GD32F30x_Demo_Suites_V2.0.0/GD32F30x_Firmware_Library/GD32F30x_standard_peripheral/Source\gd32f30x_timer.c ****             /* set the CH0NEN bit */
 876:C:/Users/49542/Desktop/GD32F30x_Demo_Suites_V2.0.0/GD32F30x_Demo_Suites_V2.0.0/GD32F30x_Firmware_Library/GD32F30x_standard_peripheral/Source\gd32f30x_timer.c ****             TIMER_CHCTL2(timer_periph) |= (uint32_t)ocpara->outputnstate;
 1608              		.loc 1 876 0
 1609 0052 036A     		ldr	r3, [r0, #32]
 1610 0054 5188     		ldrh	r1, [r2, #2]
 1611 0056 0B43     		orrs	r3, r3, r1
 1612 0058 0362     		str	r3, [r0, #32]
 877:C:/Users/49542/Desktop/GD32F30x_Demo_Suites_V2.0.0/GD32F30x_Demo_Suites_V2.0.0/GD32F30x_Firmware_Library/GD32F30x_standard_peripheral/Source\gd32f30x_timer.c ****             /* reset the CH0NP bit */
 878:C:/Users/49542/Desktop/GD32F30x_Demo_Suites_V2.0.0/GD32F30x_Demo_Suites_V2.0.0/GD32F30x_Firmware_Library/GD32F30x_standard_peripheral/Source\gd32f30x_timer.c ****             TIMER_CHCTL2(timer_periph) &= (~(uint32_t)TIMER_CHCTL2_CH0NP);
 1613              		.loc 1 878 0
 1614 005a 036A     		ldr	r3, [r0, #32]
 1615 005c 23F00803 		bic	r3, r3, #8
 1616 0060 0362     		str	r3, [r0, #32]
 879:C:/Users/49542/Desktop/GD32F30x_Demo_Suites_V2.0.0/GD32F30x_Demo_Suites_V2.0.0/GD32F30x_Firmware_Library/GD32F30x_standard_peripheral/Source\gd32f30x_timer.c ****             /* set the CH0NP bit */
 880:C:/Users/49542/Desktop/GD32F30x_Demo_Suites_V2.0.0/GD32F30x_Demo_Suites_V2.0.0/GD32F30x_Firmware_Library/GD32F30x_standard_peripheral/Source\gd32f30x_timer.c ****             TIMER_CHCTL2(timer_periph) |= (uint32_t)ocpara->ocnpolarity;
 1617              		.loc 1 880 0
 1618 0062 036A     		ldr	r3, [r0, #32]
 1619 0064 D188     		ldrh	r1, [r2, #6]
 1620 0066 0B43     		orrs	r3, r3, r1
 1621 0068 0362     		str	r3, [r0, #32]
 881:C:/Users/49542/Desktop/GD32F30x_Demo_Suites_V2.0.0/GD32F30x_Demo_Suites_V2.0.0/GD32F30x_Firmware_Library/GD32F30x_standard_peripheral/Source\gd32f30x_timer.c ****             /* reset the ISO0 bit */
 882:C:/Users/49542/Desktop/GD32F30x_Demo_Suites_V2.0.0/GD32F30x_Demo_Suites_V2.0.0/GD32F30x_Firmware_Library/GD32F30x_standard_peripheral/Source\gd32f30x_timer.c ****             TIMER_CTL1(timer_periph) &= (~(uint32_t)TIMER_CTL1_ISO0);
 1622              		.loc 1 882 0
 1623 006a 4368     		ldr	r3, [r0, #4]
 1624 006c 23F48073 		bic	r3, r3, #256
 1625 0070 4360     		str	r3, [r0, #4]
 883:C:/Users/49542/Desktop/GD32F30x_Demo_Suites_V2.0.0/GD32F30x_Demo_Suites_V2.0.0/GD32F30x_Firmware_Library/GD32F30x_standard_peripheral/Source\gd32f30x_timer.c ****             /* set the ISO0 bit */
 884:C:/Users/49542/Desktop/GD32F30x_Demo_Suites_V2.0.0/GD32F30x_Demo_Suites_V2.0.0/GD32F30x_Firmware_Library/GD32F30x_standard_peripheral/Source\gd32f30x_timer.c ****             TIMER_CTL1(timer_periph) |= (uint32_t)ocpara->ocidlestate;
 1626              		.loc 1 884 0
 1627 0072 4368     		ldr	r3, [r0, #4]
 1628 0074 1189     		ldrh	r1, [r2, #8]
 1629 0076 0B43     		orrs	r3, r3, r1
 1630 0078 4360     		str	r3, [r0, #4]
 885:C:/Users/49542/Desktop/GD32F30x_Demo_Suites_V2.0.0/GD32F30x_Demo_Suites_V2.0.0/GD32F30x_Firmware_Library/GD32F30x_standard_peripheral/Source\gd32f30x_timer.c ****             /* reset the ISO0N bit */
 886:C:/Users/49542/Desktop/GD32F30x_Demo_Suites_V2.0.0/GD32F30x_Demo_Suites_V2.0.0/GD32F30x_Firmware_Library/GD32F30x_standard_peripheral/Source\gd32f30x_timer.c ****             TIMER_CTL1(timer_periph) &= (~(uint32_t)TIMER_CTL1_ISO0N);
 1631              		.loc 1 886 0
 1632 007a 4368     		ldr	r3, [r0, #4]
 1633 007c 23F40073 		bic	r3, r3, #512
 1634 0080 4360     		str	r3, [r0, #4]
 887:C:/Users/49542/Desktop/GD32F30x_Demo_Suites_V2.0.0/GD32F30x_Demo_Suites_V2.0.0/GD32F30x_Firmware_Library/GD32F30x_standard_peripheral/Source\gd32f30x_timer.c ****             /* set the ISO0N bit */
 888:C:/Users/49542/Desktop/GD32F30x_Demo_Suites_V2.0.0/GD32F30x_Demo_Suites_V2.0.0/GD32F30x_Firmware_Library/GD32F30x_standard_peripheral/Source\gd32f30x_timer.c ****             TIMER_CTL1(timer_periph) |= (uint32_t)ocpara->ocnidlestate;
 1635              		.loc 1 888 0
 1636 0082 4368     		ldr	r3, [r0, #4]
 1637 0084 5289     		ldrh	r2, [r2, #10]
 1638              	.LVL119:
 1639 0086 1343     		orrs	r3, r3, r2
 1640 0088 4360     		str	r3, [r0, #4]
 1641 008a 7047     		bx	lr
 1642              	.LVL120:
 1643              	.L106:
 889:C:/Users/49542/Desktop/GD32F30x_Demo_Suites_V2.0.0/GD32F30x_Demo_Suites_V2.0.0/GD32F30x_Firmware_Library/GD32F30x_standard_peripheral/Source\gd32f30x_timer.c ****         }
 890:C:/Users/49542/Desktop/GD32F30x_Demo_Suites_V2.0.0/GD32F30x_Demo_Suites_V2.0.0/GD32F30x_Firmware_Library/GD32F30x_standard_peripheral/Source\gd32f30x_timer.c ****         break;
 891:C:/Users/49542/Desktop/GD32F30x_Demo_Suites_V2.0.0/GD32F30x_Demo_Suites_V2.0.0/GD32F30x_Firmware_Library/GD32F30x_standard_peripheral/Source\gd32f30x_timer.c ****     /* configure TIMER_CH_1 */
 892:C:/Users/49542/Desktop/GD32F30x_Demo_Suites_V2.0.0/GD32F30x_Demo_Suites_V2.0.0/GD32F30x_Firmware_Library/GD32F30x_standard_peripheral/Source\gd32f30x_timer.c ****     case TIMER_CH_1:
 893:C:/Users/49542/Desktop/GD32F30x_Demo_Suites_V2.0.0/GD32F30x_Demo_Suites_V2.0.0/GD32F30x_Firmware_Library/GD32F30x_standard_peripheral/Source\gd32f30x_timer.c ****         /* reset the CH1EN bit */
 894:C:/Users/49542/Desktop/GD32F30x_Demo_Suites_V2.0.0/GD32F30x_Demo_Suites_V2.0.0/GD32F30x_Firmware_Library/GD32F30x_standard_peripheral/Source\gd32f30x_timer.c ****         TIMER_CHCTL2(timer_periph) &= (~(uint32_t)TIMER_CHCTL2_CH1EN);
 1644              		.loc 1 894 0
ARM GAS  C:\Users\49542\AppData\Local\Temp\ccEBNRSE.s 			page 45


 1645 008c 036A     		ldr	r3, [r0, #32]
 1646 008e 23F01003 		bic	r3, r3, #16
 1647 0092 0362     		str	r3, [r0, #32]
 895:C:/Users/49542/Desktop/GD32F30x_Demo_Suites_V2.0.0/GD32F30x_Demo_Suites_V2.0.0/GD32F30x_Firmware_Library/GD32F30x_standard_peripheral/Source\gd32f30x_timer.c ****         TIMER_CHCTL0(timer_periph) &= ~(uint32_t)TIMER_CHCTL0_CH1MS;
 1648              		.loc 1 895 0
 1649 0094 8369     		ldr	r3, [r0, #24]
 1650 0096 23F44073 		bic	r3, r3, #768
 1651 009a 8361     		str	r3, [r0, #24]
 896:C:/Users/49542/Desktop/GD32F30x_Demo_Suites_V2.0.0/GD32F30x_Demo_Suites_V2.0.0/GD32F30x_Firmware_Library/GD32F30x_standard_peripheral/Source\gd32f30x_timer.c ****         /* set the CH1EN bit */
 897:C:/Users/49542/Desktop/GD32F30x_Demo_Suites_V2.0.0/GD32F30x_Demo_Suites_V2.0.0/GD32F30x_Firmware_Library/GD32F30x_standard_peripheral/Source\gd32f30x_timer.c ****         TIMER_CHCTL2(timer_periph) |= (uint32_t)((uint32_t)ocpara->outputstate << 4U);
 1652              		.loc 1 897 0
 1653 009c 036A     		ldr	r3, [r0, #32]
 1654 009e 1188     		ldrh	r1, [r2]
 1655              	.LVL121:
 1656 00a0 43EA0113 		orr	r3, r3, r1, lsl #4
 1657 00a4 0362     		str	r3, [r0, #32]
 898:C:/Users/49542/Desktop/GD32F30x_Demo_Suites_V2.0.0/GD32F30x_Demo_Suites_V2.0.0/GD32F30x_Firmware_Library/GD32F30x_standard_peripheral/Source\gd32f30x_timer.c ****         /* reset the CH1P bit */
 899:C:/Users/49542/Desktop/GD32F30x_Demo_Suites_V2.0.0/GD32F30x_Demo_Suites_V2.0.0/GD32F30x_Firmware_Library/GD32F30x_standard_peripheral/Source\gd32f30x_timer.c ****         TIMER_CHCTL2(timer_periph) &= (~(uint32_t)TIMER_CHCTL2_CH1P);
 1658              		.loc 1 899 0
 1659 00a6 036A     		ldr	r3, [r0, #32]
 1660 00a8 23F02003 		bic	r3, r3, #32
 1661 00ac 0362     		str	r3, [r0, #32]
 900:C:/Users/49542/Desktop/GD32F30x_Demo_Suites_V2.0.0/GD32F30x_Demo_Suites_V2.0.0/GD32F30x_Firmware_Library/GD32F30x_standard_peripheral/Source\gd32f30x_timer.c ****         /* set the CH1P bit */
 901:C:/Users/49542/Desktop/GD32F30x_Demo_Suites_V2.0.0/GD32F30x_Demo_Suites_V2.0.0/GD32F30x_Firmware_Library/GD32F30x_standard_peripheral/Source\gd32f30x_timer.c ****         TIMER_CHCTL2(timer_periph) |= (uint32_t)((uint32_t)(ocpara->ocpolarity) << 4U);
 1662              		.loc 1 901 0
 1663 00ae 036A     		ldr	r3, [r0, #32]
 1664 00b0 9188     		ldrh	r1, [r2, #4]
 1665 00b2 43EA0113 		orr	r3, r3, r1, lsl #4
 1666 00b6 0362     		str	r3, [r0, #32]
 902:C:/Users/49542/Desktop/GD32F30x_Demo_Suites_V2.0.0/GD32F30x_Demo_Suites_V2.0.0/GD32F30x_Firmware_Library/GD32F30x_standard_peripheral/Source\gd32f30x_timer.c **** 
 903:C:/Users/49542/Desktop/GD32F30x_Demo_Suites_V2.0.0/GD32F30x_Demo_Suites_V2.0.0/GD32F30x_Firmware_Library/GD32F30x_standard_peripheral/Source\gd32f30x_timer.c ****         if((TIMER0 == timer_periph) || (TIMER7 == timer_periph)){
 1667              		.loc 1 903 0
 1668 00b8 4A4B     		ldr	r3, .L113
 1669 00ba 9842     		cmp	r0, r3
 1670 00bc 04D0     		beq	.L110
 1671              		.loc 1 903 0 is_stmt 0 discriminator 1
 1672 00be 03F50063 		add	r3, r3, #2048
 1673 00c2 9842     		cmp	r0, r3
 1674 00c4 40F08D80 		bne	.L102
 1675              	.L110:
 904:C:/Users/49542/Desktop/GD32F30x_Demo_Suites_V2.0.0/GD32F30x_Demo_Suites_V2.0.0/GD32F30x_Firmware_Library/GD32F30x_standard_peripheral/Source\gd32f30x_timer.c ****             /* reset the CH1NEN bit */
 905:C:/Users/49542/Desktop/GD32F30x_Demo_Suites_V2.0.0/GD32F30x_Demo_Suites_V2.0.0/GD32F30x_Firmware_Library/GD32F30x_standard_peripheral/Source\gd32f30x_timer.c ****             TIMER_CHCTL2(timer_periph) &= (~(uint32_t)TIMER_CHCTL2_CH1NEN);
 1676              		.loc 1 905 0 is_stmt 1
 1677 00c8 036A     		ldr	r3, [r0, #32]
 1678 00ca 23F04003 		bic	r3, r3, #64
 1679 00ce 0362     		str	r3, [r0, #32]
 906:C:/Users/49542/Desktop/GD32F30x_Demo_Suites_V2.0.0/GD32F30x_Demo_Suites_V2.0.0/GD32F30x_Firmware_Library/GD32F30x_standard_peripheral/Source\gd32f30x_timer.c ****             /* set the CH1NEN bit */
 907:C:/Users/49542/Desktop/GD32F30x_Demo_Suites_V2.0.0/GD32F30x_Demo_Suites_V2.0.0/GD32F30x_Firmware_Library/GD32F30x_standard_peripheral/Source\gd32f30x_timer.c ****             TIMER_CHCTL2(timer_periph) |= (uint32_t)((uint32_t)(ocpara->outputnstate) << 4U);
 1680              		.loc 1 907 0
 1681 00d0 036A     		ldr	r3, [r0, #32]
 1682 00d2 5188     		ldrh	r1, [r2, #2]
 1683 00d4 43EA0113 		orr	r3, r3, r1, lsl #4
 1684 00d8 0362     		str	r3, [r0, #32]
 908:C:/Users/49542/Desktop/GD32F30x_Demo_Suites_V2.0.0/GD32F30x_Demo_Suites_V2.0.0/GD32F30x_Firmware_Library/GD32F30x_standard_peripheral/Source\gd32f30x_timer.c ****             /* reset the CH1NP bit */
 909:C:/Users/49542/Desktop/GD32F30x_Demo_Suites_V2.0.0/GD32F30x_Demo_Suites_V2.0.0/GD32F30x_Firmware_Library/GD32F30x_standard_peripheral/Source\gd32f30x_timer.c ****             TIMER_CHCTL2(timer_periph) &= (~(uint32_t)TIMER_CHCTL2_CH1NP);
 1685              		.loc 1 909 0
 1686 00da 036A     		ldr	r3, [r0, #32]
ARM GAS  C:\Users\49542\AppData\Local\Temp\ccEBNRSE.s 			page 46


 1687 00dc 23F08003 		bic	r3, r3, #128
 1688 00e0 0362     		str	r3, [r0, #32]
 910:C:/Users/49542/Desktop/GD32F30x_Demo_Suites_V2.0.0/GD32F30x_Demo_Suites_V2.0.0/GD32F30x_Firmware_Library/GD32F30x_standard_peripheral/Source\gd32f30x_timer.c ****             /* set the CH1NP bit */
 911:C:/Users/49542/Desktop/GD32F30x_Demo_Suites_V2.0.0/GD32F30x_Demo_Suites_V2.0.0/GD32F30x_Firmware_Library/GD32F30x_standard_peripheral/Source\gd32f30x_timer.c ****             TIMER_CHCTL2(timer_periph) |= (uint32_t)((uint32_t)(ocpara->ocnpolarity) << 4U);
 1689              		.loc 1 911 0
 1690 00e2 036A     		ldr	r3, [r0, #32]
 1691 00e4 D188     		ldrh	r1, [r2, #6]
 1692 00e6 43EA0113 		orr	r3, r3, r1, lsl #4
 1693 00ea 0362     		str	r3, [r0, #32]
 912:C:/Users/49542/Desktop/GD32F30x_Demo_Suites_V2.0.0/GD32F30x_Demo_Suites_V2.0.0/GD32F30x_Firmware_Library/GD32F30x_standard_peripheral/Source\gd32f30x_timer.c ****             /* reset the ISO1 bit */
 913:C:/Users/49542/Desktop/GD32F30x_Demo_Suites_V2.0.0/GD32F30x_Demo_Suites_V2.0.0/GD32F30x_Firmware_Library/GD32F30x_standard_peripheral/Source\gd32f30x_timer.c ****             TIMER_CTL1(timer_periph) &= (~(uint32_t)TIMER_CTL1_ISO1);
 1694              		.loc 1 913 0
 1695 00ec 4368     		ldr	r3, [r0, #4]
 1696 00ee 23F48063 		bic	r3, r3, #1024
 1697 00f2 4360     		str	r3, [r0, #4]
 914:C:/Users/49542/Desktop/GD32F30x_Demo_Suites_V2.0.0/GD32F30x_Demo_Suites_V2.0.0/GD32F30x_Firmware_Library/GD32F30x_standard_peripheral/Source\gd32f30x_timer.c ****             /* set the ISO1 bit */
 915:C:/Users/49542/Desktop/GD32F30x_Demo_Suites_V2.0.0/GD32F30x_Demo_Suites_V2.0.0/GD32F30x_Firmware_Library/GD32F30x_standard_peripheral/Source\gd32f30x_timer.c ****             TIMER_CTL1(timer_periph) |= (uint32_t)((uint32_t)(ocpara->ocidlestate) << 2U);
 1698              		.loc 1 915 0
 1699 00f4 4368     		ldr	r3, [r0, #4]
 1700 00f6 1189     		ldrh	r1, [r2, #8]
 1701 00f8 43EA8103 		orr	r3, r3, r1, lsl #2
 1702 00fc 4360     		str	r3, [r0, #4]
 916:C:/Users/49542/Desktop/GD32F30x_Demo_Suites_V2.0.0/GD32F30x_Demo_Suites_V2.0.0/GD32F30x_Firmware_Library/GD32F30x_standard_peripheral/Source\gd32f30x_timer.c ****             /* reset the ISO1N bit */
 917:C:/Users/49542/Desktop/GD32F30x_Demo_Suites_V2.0.0/GD32F30x_Demo_Suites_V2.0.0/GD32F30x_Firmware_Library/GD32F30x_standard_peripheral/Source\gd32f30x_timer.c ****             TIMER_CTL1(timer_periph) &= (~(uint32_t)TIMER_CTL1_ISO1N);
 1703              		.loc 1 917 0
 1704 00fe 4368     		ldr	r3, [r0, #4]
 1705 0100 23F40063 		bic	r3, r3, #2048
 1706 0104 4360     		str	r3, [r0, #4]
 918:C:/Users/49542/Desktop/GD32F30x_Demo_Suites_V2.0.0/GD32F30x_Demo_Suites_V2.0.0/GD32F30x_Firmware_Library/GD32F30x_standard_peripheral/Source\gd32f30x_timer.c ****             /* set the ISO1N bit */
 919:C:/Users/49542/Desktop/GD32F30x_Demo_Suites_V2.0.0/GD32F30x_Demo_Suites_V2.0.0/GD32F30x_Firmware_Library/GD32F30x_standard_peripheral/Source\gd32f30x_timer.c ****             TIMER_CTL1(timer_periph) |= (uint32_t)((uint32_t)(ocpara->ocnidlestate) << 2U);
 1707              		.loc 1 919 0
 1708 0106 4368     		ldr	r3, [r0, #4]
 1709 0108 5289     		ldrh	r2, [r2, #10]
 1710              	.LVL122:
 1711 010a 43EA8203 		orr	r3, r3, r2, lsl #2
 1712 010e 4360     		str	r3, [r0, #4]
 1713 0110 7047     		bx	lr
 1714              	.LVL123:
 1715              	.L107:
 920:C:/Users/49542/Desktop/GD32F30x_Demo_Suites_V2.0.0/GD32F30x_Demo_Suites_V2.0.0/GD32F30x_Firmware_Library/GD32F30x_standard_peripheral/Source\gd32f30x_timer.c ****         }
 921:C:/Users/49542/Desktop/GD32F30x_Demo_Suites_V2.0.0/GD32F30x_Demo_Suites_V2.0.0/GD32F30x_Firmware_Library/GD32F30x_standard_peripheral/Source\gd32f30x_timer.c ****         break;
 922:C:/Users/49542/Desktop/GD32F30x_Demo_Suites_V2.0.0/GD32F30x_Demo_Suites_V2.0.0/GD32F30x_Firmware_Library/GD32F30x_standard_peripheral/Source\gd32f30x_timer.c ****     /* configure TIMER_CH_2 */
 923:C:/Users/49542/Desktop/GD32F30x_Demo_Suites_V2.0.0/GD32F30x_Demo_Suites_V2.0.0/GD32F30x_Firmware_Library/GD32F30x_standard_peripheral/Source\gd32f30x_timer.c ****     case TIMER_CH_2:
 924:C:/Users/49542/Desktop/GD32F30x_Demo_Suites_V2.0.0/GD32F30x_Demo_Suites_V2.0.0/GD32F30x_Firmware_Library/GD32F30x_standard_peripheral/Source\gd32f30x_timer.c ****         /* reset the CH2EN bit */
 925:C:/Users/49542/Desktop/GD32F30x_Demo_Suites_V2.0.0/GD32F30x_Demo_Suites_V2.0.0/GD32F30x_Firmware_Library/GD32F30x_standard_peripheral/Source\gd32f30x_timer.c ****         TIMER_CHCTL2(timer_periph) &= (~(uint32_t)TIMER_CHCTL2_CH2EN);
 1716              		.loc 1 925 0
 1717 0112 036A     		ldr	r3, [r0, #32]
 1718 0114 23F48073 		bic	r3, r3, #256
 1719 0118 0362     		str	r3, [r0, #32]
 926:C:/Users/49542/Desktop/GD32F30x_Demo_Suites_V2.0.0/GD32F30x_Demo_Suites_V2.0.0/GD32F30x_Firmware_Library/GD32F30x_standard_peripheral/Source\gd32f30x_timer.c ****         TIMER_CHCTL1(timer_periph) &= ~(uint32_t)TIMER_CHCTL1_CH2MS;
 1720              		.loc 1 926 0
 1721 011a C369     		ldr	r3, [r0, #28]
 1722 011c 23F00303 		bic	r3, r3, #3
 1723 0120 C361     		str	r3, [r0, #28]
 927:C:/Users/49542/Desktop/GD32F30x_Demo_Suites_V2.0.0/GD32F30x_Demo_Suites_V2.0.0/GD32F30x_Firmware_Library/GD32F30x_standard_peripheral/Source\gd32f30x_timer.c ****         /* set the CH2EN bit */
 928:C:/Users/49542/Desktop/GD32F30x_Demo_Suites_V2.0.0/GD32F30x_Demo_Suites_V2.0.0/GD32F30x_Firmware_Library/GD32F30x_standard_peripheral/Source\gd32f30x_timer.c ****         TIMER_CHCTL2(timer_periph) |= (uint32_t)((uint32_t)ocpara->outputstate << 8U);
 1724              		.loc 1 928 0
ARM GAS  C:\Users\49542\AppData\Local\Temp\ccEBNRSE.s 			page 47


 1725 0122 036A     		ldr	r3, [r0, #32]
 1726 0124 1188     		ldrh	r1, [r2]
 1727              	.LVL124:
 1728 0126 43EA0123 		orr	r3, r3, r1, lsl #8
 1729 012a 0362     		str	r3, [r0, #32]
 929:C:/Users/49542/Desktop/GD32F30x_Demo_Suites_V2.0.0/GD32F30x_Demo_Suites_V2.0.0/GD32F30x_Firmware_Library/GD32F30x_standard_peripheral/Source\gd32f30x_timer.c ****         /* reset the CH2P bit */
 930:C:/Users/49542/Desktop/GD32F30x_Demo_Suites_V2.0.0/GD32F30x_Demo_Suites_V2.0.0/GD32F30x_Firmware_Library/GD32F30x_standard_peripheral/Source\gd32f30x_timer.c ****         TIMER_CHCTL2(timer_periph) &= (~(uint32_t)TIMER_CHCTL2_CH2P);
 1730              		.loc 1 930 0
 1731 012c 036A     		ldr	r3, [r0, #32]
 1732 012e 23F40073 		bic	r3, r3, #512
 1733 0132 0362     		str	r3, [r0, #32]
 931:C:/Users/49542/Desktop/GD32F30x_Demo_Suites_V2.0.0/GD32F30x_Demo_Suites_V2.0.0/GD32F30x_Firmware_Library/GD32F30x_standard_peripheral/Source\gd32f30x_timer.c ****         /* set the CH2P bit */
 932:C:/Users/49542/Desktop/GD32F30x_Demo_Suites_V2.0.0/GD32F30x_Demo_Suites_V2.0.0/GD32F30x_Firmware_Library/GD32F30x_standard_peripheral/Source\gd32f30x_timer.c ****         TIMER_CHCTL2(timer_periph) |= (uint32_t)((uint32_t)(ocpara->ocpolarity) << 8U);
 1734              		.loc 1 932 0
 1735 0134 036A     		ldr	r3, [r0, #32]
 1736 0136 9188     		ldrh	r1, [r2, #4]
 1737 0138 43EA0123 		orr	r3, r3, r1, lsl #8
 1738 013c 0362     		str	r3, [r0, #32]
 933:C:/Users/49542/Desktop/GD32F30x_Demo_Suites_V2.0.0/GD32F30x_Demo_Suites_V2.0.0/GD32F30x_Firmware_Library/GD32F30x_standard_peripheral/Source\gd32f30x_timer.c **** 
 934:C:/Users/49542/Desktop/GD32F30x_Demo_Suites_V2.0.0/GD32F30x_Demo_Suites_V2.0.0/GD32F30x_Firmware_Library/GD32F30x_standard_peripheral/Source\gd32f30x_timer.c ****         if((TIMER0 == timer_periph) || (TIMER7 == timer_periph)){
 1739              		.loc 1 934 0
 1740 013e 294B     		ldr	r3, .L113
 1741 0140 9842     		cmp	r0, r3
 1742 0142 03D0     		beq	.L111
 1743              		.loc 1 934 0 is_stmt 0 discriminator 1
 1744 0144 03F50063 		add	r3, r3, #2048
 1745 0148 9842     		cmp	r0, r3
 1746 014a 4AD1     		bne	.L102
 1747              	.L111:
 935:C:/Users/49542/Desktop/GD32F30x_Demo_Suites_V2.0.0/GD32F30x_Demo_Suites_V2.0.0/GD32F30x_Firmware_Library/GD32F30x_standard_peripheral/Source\gd32f30x_timer.c ****             /* reset the CH2NEN bit */
 936:C:/Users/49542/Desktop/GD32F30x_Demo_Suites_V2.0.0/GD32F30x_Demo_Suites_V2.0.0/GD32F30x_Firmware_Library/GD32F30x_standard_peripheral/Source\gd32f30x_timer.c ****             TIMER_CHCTL2(timer_periph) &= (~(uint32_t)TIMER_CHCTL2_CH2NEN);
 1748              		.loc 1 936 0 is_stmt 1
 1749 014c 036A     		ldr	r3, [r0, #32]
 1750 014e 23F48063 		bic	r3, r3, #1024
 1751 0152 0362     		str	r3, [r0, #32]
 937:C:/Users/49542/Desktop/GD32F30x_Demo_Suites_V2.0.0/GD32F30x_Demo_Suites_V2.0.0/GD32F30x_Firmware_Library/GD32F30x_standard_peripheral/Source\gd32f30x_timer.c ****             /* set the CH2NEN bit */
 938:C:/Users/49542/Desktop/GD32F30x_Demo_Suites_V2.0.0/GD32F30x_Demo_Suites_V2.0.0/GD32F30x_Firmware_Library/GD32F30x_standard_peripheral/Source\gd32f30x_timer.c ****             TIMER_CHCTL2(timer_periph) |= (uint32_t)((uint32_t)(ocpara->outputnstate) << 8U);
 1752              		.loc 1 938 0
 1753 0154 036A     		ldr	r3, [r0, #32]
 1754 0156 5188     		ldrh	r1, [r2, #2]
 1755 0158 43EA0123 		orr	r3, r3, r1, lsl #8
 1756 015c 0362     		str	r3, [r0, #32]
 939:C:/Users/49542/Desktop/GD32F30x_Demo_Suites_V2.0.0/GD32F30x_Demo_Suites_V2.0.0/GD32F30x_Firmware_Library/GD32F30x_standard_peripheral/Source\gd32f30x_timer.c ****             /* reset the CH2NP bit */
 940:C:/Users/49542/Desktop/GD32F30x_Demo_Suites_V2.0.0/GD32F30x_Demo_Suites_V2.0.0/GD32F30x_Firmware_Library/GD32F30x_standard_peripheral/Source\gd32f30x_timer.c ****             TIMER_CHCTL2(timer_periph) &= (~(uint32_t)TIMER_CHCTL2_CH2NP);
 1757              		.loc 1 940 0
 1758 015e 036A     		ldr	r3, [r0, #32]
 1759 0160 23F40063 		bic	r3, r3, #2048
 1760 0164 0362     		str	r3, [r0, #32]
 941:C:/Users/49542/Desktop/GD32F30x_Demo_Suites_V2.0.0/GD32F30x_Demo_Suites_V2.0.0/GD32F30x_Firmware_Library/GD32F30x_standard_peripheral/Source\gd32f30x_timer.c ****             /* set the CH2NP bit */
 942:C:/Users/49542/Desktop/GD32F30x_Demo_Suites_V2.0.0/GD32F30x_Demo_Suites_V2.0.0/GD32F30x_Firmware_Library/GD32F30x_standard_peripheral/Source\gd32f30x_timer.c ****             TIMER_CHCTL2(timer_periph) |= (uint32_t)((uint32_t)(ocpara->ocnpolarity) << 8U);
 1761              		.loc 1 942 0
 1762 0166 036A     		ldr	r3, [r0, #32]
 1763 0168 D188     		ldrh	r1, [r2, #6]
 1764 016a 43EA0123 		orr	r3, r3, r1, lsl #8
 1765 016e 0362     		str	r3, [r0, #32]
 943:C:/Users/49542/Desktop/GD32F30x_Demo_Suites_V2.0.0/GD32F30x_Demo_Suites_V2.0.0/GD32F30x_Firmware_Library/GD32F30x_standard_peripheral/Source\gd32f30x_timer.c ****             /* reset the ISO2 bit */
 944:C:/Users/49542/Desktop/GD32F30x_Demo_Suites_V2.0.0/GD32F30x_Demo_Suites_V2.0.0/GD32F30x_Firmware_Library/GD32F30x_standard_peripheral/Source\gd32f30x_timer.c ****             TIMER_CTL1(timer_periph) &= (~(uint32_t)TIMER_CTL1_ISO2);
ARM GAS  C:\Users\49542\AppData\Local\Temp\ccEBNRSE.s 			page 48


 1766              		.loc 1 944 0
 1767 0170 4368     		ldr	r3, [r0, #4]
 1768 0172 23F48053 		bic	r3, r3, #4096
 1769 0176 4360     		str	r3, [r0, #4]
 945:C:/Users/49542/Desktop/GD32F30x_Demo_Suites_V2.0.0/GD32F30x_Demo_Suites_V2.0.0/GD32F30x_Firmware_Library/GD32F30x_standard_peripheral/Source\gd32f30x_timer.c ****             /* set the ISO2 bit */
 946:C:/Users/49542/Desktop/GD32F30x_Demo_Suites_V2.0.0/GD32F30x_Demo_Suites_V2.0.0/GD32F30x_Firmware_Library/GD32F30x_standard_peripheral/Source\gd32f30x_timer.c ****             TIMER_CTL1(timer_periph) |= (uint32_t)((uint32_t)(ocpara->ocidlestate) << 4U);
 1770              		.loc 1 946 0
 1771 0178 4368     		ldr	r3, [r0, #4]
 1772 017a 1189     		ldrh	r1, [r2, #8]
 1773 017c 43EA0113 		orr	r3, r3, r1, lsl #4
 1774 0180 4360     		str	r3, [r0, #4]
 947:C:/Users/49542/Desktop/GD32F30x_Demo_Suites_V2.0.0/GD32F30x_Demo_Suites_V2.0.0/GD32F30x_Firmware_Library/GD32F30x_standard_peripheral/Source\gd32f30x_timer.c ****             /* reset the ISO2N bit */
 948:C:/Users/49542/Desktop/GD32F30x_Demo_Suites_V2.0.0/GD32F30x_Demo_Suites_V2.0.0/GD32F30x_Firmware_Library/GD32F30x_standard_peripheral/Source\gd32f30x_timer.c ****             TIMER_CTL1(timer_periph) &= (~(uint32_t)TIMER_CTL1_ISO2N);
 1775              		.loc 1 948 0
 1776 0182 4368     		ldr	r3, [r0, #4]
 1777 0184 23F40053 		bic	r3, r3, #8192
 1778 0188 4360     		str	r3, [r0, #4]
 949:C:/Users/49542/Desktop/GD32F30x_Demo_Suites_V2.0.0/GD32F30x_Demo_Suites_V2.0.0/GD32F30x_Firmware_Library/GD32F30x_standard_peripheral/Source\gd32f30x_timer.c ****             /* set the ISO2N bit */
 950:C:/Users/49542/Desktop/GD32F30x_Demo_Suites_V2.0.0/GD32F30x_Demo_Suites_V2.0.0/GD32F30x_Firmware_Library/GD32F30x_standard_peripheral/Source\gd32f30x_timer.c ****             TIMER_CTL1(timer_periph) |= (uint32_t)((uint32_t)(ocpara->ocnidlestate) << 4U);
 1779              		.loc 1 950 0
 1780 018a 4368     		ldr	r3, [r0, #4]
 1781 018c 5289     		ldrh	r2, [r2, #10]
 1782              	.LVL125:
 1783 018e 43EA0213 		orr	r3, r3, r2, lsl #4
 1784 0192 4360     		str	r3, [r0, #4]
 1785 0194 7047     		bx	lr
 1786              	.LVL126:
 1787              	.L108:
 951:C:/Users/49542/Desktop/GD32F30x_Demo_Suites_V2.0.0/GD32F30x_Demo_Suites_V2.0.0/GD32F30x_Firmware_Library/GD32F30x_standard_peripheral/Source\gd32f30x_timer.c ****         }
 952:C:/Users/49542/Desktop/GD32F30x_Demo_Suites_V2.0.0/GD32F30x_Demo_Suites_V2.0.0/GD32F30x_Firmware_Library/GD32F30x_standard_peripheral/Source\gd32f30x_timer.c ****         break;
 953:C:/Users/49542/Desktop/GD32F30x_Demo_Suites_V2.0.0/GD32F30x_Demo_Suites_V2.0.0/GD32F30x_Firmware_Library/GD32F30x_standard_peripheral/Source\gd32f30x_timer.c ****     /* configure TIMER_CH_3 */
 954:C:/Users/49542/Desktop/GD32F30x_Demo_Suites_V2.0.0/GD32F30x_Demo_Suites_V2.0.0/GD32F30x_Firmware_Library/GD32F30x_standard_peripheral/Source\gd32f30x_timer.c ****     case TIMER_CH_3:
 955:C:/Users/49542/Desktop/GD32F30x_Demo_Suites_V2.0.0/GD32F30x_Demo_Suites_V2.0.0/GD32F30x_Firmware_Library/GD32F30x_standard_peripheral/Source\gd32f30x_timer.c ****         /* reset the CH3EN bit */
 956:C:/Users/49542/Desktop/GD32F30x_Demo_Suites_V2.0.0/GD32F30x_Demo_Suites_V2.0.0/GD32F30x_Firmware_Library/GD32F30x_standard_peripheral/Source\gd32f30x_timer.c ****         TIMER_CHCTL2(timer_periph) &=(~(uint32_t)TIMER_CHCTL2_CH3EN);
 1788              		.loc 1 956 0
 1789 0196 036A     		ldr	r3, [r0, #32]
 1790 0198 23F48053 		bic	r3, r3, #4096
 1791 019c 0362     		str	r3, [r0, #32]
 957:C:/Users/49542/Desktop/GD32F30x_Demo_Suites_V2.0.0/GD32F30x_Demo_Suites_V2.0.0/GD32F30x_Firmware_Library/GD32F30x_standard_peripheral/Source\gd32f30x_timer.c ****         TIMER_CHCTL1(timer_periph) &= ~(uint32_t)TIMER_CHCTL1_CH3MS;
 1792              		.loc 1 957 0
 1793 019e C369     		ldr	r3, [r0, #28]
 1794 01a0 23F44073 		bic	r3, r3, #768
 1795 01a4 C361     		str	r3, [r0, #28]
 958:C:/Users/49542/Desktop/GD32F30x_Demo_Suites_V2.0.0/GD32F30x_Demo_Suites_V2.0.0/GD32F30x_Firmware_Library/GD32F30x_standard_peripheral/Source\gd32f30x_timer.c ****         /* set the CH3EN bit */
 959:C:/Users/49542/Desktop/GD32F30x_Demo_Suites_V2.0.0/GD32F30x_Demo_Suites_V2.0.0/GD32F30x_Firmware_Library/GD32F30x_standard_peripheral/Source\gd32f30x_timer.c ****         TIMER_CHCTL2(timer_periph) |= (uint32_t)((uint32_t)ocpara->outputstate << 12U);
 1796              		.loc 1 959 0
 1797 01a6 036A     		ldr	r3, [r0, #32]
 1798 01a8 1188     		ldrh	r1, [r2]
 1799              	.LVL127:
 1800 01aa 43EA0133 		orr	r3, r3, r1, lsl #12
 1801 01ae 0362     		str	r3, [r0, #32]
 960:C:/Users/49542/Desktop/GD32F30x_Demo_Suites_V2.0.0/GD32F30x_Demo_Suites_V2.0.0/GD32F30x_Firmware_Library/GD32F30x_standard_peripheral/Source\gd32f30x_timer.c ****         /* reset the CH3P bit */
 961:C:/Users/49542/Desktop/GD32F30x_Demo_Suites_V2.0.0/GD32F30x_Demo_Suites_V2.0.0/GD32F30x_Firmware_Library/GD32F30x_standard_peripheral/Source\gd32f30x_timer.c ****         TIMER_CHCTL2(timer_periph) &= (~(uint32_t)TIMER_CHCTL2_CH3P);
 1802              		.loc 1 961 0
 1803 01b0 036A     		ldr	r3, [r0, #32]
 1804 01b2 23F40053 		bic	r3, r3, #8192
 1805 01b6 0362     		str	r3, [r0, #32]
ARM GAS  C:\Users\49542\AppData\Local\Temp\ccEBNRSE.s 			page 49


 962:C:/Users/49542/Desktop/GD32F30x_Demo_Suites_V2.0.0/GD32F30x_Demo_Suites_V2.0.0/GD32F30x_Firmware_Library/GD32F30x_standard_peripheral/Source\gd32f30x_timer.c ****         /* set the CH3P bit */
 963:C:/Users/49542/Desktop/GD32F30x_Demo_Suites_V2.0.0/GD32F30x_Demo_Suites_V2.0.0/GD32F30x_Firmware_Library/GD32F30x_standard_peripheral/Source\gd32f30x_timer.c ****         TIMER_CHCTL2(timer_periph) |= (uint32_t)((uint32_t)(ocpara->ocpolarity) << 12U);
 1806              		.loc 1 963 0
 1807 01b8 036A     		ldr	r3, [r0, #32]
 1808 01ba 9188     		ldrh	r1, [r2, #4]
 1809 01bc 43EA0133 		orr	r3, r3, r1, lsl #12
 1810 01c0 0362     		str	r3, [r0, #32]
 964:C:/Users/49542/Desktop/GD32F30x_Demo_Suites_V2.0.0/GD32F30x_Demo_Suites_V2.0.0/GD32F30x_Firmware_Library/GD32F30x_standard_peripheral/Source\gd32f30x_timer.c **** 
 965:C:/Users/49542/Desktop/GD32F30x_Demo_Suites_V2.0.0/GD32F30x_Demo_Suites_V2.0.0/GD32F30x_Firmware_Library/GD32F30x_standard_peripheral/Source\gd32f30x_timer.c ****         if((TIMER0 == timer_periph) || (TIMER7 == timer_periph)){
 1811              		.loc 1 965 0
 1812 01c2 084B     		ldr	r3, .L113
 1813 01c4 9842     		cmp	r0, r3
 1814 01c6 03D0     		beq	.L112
 1815              		.loc 1 965 0 is_stmt 0 discriminator 1
 1816 01c8 03F50063 		add	r3, r3, #2048
 1817 01cc 9842     		cmp	r0, r3
 1818 01ce 08D1     		bne	.L102
 1819              	.L112:
 966:C:/Users/49542/Desktop/GD32F30x_Demo_Suites_V2.0.0/GD32F30x_Demo_Suites_V2.0.0/GD32F30x_Firmware_Library/GD32F30x_standard_peripheral/Source\gd32f30x_timer.c ****             /* reset the ISO3 bit */
 967:C:/Users/49542/Desktop/GD32F30x_Demo_Suites_V2.0.0/GD32F30x_Demo_Suites_V2.0.0/GD32F30x_Firmware_Library/GD32F30x_standard_peripheral/Source\gd32f30x_timer.c ****             TIMER_CTL1(timer_periph) &= (~(uint32_t)TIMER_CTL1_ISO3);
 1820              		.loc 1 967 0 is_stmt 1
 1821 01d0 4368     		ldr	r3, [r0, #4]
 1822 01d2 23F48043 		bic	r3, r3, #16384
 1823 01d6 4360     		str	r3, [r0, #4]
 968:C:/Users/49542/Desktop/GD32F30x_Demo_Suites_V2.0.0/GD32F30x_Demo_Suites_V2.0.0/GD32F30x_Firmware_Library/GD32F30x_standard_peripheral/Source\gd32f30x_timer.c ****             /* set the ISO3 bit */
 969:C:/Users/49542/Desktop/GD32F30x_Demo_Suites_V2.0.0/GD32F30x_Demo_Suites_V2.0.0/GD32F30x_Firmware_Library/GD32F30x_standard_peripheral/Source\gd32f30x_timer.c ****             TIMER_CTL1(timer_periph) |= (uint32_t)((uint32_t)(ocpara->ocidlestate) << 6U);
 1824              		.loc 1 969 0
 1825 01d8 4368     		ldr	r3, [r0, #4]
 1826 01da 1289     		ldrh	r2, [r2, #8]
 1827              	.LVL128:
 1828 01dc 43EA8213 		orr	r3, r3, r2, lsl #6
 1829 01e0 4360     		str	r3, [r0, #4]
 1830              	.L102:
 970:C:/Users/49542/Desktop/GD32F30x_Demo_Suites_V2.0.0/GD32F30x_Demo_Suites_V2.0.0/GD32F30x_Firmware_Library/GD32F30x_standard_peripheral/Source\gd32f30x_timer.c ****         }
 971:C:/Users/49542/Desktop/GD32F30x_Demo_Suites_V2.0.0/GD32F30x_Demo_Suites_V2.0.0/GD32F30x_Firmware_Library/GD32F30x_standard_peripheral/Source\gd32f30x_timer.c ****         break;
 972:C:/Users/49542/Desktop/GD32F30x_Demo_Suites_V2.0.0/GD32F30x_Demo_Suites_V2.0.0/GD32F30x_Firmware_Library/GD32F30x_standard_peripheral/Source\gd32f30x_timer.c ****     default:
 973:C:/Users/49542/Desktop/GD32F30x_Demo_Suites_V2.0.0/GD32F30x_Demo_Suites_V2.0.0/GD32F30x_Firmware_Library/GD32F30x_standard_peripheral/Source\gd32f30x_timer.c ****         break;
 974:C:/Users/49542/Desktop/GD32F30x_Demo_Suites_V2.0.0/GD32F30x_Demo_Suites_V2.0.0/GD32F30x_Firmware_Library/GD32F30x_standard_peripheral/Source\gd32f30x_timer.c ****     }
 975:C:/Users/49542/Desktop/GD32F30x_Demo_Suites_V2.0.0/GD32F30x_Demo_Suites_V2.0.0/GD32F30x_Firmware_Library/GD32F30x_standard_peripheral/Source\gd32f30x_timer.c **** }
 1831              		.loc 1 975 0
 1832 01e2 7047     		bx	lr
 1833              	.L114:
 1834              		.align	2
 1835              	.L113:
 1836 01e4 002C0140 		.word	1073818624
 1837              		.cfi_endproc
 1838              	.LFE157:
 1840              		.section	.text.timer_channel_output_mode_config,"ax",%progbits
 1841              		.align	1
 1842              		.global	timer_channel_output_mode_config
 1843              		.syntax unified
 1844              		.thumb
 1845              		.thumb_func
 1846              		.fpu fpv4-sp-d16
 1848              	timer_channel_output_mode_config:
 1849              	.LFB158:
 976:C:/Users/49542/Desktop/GD32F30x_Demo_Suites_V2.0.0/GD32F30x_Demo_Suites_V2.0.0/GD32F30x_Firmware_Library/GD32F30x_standard_peripheral/Source\gd32f30x_timer.c **** 
ARM GAS  C:\Users\49542\AppData\Local\Temp\ccEBNRSE.s 			page 50


 977:C:/Users/49542/Desktop/GD32F30x_Demo_Suites_V2.0.0/GD32F30x_Demo_Suites_V2.0.0/GD32F30x_Firmware_Library/GD32F30x_standard_peripheral/Source\gd32f30x_timer.c **** /*!
 978:C:/Users/49542/Desktop/GD32F30x_Demo_Suites_V2.0.0/GD32F30x_Demo_Suites_V2.0.0/GD32F30x_Firmware_Library/GD32F30x_standard_peripheral/Source\gd32f30x_timer.c ****     \brief      configure TIMER channel output compare mode
 979:C:/Users/49542/Desktop/GD32F30x_Demo_Suites_V2.0.0/GD32F30x_Demo_Suites_V2.0.0/GD32F30x_Firmware_Library/GD32F30x_standard_peripheral/Source\gd32f30x_timer.c ****     \param[in]  timer_periph: please refer to the following parameters
 980:C:/Users/49542/Desktop/GD32F30x_Demo_Suites_V2.0.0/GD32F30x_Demo_Suites_V2.0.0/GD32F30x_Firmware_Library/GD32F30x_standard_peripheral/Source\gd32f30x_timer.c ****     \param[in]  channel: 
 981:C:/Users/49542/Desktop/GD32F30x_Demo_Suites_V2.0.0/GD32F30x_Demo_Suites_V2.0.0/GD32F30x_Firmware_Library/GD32F30x_standard_peripheral/Source\gd32f30x_timer.c ****                 only one parameter can be selected which is shown as below:
 982:C:/Users/49542/Desktop/GD32F30x_Demo_Suites_V2.0.0/GD32F30x_Demo_Suites_V2.0.0/GD32F30x_Firmware_Library/GD32F30x_standard_peripheral/Source\gd32f30x_timer.c ****       \arg        TIMER_CH_0: TIMER channel0(TIMERx(x=0..4,7..13))
 983:C:/Users/49542/Desktop/GD32F30x_Demo_Suites_V2.0.0/GD32F30x_Demo_Suites_V2.0.0/GD32F30x_Firmware_Library/GD32F30x_standard_peripheral/Source\gd32f30x_timer.c ****       \arg        TIMER_CH_1: TIMER channel1(TIMERx(x=0..4,7,8,11))
 984:C:/Users/49542/Desktop/GD32F30x_Demo_Suites_V2.0.0/GD32F30x_Demo_Suites_V2.0.0/GD32F30x_Firmware_Library/GD32F30x_standard_peripheral/Source\gd32f30x_timer.c ****       \arg        TIMER_CH_2: TIMER channel2(TIMERx(x=0..4,7))
 985:C:/Users/49542/Desktop/GD32F30x_Demo_Suites_V2.0.0/GD32F30x_Demo_Suites_V2.0.0/GD32F30x_Firmware_Library/GD32F30x_standard_peripheral/Source\gd32f30x_timer.c ****       \arg        TIMER_CH_3: TIMER channel3(TIMERx(x=0..4,7))
 986:C:/Users/49542/Desktop/GD32F30x_Demo_Suites_V2.0.0/GD32F30x_Demo_Suites_V2.0.0/GD32F30x_Firmware_Library/GD32F30x_standard_peripheral/Source\gd32f30x_timer.c ****     \param[in]  ocmode: channel output compare mode
 987:C:/Users/49542/Desktop/GD32F30x_Demo_Suites_V2.0.0/GD32F30x_Demo_Suites_V2.0.0/GD32F30x_Firmware_Library/GD32F30x_standard_peripheral/Source\gd32f30x_timer.c ****                 only one parameter can be selected which is shown as below:
 988:C:/Users/49542/Desktop/GD32F30x_Demo_Suites_V2.0.0/GD32F30x_Demo_Suites_V2.0.0/GD32F30x_Firmware_Library/GD32F30x_standard_peripheral/Source\gd32f30x_timer.c ****       \arg        TIMER_OC_MODE_TIMING: timing mode
 989:C:/Users/49542/Desktop/GD32F30x_Demo_Suites_V2.0.0/GD32F30x_Demo_Suites_V2.0.0/GD32F30x_Firmware_Library/GD32F30x_standard_peripheral/Source\gd32f30x_timer.c ****       \arg        TIMER_OC_MODE_ACTIVE: active mode
 990:C:/Users/49542/Desktop/GD32F30x_Demo_Suites_V2.0.0/GD32F30x_Demo_Suites_V2.0.0/GD32F30x_Firmware_Library/GD32F30x_standard_peripheral/Source\gd32f30x_timer.c ****       \arg        TIMER_OC_MODE_INACTIVE: inactive mode
 991:C:/Users/49542/Desktop/GD32F30x_Demo_Suites_V2.0.0/GD32F30x_Demo_Suites_V2.0.0/GD32F30x_Firmware_Library/GD32F30x_standard_peripheral/Source\gd32f30x_timer.c ****       \arg        TIMER_OC_MODE_TOGGLE: toggle mode
 992:C:/Users/49542/Desktop/GD32F30x_Demo_Suites_V2.0.0/GD32F30x_Demo_Suites_V2.0.0/GD32F30x_Firmware_Library/GD32F30x_standard_peripheral/Source\gd32f30x_timer.c ****       \arg        TIMER_OC_MODE_LOW: force low mode
 993:C:/Users/49542/Desktop/GD32F30x_Demo_Suites_V2.0.0/GD32F30x_Demo_Suites_V2.0.0/GD32F30x_Firmware_Library/GD32F30x_standard_peripheral/Source\gd32f30x_timer.c ****       \arg        TIMER_OC_MODE_HIGH: force high mode
 994:C:/Users/49542/Desktop/GD32F30x_Demo_Suites_V2.0.0/GD32F30x_Demo_Suites_V2.0.0/GD32F30x_Firmware_Library/GD32F30x_standard_peripheral/Source\gd32f30x_timer.c ****       \arg        TIMER_OC_MODE_PWM0: PWM0 mode
 995:C:/Users/49542/Desktop/GD32F30x_Demo_Suites_V2.0.0/GD32F30x_Demo_Suites_V2.0.0/GD32F30x_Firmware_Library/GD32F30x_standard_peripheral/Source\gd32f30x_timer.c ****       \arg        TIMER_OC_MODE_PWM1: PWM1 mode
 996:C:/Users/49542/Desktop/GD32F30x_Demo_Suites_V2.0.0/GD32F30x_Demo_Suites_V2.0.0/GD32F30x_Firmware_Library/GD32F30x_standard_peripheral/Source\gd32f30x_timer.c ****     \param[out] none
 997:C:/Users/49542/Desktop/GD32F30x_Demo_Suites_V2.0.0/GD32F30x_Demo_Suites_V2.0.0/GD32F30x_Firmware_Library/GD32F30x_standard_peripheral/Source\gd32f30x_timer.c ****     \retval     none
 998:C:/Users/49542/Desktop/GD32F30x_Demo_Suites_V2.0.0/GD32F30x_Demo_Suites_V2.0.0/GD32F30x_Firmware_Library/GD32F30x_standard_peripheral/Source\gd32f30x_timer.c **** */
 999:C:/Users/49542/Desktop/GD32F30x_Demo_Suites_V2.0.0/GD32F30x_Demo_Suites_V2.0.0/GD32F30x_Firmware_Library/GD32F30x_standard_peripheral/Source\gd32f30x_timer.c **** void timer_channel_output_mode_config(uint32_t timer_periph, uint16_t channel, uint16_t ocmode)
1000:C:/Users/49542/Desktop/GD32F30x_Demo_Suites_V2.0.0/GD32F30x_Demo_Suites_V2.0.0/GD32F30x_Firmware_Library/GD32F30x_standard_peripheral/Source\gd32f30x_timer.c **** {
 1850              		.loc 1 1000 0
 1851              		.cfi_startproc
 1852              		@ args = 0, pretend = 0, frame = 0
 1853              		@ frame_needed = 0, uses_anonymous_args = 0
 1854              		@ link register save eliminated.
 1855              	.LVL129:
1001:C:/Users/49542/Desktop/GD32F30x_Demo_Suites_V2.0.0/GD32F30x_Demo_Suites_V2.0.0/GD32F30x_Firmware_Library/GD32F30x_standard_peripheral/Source\gd32f30x_timer.c ****     switch(channel){
 1856              		.loc 1 1001 0
 1857 0000 0329     		cmp	r1, #3
 1858 0002 24D8     		bhi	.L115
 1859 0004 DFE801F0 		tbb	[pc, r1]
 1860              	.L118:
 1861 0008 02       		.byte	(.L117-.L118)/2
 1862 0009 0A       		.byte	(.L119-.L118)/2
 1863 000a 13       		.byte	(.L120-.L118)/2
 1864 000b 1B       		.byte	(.L121-.L118)/2
 1865              		.p2align 1
 1866              	.L117:
1002:C:/Users/49542/Desktop/GD32F30x_Demo_Suites_V2.0.0/GD32F30x_Demo_Suites_V2.0.0/GD32F30x_Firmware_Library/GD32F30x_standard_peripheral/Source\gd32f30x_timer.c ****     /* configure TIMER_CH_0 */
1003:C:/Users/49542/Desktop/GD32F30x_Demo_Suites_V2.0.0/GD32F30x_Demo_Suites_V2.0.0/GD32F30x_Firmware_Library/GD32F30x_standard_peripheral/Source\gd32f30x_timer.c ****     case TIMER_CH_0:
1004:C:/Users/49542/Desktop/GD32F30x_Demo_Suites_V2.0.0/GD32F30x_Demo_Suites_V2.0.0/GD32F30x_Firmware_Library/GD32F30x_standard_peripheral/Source\gd32f30x_timer.c ****         TIMER_CHCTL0(timer_periph) &= (~(uint32_t)TIMER_CHCTL0_CH0COMCTL);
 1867              		.loc 1 1004 0
 1868 000c 8369     		ldr	r3, [r0, #24]
 1869 000e 23F07003 		bic	r3, r3, #112
 1870 0012 8361     		str	r3, [r0, #24]
1005:C:/Users/49542/Desktop/GD32F30x_Demo_Suites_V2.0.0/GD32F30x_Demo_Suites_V2.0.0/GD32F30x_Firmware_Library/GD32F30x_standard_peripheral/Source\gd32f30x_timer.c ****         TIMER_CHCTL0(timer_periph) |= (uint32_t)ocmode;
 1871              		.loc 1 1005 0
 1872 0014 8369     		ldr	r3, [r0, #24]
 1873 0016 1A43     		orrs	r2, r2, r3
 1874              	.LVL130:
 1875 0018 8261     		str	r2, [r0, #24]
1006:C:/Users/49542/Desktop/GD32F30x_Demo_Suites_V2.0.0/GD32F30x_Demo_Suites_V2.0.0/GD32F30x_Firmware_Library/GD32F30x_standard_peripheral/Source\gd32f30x_timer.c ****         break;
 1876              		.loc 1 1006 0
ARM GAS  C:\Users\49542\AppData\Local\Temp\ccEBNRSE.s 			page 51


 1877 001a 7047     		bx	lr
 1878              	.LVL131:
 1879              	.L119:
1007:C:/Users/49542/Desktop/GD32F30x_Demo_Suites_V2.0.0/GD32F30x_Demo_Suites_V2.0.0/GD32F30x_Firmware_Library/GD32F30x_standard_peripheral/Source\gd32f30x_timer.c ****     /* configure TIMER_CH_1 */
1008:C:/Users/49542/Desktop/GD32F30x_Demo_Suites_V2.0.0/GD32F30x_Demo_Suites_V2.0.0/GD32F30x_Firmware_Library/GD32F30x_standard_peripheral/Source\gd32f30x_timer.c ****     case TIMER_CH_1:
1009:C:/Users/49542/Desktop/GD32F30x_Demo_Suites_V2.0.0/GD32F30x_Demo_Suites_V2.0.0/GD32F30x_Firmware_Library/GD32F30x_standard_peripheral/Source\gd32f30x_timer.c ****         TIMER_CHCTL0(timer_periph) &= (~(uint32_t)TIMER_CHCTL0_CH1COMCTL);
 1880              		.loc 1 1009 0
 1881 001c 8369     		ldr	r3, [r0, #24]
 1882 001e 23F4E043 		bic	r3, r3, #28672
 1883 0022 8361     		str	r3, [r0, #24]
1010:C:/Users/49542/Desktop/GD32F30x_Demo_Suites_V2.0.0/GD32F30x_Demo_Suites_V2.0.0/GD32F30x_Firmware_Library/GD32F30x_standard_peripheral/Source\gd32f30x_timer.c ****         TIMER_CHCTL0(timer_periph) |= (uint32_t)((uint32_t)(ocmode) << 8U);
 1884              		.loc 1 1010 0
 1885 0024 8369     		ldr	r3, [r0, #24]
 1886 0026 43EA0222 		orr	r2, r3, r2, lsl #8
 1887              	.LVL132:
 1888 002a 8261     		str	r2, [r0, #24]
1011:C:/Users/49542/Desktop/GD32F30x_Demo_Suites_V2.0.0/GD32F30x_Demo_Suites_V2.0.0/GD32F30x_Firmware_Library/GD32F30x_standard_peripheral/Source\gd32f30x_timer.c ****         break;
 1889              		.loc 1 1011 0
 1890 002c 7047     		bx	lr
 1891              	.LVL133:
 1892              	.L120:
1012:C:/Users/49542/Desktop/GD32F30x_Demo_Suites_V2.0.0/GD32F30x_Demo_Suites_V2.0.0/GD32F30x_Firmware_Library/GD32F30x_standard_peripheral/Source\gd32f30x_timer.c ****     /* configure TIMER_CH_2 */
1013:C:/Users/49542/Desktop/GD32F30x_Demo_Suites_V2.0.0/GD32F30x_Demo_Suites_V2.0.0/GD32F30x_Firmware_Library/GD32F30x_standard_peripheral/Source\gd32f30x_timer.c ****     case TIMER_CH_2:
1014:C:/Users/49542/Desktop/GD32F30x_Demo_Suites_V2.0.0/GD32F30x_Demo_Suites_V2.0.0/GD32F30x_Firmware_Library/GD32F30x_standard_peripheral/Source\gd32f30x_timer.c ****         TIMER_CHCTL1(timer_periph) &= (~(uint32_t)TIMER_CHCTL1_CH2COMCTL);
 1893              		.loc 1 1014 0
 1894 002e C369     		ldr	r3, [r0, #28]
 1895 0030 23F07003 		bic	r3, r3, #112
 1896 0034 C361     		str	r3, [r0, #28]
1015:C:/Users/49542/Desktop/GD32F30x_Demo_Suites_V2.0.0/GD32F30x_Demo_Suites_V2.0.0/GD32F30x_Firmware_Library/GD32F30x_standard_peripheral/Source\gd32f30x_timer.c ****         TIMER_CHCTL1(timer_periph) |= (uint32_t)ocmode;
 1897              		.loc 1 1015 0
 1898 0036 C369     		ldr	r3, [r0, #28]
 1899 0038 1A43     		orrs	r2, r2, r3
 1900              	.LVL134:
 1901 003a C261     		str	r2, [r0, #28]
1016:C:/Users/49542/Desktop/GD32F30x_Demo_Suites_V2.0.0/GD32F30x_Demo_Suites_V2.0.0/GD32F30x_Firmware_Library/GD32F30x_standard_peripheral/Source\gd32f30x_timer.c ****         break;
 1902              		.loc 1 1016 0
 1903 003c 7047     		bx	lr
 1904              	.LVL135:
 1905              	.L121:
1017:C:/Users/49542/Desktop/GD32F30x_Demo_Suites_V2.0.0/GD32F30x_Demo_Suites_V2.0.0/GD32F30x_Firmware_Library/GD32F30x_standard_peripheral/Source\gd32f30x_timer.c ****     /* configure TIMER_CH_3 */
1018:C:/Users/49542/Desktop/GD32F30x_Demo_Suites_V2.0.0/GD32F30x_Demo_Suites_V2.0.0/GD32F30x_Firmware_Library/GD32F30x_standard_peripheral/Source\gd32f30x_timer.c ****     case TIMER_CH_3:
1019:C:/Users/49542/Desktop/GD32F30x_Demo_Suites_V2.0.0/GD32F30x_Demo_Suites_V2.0.0/GD32F30x_Firmware_Library/GD32F30x_standard_peripheral/Source\gd32f30x_timer.c ****         TIMER_CHCTL1(timer_periph) &= (~(uint32_t)TIMER_CHCTL1_CH3COMCTL);
 1906              		.loc 1 1019 0
 1907 003e C369     		ldr	r3, [r0, #28]
 1908 0040 23F4E043 		bic	r3, r3, #28672
 1909 0044 C361     		str	r3, [r0, #28]
1020:C:/Users/49542/Desktop/GD32F30x_Demo_Suites_V2.0.0/GD32F30x_Demo_Suites_V2.0.0/GD32F30x_Firmware_Library/GD32F30x_standard_peripheral/Source\gd32f30x_timer.c ****         TIMER_CHCTL1(timer_periph) |= (uint32_t)((uint32_t)(ocmode) << 8U);
 1910              		.loc 1 1020 0
 1911 0046 C369     		ldr	r3, [r0, #28]
 1912 0048 43EA0222 		orr	r2, r3, r2, lsl #8
 1913              	.LVL136:
 1914 004c C261     		str	r2, [r0, #28]
 1915              	.L115:
1021:C:/Users/49542/Desktop/GD32F30x_Demo_Suites_V2.0.0/GD32F30x_Demo_Suites_V2.0.0/GD32F30x_Firmware_Library/GD32F30x_standard_peripheral/Source\gd32f30x_timer.c ****         break;
1022:C:/Users/49542/Desktop/GD32F30x_Demo_Suites_V2.0.0/GD32F30x_Demo_Suites_V2.0.0/GD32F30x_Firmware_Library/GD32F30x_standard_peripheral/Source\gd32f30x_timer.c ****     default:
1023:C:/Users/49542/Desktop/GD32F30x_Demo_Suites_V2.0.0/GD32F30x_Demo_Suites_V2.0.0/GD32F30x_Firmware_Library/GD32F30x_standard_peripheral/Source\gd32f30x_timer.c ****         break;
1024:C:/Users/49542/Desktop/GD32F30x_Demo_Suites_V2.0.0/GD32F30x_Demo_Suites_V2.0.0/GD32F30x_Firmware_Library/GD32F30x_standard_peripheral/Source\gd32f30x_timer.c ****     }
ARM GAS  C:\Users\49542\AppData\Local\Temp\ccEBNRSE.s 			page 52


1025:C:/Users/49542/Desktop/GD32F30x_Demo_Suites_V2.0.0/GD32F30x_Demo_Suites_V2.0.0/GD32F30x_Firmware_Library/GD32F30x_standard_peripheral/Source\gd32f30x_timer.c **** }
 1916              		.loc 1 1025 0
 1917 004e 7047     		bx	lr
 1918              		.cfi_endproc
 1919              	.LFE158:
 1921              		.section	.text.timer_channel_output_pulse_value_config,"ax",%progbits
 1922              		.align	1
 1923              		.global	timer_channel_output_pulse_value_config
 1924              		.syntax unified
 1925              		.thumb
 1926              		.thumb_func
 1927              		.fpu fpv4-sp-d16
 1929              	timer_channel_output_pulse_value_config:
 1930              	.LFB159:
1026:C:/Users/49542/Desktop/GD32F30x_Demo_Suites_V2.0.0/GD32F30x_Demo_Suites_V2.0.0/GD32F30x_Firmware_Library/GD32F30x_standard_peripheral/Source\gd32f30x_timer.c **** 
1027:C:/Users/49542/Desktop/GD32F30x_Demo_Suites_V2.0.0/GD32F30x_Demo_Suites_V2.0.0/GD32F30x_Firmware_Library/GD32F30x_standard_peripheral/Source\gd32f30x_timer.c **** /*!
1028:C:/Users/49542/Desktop/GD32F30x_Demo_Suites_V2.0.0/GD32F30x_Demo_Suites_V2.0.0/GD32F30x_Firmware_Library/GD32F30x_standard_peripheral/Source\gd32f30x_timer.c ****     \brief      configure TIMER channel output pulse value
1029:C:/Users/49542/Desktop/GD32F30x_Demo_Suites_V2.0.0/GD32F30x_Demo_Suites_V2.0.0/GD32F30x_Firmware_Library/GD32F30x_standard_peripheral/Source\gd32f30x_timer.c ****     \param[in]  timer_periph: please refer to the following parameters
1030:C:/Users/49542/Desktop/GD32F30x_Demo_Suites_V2.0.0/GD32F30x_Demo_Suites_V2.0.0/GD32F30x_Firmware_Library/GD32F30x_standard_peripheral/Source\gd32f30x_timer.c ****     \param[in]  channel:
1031:C:/Users/49542/Desktop/GD32F30x_Demo_Suites_V2.0.0/GD32F30x_Demo_Suites_V2.0.0/GD32F30x_Firmware_Library/GD32F30x_standard_peripheral/Source\gd32f30x_timer.c ****                 only one parameter can be selected which is shown as below:
1032:C:/Users/49542/Desktop/GD32F30x_Demo_Suites_V2.0.0/GD32F30x_Demo_Suites_V2.0.0/GD32F30x_Firmware_Library/GD32F30x_standard_peripheral/Source\gd32f30x_timer.c ****       \arg        TIMER_CH_0: TIMER channel0(TIMERx(x=0..4,7..13))
1033:C:/Users/49542/Desktop/GD32F30x_Demo_Suites_V2.0.0/GD32F30x_Demo_Suites_V2.0.0/GD32F30x_Firmware_Library/GD32F30x_standard_peripheral/Source\gd32f30x_timer.c ****       \arg        TIMER_CH_1: TIMER channel1(TIMERx(x=0..4,7,8,11))
1034:C:/Users/49542/Desktop/GD32F30x_Demo_Suites_V2.0.0/GD32F30x_Demo_Suites_V2.0.0/GD32F30x_Firmware_Library/GD32F30x_standard_peripheral/Source\gd32f30x_timer.c ****       \arg        TIMER_CH_2: TIMER channel2(TIMERx(x=0..4,7))
1035:C:/Users/49542/Desktop/GD32F30x_Demo_Suites_V2.0.0/GD32F30x_Demo_Suites_V2.0.0/GD32F30x_Firmware_Library/GD32F30x_standard_peripheral/Source\gd32f30x_timer.c ****       \arg        TIMER_CH_3: TIMER channel3(TIMERx(x=0..4,7))
1036:C:/Users/49542/Desktop/GD32F30x_Demo_Suites_V2.0.0/GD32F30x_Demo_Suites_V2.0.0/GD32F30x_Firmware_Library/GD32F30x_standard_peripheral/Source\gd32f30x_timer.c ****     \param[in]  pulse: channel output pulse value,0~65535
1037:C:/Users/49542/Desktop/GD32F30x_Demo_Suites_V2.0.0/GD32F30x_Demo_Suites_V2.0.0/GD32F30x_Firmware_Library/GD32F30x_standard_peripheral/Source\gd32f30x_timer.c ****     \param[out] none
1038:C:/Users/49542/Desktop/GD32F30x_Demo_Suites_V2.0.0/GD32F30x_Demo_Suites_V2.0.0/GD32F30x_Firmware_Library/GD32F30x_standard_peripheral/Source\gd32f30x_timer.c ****     \retval     none
1039:C:/Users/49542/Desktop/GD32F30x_Demo_Suites_V2.0.0/GD32F30x_Demo_Suites_V2.0.0/GD32F30x_Firmware_Library/GD32F30x_standard_peripheral/Source\gd32f30x_timer.c **** */
1040:C:/Users/49542/Desktop/GD32F30x_Demo_Suites_V2.0.0/GD32F30x_Demo_Suites_V2.0.0/GD32F30x_Firmware_Library/GD32F30x_standard_peripheral/Source\gd32f30x_timer.c **** void timer_channel_output_pulse_value_config(uint32_t timer_periph, uint16_t channel, uint32_t puls
1041:C:/Users/49542/Desktop/GD32F30x_Demo_Suites_V2.0.0/GD32F30x_Demo_Suites_V2.0.0/GD32F30x_Firmware_Library/GD32F30x_standard_peripheral/Source\gd32f30x_timer.c **** {
 1931              		.loc 1 1041 0
 1932              		.cfi_startproc
 1933              		@ args = 0, pretend = 0, frame = 0
 1934              		@ frame_needed = 0, uses_anonymous_args = 0
 1935              		@ link register save eliminated.
 1936              	.LVL137:
1042:C:/Users/49542/Desktop/GD32F30x_Demo_Suites_V2.0.0/GD32F30x_Demo_Suites_V2.0.0/GD32F30x_Firmware_Library/GD32F30x_standard_peripheral/Source\gd32f30x_timer.c ****     switch(channel){
 1937              		.loc 1 1042 0
 1938 0000 0329     		cmp	r1, #3
 1939 0002 0AD8     		bhi	.L122
 1940 0004 DFE801F0 		tbb	[pc, r1]
 1941              	.L125:
 1942 0008 02       		.byte	(.L124-.L125)/2
 1943 0009 04       		.byte	(.L126-.L125)/2
 1944 000a 06       		.byte	(.L127-.L125)/2
 1945 000b 08       		.byte	(.L128-.L125)/2
 1946              		.p2align 1
 1947              	.L124:
1043:C:/Users/49542/Desktop/GD32F30x_Demo_Suites_V2.0.0/GD32F30x_Demo_Suites_V2.0.0/GD32F30x_Firmware_Library/GD32F30x_standard_peripheral/Source\gd32f30x_timer.c ****     /* configure TIMER_CH_0 */
1044:C:/Users/49542/Desktop/GD32F30x_Demo_Suites_V2.0.0/GD32F30x_Demo_Suites_V2.0.0/GD32F30x_Firmware_Library/GD32F30x_standard_peripheral/Source\gd32f30x_timer.c ****     case TIMER_CH_0:
1045:C:/Users/49542/Desktop/GD32F30x_Demo_Suites_V2.0.0/GD32F30x_Demo_Suites_V2.0.0/GD32F30x_Firmware_Library/GD32F30x_standard_peripheral/Source\gd32f30x_timer.c ****         TIMER_CH0CV(timer_periph) = (uint32_t)pulse;
 1948              		.loc 1 1045 0
 1949 000c 4263     		str	r2, [r0, #52]
1046:C:/Users/49542/Desktop/GD32F30x_Demo_Suites_V2.0.0/GD32F30x_Demo_Suites_V2.0.0/GD32F30x_Firmware_Library/GD32F30x_standard_peripheral/Source\gd32f30x_timer.c ****         break;
 1950              		.loc 1 1046 0
 1951 000e 7047     		bx	lr
 1952              	.L126:
ARM GAS  C:\Users\49542\AppData\Local\Temp\ccEBNRSE.s 			page 53


1047:C:/Users/49542/Desktop/GD32F30x_Demo_Suites_V2.0.0/GD32F30x_Demo_Suites_V2.0.0/GD32F30x_Firmware_Library/GD32F30x_standard_peripheral/Source\gd32f30x_timer.c ****     /* configure TIMER_CH_1 */
1048:C:/Users/49542/Desktop/GD32F30x_Demo_Suites_V2.0.0/GD32F30x_Demo_Suites_V2.0.0/GD32F30x_Firmware_Library/GD32F30x_standard_peripheral/Source\gd32f30x_timer.c ****     case TIMER_CH_1:
1049:C:/Users/49542/Desktop/GD32F30x_Demo_Suites_V2.0.0/GD32F30x_Demo_Suites_V2.0.0/GD32F30x_Firmware_Library/GD32F30x_standard_peripheral/Source\gd32f30x_timer.c ****         TIMER_CH1CV(timer_periph) = (uint32_t)pulse;
 1953              		.loc 1 1049 0
 1954 0010 8263     		str	r2, [r0, #56]
1050:C:/Users/49542/Desktop/GD32F30x_Demo_Suites_V2.0.0/GD32F30x_Demo_Suites_V2.0.0/GD32F30x_Firmware_Library/GD32F30x_standard_peripheral/Source\gd32f30x_timer.c ****         break;
 1955              		.loc 1 1050 0
 1956 0012 7047     		bx	lr
 1957              	.L127:
1051:C:/Users/49542/Desktop/GD32F30x_Demo_Suites_V2.0.0/GD32F30x_Demo_Suites_V2.0.0/GD32F30x_Firmware_Library/GD32F30x_standard_peripheral/Source\gd32f30x_timer.c ****     /* configure TIMER_CH_2 */
1052:C:/Users/49542/Desktop/GD32F30x_Demo_Suites_V2.0.0/GD32F30x_Demo_Suites_V2.0.0/GD32F30x_Firmware_Library/GD32F30x_standard_peripheral/Source\gd32f30x_timer.c ****     case TIMER_CH_2:
1053:C:/Users/49542/Desktop/GD32F30x_Demo_Suites_V2.0.0/GD32F30x_Demo_Suites_V2.0.0/GD32F30x_Firmware_Library/GD32F30x_standard_peripheral/Source\gd32f30x_timer.c ****         TIMER_CH2CV(timer_periph) = (uint32_t)pulse;
 1958              		.loc 1 1053 0
 1959 0014 C263     		str	r2, [r0, #60]
1054:C:/Users/49542/Desktop/GD32F30x_Demo_Suites_V2.0.0/GD32F30x_Demo_Suites_V2.0.0/GD32F30x_Firmware_Library/GD32F30x_standard_peripheral/Source\gd32f30x_timer.c ****         break;
 1960              		.loc 1 1054 0
 1961 0016 7047     		bx	lr
 1962              	.L128:
1055:C:/Users/49542/Desktop/GD32F30x_Demo_Suites_V2.0.0/GD32F30x_Demo_Suites_V2.0.0/GD32F30x_Firmware_Library/GD32F30x_standard_peripheral/Source\gd32f30x_timer.c ****     /* configure TIMER_CH_3 */
1056:C:/Users/49542/Desktop/GD32F30x_Demo_Suites_V2.0.0/GD32F30x_Demo_Suites_V2.0.0/GD32F30x_Firmware_Library/GD32F30x_standard_peripheral/Source\gd32f30x_timer.c ****     case TIMER_CH_3:
1057:C:/Users/49542/Desktop/GD32F30x_Demo_Suites_V2.0.0/GD32F30x_Demo_Suites_V2.0.0/GD32F30x_Firmware_Library/GD32F30x_standard_peripheral/Source\gd32f30x_timer.c ****          TIMER_CH3CV(timer_periph) = (uint32_t)pulse;
 1963              		.loc 1 1057 0
 1964 0018 0264     		str	r2, [r0, #64]
 1965              	.L122:
1058:C:/Users/49542/Desktop/GD32F30x_Demo_Suites_V2.0.0/GD32F30x_Demo_Suites_V2.0.0/GD32F30x_Firmware_Library/GD32F30x_standard_peripheral/Source\gd32f30x_timer.c ****         break;
1059:C:/Users/49542/Desktop/GD32F30x_Demo_Suites_V2.0.0/GD32F30x_Demo_Suites_V2.0.0/GD32F30x_Firmware_Library/GD32F30x_standard_peripheral/Source\gd32f30x_timer.c ****     default:
1060:C:/Users/49542/Desktop/GD32F30x_Demo_Suites_V2.0.0/GD32F30x_Demo_Suites_V2.0.0/GD32F30x_Firmware_Library/GD32F30x_standard_peripheral/Source\gd32f30x_timer.c ****         break;
1061:C:/Users/49542/Desktop/GD32F30x_Demo_Suites_V2.0.0/GD32F30x_Demo_Suites_V2.0.0/GD32F30x_Firmware_Library/GD32F30x_standard_peripheral/Source\gd32f30x_timer.c ****     }
1062:C:/Users/49542/Desktop/GD32F30x_Demo_Suites_V2.0.0/GD32F30x_Demo_Suites_V2.0.0/GD32F30x_Firmware_Library/GD32F30x_standard_peripheral/Source\gd32f30x_timer.c **** }
 1966              		.loc 1 1062 0
 1967 001a 7047     		bx	lr
 1968              		.cfi_endproc
 1969              	.LFE159:
 1971              		.section	.text.timer_channel_output_shadow_config,"ax",%progbits
 1972              		.align	1
 1973              		.global	timer_channel_output_shadow_config
 1974              		.syntax unified
 1975              		.thumb
 1976              		.thumb_func
 1977              		.fpu fpv4-sp-d16
 1979              	timer_channel_output_shadow_config:
 1980              	.LFB160:
1063:C:/Users/49542/Desktop/GD32F30x_Demo_Suites_V2.0.0/GD32F30x_Demo_Suites_V2.0.0/GD32F30x_Firmware_Library/GD32F30x_standard_peripheral/Source\gd32f30x_timer.c **** 
1064:C:/Users/49542/Desktop/GD32F30x_Demo_Suites_V2.0.0/GD32F30x_Demo_Suites_V2.0.0/GD32F30x_Firmware_Library/GD32F30x_standard_peripheral/Source\gd32f30x_timer.c **** /*!
1065:C:/Users/49542/Desktop/GD32F30x_Demo_Suites_V2.0.0/GD32F30x_Demo_Suites_V2.0.0/GD32F30x_Firmware_Library/GD32F30x_standard_peripheral/Source\gd32f30x_timer.c ****     \brief      configure TIMER channel output shadow function
1066:C:/Users/49542/Desktop/GD32F30x_Demo_Suites_V2.0.0/GD32F30x_Demo_Suites_V2.0.0/GD32F30x_Firmware_Library/GD32F30x_standard_peripheral/Source\gd32f30x_timer.c ****     \param[in]  timer_periph: please refer to the following parameters
1067:C:/Users/49542/Desktop/GD32F30x_Demo_Suites_V2.0.0/GD32F30x_Demo_Suites_V2.0.0/GD32F30x_Firmware_Library/GD32F30x_standard_peripheral/Source\gd32f30x_timer.c ****     \param[in]  channel:
1068:C:/Users/49542/Desktop/GD32F30x_Demo_Suites_V2.0.0/GD32F30x_Demo_Suites_V2.0.0/GD32F30x_Firmware_Library/GD32F30x_standard_peripheral/Source\gd32f30x_timer.c ****                 only one parameter can be selected which is shown as below:
1069:C:/Users/49542/Desktop/GD32F30x_Demo_Suites_V2.0.0/GD32F30x_Demo_Suites_V2.0.0/GD32F30x_Firmware_Library/GD32F30x_standard_peripheral/Source\gd32f30x_timer.c ****       \arg        TIMER_CH_0: TIMER channel0(TIMERx(x=0..4,7..13))
1070:C:/Users/49542/Desktop/GD32F30x_Demo_Suites_V2.0.0/GD32F30x_Demo_Suites_V2.0.0/GD32F30x_Firmware_Library/GD32F30x_standard_peripheral/Source\gd32f30x_timer.c ****       \arg        TIMER_CH_1: TIMER channel1(TIMERx(x=0..4,7,8,11))
1071:C:/Users/49542/Desktop/GD32F30x_Demo_Suites_V2.0.0/GD32F30x_Demo_Suites_V2.0.0/GD32F30x_Firmware_Library/GD32F30x_standard_peripheral/Source\gd32f30x_timer.c ****       \arg        TIMER_CH_2: TIMER channel2(TIMERx(x=0..4,7))
1072:C:/Users/49542/Desktop/GD32F30x_Demo_Suites_V2.0.0/GD32F30x_Demo_Suites_V2.0.0/GD32F30x_Firmware_Library/GD32F30x_standard_peripheral/Source\gd32f30x_timer.c ****       \arg        TIMER_CH_3: TIMER channel3(TIMERx(x=0..4,7))
1073:C:/Users/49542/Desktop/GD32F30x_Demo_Suites_V2.0.0/GD32F30x_Demo_Suites_V2.0.0/GD32F30x_Firmware_Library/GD32F30x_standard_peripheral/Source\gd32f30x_timer.c ****     \param[in]  ocshadow: channel output shadow state
1074:C:/Users/49542/Desktop/GD32F30x_Demo_Suites_V2.0.0/GD32F30x_Demo_Suites_V2.0.0/GD32F30x_Firmware_Library/GD32F30x_standard_peripheral/Source\gd32f30x_timer.c ****                 only one parameter can be selected which is shown as below:
1075:C:/Users/49542/Desktop/GD32F30x_Demo_Suites_V2.0.0/GD32F30x_Demo_Suites_V2.0.0/GD32F30x_Firmware_Library/GD32F30x_standard_peripheral/Source\gd32f30x_timer.c ****       \arg        TIMER_OC_SHADOW_ENABLE: channel output shadow state enable
1076:C:/Users/49542/Desktop/GD32F30x_Demo_Suites_V2.0.0/GD32F30x_Demo_Suites_V2.0.0/GD32F30x_Firmware_Library/GD32F30x_standard_peripheral/Source\gd32f30x_timer.c ****       \arg        TIMER_OC_SHADOW_DISABLE: channel output shadow state disable
1077:C:/Users/49542/Desktop/GD32F30x_Demo_Suites_V2.0.0/GD32F30x_Demo_Suites_V2.0.0/GD32F30x_Firmware_Library/GD32F30x_standard_peripheral/Source\gd32f30x_timer.c ****     \param[out] none
ARM GAS  C:\Users\49542\AppData\Local\Temp\ccEBNRSE.s 			page 54


1078:C:/Users/49542/Desktop/GD32F30x_Demo_Suites_V2.0.0/GD32F30x_Demo_Suites_V2.0.0/GD32F30x_Firmware_Library/GD32F30x_standard_peripheral/Source\gd32f30x_timer.c ****     \retval     none
1079:C:/Users/49542/Desktop/GD32F30x_Demo_Suites_V2.0.0/GD32F30x_Demo_Suites_V2.0.0/GD32F30x_Firmware_Library/GD32F30x_standard_peripheral/Source\gd32f30x_timer.c **** */
1080:C:/Users/49542/Desktop/GD32F30x_Demo_Suites_V2.0.0/GD32F30x_Demo_Suites_V2.0.0/GD32F30x_Firmware_Library/GD32F30x_standard_peripheral/Source\gd32f30x_timer.c **** void timer_channel_output_shadow_config(uint32_t timer_periph, uint16_t channel, uint16_t ocshadow)
1081:C:/Users/49542/Desktop/GD32F30x_Demo_Suites_V2.0.0/GD32F30x_Demo_Suites_V2.0.0/GD32F30x_Firmware_Library/GD32F30x_standard_peripheral/Source\gd32f30x_timer.c **** {
 1981              		.loc 1 1081 0
 1982              		.cfi_startproc
 1983              		@ args = 0, pretend = 0, frame = 0
 1984              		@ frame_needed = 0, uses_anonymous_args = 0
 1985              		@ link register save eliminated.
 1986              	.LVL138:
1082:C:/Users/49542/Desktop/GD32F30x_Demo_Suites_V2.0.0/GD32F30x_Demo_Suites_V2.0.0/GD32F30x_Firmware_Library/GD32F30x_standard_peripheral/Source\gd32f30x_timer.c ****     switch(channel){
 1987              		.loc 1 1082 0
 1988 0000 0329     		cmp	r1, #3
 1989 0002 24D8     		bhi	.L129
 1990 0004 DFE801F0 		tbb	[pc, r1]
 1991              	.L132:
 1992 0008 02       		.byte	(.L131-.L132)/2
 1993 0009 0A       		.byte	(.L133-.L132)/2
 1994 000a 13       		.byte	(.L134-.L132)/2
 1995 000b 1B       		.byte	(.L135-.L132)/2
 1996              		.p2align 1
 1997              	.L131:
1083:C:/Users/49542/Desktop/GD32F30x_Demo_Suites_V2.0.0/GD32F30x_Demo_Suites_V2.0.0/GD32F30x_Firmware_Library/GD32F30x_standard_peripheral/Source\gd32f30x_timer.c ****     /* configure TIMER_CH_0 */
1084:C:/Users/49542/Desktop/GD32F30x_Demo_Suites_V2.0.0/GD32F30x_Demo_Suites_V2.0.0/GD32F30x_Firmware_Library/GD32F30x_standard_peripheral/Source\gd32f30x_timer.c ****     case TIMER_CH_0:
1085:C:/Users/49542/Desktop/GD32F30x_Demo_Suites_V2.0.0/GD32F30x_Demo_Suites_V2.0.0/GD32F30x_Firmware_Library/GD32F30x_standard_peripheral/Source\gd32f30x_timer.c ****         TIMER_CHCTL0(timer_periph) &= (~(uint32_t)TIMER_CHCTL0_CH0COMSEN);
 1998              		.loc 1 1085 0
 1999 000c 8369     		ldr	r3, [r0, #24]
 2000 000e 23F00803 		bic	r3, r3, #8
 2001 0012 8361     		str	r3, [r0, #24]
1086:C:/Users/49542/Desktop/GD32F30x_Demo_Suites_V2.0.0/GD32F30x_Demo_Suites_V2.0.0/GD32F30x_Firmware_Library/GD32F30x_standard_peripheral/Source\gd32f30x_timer.c ****         TIMER_CHCTL0(timer_periph) |= (uint32_t)ocshadow;
 2002              		.loc 1 1086 0
 2003 0014 8369     		ldr	r3, [r0, #24]
 2004 0016 1A43     		orrs	r2, r2, r3
 2005              	.LVL139:
 2006 0018 8261     		str	r2, [r0, #24]
1087:C:/Users/49542/Desktop/GD32F30x_Demo_Suites_V2.0.0/GD32F30x_Demo_Suites_V2.0.0/GD32F30x_Firmware_Library/GD32F30x_standard_peripheral/Source\gd32f30x_timer.c ****         break;
 2007              		.loc 1 1087 0
 2008 001a 7047     		bx	lr
 2009              	.LVL140:
 2010              	.L133:
1088:C:/Users/49542/Desktop/GD32F30x_Demo_Suites_V2.0.0/GD32F30x_Demo_Suites_V2.0.0/GD32F30x_Firmware_Library/GD32F30x_standard_peripheral/Source\gd32f30x_timer.c ****     /* configure TIMER_CH_1 */
1089:C:/Users/49542/Desktop/GD32F30x_Demo_Suites_V2.0.0/GD32F30x_Demo_Suites_V2.0.0/GD32F30x_Firmware_Library/GD32F30x_standard_peripheral/Source\gd32f30x_timer.c ****     case TIMER_CH_1:
1090:C:/Users/49542/Desktop/GD32F30x_Demo_Suites_V2.0.0/GD32F30x_Demo_Suites_V2.0.0/GD32F30x_Firmware_Library/GD32F30x_standard_peripheral/Source\gd32f30x_timer.c ****         TIMER_CHCTL0(timer_periph) &= (~(uint32_t)TIMER_CHCTL0_CH1COMSEN);
 2011              		.loc 1 1090 0
 2012 001c 8369     		ldr	r3, [r0, #24]
 2013 001e 23F40063 		bic	r3, r3, #2048
 2014 0022 8361     		str	r3, [r0, #24]
1091:C:/Users/49542/Desktop/GD32F30x_Demo_Suites_V2.0.0/GD32F30x_Demo_Suites_V2.0.0/GD32F30x_Firmware_Library/GD32F30x_standard_peripheral/Source\gd32f30x_timer.c ****         TIMER_CHCTL0(timer_periph) |= (uint32_t)((uint32_t)(ocshadow) << 8U);
 2015              		.loc 1 1091 0
 2016 0024 8369     		ldr	r3, [r0, #24]
 2017 0026 43EA0222 		orr	r2, r3, r2, lsl #8
 2018              	.LVL141:
 2019 002a 8261     		str	r2, [r0, #24]
1092:C:/Users/49542/Desktop/GD32F30x_Demo_Suites_V2.0.0/GD32F30x_Demo_Suites_V2.0.0/GD32F30x_Firmware_Library/GD32F30x_standard_peripheral/Source\gd32f30x_timer.c ****         break;
 2020              		.loc 1 1092 0
 2021 002c 7047     		bx	lr
 2022              	.LVL142:
ARM GAS  C:\Users\49542\AppData\Local\Temp\ccEBNRSE.s 			page 55


 2023              	.L134:
1093:C:/Users/49542/Desktop/GD32F30x_Demo_Suites_V2.0.0/GD32F30x_Demo_Suites_V2.0.0/GD32F30x_Firmware_Library/GD32F30x_standard_peripheral/Source\gd32f30x_timer.c ****     /* configure TIMER_CH_2 */
1094:C:/Users/49542/Desktop/GD32F30x_Demo_Suites_V2.0.0/GD32F30x_Demo_Suites_V2.0.0/GD32F30x_Firmware_Library/GD32F30x_standard_peripheral/Source\gd32f30x_timer.c ****     case TIMER_CH_2:
1095:C:/Users/49542/Desktop/GD32F30x_Demo_Suites_V2.0.0/GD32F30x_Demo_Suites_V2.0.0/GD32F30x_Firmware_Library/GD32F30x_standard_peripheral/Source\gd32f30x_timer.c ****         TIMER_CHCTL1(timer_periph) &= (~(uint32_t)TIMER_CHCTL1_CH2COMSEN);
 2024              		.loc 1 1095 0
 2025 002e C369     		ldr	r3, [r0, #28]
 2026 0030 23F00803 		bic	r3, r3, #8
 2027 0034 C361     		str	r3, [r0, #28]
1096:C:/Users/49542/Desktop/GD32F30x_Demo_Suites_V2.0.0/GD32F30x_Demo_Suites_V2.0.0/GD32F30x_Firmware_Library/GD32F30x_standard_peripheral/Source\gd32f30x_timer.c ****         TIMER_CHCTL1(timer_periph) |= (uint32_t)ocshadow;
 2028              		.loc 1 1096 0
 2029 0036 C369     		ldr	r3, [r0, #28]
 2030 0038 1A43     		orrs	r2, r2, r3
 2031              	.LVL143:
 2032 003a C261     		str	r2, [r0, #28]
1097:C:/Users/49542/Desktop/GD32F30x_Demo_Suites_V2.0.0/GD32F30x_Demo_Suites_V2.0.0/GD32F30x_Firmware_Library/GD32F30x_standard_peripheral/Source\gd32f30x_timer.c ****         break;
 2033              		.loc 1 1097 0
 2034 003c 7047     		bx	lr
 2035              	.LVL144:
 2036              	.L135:
1098:C:/Users/49542/Desktop/GD32F30x_Demo_Suites_V2.0.0/GD32F30x_Demo_Suites_V2.0.0/GD32F30x_Firmware_Library/GD32F30x_standard_peripheral/Source\gd32f30x_timer.c ****     /* configure TIMER_CH_3 */
1099:C:/Users/49542/Desktop/GD32F30x_Demo_Suites_V2.0.0/GD32F30x_Demo_Suites_V2.0.0/GD32F30x_Firmware_Library/GD32F30x_standard_peripheral/Source\gd32f30x_timer.c ****     case TIMER_CH_3:
1100:C:/Users/49542/Desktop/GD32F30x_Demo_Suites_V2.0.0/GD32F30x_Demo_Suites_V2.0.0/GD32F30x_Firmware_Library/GD32F30x_standard_peripheral/Source\gd32f30x_timer.c ****         TIMER_CHCTL1(timer_periph) &= (~(uint32_t)TIMER_CHCTL1_CH3COMSEN);
 2037              		.loc 1 1100 0
 2038 003e C369     		ldr	r3, [r0, #28]
 2039 0040 23F40063 		bic	r3, r3, #2048
 2040 0044 C361     		str	r3, [r0, #28]
1101:C:/Users/49542/Desktop/GD32F30x_Demo_Suites_V2.0.0/GD32F30x_Demo_Suites_V2.0.0/GD32F30x_Firmware_Library/GD32F30x_standard_peripheral/Source\gd32f30x_timer.c ****         TIMER_CHCTL1(timer_periph) |= (uint32_t)((uint32_t)(ocshadow) << 8U);
 2041              		.loc 1 1101 0
 2042 0046 C369     		ldr	r3, [r0, #28]
 2043 0048 43EA0222 		orr	r2, r3, r2, lsl #8
 2044              	.LVL145:
 2045 004c C261     		str	r2, [r0, #28]
 2046              	.L129:
1102:C:/Users/49542/Desktop/GD32F30x_Demo_Suites_V2.0.0/GD32F30x_Demo_Suites_V2.0.0/GD32F30x_Firmware_Library/GD32F30x_standard_peripheral/Source\gd32f30x_timer.c ****         break;
1103:C:/Users/49542/Desktop/GD32F30x_Demo_Suites_V2.0.0/GD32F30x_Demo_Suites_V2.0.0/GD32F30x_Firmware_Library/GD32F30x_standard_peripheral/Source\gd32f30x_timer.c ****     default:
1104:C:/Users/49542/Desktop/GD32F30x_Demo_Suites_V2.0.0/GD32F30x_Demo_Suites_V2.0.0/GD32F30x_Firmware_Library/GD32F30x_standard_peripheral/Source\gd32f30x_timer.c ****         break;
1105:C:/Users/49542/Desktop/GD32F30x_Demo_Suites_V2.0.0/GD32F30x_Demo_Suites_V2.0.0/GD32F30x_Firmware_Library/GD32F30x_standard_peripheral/Source\gd32f30x_timer.c ****     }
1106:C:/Users/49542/Desktop/GD32F30x_Demo_Suites_V2.0.0/GD32F30x_Demo_Suites_V2.0.0/GD32F30x_Firmware_Library/GD32F30x_standard_peripheral/Source\gd32f30x_timer.c **** }
 2047              		.loc 1 1106 0
 2048 004e 7047     		bx	lr
 2049              		.cfi_endproc
 2050              	.LFE160:
 2052              		.section	.text.timer_channel_output_fast_config,"ax",%progbits
 2053              		.align	1
 2054              		.global	timer_channel_output_fast_config
 2055              		.syntax unified
 2056              		.thumb
 2057              		.thumb_func
 2058              		.fpu fpv4-sp-d16
 2060              	timer_channel_output_fast_config:
 2061              	.LFB161:
1107:C:/Users/49542/Desktop/GD32F30x_Demo_Suites_V2.0.0/GD32F30x_Demo_Suites_V2.0.0/GD32F30x_Firmware_Library/GD32F30x_standard_peripheral/Source\gd32f30x_timer.c **** 
1108:C:/Users/49542/Desktop/GD32F30x_Demo_Suites_V2.0.0/GD32F30x_Demo_Suites_V2.0.0/GD32F30x_Firmware_Library/GD32F30x_standard_peripheral/Source\gd32f30x_timer.c **** /*!
1109:C:/Users/49542/Desktop/GD32F30x_Demo_Suites_V2.0.0/GD32F30x_Demo_Suites_V2.0.0/GD32F30x_Firmware_Library/GD32F30x_standard_peripheral/Source\gd32f30x_timer.c ****     \brief      configure TIMER channel output fast function
1110:C:/Users/49542/Desktop/GD32F30x_Demo_Suites_V2.0.0/GD32F30x_Demo_Suites_V2.0.0/GD32F30x_Firmware_Library/GD32F30x_standard_peripheral/Source\gd32f30x_timer.c ****     \param[in]  timer_periph: please refer to the following parameters
1111:C:/Users/49542/Desktop/GD32F30x_Demo_Suites_V2.0.0/GD32F30x_Demo_Suites_V2.0.0/GD32F30x_Firmware_Library/GD32F30x_standard_peripheral/Source\gd32f30x_timer.c ****     \param[in]  channel:
1112:C:/Users/49542/Desktop/GD32F30x_Demo_Suites_V2.0.0/GD32F30x_Demo_Suites_V2.0.0/GD32F30x_Firmware_Library/GD32F30x_standard_peripheral/Source\gd32f30x_timer.c ****                 only one parameter can be selected which is shown as below:
ARM GAS  C:\Users\49542\AppData\Local\Temp\ccEBNRSE.s 			page 56


1113:C:/Users/49542/Desktop/GD32F30x_Demo_Suites_V2.0.0/GD32F30x_Demo_Suites_V2.0.0/GD32F30x_Firmware_Library/GD32F30x_standard_peripheral/Source\gd32f30x_timer.c ****       \arg        TIMER_CH_0: TIMER channel0(TIMERx(x=0..4,7..13))
1114:C:/Users/49542/Desktop/GD32F30x_Demo_Suites_V2.0.0/GD32F30x_Demo_Suites_V2.0.0/GD32F30x_Firmware_Library/GD32F30x_standard_peripheral/Source\gd32f30x_timer.c ****       \arg        TIMER_CH_1: TIMER channel1(TIMERx(x=0..4,7,8,11))
1115:C:/Users/49542/Desktop/GD32F30x_Demo_Suites_V2.0.0/GD32F30x_Demo_Suites_V2.0.0/GD32F30x_Firmware_Library/GD32F30x_standard_peripheral/Source\gd32f30x_timer.c ****       \arg        TIMER_CH_2: TIMER channel2(TIMERx(x=0..4,7))
1116:C:/Users/49542/Desktop/GD32F30x_Demo_Suites_V2.0.0/GD32F30x_Demo_Suites_V2.0.0/GD32F30x_Firmware_Library/GD32F30x_standard_peripheral/Source\gd32f30x_timer.c ****       \arg        TIMER_CH_3: TIMER channel3(TIMERx(x=0..4,7))
1117:C:/Users/49542/Desktop/GD32F30x_Demo_Suites_V2.0.0/GD32F30x_Demo_Suites_V2.0.0/GD32F30x_Firmware_Library/GD32F30x_standard_peripheral/Source\gd32f30x_timer.c ****     \param[in]  ocfast: channel output fast function
1118:C:/Users/49542/Desktop/GD32F30x_Demo_Suites_V2.0.0/GD32F30x_Demo_Suites_V2.0.0/GD32F30x_Firmware_Library/GD32F30x_standard_peripheral/Source\gd32f30x_timer.c ****                 only one parameter can be selected which is shown as below:
1119:C:/Users/49542/Desktop/GD32F30x_Demo_Suites_V2.0.0/GD32F30x_Demo_Suites_V2.0.0/GD32F30x_Firmware_Library/GD32F30x_standard_peripheral/Source\gd32f30x_timer.c ****       \arg        TIMER_OC_FAST_ENABLE: channel output fast function enable
1120:C:/Users/49542/Desktop/GD32F30x_Demo_Suites_V2.0.0/GD32F30x_Demo_Suites_V2.0.0/GD32F30x_Firmware_Library/GD32F30x_standard_peripheral/Source\gd32f30x_timer.c ****       \arg        TIMER_OC_FAST_DISABLE: channel output fast function disable
1121:C:/Users/49542/Desktop/GD32F30x_Demo_Suites_V2.0.0/GD32F30x_Demo_Suites_V2.0.0/GD32F30x_Firmware_Library/GD32F30x_standard_peripheral/Source\gd32f30x_timer.c ****     \param[out] none
1122:C:/Users/49542/Desktop/GD32F30x_Demo_Suites_V2.0.0/GD32F30x_Demo_Suites_V2.0.0/GD32F30x_Firmware_Library/GD32F30x_standard_peripheral/Source\gd32f30x_timer.c ****     \retval     none
1123:C:/Users/49542/Desktop/GD32F30x_Demo_Suites_V2.0.0/GD32F30x_Demo_Suites_V2.0.0/GD32F30x_Firmware_Library/GD32F30x_standard_peripheral/Source\gd32f30x_timer.c **** */
1124:C:/Users/49542/Desktop/GD32F30x_Demo_Suites_V2.0.0/GD32F30x_Demo_Suites_V2.0.0/GD32F30x_Firmware_Library/GD32F30x_standard_peripheral/Source\gd32f30x_timer.c **** void timer_channel_output_fast_config(uint32_t timer_periph, uint16_t channel, uint16_t ocfast)
1125:C:/Users/49542/Desktop/GD32F30x_Demo_Suites_V2.0.0/GD32F30x_Demo_Suites_V2.0.0/GD32F30x_Firmware_Library/GD32F30x_standard_peripheral/Source\gd32f30x_timer.c **** {
 2062              		.loc 1 1125 0
 2063              		.cfi_startproc
 2064              		@ args = 0, pretend = 0, frame = 0
 2065              		@ frame_needed = 0, uses_anonymous_args = 0
 2066              		@ link register save eliminated.
 2067              	.LVL146:
1126:C:/Users/49542/Desktop/GD32F30x_Demo_Suites_V2.0.0/GD32F30x_Demo_Suites_V2.0.0/GD32F30x_Firmware_Library/GD32F30x_standard_peripheral/Source\gd32f30x_timer.c ****     switch(channel){
 2068              		.loc 1 1126 0
 2069 0000 0329     		cmp	r1, #3
 2070 0002 24D8     		bhi	.L136
 2071 0004 DFE801F0 		tbb	[pc, r1]
 2072              	.L139:
 2073 0008 02       		.byte	(.L138-.L139)/2
 2074 0009 0A       		.byte	(.L140-.L139)/2
 2075 000a 13       		.byte	(.L141-.L139)/2
 2076 000b 1B       		.byte	(.L142-.L139)/2
 2077              		.p2align 1
 2078              	.L138:
1127:C:/Users/49542/Desktop/GD32F30x_Demo_Suites_V2.0.0/GD32F30x_Demo_Suites_V2.0.0/GD32F30x_Firmware_Library/GD32F30x_standard_peripheral/Source\gd32f30x_timer.c ****     /* configure TIMER_CH_0 */
1128:C:/Users/49542/Desktop/GD32F30x_Demo_Suites_V2.0.0/GD32F30x_Demo_Suites_V2.0.0/GD32F30x_Firmware_Library/GD32F30x_standard_peripheral/Source\gd32f30x_timer.c ****     case TIMER_CH_0:
1129:C:/Users/49542/Desktop/GD32F30x_Demo_Suites_V2.0.0/GD32F30x_Demo_Suites_V2.0.0/GD32F30x_Firmware_Library/GD32F30x_standard_peripheral/Source\gd32f30x_timer.c ****         TIMER_CHCTL0(timer_periph) &= (~(uint32_t)TIMER_CHCTL0_CH0COMFEN);
 2079              		.loc 1 1129 0
 2080 000c 8369     		ldr	r3, [r0, #24]
 2081 000e 23F00403 		bic	r3, r3, #4
 2082 0012 8361     		str	r3, [r0, #24]
1130:C:/Users/49542/Desktop/GD32F30x_Demo_Suites_V2.0.0/GD32F30x_Demo_Suites_V2.0.0/GD32F30x_Firmware_Library/GD32F30x_standard_peripheral/Source\gd32f30x_timer.c ****         TIMER_CHCTL0(timer_periph) |= (uint32_t)ocfast;
 2083              		.loc 1 1130 0
 2084 0014 8369     		ldr	r3, [r0, #24]
 2085 0016 1A43     		orrs	r2, r2, r3
 2086              	.LVL147:
 2087 0018 8261     		str	r2, [r0, #24]
1131:C:/Users/49542/Desktop/GD32F30x_Demo_Suites_V2.0.0/GD32F30x_Demo_Suites_V2.0.0/GD32F30x_Firmware_Library/GD32F30x_standard_peripheral/Source\gd32f30x_timer.c ****         break;
 2088              		.loc 1 1131 0
 2089 001a 7047     		bx	lr
 2090              	.LVL148:
 2091              	.L140:
1132:C:/Users/49542/Desktop/GD32F30x_Demo_Suites_V2.0.0/GD32F30x_Demo_Suites_V2.0.0/GD32F30x_Firmware_Library/GD32F30x_standard_peripheral/Source\gd32f30x_timer.c ****     /* configure TIMER_CH_1 */
1133:C:/Users/49542/Desktop/GD32F30x_Demo_Suites_V2.0.0/GD32F30x_Demo_Suites_V2.0.0/GD32F30x_Firmware_Library/GD32F30x_standard_peripheral/Source\gd32f30x_timer.c ****     case TIMER_CH_1:
1134:C:/Users/49542/Desktop/GD32F30x_Demo_Suites_V2.0.0/GD32F30x_Demo_Suites_V2.0.0/GD32F30x_Firmware_Library/GD32F30x_standard_peripheral/Source\gd32f30x_timer.c ****         TIMER_CHCTL0(timer_periph) &= (~(uint32_t)TIMER_CHCTL0_CH1COMFEN);
 2092              		.loc 1 1134 0
 2093 001c 8369     		ldr	r3, [r0, #24]
 2094 001e 23F48063 		bic	r3, r3, #1024
 2095 0022 8361     		str	r3, [r0, #24]
1135:C:/Users/49542/Desktop/GD32F30x_Demo_Suites_V2.0.0/GD32F30x_Demo_Suites_V2.0.0/GD32F30x_Firmware_Library/GD32F30x_standard_peripheral/Source\gd32f30x_timer.c ****         TIMER_CHCTL0(timer_periph) |= (uint32_t)((uint32_t)ocfast << 8U);
ARM GAS  C:\Users\49542\AppData\Local\Temp\ccEBNRSE.s 			page 57


 2096              		.loc 1 1135 0
 2097 0024 8369     		ldr	r3, [r0, #24]
 2098 0026 43EA0222 		orr	r2, r3, r2, lsl #8
 2099              	.LVL149:
 2100 002a 8261     		str	r2, [r0, #24]
1136:C:/Users/49542/Desktop/GD32F30x_Demo_Suites_V2.0.0/GD32F30x_Demo_Suites_V2.0.0/GD32F30x_Firmware_Library/GD32F30x_standard_peripheral/Source\gd32f30x_timer.c ****         break;
 2101              		.loc 1 1136 0
 2102 002c 7047     		bx	lr
 2103              	.LVL150:
 2104              	.L141:
1137:C:/Users/49542/Desktop/GD32F30x_Demo_Suites_V2.0.0/GD32F30x_Demo_Suites_V2.0.0/GD32F30x_Firmware_Library/GD32F30x_standard_peripheral/Source\gd32f30x_timer.c ****     /* configure TIMER_CH_2 */
1138:C:/Users/49542/Desktop/GD32F30x_Demo_Suites_V2.0.0/GD32F30x_Demo_Suites_V2.0.0/GD32F30x_Firmware_Library/GD32F30x_standard_peripheral/Source\gd32f30x_timer.c ****     case TIMER_CH_2:
1139:C:/Users/49542/Desktop/GD32F30x_Demo_Suites_V2.0.0/GD32F30x_Demo_Suites_V2.0.0/GD32F30x_Firmware_Library/GD32F30x_standard_peripheral/Source\gd32f30x_timer.c ****         TIMER_CHCTL1(timer_periph) &= (~(uint32_t)TIMER_CHCTL1_CH2COMFEN);
 2105              		.loc 1 1139 0
 2106 002e C369     		ldr	r3, [r0, #28]
 2107 0030 23F00403 		bic	r3, r3, #4
 2108 0034 C361     		str	r3, [r0, #28]
1140:C:/Users/49542/Desktop/GD32F30x_Demo_Suites_V2.0.0/GD32F30x_Demo_Suites_V2.0.0/GD32F30x_Firmware_Library/GD32F30x_standard_peripheral/Source\gd32f30x_timer.c ****         TIMER_CHCTL1(timer_periph) |= (uint32_t)ocfast;
 2109              		.loc 1 1140 0
 2110 0036 C369     		ldr	r3, [r0, #28]
 2111 0038 1A43     		orrs	r2, r2, r3
 2112              	.LVL151:
 2113 003a C261     		str	r2, [r0, #28]
1141:C:/Users/49542/Desktop/GD32F30x_Demo_Suites_V2.0.0/GD32F30x_Demo_Suites_V2.0.0/GD32F30x_Firmware_Library/GD32F30x_standard_peripheral/Source\gd32f30x_timer.c ****         break;
 2114              		.loc 1 1141 0
 2115 003c 7047     		bx	lr
 2116              	.LVL152:
 2117              	.L142:
1142:C:/Users/49542/Desktop/GD32F30x_Demo_Suites_V2.0.0/GD32F30x_Demo_Suites_V2.0.0/GD32F30x_Firmware_Library/GD32F30x_standard_peripheral/Source\gd32f30x_timer.c ****     /* configure TIMER_CH_3 */
1143:C:/Users/49542/Desktop/GD32F30x_Demo_Suites_V2.0.0/GD32F30x_Demo_Suites_V2.0.0/GD32F30x_Firmware_Library/GD32F30x_standard_peripheral/Source\gd32f30x_timer.c ****     case TIMER_CH_3:
1144:C:/Users/49542/Desktop/GD32F30x_Demo_Suites_V2.0.0/GD32F30x_Demo_Suites_V2.0.0/GD32F30x_Firmware_Library/GD32F30x_standard_peripheral/Source\gd32f30x_timer.c ****         TIMER_CHCTL1(timer_periph) &= (~(uint32_t)TIMER_CHCTL1_CH3COMFEN);
 2118              		.loc 1 1144 0
 2119 003e C369     		ldr	r3, [r0, #28]
 2120 0040 23F48063 		bic	r3, r3, #1024
 2121 0044 C361     		str	r3, [r0, #28]
1145:C:/Users/49542/Desktop/GD32F30x_Demo_Suites_V2.0.0/GD32F30x_Demo_Suites_V2.0.0/GD32F30x_Firmware_Library/GD32F30x_standard_peripheral/Source\gd32f30x_timer.c ****         TIMER_CHCTL1(timer_periph) |= (uint32_t)((uint32_t)ocfast << 8U);
 2122              		.loc 1 1145 0
 2123 0046 C369     		ldr	r3, [r0, #28]
 2124 0048 43EA0222 		orr	r2, r3, r2, lsl #8
 2125              	.LVL153:
 2126 004c C261     		str	r2, [r0, #28]
 2127              	.L136:
1146:C:/Users/49542/Desktop/GD32F30x_Demo_Suites_V2.0.0/GD32F30x_Demo_Suites_V2.0.0/GD32F30x_Firmware_Library/GD32F30x_standard_peripheral/Source\gd32f30x_timer.c ****         break;
1147:C:/Users/49542/Desktop/GD32F30x_Demo_Suites_V2.0.0/GD32F30x_Demo_Suites_V2.0.0/GD32F30x_Firmware_Library/GD32F30x_standard_peripheral/Source\gd32f30x_timer.c ****     default:
1148:C:/Users/49542/Desktop/GD32F30x_Demo_Suites_V2.0.0/GD32F30x_Demo_Suites_V2.0.0/GD32F30x_Firmware_Library/GD32F30x_standard_peripheral/Source\gd32f30x_timer.c ****         break;
1149:C:/Users/49542/Desktop/GD32F30x_Demo_Suites_V2.0.0/GD32F30x_Demo_Suites_V2.0.0/GD32F30x_Firmware_Library/GD32F30x_standard_peripheral/Source\gd32f30x_timer.c ****     }
1150:C:/Users/49542/Desktop/GD32F30x_Demo_Suites_V2.0.0/GD32F30x_Demo_Suites_V2.0.0/GD32F30x_Firmware_Library/GD32F30x_standard_peripheral/Source\gd32f30x_timer.c **** }
 2128              		.loc 1 1150 0
 2129 004e 7047     		bx	lr
 2130              		.cfi_endproc
 2131              	.LFE161:
 2133              		.section	.text.timer_channel_output_clear_config,"ax",%progbits
 2134              		.align	1
 2135              		.global	timer_channel_output_clear_config
 2136              		.syntax unified
 2137              		.thumb
 2138              		.thumb_func
ARM GAS  C:\Users\49542\AppData\Local\Temp\ccEBNRSE.s 			page 58


 2139              		.fpu fpv4-sp-d16
 2141              	timer_channel_output_clear_config:
 2142              	.LFB162:
1151:C:/Users/49542/Desktop/GD32F30x_Demo_Suites_V2.0.0/GD32F30x_Demo_Suites_V2.0.0/GD32F30x_Firmware_Library/GD32F30x_standard_peripheral/Source\gd32f30x_timer.c **** 
1152:C:/Users/49542/Desktop/GD32F30x_Demo_Suites_V2.0.0/GD32F30x_Demo_Suites_V2.0.0/GD32F30x_Firmware_Library/GD32F30x_standard_peripheral/Source\gd32f30x_timer.c **** /*!
1153:C:/Users/49542/Desktop/GD32F30x_Demo_Suites_V2.0.0/GD32F30x_Demo_Suites_V2.0.0/GD32F30x_Firmware_Library/GD32F30x_standard_peripheral/Source\gd32f30x_timer.c ****     \brief      configure TIMER channel output clear function
1154:C:/Users/49542/Desktop/GD32F30x_Demo_Suites_V2.0.0/GD32F30x_Demo_Suites_V2.0.0/GD32F30x_Firmware_Library/GD32F30x_standard_peripheral/Source\gd32f30x_timer.c ****     \param[in]  timer_periph: TIMERx(x=0..4,7)
1155:C:/Users/49542/Desktop/GD32F30x_Demo_Suites_V2.0.0/GD32F30x_Demo_Suites_V2.0.0/GD32F30x_Firmware_Library/GD32F30x_standard_peripheral/Source\gd32f30x_timer.c ****     \param[in]  channel: 
1156:C:/Users/49542/Desktop/GD32F30x_Demo_Suites_V2.0.0/GD32F30x_Demo_Suites_V2.0.0/GD32F30x_Firmware_Library/GD32F30x_standard_peripheral/Source\gd32f30x_timer.c ****                 only one parameter can be selected which is shown as below:
1157:C:/Users/49542/Desktop/GD32F30x_Demo_Suites_V2.0.0/GD32F30x_Demo_Suites_V2.0.0/GD32F30x_Firmware_Library/GD32F30x_standard_peripheral/Source\gd32f30x_timer.c ****       \arg        TIMER_CH_0: TIMER channel0
1158:C:/Users/49542/Desktop/GD32F30x_Demo_Suites_V2.0.0/GD32F30x_Demo_Suites_V2.0.0/GD32F30x_Firmware_Library/GD32F30x_standard_peripheral/Source\gd32f30x_timer.c ****       \arg        TIMER_CH_1: TIMER channel1
1159:C:/Users/49542/Desktop/GD32F30x_Demo_Suites_V2.0.0/GD32F30x_Demo_Suites_V2.0.0/GD32F30x_Firmware_Library/GD32F30x_standard_peripheral/Source\gd32f30x_timer.c ****       \arg        TIMER_CH_2: TIMER channel2
1160:C:/Users/49542/Desktop/GD32F30x_Demo_Suites_V2.0.0/GD32F30x_Demo_Suites_V2.0.0/GD32F30x_Firmware_Library/GD32F30x_standard_peripheral/Source\gd32f30x_timer.c ****       \arg        TIMER_CH_3: TIMER channel3
1161:C:/Users/49542/Desktop/GD32F30x_Demo_Suites_V2.0.0/GD32F30x_Demo_Suites_V2.0.0/GD32F30x_Firmware_Library/GD32F30x_standard_peripheral/Source\gd32f30x_timer.c ****     \param[in]  occlear: channel output clear function
1162:C:/Users/49542/Desktop/GD32F30x_Demo_Suites_V2.0.0/GD32F30x_Demo_Suites_V2.0.0/GD32F30x_Firmware_Library/GD32F30x_standard_peripheral/Source\gd32f30x_timer.c ****                 only one parameter can be selected which is shown as below:
1163:C:/Users/49542/Desktop/GD32F30x_Demo_Suites_V2.0.0/GD32F30x_Demo_Suites_V2.0.0/GD32F30x_Firmware_Library/GD32F30x_standard_peripheral/Source\gd32f30x_timer.c ****       \arg        TIMER_OC_CLEAR_ENABLE: channel output clear function enable
1164:C:/Users/49542/Desktop/GD32F30x_Demo_Suites_V2.0.0/GD32F30x_Demo_Suites_V2.0.0/GD32F30x_Firmware_Library/GD32F30x_standard_peripheral/Source\gd32f30x_timer.c ****       \arg        TIMER_OC_CLEAR_DISABLE: channel output clear function disable
1165:C:/Users/49542/Desktop/GD32F30x_Demo_Suites_V2.0.0/GD32F30x_Demo_Suites_V2.0.0/GD32F30x_Firmware_Library/GD32F30x_standard_peripheral/Source\gd32f30x_timer.c ****     \param[out] none
1166:C:/Users/49542/Desktop/GD32F30x_Demo_Suites_V2.0.0/GD32F30x_Demo_Suites_V2.0.0/GD32F30x_Firmware_Library/GD32F30x_standard_peripheral/Source\gd32f30x_timer.c ****     \retval     none
1167:C:/Users/49542/Desktop/GD32F30x_Demo_Suites_V2.0.0/GD32F30x_Demo_Suites_V2.0.0/GD32F30x_Firmware_Library/GD32F30x_standard_peripheral/Source\gd32f30x_timer.c **** */
1168:C:/Users/49542/Desktop/GD32F30x_Demo_Suites_V2.0.0/GD32F30x_Demo_Suites_V2.0.0/GD32F30x_Firmware_Library/GD32F30x_standard_peripheral/Source\gd32f30x_timer.c **** void timer_channel_output_clear_config(uint32_t timer_periph, uint16_t channel, uint16_t occlear)
1169:C:/Users/49542/Desktop/GD32F30x_Demo_Suites_V2.0.0/GD32F30x_Demo_Suites_V2.0.0/GD32F30x_Firmware_Library/GD32F30x_standard_peripheral/Source\gd32f30x_timer.c **** {
 2143              		.loc 1 1169 0
 2144              		.cfi_startproc
 2145              		@ args = 0, pretend = 0, frame = 0
 2146              		@ frame_needed = 0, uses_anonymous_args = 0
 2147              		@ link register save eliminated.
 2148              	.LVL154:
1170:C:/Users/49542/Desktop/GD32F30x_Demo_Suites_V2.0.0/GD32F30x_Demo_Suites_V2.0.0/GD32F30x_Firmware_Library/GD32F30x_standard_peripheral/Source\gd32f30x_timer.c ****     switch(channel){
 2149              		.loc 1 1170 0
 2150 0000 0329     		cmp	r1, #3
 2151 0002 24D8     		bhi	.L143
 2152 0004 DFE801F0 		tbb	[pc, r1]
 2153              	.L146:
 2154 0008 02       		.byte	(.L145-.L146)/2
 2155 0009 0A       		.byte	(.L147-.L146)/2
 2156 000a 13       		.byte	(.L148-.L146)/2
 2157 000b 1B       		.byte	(.L149-.L146)/2
 2158              		.p2align 1
 2159              	.L145:
1171:C:/Users/49542/Desktop/GD32F30x_Demo_Suites_V2.0.0/GD32F30x_Demo_Suites_V2.0.0/GD32F30x_Firmware_Library/GD32F30x_standard_peripheral/Source\gd32f30x_timer.c ****     /* configure TIMER_CH_0 */
1172:C:/Users/49542/Desktop/GD32F30x_Demo_Suites_V2.0.0/GD32F30x_Demo_Suites_V2.0.0/GD32F30x_Firmware_Library/GD32F30x_standard_peripheral/Source\gd32f30x_timer.c ****     case TIMER_CH_0:
1173:C:/Users/49542/Desktop/GD32F30x_Demo_Suites_V2.0.0/GD32F30x_Demo_Suites_V2.0.0/GD32F30x_Firmware_Library/GD32F30x_standard_peripheral/Source\gd32f30x_timer.c ****         TIMER_CHCTL0(timer_periph) &= (~(uint32_t)TIMER_CHCTL0_CH0COMCEN);
 2160              		.loc 1 1173 0
 2161 000c 8369     		ldr	r3, [r0, #24]
 2162 000e 23F08003 		bic	r3, r3, #128
 2163 0012 8361     		str	r3, [r0, #24]
1174:C:/Users/49542/Desktop/GD32F30x_Demo_Suites_V2.0.0/GD32F30x_Demo_Suites_V2.0.0/GD32F30x_Firmware_Library/GD32F30x_standard_peripheral/Source\gd32f30x_timer.c ****         TIMER_CHCTL0(timer_periph) |= (uint32_t)occlear;
 2164              		.loc 1 1174 0
 2165 0014 8369     		ldr	r3, [r0, #24]
 2166 0016 1A43     		orrs	r2, r2, r3
 2167              	.LVL155:
 2168 0018 8261     		str	r2, [r0, #24]
1175:C:/Users/49542/Desktop/GD32F30x_Demo_Suites_V2.0.0/GD32F30x_Demo_Suites_V2.0.0/GD32F30x_Firmware_Library/GD32F30x_standard_peripheral/Source\gd32f30x_timer.c ****         break;
 2169              		.loc 1 1175 0
 2170 001a 7047     		bx	lr
 2171              	.LVL156:
ARM GAS  C:\Users\49542\AppData\Local\Temp\ccEBNRSE.s 			page 59


 2172              	.L147:
1176:C:/Users/49542/Desktop/GD32F30x_Demo_Suites_V2.0.0/GD32F30x_Demo_Suites_V2.0.0/GD32F30x_Firmware_Library/GD32F30x_standard_peripheral/Source\gd32f30x_timer.c ****     /* configure TIMER_CH_1 */
1177:C:/Users/49542/Desktop/GD32F30x_Demo_Suites_V2.0.0/GD32F30x_Demo_Suites_V2.0.0/GD32F30x_Firmware_Library/GD32F30x_standard_peripheral/Source\gd32f30x_timer.c ****     case TIMER_CH_1:
1178:C:/Users/49542/Desktop/GD32F30x_Demo_Suites_V2.0.0/GD32F30x_Demo_Suites_V2.0.0/GD32F30x_Firmware_Library/GD32F30x_standard_peripheral/Source\gd32f30x_timer.c ****         TIMER_CHCTL0(timer_periph) &= (~(uint32_t)TIMER_CHCTL0_CH1COMCEN);
 2173              		.loc 1 1178 0
 2174 001c 8369     		ldr	r3, [r0, #24]
 2175 001e 23F40043 		bic	r3, r3, #32768
 2176 0022 8361     		str	r3, [r0, #24]
1179:C:/Users/49542/Desktop/GD32F30x_Demo_Suites_V2.0.0/GD32F30x_Demo_Suites_V2.0.0/GD32F30x_Firmware_Library/GD32F30x_standard_peripheral/Source\gd32f30x_timer.c ****         TIMER_CHCTL0(timer_periph) |= (uint32_t)((uint32_t)occlear << 8U);
 2177              		.loc 1 1179 0
 2178 0024 8369     		ldr	r3, [r0, #24]
 2179 0026 43EA0222 		orr	r2, r3, r2, lsl #8
 2180              	.LVL157:
 2181 002a 8261     		str	r2, [r0, #24]
1180:C:/Users/49542/Desktop/GD32F30x_Demo_Suites_V2.0.0/GD32F30x_Demo_Suites_V2.0.0/GD32F30x_Firmware_Library/GD32F30x_standard_peripheral/Source\gd32f30x_timer.c ****         break;
 2182              		.loc 1 1180 0
 2183 002c 7047     		bx	lr
 2184              	.LVL158:
 2185              	.L148:
1181:C:/Users/49542/Desktop/GD32F30x_Demo_Suites_V2.0.0/GD32F30x_Demo_Suites_V2.0.0/GD32F30x_Firmware_Library/GD32F30x_standard_peripheral/Source\gd32f30x_timer.c ****     /* configure TIMER_CH_2 */
1182:C:/Users/49542/Desktop/GD32F30x_Demo_Suites_V2.0.0/GD32F30x_Demo_Suites_V2.0.0/GD32F30x_Firmware_Library/GD32F30x_standard_peripheral/Source\gd32f30x_timer.c ****     case TIMER_CH_2:
1183:C:/Users/49542/Desktop/GD32F30x_Demo_Suites_V2.0.0/GD32F30x_Demo_Suites_V2.0.0/GD32F30x_Firmware_Library/GD32F30x_standard_peripheral/Source\gd32f30x_timer.c ****         TIMER_CHCTL1(timer_periph) &= (~(uint32_t)TIMER_CHCTL1_CH2COMCEN);
 2186              		.loc 1 1183 0
 2187 002e C369     		ldr	r3, [r0, #28]
 2188 0030 23F08003 		bic	r3, r3, #128
 2189 0034 C361     		str	r3, [r0, #28]
1184:C:/Users/49542/Desktop/GD32F30x_Demo_Suites_V2.0.0/GD32F30x_Demo_Suites_V2.0.0/GD32F30x_Firmware_Library/GD32F30x_standard_peripheral/Source\gd32f30x_timer.c ****         TIMER_CHCTL1(timer_periph) |= (uint32_t)occlear;
 2190              		.loc 1 1184 0
 2191 0036 C369     		ldr	r3, [r0, #28]
 2192 0038 1A43     		orrs	r2, r2, r3
 2193              	.LVL159:
 2194 003a C261     		str	r2, [r0, #28]
1185:C:/Users/49542/Desktop/GD32F30x_Demo_Suites_V2.0.0/GD32F30x_Demo_Suites_V2.0.0/GD32F30x_Firmware_Library/GD32F30x_standard_peripheral/Source\gd32f30x_timer.c ****         break;
 2195              		.loc 1 1185 0
 2196 003c 7047     		bx	lr
 2197              	.LVL160:
 2198              	.L149:
1186:C:/Users/49542/Desktop/GD32F30x_Demo_Suites_V2.0.0/GD32F30x_Demo_Suites_V2.0.0/GD32F30x_Firmware_Library/GD32F30x_standard_peripheral/Source\gd32f30x_timer.c ****     /* configure TIMER_CH_3 */
1187:C:/Users/49542/Desktop/GD32F30x_Demo_Suites_V2.0.0/GD32F30x_Demo_Suites_V2.0.0/GD32F30x_Firmware_Library/GD32F30x_standard_peripheral/Source\gd32f30x_timer.c ****     case TIMER_CH_3:
1188:C:/Users/49542/Desktop/GD32F30x_Demo_Suites_V2.0.0/GD32F30x_Demo_Suites_V2.0.0/GD32F30x_Firmware_Library/GD32F30x_standard_peripheral/Source\gd32f30x_timer.c ****         TIMER_CHCTL1(timer_periph) &= (~(uint32_t)TIMER_CHCTL1_CH3COMCEN);
 2199              		.loc 1 1188 0
 2200 003e C369     		ldr	r3, [r0, #28]
 2201 0040 23F40043 		bic	r3, r3, #32768
 2202 0044 C361     		str	r3, [r0, #28]
1189:C:/Users/49542/Desktop/GD32F30x_Demo_Suites_V2.0.0/GD32F30x_Demo_Suites_V2.0.0/GD32F30x_Firmware_Library/GD32F30x_standard_peripheral/Source\gd32f30x_timer.c ****         TIMER_CHCTL1(timer_periph) |= (uint32_t)((uint32_t)occlear << 8U);
 2203              		.loc 1 1189 0
 2204 0046 C369     		ldr	r3, [r0, #28]
 2205 0048 43EA0222 		orr	r2, r3, r2, lsl #8
 2206              	.LVL161:
 2207 004c C261     		str	r2, [r0, #28]
 2208              	.L143:
1190:C:/Users/49542/Desktop/GD32F30x_Demo_Suites_V2.0.0/GD32F30x_Demo_Suites_V2.0.0/GD32F30x_Firmware_Library/GD32F30x_standard_peripheral/Source\gd32f30x_timer.c ****         break;
1191:C:/Users/49542/Desktop/GD32F30x_Demo_Suites_V2.0.0/GD32F30x_Demo_Suites_V2.0.0/GD32F30x_Firmware_Library/GD32F30x_standard_peripheral/Source\gd32f30x_timer.c ****     default:
1192:C:/Users/49542/Desktop/GD32F30x_Demo_Suites_V2.0.0/GD32F30x_Demo_Suites_V2.0.0/GD32F30x_Firmware_Library/GD32F30x_standard_peripheral/Source\gd32f30x_timer.c ****         break;
1193:C:/Users/49542/Desktop/GD32F30x_Demo_Suites_V2.0.0/GD32F30x_Demo_Suites_V2.0.0/GD32F30x_Firmware_Library/GD32F30x_standard_peripheral/Source\gd32f30x_timer.c ****     }
1194:C:/Users/49542/Desktop/GD32F30x_Demo_Suites_V2.0.0/GD32F30x_Demo_Suites_V2.0.0/GD32F30x_Firmware_Library/GD32F30x_standard_peripheral/Source\gd32f30x_timer.c **** }
 2209              		.loc 1 1194 0
ARM GAS  C:\Users\49542\AppData\Local\Temp\ccEBNRSE.s 			page 60


 2210 004e 7047     		bx	lr
 2211              		.cfi_endproc
 2212              	.LFE162:
 2214              		.section	.text.timer_channel_output_polarity_config,"ax",%progbits
 2215              		.align	1
 2216              		.global	timer_channel_output_polarity_config
 2217              		.syntax unified
 2218              		.thumb
 2219              		.thumb_func
 2220              		.fpu fpv4-sp-d16
 2222              	timer_channel_output_polarity_config:
 2223              	.LFB163:
1195:C:/Users/49542/Desktop/GD32F30x_Demo_Suites_V2.0.0/GD32F30x_Demo_Suites_V2.0.0/GD32F30x_Firmware_Library/GD32F30x_standard_peripheral/Source\gd32f30x_timer.c **** 
1196:C:/Users/49542/Desktop/GD32F30x_Demo_Suites_V2.0.0/GD32F30x_Demo_Suites_V2.0.0/GD32F30x_Firmware_Library/GD32F30x_standard_peripheral/Source\gd32f30x_timer.c **** /*!
1197:C:/Users/49542/Desktop/GD32F30x_Demo_Suites_V2.0.0/GD32F30x_Demo_Suites_V2.0.0/GD32F30x_Firmware_Library/GD32F30x_standard_peripheral/Source\gd32f30x_timer.c ****     \brief      configure TIMER channel output polarity 
1198:C:/Users/49542/Desktop/GD32F30x_Demo_Suites_V2.0.0/GD32F30x_Demo_Suites_V2.0.0/GD32F30x_Firmware_Library/GD32F30x_standard_peripheral/Source\gd32f30x_timer.c ****     \param[in]  timer_periph: please refer to the following parameters
1199:C:/Users/49542/Desktop/GD32F30x_Demo_Suites_V2.0.0/GD32F30x_Demo_Suites_V2.0.0/GD32F30x_Firmware_Library/GD32F30x_standard_peripheral/Source\gd32f30x_timer.c ****     \param[in]  channel: 
1200:C:/Users/49542/Desktop/GD32F30x_Demo_Suites_V2.0.0/GD32F30x_Demo_Suites_V2.0.0/GD32F30x_Firmware_Library/GD32F30x_standard_peripheral/Source\gd32f30x_timer.c ****                 only one parameter can be selected which is shown as below:
1201:C:/Users/49542/Desktop/GD32F30x_Demo_Suites_V2.0.0/GD32F30x_Demo_Suites_V2.0.0/GD32F30x_Firmware_Library/GD32F30x_standard_peripheral/Source\gd32f30x_timer.c ****       \arg        TIMER_CH_0: TIMER channel0(TIMERx(x=0..4,7..13))
1202:C:/Users/49542/Desktop/GD32F30x_Demo_Suites_V2.0.0/GD32F30x_Demo_Suites_V2.0.0/GD32F30x_Firmware_Library/GD32F30x_standard_peripheral/Source\gd32f30x_timer.c ****       \arg        TIMER_CH_1: TIMER channel1(TIMERx(x=0..4,7,8,11))
1203:C:/Users/49542/Desktop/GD32F30x_Demo_Suites_V2.0.0/GD32F30x_Demo_Suites_V2.0.0/GD32F30x_Firmware_Library/GD32F30x_standard_peripheral/Source\gd32f30x_timer.c ****       \arg        TIMER_CH_2: TIMER channel2(TIMERx(x=0..4,7))
1204:C:/Users/49542/Desktop/GD32F30x_Demo_Suites_V2.0.0/GD32F30x_Demo_Suites_V2.0.0/GD32F30x_Firmware_Library/GD32F30x_standard_peripheral/Source\gd32f30x_timer.c ****       \arg        TIMER_CH_3: TIMER channel3(TIMERx(x=0..4,7))
1205:C:/Users/49542/Desktop/GD32F30x_Demo_Suites_V2.0.0/GD32F30x_Demo_Suites_V2.0.0/GD32F30x_Firmware_Library/GD32F30x_standard_peripheral/Source\gd32f30x_timer.c ****     \param[in]  ocpolarity: channel output polarity 
1206:C:/Users/49542/Desktop/GD32F30x_Demo_Suites_V2.0.0/GD32F30x_Demo_Suites_V2.0.0/GD32F30x_Firmware_Library/GD32F30x_standard_peripheral/Source\gd32f30x_timer.c ****                 only one parameter can be selected which is shown as below:
1207:C:/Users/49542/Desktop/GD32F30x_Demo_Suites_V2.0.0/GD32F30x_Demo_Suites_V2.0.0/GD32F30x_Firmware_Library/GD32F30x_standard_peripheral/Source\gd32f30x_timer.c ****       \arg        TIMER_OC_POLARITY_HIGH: channel output polarity is high
1208:C:/Users/49542/Desktop/GD32F30x_Demo_Suites_V2.0.0/GD32F30x_Demo_Suites_V2.0.0/GD32F30x_Firmware_Library/GD32F30x_standard_peripheral/Source\gd32f30x_timer.c ****       \arg        TIMER_OC_POLARITY_LOW: channel output polarity is low
1209:C:/Users/49542/Desktop/GD32F30x_Demo_Suites_V2.0.0/GD32F30x_Demo_Suites_V2.0.0/GD32F30x_Firmware_Library/GD32F30x_standard_peripheral/Source\gd32f30x_timer.c ****     \param[out] none
1210:C:/Users/49542/Desktop/GD32F30x_Demo_Suites_V2.0.0/GD32F30x_Demo_Suites_V2.0.0/GD32F30x_Firmware_Library/GD32F30x_standard_peripheral/Source\gd32f30x_timer.c ****     \retval     none
1211:C:/Users/49542/Desktop/GD32F30x_Demo_Suites_V2.0.0/GD32F30x_Demo_Suites_V2.0.0/GD32F30x_Firmware_Library/GD32F30x_standard_peripheral/Source\gd32f30x_timer.c **** */
1212:C:/Users/49542/Desktop/GD32F30x_Demo_Suites_V2.0.0/GD32F30x_Demo_Suites_V2.0.0/GD32F30x_Firmware_Library/GD32F30x_standard_peripheral/Source\gd32f30x_timer.c **** void timer_channel_output_polarity_config(uint32_t timer_periph, uint16_t channel, uint16_t ocpolar
1213:C:/Users/49542/Desktop/GD32F30x_Demo_Suites_V2.0.0/GD32F30x_Demo_Suites_V2.0.0/GD32F30x_Firmware_Library/GD32F30x_standard_peripheral/Source\gd32f30x_timer.c **** {
 2224              		.loc 1 1213 0
 2225              		.cfi_startproc
 2226              		@ args = 0, pretend = 0, frame = 0
 2227              		@ frame_needed = 0, uses_anonymous_args = 0
 2228              		@ link register save eliminated.
 2229              	.LVL162:
1214:C:/Users/49542/Desktop/GD32F30x_Demo_Suites_V2.0.0/GD32F30x_Demo_Suites_V2.0.0/GD32F30x_Firmware_Library/GD32F30x_standard_peripheral/Source\gd32f30x_timer.c ****     switch(channel){
 2230              		.loc 1 1214 0
 2231 0000 0329     		cmp	r1, #3
 2232 0002 25D8     		bhi	.L150
 2233 0004 DFE801F0 		tbb	[pc, r1]
 2234              	.L153:
 2235 0008 02       		.byte	(.L152-.L153)/2
 2236 0009 0A       		.byte	(.L154-.L153)/2
 2237 000a 13       		.byte	(.L155-.L153)/2
 2238 000b 1C       		.byte	(.L156-.L153)/2
 2239              		.p2align 1
 2240              	.L152:
1215:C:/Users/49542/Desktop/GD32F30x_Demo_Suites_V2.0.0/GD32F30x_Demo_Suites_V2.0.0/GD32F30x_Firmware_Library/GD32F30x_standard_peripheral/Source\gd32f30x_timer.c ****     /* configure TIMER_CH_0 */
1216:C:/Users/49542/Desktop/GD32F30x_Demo_Suites_V2.0.0/GD32F30x_Demo_Suites_V2.0.0/GD32F30x_Firmware_Library/GD32F30x_standard_peripheral/Source\gd32f30x_timer.c ****     case TIMER_CH_0:
1217:C:/Users/49542/Desktop/GD32F30x_Demo_Suites_V2.0.0/GD32F30x_Demo_Suites_V2.0.0/GD32F30x_Firmware_Library/GD32F30x_standard_peripheral/Source\gd32f30x_timer.c ****         TIMER_CHCTL2(timer_periph) &= (~(uint32_t)TIMER_CHCTL2_CH0P);
 2241              		.loc 1 1217 0
 2242 000c 036A     		ldr	r3, [r0, #32]
 2243 000e 23F00203 		bic	r3, r3, #2
 2244 0012 0362     		str	r3, [r0, #32]
1218:C:/Users/49542/Desktop/GD32F30x_Demo_Suites_V2.0.0/GD32F30x_Demo_Suites_V2.0.0/GD32F30x_Firmware_Library/GD32F30x_standard_peripheral/Source\gd32f30x_timer.c ****         TIMER_CHCTL2(timer_periph) |= (uint32_t)ocpolarity;
ARM GAS  C:\Users\49542\AppData\Local\Temp\ccEBNRSE.s 			page 61


 2245              		.loc 1 1218 0
 2246 0014 036A     		ldr	r3, [r0, #32]
 2247 0016 1A43     		orrs	r2, r2, r3
 2248              	.LVL163:
 2249 0018 0262     		str	r2, [r0, #32]
1219:C:/Users/49542/Desktop/GD32F30x_Demo_Suites_V2.0.0/GD32F30x_Demo_Suites_V2.0.0/GD32F30x_Firmware_Library/GD32F30x_standard_peripheral/Source\gd32f30x_timer.c ****         break;
 2250              		.loc 1 1219 0
 2251 001a 7047     		bx	lr
 2252              	.LVL164:
 2253              	.L154:
1220:C:/Users/49542/Desktop/GD32F30x_Demo_Suites_V2.0.0/GD32F30x_Demo_Suites_V2.0.0/GD32F30x_Firmware_Library/GD32F30x_standard_peripheral/Source\gd32f30x_timer.c ****     /* configure TIMER_CH_1 */
1221:C:/Users/49542/Desktop/GD32F30x_Demo_Suites_V2.0.0/GD32F30x_Demo_Suites_V2.0.0/GD32F30x_Firmware_Library/GD32F30x_standard_peripheral/Source\gd32f30x_timer.c ****     case TIMER_CH_1:
1222:C:/Users/49542/Desktop/GD32F30x_Demo_Suites_V2.0.0/GD32F30x_Demo_Suites_V2.0.0/GD32F30x_Firmware_Library/GD32F30x_standard_peripheral/Source\gd32f30x_timer.c ****         TIMER_CHCTL2(timer_periph) &= (~(uint32_t)TIMER_CHCTL2_CH1P);
 2254              		.loc 1 1222 0
 2255 001c 036A     		ldr	r3, [r0, #32]
 2256 001e 23F02003 		bic	r3, r3, #32
 2257 0022 0362     		str	r3, [r0, #32]
1223:C:/Users/49542/Desktop/GD32F30x_Demo_Suites_V2.0.0/GD32F30x_Demo_Suites_V2.0.0/GD32F30x_Firmware_Library/GD32F30x_standard_peripheral/Source\gd32f30x_timer.c ****         TIMER_CHCTL2(timer_periph) |= (uint32_t)((uint32_t)ocpolarity << 4U);
 2258              		.loc 1 1223 0
 2259 0024 036A     		ldr	r3, [r0, #32]
 2260 0026 43EA0212 		orr	r2, r3, r2, lsl #4
 2261              	.LVL165:
 2262 002a 0262     		str	r2, [r0, #32]
1224:C:/Users/49542/Desktop/GD32F30x_Demo_Suites_V2.0.0/GD32F30x_Demo_Suites_V2.0.0/GD32F30x_Firmware_Library/GD32F30x_standard_peripheral/Source\gd32f30x_timer.c ****         break;
 2263              		.loc 1 1224 0
 2264 002c 7047     		bx	lr
 2265              	.LVL166:
 2266              	.L155:
1225:C:/Users/49542/Desktop/GD32F30x_Demo_Suites_V2.0.0/GD32F30x_Demo_Suites_V2.0.0/GD32F30x_Firmware_Library/GD32F30x_standard_peripheral/Source\gd32f30x_timer.c ****     /* configure TIMER_CH_2 */
1226:C:/Users/49542/Desktop/GD32F30x_Demo_Suites_V2.0.0/GD32F30x_Demo_Suites_V2.0.0/GD32F30x_Firmware_Library/GD32F30x_standard_peripheral/Source\gd32f30x_timer.c ****     case TIMER_CH_2:
1227:C:/Users/49542/Desktop/GD32F30x_Demo_Suites_V2.0.0/GD32F30x_Demo_Suites_V2.0.0/GD32F30x_Firmware_Library/GD32F30x_standard_peripheral/Source\gd32f30x_timer.c ****         TIMER_CHCTL2(timer_periph) &= (~(uint32_t)TIMER_CHCTL2_CH2P);
 2267              		.loc 1 1227 0
 2268 002e 036A     		ldr	r3, [r0, #32]
 2269 0030 23F40073 		bic	r3, r3, #512
 2270 0034 0362     		str	r3, [r0, #32]
1228:C:/Users/49542/Desktop/GD32F30x_Demo_Suites_V2.0.0/GD32F30x_Demo_Suites_V2.0.0/GD32F30x_Firmware_Library/GD32F30x_standard_peripheral/Source\gd32f30x_timer.c ****         TIMER_CHCTL2(timer_periph) |= (uint32_t)((uint32_t)ocpolarity << 8U);
 2271              		.loc 1 1228 0
 2272 0036 036A     		ldr	r3, [r0, #32]
 2273 0038 43EA0222 		orr	r2, r3, r2, lsl #8
 2274              	.LVL167:
 2275 003c 0262     		str	r2, [r0, #32]
1229:C:/Users/49542/Desktop/GD32F30x_Demo_Suites_V2.0.0/GD32F30x_Demo_Suites_V2.0.0/GD32F30x_Firmware_Library/GD32F30x_standard_peripheral/Source\gd32f30x_timer.c ****         break;
 2276              		.loc 1 1229 0
 2277 003e 7047     		bx	lr
 2278              	.LVL168:
 2279              	.L156:
1230:C:/Users/49542/Desktop/GD32F30x_Demo_Suites_V2.0.0/GD32F30x_Demo_Suites_V2.0.0/GD32F30x_Firmware_Library/GD32F30x_standard_peripheral/Source\gd32f30x_timer.c ****     /* configure TIMER_CH_3 */
1231:C:/Users/49542/Desktop/GD32F30x_Demo_Suites_V2.0.0/GD32F30x_Demo_Suites_V2.0.0/GD32F30x_Firmware_Library/GD32F30x_standard_peripheral/Source\gd32f30x_timer.c ****     case TIMER_CH_3:
1232:C:/Users/49542/Desktop/GD32F30x_Demo_Suites_V2.0.0/GD32F30x_Demo_Suites_V2.0.0/GD32F30x_Firmware_Library/GD32F30x_standard_peripheral/Source\gd32f30x_timer.c ****         TIMER_CHCTL2(timer_periph) &= (~(uint32_t)TIMER_CHCTL2_CH3P);
 2280              		.loc 1 1232 0
 2281 0040 036A     		ldr	r3, [r0, #32]
 2282 0042 23F40053 		bic	r3, r3, #8192
 2283 0046 0362     		str	r3, [r0, #32]
1233:C:/Users/49542/Desktop/GD32F30x_Demo_Suites_V2.0.0/GD32F30x_Demo_Suites_V2.0.0/GD32F30x_Firmware_Library/GD32F30x_standard_peripheral/Source\gd32f30x_timer.c ****         TIMER_CHCTL2(timer_periph) |= (uint32_t)((uint32_t)ocpolarity << 12U);
 2284              		.loc 1 1233 0
 2285 0048 036A     		ldr	r3, [r0, #32]
 2286 004a 43EA0232 		orr	r2, r3, r2, lsl #12
ARM GAS  C:\Users\49542\AppData\Local\Temp\ccEBNRSE.s 			page 62


 2287              	.LVL169:
 2288 004e 0262     		str	r2, [r0, #32]
 2289              	.L150:
1234:C:/Users/49542/Desktop/GD32F30x_Demo_Suites_V2.0.0/GD32F30x_Demo_Suites_V2.0.0/GD32F30x_Firmware_Library/GD32F30x_standard_peripheral/Source\gd32f30x_timer.c ****         break;
1235:C:/Users/49542/Desktop/GD32F30x_Demo_Suites_V2.0.0/GD32F30x_Demo_Suites_V2.0.0/GD32F30x_Firmware_Library/GD32F30x_standard_peripheral/Source\gd32f30x_timer.c ****     default:
1236:C:/Users/49542/Desktop/GD32F30x_Demo_Suites_V2.0.0/GD32F30x_Demo_Suites_V2.0.0/GD32F30x_Firmware_Library/GD32F30x_standard_peripheral/Source\gd32f30x_timer.c ****         break;
1237:C:/Users/49542/Desktop/GD32F30x_Demo_Suites_V2.0.0/GD32F30x_Demo_Suites_V2.0.0/GD32F30x_Firmware_Library/GD32F30x_standard_peripheral/Source\gd32f30x_timer.c ****     }
1238:C:/Users/49542/Desktop/GD32F30x_Demo_Suites_V2.0.0/GD32F30x_Demo_Suites_V2.0.0/GD32F30x_Firmware_Library/GD32F30x_standard_peripheral/Source\gd32f30x_timer.c **** }
 2290              		.loc 1 1238 0
 2291 0050 7047     		bx	lr
 2292              		.cfi_endproc
 2293              	.LFE163:
 2295              		.section	.text.timer_channel_complementary_output_polarity_config,"ax",%progbits
 2296              		.align	1
 2297              		.global	timer_channel_complementary_output_polarity_config
 2298              		.syntax unified
 2299              		.thumb
 2300              		.thumb_func
 2301              		.fpu fpv4-sp-d16
 2303              	timer_channel_complementary_output_polarity_config:
 2304              	.LFB164:
1239:C:/Users/49542/Desktop/GD32F30x_Demo_Suites_V2.0.0/GD32F30x_Demo_Suites_V2.0.0/GD32F30x_Firmware_Library/GD32F30x_standard_peripheral/Source\gd32f30x_timer.c **** 
1240:C:/Users/49542/Desktop/GD32F30x_Demo_Suites_V2.0.0/GD32F30x_Demo_Suites_V2.0.0/GD32F30x_Firmware_Library/GD32F30x_standard_peripheral/Source\gd32f30x_timer.c **** /*!
1241:C:/Users/49542/Desktop/GD32F30x_Demo_Suites_V2.0.0/GD32F30x_Demo_Suites_V2.0.0/GD32F30x_Firmware_Library/GD32F30x_standard_peripheral/Source\gd32f30x_timer.c ****     \brief      configure TIMER channel complementary output polarity 
1242:C:/Users/49542/Desktop/GD32F30x_Demo_Suites_V2.0.0/GD32F30x_Demo_Suites_V2.0.0/GD32F30x_Firmware_Library/GD32F30x_standard_peripheral/Source\gd32f30x_timer.c ****     \param[in]  timer_periph: please refer to the following parameters
1243:C:/Users/49542/Desktop/GD32F30x_Demo_Suites_V2.0.0/GD32F30x_Demo_Suites_V2.0.0/GD32F30x_Firmware_Library/GD32F30x_standard_peripheral/Source\gd32f30x_timer.c ****     \param[in]  channel:
1244:C:/Users/49542/Desktop/GD32F30x_Demo_Suites_V2.0.0/GD32F30x_Demo_Suites_V2.0.0/GD32F30x_Firmware_Library/GD32F30x_standard_peripheral/Source\gd32f30x_timer.c ****                 only one parameter can be selected which is shown as below:
1245:C:/Users/49542/Desktop/GD32F30x_Demo_Suites_V2.0.0/GD32F30x_Demo_Suites_V2.0.0/GD32F30x_Firmware_Library/GD32F30x_standard_peripheral/Source\gd32f30x_timer.c ****       \arg        TIMER_CH_0: TIMER channel0(TIMERx(x=0,7..13))
1246:C:/Users/49542/Desktop/GD32F30x_Demo_Suites_V2.0.0/GD32F30x_Demo_Suites_V2.0.0/GD32F30x_Firmware_Library/GD32F30x_standard_peripheral/Source\gd32f30x_timer.c ****       \arg        TIMER_CH_1: TIMER channel1(TIMERx(x=0,7,8,11))
1247:C:/Users/49542/Desktop/GD32F30x_Demo_Suites_V2.0.0/GD32F30x_Demo_Suites_V2.0.0/GD32F30x_Firmware_Library/GD32F30x_standard_peripheral/Source\gd32f30x_timer.c ****       \arg        TIMER_CH_2: TIMER channel2(TIMERx(x=0,7))
1248:C:/Users/49542/Desktop/GD32F30x_Demo_Suites_V2.0.0/GD32F30x_Demo_Suites_V2.0.0/GD32F30x_Firmware_Library/GD32F30x_standard_peripheral/Source\gd32f30x_timer.c ****     \param[in]  ocnpolarity: channel complementary output polarity 
1249:C:/Users/49542/Desktop/GD32F30x_Demo_Suites_V2.0.0/GD32F30x_Demo_Suites_V2.0.0/GD32F30x_Firmware_Library/GD32F30x_standard_peripheral/Source\gd32f30x_timer.c ****                 only one parameter can be selected which is shown as below:
1250:C:/Users/49542/Desktop/GD32F30x_Demo_Suites_V2.0.0/GD32F30x_Demo_Suites_V2.0.0/GD32F30x_Firmware_Library/GD32F30x_standard_peripheral/Source\gd32f30x_timer.c ****       \arg        TIMER_OCN_POLARITY_HIGH: channel complementary output polarity is high
1251:C:/Users/49542/Desktop/GD32F30x_Demo_Suites_V2.0.0/GD32F30x_Demo_Suites_V2.0.0/GD32F30x_Firmware_Library/GD32F30x_standard_peripheral/Source\gd32f30x_timer.c ****       \arg        TIMER_OCN_POLARITY_LOW: channel complementary output polarity is low
1252:C:/Users/49542/Desktop/GD32F30x_Demo_Suites_V2.0.0/GD32F30x_Demo_Suites_V2.0.0/GD32F30x_Firmware_Library/GD32F30x_standard_peripheral/Source\gd32f30x_timer.c ****     \param[out] none
1253:C:/Users/49542/Desktop/GD32F30x_Demo_Suites_V2.0.0/GD32F30x_Demo_Suites_V2.0.0/GD32F30x_Firmware_Library/GD32F30x_standard_peripheral/Source\gd32f30x_timer.c ****     \retval     none
1254:C:/Users/49542/Desktop/GD32F30x_Demo_Suites_V2.0.0/GD32F30x_Demo_Suites_V2.0.0/GD32F30x_Firmware_Library/GD32F30x_standard_peripheral/Source\gd32f30x_timer.c **** */
1255:C:/Users/49542/Desktop/GD32F30x_Demo_Suites_V2.0.0/GD32F30x_Demo_Suites_V2.0.0/GD32F30x_Firmware_Library/GD32F30x_standard_peripheral/Source\gd32f30x_timer.c **** void timer_channel_complementary_output_polarity_config(uint32_t timer_periph, uint16_t channel, ui
1256:C:/Users/49542/Desktop/GD32F30x_Demo_Suites_V2.0.0/GD32F30x_Demo_Suites_V2.0.0/GD32F30x_Firmware_Library/GD32F30x_standard_peripheral/Source\gd32f30x_timer.c **** {
 2305              		.loc 1 1256 0
 2306              		.cfi_startproc
 2307              		@ args = 0, pretend = 0, frame = 0
 2308              		@ frame_needed = 0, uses_anonymous_args = 0
 2309              		@ link register save eliminated.
 2310              	.LVL170:
1257:C:/Users/49542/Desktop/GD32F30x_Demo_Suites_V2.0.0/GD32F30x_Demo_Suites_V2.0.0/GD32F30x_Firmware_Library/GD32F30x_standard_peripheral/Source\gd32f30x_timer.c ****     switch(channel){
 2311              		.loc 1 1257 0
 2312 0000 0129     		cmp	r1, #1
 2313 0002 0BD0     		beq	.L159
 2314 0004 11B1     		cbz	r1, .L160
 2315 0006 0229     		cmp	r1, #2
 2316 0008 11D0     		beq	.L161
 2317 000a 7047     		bx	lr
 2318              	.L160:
1258:C:/Users/49542/Desktop/GD32F30x_Demo_Suites_V2.0.0/GD32F30x_Demo_Suites_V2.0.0/GD32F30x_Firmware_Library/GD32F30x_standard_peripheral/Source\gd32f30x_timer.c ****     /* configure TIMER_CH_0 */
1259:C:/Users/49542/Desktop/GD32F30x_Demo_Suites_V2.0.0/GD32F30x_Demo_Suites_V2.0.0/GD32F30x_Firmware_Library/GD32F30x_standard_peripheral/Source\gd32f30x_timer.c ****     case TIMER_CH_0:
1260:C:/Users/49542/Desktop/GD32F30x_Demo_Suites_V2.0.0/GD32F30x_Demo_Suites_V2.0.0/GD32F30x_Firmware_Library/GD32F30x_standard_peripheral/Source\gd32f30x_timer.c ****         TIMER_CHCTL2(timer_periph) &= (~(uint32_t)TIMER_CHCTL2_CH0NP);
ARM GAS  C:\Users\49542\AppData\Local\Temp\ccEBNRSE.s 			page 63


 2319              		.loc 1 1260 0
 2320 000c 036A     		ldr	r3, [r0, #32]
 2321 000e 23F00803 		bic	r3, r3, #8
 2322 0012 0362     		str	r3, [r0, #32]
1261:C:/Users/49542/Desktop/GD32F30x_Demo_Suites_V2.0.0/GD32F30x_Demo_Suites_V2.0.0/GD32F30x_Firmware_Library/GD32F30x_standard_peripheral/Source\gd32f30x_timer.c ****         TIMER_CHCTL2(timer_periph) |= (uint32_t)ocnpolarity;
 2323              		.loc 1 1261 0
 2324 0014 036A     		ldr	r3, [r0, #32]
 2325 0016 1A43     		orrs	r2, r2, r3
 2326              	.LVL171:
 2327 0018 0262     		str	r2, [r0, #32]
1262:C:/Users/49542/Desktop/GD32F30x_Demo_Suites_V2.0.0/GD32F30x_Demo_Suites_V2.0.0/GD32F30x_Firmware_Library/GD32F30x_standard_peripheral/Source\gd32f30x_timer.c ****         break;
 2328              		.loc 1 1262 0
 2329 001a 7047     		bx	lr
 2330              	.LVL172:
 2331              	.L159:
1263:C:/Users/49542/Desktop/GD32F30x_Demo_Suites_V2.0.0/GD32F30x_Demo_Suites_V2.0.0/GD32F30x_Firmware_Library/GD32F30x_standard_peripheral/Source\gd32f30x_timer.c ****     /* configure TIMER_CH_1 */
1264:C:/Users/49542/Desktop/GD32F30x_Demo_Suites_V2.0.0/GD32F30x_Demo_Suites_V2.0.0/GD32F30x_Firmware_Library/GD32F30x_standard_peripheral/Source\gd32f30x_timer.c ****     case TIMER_CH_1:
1265:C:/Users/49542/Desktop/GD32F30x_Demo_Suites_V2.0.0/GD32F30x_Demo_Suites_V2.0.0/GD32F30x_Firmware_Library/GD32F30x_standard_peripheral/Source\gd32f30x_timer.c ****         TIMER_CHCTL2(timer_periph) &= (~(uint32_t)TIMER_CHCTL2_CH1NP);
 2332              		.loc 1 1265 0
 2333 001c 036A     		ldr	r3, [r0, #32]
 2334 001e 23F08003 		bic	r3, r3, #128
 2335 0022 0362     		str	r3, [r0, #32]
1266:C:/Users/49542/Desktop/GD32F30x_Demo_Suites_V2.0.0/GD32F30x_Demo_Suites_V2.0.0/GD32F30x_Firmware_Library/GD32F30x_standard_peripheral/Source\gd32f30x_timer.c ****         TIMER_CHCTL2(timer_periph) |= (uint32_t)((uint32_t)ocnpolarity << 4U);
 2336              		.loc 1 1266 0
 2337 0024 036A     		ldr	r3, [r0, #32]
 2338 0026 43EA0212 		orr	r2, r3, r2, lsl #4
 2339              	.LVL173:
 2340 002a 0262     		str	r2, [r0, #32]
1267:C:/Users/49542/Desktop/GD32F30x_Demo_Suites_V2.0.0/GD32F30x_Demo_Suites_V2.0.0/GD32F30x_Firmware_Library/GD32F30x_standard_peripheral/Source\gd32f30x_timer.c ****         break;
 2341              		.loc 1 1267 0
 2342 002c 7047     		bx	lr
 2343              	.LVL174:
 2344              	.L161:
1268:C:/Users/49542/Desktop/GD32F30x_Demo_Suites_V2.0.0/GD32F30x_Demo_Suites_V2.0.0/GD32F30x_Firmware_Library/GD32F30x_standard_peripheral/Source\gd32f30x_timer.c ****     /* configure TIMER_CH_2 */
1269:C:/Users/49542/Desktop/GD32F30x_Demo_Suites_V2.0.0/GD32F30x_Demo_Suites_V2.0.0/GD32F30x_Firmware_Library/GD32F30x_standard_peripheral/Source\gd32f30x_timer.c ****     case TIMER_CH_2:
1270:C:/Users/49542/Desktop/GD32F30x_Demo_Suites_V2.0.0/GD32F30x_Demo_Suites_V2.0.0/GD32F30x_Firmware_Library/GD32F30x_standard_peripheral/Source\gd32f30x_timer.c ****         TIMER_CHCTL2(timer_periph) &= (~(uint32_t)TIMER_CHCTL2_CH2NP);
 2345              		.loc 1 1270 0
 2346 002e 036A     		ldr	r3, [r0, #32]
 2347 0030 23F40063 		bic	r3, r3, #2048
 2348 0034 0362     		str	r3, [r0, #32]
1271:C:/Users/49542/Desktop/GD32F30x_Demo_Suites_V2.0.0/GD32F30x_Demo_Suites_V2.0.0/GD32F30x_Firmware_Library/GD32F30x_standard_peripheral/Source\gd32f30x_timer.c ****         TIMER_CHCTL2(timer_periph) |= (uint32_t)((uint32_t)ocnpolarity << 8U);
 2349              		.loc 1 1271 0
 2350 0036 036A     		ldr	r3, [r0, #32]
 2351 0038 43EA0222 		orr	r2, r3, r2, lsl #8
 2352              	.LVL175:
 2353 003c 0262     		str	r2, [r0, #32]
1272:C:/Users/49542/Desktop/GD32F30x_Demo_Suites_V2.0.0/GD32F30x_Demo_Suites_V2.0.0/GD32F30x_Firmware_Library/GD32F30x_standard_peripheral/Source\gd32f30x_timer.c ****         break;
1273:C:/Users/49542/Desktop/GD32F30x_Demo_Suites_V2.0.0/GD32F30x_Demo_Suites_V2.0.0/GD32F30x_Firmware_Library/GD32F30x_standard_peripheral/Source\gd32f30x_timer.c ****     default:
1274:C:/Users/49542/Desktop/GD32F30x_Demo_Suites_V2.0.0/GD32F30x_Demo_Suites_V2.0.0/GD32F30x_Firmware_Library/GD32F30x_standard_peripheral/Source\gd32f30x_timer.c ****         break;
1275:C:/Users/49542/Desktop/GD32F30x_Demo_Suites_V2.0.0/GD32F30x_Demo_Suites_V2.0.0/GD32F30x_Firmware_Library/GD32F30x_standard_peripheral/Source\gd32f30x_timer.c ****     }
1276:C:/Users/49542/Desktop/GD32F30x_Demo_Suites_V2.0.0/GD32F30x_Demo_Suites_V2.0.0/GD32F30x_Firmware_Library/GD32F30x_standard_peripheral/Source\gd32f30x_timer.c **** }
 2354              		.loc 1 1276 0
 2355 003e 7047     		bx	lr
 2356              		.cfi_endproc
 2357              	.LFE164:
 2359              		.section	.text.timer_channel_output_state_config,"ax",%progbits
 2360              		.align	1
ARM GAS  C:\Users\49542\AppData\Local\Temp\ccEBNRSE.s 			page 64


 2361              		.global	timer_channel_output_state_config
 2362              		.syntax unified
 2363              		.thumb
 2364              		.thumb_func
 2365              		.fpu fpv4-sp-d16
 2367              	timer_channel_output_state_config:
 2368              	.LFB165:
1277:C:/Users/49542/Desktop/GD32F30x_Demo_Suites_V2.0.0/GD32F30x_Demo_Suites_V2.0.0/GD32F30x_Firmware_Library/GD32F30x_standard_peripheral/Source\gd32f30x_timer.c **** 
1278:C:/Users/49542/Desktop/GD32F30x_Demo_Suites_V2.0.0/GD32F30x_Demo_Suites_V2.0.0/GD32F30x_Firmware_Library/GD32F30x_standard_peripheral/Source\gd32f30x_timer.c **** /*!
1279:C:/Users/49542/Desktop/GD32F30x_Demo_Suites_V2.0.0/GD32F30x_Demo_Suites_V2.0.0/GD32F30x_Firmware_Library/GD32F30x_standard_peripheral/Source\gd32f30x_timer.c ****     \brief      configure TIMER channel enable state
1280:C:/Users/49542/Desktop/GD32F30x_Demo_Suites_V2.0.0/GD32F30x_Demo_Suites_V2.0.0/GD32F30x_Firmware_Library/GD32F30x_standard_peripheral/Source\gd32f30x_timer.c ****     \param[in]  timer_periph: please refer to the following parameters
1281:C:/Users/49542/Desktop/GD32F30x_Demo_Suites_V2.0.0/GD32F30x_Demo_Suites_V2.0.0/GD32F30x_Firmware_Library/GD32F30x_standard_peripheral/Source\gd32f30x_timer.c ****     \param[in]  channel: 
1282:C:/Users/49542/Desktop/GD32F30x_Demo_Suites_V2.0.0/GD32F30x_Demo_Suites_V2.0.0/GD32F30x_Firmware_Library/GD32F30x_standard_peripheral/Source\gd32f30x_timer.c ****                 only one parameter can be selected which is shown as below:
1283:C:/Users/49542/Desktop/GD32F30x_Demo_Suites_V2.0.0/GD32F30x_Demo_Suites_V2.0.0/GD32F30x_Firmware_Library/GD32F30x_standard_peripheral/Source\gd32f30x_timer.c ****       \arg        TIMER_CH_0: TIMER channel0(TIMERx(x=0..4,7..13))
1284:C:/Users/49542/Desktop/GD32F30x_Demo_Suites_V2.0.0/GD32F30x_Demo_Suites_V2.0.0/GD32F30x_Firmware_Library/GD32F30x_standard_peripheral/Source\gd32f30x_timer.c ****       \arg        TIMER_CH_1: TIMER channel1(TIMERx(x=0..4,7,8,11))
1285:C:/Users/49542/Desktop/GD32F30x_Demo_Suites_V2.0.0/GD32F30x_Demo_Suites_V2.0.0/GD32F30x_Firmware_Library/GD32F30x_standard_peripheral/Source\gd32f30x_timer.c ****       \arg        TIMER_CH_2: TIMER channel2(TIMERx(x=0..4,7))
1286:C:/Users/49542/Desktop/GD32F30x_Demo_Suites_V2.0.0/GD32F30x_Demo_Suites_V2.0.0/GD32F30x_Firmware_Library/GD32F30x_standard_peripheral/Source\gd32f30x_timer.c ****       \arg        TIMER_CH_3: TIMER channel3(TIMERx(x=0..4,7))
1287:C:/Users/49542/Desktop/GD32F30x_Demo_Suites_V2.0.0/GD32F30x_Demo_Suites_V2.0.0/GD32F30x_Firmware_Library/GD32F30x_standard_peripheral/Source\gd32f30x_timer.c ****     \param[in]  state: TIMER channel enable state
1288:C:/Users/49542/Desktop/GD32F30x_Demo_Suites_V2.0.0/GD32F30x_Demo_Suites_V2.0.0/GD32F30x_Firmware_Library/GD32F30x_standard_peripheral/Source\gd32f30x_timer.c ****                 only one parameter can be selected which is shown as below:
1289:C:/Users/49542/Desktop/GD32F30x_Demo_Suites_V2.0.0/GD32F30x_Demo_Suites_V2.0.0/GD32F30x_Firmware_Library/GD32F30x_standard_peripheral/Source\gd32f30x_timer.c ****       \arg        TIMER_CCX_ENABLE: channel enable 
1290:C:/Users/49542/Desktop/GD32F30x_Demo_Suites_V2.0.0/GD32F30x_Demo_Suites_V2.0.0/GD32F30x_Firmware_Library/GD32F30x_standard_peripheral/Source\gd32f30x_timer.c ****       \arg        TIMER_CCX_DISABLE: channel disable 
1291:C:/Users/49542/Desktop/GD32F30x_Demo_Suites_V2.0.0/GD32F30x_Demo_Suites_V2.0.0/GD32F30x_Firmware_Library/GD32F30x_standard_peripheral/Source\gd32f30x_timer.c ****     \param[out] none
1292:C:/Users/49542/Desktop/GD32F30x_Demo_Suites_V2.0.0/GD32F30x_Demo_Suites_V2.0.0/GD32F30x_Firmware_Library/GD32F30x_standard_peripheral/Source\gd32f30x_timer.c ****     \retval     none
1293:C:/Users/49542/Desktop/GD32F30x_Demo_Suites_V2.0.0/GD32F30x_Demo_Suites_V2.0.0/GD32F30x_Firmware_Library/GD32F30x_standard_peripheral/Source\gd32f30x_timer.c **** */
1294:C:/Users/49542/Desktop/GD32F30x_Demo_Suites_V2.0.0/GD32F30x_Demo_Suites_V2.0.0/GD32F30x_Firmware_Library/GD32F30x_standard_peripheral/Source\gd32f30x_timer.c **** void timer_channel_output_state_config(uint32_t timer_periph, uint16_t channel, uint32_t state)
1295:C:/Users/49542/Desktop/GD32F30x_Demo_Suites_V2.0.0/GD32F30x_Demo_Suites_V2.0.0/GD32F30x_Firmware_Library/GD32F30x_standard_peripheral/Source\gd32f30x_timer.c **** {
 2369              		.loc 1 1295 0
 2370              		.cfi_startproc
 2371              		@ args = 0, pretend = 0, frame = 0
 2372              		@ frame_needed = 0, uses_anonymous_args = 0
 2373              		@ link register save eliminated.
 2374              	.LVL176:
1296:C:/Users/49542/Desktop/GD32F30x_Demo_Suites_V2.0.0/GD32F30x_Demo_Suites_V2.0.0/GD32F30x_Firmware_Library/GD32F30x_standard_peripheral/Source\gd32f30x_timer.c ****     switch(channel){
 2375              		.loc 1 1296 0
 2376 0000 0329     		cmp	r1, #3
 2377 0002 25D8     		bhi	.L162
 2378 0004 DFE801F0 		tbb	[pc, r1]
 2379              	.L165:
 2380 0008 02       		.byte	(.L164-.L165)/2
 2381 0009 0A       		.byte	(.L166-.L165)/2
 2382 000a 13       		.byte	(.L167-.L165)/2
 2383 000b 1C       		.byte	(.L168-.L165)/2
 2384              		.p2align 1
 2385              	.L164:
1297:C:/Users/49542/Desktop/GD32F30x_Demo_Suites_V2.0.0/GD32F30x_Demo_Suites_V2.0.0/GD32F30x_Firmware_Library/GD32F30x_standard_peripheral/Source\gd32f30x_timer.c ****     /* configure TIMER_CH_0 */
1298:C:/Users/49542/Desktop/GD32F30x_Demo_Suites_V2.0.0/GD32F30x_Demo_Suites_V2.0.0/GD32F30x_Firmware_Library/GD32F30x_standard_peripheral/Source\gd32f30x_timer.c ****     case TIMER_CH_0:
1299:C:/Users/49542/Desktop/GD32F30x_Demo_Suites_V2.0.0/GD32F30x_Demo_Suites_V2.0.0/GD32F30x_Firmware_Library/GD32F30x_standard_peripheral/Source\gd32f30x_timer.c ****         TIMER_CHCTL2(timer_periph) &= (~(uint32_t)TIMER_CHCTL2_CH0EN);
 2386              		.loc 1 1299 0
 2387 000c 036A     		ldr	r3, [r0, #32]
 2388 000e 23F00103 		bic	r3, r3, #1
 2389 0012 0362     		str	r3, [r0, #32]
1300:C:/Users/49542/Desktop/GD32F30x_Demo_Suites_V2.0.0/GD32F30x_Demo_Suites_V2.0.0/GD32F30x_Firmware_Library/GD32F30x_standard_peripheral/Source\gd32f30x_timer.c ****         TIMER_CHCTL2(timer_periph) |= (uint32_t)state;
 2390              		.loc 1 1300 0
 2391 0014 036A     		ldr	r3, [r0, #32]
 2392 0016 1A43     		orrs	r2, r2, r3
 2393              	.LVL177:
 2394 0018 0262     		str	r2, [r0, #32]
ARM GAS  C:\Users\49542\AppData\Local\Temp\ccEBNRSE.s 			page 65


1301:C:/Users/49542/Desktop/GD32F30x_Demo_Suites_V2.0.0/GD32F30x_Demo_Suites_V2.0.0/GD32F30x_Firmware_Library/GD32F30x_standard_peripheral/Source\gd32f30x_timer.c ****         break;
 2395              		.loc 1 1301 0
 2396 001a 7047     		bx	lr
 2397              	.LVL178:
 2398              	.L166:
1302:C:/Users/49542/Desktop/GD32F30x_Demo_Suites_V2.0.0/GD32F30x_Demo_Suites_V2.0.0/GD32F30x_Firmware_Library/GD32F30x_standard_peripheral/Source\gd32f30x_timer.c ****     /* configure TIMER_CH_1 */
1303:C:/Users/49542/Desktop/GD32F30x_Demo_Suites_V2.0.0/GD32F30x_Demo_Suites_V2.0.0/GD32F30x_Firmware_Library/GD32F30x_standard_peripheral/Source\gd32f30x_timer.c ****     case TIMER_CH_1:
1304:C:/Users/49542/Desktop/GD32F30x_Demo_Suites_V2.0.0/GD32F30x_Demo_Suites_V2.0.0/GD32F30x_Firmware_Library/GD32F30x_standard_peripheral/Source\gd32f30x_timer.c ****         TIMER_CHCTL2(timer_periph) &= (~(uint32_t)TIMER_CHCTL2_CH1EN);
 2399              		.loc 1 1304 0
 2400 001c 036A     		ldr	r3, [r0, #32]
 2401 001e 23F01003 		bic	r3, r3, #16
 2402 0022 0362     		str	r3, [r0, #32]
1305:C:/Users/49542/Desktop/GD32F30x_Demo_Suites_V2.0.0/GD32F30x_Demo_Suites_V2.0.0/GD32F30x_Firmware_Library/GD32F30x_standard_peripheral/Source\gd32f30x_timer.c ****         TIMER_CHCTL2(timer_periph) |= (uint32_t)((uint32_t)state << 4U);
 2403              		.loc 1 1305 0
 2404 0024 036A     		ldr	r3, [r0, #32]
 2405 0026 43EA0212 		orr	r2, r3, r2, lsl #4
 2406              	.LVL179:
 2407 002a 0262     		str	r2, [r0, #32]
1306:C:/Users/49542/Desktop/GD32F30x_Demo_Suites_V2.0.0/GD32F30x_Demo_Suites_V2.0.0/GD32F30x_Firmware_Library/GD32F30x_standard_peripheral/Source\gd32f30x_timer.c ****         break;
 2408              		.loc 1 1306 0
 2409 002c 7047     		bx	lr
 2410              	.LVL180:
 2411              	.L167:
1307:C:/Users/49542/Desktop/GD32F30x_Demo_Suites_V2.0.0/GD32F30x_Demo_Suites_V2.0.0/GD32F30x_Firmware_Library/GD32F30x_standard_peripheral/Source\gd32f30x_timer.c ****     /* configure TIMER_CH_2 */
1308:C:/Users/49542/Desktop/GD32F30x_Demo_Suites_V2.0.0/GD32F30x_Demo_Suites_V2.0.0/GD32F30x_Firmware_Library/GD32F30x_standard_peripheral/Source\gd32f30x_timer.c ****     case TIMER_CH_2:
1309:C:/Users/49542/Desktop/GD32F30x_Demo_Suites_V2.0.0/GD32F30x_Demo_Suites_V2.0.0/GD32F30x_Firmware_Library/GD32F30x_standard_peripheral/Source\gd32f30x_timer.c ****         TIMER_CHCTL2(timer_periph) &= (~(uint32_t)TIMER_CHCTL2_CH2EN);
 2412              		.loc 1 1309 0
 2413 002e 036A     		ldr	r3, [r0, #32]
 2414 0030 23F48073 		bic	r3, r3, #256
 2415 0034 0362     		str	r3, [r0, #32]
1310:C:/Users/49542/Desktop/GD32F30x_Demo_Suites_V2.0.0/GD32F30x_Demo_Suites_V2.0.0/GD32F30x_Firmware_Library/GD32F30x_standard_peripheral/Source\gd32f30x_timer.c ****         TIMER_CHCTL2(timer_periph) |= (uint32_t)((uint32_t)state << 8U);
 2416              		.loc 1 1310 0
 2417 0036 036A     		ldr	r3, [r0, #32]
 2418 0038 43EA0222 		orr	r2, r3, r2, lsl #8
 2419              	.LVL181:
 2420 003c 0262     		str	r2, [r0, #32]
1311:C:/Users/49542/Desktop/GD32F30x_Demo_Suites_V2.0.0/GD32F30x_Demo_Suites_V2.0.0/GD32F30x_Firmware_Library/GD32F30x_standard_peripheral/Source\gd32f30x_timer.c ****         break;
 2421              		.loc 1 1311 0
 2422 003e 7047     		bx	lr
 2423              	.LVL182:
 2424              	.L168:
1312:C:/Users/49542/Desktop/GD32F30x_Demo_Suites_V2.0.0/GD32F30x_Demo_Suites_V2.0.0/GD32F30x_Firmware_Library/GD32F30x_standard_peripheral/Source\gd32f30x_timer.c ****     /* configure TIMER_CH_3 */
1313:C:/Users/49542/Desktop/GD32F30x_Demo_Suites_V2.0.0/GD32F30x_Demo_Suites_V2.0.0/GD32F30x_Firmware_Library/GD32F30x_standard_peripheral/Source\gd32f30x_timer.c ****     case TIMER_CH_3:
1314:C:/Users/49542/Desktop/GD32F30x_Demo_Suites_V2.0.0/GD32F30x_Demo_Suites_V2.0.0/GD32F30x_Firmware_Library/GD32F30x_standard_peripheral/Source\gd32f30x_timer.c ****         TIMER_CHCTL2(timer_periph) &= (~(uint32_t)TIMER_CHCTL2_CH3EN);
 2425              		.loc 1 1314 0
 2426 0040 036A     		ldr	r3, [r0, #32]
 2427 0042 23F48053 		bic	r3, r3, #4096
 2428 0046 0362     		str	r3, [r0, #32]
1315:C:/Users/49542/Desktop/GD32F30x_Demo_Suites_V2.0.0/GD32F30x_Demo_Suites_V2.0.0/GD32F30x_Firmware_Library/GD32F30x_standard_peripheral/Source\gd32f30x_timer.c ****         TIMER_CHCTL2(timer_periph) |= (uint32_t)((uint32_t)state << 12U);
 2429              		.loc 1 1315 0
 2430 0048 036A     		ldr	r3, [r0, #32]
 2431 004a 43EA0232 		orr	r2, r3, r2, lsl #12
 2432              	.LVL183:
 2433 004e 0262     		str	r2, [r0, #32]
 2434              	.L162:
1316:C:/Users/49542/Desktop/GD32F30x_Demo_Suites_V2.0.0/GD32F30x_Demo_Suites_V2.0.0/GD32F30x_Firmware_Library/GD32F30x_standard_peripheral/Source\gd32f30x_timer.c ****         break;
1317:C:/Users/49542/Desktop/GD32F30x_Demo_Suites_V2.0.0/GD32F30x_Demo_Suites_V2.0.0/GD32F30x_Firmware_Library/GD32F30x_standard_peripheral/Source\gd32f30x_timer.c ****     default:
ARM GAS  C:\Users\49542\AppData\Local\Temp\ccEBNRSE.s 			page 66


1318:C:/Users/49542/Desktop/GD32F30x_Demo_Suites_V2.0.0/GD32F30x_Demo_Suites_V2.0.0/GD32F30x_Firmware_Library/GD32F30x_standard_peripheral/Source\gd32f30x_timer.c ****         break;
1319:C:/Users/49542/Desktop/GD32F30x_Demo_Suites_V2.0.0/GD32F30x_Demo_Suites_V2.0.0/GD32F30x_Firmware_Library/GD32F30x_standard_peripheral/Source\gd32f30x_timer.c ****     }
1320:C:/Users/49542/Desktop/GD32F30x_Demo_Suites_V2.0.0/GD32F30x_Demo_Suites_V2.0.0/GD32F30x_Firmware_Library/GD32F30x_standard_peripheral/Source\gd32f30x_timer.c **** }
 2435              		.loc 1 1320 0
 2436 0050 7047     		bx	lr
 2437              		.cfi_endproc
 2438              	.LFE165:
 2440              		.section	.text.timer_channel_complementary_output_state_config,"ax",%progbits
 2441              		.align	1
 2442              		.global	timer_channel_complementary_output_state_config
 2443              		.syntax unified
 2444              		.thumb
 2445              		.thumb_func
 2446              		.fpu fpv4-sp-d16
 2448              	timer_channel_complementary_output_state_config:
 2449              	.LFB166:
1321:C:/Users/49542/Desktop/GD32F30x_Demo_Suites_V2.0.0/GD32F30x_Demo_Suites_V2.0.0/GD32F30x_Firmware_Library/GD32F30x_standard_peripheral/Source\gd32f30x_timer.c **** 
1322:C:/Users/49542/Desktop/GD32F30x_Demo_Suites_V2.0.0/GD32F30x_Demo_Suites_V2.0.0/GD32F30x_Firmware_Library/GD32F30x_standard_peripheral/Source\gd32f30x_timer.c **** /*!
1323:C:/Users/49542/Desktop/GD32F30x_Demo_Suites_V2.0.0/GD32F30x_Demo_Suites_V2.0.0/GD32F30x_Firmware_Library/GD32F30x_standard_peripheral/Source\gd32f30x_timer.c ****     \brief      configure TIMER channel complementary output enable state
1324:C:/Users/49542/Desktop/GD32F30x_Demo_Suites_V2.0.0/GD32F30x_Demo_Suites_V2.0.0/GD32F30x_Firmware_Library/GD32F30x_standard_peripheral/Source\gd32f30x_timer.c ****     \param[in]  timer_periph: please refer to the following parameters
1325:C:/Users/49542/Desktop/GD32F30x_Demo_Suites_V2.0.0/GD32F30x_Demo_Suites_V2.0.0/GD32F30x_Firmware_Library/GD32F30x_standard_peripheral/Source\gd32f30x_timer.c ****     \param[in]  channel: 
1326:C:/Users/49542/Desktop/GD32F30x_Demo_Suites_V2.0.0/GD32F30x_Demo_Suites_V2.0.0/GD32F30x_Firmware_Library/GD32F30x_standard_peripheral/Source\gd32f30x_timer.c ****                 only one parameter can be selected which is shown as below:
1327:C:/Users/49542/Desktop/GD32F30x_Demo_Suites_V2.0.0/GD32F30x_Demo_Suites_V2.0.0/GD32F30x_Firmware_Library/GD32F30x_standard_peripheral/Source\gd32f30x_timer.c ****       \arg        TIMER_CH_0: TIMER channel0(TIMERx(x=0,7))
1328:C:/Users/49542/Desktop/GD32F30x_Demo_Suites_V2.0.0/GD32F30x_Demo_Suites_V2.0.0/GD32F30x_Firmware_Library/GD32F30x_standard_peripheral/Source\gd32f30x_timer.c ****       \arg        TIMER_CH_1: TIMER channel1(TIMERx(x=0,7))
1329:C:/Users/49542/Desktop/GD32F30x_Demo_Suites_V2.0.0/GD32F30x_Demo_Suites_V2.0.0/GD32F30x_Firmware_Library/GD32F30x_standard_peripheral/Source\gd32f30x_timer.c ****       \arg        TIMER_CH_2: TIMER channel2(TIMERx(x=0,7))
1330:C:/Users/49542/Desktop/GD32F30x_Demo_Suites_V2.0.0/GD32F30x_Demo_Suites_V2.0.0/GD32F30x_Firmware_Library/GD32F30x_standard_peripheral/Source\gd32f30x_timer.c ****     \param[in]  ocnstate: TIMER channel complementary output enable state
1331:C:/Users/49542/Desktop/GD32F30x_Demo_Suites_V2.0.0/GD32F30x_Demo_Suites_V2.0.0/GD32F30x_Firmware_Library/GD32F30x_standard_peripheral/Source\gd32f30x_timer.c ****                 only one parameter can be selected which is shown as below:
1332:C:/Users/49542/Desktop/GD32F30x_Demo_Suites_V2.0.0/GD32F30x_Demo_Suites_V2.0.0/GD32F30x_Firmware_Library/GD32F30x_standard_peripheral/Source\gd32f30x_timer.c ****       \arg        TIMER_CCXN_ENABLE: channel complementary enable 
1333:C:/Users/49542/Desktop/GD32F30x_Demo_Suites_V2.0.0/GD32F30x_Demo_Suites_V2.0.0/GD32F30x_Firmware_Library/GD32F30x_standard_peripheral/Source\gd32f30x_timer.c ****       \arg        TIMER_CCXN_DISABLE: channel complementary disable 
1334:C:/Users/49542/Desktop/GD32F30x_Demo_Suites_V2.0.0/GD32F30x_Demo_Suites_V2.0.0/GD32F30x_Firmware_Library/GD32F30x_standard_peripheral/Source\gd32f30x_timer.c ****     \param[out] none
1335:C:/Users/49542/Desktop/GD32F30x_Demo_Suites_V2.0.0/GD32F30x_Demo_Suites_V2.0.0/GD32F30x_Firmware_Library/GD32F30x_standard_peripheral/Source\gd32f30x_timer.c ****     \retval     none
1336:C:/Users/49542/Desktop/GD32F30x_Demo_Suites_V2.0.0/GD32F30x_Demo_Suites_V2.0.0/GD32F30x_Firmware_Library/GD32F30x_standard_peripheral/Source\gd32f30x_timer.c **** */
1337:C:/Users/49542/Desktop/GD32F30x_Demo_Suites_V2.0.0/GD32F30x_Demo_Suites_V2.0.0/GD32F30x_Firmware_Library/GD32F30x_standard_peripheral/Source\gd32f30x_timer.c **** void timer_channel_complementary_output_state_config(uint32_t timer_periph, uint16_t channel, uint1
1338:C:/Users/49542/Desktop/GD32F30x_Demo_Suites_V2.0.0/GD32F30x_Demo_Suites_V2.0.0/GD32F30x_Firmware_Library/GD32F30x_standard_peripheral/Source\gd32f30x_timer.c **** {
 2450              		.loc 1 1338 0
 2451              		.cfi_startproc
 2452              		@ args = 0, pretend = 0, frame = 0
 2453              		@ frame_needed = 0, uses_anonymous_args = 0
 2454              		@ link register save eliminated.
 2455              	.LVL184:
1339:C:/Users/49542/Desktop/GD32F30x_Demo_Suites_V2.0.0/GD32F30x_Demo_Suites_V2.0.0/GD32F30x_Firmware_Library/GD32F30x_standard_peripheral/Source\gd32f30x_timer.c ****     switch(channel){
 2456              		.loc 1 1339 0
 2457 0000 0129     		cmp	r1, #1
 2458 0002 0BD0     		beq	.L171
 2459 0004 11B1     		cbz	r1, .L172
 2460 0006 0229     		cmp	r1, #2
 2461 0008 11D0     		beq	.L173
 2462 000a 7047     		bx	lr
 2463              	.L172:
1340:C:/Users/49542/Desktop/GD32F30x_Demo_Suites_V2.0.0/GD32F30x_Demo_Suites_V2.0.0/GD32F30x_Firmware_Library/GD32F30x_standard_peripheral/Source\gd32f30x_timer.c ****     /* configure TIMER_CH_0 */
1341:C:/Users/49542/Desktop/GD32F30x_Demo_Suites_V2.0.0/GD32F30x_Demo_Suites_V2.0.0/GD32F30x_Firmware_Library/GD32F30x_standard_peripheral/Source\gd32f30x_timer.c ****     case TIMER_CH_0:
1342:C:/Users/49542/Desktop/GD32F30x_Demo_Suites_V2.0.0/GD32F30x_Demo_Suites_V2.0.0/GD32F30x_Firmware_Library/GD32F30x_standard_peripheral/Source\gd32f30x_timer.c ****         TIMER_CHCTL2(timer_periph) &= (~(uint32_t)TIMER_CHCTL2_CH0NEN);
 2464              		.loc 1 1342 0
 2465 000c 036A     		ldr	r3, [r0, #32]
 2466 000e 23F00403 		bic	r3, r3, #4
 2467 0012 0362     		str	r3, [r0, #32]
1343:C:/Users/49542/Desktop/GD32F30x_Demo_Suites_V2.0.0/GD32F30x_Demo_Suites_V2.0.0/GD32F30x_Firmware_Library/GD32F30x_standard_peripheral/Source\gd32f30x_timer.c ****         TIMER_CHCTL2(timer_periph) |= (uint32_t)ocnstate;
ARM GAS  C:\Users\49542\AppData\Local\Temp\ccEBNRSE.s 			page 67


 2468              		.loc 1 1343 0
 2469 0014 036A     		ldr	r3, [r0, #32]
 2470 0016 1A43     		orrs	r2, r2, r3
 2471              	.LVL185:
 2472 0018 0262     		str	r2, [r0, #32]
1344:C:/Users/49542/Desktop/GD32F30x_Demo_Suites_V2.0.0/GD32F30x_Demo_Suites_V2.0.0/GD32F30x_Firmware_Library/GD32F30x_standard_peripheral/Source\gd32f30x_timer.c ****         break;
 2473              		.loc 1 1344 0
 2474 001a 7047     		bx	lr
 2475              	.LVL186:
 2476              	.L171:
1345:C:/Users/49542/Desktop/GD32F30x_Demo_Suites_V2.0.0/GD32F30x_Demo_Suites_V2.0.0/GD32F30x_Firmware_Library/GD32F30x_standard_peripheral/Source\gd32f30x_timer.c ****     /* configure TIMER_CH_1 */
1346:C:/Users/49542/Desktop/GD32F30x_Demo_Suites_V2.0.0/GD32F30x_Demo_Suites_V2.0.0/GD32F30x_Firmware_Library/GD32F30x_standard_peripheral/Source\gd32f30x_timer.c ****     case TIMER_CH_1:
1347:C:/Users/49542/Desktop/GD32F30x_Demo_Suites_V2.0.0/GD32F30x_Demo_Suites_V2.0.0/GD32F30x_Firmware_Library/GD32F30x_standard_peripheral/Source\gd32f30x_timer.c ****         TIMER_CHCTL2(timer_periph) &= (~(uint32_t)TIMER_CHCTL2_CH1NEN);
 2477              		.loc 1 1347 0
 2478 001c 036A     		ldr	r3, [r0, #32]
 2479 001e 23F04003 		bic	r3, r3, #64
 2480 0022 0362     		str	r3, [r0, #32]
1348:C:/Users/49542/Desktop/GD32F30x_Demo_Suites_V2.0.0/GD32F30x_Demo_Suites_V2.0.0/GD32F30x_Firmware_Library/GD32F30x_standard_peripheral/Source\gd32f30x_timer.c ****         TIMER_CHCTL2(timer_periph) |= (uint32_t)((uint32_t)ocnstate << 4U);
 2481              		.loc 1 1348 0
 2482 0024 036A     		ldr	r3, [r0, #32]
 2483 0026 43EA0212 		orr	r2, r3, r2, lsl #4
 2484              	.LVL187:
 2485 002a 0262     		str	r2, [r0, #32]
1349:C:/Users/49542/Desktop/GD32F30x_Demo_Suites_V2.0.0/GD32F30x_Demo_Suites_V2.0.0/GD32F30x_Firmware_Library/GD32F30x_standard_peripheral/Source\gd32f30x_timer.c ****         break;
 2486              		.loc 1 1349 0
 2487 002c 7047     		bx	lr
 2488              	.LVL188:
 2489              	.L173:
1350:C:/Users/49542/Desktop/GD32F30x_Demo_Suites_V2.0.0/GD32F30x_Demo_Suites_V2.0.0/GD32F30x_Firmware_Library/GD32F30x_standard_peripheral/Source\gd32f30x_timer.c ****     /* configure TIMER_CH_2 */
1351:C:/Users/49542/Desktop/GD32F30x_Demo_Suites_V2.0.0/GD32F30x_Demo_Suites_V2.0.0/GD32F30x_Firmware_Library/GD32F30x_standard_peripheral/Source\gd32f30x_timer.c ****     case TIMER_CH_2:
1352:C:/Users/49542/Desktop/GD32F30x_Demo_Suites_V2.0.0/GD32F30x_Demo_Suites_V2.0.0/GD32F30x_Firmware_Library/GD32F30x_standard_peripheral/Source\gd32f30x_timer.c ****         TIMER_CHCTL2(timer_periph) &= (~(uint32_t)TIMER_CHCTL2_CH2NEN);
 2490              		.loc 1 1352 0
 2491 002e 036A     		ldr	r3, [r0, #32]
 2492 0030 23F48063 		bic	r3, r3, #1024
 2493 0034 0362     		str	r3, [r0, #32]
1353:C:/Users/49542/Desktop/GD32F30x_Demo_Suites_V2.0.0/GD32F30x_Demo_Suites_V2.0.0/GD32F30x_Firmware_Library/GD32F30x_standard_peripheral/Source\gd32f30x_timer.c ****         TIMER_CHCTL2(timer_periph) |= (uint32_t)((uint32_t)ocnstate << 8U);
 2494              		.loc 1 1353 0
 2495 0036 036A     		ldr	r3, [r0, #32]
 2496 0038 43EA0222 		orr	r2, r3, r2, lsl #8
 2497              	.LVL189:
 2498 003c 0262     		str	r2, [r0, #32]
1354:C:/Users/49542/Desktop/GD32F30x_Demo_Suites_V2.0.0/GD32F30x_Demo_Suites_V2.0.0/GD32F30x_Firmware_Library/GD32F30x_standard_peripheral/Source\gd32f30x_timer.c ****         break;
1355:C:/Users/49542/Desktop/GD32F30x_Demo_Suites_V2.0.0/GD32F30x_Demo_Suites_V2.0.0/GD32F30x_Firmware_Library/GD32F30x_standard_peripheral/Source\gd32f30x_timer.c ****     default:
1356:C:/Users/49542/Desktop/GD32F30x_Demo_Suites_V2.0.0/GD32F30x_Demo_Suites_V2.0.0/GD32F30x_Firmware_Library/GD32F30x_standard_peripheral/Source\gd32f30x_timer.c ****         break;
1357:C:/Users/49542/Desktop/GD32F30x_Demo_Suites_V2.0.0/GD32F30x_Demo_Suites_V2.0.0/GD32F30x_Firmware_Library/GD32F30x_standard_peripheral/Source\gd32f30x_timer.c ****     }
1358:C:/Users/49542/Desktop/GD32F30x_Demo_Suites_V2.0.0/GD32F30x_Demo_Suites_V2.0.0/GD32F30x_Firmware_Library/GD32F30x_standard_peripheral/Source\gd32f30x_timer.c **** }
 2499              		.loc 1 1358 0
 2500 003e 7047     		bx	lr
 2501              		.cfi_endproc
 2502              	.LFE166:
 2504              		.section	.text.timer_channel_input_struct_para_init,"ax",%progbits
 2505              		.align	1
 2506              		.global	timer_channel_input_struct_para_init
 2507              		.syntax unified
 2508              		.thumb
 2509              		.thumb_func
 2510              		.fpu fpv4-sp-d16
ARM GAS  C:\Users\49542\AppData\Local\Temp\ccEBNRSE.s 			page 68


 2512              	timer_channel_input_struct_para_init:
 2513              	.LFB167:
1359:C:/Users/49542/Desktop/GD32F30x_Demo_Suites_V2.0.0/GD32F30x_Demo_Suites_V2.0.0/GD32F30x_Firmware_Library/GD32F30x_standard_peripheral/Source\gd32f30x_timer.c **** 
1360:C:/Users/49542/Desktop/GD32F30x_Demo_Suites_V2.0.0/GD32F30x_Demo_Suites_V2.0.0/GD32F30x_Firmware_Library/GD32F30x_standard_peripheral/Source\gd32f30x_timer.c **** /*!
1361:C:/Users/49542/Desktop/GD32F30x_Demo_Suites_V2.0.0/GD32F30x_Demo_Suites_V2.0.0/GD32F30x_Firmware_Library/GD32F30x_standard_peripheral/Source\gd32f30x_timer.c ****     \brief      initialize TIMER channel input parameter struct with a default value
1362:C:/Users/49542/Desktop/GD32F30x_Demo_Suites_V2.0.0/GD32F30x_Demo_Suites_V2.0.0/GD32F30x_Firmware_Library/GD32F30x_standard_peripheral/Source\gd32f30x_timer.c ****     \param[in]  icpara: TIMER channel intput parameter struct
1363:C:/Users/49542/Desktop/GD32F30x_Demo_Suites_V2.0.0/GD32F30x_Demo_Suites_V2.0.0/GD32F30x_Firmware_Library/GD32F30x_standard_peripheral/Source\gd32f30x_timer.c ****     \param[out] none
1364:C:/Users/49542/Desktop/GD32F30x_Demo_Suites_V2.0.0/GD32F30x_Demo_Suites_V2.0.0/GD32F30x_Firmware_Library/GD32F30x_standard_peripheral/Source\gd32f30x_timer.c ****     \retval     none
1365:C:/Users/49542/Desktop/GD32F30x_Demo_Suites_V2.0.0/GD32F30x_Demo_Suites_V2.0.0/GD32F30x_Firmware_Library/GD32F30x_standard_peripheral/Source\gd32f30x_timer.c **** */
1366:C:/Users/49542/Desktop/GD32F30x_Demo_Suites_V2.0.0/GD32F30x_Demo_Suites_V2.0.0/GD32F30x_Firmware_Library/GD32F30x_standard_peripheral/Source\gd32f30x_timer.c **** void timer_channel_input_struct_para_init(timer_ic_parameter_struct* icpara)
1367:C:/Users/49542/Desktop/GD32F30x_Demo_Suites_V2.0.0/GD32F30x_Demo_Suites_V2.0.0/GD32F30x_Firmware_Library/GD32F30x_standard_peripheral/Source\gd32f30x_timer.c **** {
 2514              		.loc 1 1367 0
 2515              		.cfi_startproc
 2516              		@ args = 0, pretend = 0, frame = 0
 2517              		@ frame_needed = 0, uses_anonymous_args = 0
 2518              		@ link register save eliminated.
 2519              	.LVL190:
1368:C:/Users/49542/Desktop/GD32F30x_Demo_Suites_V2.0.0/GD32F30x_Demo_Suites_V2.0.0/GD32F30x_Firmware_Library/GD32F30x_standard_peripheral/Source\gd32f30x_timer.c ****     /* initialize the channel input parameter struct member with the default value */
1369:C:/Users/49542/Desktop/GD32F30x_Demo_Suites_V2.0.0/GD32F30x_Demo_Suites_V2.0.0/GD32F30x_Firmware_Library/GD32F30x_standard_peripheral/Source\gd32f30x_timer.c ****     icpara->icpolarity  = TIMER_IC_POLARITY_RISING;
 2520              		.loc 1 1369 0
 2521 0000 0023     		movs	r3, #0
 2522 0002 0380     		strh	r3, [r0]	@ movhi
1370:C:/Users/49542/Desktop/GD32F30x_Demo_Suites_V2.0.0/GD32F30x_Demo_Suites_V2.0.0/GD32F30x_Firmware_Library/GD32F30x_standard_peripheral/Source\gd32f30x_timer.c ****     icpara->icselection = TIMER_IC_SELECTION_DIRECTTI;
 2523              		.loc 1 1370 0
 2524 0004 0122     		movs	r2, #1
 2525 0006 4280     		strh	r2, [r0, #2]	@ movhi
1371:C:/Users/49542/Desktop/GD32F30x_Demo_Suites_V2.0.0/GD32F30x_Demo_Suites_V2.0.0/GD32F30x_Firmware_Library/GD32F30x_standard_peripheral/Source\gd32f30x_timer.c ****     icpara->icprescaler = TIMER_IC_PSC_DIV1;
 2526              		.loc 1 1371 0
 2527 0008 8380     		strh	r3, [r0, #4]	@ movhi
1372:C:/Users/49542/Desktop/GD32F30x_Demo_Suites_V2.0.0/GD32F30x_Demo_Suites_V2.0.0/GD32F30x_Firmware_Library/GD32F30x_standard_peripheral/Source\gd32f30x_timer.c ****     icpara->icfilter    = 0U;
 2528              		.loc 1 1372 0
 2529 000a C380     		strh	r3, [r0, #6]	@ movhi
1373:C:/Users/49542/Desktop/GD32F30x_Demo_Suites_V2.0.0/GD32F30x_Demo_Suites_V2.0.0/GD32F30x_Firmware_Library/GD32F30x_standard_peripheral/Source\gd32f30x_timer.c **** }
 2530              		.loc 1 1373 0
 2531 000c 7047     		bx	lr
 2532              		.cfi_endproc
 2533              	.LFE167:
 2535              		.section	.text.timer_channel_input_capture_prescaler_config,"ax",%progbits
 2536              		.align	1
 2537              		.global	timer_channel_input_capture_prescaler_config
 2538              		.syntax unified
 2539              		.thumb
 2540              		.thumb_func
 2541              		.fpu fpv4-sp-d16
 2543              	timer_channel_input_capture_prescaler_config:
 2544              	.LFB169:
1374:C:/Users/49542/Desktop/GD32F30x_Demo_Suites_V2.0.0/GD32F30x_Demo_Suites_V2.0.0/GD32F30x_Firmware_Library/GD32F30x_standard_peripheral/Source\gd32f30x_timer.c **** 
1375:C:/Users/49542/Desktop/GD32F30x_Demo_Suites_V2.0.0/GD32F30x_Demo_Suites_V2.0.0/GD32F30x_Firmware_Library/GD32F30x_standard_peripheral/Source\gd32f30x_timer.c **** /*!
1376:C:/Users/49542/Desktop/GD32F30x_Demo_Suites_V2.0.0/GD32F30x_Demo_Suites_V2.0.0/GD32F30x_Firmware_Library/GD32F30x_standard_peripheral/Source\gd32f30x_timer.c ****     \brief      configure TIMER input capture parameter 
1377:C:/Users/49542/Desktop/GD32F30x_Demo_Suites_V2.0.0/GD32F30x_Demo_Suites_V2.0.0/GD32F30x_Firmware_Library/GD32F30x_standard_peripheral/Source\gd32f30x_timer.c ****     \param[in]  timer_periph: please refer to the following parameters
1378:C:/Users/49542/Desktop/GD32F30x_Demo_Suites_V2.0.0/GD32F30x_Demo_Suites_V2.0.0/GD32F30x_Firmware_Library/GD32F30x_standard_peripheral/Source\gd32f30x_timer.c ****     \param[in]  channel: 
1379:C:/Users/49542/Desktop/GD32F30x_Demo_Suites_V2.0.0/GD32F30x_Demo_Suites_V2.0.0/GD32F30x_Firmware_Library/GD32F30x_standard_peripheral/Source\gd32f30x_timer.c ****                 only one parameter can be selected which is shown as below:
1380:C:/Users/49542/Desktop/GD32F30x_Demo_Suites_V2.0.0/GD32F30x_Demo_Suites_V2.0.0/GD32F30x_Firmware_Library/GD32F30x_standard_peripheral/Source\gd32f30x_timer.c ****       \arg        TIMER_CH_0: TIMER channel0(TIMERx(x=0..4,7..13))
1381:C:/Users/49542/Desktop/GD32F30x_Demo_Suites_V2.0.0/GD32F30x_Demo_Suites_V2.0.0/GD32F30x_Firmware_Library/GD32F30x_standard_peripheral/Source\gd32f30x_timer.c ****       \arg        TIMER_CH_1: TIMER channel1(TIMERx(x=0..4,7,8,11))
1382:C:/Users/49542/Desktop/GD32F30x_Demo_Suites_V2.0.0/GD32F30x_Demo_Suites_V2.0.0/GD32F30x_Firmware_Library/GD32F30x_standard_peripheral/Source\gd32f30x_timer.c ****       \arg        TIMER_CH_2: TIMER channel2(TIMERx(x=0..4,7))
1383:C:/Users/49542/Desktop/GD32F30x_Demo_Suites_V2.0.0/GD32F30x_Demo_Suites_V2.0.0/GD32F30x_Firmware_Library/GD32F30x_standard_peripheral/Source\gd32f30x_timer.c ****       \arg        TIMER_CH_3: TIMER channel3(TIMERx(x=0..4,7))
1384:C:/Users/49542/Desktop/GD32F30x_Demo_Suites_V2.0.0/GD32F30x_Demo_Suites_V2.0.0/GD32F30x_Firmware_Library/GD32F30x_standard_peripheral/Source\gd32f30x_timer.c ****      \param[in]  icpara: TIMER channel intput parameter struct
ARM GAS  C:\Users\49542\AppData\Local\Temp\ccEBNRSE.s 			page 69


1385:C:/Users/49542/Desktop/GD32F30x_Demo_Suites_V2.0.0/GD32F30x_Demo_Suites_V2.0.0/GD32F30x_Firmware_Library/GD32F30x_standard_peripheral/Source\gd32f30x_timer.c ****                  icpolarity: TIMER_IC_POLARITY_RISING,TIMER_IC_POLARITY_FALLING,TIMER_IC_POLARITY_B
1386:C:/Users/49542/Desktop/GD32F30x_Demo_Suites_V2.0.0/GD32F30x_Demo_Suites_V2.0.0/GD32F30x_Firmware_Library/GD32F30x_standard_peripheral/Source\gd32f30x_timer.c ****                  icselection: TIMER_IC_SELECTION_DIRECTTI,TIMER_IC_SELECTION_INDIRECTTI,TIMER_IC_SE
1387:C:/Users/49542/Desktop/GD32F30x_Demo_Suites_V2.0.0/GD32F30x_Demo_Suites_V2.0.0/GD32F30x_Firmware_Library/GD32F30x_standard_peripheral/Source\gd32f30x_timer.c ****                  icprescaler: TIMER_IC_PSC_DIV1,TIMER_IC_PSC_DIV2,TIMER_IC_PSC_DIV4,TIMER_IC_PSC_DI
1388:C:/Users/49542/Desktop/GD32F30x_Demo_Suites_V2.0.0/GD32F30x_Demo_Suites_V2.0.0/GD32F30x_Firmware_Library/GD32F30x_standard_peripheral/Source\gd32f30x_timer.c ****                  icfilter: 0~15
1389:C:/Users/49542/Desktop/GD32F30x_Demo_Suites_V2.0.0/GD32F30x_Demo_Suites_V2.0.0/GD32F30x_Firmware_Library/GD32F30x_standard_peripheral/Source\gd32f30x_timer.c ****     \param[out]  none
1390:C:/Users/49542/Desktop/GD32F30x_Demo_Suites_V2.0.0/GD32F30x_Demo_Suites_V2.0.0/GD32F30x_Firmware_Library/GD32F30x_standard_peripheral/Source\gd32f30x_timer.c ****     \retval      none
1391:C:/Users/49542/Desktop/GD32F30x_Demo_Suites_V2.0.0/GD32F30x_Demo_Suites_V2.0.0/GD32F30x_Firmware_Library/GD32F30x_standard_peripheral/Source\gd32f30x_timer.c **** */
1392:C:/Users/49542/Desktop/GD32F30x_Demo_Suites_V2.0.0/GD32F30x_Demo_Suites_V2.0.0/GD32F30x_Firmware_Library/GD32F30x_standard_peripheral/Source\gd32f30x_timer.c **** void timer_input_capture_config(uint32_t timer_periph,uint16_t channel, timer_ic_parameter_struct* 
1393:C:/Users/49542/Desktop/GD32F30x_Demo_Suites_V2.0.0/GD32F30x_Demo_Suites_V2.0.0/GD32F30x_Firmware_Library/GD32F30x_standard_peripheral/Source\gd32f30x_timer.c **** {
1394:C:/Users/49542/Desktop/GD32F30x_Demo_Suites_V2.0.0/GD32F30x_Demo_Suites_V2.0.0/GD32F30x_Firmware_Library/GD32F30x_standard_peripheral/Source\gd32f30x_timer.c ****     switch(channel){
1395:C:/Users/49542/Desktop/GD32F30x_Demo_Suites_V2.0.0/GD32F30x_Demo_Suites_V2.0.0/GD32F30x_Firmware_Library/GD32F30x_standard_peripheral/Source\gd32f30x_timer.c ****     /* configure TIMER_CH_0 */
1396:C:/Users/49542/Desktop/GD32F30x_Demo_Suites_V2.0.0/GD32F30x_Demo_Suites_V2.0.0/GD32F30x_Firmware_Library/GD32F30x_standard_peripheral/Source\gd32f30x_timer.c ****     case TIMER_CH_0:
1397:C:/Users/49542/Desktop/GD32F30x_Demo_Suites_V2.0.0/GD32F30x_Demo_Suites_V2.0.0/GD32F30x_Firmware_Library/GD32F30x_standard_peripheral/Source\gd32f30x_timer.c ****         /* reset the CH0EN bit */
1398:C:/Users/49542/Desktop/GD32F30x_Demo_Suites_V2.0.0/GD32F30x_Demo_Suites_V2.0.0/GD32F30x_Firmware_Library/GD32F30x_standard_peripheral/Source\gd32f30x_timer.c ****         TIMER_CHCTL2(timer_periph) &= (~(uint32_t)TIMER_CHCTL2_CH0EN);
1399:C:/Users/49542/Desktop/GD32F30x_Demo_Suites_V2.0.0/GD32F30x_Demo_Suites_V2.0.0/GD32F30x_Firmware_Library/GD32F30x_standard_peripheral/Source\gd32f30x_timer.c **** 
1400:C:/Users/49542/Desktop/GD32F30x_Demo_Suites_V2.0.0/GD32F30x_Demo_Suites_V2.0.0/GD32F30x_Firmware_Library/GD32F30x_standard_peripheral/Source\gd32f30x_timer.c ****         /* reset the CH0P and CH0NP bits */
1401:C:/Users/49542/Desktop/GD32F30x_Demo_Suites_V2.0.0/GD32F30x_Demo_Suites_V2.0.0/GD32F30x_Firmware_Library/GD32F30x_standard_peripheral/Source\gd32f30x_timer.c ****         TIMER_CHCTL2(timer_periph) &= (~(uint32_t)(TIMER_CHCTL2_CH0P | TIMER_CHCTL2_CH0NP));
1402:C:/Users/49542/Desktop/GD32F30x_Demo_Suites_V2.0.0/GD32F30x_Demo_Suites_V2.0.0/GD32F30x_Firmware_Library/GD32F30x_standard_peripheral/Source\gd32f30x_timer.c ****         TIMER_CHCTL2(timer_periph) |= (uint32_t)(icpara->icpolarity);
1403:C:/Users/49542/Desktop/GD32F30x_Demo_Suites_V2.0.0/GD32F30x_Demo_Suites_V2.0.0/GD32F30x_Firmware_Library/GD32F30x_standard_peripheral/Source\gd32f30x_timer.c ****         /* reset the CH0MS bit */
1404:C:/Users/49542/Desktop/GD32F30x_Demo_Suites_V2.0.0/GD32F30x_Demo_Suites_V2.0.0/GD32F30x_Firmware_Library/GD32F30x_standard_peripheral/Source\gd32f30x_timer.c ****         TIMER_CHCTL0(timer_periph) &= (~(uint32_t)TIMER_CHCTL0_CH0MS);
1405:C:/Users/49542/Desktop/GD32F30x_Demo_Suites_V2.0.0/GD32F30x_Demo_Suites_V2.0.0/GD32F30x_Firmware_Library/GD32F30x_standard_peripheral/Source\gd32f30x_timer.c ****         TIMER_CHCTL0(timer_periph) |= (uint32_t)(icpara->icselection);
1406:C:/Users/49542/Desktop/GD32F30x_Demo_Suites_V2.0.0/GD32F30x_Demo_Suites_V2.0.0/GD32F30x_Firmware_Library/GD32F30x_standard_peripheral/Source\gd32f30x_timer.c ****         /* reset the CH0CAPFLT bit */
1407:C:/Users/49542/Desktop/GD32F30x_Demo_Suites_V2.0.0/GD32F30x_Demo_Suites_V2.0.0/GD32F30x_Firmware_Library/GD32F30x_standard_peripheral/Source\gd32f30x_timer.c ****         TIMER_CHCTL0(timer_periph) &= (~(uint32_t)TIMER_CHCTL0_CH0CAPFLT);
1408:C:/Users/49542/Desktop/GD32F30x_Demo_Suites_V2.0.0/GD32F30x_Demo_Suites_V2.0.0/GD32F30x_Firmware_Library/GD32F30x_standard_peripheral/Source\gd32f30x_timer.c ****         TIMER_CHCTL0(timer_periph) |= (uint32_t)((uint32_t)(icpara->icfilter) << 4U);
1409:C:/Users/49542/Desktop/GD32F30x_Demo_Suites_V2.0.0/GD32F30x_Demo_Suites_V2.0.0/GD32F30x_Firmware_Library/GD32F30x_standard_peripheral/Source\gd32f30x_timer.c **** 
1410:C:/Users/49542/Desktop/GD32F30x_Demo_Suites_V2.0.0/GD32F30x_Demo_Suites_V2.0.0/GD32F30x_Firmware_Library/GD32F30x_standard_peripheral/Source\gd32f30x_timer.c ****         /* set the CH0EN bit */
1411:C:/Users/49542/Desktop/GD32F30x_Demo_Suites_V2.0.0/GD32F30x_Demo_Suites_V2.0.0/GD32F30x_Firmware_Library/GD32F30x_standard_peripheral/Source\gd32f30x_timer.c ****         TIMER_CHCTL2(timer_periph) |= (uint32_t)TIMER_CHCTL2_CH0EN;
1412:C:/Users/49542/Desktop/GD32F30x_Demo_Suites_V2.0.0/GD32F30x_Demo_Suites_V2.0.0/GD32F30x_Firmware_Library/GD32F30x_standard_peripheral/Source\gd32f30x_timer.c ****         break;
1413:C:/Users/49542/Desktop/GD32F30x_Demo_Suites_V2.0.0/GD32F30x_Demo_Suites_V2.0.0/GD32F30x_Firmware_Library/GD32F30x_standard_peripheral/Source\gd32f30x_timer.c ****     
1414:C:/Users/49542/Desktop/GD32F30x_Demo_Suites_V2.0.0/GD32F30x_Demo_Suites_V2.0.0/GD32F30x_Firmware_Library/GD32F30x_standard_peripheral/Source\gd32f30x_timer.c ****     /* configure TIMER_CH_1 */
1415:C:/Users/49542/Desktop/GD32F30x_Demo_Suites_V2.0.0/GD32F30x_Demo_Suites_V2.0.0/GD32F30x_Firmware_Library/GD32F30x_standard_peripheral/Source\gd32f30x_timer.c ****     case TIMER_CH_1:
1416:C:/Users/49542/Desktop/GD32F30x_Demo_Suites_V2.0.0/GD32F30x_Demo_Suites_V2.0.0/GD32F30x_Firmware_Library/GD32F30x_standard_peripheral/Source\gd32f30x_timer.c ****         /* reset the CH1EN bit */
1417:C:/Users/49542/Desktop/GD32F30x_Demo_Suites_V2.0.0/GD32F30x_Demo_Suites_V2.0.0/GD32F30x_Firmware_Library/GD32F30x_standard_peripheral/Source\gd32f30x_timer.c ****         TIMER_CHCTL2(timer_periph) &= (~(uint32_t)TIMER_CHCTL2_CH1EN);
1418:C:/Users/49542/Desktop/GD32F30x_Demo_Suites_V2.0.0/GD32F30x_Demo_Suites_V2.0.0/GD32F30x_Firmware_Library/GD32F30x_standard_peripheral/Source\gd32f30x_timer.c **** 
1419:C:/Users/49542/Desktop/GD32F30x_Demo_Suites_V2.0.0/GD32F30x_Demo_Suites_V2.0.0/GD32F30x_Firmware_Library/GD32F30x_standard_peripheral/Source\gd32f30x_timer.c ****         /* reset the CH1P and CH1NP bits */
1420:C:/Users/49542/Desktop/GD32F30x_Demo_Suites_V2.0.0/GD32F30x_Demo_Suites_V2.0.0/GD32F30x_Firmware_Library/GD32F30x_standard_peripheral/Source\gd32f30x_timer.c ****         TIMER_CHCTL2(timer_periph) &= (~(uint32_t)(TIMER_CHCTL2_CH1P | TIMER_CHCTL2_CH1NP));
1421:C:/Users/49542/Desktop/GD32F30x_Demo_Suites_V2.0.0/GD32F30x_Demo_Suites_V2.0.0/GD32F30x_Firmware_Library/GD32F30x_standard_peripheral/Source\gd32f30x_timer.c ****         TIMER_CHCTL2(timer_periph) |= (uint32_t)((uint32_t)(icpara->icpolarity) << 4U);
1422:C:/Users/49542/Desktop/GD32F30x_Demo_Suites_V2.0.0/GD32F30x_Demo_Suites_V2.0.0/GD32F30x_Firmware_Library/GD32F30x_standard_peripheral/Source\gd32f30x_timer.c ****         /* reset the CH1MS bit */
1423:C:/Users/49542/Desktop/GD32F30x_Demo_Suites_V2.0.0/GD32F30x_Demo_Suites_V2.0.0/GD32F30x_Firmware_Library/GD32F30x_standard_peripheral/Source\gd32f30x_timer.c ****         TIMER_CHCTL0(timer_periph) &= (~(uint32_t)TIMER_CHCTL0_CH1MS);
1424:C:/Users/49542/Desktop/GD32F30x_Demo_Suites_V2.0.0/GD32F30x_Demo_Suites_V2.0.0/GD32F30x_Firmware_Library/GD32F30x_standard_peripheral/Source\gd32f30x_timer.c ****         TIMER_CHCTL0(timer_periph) |= (uint32_t)((uint32_t)(icpara->icselection) << 8U);
1425:C:/Users/49542/Desktop/GD32F30x_Demo_Suites_V2.0.0/GD32F30x_Demo_Suites_V2.0.0/GD32F30x_Firmware_Library/GD32F30x_standard_peripheral/Source\gd32f30x_timer.c ****         /* reset the CH1CAPFLT bit */
1426:C:/Users/49542/Desktop/GD32F30x_Demo_Suites_V2.0.0/GD32F30x_Demo_Suites_V2.0.0/GD32F30x_Firmware_Library/GD32F30x_standard_peripheral/Source\gd32f30x_timer.c ****         TIMER_CHCTL0(timer_periph) &= (~(uint32_t)TIMER_CHCTL0_CH1CAPFLT);
1427:C:/Users/49542/Desktop/GD32F30x_Demo_Suites_V2.0.0/GD32F30x_Demo_Suites_V2.0.0/GD32F30x_Firmware_Library/GD32F30x_standard_peripheral/Source\gd32f30x_timer.c ****         TIMER_CHCTL0(timer_periph) |= (uint32_t)((uint32_t)(icpara->icfilter) << 12U);
1428:C:/Users/49542/Desktop/GD32F30x_Demo_Suites_V2.0.0/GD32F30x_Demo_Suites_V2.0.0/GD32F30x_Firmware_Library/GD32F30x_standard_peripheral/Source\gd32f30x_timer.c **** 
1429:C:/Users/49542/Desktop/GD32F30x_Demo_Suites_V2.0.0/GD32F30x_Demo_Suites_V2.0.0/GD32F30x_Firmware_Library/GD32F30x_standard_peripheral/Source\gd32f30x_timer.c ****         /* set the CH1EN bit */
1430:C:/Users/49542/Desktop/GD32F30x_Demo_Suites_V2.0.0/GD32F30x_Demo_Suites_V2.0.0/GD32F30x_Firmware_Library/GD32F30x_standard_peripheral/Source\gd32f30x_timer.c ****         TIMER_CHCTL2(timer_periph) |= (uint32_t)TIMER_CHCTL2_CH1EN;
1431:C:/Users/49542/Desktop/GD32F30x_Demo_Suites_V2.0.0/GD32F30x_Demo_Suites_V2.0.0/GD32F30x_Firmware_Library/GD32F30x_standard_peripheral/Source\gd32f30x_timer.c ****         break;
1432:C:/Users/49542/Desktop/GD32F30x_Demo_Suites_V2.0.0/GD32F30x_Demo_Suites_V2.0.0/GD32F30x_Firmware_Library/GD32F30x_standard_peripheral/Source\gd32f30x_timer.c ****     /* configure TIMER_CH_2 */
1433:C:/Users/49542/Desktop/GD32F30x_Demo_Suites_V2.0.0/GD32F30x_Demo_Suites_V2.0.0/GD32F30x_Firmware_Library/GD32F30x_standard_peripheral/Source\gd32f30x_timer.c ****     case TIMER_CH_2:
1434:C:/Users/49542/Desktop/GD32F30x_Demo_Suites_V2.0.0/GD32F30x_Demo_Suites_V2.0.0/GD32F30x_Firmware_Library/GD32F30x_standard_peripheral/Source\gd32f30x_timer.c ****         /* reset the CH2EN bit */
1435:C:/Users/49542/Desktop/GD32F30x_Demo_Suites_V2.0.0/GD32F30x_Demo_Suites_V2.0.0/GD32F30x_Firmware_Library/GD32F30x_standard_peripheral/Source\gd32f30x_timer.c ****         TIMER_CHCTL2(timer_periph) &= (~(uint32_t)TIMER_CHCTL2_CH2EN);
1436:C:/Users/49542/Desktop/GD32F30x_Demo_Suites_V2.0.0/GD32F30x_Demo_Suites_V2.0.0/GD32F30x_Firmware_Library/GD32F30x_standard_peripheral/Source\gd32f30x_timer.c **** 
1437:C:/Users/49542/Desktop/GD32F30x_Demo_Suites_V2.0.0/GD32F30x_Demo_Suites_V2.0.0/GD32F30x_Firmware_Library/GD32F30x_standard_peripheral/Source\gd32f30x_timer.c ****         /* reset the CH2P and CH2NP bits */
1438:C:/Users/49542/Desktop/GD32F30x_Demo_Suites_V2.0.0/GD32F30x_Demo_Suites_V2.0.0/GD32F30x_Firmware_Library/GD32F30x_standard_peripheral/Source\gd32f30x_timer.c ****         TIMER_CHCTL2(timer_periph) &= (~(uint32_t)(TIMER_CHCTL2_CH2P|TIMER_CHCTL2_CH2NP));
1439:C:/Users/49542/Desktop/GD32F30x_Demo_Suites_V2.0.0/GD32F30x_Demo_Suites_V2.0.0/GD32F30x_Firmware_Library/GD32F30x_standard_peripheral/Source\gd32f30x_timer.c ****         TIMER_CHCTL2(timer_periph) |= (uint32_t)((uint32_t)(icpara->icpolarity) << 8U);
1440:C:/Users/49542/Desktop/GD32F30x_Demo_Suites_V2.0.0/GD32F30x_Demo_Suites_V2.0.0/GD32F30x_Firmware_Library/GD32F30x_standard_peripheral/Source\gd32f30x_timer.c **** 
1441:C:/Users/49542/Desktop/GD32F30x_Demo_Suites_V2.0.0/GD32F30x_Demo_Suites_V2.0.0/GD32F30x_Firmware_Library/GD32F30x_standard_peripheral/Source\gd32f30x_timer.c ****         /* reset the CH2MS bit */
ARM GAS  C:\Users\49542\AppData\Local\Temp\ccEBNRSE.s 			page 70


1442:C:/Users/49542/Desktop/GD32F30x_Demo_Suites_V2.0.0/GD32F30x_Demo_Suites_V2.0.0/GD32F30x_Firmware_Library/GD32F30x_standard_peripheral/Source\gd32f30x_timer.c ****         TIMER_CHCTL1(timer_periph) &= (~(uint32_t)TIMER_CHCTL1_CH2MS);
1443:C:/Users/49542/Desktop/GD32F30x_Demo_Suites_V2.0.0/GD32F30x_Demo_Suites_V2.0.0/GD32F30x_Firmware_Library/GD32F30x_standard_peripheral/Source\gd32f30x_timer.c ****         TIMER_CHCTL1(timer_periph) |= (uint32_t)((uint32_t)(icpara->icselection));
1444:C:/Users/49542/Desktop/GD32F30x_Demo_Suites_V2.0.0/GD32F30x_Demo_Suites_V2.0.0/GD32F30x_Firmware_Library/GD32F30x_standard_peripheral/Source\gd32f30x_timer.c **** 
1445:C:/Users/49542/Desktop/GD32F30x_Demo_Suites_V2.0.0/GD32F30x_Demo_Suites_V2.0.0/GD32F30x_Firmware_Library/GD32F30x_standard_peripheral/Source\gd32f30x_timer.c ****         /* reset the CH2CAPFLT bit */
1446:C:/Users/49542/Desktop/GD32F30x_Demo_Suites_V2.0.0/GD32F30x_Demo_Suites_V2.0.0/GD32F30x_Firmware_Library/GD32F30x_standard_peripheral/Source\gd32f30x_timer.c ****         TIMER_CHCTL1(timer_periph) &= (~(uint32_t)TIMER_CHCTL1_CH2CAPFLT);
1447:C:/Users/49542/Desktop/GD32F30x_Demo_Suites_V2.0.0/GD32F30x_Demo_Suites_V2.0.0/GD32F30x_Firmware_Library/GD32F30x_standard_peripheral/Source\gd32f30x_timer.c ****         TIMER_CHCTL1(timer_periph) |= (uint32_t)((uint32_t)(icpara->icfilter) << 4U);
1448:C:/Users/49542/Desktop/GD32F30x_Demo_Suites_V2.0.0/GD32F30x_Demo_Suites_V2.0.0/GD32F30x_Firmware_Library/GD32F30x_standard_peripheral/Source\gd32f30x_timer.c **** 
1449:C:/Users/49542/Desktop/GD32F30x_Demo_Suites_V2.0.0/GD32F30x_Demo_Suites_V2.0.0/GD32F30x_Firmware_Library/GD32F30x_standard_peripheral/Source\gd32f30x_timer.c ****         /* set the CH2EN bit */
1450:C:/Users/49542/Desktop/GD32F30x_Demo_Suites_V2.0.0/GD32F30x_Demo_Suites_V2.0.0/GD32F30x_Firmware_Library/GD32F30x_standard_peripheral/Source\gd32f30x_timer.c ****         TIMER_CHCTL2(timer_periph) |= (uint32_t)TIMER_CHCTL2_CH2EN;
1451:C:/Users/49542/Desktop/GD32F30x_Demo_Suites_V2.0.0/GD32F30x_Demo_Suites_V2.0.0/GD32F30x_Firmware_Library/GD32F30x_standard_peripheral/Source\gd32f30x_timer.c ****         break;
1452:C:/Users/49542/Desktop/GD32F30x_Demo_Suites_V2.0.0/GD32F30x_Demo_Suites_V2.0.0/GD32F30x_Firmware_Library/GD32F30x_standard_peripheral/Source\gd32f30x_timer.c ****     /* configure TIMER_CH_3 */
1453:C:/Users/49542/Desktop/GD32F30x_Demo_Suites_V2.0.0/GD32F30x_Demo_Suites_V2.0.0/GD32F30x_Firmware_Library/GD32F30x_standard_peripheral/Source\gd32f30x_timer.c ****     case TIMER_CH_3:
1454:C:/Users/49542/Desktop/GD32F30x_Demo_Suites_V2.0.0/GD32F30x_Demo_Suites_V2.0.0/GD32F30x_Firmware_Library/GD32F30x_standard_peripheral/Source\gd32f30x_timer.c ****         /* reset the CH3EN bit */
1455:C:/Users/49542/Desktop/GD32F30x_Demo_Suites_V2.0.0/GD32F30x_Demo_Suites_V2.0.0/GD32F30x_Firmware_Library/GD32F30x_standard_peripheral/Source\gd32f30x_timer.c ****         TIMER_CHCTL2(timer_periph) &= (~(uint32_t)TIMER_CHCTL2_CH3EN);
1456:C:/Users/49542/Desktop/GD32F30x_Demo_Suites_V2.0.0/GD32F30x_Demo_Suites_V2.0.0/GD32F30x_Firmware_Library/GD32F30x_standard_peripheral/Source\gd32f30x_timer.c **** 
1457:C:/Users/49542/Desktop/GD32F30x_Demo_Suites_V2.0.0/GD32F30x_Demo_Suites_V2.0.0/GD32F30x_Firmware_Library/GD32F30x_standard_peripheral/Source\gd32f30x_timer.c ****         /* reset the CH3P bits */
1458:C:/Users/49542/Desktop/GD32F30x_Demo_Suites_V2.0.0/GD32F30x_Demo_Suites_V2.0.0/GD32F30x_Firmware_Library/GD32F30x_standard_peripheral/Source\gd32f30x_timer.c ****         TIMER_CHCTL2(timer_periph) &= (~(uint32_t)(TIMER_CHCTL2_CH3P));
1459:C:/Users/49542/Desktop/GD32F30x_Demo_Suites_V2.0.0/GD32F30x_Demo_Suites_V2.0.0/GD32F30x_Firmware_Library/GD32F30x_standard_peripheral/Source\gd32f30x_timer.c ****         TIMER_CHCTL2(timer_periph) |= (uint32_t)((uint32_t)(icpara->icpolarity) << 12U);
1460:C:/Users/49542/Desktop/GD32F30x_Demo_Suites_V2.0.0/GD32F30x_Demo_Suites_V2.0.0/GD32F30x_Firmware_Library/GD32F30x_standard_peripheral/Source\gd32f30x_timer.c **** 
1461:C:/Users/49542/Desktop/GD32F30x_Demo_Suites_V2.0.0/GD32F30x_Demo_Suites_V2.0.0/GD32F30x_Firmware_Library/GD32F30x_standard_peripheral/Source\gd32f30x_timer.c ****         /* reset the CH3MS bit */
1462:C:/Users/49542/Desktop/GD32F30x_Demo_Suites_V2.0.0/GD32F30x_Demo_Suites_V2.0.0/GD32F30x_Firmware_Library/GD32F30x_standard_peripheral/Source\gd32f30x_timer.c ****         TIMER_CHCTL1(timer_periph) &= (~(uint32_t)TIMER_CHCTL1_CH3MS);
1463:C:/Users/49542/Desktop/GD32F30x_Demo_Suites_V2.0.0/GD32F30x_Demo_Suites_V2.0.0/GD32F30x_Firmware_Library/GD32F30x_standard_peripheral/Source\gd32f30x_timer.c ****         TIMER_CHCTL1(timer_periph) |= (uint32_t)((uint32_t)(icpara->icselection) << 8U);
1464:C:/Users/49542/Desktop/GD32F30x_Demo_Suites_V2.0.0/GD32F30x_Demo_Suites_V2.0.0/GD32F30x_Firmware_Library/GD32F30x_standard_peripheral/Source\gd32f30x_timer.c **** 
1465:C:/Users/49542/Desktop/GD32F30x_Demo_Suites_V2.0.0/GD32F30x_Demo_Suites_V2.0.0/GD32F30x_Firmware_Library/GD32F30x_standard_peripheral/Source\gd32f30x_timer.c ****         /* reset the CH3CAPFLT bit */
1466:C:/Users/49542/Desktop/GD32F30x_Demo_Suites_V2.0.0/GD32F30x_Demo_Suites_V2.0.0/GD32F30x_Firmware_Library/GD32F30x_standard_peripheral/Source\gd32f30x_timer.c ****         TIMER_CHCTL1(timer_periph) &= (~(uint32_t)TIMER_CHCTL1_CH3CAPFLT);
1467:C:/Users/49542/Desktop/GD32F30x_Demo_Suites_V2.0.0/GD32F30x_Demo_Suites_V2.0.0/GD32F30x_Firmware_Library/GD32F30x_standard_peripheral/Source\gd32f30x_timer.c ****         TIMER_CHCTL1(timer_periph) |= (uint32_t)((uint32_t)(icpara->icfilter) << 12U);
1468:C:/Users/49542/Desktop/GD32F30x_Demo_Suites_V2.0.0/GD32F30x_Demo_Suites_V2.0.0/GD32F30x_Firmware_Library/GD32F30x_standard_peripheral/Source\gd32f30x_timer.c **** 
1469:C:/Users/49542/Desktop/GD32F30x_Demo_Suites_V2.0.0/GD32F30x_Demo_Suites_V2.0.0/GD32F30x_Firmware_Library/GD32F30x_standard_peripheral/Source\gd32f30x_timer.c ****         /* set the CH3EN bit */
1470:C:/Users/49542/Desktop/GD32F30x_Demo_Suites_V2.0.0/GD32F30x_Demo_Suites_V2.0.0/GD32F30x_Firmware_Library/GD32F30x_standard_peripheral/Source\gd32f30x_timer.c ****         TIMER_CHCTL2(timer_periph) |= (uint32_t)TIMER_CHCTL2_CH3EN;
1471:C:/Users/49542/Desktop/GD32F30x_Demo_Suites_V2.0.0/GD32F30x_Demo_Suites_V2.0.0/GD32F30x_Firmware_Library/GD32F30x_standard_peripheral/Source\gd32f30x_timer.c ****         break;
1472:C:/Users/49542/Desktop/GD32F30x_Demo_Suites_V2.0.0/GD32F30x_Demo_Suites_V2.0.0/GD32F30x_Firmware_Library/GD32F30x_standard_peripheral/Source\gd32f30x_timer.c ****     default:
1473:C:/Users/49542/Desktop/GD32F30x_Demo_Suites_V2.0.0/GD32F30x_Demo_Suites_V2.0.0/GD32F30x_Firmware_Library/GD32F30x_standard_peripheral/Source\gd32f30x_timer.c ****         break;
1474:C:/Users/49542/Desktop/GD32F30x_Demo_Suites_V2.0.0/GD32F30x_Demo_Suites_V2.0.0/GD32F30x_Firmware_Library/GD32F30x_standard_peripheral/Source\gd32f30x_timer.c ****     }
1475:C:/Users/49542/Desktop/GD32F30x_Demo_Suites_V2.0.0/GD32F30x_Demo_Suites_V2.0.0/GD32F30x_Firmware_Library/GD32F30x_standard_peripheral/Source\gd32f30x_timer.c ****     /* configure TIMER channel input capture prescaler value */
1476:C:/Users/49542/Desktop/GD32F30x_Demo_Suites_V2.0.0/GD32F30x_Demo_Suites_V2.0.0/GD32F30x_Firmware_Library/GD32F30x_standard_peripheral/Source\gd32f30x_timer.c ****     timer_channel_input_capture_prescaler_config(timer_periph, channel, (uint16_t)(icpara->icpresca
1477:C:/Users/49542/Desktop/GD32F30x_Demo_Suites_V2.0.0/GD32F30x_Demo_Suites_V2.0.0/GD32F30x_Firmware_Library/GD32F30x_standard_peripheral/Source\gd32f30x_timer.c **** }
1478:C:/Users/49542/Desktop/GD32F30x_Demo_Suites_V2.0.0/GD32F30x_Demo_Suites_V2.0.0/GD32F30x_Firmware_Library/GD32F30x_standard_peripheral/Source\gd32f30x_timer.c **** 
1479:C:/Users/49542/Desktop/GD32F30x_Demo_Suites_V2.0.0/GD32F30x_Demo_Suites_V2.0.0/GD32F30x_Firmware_Library/GD32F30x_standard_peripheral/Source\gd32f30x_timer.c **** /*!
1480:C:/Users/49542/Desktop/GD32F30x_Demo_Suites_V2.0.0/GD32F30x_Demo_Suites_V2.0.0/GD32F30x_Firmware_Library/GD32F30x_standard_peripheral/Source\gd32f30x_timer.c ****     \brief      configure TIMER channel input capture prescaler value
1481:C:/Users/49542/Desktop/GD32F30x_Demo_Suites_V2.0.0/GD32F30x_Demo_Suites_V2.0.0/GD32F30x_Firmware_Library/GD32F30x_standard_peripheral/Source\gd32f30x_timer.c ****     \param[in]  timer_periph: please refer to the following parameters
1482:C:/Users/49542/Desktop/GD32F30x_Demo_Suites_V2.0.0/GD32F30x_Demo_Suites_V2.0.0/GD32F30x_Firmware_Library/GD32F30x_standard_peripheral/Source\gd32f30x_timer.c ****     \param[in]  channel: 
1483:C:/Users/49542/Desktop/GD32F30x_Demo_Suites_V2.0.0/GD32F30x_Demo_Suites_V2.0.0/GD32F30x_Firmware_Library/GD32F30x_standard_peripheral/Source\gd32f30x_timer.c ****                 only one parameter can be selected which is shown as below:
1484:C:/Users/49542/Desktop/GD32F30x_Demo_Suites_V2.0.0/GD32F30x_Demo_Suites_V2.0.0/GD32F30x_Firmware_Library/GD32F30x_standard_peripheral/Source\gd32f30x_timer.c ****       \arg        TIMER_CH_0: TIMER channel0(TIMERx(x=0..4,7..13))
1485:C:/Users/49542/Desktop/GD32F30x_Demo_Suites_V2.0.0/GD32F30x_Demo_Suites_V2.0.0/GD32F30x_Firmware_Library/GD32F30x_standard_peripheral/Source\gd32f30x_timer.c ****       \arg        TIMER_CH_1: TIMER channel1(TIMERx(x=0..4,7,8,11))
1486:C:/Users/49542/Desktop/GD32F30x_Demo_Suites_V2.0.0/GD32F30x_Demo_Suites_V2.0.0/GD32F30x_Firmware_Library/GD32F30x_standard_peripheral/Source\gd32f30x_timer.c ****       \arg        TIMER_CH_2: TIMER channel2(TIMERx(x=0..4,7))
1487:C:/Users/49542/Desktop/GD32F30x_Demo_Suites_V2.0.0/GD32F30x_Demo_Suites_V2.0.0/GD32F30x_Firmware_Library/GD32F30x_standard_peripheral/Source\gd32f30x_timer.c ****       \arg        TIMER_CH_3: TIMER channel3(TIMERx(x=0..4,7))
1488:C:/Users/49542/Desktop/GD32F30x_Demo_Suites_V2.0.0/GD32F30x_Demo_Suites_V2.0.0/GD32F30x_Firmware_Library/GD32F30x_standard_peripheral/Source\gd32f30x_timer.c ****     \param[in]  prescaler: channel input capture prescaler value
1489:C:/Users/49542/Desktop/GD32F30x_Demo_Suites_V2.0.0/GD32F30x_Demo_Suites_V2.0.0/GD32F30x_Firmware_Library/GD32F30x_standard_peripheral/Source\gd32f30x_timer.c ****                 only one parameter can be selected which is shown as below:
1490:C:/Users/49542/Desktop/GD32F30x_Demo_Suites_V2.0.0/GD32F30x_Demo_Suites_V2.0.0/GD32F30x_Firmware_Library/GD32F30x_standard_peripheral/Source\gd32f30x_timer.c ****       \arg        TIMER_IC_PSC_DIV1: no prescaler
1491:C:/Users/49542/Desktop/GD32F30x_Demo_Suites_V2.0.0/GD32F30x_Demo_Suites_V2.0.0/GD32F30x_Firmware_Library/GD32F30x_standard_peripheral/Source\gd32f30x_timer.c ****       \arg        TIMER_IC_PSC_DIV2: divided by 2
1492:C:/Users/49542/Desktop/GD32F30x_Demo_Suites_V2.0.0/GD32F30x_Demo_Suites_V2.0.0/GD32F30x_Firmware_Library/GD32F30x_standard_peripheral/Source\gd32f30x_timer.c ****       \arg        TIMER_IC_PSC_DIV4: divided by 4
1493:C:/Users/49542/Desktop/GD32F30x_Demo_Suites_V2.0.0/GD32F30x_Demo_Suites_V2.0.0/GD32F30x_Firmware_Library/GD32F30x_standard_peripheral/Source\gd32f30x_timer.c ****       \arg        TIMER_IC_PSC_DIV8: divided by 8
1494:C:/Users/49542/Desktop/GD32F30x_Demo_Suites_V2.0.0/GD32F30x_Demo_Suites_V2.0.0/GD32F30x_Firmware_Library/GD32F30x_standard_peripheral/Source\gd32f30x_timer.c ****     \param[out] none
1495:C:/Users/49542/Desktop/GD32F30x_Demo_Suites_V2.0.0/GD32F30x_Demo_Suites_V2.0.0/GD32F30x_Firmware_Library/GD32F30x_standard_peripheral/Source\gd32f30x_timer.c ****     \retval     none
1496:C:/Users/49542/Desktop/GD32F30x_Demo_Suites_V2.0.0/GD32F30x_Demo_Suites_V2.0.0/GD32F30x_Firmware_Library/GD32F30x_standard_peripheral/Source\gd32f30x_timer.c **** */
1497:C:/Users/49542/Desktop/GD32F30x_Demo_Suites_V2.0.0/GD32F30x_Demo_Suites_V2.0.0/GD32F30x_Firmware_Library/GD32F30x_standard_peripheral/Source\gd32f30x_timer.c **** void timer_channel_input_capture_prescaler_config(uint32_t timer_periph, uint16_t channel, uint16_t
1498:C:/Users/49542/Desktop/GD32F30x_Demo_Suites_V2.0.0/GD32F30x_Demo_Suites_V2.0.0/GD32F30x_Firmware_Library/GD32F30x_standard_peripheral/Source\gd32f30x_timer.c **** {
ARM GAS  C:\Users\49542\AppData\Local\Temp\ccEBNRSE.s 			page 71


 2545              		.loc 1 1498 0
 2546              		.cfi_startproc
 2547              		@ args = 0, pretend = 0, frame = 0
 2548              		@ frame_needed = 0, uses_anonymous_args = 0
 2549              		@ link register save eliminated.
 2550              	.LVL191:
1499:C:/Users/49542/Desktop/GD32F30x_Demo_Suites_V2.0.0/GD32F30x_Demo_Suites_V2.0.0/GD32F30x_Firmware_Library/GD32F30x_standard_peripheral/Source\gd32f30x_timer.c ****     switch(channel){
 2551              		.loc 1 1499 0
 2552 0000 0329     		cmp	r1, #3
 2553 0002 24D8     		bhi	.L175
 2554 0004 DFE801F0 		tbb	[pc, r1]
 2555              	.L178:
 2556 0008 02       		.byte	(.L177-.L178)/2
 2557 0009 0A       		.byte	(.L179-.L178)/2
 2558 000a 13       		.byte	(.L180-.L178)/2
 2559 000b 1B       		.byte	(.L181-.L178)/2
 2560              		.p2align 1
 2561              	.L177:
1500:C:/Users/49542/Desktop/GD32F30x_Demo_Suites_V2.0.0/GD32F30x_Demo_Suites_V2.0.0/GD32F30x_Firmware_Library/GD32F30x_standard_peripheral/Source\gd32f30x_timer.c ****     /* configure TIMER_CH_0 */
1501:C:/Users/49542/Desktop/GD32F30x_Demo_Suites_V2.0.0/GD32F30x_Demo_Suites_V2.0.0/GD32F30x_Firmware_Library/GD32F30x_standard_peripheral/Source\gd32f30x_timer.c ****     case TIMER_CH_0:
1502:C:/Users/49542/Desktop/GD32F30x_Demo_Suites_V2.0.0/GD32F30x_Demo_Suites_V2.0.0/GD32F30x_Firmware_Library/GD32F30x_standard_peripheral/Source\gd32f30x_timer.c ****         TIMER_CHCTL0(timer_periph) &= (~(uint32_t)TIMER_CHCTL0_CH0CAPPSC);
 2562              		.loc 1 1502 0
 2563 000c 8369     		ldr	r3, [r0, #24]
 2564 000e 23F00C03 		bic	r3, r3, #12
 2565 0012 8361     		str	r3, [r0, #24]
1503:C:/Users/49542/Desktop/GD32F30x_Demo_Suites_V2.0.0/GD32F30x_Demo_Suites_V2.0.0/GD32F30x_Firmware_Library/GD32F30x_standard_peripheral/Source\gd32f30x_timer.c ****         TIMER_CHCTL0(timer_periph) |= (uint32_t)prescaler;
 2566              		.loc 1 1503 0
 2567 0014 8369     		ldr	r3, [r0, #24]
 2568 0016 1A43     		orrs	r2, r2, r3
 2569              	.LVL192:
 2570 0018 8261     		str	r2, [r0, #24]
1504:C:/Users/49542/Desktop/GD32F30x_Demo_Suites_V2.0.0/GD32F30x_Demo_Suites_V2.0.0/GD32F30x_Firmware_Library/GD32F30x_standard_peripheral/Source\gd32f30x_timer.c ****         break;
 2571              		.loc 1 1504 0
 2572 001a 7047     		bx	lr
 2573              	.LVL193:
 2574              	.L179:
1505:C:/Users/49542/Desktop/GD32F30x_Demo_Suites_V2.0.0/GD32F30x_Demo_Suites_V2.0.0/GD32F30x_Firmware_Library/GD32F30x_standard_peripheral/Source\gd32f30x_timer.c ****     /* configure TIMER_CH_1 */
1506:C:/Users/49542/Desktop/GD32F30x_Demo_Suites_V2.0.0/GD32F30x_Demo_Suites_V2.0.0/GD32F30x_Firmware_Library/GD32F30x_standard_peripheral/Source\gd32f30x_timer.c ****     case TIMER_CH_1:
1507:C:/Users/49542/Desktop/GD32F30x_Demo_Suites_V2.0.0/GD32F30x_Demo_Suites_V2.0.0/GD32F30x_Firmware_Library/GD32F30x_standard_peripheral/Source\gd32f30x_timer.c ****         TIMER_CHCTL0(timer_periph) &= (~(uint32_t)TIMER_CHCTL0_CH1CAPPSC);
 2575              		.loc 1 1507 0
 2576 001c 8369     		ldr	r3, [r0, #24]
 2577 001e 23F44063 		bic	r3, r3, #3072
 2578 0022 8361     		str	r3, [r0, #24]
1508:C:/Users/49542/Desktop/GD32F30x_Demo_Suites_V2.0.0/GD32F30x_Demo_Suites_V2.0.0/GD32F30x_Firmware_Library/GD32F30x_standard_peripheral/Source\gd32f30x_timer.c ****         TIMER_CHCTL0(timer_periph) |= ((uint32_t)prescaler << 8U);
 2579              		.loc 1 1508 0
 2580 0024 8369     		ldr	r3, [r0, #24]
 2581 0026 43EA0222 		orr	r2, r3, r2, lsl #8
 2582              	.LVL194:
 2583 002a 8261     		str	r2, [r0, #24]
1509:C:/Users/49542/Desktop/GD32F30x_Demo_Suites_V2.0.0/GD32F30x_Demo_Suites_V2.0.0/GD32F30x_Firmware_Library/GD32F30x_standard_peripheral/Source\gd32f30x_timer.c ****         break;
 2584              		.loc 1 1509 0
 2585 002c 7047     		bx	lr
 2586              	.LVL195:
 2587              	.L180:
1510:C:/Users/49542/Desktop/GD32F30x_Demo_Suites_V2.0.0/GD32F30x_Demo_Suites_V2.0.0/GD32F30x_Firmware_Library/GD32F30x_standard_peripheral/Source\gd32f30x_timer.c ****     /* configure TIMER_CH_2 */
1511:C:/Users/49542/Desktop/GD32F30x_Demo_Suites_V2.0.0/GD32F30x_Demo_Suites_V2.0.0/GD32F30x_Firmware_Library/GD32F30x_standard_peripheral/Source\gd32f30x_timer.c ****     case TIMER_CH_2:
1512:C:/Users/49542/Desktop/GD32F30x_Demo_Suites_V2.0.0/GD32F30x_Demo_Suites_V2.0.0/GD32F30x_Firmware_Library/GD32F30x_standard_peripheral/Source\gd32f30x_timer.c ****         TIMER_CHCTL1(timer_periph) &= (~(uint32_t)TIMER_CHCTL1_CH2CAPPSC);
ARM GAS  C:\Users\49542\AppData\Local\Temp\ccEBNRSE.s 			page 72


 2588              		.loc 1 1512 0
 2589 002e C369     		ldr	r3, [r0, #28]
 2590 0030 23F00C03 		bic	r3, r3, #12
 2591 0034 C361     		str	r3, [r0, #28]
1513:C:/Users/49542/Desktop/GD32F30x_Demo_Suites_V2.0.0/GD32F30x_Demo_Suites_V2.0.0/GD32F30x_Firmware_Library/GD32F30x_standard_peripheral/Source\gd32f30x_timer.c ****         TIMER_CHCTL1(timer_periph) |= (uint32_t)prescaler;
 2592              		.loc 1 1513 0
 2593 0036 C369     		ldr	r3, [r0, #28]
 2594 0038 1A43     		orrs	r2, r2, r3
 2595              	.LVL196:
 2596 003a C261     		str	r2, [r0, #28]
1514:C:/Users/49542/Desktop/GD32F30x_Demo_Suites_V2.0.0/GD32F30x_Demo_Suites_V2.0.0/GD32F30x_Firmware_Library/GD32F30x_standard_peripheral/Source\gd32f30x_timer.c ****         break;
 2597              		.loc 1 1514 0
 2598 003c 7047     		bx	lr
 2599              	.LVL197:
 2600              	.L181:
1515:C:/Users/49542/Desktop/GD32F30x_Demo_Suites_V2.0.0/GD32F30x_Demo_Suites_V2.0.0/GD32F30x_Firmware_Library/GD32F30x_standard_peripheral/Source\gd32f30x_timer.c ****     /* configure TIMER_CH_3 */
1516:C:/Users/49542/Desktop/GD32F30x_Demo_Suites_V2.0.0/GD32F30x_Demo_Suites_V2.0.0/GD32F30x_Firmware_Library/GD32F30x_standard_peripheral/Source\gd32f30x_timer.c ****     case TIMER_CH_3:
1517:C:/Users/49542/Desktop/GD32F30x_Demo_Suites_V2.0.0/GD32F30x_Demo_Suites_V2.0.0/GD32F30x_Firmware_Library/GD32F30x_standard_peripheral/Source\gd32f30x_timer.c ****         TIMER_CHCTL1(timer_periph) &= (~(uint32_t)TIMER_CHCTL1_CH3CAPPSC);
 2601              		.loc 1 1517 0
 2602 003e C369     		ldr	r3, [r0, #28]
 2603 0040 23F44063 		bic	r3, r3, #3072
 2604 0044 C361     		str	r3, [r0, #28]
1518:C:/Users/49542/Desktop/GD32F30x_Demo_Suites_V2.0.0/GD32F30x_Demo_Suites_V2.0.0/GD32F30x_Firmware_Library/GD32F30x_standard_peripheral/Source\gd32f30x_timer.c ****         TIMER_CHCTL1(timer_periph) |= ((uint32_t)prescaler << 8U);
 2605              		.loc 1 1518 0
 2606 0046 C369     		ldr	r3, [r0, #28]
 2607 0048 43EA0222 		orr	r2, r3, r2, lsl #8
 2608              	.LVL198:
 2609 004c C261     		str	r2, [r0, #28]
 2610              	.L175:
1519:C:/Users/49542/Desktop/GD32F30x_Demo_Suites_V2.0.0/GD32F30x_Demo_Suites_V2.0.0/GD32F30x_Firmware_Library/GD32F30x_standard_peripheral/Source\gd32f30x_timer.c ****         break;
1520:C:/Users/49542/Desktop/GD32F30x_Demo_Suites_V2.0.0/GD32F30x_Demo_Suites_V2.0.0/GD32F30x_Firmware_Library/GD32F30x_standard_peripheral/Source\gd32f30x_timer.c ****     default:
1521:C:/Users/49542/Desktop/GD32F30x_Demo_Suites_V2.0.0/GD32F30x_Demo_Suites_V2.0.0/GD32F30x_Firmware_Library/GD32F30x_standard_peripheral/Source\gd32f30x_timer.c ****         break;
1522:C:/Users/49542/Desktop/GD32F30x_Demo_Suites_V2.0.0/GD32F30x_Demo_Suites_V2.0.0/GD32F30x_Firmware_Library/GD32F30x_standard_peripheral/Source\gd32f30x_timer.c ****     }
1523:C:/Users/49542/Desktop/GD32F30x_Demo_Suites_V2.0.0/GD32F30x_Demo_Suites_V2.0.0/GD32F30x_Firmware_Library/GD32F30x_standard_peripheral/Source\gd32f30x_timer.c **** }
 2611              		.loc 1 1523 0
 2612 004e 7047     		bx	lr
 2613              		.cfi_endproc
 2614              	.LFE169:
 2616              		.section	.text.timer_input_capture_config,"ax",%progbits
 2617              		.align	1
 2618              		.global	timer_input_capture_config
 2619              		.syntax unified
 2620              		.thumb
 2621              		.thumb_func
 2622              		.fpu fpv4-sp-d16
 2624              	timer_input_capture_config:
 2625              	.LFB168:
1393:C:/Users/49542/Desktop/GD32F30x_Demo_Suites_V2.0.0/GD32F30x_Demo_Suites_V2.0.0/GD32F30x_Firmware_Library/GD32F30x_standard_peripheral/Source\gd32f30x_timer.c ****     switch(channel){
 2626              		.loc 1 1393 0
 2627              		.cfi_startproc
 2628              		@ args = 0, pretend = 0, frame = 0
 2629              		@ frame_needed = 0, uses_anonymous_args = 0
 2630              	.LVL199:
 2631 0000 10B5     		push	{r4, lr}
 2632              	.LCFI3:
 2633              		.cfi_def_cfa_offset 8
 2634              		.cfi_offset 4, -8
ARM GAS  C:\Users\49542\AppData\Local\Temp\ccEBNRSE.s 			page 73


 2635              		.cfi_offset 14, -4
1394:C:/Users/49542/Desktop/GD32F30x_Demo_Suites_V2.0.0/GD32F30x_Demo_Suites_V2.0.0/GD32F30x_Firmware_Library/GD32F30x_standard_peripheral/Source\gd32f30x_timer.c ****     /* configure TIMER_CH_0 */
 2636              		.loc 1 1394 0
 2637 0002 0329     		cmp	r1, #3
 2638 0004 24D8     		bhi	.L183
 2639 0006 DFE801F0 		tbb	[pc, r1]
 2640              	.L185:
 2641 000a 02       		.byte	(.L184-.L185)/2
 2642 000b 27       		.byte	(.L186-.L185)/2
 2643 000c 4B       		.byte	(.L187-.L185)/2
 2644 000d 6E       		.byte	(.L188-.L185)/2
 2645              		.p2align 1
 2646              	.L184:
1398:C:/Users/49542/Desktop/GD32F30x_Demo_Suites_V2.0.0/GD32F30x_Demo_Suites_V2.0.0/GD32F30x_Firmware_Library/GD32F30x_standard_peripheral/Source\gd32f30x_timer.c **** 
 2647              		.loc 1 1398 0
 2648 000e 036A     		ldr	r3, [r0, #32]
 2649 0010 23F00103 		bic	r3, r3, #1
 2650 0014 0362     		str	r3, [r0, #32]
1401:C:/Users/49542/Desktop/GD32F30x_Demo_Suites_V2.0.0/GD32F30x_Demo_Suites_V2.0.0/GD32F30x_Firmware_Library/GD32F30x_standard_peripheral/Source\gd32f30x_timer.c ****         TIMER_CHCTL2(timer_periph) |= (uint32_t)(icpara->icpolarity);
 2651              		.loc 1 1401 0
 2652 0016 036A     		ldr	r3, [r0, #32]
 2653 0018 23F00A03 		bic	r3, r3, #10
 2654 001c 0362     		str	r3, [r0, #32]
1402:C:/Users/49542/Desktop/GD32F30x_Demo_Suites_V2.0.0/GD32F30x_Demo_Suites_V2.0.0/GD32F30x_Firmware_Library/GD32F30x_standard_peripheral/Source\gd32f30x_timer.c ****         /* reset the CH0MS bit */
 2655              		.loc 1 1402 0
 2656 001e 036A     		ldr	r3, [r0, #32]
 2657 0020 1488     		ldrh	r4, [r2]
 2658 0022 2343     		orrs	r3, r3, r4
 2659 0024 0362     		str	r3, [r0, #32]
1404:C:/Users/49542/Desktop/GD32F30x_Demo_Suites_V2.0.0/GD32F30x_Demo_Suites_V2.0.0/GD32F30x_Firmware_Library/GD32F30x_standard_peripheral/Source\gd32f30x_timer.c ****         TIMER_CHCTL0(timer_periph) |= (uint32_t)(icpara->icselection);
 2660              		.loc 1 1404 0
 2661 0026 8369     		ldr	r3, [r0, #24]
 2662 0028 23F00303 		bic	r3, r3, #3
 2663 002c 8361     		str	r3, [r0, #24]
1405:C:/Users/49542/Desktop/GD32F30x_Demo_Suites_V2.0.0/GD32F30x_Demo_Suites_V2.0.0/GD32F30x_Firmware_Library/GD32F30x_standard_peripheral/Source\gd32f30x_timer.c ****         /* reset the CH0CAPFLT bit */
 2664              		.loc 1 1405 0
 2665 002e 8369     		ldr	r3, [r0, #24]
 2666 0030 5488     		ldrh	r4, [r2, #2]
 2667 0032 2343     		orrs	r3, r3, r4
 2668 0034 8361     		str	r3, [r0, #24]
1407:C:/Users/49542/Desktop/GD32F30x_Demo_Suites_V2.0.0/GD32F30x_Demo_Suites_V2.0.0/GD32F30x_Firmware_Library/GD32F30x_standard_peripheral/Source\gd32f30x_timer.c ****         TIMER_CHCTL0(timer_periph) |= (uint32_t)((uint32_t)(icpara->icfilter) << 4U);
 2669              		.loc 1 1407 0
 2670 0036 8369     		ldr	r3, [r0, #24]
 2671 0038 23F0F003 		bic	r3, r3, #240
 2672 003c 8361     		str	r3, [r0, #24]
1408:C:/Users/49542/Desktop/GD32F30x_Demo_Suites_V2.0.0/GD32F30x_Demo_Suites_V2.0.0/GD32F30x_Firmware_Library/GD32F30x_standard_peripheral/Source\gd32f30x_timer.c **** 
 2673              		.loc 1 1408 0
 2674 003e 8369     		ldr	r3, [r0, #24]
 2675 0040 D488     		ldrh	r4, [r2, #6]
 2676 0042 43EA0413 		orr	r3, r3, r4, lsl #4
 2677 0046 8361     		str	r3, [r0, #24]
1411:C:/Users/49542/Desktop/GD32F30x_Demo_Suites_V2.0.0/GD32F30x_Demo_Suites_V2.0.0/GD32F30x_Firmware_Library/GD32F30x_standard_peripheral/Source\gd32f30x_timer.c ****         break;
 2678              		.loc 1 1411 0
 2679 0048 036A     		ldr	r3, [r0, #32]
 2680 004a 43F00103 		orr	r3, r3, #1
 2681 004e 0362     		str	r3, [r0, #32]
 2682              	.L183:
ARM GAS  C:\Users\49542\AppData\Local\Temp\ccEBNRSE.s 			page 74


1476:C:/Users/49542/Desktop/GD32F30x_Demo_Suites_V2.0.0/GD32F30x_Demo_Suites_V2.0.0/GD32F30x_Firmware_Library/GD32F30x_standard_peripheral/Source\gd32f30x_timer.c **** }
 2683              		.loc 1 1476 0
 2684 0050 9288     		ldrh	r2, [r2, #4]
 2685              	.LVL200:
 2686 0052 FFF7FEFF 		bl	timer_channel_input_capture_prescaler_config
 2687              	.LVL201:
1477:C:/Users/49542/Desktop/GD32F30x_Demo_Suites_V2.0.0/GD32F30x_Demo_Suites_V2.0.0/GD32F30x_Firmware_Library/GD32F30x_standard_peripheral/Source\gd32f30x_timer.c **** 
 2688              		.loc 1 1477 0
 2689 0056 10BD     		pop	{r4, pc}
 2690              	.LVL202:
 2691              	.L186:
1417:C:/Users/49542/Desktop/GD32F30x_Demo_Suites_V2.0.0/GD32F30x_Demo_Suites_V2.0.0/GD32F30x_Firmware_Library/GD32F30x_standard_peripheral/Source\gd32f30x_timer.c **** 
 2692              		.loc 1 1417 0
 2693 0058 036A     		ldr	r3, [r0, #32]
 2694 005a 23F01003 		bic	r3, r3, #16
 2695 005e 0362     		str	r3, [r0, #32]
1420:C:/Users/49542/Desktop/GD32F30x_Demo_Suites_V2.0.0/GD32F30x_Demo_Suites_V2.0.0/GD32F30x_Firmware_Library/GD32F30x_standard_peripheral/Source\gd32f30x_timer.c ****         TIMER_CHCTL2(timer_periph) |= (uint32_t)((uint32_t)(icpara->icpolarity) << 4U);
 2696              		.loc 1 1420 0
 2697 0060 036A     		ldr	r3, [r0, #32]
 2698 0062 23F0A003 		bic	r3, r3, #160
 2699 0066 0362     		str	r3, [r0, #32]
1421:C:/Users/49542/Desktop/GD32F30x_Demo_Suites_V2.0.0/GD32F30x_Demo_Suites_V2.0.0/GD32F30x_Firmware_Library/GD32F30x_standard_peripheral/Source\gd32f30x_timer.c ****         /* reset the CH1MS bit */
 2700              		.loc 1 1421 0
 2701 0068 036A     		ldr	r3, [r0, #32]
 2702 006a 1488     		ldrh	r4, [r2]
 2703 006c 43EA0413 		orr	r3, r3, r4, lsl #4
 2704 0070 0362     		str	r3, [r0, #32]
1423:C:/Users/49542/Desktop/GD32F30x_Demo_Suites_V2.0.0/GD32F30x_Demo_Suites_V2.0.0/GD32F30x_Firmware_Library/GD32F30x_standard_peripheral/Source\gd32f30x_timer.c ****         TIMER_CHCTL0(timer_periph) |= (uint32_t)((uint32_t)(icpara->icselection) << 8U);
 2705              		.loc 1 1423 0
 2706 0072 8369     		ldr	r3, [r0, #24]
 2707 0074 23F44073 		bic	r3, r3, #768
 2708 0078 8361     		str	r3, [r0, #24]
1424:C:/Users/49542/Desktop/GD32F30x_Demo_Suites_V2.0.0/GD32F30x_Demo_Suites_V2.0.0/GD32F30x_Firmware_Library/GD32F30x_standard_peripheral/Source\gd32f30x_timer.c ****         /* reset the CH1CAPFLT bit */
 2709              		.loc 1 1424 0
 2710 007a 8369     		ldr	r3, [r0, #24]
 2711 007c 5488     		ldrh	r4, [r2, #2]
 2712 007e 43EA0423 		orr	r3, r3, r4, lsl #8
 2713 0082 8361     		str	r3, [r0, #24]
1426:C:/Users/49542/Desktop/GD32F30x_Demo_Suites_V2.0.0/GD32F30x_Demo_Suites_V2.0.0/GD32F30x_Firmware_Library/GD32F30x_standard_peripheral/Source\gd32f30x_timer.c ****         TIMER_CHCTL0(timer_periph) |= (uint32_t)((uint32_t)(icpara->icfilter) << 12U);
 2714              		.loc 1 1426 0
 2715 0084 8369     		ldr	r3, [r0, #24]
 2716 0086 23F47043 		bic	r3, r3, #61440
 2717 008a 8361     		str	r3, [r0, #24]
1427:C:/Users/49542/Desktop/GD32F30x_Demo_Suites_V2.0.0/GD32F30x_Demo_Suites_V2.0.0/GD32F30x_Firmware_Library/GD32F30x_standard_peripheral/Source\gd32f30x_timer.c **** 
 2718              		.loc 1 1427 0
 2719 008c 8369     		ldr	r3, [r0, #24]
 2720 008e D488     		ldrh	r4, [r2, #6]
 2721 0090 43EA0433 		orr	r3, r3, r4, lsl #12
 2722 0094 8361     		str	r3, [r0, #24]
1430:C:/Users/49542/Desktop/GD32F30x_Demo_Suites_V2.0.0/GD32F30x_Demo_Suites_V2.0.0/GD32F30x_Firmware_Library/GD32F30x_standard_peripheral/Source\gd32f30x_timer.c ****         break;
 2723              		.loc 1 1430 0
 2724 0096 036A     		ldr	r3, [r0, #32]
 2725 0098 43F01003 		orr	r3, r3, #16
 2726 009c 0362     		str	r3, [r0, #32]
1431:C:/Users/49542/Desktop/GD32F30x_Demo_Suites_V2.0.0/GD32F30x_Demo_Suites_V2.0.0/GD32F30x_Firmware_Library/GD32F30x_standard_peripheral/Source\gd32f30x_timer.c ****     /* configure TIMER_CH_2 */
 2727              		.loc 1 1431 0
 2728 009e D7E7     		b	.L183
ARM GAS  C:\Users\49542\AppData\Local\Temp\ccEBNRSE.s 			page 75


 2729              	.L187:
1435:C:/Users/49542/Desktop/GD32F30x_Demo_Suites_V2.0.0/GD32F30x_Demo_Suites_V2.0.0/GD32F30x_Firmware_Library/GD32F30x_standard_peripheral/Source\gd32f30x_timer.c **** 
 2730              		.loc 1 1435 0
 2731 00a0 036A     		ldr	r3, [r0, #32]
 2732 00a2 23F48073 		bic	r3, r3, #256
 2733 00a6 0362     		str	r3, [r0, #32]
1438:C:/Users/49542/Desktop/GD32F30x_Demo_Suites_V2.0.0/GD32F30x_Demo_Suites_V2.0.0/GD32F30x_Firmware_Library/GD32F30x_standard_peripheral/Source\gd32f30x_timer.c ****         TIMER_CHCTL2(timer_periph) |= (uint32_t)((uint32_t)(icpara->icpolarity) << 8U);
 2734              		.loc 1 1438 0
 2735 00a8 036A     		ldr	r3, [r0, #32]
 2736 00aa 23F42063 		bic	r3, r3, #2560
 2737 00ae 0362     		str	r3, [r0, #32]
1439:C:/Users/49542/Desktop/GD32F30x_Demo_Suites_V2.0.0/GD32F30x_Demo_Suites_V2.0.0/GD32F30x_Firmware_Library/GD32F30x_standard_peripheral/Source\gd32f30x_timer.c **** 
 2738              		.loc 1 1439 0
 2739 00b0 036A     		ldr	r3, [r0, #32]
 2740 00b2 1488     		ldrh	r4, [r2]
 2741 00b4 43EA0423 		orr	r3, r3, r4, lsl #8
 2742 00b8 0362     		str	r3, [r0, #32]
1442:C:/Users/49542/Desktop/GD32F30x_Demo_Suites_V2.0.0/GD32F30x_Demo_Suites_V2.0.0/GD32F30x_Firmware_Library/GD32F30x_standard_peripheral/Source\gd32f30x_timer.c ****         TIMER_CHCTL1(timer_periph) |= (uint32_t)((uint32_t)(icpara->icselection));
 2743              		.loc 1 1442 0
 2744 00ba C369     		ldr	r3, [r0, #28]
 2745 00bc 23F00303 		bic	r3, r3, #3
 2746 00c0 C361     		str	r3, [r0, #28]
1443:C:/Users/49542/Desktop/GD32F30x_Demo_Suites_V2.0.0/GD32F30x_Demo_Suites_V2.0.0/GD32F30x_Firmware_Library/GD32F30x_standard_peripheral/Source\gd32f30x_timer.c **** 
 2747              		.loc 1 1443 0
 2748 00c2 C369     		ldr	r3, [r0, #28]
 2749 00c4 5488     		ldrh	r4, [r2, #2]
 2750 00c6 2343     		orrs	r3, r3, r4
 2751 00c8 C361     		str	r3, [r0, #28]
1446:C:/Users/49542/Desktop/GD32F30x_Demo_Suites_V2.0.0/GD32F30x_Demo_Suites_V2.0.0/GD32F30x_Firmware_Library/GD32F30x_standard_peripheral/Source\gd32f30x_timer.c ****         TIMER_CHCTL1(timer_periph) |= (uint32_t)((uint32_t)(icpara->icfilter) << 4U);
 2752              		.loc 1 1446 0
 2753 00ca C369     		ldr	r3, [r0, #28]
 2754 00cc 23F0F003 		bic	r3, r3, #240
 2755 00d0 C361     		str	r3, [r0, #28]
1447:C:/Users/49542/Desktop/GD32F30x_Demo_Suites_V2.0.0/GD32F30x_Demo_Suites_V2.0.0/GD32F30x_Firmware_Library/GD32F30x_standard_peripheral/Source\gd32f30x_timer.c **** 
 2756              		.loc 1 1447 0
 2757 00d2 C369     		ldr	r3, [r0, #28]
 2758 00d4 D488     		ldrh	r4, [r2, #6]
 2759 00d6 43EA0413 		orr	r3, r3, r4, lsl #4
 2760 00da C361     		str	r3, [r0, #28]
1450:C:/Users/49542/Desktop/GD32F30x_Demo_Suites_V2.0.0/GD32F30x_Demo_Suites_V2.0.0/GD32F30x_Firmware_Library/GD32F30x_standard_peripheral/Source\gd32f30x_timer.c ****         break;
 2761              		.loc 1 1450 0
 2762 00dc 036A     		ldr	r3, [r0, #32]
 2763 00de 43F48073 		orr	r3, r3, #256
 2764 00e2 0362     		str	r3, [r0, #32]
1451:C:/Users/49542/Desktop/GD32F30x_Demo_Suites_V2.0.0/GD32F30x_Demo_Suites_V2.0.0/GD32F30x_Firmware_Library/GD32F30x_standard_peripheral/Source\gd32f30x_timer.c ****     /* configure TIMER_CH_3 */
 2765              		.loc 1 1451 0
 2766 00e4 B4E7     		b	.L183
 2767              	.L188:
1455:C:/Users/49542/Desktop/GD32F30x_Demo_Suites_V2.0.0/GD32F30x_Demo_Suites_V2.0.0/GD32F30x_Firmware_Library/GD32F30x_standard_peripheral/Source\gd32f30x_timer.c **** 
 2768              		.loc 1 1455 0
 2769 00e6 036A     		ldr	r3, [r0, #32]
 2770 00e8 23F48053 		bic	r3, r3, #4096
 2771 00ec 0362     		str	r3, [r0, #32]
1458:C:/Users/49542/Desktop/GD32F30x_Demo_Suites_V2.0.0/GD32F30x_Demo_Suites_V2.0.0/GD32F30x_Firmware_Library/GD32F30x_standard_peripheral/Source\gd32f30x_timer.c ****         TIMER_CHCTL2(timer_periph) |= (uint32_t)((uint32_t)(icpara->icpolarity) << 12U);
 2772              		.loc 1 1458 0
 2773 00ee 036A     		ldr	r3, [r0, #32]
 2774 00f0 23F40053 		bic	r3, r3, #8192
ARM GAS  C:\Users\49542\AppData\Local\Temp\ccEBNRSE.s 			page 76


 2775 00f4 0362     		str	r3, [r0, #32]
1459:C:/Users/49542/Desktop/GD32F30x_Demo_Suites_V2.0.0/GD32F30x_Demo_Suites_V2.0.0/GD32F30x_Firmware_Library/GD32F30x_standard_peripheral/Source\gd32f30x_timer.c **** 
 2776              		.loc 1 1459 0
 2777 00f6 036A     		ldr	r3, [r0, #32]
 2778 00f8 1488     		ldrh	r4, [r2]
 2779 00fa 43EA0433 		orr	r3, r3, r4, lsl #12
 2780 00fe 0362     		str	r3, [r0, #32]
1462:C:/Users/49542/Desktop/GD32F30x_Demo_Suites_V2.0.0/GD32F30x_Demo_Suites_V2.0.0/GD32F30x_Firmware_Library/GD32F30x_standard_peripheral/Source\gd32f30x_timer.c ****         TIMER_CHCTL1(timer_periph) |= (uint32_t)((uint32_t)(icpara->icselection) << 8U);
 2781              		.loc 1 1462 0
 2782 0100 C369     		ldr	r3, [r0, #28]
 2783 0102 23F44073 		bic	r3, r3, #768
 2784 0106 C361     		str	r3, [r0, #28]
1463:C:/Users/49542/Desktop/GD32F30x_Demo_Suites_V2.0.0/GD32F30x_Demo_Suites_V2.0.0/GD32F30x_Firmware_Library/GD32F30x_standard_peripheral/Source\gd32f30x_timer.c **** 
 2785              		.loc 1 1463 0
 2786 0108 C369     		ldr	r3, [r0, #28]
 2787 010a 5488     		ldrh	r4, [r2, #2]
 2788 010c 43EA0423 		orr	r3, r3, r4, lsl #8
 2789 0110 C361     		str	r3, [r0, #28]
1466:C:/Users/49542/Desktop/GD32F30x_Demo_Suites_V2.0.0/GD32F30x_Demo_Suites_V2.0.0/GD32F30x_Firmware_Library/GD32F30x_standard_peripheral/Source\gd32f30x_timer.c ****         TIMER_CHCTL1(timer_periph) |= (uint32_t)((uint32_t)(icpara->icfilter) << 12U);
 2790              		.loc 1 1466 0
 2791 0112 C369     		ldr	r3, [r0, #28]
 2792 0114 23F47043 		bic	r3, r3, #61440
 2793 0118 C361     		str	r3, [r0, #28]
1467:C:/Users/49542/Desktop/GD32F30x_Demo_Suites_V2.0.0/GD32F30x_Demo_Suites_V2.0.0/GD32F30x_Firmware_Library/GD32F30x_standard_peripheral/Source\gd32f30x_timer.c **** 
 2794              		.loc 1 1467 0
 2795 011a C369     		ldr	r3, [r0, #28]
 2796 011c D488     		ldrh	r4, [r2, #6]
 2797 011e 43EA0433 		orr	r3, r3, r4, lsl #12
 2798 0122 C361     		str	r3, [r0, #28]
1470:C:/Users/49542/Desktop/GD32F30x_Demo_Suites_V2.0.0/GD32F30x_Demo_Suites_V2.0.0/GD32F30x_Firmware_Library/GD32F30x_standard_peripheral/Source\gd32f30x_timer.c ****         break;
 2799              		.loc 1 1470 0
 2800 0124 036A     		ldr	r3, [r0, #32]
 2801 0126 43F48053 		orr	r3, r3, #4096
 2802 012a 0362     		str	r3, [r0, #32]
1471:C:/Users/49542/Desktop/GD32F30x_Demo_Suites_V2.0.0/GD32F30x_Demo_Suites_V2.0.0/GD32F30x_Firmware_Library/GD32F30x_standard_peripheral/Source\gd32f30x_timer.c ****     default:
 2803              		.loc 1 1471 0
 2804 012c 90E7     		b	.L183
 2805              		.cfi_endproc
 2806              	.LFE168:
 2808              		.section	.text.timer_channel_capture_value_register_read,"ax",%progbits
 2809              		.align	1
 2810              		.global	timer_channel_capture_value_register_read
 2811              		.syntax unified
 2812              		.thumb
 2813              		.thumb_func
 2814              		.fpu fpv4-sp-d16
 2816              	timer_channel_capture_value_register_read:
 2817              	.LFB170:
1524:C:/Users/49542/Desktop/GD32F30x_Demo_Suites_V2.0.0/GD32F30x_Demo_Suites_V2.0.0/GD32F30x_Firmware_Library/GD32F30x_standard_peripheral/Source\gd32f30x_timer.c **** 
1525:C:/Users/49542/Desktop/GD32F30x_Demo_Suites_V2.0.0/GD32F30x_Demo_Suites_V2.0.0/GD32F30x_Firmware_Library/GD32F30x_standard_peripheral/Source\gd32f30x_timer.c **** /*!
1526:C:/Users/49542/Desktop/GD32F30x_Demo_Suites_V2.0.0/GD32F30x_Demo_Suites_V2.0.0/GD32F30x_Firmware_Library/GD32F30x_standard_peripheral/Source\gd32f30x_timer.c ****     \brief      read TIMER channel capture compare register value
1527:C:/Users/49542/Desktop/GD32F30x_Demo_Suites_V2.0.0/GD32F30x_Demo_Suites_V2.0.0/GD32F30x_Firmware_Library/GD32F30x_standard_peripheral/Source\gd32f30x_timer.c ****     \param[in]  timer_periph: please refer to the following parameters
1528:C:/Users/49542/Desktop/GD32F30x_Demo_Suites_V2.0.0/GD32F30x_Demo_Suites_V2.0.0/GD32F30x_Firmware_Library/GD32F30x_standard_peripheral/Source\gd32f30x_timer.c ****     \param[in]  channel: 
1529:C:/Users/49542/Desktop/GD32F30x_Demo_Suites_V2.0.0/GD32F30x_Demo_Suites_V2.0.0/GD32F30x_Firmware_Library/GD32F30x_standard_peripheral/Source\gd32f30x_timer.c ****                 only one parameter can be selected which is shown as below:
1530:C:/Users/49542/Desktop/GD32F30x_Demo_Suites_V2.0.0/GD32F30x_Demo_Suites_V2.0.0/GD32F30x_Firmware_Library/GD32F30x_standard_peripheral/Source\gd32f30x_timer.c ****       \arg        TIMER_CH_0: TIMER channel0(TIMERx(x=0..4,7..13))
1531:C:/Users/49542/Desktop/GD32F30x_Demo_Suites_V2.0.0/GD32F30x_Demo_Suites_V2.0.0/GD32F30x_Firmware_Library/GD32F30x_standard_peripheral/Source\gd32f30x_timer.c ****       \arg        TIMER_CH_1: TIMER channel1(TIMERx(x=0..4,7,8,11))
1532:C:/Users/49542/Desktop/GD32F30x_Demo_Suites_V2.0.0/GD32F30x_Demo_Suites_V2.0.0/GD32F30x_Firmware_Library/GD32F30x_standard_peripheral/Source\gd32f30x_timer.c ****       \arg        TIMER_CH_2: TIMER channel2(TIMERx(x=0..4,7))
ARM GAS  C:\Users\49542\AppData\Local\Temp\ccEBNRSE.s 			page 77


1533:C:/Users/49542/Desktop/GD32F30x_Demo_Suites_V2.0.0/GD32F30x_Demo_Suites_V2.0.0/GD32F30x_Firmware_Library/GD32F30x_standard_peripheral/Source\gd32f30x_timer.c ****       \arg        TIMER_CH_3: TIMER channel3(TIMERx(x=0..4,7))
1534:C:/Users/49542/Desktop/GD32F30x_Demo_Suites_V2.0.0/GD32F30x_Demo_Suites_V2.0.0/GD32F30x_Firmware_Library/GD32F30x_standard_peripheral/Source\gd32f30x_timer.c ****     \param[out] none
1535:C:/Users/49542/Desktop/GD32F30x_Demo_Suites_V2.0.0/GD32F30x_Demo_Suites_V2.0.0/GD32F30x_Firmware_Library/GD32F30x_standard_peripheral/Source\gd32f30x_timer.c ****     \retval     channel capture compare register value
1536:C:/Users/49542/Desktop/GD32F30x_Demo_Suites_V2.0.0/GD32F30x_Demo_Suites_V2.0.0/GD32F30x_Firmware_Library/GD32F30x_standard_peripheral/Source\gd32f30x_timer.c **** */
1537:C:/Users/49542/Desktop/GD32F30x_Demo_Suites_V2.0.0/GD32F30x_Demo_Suites_V2.0.0/GD32F30x_Firmware_Library/GD32F30x_standard_peripheral/Source\gd32f30x_timer.c **** uint32_t timer_channel_capture_value_register_read(uint32_t timer_periph, uint16_t channel)
1538:C:/Users/49542/Desktop/GD32F30x_Demo_Suites_V2.0.0/GD32F30x_Demo_Suites_V2.0.0/GD32F30x_Firmware_Library/GD32F30x_standard_peripheral/Source\gd32f30x_timer.c **** {
 2818              		.loc 1 1538 0
 2819              		.cfi_startproc
 2820              		@ args = 0, pretend = 0, frame = 0
 2821              		@ frame_needed = 0, uses_anonymous_args = 0
 2822              		@ link register save eliminated.
 2823              	.LVL203:
1539:C:/Users/49542/Desktop/GD32F30x_Demo_Suites_V2.0.0/GD32F30x_Demo_Suites_V2.0.0/GD32F30x_Firmware_Library/GD32F30x_standard_peripheral/Source\gd32f30x_timer.c ****     uint32_t count_value = 0U;
1540:C:/Users/49542/Desktop/GD32F30x_Demo_Suites_V2.0.0/GD32F30x_Demo_Suites_V2.0.0/GD32F30x_Firmware_Library/GD32F30x_standard_peripheral/Source\gd32f30x_timer.c **** 
1541:C:/Users/49542/Desktop/GD32F30x_Demo_Suites_V2.0.0/GD32F30x_Demo_Suites_V2.0.0/GD32F30x_Firmware_Library/GD32F30x_standard_peripheral/Source\gd32f30x_timer.c ****     switch(channel){
 2824              		.loc 1 1541 0
 2825 0000 0329     		cmp	r1, #3
 2826 0002 0BD8     		bhi	.L197
 2827 0004 DFE801F0 		tbb	[pc, r1]
 2828              	.L193:
 2829 0008 02       		.byte	(.L192-.L193)/2
 2830 0009 04       		.byte	(.L194-.L193)/2
 2831 000a 06       		.byte	(.L195-.L193)/2
 2832 000b 08       		.byte	(.L196-.L193)/2
 2833              		.p2align 1
 2834              	.L192:
1542:C:/Users/49542/Desktop/GD32F30x_Demo_Suites_V2.0.0/GD32F30x_Demo_Suites_V2.0.0/GD32F30x_Firmware_Library/GD32F30x_standard_peripheral/Source\gd32f30x_timer.c ****     /* read TIMER channel 0 capture compare register value */
1543:C:/Users/49542/Desktop/GD32F30x_Demo_Suites_V2.0.0/GD32F30x_Demo_Suites_V2.0.0/GD32F30x_Firmware_Library/GD32F30x_standard_peripheral/Source\gd32f30x_timer.c ****     case TIMER_CH_0:
1544:C:/Users/49542/Desktop/GD32F30x_Demo_Suites_V2.0.0/GD32F30x_Demo_Suites_V2.0.0/GD32F30x_Firmware_Library/GD32F30x_standard_peripheral/Source\gd32f30x_timer.c ****         count_value = TIMER_CH0CV(timer_periph);
 2835              		.loc 1 1544 0
 2836 000c 406B     		ldr	r0, [r0, #52]
 2837              	.LVL204:
1545:C:/Users/49542/Desktop/GD32F30x_Demo_Suites_V2.0.0/GD32F30x_Demo_Suites_V2.0.0/GD32F30x_Firmware_Library/GD32F30x_standard_peripheral/Source\gd32f30x_timer.c ****         break;
 2838              		.loc 1 1545 0
 2839 000e 7047     		bx	lr
 2840              	.LVL205:
 2841              	.L194:
1546:C:/Users/49542/Desktop/GD32F30x_Demo_Suites_V2.0.0/GD32F30x_Demo_Suites_V2.0.0/GD32F30x_Firmware_Library/GD32F30x_standard_peripheral/Source\gd32f30x_timer.c ****     /* read TIMER channel 1 capture compare register value */
1547:C:/Users/49542/Desktop/GD32F30x_Demo_Suites_V2.0.0/GD32F30x_Demo_Suites_V2.0.0/GD32F30x_Firmware_Library/GD32F30x_standard_peripheral/Source\gd32f30x_timer.c ****     case TIMER_CH_1:
1548:C:/Users/49542/Desktop/GD32F30x_Demo_Suites_V2.0.0/GD32F30x_Demo_Suites_V2.0.0/GD32F30x_Firmware_Library/GD32F30x_standard_peripheral/Source\gd32f30x_timer.c ****         count_value = TIMER_CH1CV(timer_periph);
 2842              		.loc 1 1548 0
 2843 0010 806B     		ldr	r0, [r0, #56]
 2844              	.LVL206:
1549:C:/Users/49542/Desktop/GD32F30x_Demo_Suites_V2.0.0/GD32F30x_Demo_Suites_V2.0.0/GD32F30x_Firmware_Library/GD32F30x_standard_peripheral/Source\gd32f30x_timer.c ****         break;
 2845              		.loc 1 1549 0
 2846 0012 7047     		bx	lr
 2847              	.LVL207:
 2848              	.L195:
1550:C:/Users/49542/Desktop/GD32F30x_Demo_Suites_V2.0.0/GD32F30x_Demo_Suites_V2.0.0/GD32F30x_Firmware_Library/GD32F30x_standard_peripheral/Source\gd32f30x_timer.c ****     /* read TIMER channel 2 capture compare register value */
1551:C:/Users/49542/Desktop/GD32F30x_Demo_Suites_V2.0.0/GD32F30x_Demo_Suites_V2.0.0/GD32F30x_Firmware_Library/GD32F30x_standard_peripheral/Source\gd32f30x_timer.c ****     case TIMER_CH_2:
1552:C:/Users/49542/Desktop/GD32F30x_Demo_Suites_V2.0.0/GD32F30x_Demo_Suites_V2.0.0/GD32F30x_Firmware_Library/GD32F30x_standard_peripheral/Source\gd32f30x_timer.c ****         count_value = TIMER_CH2CV(timer_periph);
 2849              		.loc 1 1552 0
 2850 0014 C06B     		ldr	r0, [r0, #60]
 2851              	.LVL208:
1553:C:/Users/49542/Desktop/GD32F30x_Demo_Suites_V2.0.0/GD32F30x_Demo_Suites_V2.0.0/GD32F30x_Firmware_Library/GD32F30x_standard_peripheral/Source\gd32f30x_timer.c ****         break;
 2852              		.loc 1 1553 0
 2853 0016 7047     		bx	lr
ARM GAS  C:\Users\49542\AppData\Local\Temp\ccEBNRSE.s 			page 78


 2854              	.LVL209:
 2855              	.L196:
1554:C:/Users/49542/Desktop/GD32F30x_Demo_Suites_V2.0.0/GD32F30x_Demo_Suites_V2.0.0/GD32F30x_Firmware_Library/GD32F30x_standard_peripheral/Source\gd32f30x_timer.c ****     /* read TIMER channel 3 capture compare register value */
1555:C:/Users/49542/Desktop/GD32F30x_Demo_Suites_V2.0.0/GD32F30x_Demo_Suites_V2.0.0/GD32F30x_Firmware_Library/GD32F30x_standard_peripheral/Source\gd32f30x_timer.c ****     case TIMER_CH_3:
1556:C:/Users/49542/Desktop/GD32F30x_Demo_Suites_V2.0.0/GD32F30x_Demo_Suites_V2.0.0/GD32F30x_Firmware_Library/GD32F30x_standard_peripheral/Source\gd32f30x_timer.c ****         count_value = TIMER_CH3CV(timer_periph);
 2856              		.loc 1 1556 0
 2857 0018 006C     		ldr	r0, [r0, #64]
 2858              	.LVL210:
1557:C:/Users/49542/Desktop/GD32F30x_Demo_Suites_V2.0.0/GD32F30x_Demo_Suites_V2.0.0/GD32F30x_Firmware_Library/GD32F30x_standard_peripheral/Source\gd32f30x_timer.c ****         break;
 2859              		.loc 1 1557 0
 2860 001a 7047     		bx	lr
 2861              	.LVL211:
 2862              	.L197:
1539:C:/Users/49542/Desktop/GD32F30x_Demo_Suites_V2.0.0/GD32F30x_Demo_Suites_V2.0.0/GD32F30x_Firmware_Library/GD32F30x_standard_peripheral/Source\gd32f30x_timer.c **** 
 2863              		.loc 1 1539 0
 2864 001c 0020     		movs	r0, #0
 2865              	.LVL212:
1558:C:/Users/49542/Desktop/GD32F30x_Demo_Suites_V2.0.0/GD32F30x_Demo_Suites_V2.0.0/GD32F30x_Firmware_Library/GD32F30x_standard_peripheral/Source\gd32f30x_timer.c ****     default:
1559:C:/Users/49542/Desktop/GD32F30x_Demo_Suites_V2.0.0/GD32F30x_Demo_Suites_V2.0.0/GD32F30x_Firmware_Library/GD32F30x_standard_peripheral/Source\gd32f30x_timer.c ****         break;
1560:C:/Users/49542/Desktop/GD32F30x_Demo_Suites_V2.0.0/GD32F30x_Demo_Suites_V2.0.0/GD32F30x_Firmware_Library/GD32F30x_standard_peripheral/Source\gd32f30x_timer.c ****     }
1561:C:/Users/49542/Desktop/GD32F30x_Demo_Suites_V2.0.0/GD32F30x_Demo_Suites_V2.0.0/GD32F30x_Firmware_Library/GD32F30x_standard_peripheral/Source\gd32f30x_timer.c ****     return (count_value);
1562:C:/Users/49542/Desktop/GD32F30x_Demo_Suites_V2.0.0/GD32F30x_Demo_Suites_V2.0.0/GD32F30x_Firmware_Library/GD32F30x_standard_peripheral/Source\gd32f30x_timer.c **** }
 2866              		.loc 1 1562 0
 2867 001e 7047     		bx	lr
 2868              		.cfi_endproc
 2869              	.LFE170:
 2871              		.section	.text.timer_input_pwm_capture_config,"ax",%progbits
 2872              		.align	1
 2873              		.global	timer_input_pwm_capture_config
 2874              		.syntax unified
 2875              		.thumb
 2876              		.thumb_func
 2877              		.fpu fpv4-sp-d16
 2879              	timer_input_pwm_capture_config:
 2880              	.LFB171:
1563:C:/Users/49542/Desktop/GD32F30x_Demo_Suites_V2.0.0/GD32F30x_Demo_Suites_V2.0.0/GD32F30x_Firmware_Library/GD32F30x_standard_peripheral/Source\gd32f30x_timer.c **** 
1564:C:/Users/49542/Desktop/GD32F30x_Demo_Suites_V2.0.0/GD32F30x_Demo_Suites_V2.0.0/GD32F30x_Firmware_Library/GD32F30x_standard_peripheral/Source\gd32f30x_timer.c **** /*!
1565:C:/Users/49542/Desktop/GD32F30x_Demo_Suites_V2.0.0/GD32F30x_Demo_Suites_V2.0.0/GD32F30x_Firmware_Library/GD32F30x_standard_peripheral/Source\gd32f30x_timer.c ****     \brief      configure TIMER input pwm capture function 
1566:C:/Users/49542/Desktop/GD32F30x_Demo_Suites_V2.0.0/GD32F30x_Demo_Suites_V2.0.0/GD32F30x_Firmware_Library/GD32F30x_standard_peripheral/Source\gd32f30x_timer.c ****     \param[in]  timer_periph: TIMERx(x=0..4,7,8,11)
1567:C:/Users/49542/Desktop/GD32F30x_Demo_Suites_V2.0.0/GD32F30x_Demo_Suites_V2.0.0/GD32F30x_Firmware_Library/GD32F30x_standard_peripheral/Source\gd32f30x_timer.c ****     \param[in]  channel: 
1568:C:/Users/49542/Desktop/GD32F30x_Demo_Suites_V2.0.0/GD32F30x_Demo_Suites_V2.0.0/GD32F30x_Firmware_Library/GD32F30x_standard_peripheral/Source\gd32f30x_timer.c ****                 only one parameter can be selected which is shown as below:
1569:C:/Users/49542/Desktop/GD32F30x_Demo_Suites_V2.0.0/GD32F30x_Demo_Suites_V2.0.0/GD32F30x_Firmware_Library/GD32F30x_standard_peripheral/Source\gd32f30x_timer.c ****       \arg        TIMER_CH_0: TIMER channel0
1570:C:/Users/49542/Desktop/GD32F30x_Demo_Suites_V2.0.0/GD32F30x_Demo_Suites_V2.0.0/GD32F30x_Firmware_Library/GD32F30x_standard_peripheral/Source\gd32f30x_timer.c ****       \arg        TIMER_CH_1: TIMER channel1
1571:C:/Users/49542/Desktop/GD32F30x_Demo_Suites_V2.0.0/GD32F30x_Demo_Suites_V2.0.0/GD32F30x_Firmware_Library/GD32F30x_standard_peripheral/Source\gd32f30x_timer.c ****      \param[in]  icpwm:TIMER channel intput pwm parameter struct
1572:C:/Users/49542/Desktop/GD32F30x_Demo_Suites_V2.0.0/GD32F30x_Demo_Suites_V2.0.0/GD32F30x_Firmware_Library/GD32F30x_standard_peripheral/Source\gd32f30x_timer.c ****                  icpolarity: TIMER_IC_POLARITY_RISING,TIMER_IC_POLARITY_FALLING
1573:C:/Users/49542/Desktop/GD32F30x_Demo_Suites_V2.0.0/GD32F30x_Demo_Suites_V2.0.0/GD32F30x_Firmware_Library/GD32F30x_standard_peripheral/Source\gd32f30x_timer.c ****                  icselection: TIMER_IC_SELECTION_DIRECTTI,TIMER_IC_SELECTION_INDIRECTTI
1574:C:/Users/49542/Desktop/GD32F30x_Demo_Suites_V2.0.0/GD32F30x_Demo_Suites_V2.0.0/GD32F30x_Firmware_Library/GD32F30x_standard_peripheral/Source\gd32f30x_timer.c ****                  icprescaler: TIMER_IC_PSC_DIV1,TIMER_IC_PSC_DIV2,TIMER_IC_PSC_DIV4,TIMER_IC_PSC_DI
1575:C:/Users/49542/Desktop/GD32F30x_Demo_Suites_V2.0.0/GD32F30x_Demo_Suites_V2.0.0/GD32F30x_Firmware_Library/GD32F30x_standard_peripheral/Source\gd32f30x_timer.c ****                  icfilter: 0~15
1576:C:/Users/49542/Desktop/GD32F30x_Demo_Suites_V2.0.0/GD32F30x_Demo_Suites_V2.0.0/GD32F30x_Firmware_Library/GD32F30x_standard_peripheral/Source\gd32f30x_timer.c ****     \param[out] none
1577:C:/Users/49542/Desktop/GD32F30x_Demo_Suites_V2.0.0/GD32F30x_Demo_Suites_V2.0.0/GD32F30x_Firmware_Library/GD32F30x_standard_peripheral/Source\gd32f30x_timer.c ****     \retval     none
1578:C:/Users/49542/Desktop/GD32F30x_Demo_Suites_V2.0.0/GD32F30x_Demo_Suites_V2.0.0/GD32F30x_Firmware_Library/GD32F30x_standard_peripheral/Source\gd32f30x_timer.c **** */
1579:C:/Users/49542/Desktop/GD32F30x_Demo_Suites_V2.0.0/GD32F30x_Demo_Suites_V2.0.0/GD32F30x_Firmware_Library/GD32F30x_standard_peripheral/Source\gd32f30x_timer.c **** void timer_input_pwm_capture_config(uint32_t timer_periph, uint16_t channel, timer_ic_parameter_str
1580:C:/Users/49542/Desktop/GD32F30x_Demo_Suites_V2.0.0/GD32F30x_Demo_Suites_V2.0.0/GD32F30x_Firmware_Library/GD32F30x_standard_peripheral/Source\gd32f30x_timer.c **** {
 2881              		.loc 1 1580 0
 2882              		.cfi_startproc
 2883              		@ args = 0, pretend = 0, frame = 0
 2884              		@ frame_needed = 0, uses_anonymous_args = 0
ARM GAS  C:\Users\49542\AppData\Local\Temp\ccEBNRSE.s 			page 79


 2885              	.LVL213:
 2886 0000 F8B5     		push	{r3, r4, r5, r6, r7, lr}
 2887              	.LCFI4:
 2888              		.cfi_def_cfa_offset 24
 2889              		.cfi_offset 3, -24
 2890              		.cfi_offset 4, -20
 2891              		.cfi_offset 5, -16
 2892              		.cfi_offset 6, -12
 2893              		.cfi_offset 7, -8
 2894              		.cfi_offset 14, -4
 2895 0002 0446     		mov	r4, r0
 2896 0004 1546     		mov	r5, r2
 2897              	.LVL214:
1581:C:/Users/49542/Desktop/GD32F30x_Demo_Suites_V2.0.0/GD32F30x_Demo_Suites_V2.0.0/GD32F30x_Firmware_Library/GD32F30x_standard_peripheral/Source\gd32f30x_timer.c ****     uint16_t icpolarity  = 0x0U;
1582:C:/Users/49542/Desktop/GD32F30x_Demo_Suites_V2.0.0/GD32F30x_Demo_Suites_V2.0.0/GD32F30x_Firmware_Library/GD32F30x_standard_peripheral/Source\gd32f30x_timer.c ****     uint16_t icselection = 0x0U;
1583:C:/Users/49542/Desktop/GD32F30x_Demo_Suites_V2.0.0/GD32F30x_Demo_Suites_V2.0.0/GD32F30x_Firmware_Library/GD32F30x_standard_peripheral/Source\gd32f30x_timer.c **** 
1584:C:/Users/49542/Desktop/GD32F30x_Demo_Suites_V2.0.0/GD32F30x_Demo_Suites_V2.0.0/GD32F30x_Firmware_Library/GD32F30x_standard_peripheral/Source\gd32f30x_timer.c ****     /* Set channel input polarity */
1585:C:/Users/49542/Desktop/GD32F30x_Demo_Suites_V2.0.0/GD32F30x_Demo_Suites_V2.0.0/GD32F30x_Firmware_Library/GD32F30x_standard_peripheral/Source\gd32f30x_timer.c ****     if(TIMER_IC_POLARITY_RISING == icpwm->icpolarity){
 2898              		.loc 1 1585 0
 2899 0006 1388     		ldrh	r3, [r2]
 2900 0008 002B     		cmp	r3, #0
 2901 000a 53D1     		bne	.L203
1586:C:/Users/49542/Desktop/GD32F30x_Demo_Suites_V2.0.0/GD32F30x_Demo_Suites_V2.0.0/GD32F30x_Firmware_Library/GD32F30x_standard_peripheral/Source\gd32f30x_timer.c ****         icpolarity = TIMER_IC_POLARITY_FALLING;
 2902              		.loc 1 1586 0
 2903 000c 0227     		movs	r7, #2
 2904              	.L199:
 2905              	.LVL215:
1587:C:/Users/49542/Desktop/GD32F30x_Demo_Suites_V2.0.0/GD32F30x_Demo_Suites_V2.0.0/GD32F30x_Firmware_Library/GD32F30x_standard_peripheral/Source\gd32f30x_timer.c ****     }else{
1588:C:/Users/49542/Desktop/GD32F30x_Demo_Suites_V2.0.0/GD32F30x_Demo_Suites_V2.0.0/GD32F30x_Firmware_Library/GD32F30x_standard_peripheral/Source\gd32f30x_timer.c ****         icpolarity = TIMER_IC_POLARITY_RISING;
1589:C:/Users/49542/Desktop/GD32F30x_Demo_Suites_V2.0.0/GD32F30x_Demo_Suites_V2.0.0/GD32F30x_Firmware_Library/GD32F30x_standard_peripheral/Source\gd32f30x_timer.c ****     }
1590:C:/Users/49542/Desktop/GD32F30x_Demo_Suites_V2.0.0/GD32F30x_Demo_Suites_V2.0.0/GD32F30x_Firmware_Library/GD32F30x_standard_peripheral/Source\gd32f30x_timer.c **** 
1591:C:/Users/49542/Desktop/GD32F30x_Demo_Suites_V2.0.0/GD32F30x_Demo_Suites_V2.0.0/GD32F30x_Firmware_Library/GD32F30x_standard_peripheral/Source\gd32f30x_timer.c ****     /* Set channel input mode selection */
1592:C:/Users/49542/Desktop/GD32F30x_Demo_Suites_V2.0.0/GD32F30x_Demo_Suites_V2.0.0/GD32F30x_Firmware_Library/GD32F30x_standard_peripheral/Source\gd32f30x_timer.c ****     if(TIMER_IC_SELECTION_DIRECTTI == icpwm->icselection){
 2906              		.loc 1 1592 0
 2907 000e 6B88     		ldrh	r3, [r5, #2]
 2908 0010 012B     		cmp	r3, #1
 2909 0012 51D0     		beq	.L206
1593:C:/Users/49542/Desktop/GD32F30x_Demo_Suites_V2.0.0/GD32F30x_Demo_Suites_V2.0.0/GD32F30x_Firmware_Library/GD32F30x_standard_peripheral/Source\gd32f30x_timer.c ****         icselection = TIMER_IC_SELECTION_INDIRECTTI;
1594:C:/Users/49542/Desktop/GD32F30x_Demo_Suites_V2.0.0/GD32F30x_Demo_Suites_V2.0.0/GD32F30x_Firmware_Library/GD32F30x_standard_peripheral/Source\gd32f30x_timer.c ****     }else{
1595:C:/Users/49542/Desktop/GD32F30x_Demo_Suites_V2.0.0/GD32F30x_Demo_Suites_V2.0.0/GD32F30x_Firmware_Library/GD32F30x_standard_peripheral/Source\gd32f30x_timer.c ****         icselection = TIMER_IC_SELECTION_DIRECTTI;
 2910              		.loc 1 1595 0
 2911 0014 0126     		movs	r6, #1
 2912              	.L200:
 2913              	.LVL216:
1596:C:/Users/49542/Desktop/GD32F30x_Demo_Suites_V2.0.0/GD32F30x_Demo_Suites_V2.0.0/GD32F30x_Firmware_Library/GD32F30x_standard_peripheral/Source\gd32f30x_timer.c ****     }
1597:C:/Users/49542/Desktop/GD32F30x_Demo_Suites_V2.0.0/GD32F30x_Demo_Suites_V2.0.0/GD32F30x_Firmware_Library/GD32F30x_standard_peripheral/Source\gd32f30x_timer.c **** 
1598:C:/Users/49542/Desktop/GD32F30x_Demo_Suites_V2.0.0/GD32F30x_Demo_Suites_V2.0.0/GD32F30x_Firmware_Library/GD32F30x_standard_peripheral/Source\gd32f30x_timer.c ****     if(TIMER_CH_0 == channel){
 2914              		.loc 1 1598 0
 2915 0016 0029     		cmp	r1, #0
 2916 0018 50D0     		beq	.L207
1599:C:/Users/49542/Desktop/GD32F30x_Demo_Suites_V2.0.0/GD32F30x_Demo_Suites_V2.0.0/GD32F30x_Firmware_Library/GD32F30x_standard_peripheral/Source\gd32f30x_timer.c ****         /* reset the CH0EN bit */
1600:C:/Users/49542/Desktop/GD32F30x_Demo_Suites_V2.0.0/GD32F30x_Demo_Suites_V2.0.0/GD32F30x_Firmware_Library/GD32F30x_standard_peripheral/Source\gd32f30x_timer.c ****         TIMER_CHCTL2(timer_periph) &= (~(uint32_t)TIMER_CHCTL2_CH0EN);
1601:C:/Users/49542/Desktop/GD32F30x_Demo_Suites_V2.0.0/GD32F30x_Demo_Suites_V2.0.0/GD32F30x_Firmware_Library/GD32F30x_standard_peripheral/Source\gd32f30x_timer.c ****         /* reset the CH0P and CH0NP bits */
1602:C:/Users/49542/Desktop/GD32F30x_Demo_Suites_V2.0.0/GD32F30x_Demo_Suites_V2.0.0/GD32F30x_Firmware_Library/GD32F30x_standard_peripheral/Source\gd32f30x_timer.c ****         TIMER_CHCTL2(timer_periph) &= (~(uint32_t)(TIMER_CHCTL2_CH0P|TIMER_CHCTL2_CH0NP));
1603:C:/Users/49542/Desktop/GD32F30x_Demo_Suites_V2.0.0/GD32F30x_Demo_Suites_V2.0.0/GD32F30x_Firmware_Library/GD32F30x_standard_peripheral/Source\gd32f30x_timer.c ****         /* set the CH0P and CH0NP bits */
1604:C:/Users/49542/Desktop/GD32F30x_Demo_Suites_V2.0.0/GD32F30x_Demo_Suites_V2.0.0/GD32F30x_Firmware_Library/GD32F30x_standard_peripheral/Source\gd32f30x_timer.c ****         TIMER_CHCTL2(timer_periph) |= (uint32_t)(icpwm->icpolarity);
1605:C:/Users/49542/Desktop/GD32F30x_Demo_Suites_V2.0.0/GD32F30x_Demo_Suites_V2.0.0/GD32F30x_Firmware_Library/GD32F30x_standard_peripheral/Source\gd32f30x_timer.c ****         /* reset the CH0MS bit */
ARM GAS  C:\Users\49542\AppData\Local\Temp\ccEBNRSE.s 			page 80


1606:C:/Users/49542/Desktop/GD32F30x_Demo_Suites_V2.0.0/GD32F30x_Demo_Suites_V2.0.0/GD32F30x_Firmware_Library/GD32F30x_standard_peripheral/Source\gd32f30x_timer.c ****         TIMER_CHCTL0(timer_periph) &= (~(uint32_t)TIMER_CHCTL0_CH0MS);
1607:C:/Users/49542/Desktop/GD32F30x_Demo_Suites_V2.0.0/GD32F30x_Demo_Suites_V2.0.0/GD32F30x_Firmware_Library/GD32F30x_standard_peripheral/Source\gd32f30x_timer.c ****         /* set the CH0MS bit */
1608:C:/Users/49542/Desktop/GD32F30x_Demo_Suites_V2.0.0/GD32F30x_Demo_Suites_V2.0.0/GD32F30x_Firmware_Library/GD32F30x_standard_peripheral/Source\gd32f30x_timer.c ****         TIMER_CHCTL0(timer_periph) |= (uint32_t)(icpwm->icselection);
1609:C:/Users/49542/Desktop/GD32F30x_Demo_Suites_V2.0.0/GD32F30x_Demo_Suites_V2.0.0/GD32F30x_Firmware_Library/GD32F30x_standard_peripheral/Source\gd32f30x_timer.c ****         /* reset the CH0CAPFLT bit */
1610:C:/Users/49542/Desktop/GD32F30x_Demo_Suites_V2.0.0/GD32F30x_Demo_Suites_V2.0.0/GD32F30x_Firmware_Library/GD32F30x_standard_peripheral/Source\gd32f30x_timer.c ****         TIMER_CHCTL0(timer_periph) &= (~(uint32_t)TIMER_CHCTL0_CH0CAPFLT);
1611:C:/Users/49542/Desktop/GD32F30x_Demo_Suites_V2.0.0/GD32F30x_Demo_Suites_V2.0.0/GD32F30x_Firmware_Library/GD32F30x_standard_peripheral/Source\gd32f30x_timer.c ****         /* set the CH0CAPFLT bit */
1612:C:/Users/49542/Desktop/GD32F30x_Demo_Suites_V2.0.0/GD32F30x_Demo_Suites_V2.0.0/GD32F30x_Firmware_Library/GD32F30x_standard_peripheral/Source\gd32f30x_timer.c ****         TIMER_CHCTL0(timer_periph) |= ((uint32_t)(icpwm->icfilter) << 4U);
1613:C:/Users/49542/Desktop/GD32F30x_Demo_Suites_V2.0.0/GD32F30x_Demo_Suites_V2.0.0/GD32F30x_Firmware_Library/GD32F30x_standard_peripheral/Source\gd32f30x_timer.c ****         /* set the CH0EN bit */
1614:C:/Users/49542/Desktop/GD32F30x_Demo_Suites_V2.0.0/GD32F30x_Demo_Suites_V2.0.0/GD32F30x_Firmware_Library/GD32F30x_standard_peripheral/Source\gd32f30x_timer.c ****         TIMER_CHCTL2(timer_periph) |= (uint32_t)TIMER_CHCTL2_CH0EN;
1615:C:/Users/49542/Desktop/GD32F30x_Demo_Suites_V2.0.0/GD32F30x_Demo_Suites_V2.0.0/GD32F30x_Firmware_Library/GD32F30x_standard_peripheral/Source\gd32f30x_timer.c ****         /* configure TIMER channel input capture prescaler value */
1616:C:/Users/49542/Desktop/GD32F30x_Demo_Suites_V2.0.0/GD32F30x_Demo_Suites_V2.0.0/GD32F30x_Firmware_Library/GD32F30x_standard_peripheral/Source\gd32f30x_timer.c ****         timer_channel_input_capture_prescaler_config(timer_periph,TIMER_CH_0,(uint16_t)(icpwm->icpr
1617:C:/Users/49542/Desktop/GD32F30x_Demo_Suites_V2.0.0/GD32F30x_Demo_Suites_V2.0.0/GD32F30x_Firmware_Library/GD32F30x_standard_peripheral/Source\gd32f30x_timer.c **** 
1618:C:/Users/49542/Desktop/GD32F30x_Demo_Suites_V2.0.0/GD32F30x_Demo_Suites_V2.0.0/GD32F30x_Firmware_Library/GD32F30x_standard_peripheral/Source\gd32f30x_timer.c ****         /* reset the CH1EN bit */
1619:C:/Users/49542/Desktop/GD32F30x_Demo_Suites_V2.0.0/GD32F30x_Demo_Suites_V2.0.0/GD32F30x_Firmware_Library/GD32F30x_standard_peripheral/Source\gd32f30x_timer.c ****         TIMER_CHCTL2(timer_periph) &= (~(uint32_t)TIMER_CHCTL2_CH1EN);
1620:C:/Users/49542/Desktop/GD32F30x_Demo_Suites_V2.0.0/GD32F30x_Demo_Suites_V2.0.0/GD32F30x_Firmware_Library/GD32F30x_standard_peripheral/Source\gd32f30x_timer.c ****         /* reset the CH1P and CH1NP bits */
1621:C:/Users/49542/Desktop/GD32F30x_Demo_Suites_V2.0.0/GD32F30x_Demo_Suites_V2.0.0/GD32F30x_Firmware_Library/GD32F30x_standard_peripheral/Source\gd32f30x_timer.c ****         TIMER_CHCTL2(timer_periph) &= (~(uint32_t)(TIMER_CHCTL2_CH1P|TIMER_CHCTL2_CH1NP));
1622:C:/Users/49542/Desktop/GD32F30x_Demo_Suites_V2.0.0/GD32F30x_Demo_Suites_V2.0.0/GD32F30x_Firmware_Library/GD32F30x_standard_peripheral/Source\gd32f30x_timer.c ****         /* set the CH1P and CH1NP bits */
1623:C:/Users/49542/Desktop/GD32F30x_Demo_Suites_V2.0.0/GD32F30x_Demo_Suites_V2.0.0/GD32F30x_Firmware_Library/GD32F30x_standard_peripheral/Source\gd32f30x_timer.c ****         TIMER_CHCTL2(timer_periph) |= (uint32_t)((uint32_t)icpolarity << 4U);
1624:C:/Users/49542/Desktop/GD32F30x_Demo_Suites_V2.0.0/GD32F30x_Demo_Suites_V2.0.0/GD32F30x_Firmware_Library/GD32F30x_standard_peripheral/Source\gd32f30x_timer.c ****         /* reset the CH1MS bit */
1625:C:/Users/49542/Desktop/GD32F30x_Demo_Suites_V2.0.0/GD32F30x_Demo_Suites_V2.0.0/GD32F30x_Firmware_Library/GD32F30x_standard_peripheral/Source\gd32f30x_timer.c ****         TIMER_CHCTL0(timer_periph) &= (~(uint32_t)TIMER_CHCTL0_CH1MS);
1626:C:/Users/49542/Desktop/GD32F30x_Demo_Suites_V2.0.0/GD32F30x_Demo_Suites_V2.0.0/GD32F30x_Firmware_Library/GD32F30x_standard_peripheral/Source\gd32f30x_timer.c ****         /* set the CH1MS bit */
1627:C:/Users/49542/Desktop/GD32F30x_Demo_Suites_V2.0.0/GD32F30x_Demo_Suites_V2.0.0/GD32F30x_Firmware_Library/GD32F30x_standard_peripheral/Source\gd32f30x_timer.c ****         TIMER_CHCTL0(timer_periph) |= (uint32_t)((uint32_t)icselection << 8U);
1628:C:/Users/49542/Desktop/GD32F30x_Demo_Suites_V2.0.0/GD32F30x_Demo_Suites_V2.0.0/GD32F30x_Firmware_Library/GD32F30x_standard_peripheral/Source\gd32f30x_timer.c ****         /* reset the CH1CAPFLT bit */
1629:C:/Users/49542/Desktop/GD32F30x_Demo_Suites_V2.0.0/GD32F30x_Demo_Suites_V2.0.0/GD32F30x_Firmware_Library/GD32F30x_standard_peripheral/Source\gd32f30x_timer.c ****         TIMER_CHCTL0(timer_periph) &= (~(uint32_t)TIMER_CHCTL0_CH1CAPFLT);
1630:C:/Users/49542/Desktop/GD32F30x_Demo_Suites_V2.0.0/GD32F30x_Demo_Suites_V2.0.0/GD32F30x_Firmware_Library/GD32F30x_standard_peripheral/Source\gd32f30x_timer.c ****         /* set the CH1CAPFLT bit */
1631:C:/Users/49542/Desktop/GD32F30x_Demo_Suites_V2.0.0/GD32F30x_Demo_Suites_V2.0.0/GD32F30x_Firmware_Library/GD32F30x_standard_peripheral/Source\gd32f30x_timer.c ****         TIMER_CHCTL0(timer_periph) |= (uint32_t)((uint32_t)(icpwm->icfilter) << 12U);
1632:C:/Users/49542/Desktop/GD32F30x_Demo_Suites_V2.0.0/GD32F30x_Demo_Suites_V2.0.0/GD32F30x_Firmware_Library/GD32F30x_standard_peripheral/Source\gd32f30x_timer.c ****         /* set the CH1EN bit */
1633:C:/Users/49542/Desktop/GD32F30x_Demo_Suites_V2.0.0/GD32F30x_Demo_Suites_V2.0.0/GD32F30x_Firmware_Library/GD32F30x_standard_peripheral/Source\gd32f30x_timer.c ****         TIMER_CHCTL2(timer_periph) |= (uint32_t)TIMER_CHCTL2_CH1EN;
1634:C:/Users/49542/Desktop/GD32F30x_Demo_Suites_V2.0.0/GD32F30x_Demo_Suites_V2.0.0/GD32F30x_Firmware_Library/GD32F30x_standard_peripheral/Source\gd32f30x_timer.c ****         /* configure TIMER channel input capture prescaler value */
1635:C:/Users/49542/Desktop/GD32F30x_Demo_Suites_V2.0.0/GD32F30x_Demo_Suites_V2.0.0/GD32F30x_Firmware_Library/GD32F30x_standard_peripheral/Source\gd32f30x_timer.c ****         timer_channel_input_capture_prescaler_config(timer_periph,TIMER_CH_1,(uint16_t)(icpwm->icpr
1636:C:/Users/49542/Desktop/GD32F30x_Demo_Suites_V2.0.0/GD32F30x_Demo_Suites_V2.0.0/GD32F30x_Firmware_Library/GD32F30x_standard_peripheral/Source\gd32f30x_timer.c ****     }else{
1637:C:/Users/49542/Desktop/GD32F30x_Demo_Suites_V2.0.0/GD32F30x_Demo_Suites_V2.0.0/GD32F30x_Firmware_Library/GD32F30x_standard_peripheral/Source\gd32f30x_timer.c ****         /* reset the CH1EN bit */
1638:C:/Users/49542/Desktop/GD32F30x_Demo_Suites_V2.0.0/GD32F30x_Demo_Suites_V2.0.0/GD32F30x_Firmware_Library/GD32F30x_standard_peripheral/Source\gd32f30x_timer.c ****         TIMER_CHCTL2(timer_periph) &= (~(uint32_t)TIMER_CHCTL2_CH1EN);
 2917              		.loc 1 1638 0
 2918 001a 236A     		ldr	r3, [r4, #32]
 2919 001c 23F01003 		bic	r3, r3, #16
 2920 0020 2362     		str	r3, [r4, #32]
1639:C:/Users/49542/Desktop/GD32F30x_Demo_Suites_V2.0.0/GD32F30x_Demo_Suites_V2.0.0/GD32F30x_Firmware_Library/GD32F30x_standard_peripheral/Source\gd32f30x_timer.c ****         /* reset the CH1P and CH1NP bits */
1640:C:/Users/49542/Desktop/GD32F30x_Demo_Suites_V2.0.0/GD32F30x_Demo_Suites_V2.0.0/GD32F30x_Firmware_Library/GD32F30x_standard_peripheral/Source\gd32f30x_timer.c ****         TIMER_CHCTL2(timer_periph) &= (~(uint32_t)(TIMER_CHCTL2_CH1P|TIMER_CHCTL2_CH1NP));
 2921              		.loc 1 1640 0
 2922 0022 236A     		ldr	r3, [r4, #32]
 2923 0024 23F0A003 		bic	r3, r3, #160
 2924 0028 2362     		str	r3, [r4, #32]
1641:C:/Users/49542/Desktop/GD32F30x_Demo_Suites_V2.0.0/GD32F30x_Demo_Suites_V2.0.0/GD32F30x_Firmware_Library/GD32F30x_standard_peripheral/Source\gd32f30x_timer.c ****         /* set the CH1P and CH1NP bits */
1642:C:/Users/49542/Desktop/GD32F30x_Demo_Suites_V2.0.0/GD32F30x_Demo_Suites_V2.0.0/GD32F30x_Firmware_Library/GD32F30x_standard_peripheral/Source\gd32f30x_timer.c ****         TIMER_CHCTL2(timer_periph) |= (uint32_t)((uint32_t)(icpwm->icpolarity) << 4U);
 2925              		.loc 1 1642 0
 2926 002a 236A     		ldr	r3, [r4, #32]
 2927 002c 2A88     		ldrh	r2, [r5]
 2928              	.LVL217:
 2929 002e 43EA0213 		orr	r3, r3, r2, lsl #4
 2930 0032 2362     		str	r3, [r4, #32]
1643:C:/Users/49542/Desktop/GD32F30x_Demo_Suites_V2.0.0/GD32F30x_Demo_Suites_V2.0.0/GD32F30x_Firmware_Library/GD32F30x_standard_peripheral/Source\gd32f30x_timer.c ****         /* reset the CH1MS bit */
1644:C:/Users/49542/Desktop/GD32F30x_Demo_Suites_V2.0.0/GD32F30x_Demo_Suites_V2.0.0/GD32F30x_Firmware_Library/GD32F30x_standard_peripheral/Source\gd32f30x_timer.c ****         TIMER_CHCTL0(timer_periph) &= (~(uint32_t)TIMER_CHCTL0_CH1MS);
 2931              		.loc 1 1644 0
 2932 0034 A369     		ldr	r3, [r4, #24]
 2933 0036 23F44073 		bic	r3, r3, #768
 2934 003a A361     		str	r3, [r4, #24]
ARM GAS  C:\Users\49542\AppData\Local\Temp\ccEBNRSE.s 			page 81


1645:C:/Users/49542/Desktop/GD32F30x_Demo_Suites_V2.0.0/GD32F30x_Demo_Suites_V2.0.0/GD32F30x_Firmware_Library/GD32F30x_standard_peripheral/Source\gd32f30x_timer.c ****         /* set the CH1MS bit */
1646:C:/Users/49542/Desktop/GD32F30x_Demo_Suites_V2.0.0/GD32F30x_Demo_Suites_V2.0.0/GD32F30x_Firmware_Library/GD32F30x_standard_peripheral/Source\gd32f30x_timer.c ****         TIMER_CHCTL0(timer_periph) |= (uint32_t)((uint32_t)(icpwm->icselection) << 8U);
 2935              		.loc 1 1646 0
 2936 003c A369     		ldr	r3, [r4, #24]
 2937 003e 6A88     		ldrh	r2, [r5, #2]
 2938 0040 43EA0223 		orr	r3, r3, r2, lsl #8
 2939 0044 A361     		str	r3, [r4, #24]
1647:C:/Users/49542/Desktop/GD32F30x_Demo_Suites_V2.0.0/GD32F30x_Demo_Suites_V2.0.0/GD32F30x_Firmware_Library/GD32F30x_standard_peripheral/Source\gd32f30x_timer.c ****         /* reset the CH1CAPFLT bit */
1648:C:/Users/49542/Desktop/GD32F30x_Demo_Suites_V2.0.0/GD32F30x_Demo_Suites_V2.0.0/GD32F30x_Firmware_Library/GD32F30x_standard_peripheral/Source\gd32f30x_timer.c ****         TIMER_CHCTL0(timer_periph) &= (~(uint32_t)TIMER_CHCTL0_CH1CAPFLT);
 2940              		.loc 1 1648 0
 2941 0046 A369     		ldr	r3, [r4, #24]
 2942 0048 23F47043 		bic	r3, r3, #61440
 2943 004c A361     		str	r3, [r4, #24]
1649:C:/Users/49542/Desktop/GD32F30x_Demo_Suites_V2.0.0/GD32F30x_Demo_Suites_V2.0.0/GD32F30x_Firmware_Library/GD32F30x_standard_peripheral/Source\gd32f30x_timer.c ****         /* set the CH1CAPFLT bit */
1650:C:/Users/49542/Desktop/GD32F30x_Demo_Suites_V2.0.0/GD32F30x_Demo_Suites_V2.0.0/GD32F30x_Firmware_Library/GD32F30x_standard_peripheral/Source\gd32f30x_timer.c ****         TIMER_CHCTL0(timer_periph) |= (uint32_t)((uint32_t)(icpwm->icfilter) << 12U);
 2944              		.loc 1 1650 0
 2945 004e A369     		ldr	r3, [r4, #24]
 2946 0050 EA88     		ldrh	r2, [r5, #6]
 2947 0052 43EA0233 		orr	r3, r3, r2, lsl #12
 2948 0056 A361     		str	r3, [r4, #24]
1651:C:/Users/49542/Desktop/GD32F30x_Demo_Suites_V2.0.0/GD32F30x_Demo_Suites_V2.0.0/GD32F30x_Firmware_Library/GD32F30x_standard_peripheral/Source\gd32f30x_timer.c ****         /* set the CH1EN bit */
1652:C:/Users/49542/Desktop/GD32F30x_Demo_Suites_V2.0.0/GD32F30x_Demo_Suites_V2.0.0/GD32F30x_Firmware_Library/GD32F30x_standard_peripheral/Source\gd32f30x_timer.c ****         TIMER_CHCTL2(timer_periph) |= (uint32_t)TIMER_CHCTL2_CH1EN;
 2949              		.loc 1 1652 0
 2950 0058 236A     		ldr	r3, [r4, #32]
 2951 005a 43F01003 		orr	r3, r3, #16
 2952 005e 2362     		str	r3, [r4, #32]
1653:C:/Users/49542/Desktop/GD32F30x_Demo_Suites_V2.0.0/GD32F30x_Demo_Suites_V2.0.0/GD32F30x_Firmware_Library/GD32F30x_standard_peripheral/Source\gd32f30x_timer.c ****         /* configure TIMER channel input capture prescaler value */
1654:C:/Users/49542/Desktop/GD32F30x_Demo_Suites_V2.0.0/GD32F30x_Demo_Suites_V2.0.0/GD32F30x_Firmware_Library/GD32F30x_standard_peripheral/Source\gd32f30x_timer.c ****         timer_channel_input_capture_prescaler_config(timer_periph, TIMER_CH_1, (uint16_t)(icpwm->ic
 2953              		.loc 1 1654 0
 2954 0060 AA88     		ldrh	r2, [r5, #4]
 2955 0062 0121     		movs	r1, #1
 2956              	.LVL218:
 2957 0064 2046     		mov	r0, r4
 2958              	.LVL219:
 2959 0066 FFF7FEFF 		bl	timer_channel_input_capture_prescaler_config
 2960              	.LVL220:
1655:C:/Users/49542/Desktop/GD32F30x_Demo_Suites_V2.0.0/GD32F30x_Demo_Suites_V2.0.0/GD32F30x_Firmware_Library/GD32F30x_standard_peripheral/Source\gd32f30x_timer.c **** 
1656:C:/Users/49542/Desktop/GD32F30x_Demo_Suites_V2.0.0/GD32F30x_Demo_Suites_V2.0.0/GD32F30x_Firmware_Library/GD32F30x_standard_peripheral/Source\gd32f30x_timer.c ****         /* reset the CH0EN bit */
1657:C:/Users/49542/Desktop/GD32F30x_Demo_Suites_V2.0.0/GD32F30x_Demo_Suites_V2.0.0/GD32F30x_Firmware_Library/GD32F30x_standard_peripheral/Source\gd32f30x_timer.c ****         TIMER_CHCTL2(timer_periph) &= (~(uint32_t)TIMER_CHCTL2_CH0EN);
 2961              		.loc 1 1657 0
 2962 006a 236A     		ldr	r3, [r4, #32]
 2963 006c 23F00103 		bic	r3, r3, #1
 2964 0070 2362     		str	r3, [r4, #32]
1658:C:/Users/49542/Desktop/GD32F30x_Demo_Suites_V2.0.0/GD32F30x_Demo_Suites_V2.0.0/GD32F30x_Firmware_Library/GD32F30x_standard_peripheral/Source\gd32f30x_timer.c ****         /* reset the CH0P and CH0NP bits */
1659:C:/Users/49542/Desktop/GD32F30x_Demo_Suites_V2.0.0/GD32F30x_Demo_Suites_V2.0.0/GD32F30x_Firmware_Library/GD32F30x_standard_peripheral/Source\gd32f30x_timer.c ****         TIMER_CHCTL2(timer_periph) &= (~(uint32_t)(TIMER_CHCTL2_CH0P|TIMER_CHCTL2_CH0NP));
 2965              		.loc 1 1659 0
 2966 0072 236A     		ldr	r3, [r4, #32]
 2967 0074 23F00A03 		bic	r3, r3, #10
 2968 0078 2362     		str	r3, [r4, #32]
1660:C:/Users/49542/Desktop/GD32F30x_Demo_Suites_V2.0.0/GD32F30x_Demo_Suites_V2.0.0/GD32F30x_Firmware_Library/GD32F30x_standard_peripheral/Source\gd32f30x_timer.c ****         /* set the CH0P and CH0NP bits */
1661:C:/Users/49542/Desktop/GD32F30x_Demo_Suites_V2.0.0/GD32F30x_Demo_Suites_V2.0.0/GD32F30x_Firmware_Library/GD32F30x_standard_peripheral/Source\gd32f30x_timer.c ****         TIMER_CHCTL2(timer_periph) |= (uint32_t)icpolarity;
 2969              		.loc 1 1661 0
 2970 007a 236A     		ldr	r3, [r4, #32]
 2971 007c 3B43     		orrs	r3, r3, r7
 2972 007e 2362     		str	r3, [r4, #32]
1662:C:/Users/49542/Desktop/GD32F30x_Demo_Suites_V2.0.0/GD32F30x_Demo_Suites_V2.0.0/GD32F30x_Firmware_Library/GD32F30x_standard_peripheral/Source\gd32f30x_timer.c ****         /* reset the CH0MS bit */
1663:C:/Users/49542/Desktop/GD32F30x_Demo_Suites_V2.0.0/GD32F30x_Demo_Suites_V2.0.0/GD32F30x_Firmware_Library/GD32F30x_standard_peripheral/Source\gd32f30x_timer.c ****         TIMER_CHCTL0(timer_periph) &= (~(uint32_t)TIMER_CHCTL0_CH0MS);
ARM GAS  C:\Users\49542\AppData\Local\Temp\ccEBNRSE.s 			page 82


 2973              		.loc 1 1663 0
 2974 0080 A369     		ldr	r3, [r4, #24]
 2975 0082 23F00303 		bic	r3, r3, #3
 2976 0086 A361     		str	r3, [r4, #24]
1664:C:/Users/49542/Desktop/GD32F30x_Demo_Suites_V2.0.0/GD32F30x_Demo_Suites_V2.0.0/GD32F30x_Firmware_Library/GD32F30x_standard_peripheral/Source\gd32f30x_timer.c ****         /* set the CH0MS bit */
1665:C:/Users/49542/Desktop/GD32F30x_Demo_Suites_V2.0.0/GD32F30x_Demo_Suites_V2.0.0/GD32F30x_Firmware_Library/GD32F30x_standard_peripheral/Source\gd32f30x_timer.c ****         TIMER_CHCTL0(timer_periph) |= (uint32_t)icselection;
 2977              		.loc 1 1665 0
 2978 0088 A369     		ldr	r3, [r4, #24]
 2979 008a 3343     		orrs	r3, r3, r6
 2980 008c A361     		str	r3, [r4, #24]
1666:C:/Users/49542/Desktop/GD32F30x_Demo_Suites_V2.0.0/GD32F30x_Demo_Suites_V2.0.0/GD32F30x_Firmware_Library/GD32F30x_standard_peripheral/Source\gd32f30x_timer.c ****         /* reset the CH0CAPFLT bit */
1667:C:/Users/49542/Desktop/GD32F30x_Demo_Suites_V2.0.0/GD32F30x_Demo_Suites_V2.0.0/GD32F30x_Firmware_Library/GD32F30x_standard_peripheral/Source\gd32f30x_timer.c ****         TIMER_CHCTL0(timer_periph) &= (~(uint32_t)TIMER_CHCTL0_CH0CAPFLT);
 2981              		.loc 1 1667 0
 2982 008e A369     		ldr	r3, [r4, #24]
 2983 0090 23F0F003 		bic	r3, r3, #240
 2984 0094 A361     		str	r3, [r4, #24]
1668:C:/Users/49542/Desktop/GD32F30x_Demo_Suites_V2.0.0/GD32F30x_Demo_Suites_V2.0.0/GD32F30x_Firmware_Library/GD32F30x_standard_peripheral/Source\gd32f30x_timer.c ****         /* set the CH0CAPFLT bit */
1669:C:/Users/49542/Desktop/GD32F30x_Demo_Suites_V2.0.0/GD32F30x_Demo_Suites_V2.0.0/GD32F30x_Firmware_Library/GD32F30x_standard_peripheral/Source\gd32f30x_timer.c ****         TIMER_CHCTL0(timer_periph) |= ((uint32_t)(icpwm->icfilter) << 4U);
 2985              		.loc 1 1669 0
 2986 0096 A369     		ldr	r3, [r4, #24]
 2987 0098 EA88     		ldrh	r2, [r5, #6]
 2988 009a 43EA0213 		orr	r3, r3, r2, lsl #4
 2989 009e A361     		str	r3, [r4, #24]
1670:C:/Users/49542/Desktop/GD32F30x_Demo_Suites_V2.0.0/GD32F30x_Demo_Suites_V2.0.0/GD32F30x_Firmware_Library/GD32F30x_standard_peripheral/Source\gd32f30x_timer.c ****         /* set the CH0EN bit */
1671:C:/Users/49542/Desktop/GD32F30x_Demo_Suites_V2.0.0/GD32F30x_Demo_Suites_V2.0.0/GD32F30x_Firmware_Library/GD32F30x_standard_peripheral/Source\gd32f30x_timer.c ****         TIMER_CHCTL2(timer_periph) |= (uint32_t)TIMER_CHCTL2_CH0EN;
 2990              		.loc 1 1671 0
 2991 00a0 236A     		ldr	r3, [r4, #32]
 2992 00a2 43F00103 		orr	r3, r3, #1
 2993 00a6 2362     		str	r3, [r4, #32]
1672:C:/Users/49542/Desktop/GD32F30x_Demo_Suites_V2.0.0/GD32F30x_Demo_Suites_V2.0.0/GD32F30x_Firmware_Library/GD32F30x_standard_peripheral/Source\gd32f30x_timer.c ****         /* configure TIMER channel input capture prescaler value */
1673:C:/Users/49542/Desktop/GD32F30x_Demo_Suites_V2.0.0/GD32F30x_Demo_Suites_V2.0.0/GD32F30x_Firmware_Library/GD32F30x_standard_peripheral/Source\gd32f30x_timer.c ****         timer_channel_input_capture_prescaler_config(timer_periph, TIMER_CH_0, (uint16_t)(icpwm->ic
 2994              		.loc 1 1673 0
 2995 00a8 AA88     		ldrh	r2, [r5, #4]
 2996 00aa 0021     		movs	r1, #0
 2997 00ac 2046     		mov	r0, r4
 2998 00ae FFF7FEFF 		bl	timer_channel_input_capture_prescaler_config
 2999              	.LVL221:
 3000              	.L198:
1674:C:/Users/49542/Desktop/GD32F30x_Demo_Suites_V2.0.0/GD32F30x_Demo_Suites_V2.0.0/GD32F30x_Firmware_Library/GD32F30x_standard_peripheral/Source\gd32f30x_timer.c ****     }
1675:C:/Users/49542/Desktop/GD32F30x_Demo_Suites_V2.0.0/GD32F30x_Demo_Suites_V2.0.0/GD32F30x_Firmware_Library/GD32F30x_standard_peripheral/Source\gd32f30x_timer.c **** }
 3001              		.loc 1 1675 0
 3002 00b2 F8BD     		pop	{r3, r4, r5, r6, r7, pc}
 3003              	.LVL222:
 3004              	.L203:
1588:C:/Users/49542/Desktop/GD32F30x_Demo_Suites_V2.0.0/GD32F30x_Demo_Suites_V2.0.0/GD32F30x_Firmware_Library/GD32F30x_standard_peripheral/Source\gd32f30x_timer.c ****     }
 3005              		.loc 1 1588 0
 3006 00b4 0027     		movs	r7, #0
 3007 00b6 AAE7     		b	.L199
 3008              	.LVL223:
 3009              	.L206:
1593:C:/Users/49542/Desktop/GD32F30x_Demo_Suites_V2.0.0/GD32F30x_Demo_Suites_V2.0.0/GD32F30x_Firmware_Library/GD32F30x_standard_peripheral/Source\gd32f30x_timer.c ****     }else{
 3010              		.loc 1 1593 0
 3011 00b8 0226     		movs	r6, #2
 3012 00ba ACE7     		b	.L200
 3013              	.LVL224:
 3014              	.L207:
1600:C:/Users/49542/Desktop/GD32F30x_Demo_Suites_V2.0.0/GD32F30x_Demo_Suites_V2.0.0/GD32F30x_Firmware_Library/GD32F30x_standard_peripheral/Source\gd32f30x_timer.c ****         /* reset the CH0P and CH0NP bits */
ARM GAS  C:\Users\49542\AppData\Local\Temp\ccEBNRSE.s 			page 83


 3015              		.loc 1 1600 0
 3016 00bc 236A     		ldr	r3, [r4, #32]
 3017 00be 23F00103 		bic	r3, r3, #1
 3018 00c2 2362     		str	r3, [r4, #32]
1602:C:/Users/49542/Desktop/GD32F30x_Demo_Suites_V2.0.0/GD32F30x_Demo_Suites_V2.0.0/GD32F30x_Firmware_Library/GD32F30x_standard_peripheral/Source\gd32f30x_timer.c ****         /* set the CH0P and CH0NP bits */
 3019              		.loc 1 1602 0
 3020 00c4 236A     		ldr	r3, [r4, #32]
 3021 00c6 23F00A03 		bic	r3, r3, #10
 3022 00ca 2362     		str	r3, [r4, #32]
1604:C:/Users/49542/Desktop/GD32F30x_Demo_Suites_V2.0.0/GD32F30x_Demo_Suites_V2.0.0/GD32F30x_Firmware_Library/GD32F30x_standard_peripheral/Source\gd32f30x_timer.c ****         /* reset the CH0MS bit */
 3023              		.loc 1 1604 0
 3024 00cc 236A     		ldr	r3, [r4, #32]
 3025 00ce 2A88     		ldrh	r2, [r5]
 3026              	.LVL225:
 3027 00d0 1343     		orrs	r3, r3, r2
 3028 00d2 2362     		str	r3, [r4, #32]
1606:C:/Users/49542/Desktop/GD32F30x_Demo_Suites_V2.0.0/GD32F30x_Demo_Suites_V2.0.0/GD32F30x_Firmware_Library/GD32F30x_standard_peripheral/Source\gd32f30x_timer.c ****         /* set the CH0MS bit */
 3029              		.loc 1 1606 0
 3030 00d4 A369     		ldr	r3, [r4, #24]
 3031 00d6 23F00303 		bic	r3, r3, #3
 3032 00da A361     		str	r3, [r4, #24]
1608:C:/Users/49542/Desktop/GD32F30x_Demo_Suites_V2.0.0/GD32F30x_Demo_Suites_V2.0.0/GD32F30x_Firmware_Library/GD32F30x_standard_peripheral/Source\gd32f30x_timer.c ****         /* reset the CH0CAPFLT bit */
 3033              		.loc 1 1608 0
 3034 00dc A369     		ldr	r3, [r4, #24]
 3035 00de 6A88     		ldrh	r2, [r5, #2]
 3036 00e0 1343     		orrs	r3, r3, r2
 3037 00e2 A361     		str	r3, [r4, #24]
1610:C:/Users/49542/Desktop/GD32F30x_Demo_Suites_V2.0.0/GD32F30x_Demo_Suites_V2.0.0/GD32F30x_Firmware_Library/GD32F30x_standard_peripheral/Source\gd32f30x_timer.c ****         /* set the CH0CAPFLT bit */
 3038              		.loc 1 1610 0
 3039 00e4 A369     		ldr	r3, [r4, #24]
 3040 00e6 23F0F003 		bic	r3, r3, #240
 3041 00ea A361     		str	r3, [r4, #24]
1612:C:/Users/49542/Desktop/GD32F30x_Demo_Suites_V2.0.0/GD32F30x_Demo_Suites_V2.0.0/GD32F30x_Firmware_Library/GD32F30x_standard_peripheral/Source\gd32f30x_timer.c ****         /* set the CH0EN bit */
 3042              		.loc 1 1612 0
 3043 00ec A369     		ldr	r3, [r4, #24]
 3044 00ee EA88     		ldrh	r2, [r5, #6]
 3045 00f0 43EA0213 		orr	r3, r3, r2, lsl #4
 3046 00f4 A361     		str	r3, [r4, #24]
1614:C:/Users/49542/Desktop/GD32F30x_Demo_Suites_V2.0.0/GD32F30x_Demo_Suites_V2.0.0/GD32F30x_Firmware_Library/GD32F30x_standard_peripheral/Source\gd32f30x_timer.c ****         /* configure TIMER channel input capture prescaler value */
 3047              		.loc 1 1614 0
 3048 00f6 236A     		ldr	r3, [r4, #32]
 3049 00f8 43F00103 		orr	r3, r3, #1
 3050 00fc 2362     		str	r3, [r4, #32]
1616:C:/Users/49542/Desktop/GD32F30x_Demo_Suites_V2.0.0/GD32F30x_Demo_Suites_V2.0.0/GD32F30x_Firmware_Library/GD32F30x_standard_peripheral/Source\gd32f30x_timer.c **** 
 3051              		.loc 1 1616 0
 3052 00fe AA88     		ldrh	r2, [r5, #4]
 3053 0100 2046     		mov	r0, r4
 3054              	.LVL226:
 3055 0102 FFF7FEFF 		bl	timer_channel_input_capture_prescaler_config
 3056              	.LVL227:
1619:C:/Users/49542/Desktop/GD32F30x_Demo_Suites_V2.0.0/GD32F30x_Demo_Suites_V2.0.0/GD32F30x_Firmware_Library/GD32F30x_standard_peripheral/Source\gd32f30x_timer.c ****         /* reset the CH1P and CH1NP bits */
 3057              		.loc 1 1619 0
 3058 0106 236A     		ldr	r3, [r4, #32]
 3059 0108 23F01003 		bic	r3, r3, #16
 3060 010c 2362     		str	r3, [r4, #32]
1621:C:/Users/49542/Desktop/GD32F30x_Demo_Suites_V2.0.0/GD32F30x_Demo_Suites_V2.0.0/GD32F30x_Firmware_Library/GD32F30x_standard_peripheral/Source\gd32f30x_timer.c ****         /* set the CH1P and CH1NP bits */
 3061              		.loc 1 1621 0
ARM GAS  C:\Users\49542\AppData\Local\Temp\ccEBNRSE.s 			page 84


 3062 010e 236A     		ldr	r3, [r4, #32]
 3063 0110 23F0A003 		bic	r3, r3, #160
 3064 0114 2362     		str	r3, [r4, #32]
1623:C:/Users/49542/Desktop/GD32F30x_Demo_Suites_V2.0.0/GD32F30x_Demo_Suites_V2.0.0/GD32F30x_Firmware_Library/GD32F30x_standard_peripheral/Source\gd32f30x_timer.c ****         /* reset the CH1MS bit */
 3065              		.loc 1 1623 0
 3066 0116 236A     		ldr	r3, [r4, #32]
 3067 0118 43EA0713 		orr	r3, r3, r7, lsl #4
 3068 011c 2362     		str	r3, [r4, #32]
1625:C:/Users/49542/Desktop/GD32F30x_Demo_Suites_V2.0.0/GD32F30x_Demo_Suites_V2.0.0/GD32F30x_Firmware_Library/GD32F30x_standard_peripheral/Source\gd32f30x_timer.c ****         /* set the CH1MS bit */
 3069              		.loc 1 1625 0
 3070 011e A369     		ldr	r3, [r4, #24]
 3071 0120 23F44073 		bic	r3, r3, #768
 3072 0124 A361     		str	r3, [r4, #24]
1627:C:/Users/49542/Desktop/GD32F30x_Demo_Suites_V2.0.0/GD32F30x_Demo_Suites_V2.0.0/GD32F30x_Firmware_Library/GD32F30x_standard_peripheral/Source\gd32f30x_timer.c ****         /* reset the CH1CAPFLT bit */
 3073              		.loc 1 1627 0
 3074 0126 A369     		ldr	r3, [r4, #24]
 3075 0128 43EA0623 		orr	r3, r3, r6, lsl #8
 3076 012c A361     		str	r3, [r4, #24]
1629:C:/Users/49542/Desktop/GD32F30x_Demo_Suites_V2.0.0/GD32F30x_Demo_Suites_V2.0.0/GD32F30x_Firmware_Library/GD32F30x_standard_peripheral/Source\gd32f30x_timer.c ****         /* set the CH1CAPFLT bit */
 3077              		.loc 1 1629 0
 3078 012e A369     		ldr	r3, [r4, #24]
 3079 0130 23F47043 		bic	r3, r3, #61440
 3080 0134 A361     		str	r3, [r4, #24]
1631:C:/Users/49542/Desktop/GD32F30x_Demo_Suites_V2.0.0/GD32F30x_Demo_Suites_V2.0.0/GD32F30x_Firmware_Library/GD32F30x_standard_peripheral/Source\gd32f30x_timer.c ****         /* set the CH1EN bit */
 3081              		.loc 1 1631 0
 3082 0136 A369     		ldr	r3, [r4, #24]
 3083 0138 EA88     		ldrh	r2, [r5, #6]
 3084 013a 43EA0233 		orr	r3, r3, r2, lsl #12
 3085 013e A361     		str	r3, [r4, #24]
1633:C:/Users/49542/Desktop/GD32F30x_Demo_Suites_V2.0.0/GD32F30x_Demo_Suites_V2.0.0/GD32F30x_Firmware_Library/GD32F30x_standard_peripheral/Source\gd32f30x_timer.c ****         /* configure TIMER channel input capture prescaler value */
 3086              		.loc 1 1633 0
 3087 0140 236A     		ldr	r3, [r4, #32]
 3088 0142 43F01003 		orr	r3, r3, #16
 3089 0146 2362     		str	r3, [r4, #32]
1635:C:/Users/49542/Desktop/GD32F30x_Demo_Suites_V2.0.0/GD32F30x_Demo_Suites_V2.0.0/GD32F30x_Firmware_Library/GD32F30x_standard_peripheral/Source\gd32f30x_timer.c ****     }else{
 3090              		.loc 1 1635 0
 3091 0148 AA88     		ldrh	r2, [r5, #4]
 3092 014a 0121     		movs	r1, #1
 3093 014c 2046     		mov	r0, r4
 3094 014e FFF7FEFF 		bl	timer_channel_input_capture_prescaler_config
 3095              	.LVL228:
 3096 0152 AEE7     		b	.L198
 3097              		.cfi_endproc
 3098              	.LFE171:
 3100              		.section	.text.timer_hall_mode_config,"ax",%progbits
 3101              		.align	1
 3102              		.global	timer_hall_mode_config
 3103              		.syntax unified
 3104              		.thumb
 3105              		.thumb_func
 3106              		.fpu fpv4-sp-d16
 3108              	timer_hall_mode_config:
 3109              	.LFB172:
1676:C:/Users/49542/Desktop/GD32F30x_Demo_Suites_V2.0.0/GD32F30x_Demo_Suites_V2.0.0/GD32F30x_Firmware_Library/GD32F30x_standard_peripheral/Source\gd32f30x_timer.c **** 
1677:C:/Users/49542/Desktop/GD32F30x_Demo_Suites_V2.0.0/GD32F30x_Demo_Suites_V2.0.0/GD32F30x_Firmware_Library/GD32F30x_standard_peripheral/Source\gd32f30x_timer.c **** /*!
1678:C:/Users/49542/Desktop/GD32F30x_Demo_Suites_V2.0.0/GD32F30x_Demo_Suites_V2.0.0/GD32F30x_Firmware_Library/GD32F30x_standard_peripheral/Source\gd32f30x_timer.c ****     \brief      configure TIMER hall sensor mode
1679:C:/Users/49542/Desktop/GD32F30x_Demo_Suites_V2.0.0/GD32F30x_Demo_Suites_V2.0.0/GD32F30x_Firmware_Library/GD32F30x_standard_peripheral/Source\gd32f30x_timer.c ****     \param[in]  timer_periph: TIMERx(x=0..4,7)
ARM GAS  C:\Users\49542\AppData\Local\Temp\ccEBNRSE.s 			page 85


1680:C:/Users/49542/Desktop/GD32F30x_Demo_Suites_V2.0.0/GD32F30x_Demo_Suites_V2.0.0/GD32F30x_Firmware_Library/GD32F30x_standard_peripheral/Source\gd32f30x_timer.c ****     \param[in]  hallmode: 
1681:C:/Users/49542/Desktop/GD32F30x_Demo_Suites_V2.0.0/GD32F30x_Demo_Suites_V2.0.0/GD32F30x_Firmware_Library/GD32F30x_standard_peripheral/Source\gd32f30x_timer.c ****                 only one parameter can be selected which is shown as below:
1682:C:/Users/49542/Desktop/GD32F30x_Demo_Suites_V2.0.0/GD32F30x_Demo_Suites_V2.0.0/GD32F30x_Firmware_Library/GD32F30x_standard_peripheral/Source\gd32f30x_timer.c ****       \arg        TIMER_HALLINTERFACE_ENABLE: TIMER hall sensor mode enable
1683:C:/Users/49542/Desktop/GD32F30x_Demo_Suites_V2.0.0/GD32F30x_Demo_Suites_V2.0.0/GD32F30x_Firmware_Library/GD32F30x_standard_peripheral/Source\gd32f30x_timer.c ****       \arg        TIMER_HALLINTERFACE_DISABLE: TIMER hall sensor mode disable
1684:C:/Users/49542/Desktop/GD32F30x_Demo_Suites_V2.0.0/GD32F30x_Demo_Suites_V2.0.0/GD32F30x_Firmware_Library/GD32F30x_standard_peripheral/Source\gd32f30x_timer.c ****     \param[out] none
1685:C:/Users/49542/Desktop/GD32F30x_Demo_Suites_V2.0.0/GD32F30x_Demo_Suites_V2.0.0/GD32F30x_Firmware_Library/GD32F30x_standard_peripheral/Source\gd32f30x_timer.c ****     \retval     none
1686:C:/Users/49542/Desktop/GD32F30x_Demo_Suites_V2.0.0/GD32F30x_Demo_Suites_V2.0.0/GD32F30x_Firmware_Library/GD32F30x_standard_peripheral/Source\gd32f30x_timer.c **** */
1687:C:/Users/49542/Desktop/GD32F30x_Demo_Suites_V2.0.0/GD32F30x_Demo_Suites_V2.0.0/GD32F30x_Firmware_Library/GD32F30x_standard_peripheral/Source\gd32f30x_timer.c **** void timer_hall_mode_config(uint32_t timer_periph, uint32_t hallmode)
1688:C:/Users/49542/Desktop/GD32F30x_Demo_Suites_V2.0.0/GD32F30x_Demo_Suites_V2.0.0/GD32F30x_Firmware_Library/GD32F30x_standard_peripheral/Source\gd32f30x_timer.c **** {
 3110              		.loc 1 1688 0
 3111              		.cfi_startproc
 3112              		@ args = 0, pretend = 0, frame = 0
 3113              		@ frame_needed = 0, uses_anonymous_args = 0
 3114              		@ link register save eliminated.
 3115              	.LVL229:
1689:C:/Users/49542/Desktop/GD32F30x_Demo_Suites_V2.0.0/GD32F30x_Demo_Suites_V2.0.0/GD32F30x_Firmware_Library/GD32F30x_standard_peripheral/Source\gd32f30x_timer.c ****     if(TIMER_HALLINTERFACE_ENABLE == hallmode){
 3116              		.loc 1 1689 0
 3117 0000 11B1     		cbz	r1, .L211
1690:C:/Users/49542/Desktop/GD32F30x_Demo_Suites_V2.0.0/GD32F30x_Demo_Suites_V2.0.0/GD32F30x_Firmware_Library/GD32F30x_standard_peripheral/Source\gd32f30x_timer.c ****         TIMER_CTL1(timer_periph) |= (uint32_t)TIMER_CTL1_TI0S;
1691:C:/Users/49542/Desktop/GD32F30x_Demo_Suites_V2.0.0/GD32F30x_Demo_Suites_V2.0.0/GD32F30x_Firmware_Library/GD32F30x_standard_peripheral/Source\gd32f30x_timer.c ****     }else if(TIMER_HALLINTERFACE_DISABLE == hallmode){
 3118              		.loc 1 1691 0
 3119 0002 0129     		cmp	r1, #1
 3120 0004 05D0     		beq	.L212
 3121              	.L208:
1692:C:/Users/49542/Desktop/GD32F30x_Demo_Suites_V2.0.0/GD32F30x_Demo_Suites_V2.0.0/GD32F30x_Firmware_Library/GD32F30x_standard_peripheral/Source\gd32f30x_timer.c ****         TIMER_CTL1(timer_periph) &= ~(uint32_t)TIMER_CTL1_TI0S;
1693:C:/Users/49542/Desktop/GD32F30x_Demo_Suites_V2.0.0/GD32F30x_Demo_Suites_V2.0.0/GD32F30x_Firmware_Library/GD32F30x_standard_peripheral/Source\gd32f30x_timer.c ****     }else{
1694:C:/Users/49542/Desktop/GD32F30x_Demo_Suites_V2.0.0/GD32F30x_Demo_Suites_V2.0.0/GD32F30x_Firmware_Library/GD32F30x_standard_peripheral/Source\gd32f30x_timer.c ****         /* illegal parameters */
1695:C:/Users/49542/Desktop/GD32F30x_Demo_Suites_V2.0.0/GD32F30x_Demo_Suites_V2.0.0/GD32F30x_Firmware_Library/GD32F30x_standard_peripheral/Source\gd32f30x_timer.c ****     }
1696:C:/Users/49542/Desktop/GD32F30x_Demo_Suites_V2.0.0/GD32F30x_Demo_Suites_V2.0.0/GD32F30x_Firmware_Library/GD32F30x_standard_peripheral/Source\gd32f30x_timer.c **** }
 3122              		.loc 1 1696 0
 3123 0006 7047     		bx	lr
 3124              	.L211:
1690:C:/Users/49542/Desktop/GD32F30x_Demo_Suites_V2.0.0/GD32F30x_Demo_Suites_V2.0.0/GD32F30x_Firmware_Library/GD32F30x_standard_peripheral/Source\gd32f30x_timer.c ****         TIMER_CTL1(timer_periph) |= (uint32_t)TIMER_CTL1_TI0S;
 3125              		.loc 1 1690 0
 3126 0008 4368     		ldr	r3, [r0, #4]
 3127 000a 43F08003 		orr	r3, r3, #128
 3128 000e 4360     		str	r3, [r0, #4]
 3129 0010 7047     		bx	lr
 3130              	.L212:
1692:C:/Users/49542/Desktop/GD32F30x_Demo_Suites_V2.0.0/GD32F30x_Demo_Suites_V2.0.0/GD32F30x_Firmware_Library/GD32F30x_standard_peripheral/Source\gd32f30x_timer.c ****         TIMER_CTL1(timer_periph) &= ~(uint32_t)TIMER_CTL1_TI0S;
 3131              		.loc 1 1692 0
 3132 0012 4368     		ldr	r3, [r0, #4]
 3133 0014 23F08003 		bic	r3, r3, #128
 3134 0018 4360     		str	r3, [r0, #4]
 3135              		.loc 1 1696 0
 3136 001a F4E7     		b	.L208
 3137              		.cfi_endproc
 3138              	.LFE172:
 3140              		.section	.text.timer_input_trigger_source_select,"ax",%progbits
 3141              		.align	1
 3142              		.global	timer_input_trigger_source_select
 3143              		.syntax unified
 3144              		.thumb
 3145              		.thumb_func
 3146              		.fpu fpv4-sp-d16
 3148              	timer_input_trigger_source_select:
 3149              	.LFB173:
ARM GAS  C:\Users\49542\AppData\Local\Temp\ccEBNRSE.s 			page 86


1697:C:/Users/49542/Desktop/GD32F30x_Demo_Suites_V2.0.0/GD32F30x_Demo_Suites_V2.0.0/GD32F30x_Firmware_Library/GD32F30x_standard_peripheral/Source\gd32f30x_timer.c **** 
1698:C:/Users/49542/Desktop/GD32F30x_Demo_Suites_V2.0.0/GD32F30x_Demo_Suites_V2.0.0/GD32F30x_Firmware_Library/GD32F30x_standard_peripheral/Source\gd32f30x_timer.c **** /*!
1699:C:/Users/49542/Desktop/GD32F30x_Demo_Suites_V2.0.0/GD32F30x_Demo_Suites_V2.0.0/GD32F30x_Firmware_Library/GD32F30x_standard_peripheral/Source\gd32f30x_timer.c ****     \brief      select TIMER input trigger source 
1700:C:/Users/49542/Desktop/GD32F30x_Demo_Suites_V2.0.0/GD32F30x_Demo_Suites_V2.0.0/GD32F30x_Firmware_Library/GD32F30x_standard_peripheral/Source\gd32f30x_timer.c ****     \param[in]  timer_periph: TIMERx(x=0..4,7,8,11)
1701:C:/Users/49542/Desktop/GD32F30x_Demo_Suites_V2.0.0/GD32F30x_Demo_Suites_V2.0.0/GD32F30x_Firmware_Library/GD32F30x_standard_peripheral/Source\gd32f30x_timer.c ****     \param[in]  intrigger:
1702:C:/Users/49542/Desktop/GD32F30x_Demo_Suites_V2.0.0/GD32F30x_Demo_Suites_V2.0.0/GD32F30x_Firmware_Library/GD32F30x_standard_peripheral/Source\gd32f30x_timer.c ****                 only one parameter can be selected which is shown as below:
1703:C:/Users/49542/Desktop/GD32F30x_Demo_Suites_V2.0.0/GD32F30x_Demo_Suites_V2.0.0/GD32F30x_Firmware_Library/GD32F30x_standard_peripheral/Source\gd32f30x_timer.c ****       \arg        TIMER_SMCFG_TRGSEL_ITI0: internal trigger 0
1704:C:/Users/49542/Desktop/GD32F30x_Demo_Suites_V2.0.0/GD32F30x_Demo_Suites_V2.0.0/GD32F30x_Firmware_Library/GD32F30x_standard_peripheral/Source\gd32f30x_timer.c ****       \arg        TIMER_SMCFG_TRGSEL_ITI1: internal trigger 1
1705:C:/Users/49542/Desktop/GD32F30x_Demo_Suites_V2.0.0/GD32F30x_Demo_Suites_V2.0.0/GD32F30x_Firmware_Library/GD32F30x_standard_peripheral/Source\gd32f30x_timer.c ****       \arg        TIMER_SMCFG_TRGSEL_ITI2: internal trigger 2
1706:C:/Users/49542/Desktop/GD32F30x_Demo_Suites_V2.0.0/GD32F30x_Demo_Suites_V2.0.0/GD32F30x_Firmware_Library/GD32F30x_standard_peripheral/Source\gd32f30x_timer.c ****       \arg        TIMER_SMCFG_TRGSEL_ITI3: internal trigger 3
1707:C:/Users/49542/Desktop/GD32F30x_Demo_Suites_V2.0.0/GD32F30x_Demo_Suites_V2.0.0/GD32F30x_Firmware_Library/GD32F30x_standard_peripheral/Source\gd32f30x_timer.c ****       \arg        TIMER_SMCFG_TRGSEL_CI0F_ED: TI0 edge detector
1708:C:/Users/49542/Desktop/GD32F30x_Demo_Suites_V2.0.0/GD32F30x_Demo_Suites_V2.0.0/GD32F30x_Firmware_Library/GD32F30x_standard_peripheral/Source\gd32f30x_timer.c ****       \arg        TIMER_SMCFG_TRGSEL_CI0FE0: filtered TIMER input 0
1709:C:/Users/49542/Desktop/GD32F30x_Demo_Suites_V2.0.0/GD32F30x_Demo_Suites_V2.0.0/GD32F30x_Firmware_Library/GD32F30x_standard_peripheral/Source\gd32f30x_timer.c ****       \arg        TIMER_SMCFG_TRGSEL_CI1FE1: filtered TIMER input 1
1710:C:/Users/49542/Desktop/GD32F30x_Demo_Suites_V2.0.0/GD32F30x_Demo_Suites_V2.0.0/GD32F30x_Firmware_Library/GD32F30x_standard_peripheral/Source\gd32f30x_timer.c ****       \arg        TIMER_SMCFG_TRGSEL_ETIFP: external trigger(x=0..4,7)
1711:C:/Users/49542/Desktop/GD32F30x_Demo_Suites_V2.0.0/GD32F30x_Demo_Suites_V2.0.0/GD32F30x_Firmware_Library/GD32F30x_standard_peripheral/Source\gd32f30x_timer.c ****     \param[out] none
1712:C:/Users/49542/Desktop/GD32F30x_Demo_Suites_V2.0.0/GD32F30x_Demo_Suites_V2.0.0/GD32F30x_Firmware_Library/GD32F30x_standard_peripheral/Source\gd32f30x_timer.c ****     \retval     none
1713:C:/Users/49542/Desktop/GD32F30x_Demo_Suites_V2.0.0/GD32F30x_Demo_Suites_V2.0.0/GD32F30x_Firmware_Library/GD32F30x_standard_peripheral/Source\gd32f30x_timer.c **** */
1714:C:/Users/49542/Desktop/GD32F30x_Demo_Suites_V2.0.0/GD32F30x_Demo_Suites_V2.0.0/GD32F30x_Firmware_Library/GD32F30x_standard_peripheral/Source\gd32f30x_timer.c **** void timer_input_trigger_source_select(uint32_t timer_periph, uint32_t intrigger)
1715:C:/Users/49542/Desktop/GD32F30x_Demo_Suites_V2.0.0/GD32F30x_Demo_Suites_V2.0.0/GD32F30x_Firmware_Library/GD32F30x_standard_peripheral/Source\gd32f30x_timer.c **** {
 3150              		.loc 1 1715 0
 3151              		.cfi_startproc
 3152              		@ args = 0, pretend = 0, frame = 0
 3153              		@ frame_needed = 0, uses_anonymous_args = 0
 3154              		@ link register save eliminated.
 3155              	.LVL230:
1716:C:/Users/49542/Desktop/GD32F30x_Demo_Suites_V2.0.0/GD32F30x_Demo_Suites_V2.0.0/GD32F30x_Firmware_Library/GD32F30x_standard_peripheral/Source\gd32f30x_timer.c ****     TIMER_SMCFG(timer_periph) &= (~(uint32_t)TIMER_SMCFG_TRGS);
 3156              		.loc 1 1716 0
 3157 0000 8368     		ldr	r3, [r0, #8]
 3158 0002 23F07003 		bic	r3, r3, #112
 3159 0006 8360     		str	r3, [r0, #8]
1717:C:/Users/49542/Desktop/GD32F30x_Demo_Suites_V2.0.0/GD32F30x_Demo_Suites_V2.0.0/GD32F30x_Firmware_Library/GD32F30x_standard_peripheral/Source\gd32f30x_timer.c ****     TIMER_SMCFG(timer_periph) |= (uint32_t)intrigger;
 3160              		.loc 1 1717 0
 3161 0008 8368     		ldr	r3, [r0, #8]
 3162 000a 1943     		orrs	r1, r1, r3
 3163              	.LVL231:
 3164 000c 8160     		str	r1, [r0, #8]
1718:C:/Users/49542/Desktop/GD32F30x_Demo_Suites_V2.0.0/GD32F30x_Demo_Suites_V2.0.0/GD32F30x_Firmware_Library/GD32F30x_standard_peripheral/Source\gd32f30x_timer.c **** }
 3165              		.loc 1 1718 0
 3166 000e 7047     		bx	lr
 3167              		.cfi_endproc
 3168              	.LFE173:
 3170              		.section	.text.timer_master_output_trigger_source_select,"ax",%progbits
 3171              		.align	1
 3172              		.global	timer_master_output_trigger_source_select
 3173              		.syntax unified
 3174              		.thumb
 3175              		.thumb_func
 3176              		.fpu fpv4-sp-d16
 3178              	timer_master_output_trigger_source_select:
 3179              	.LFB174:
1719:C:/Users/49542/Desktop/GD32F30x_Demo_Suites_V2.0.0/GD32F30x_Demo_Suites_V2.0.0/GD32F30x_Firmware_Library/GD32F30x_standard_peripheral/Source\gd32f30x_timer.c **** 
1720:C:/Users/49542/Desktop/GD32F30x_Demo_Suites_V2.0.0/GD32F30x_Demo_Suites_V2.0.0/GD32F30x_Firmware_Library/GD32F30x_standard_peripheral/Source\gd32f30x_timer.c **** /*!
1721:C:/Users/49542/Desktop/GD32F30x_Demo_Suites_V2.0.0/GD32F30x_Demo_Suites_V2.0.0/GD32F30x_Firmware_Library/GD32F30x_standard_peripheral/Source\gd32f30x_timer.c ****     \brief      select TIMER master mode output trigger source 
1722:C:/Users/49542/Desktop/GD32F30x_Demo_Suites_V2.0.0/GD32F30x_Demo_Suites_V2.0.0/GD32F30x_Firmware_Library/GD32F30x_standard_peripheral/Source\gd32f30x_timer.c ****     \param[in]  timer_periph: TIMERx(x=0..7)
1723:C:/Users/49542/Desktop/GD32F30x_Demo_Suites_V2.0.0/GD32F30x_Demo_Suites_V2.0.0/GD32F30x_Firmware_Library/GD32F30x_standard_peripheral/Source\gd32f30x_timer.c ****     \param[in]  outrigger: 
1724:C:/Users/49542/Desktop/GD32F30x_Demo_Suites_V2.0.0/GD32F30x_Demo_Suites_V2.0.0/GD32F30x_Firmware_Library/GD32F30x_standard_peripheral/Source\gd32f30x_timer.c ****                 only one parameter can be selected which is shown as below:
1725:C:/Users/49542/Desktop/GD32F30x_Demo_Suites_V2.0.0/GD32F30x_Demo_Suites_V2.0.0/GD32F30x_Firmware_Library/GD32F30x_standard_peripheral/Source\gd32f30x_timer.c ****       \arg        TIMER_TRI_OUT_SRC_RESET: the UPG bit as trigger output
ARM GAS  C:\Users\49542\AppData\Local\Temp\ccEBNRSE.s 			page 87


1726:C:/Users/49542/Desktop/GD32F30x_Demo_Suites_V2.0.0/GD32F30x_Demo_Suites_V2.0.0/GD32F30x_Firmware_Library/GD32F30x_standard_peripheral/Source\gd32f30x_timer.c ****       \arg        TIMER_TRI_OUT_SRC_ENABLE: the counter enable signal TIMER_CTL0_CEN as trigger out
1727:C:/Users/49542/Desktop/GD32F30x_Demo_Suites_V2.0.0/GD32F30x_Demo_Suites_V2.0.0/GD32F30x_Firmware_Library/GD32F30x_standard_peripheral/Source\gd32f30x_timer.c ****       \arg        TIMER_TRI_OUT_SRC_UPDATE: update event as trigger output
1728:C:/Users/49542/Desktop/GD32F30x_Demo_Suites_V2.0.0/GD32F30x_Demo_Suites_V2.0.0/GD32F30x_Firmware_Library/GD32F30x_standard_peripheral/Source\gd32f30x_timer.c ****       \arg        TIMER_TRI_OUT_SRC_CH0: a capture or a compare match occurred in channal0 as trigg
1729:C:/Users/49542/Desktop/GD32F30x_Demo_Suites_V2.0.0/GD32F30x_Demo_Suites_V2.0.0/GD32F30x_Firmware_Library/GD32F30x_standard_peripheral/Source\gd32f30x_timer.c ****       \arg        TIMER_TRI_OUT_SRC_O0CPRE: O0CPRE as trigger output
1730:C:/Users/49542/Desktop/GD32F30x_Demo_Suites_V2.0.0/GD32F30x_Demo_Suites_V2.0.0/GD32F30x_Firmware_Library/GD32F30x_standard_peripheral/Source\gd32f30x_timer.c ****       \arg        TIMER_TRI_OUT_SRC_O1CPRE: O1CPRE as trigger output
1731:C:/Users/49542/Desktop/GD32F30x_Demo_Suites_V2.0.0/GD32F30x_Demo_Suites_V2.0.0/GD32F30x_Firmware_Library/GD32F30x_standard_peripheral/Source\gd32f30x_timer.c ****       \arg        TIMER_TRI_OUT_SRC_O2CPRE: O2CPRE as trigger output
1732:C:/Users/49542/Desktop/GD32F30x_Demo_Suites_V2.0.0/GD32F30x_Demo_Suites_V2.0.0/GD32F30x_Firmware_Library/GD32F30x_standard_peripheral/Source\gd32f30x_timer.c ****       \arg        TIMER_TRI_OUT_SRC_O3CPRE: O3CPRE as trigger output
1733:C:/Users/49542/Desktop/GD32F30x_Demo_Suites_V2.0.0/GD32F30x_Demo_Suites_V2.0.0/GD32F30x_Firmware_Library/GD32F30x_standard_peripheral/Source\gd32f30x_timer.c ****     \param[out] none
1734:C:/Users/49542/Desktop/GD32F30x_Demo_Suites_V2.0.0/GD32F30x_Demo_Suites_V2.0.0/GD32F30x_Firmware_Library/GD32F30x_standard_peripheral/Source\gd32f30x_timer.c ****     \retval     none
1735:C:/Users/49542/Desktop/GD32F30x_Demo_Suites_V2.0.0/GD32F30x_Demo_Suites_V2.0.0/GD32F30x_Firmware_Library/GD32F30x_standard_peripheral/Source\gd32f30x_timer.c **** */
1736:C:/Users/49542/Desktop/GD32F30x_Demo_Suites_V2.0.0/GD32F30x_Demo_Suites_V2.0.0/GD32F30x_Firmware_Library/GD32F30x_standard_peripheral/Source\gd32f30x_timer.c **** void timer_master_output_trigger_source_select(uint32_t timer_periph, uint32_t outrigger)
1737:C:/Users/49542/Desktop/GD32F30x_Demo_Suites_V2.0.0/GD32F30x_Demo_Suites_V2.0.0/GD32F30x_Firmware_Library/GD32F30x_standard_peripheral/Source\gd32f30x_timer.c **** {
 3180              		.loc 1 1737 0
 3181              		.cfi_startproc
 3182              		@ args = 0, pretend = 0, frame = 0
 3183              		@ frame_needed = 0, uses_anonymous_args = 0
 3184              		@ link register save eliminated.
 3185              	.LVL232:
1738:C:/Users/49542/Desktop/GD32F30x_Demo_Suites_V2.0.0/GD32F30x_Demo_Suites_V2.0.0/GD32F30x_Firmware_Library/GD32F30x_standard_peripheral/Source\gd32f30x_timer.c ****     TIMER_CTL1(timer_periph) &= (~(uint32_t)TIMER_CTL1_MMC);
 3186              		.loc 1 1738 0
 3187 0000 4368     		ldr	r3, [r0, #4]
 3188 0002 23F07003 		bic	r3, r3, #112
 3189 0006 4360     		str	r3, [r0, #4]
1739:C:/Users/49542/Desktop/GD32F30x_Demo_Suites_V2.0.0/GD32F30x_Demo_Suites_V2.0.0/GD32F30x_Firmware_Library/GD32F30x_standard_peripheral/Source\gd32f30x_timer.c ****     TIMER_CTL1(timer_periph) |= (uint32_t)outrigger;
 3190              		.loc 1 1739 0
 3191 0008 4368     		ldr	r3, [r0, #4]
 3192 000a 1943     		orrs	r1, r1, r3
 3193              	.LVL233:
 3194 000c 4160     		str	r1, [r0, #4]
1740:C:/Users/49542/Desktop/GD32F30x_Demo_Suites_V2.0.0/GD32F30x_Demo_Suites_V2.0.0/GD32F30x_Firmware_Library/GD32F30x_standard_peripheral/Source\gd32f30x_timer.c **** }
 3195              		.loc 1 1740 0
 3196 000e 7047     		bx	lr
 3197              		.cfi_endproc
 3198              	.LFE174:
 3200              		.section	.text.timer_slave_mode_select,"ax",%progbits
 3201              		.align	1
 3202              		.global	timer_slave_mode_select
 3203              		.syntax unified
 3204              		.thumb
 3205              		.thumb_func
 3206              		.fpu fpv4-sp-d16
 3208              	timer_slave_mode_select:
 3209              	.LFB175:
1741:C:/Users/49542/Desktop/GD32F30x_Demo_Suites_V2.0.0/GD32F30x_Demo_Suites_V2.0.0/GD32F30x_Firmware_Library/GD32F30x_standard_peripheral/Source\gd32f30x_timer.c **** 
1742:C:/Users/49542/Desktop/GD32F30x_Demo_Suites_V2.0.0/GD32F30x_Demo_Suites_V2.0.0/GD32F30x_Firmware_Library/GD32F30x_standard_peripheral/Source\gd32f30x_timer.c **** /*!
1743:C:/Users/49542/Desktop/GD32F30x_Demo_Suites_V2.0.0/GD32F30x_Demo_Suites_V2.0.0/GD32F30x_Firmware_Library/GD32F30x_standard_peripheral/Source\gd32f30x_timer.c ****     \brief      select TIMER slave mode 
1744:C:/Users/49542/Desktop/GD32F30x_Demo_Suites_V2.0.0/GD32F30x_Demo_Suites_V2.0.0/GD32F30x_Firmware_Library/GD32F30x_standard_peripheral/Source\gd32f30x_timer.c ****     \param[in]  timer_periph: TIMERx(x=0..4,7,8,11)
1745:C:/Users/49542/Desktop/GD32F30x_Demo_Suites_V2.0.0/GD32F30x_Demo_Suites_V2.0.0/GD32F30x_Firmware_Library/GD32F30x_standard_peripheral/Source\gd32f30x_timer.c ****     \param[in]  slavemode:
1746:C:/Users/49542/Desktop/GD32F30x_Demo_Suites_V2.0.0/GD32F30x_Demo_Suites_V2.0.0/GD32F30x_Firmware_Library/GD32F30x_standard_peripheral/Source\gd32f30x_timer.c ****                 only one parameter can be selected which is shown as below:
1747:C:/Users/49542/Desktop/GD32F30x_Demo_Suites_V2.0.0/GD32F30x_Demo_Suites_V2.0.0/GD32F30x_Firmware_Library/GD32F30x_standard_peripheral/Source\gd32f30x_timer.c ****       \arg        TIMER_SLAVE_MODE_DISABLE: slave mode disable
1748:C:/Users/49542/Desktop/GD32F30x_Demo_Suites_V2.0.0/GD32F30x_Demo_Suites_V2.0.0/GD32F30x_Firmware_Library/GD32F30x_standard_peripheral/Source\gd32f30x_timer.c ****       \arg        TIMER_ENCODER_MODE0: encoder mode 0
1749:C:/Users/49542/Desktop/GD32F30x_Demo_Suites_V2.0.0/GD32F30x_Demo_Suites_V2.0.0/GD32F30x_Firmware_Library/GD32F30x_standard_peripheral/Source\gd32f30x_timer.c ****       \arg        TIMER_ENCODER_MODE1: encoder mode 1
1750:C:/Users/49542/Desktop/GD32F30x_Demo_Suites_V2.0.0/GD32F30x_Demo_Suites_V2.0.0/GD32F30x_Firmware_Library/GD32F30x_standard_peripheral/Source\gd32f30x_timer.c ****       \arg        TIMER_ENCODER_MODE2: encoder mode 2
1751:C:/Users/49542/Desktop/GD32F30x_Demo_Suites_V2.0.0/GD32F30x_Demo_Suites_V2.0.0/GD32F30x_Firmware_Library/GD32F30x_standard_peripheral/Source\gd32f30x_timer.c ****       \arg        TIMER_SLAVE_MODE_RESTART: restart mode
1752:C:/Users/49542/Desktop/GD32F30x_Demo_Suites_V2.0.0/GD32F30x_Demo_Suites_V2.0.0/GD32F30x_Firmware_Library/GD32F30x_standard_peripheral/Source\gd32f30x_timer.c ****       \arg        TIMER_SLAVE_MODE_PAUSE: pause mode
1753:C:/Users/49542/Desktop/GD32F30x_Demo_Suites_V2.0.0/GD32F30x_Demo_Suites_V2.0.0/GD32F30x_Firmware_Library/GD32F30x_standard_peripheral/Source\gd32f30x_timer.c ****       \arg        TIMER_SLAVE_MODE_EVENT: event mode
1754:C:/Users/49542/Desktop/GD32F30x_Demo_Suites_V2.0.0/GD32F30x_Demo_Suites_V2.0.0/GD32F30x_Firmware_Library/GD32F30x_standard_peripheral/Source\gd32f30x_timer.c ****       \arg        TIMER_SLAVE_MODE_EXTERNAL0: external clock mode 0.
ARM GAS  C:\Users\49542\AppData\Local\Temp\ccEBNRSE.s 			page 88


1755:C:/Users/49542/Desktop/GD32F30x_Demo_Suites_V2.0.0/GD32F30x_Demo_Suites_V2.0.0/GD32F30x_Firmware_Library/GD32F30x_standard_peripheral/Source\gd32f30x_timer.c ****     \param[out] none
1756:C:/Users/49542/Desktop/GD32F30x_Demo_Suites_V2.0.0/GD32F30x_Demo_Suites_V2.0.0/GD32F30x_Firmware_Library/GD32F30x_standard_peripheral/Source\gd32f30x_timer.c ****     \retval     none
1757:C:/Users/49542/Desktop/GD32F30x_Demo_Suites_V2.0.0/GD32F30x_Demo_Suites_V2.0.0/GD32F30x_Firmware_Library/GD32F30x_standard_peripheral/Source\gd32f30x_timer.c **** */
1758:C:/Users/49542/Desktop/GD32F30x_Demo_Suites_V2.0.0/GD32F30x_Demo_Suites_V2.0.0/GD32F30x_Firmware_Library/GD32F30x_standard_peripheral/Source\gd32f30x_timer.c **** 
1759:C:/Users/49542/Desktop/GD32F30x_Demo_Suites_V2.0.0/GD32F30x_Demo_Suites_V2.0.0/GD32F30x_Firmware_Library/GD32F30x_standard_peripheral/Source\gd32f30x_timer.c **** void timer_slave_mode_select(uint32_t timer_periph, uint32_t slavemode)
1760:C:/Users/49542/Desktop/GD32F30x_Demo_Suites_V2.0.0/GD32F30x_Demo_Suites_V2.0.0/GD32F30x_Firmware_Library/GD32F30x_standard_peripheral/Source\gd32f30x_timer.c **** {
 3210              		.loc 1 1760 0
 3211              		.cfi_startproc
 3212              		@ args = 0, pretend = 0, frame = 0
 3213              		@ frame_needed = 0, uses_anonymous_args = 0
 3214              		@ link register save eliminated.
 3215              	.LVL234:
1761:C:/Users/49542/Desktop/GD32F30x_Demo_Suites_V2.0.0/GD32F30x_Demo_Suites_V2.0.0/GD32F30x_Firmware_Library/GD32F30x_standard_peripheral/Source\gd32f30x_timer.c ****     TIMER_SMCFG(timer_periph) &= (~(uint32_t)TIMER_SMCFG_SMC);
 3216              		.loc 1 1761 0
 3217 0000 8368     		ldr	r3, [r0, #8]
 3218 0002 23F00703 		bic	r3, r3, #7
 3219 0006 8360     		str	r3, [r0, #8]
1762:C:/Users/49542/Desktop/GD32F30x_Demo_Suites_V2.0.0/GD32F30x_Demo_Suites_V2.0.0/GD32F30x_Firmware_Library/GD32F30x_standard_peripheral/Source\gd32f30x_timer.c **** 
1763:C:/Users/49542/Desktop/GD32F30x_Demo_Suites_V2.0.0/GD32F30x_Demo_Suites_V2.0.0/GD32F30x_Firmware_Library/GD32F30x_standard_peripheral/Source\gd32f30x_timer.c ****     TIMER_SMCFG(timer_periph) |= (uint32_t)slavemode;
 3220              		.loc 1 1763 0
 3221 0008 8368     		ldr	r3, [r0, #8]
 3222 000a 1943     		orrs	r1, r1, r3
 3223              	.LVL235:
 3224 000c 8160     		str	r1, [r0, #8]
1764:C:/Users/49542/Desktop/GD32F30x_Demo_Suites_V2.0.0/GD32F30x_Demo_Suites_V2.0.0/GD32F30x_Firmware_Library/GD32F30x_standard_peripheral/Source\gd32f30x_timer.c **** }
 3225              		.loc 1 1764 0
 3226 000e 7047     		bx	lr
 3227              		.cfi_endproc
 3228              	.LFE175:
 3230              		.section	.text.timer_master_slave_mode_config,"ax",%progbits
 3231              		.align	1
 3232              		.global	timer_master_slave_mode_config
 3233              		.syntax unified
 3234              		.thumb
 3235              		.thumb_func
 3236              		.fpu fpv4-sp-d16
 3238              	timer_master_slave_mode_config:
 3239              	.LFB176:
1765:C:/Users/49542/Desktop/GD32F30x_Demo_Suites_V2.0.0/GD32F30x_Demo_Suites_V2.0.0/GD32F30x_Firmware_Library/GD32F30x_standard_peripheral/Source\gd32f30x_timer.c **** 
1766:C:/Users/49542/Desktop/GD32F30x_Demo_Suites_V2.0.0/GD32F30x_Demo_Suites_V2.0.0/GD32F30x_Firmware_Library/GD32F30x_standard_peripheral/Source\gd32f30x_timer.c **** /*!
1767:C:/Users/49542/Desktop/GD32F30x_Demo_Suites_V2.0.0/GD32F30x_Demo_Suites_V2.0.0/GD32F30x_Firmware_Library/GD32F30x_standard_peripheral/Source\gd32f30x_timer.c ****     \brief      configure TIMER master slave mode 
1768:C:/Users/49542/Desktop/GD32F30x_Demo_Suites_V2.0.0/GD32F30x_Demo_Suites_V2.0.0/GD32F30x_Firmware_Library/GD32F30x_standard_peripheral/Source\gd32f30x_timer.c ****     \param[in]  timer_periph: TIMERx(x=0..4,7,8,11)
1769:C:/Users/49542/Desktop/GD32F30x_Demo_Suites_V2.0.0/GD32F30x_Demo_Suites_V2.0.0/GD32F30x_Firmware_Library/GD32F30x_standard_peripheral/Source\gd32f30x_timer.c ****     \param[in]  masterslave:
1770:C:/Users/49542/Desktop/GD32F30x_Demo_Suites_V2.0.0/GD32F30x_Demo_Suites_V2.0.0/GD32F30x_Firmware_Library/GD32F30x_standard_peripheral/Source\gd32f30x_timer.c ****                 only one parameter can be selected which is shown as below:
1771:C:/Users/49542/Desktop/GD32F30x_Demo_Suites_V2.0.0/GD32F30x_Demo_Suites_V2.0.0/GD32F30x_Firmware_Library/GD32F30x_standard_peripheral/Source\gd32f30x_timer.c ****       \arg        TIMER_MASTER_SLAVE_MODE_ENABLE: master slave mode enable
1772:C:/Users/49542/Desktop/GD32F30x_Demo_Suites_V2.0.0/GD32F30x_Demo_Suites_V2.0.0/GD32F30x_Firmware_Library/GD32F30x_standard_peripheral/Source\gd32f30x_timer.c ****       \arg        TIMER_MASTER_SLAVE_MODE_DISABLE: master slave mode disable
1773:C:/Users/49542/Desktop/GD32F30x_Demo_Suites_V2.0.0/GD32F30x_Demo_Suites_V2.0.0/GD32F30x_Firmware_Library/GD32F30x_standard_peripheral/Source\gd32f30x_timer.c ****     \param[out] none
1774:C:/Users/49542/Desktop/GD32F30x_Demo_Suites_V2.0.0/GD32F30x_Demo_Suites_V2.0.0/GD32F30x_Firmware_Library/GD32F30x_standard_peripheral/Source\gd32f30x_timer.c ****     \retval     none
1775:C:/Users/49542/Desktop/GD32F30x_Demo_Suites_V2.0.0/GD32F30x_Demo_Suites_V2.0.0/GD32F30x_Firmware_Library/GD32F30x_standard_peripheral/Source\gd32f30x_timer.c **** */ 
1776:C:/Users/49542/Desktop/GD32F30x_Demo_Suites_V2.0.0/GD32F30x_Demo_Suites_V2.0.0/GD32F30x_Firmware_Library/GD32F30x_standard_peripheral/Source\gd32f30x_timer.c **** void timer_master_slave_mode_config(uint32_t timer_periph, uint32_t masterslave)
1777:C:/Users/49542/Desktop/GD32F30x_Demo_Suites_V2.0.0/GD32F30x_Demo_Suites_V2.0.0/GD32F30x_Firmware_Library/GD32F30x_standard_peripheral/Source\gd32f30x_timer.c **** {
 3240              		.loc 1 1777 0
 3241              		.cfi_startproc
 3242              		@ args = 0, pretend = 0, frame = 0
 3243              		@ frame_needed = 0, uses_anonymous_args = 0
 3244              		@ link register save eliminated.
 3245              	.LVL236:
ARM GAS  C:\Users\49542\AppData\Local\Temp\ccEBNRSE.s 			page 89


1778:C:/Users/49542/Desktop/GD32F30x_Demo_Suites_V2.0.0/GD32F30x_Demo_Suites_V2.0.0/GD32F30x_Firmware_Library/GD32F30x_standard_peripheral/Source\gd32f30x_timer.c ****     if(TIMER_MASTER_SLAVE_MODE_ENABLE == masterslave){
 3246              		.loc 1 1778 0
 3247 0000 11B1     		cbz	r1, .L219
1779:C:/Users/49542/Desktop/GD32F30x_Demo_Suites_V2.0.0/GD32F30x_Demo_Suites_V2.0.0/GD32F30x_Firmware_Library/GD32F30x_standard_peripheral/Source\gd32f30x_timer.c ****         TIMER_SMCFG(timer_periph) |= (uint32_t)TIMER_SMCFG_MSM;
1780:C:/Users/49542/Desktop/GD32F30x_Demo_Suites_V2.0.0/GD32F30x_Demo_Suites_V2.0.0/GD32F30x_Firmware_Library/GD32F30x_standard_peripheral/Source\gd32f30x_timer.c ****     }else if(TIMER_MASTER_SLAVE_MODE_DISABLE == masterslave){
 3248              		.loc 1 1780 0
 3249 0002 0129     		cmp	r1, #1
 3250 0004 05D0     		beq	.L220
 3251              	.L216:
1781:C:/Users/49542/Desktop/GD32F30x_Demo_Suites_V2.0.0/GD32F30x_Demo_Suites_V2.0.0/GD32F30x_Firmware_Library/GD32F30x_standard_peripheral/Source\gd32f30x_timer.c ****         TIMER_SMCFG(timer_periph) &= ~(uint32_t)TIMER_SMCFG_MSM;
1782:C:/Users/49542/Desktop/GD32F30x_Demo_Suites_V2.0.0/GD32F30x_Demo_Suites_V2.0.0/GD32F30x_Firmware_Library/GD32F30x_standard_peripheral/Source\gd32f30x_timer.c ****     }else{
1783:C:/Users/49542/Desktop/GD32F30x_Demo_Suites_V2.0.0/GD32F30x_Demo_Suites_V2.0.0/GD32F30x_Firmware_Library/GD32F30x_standard_peripheral/Source\gd32f30x_timer.c ****         /* illegal parameters */
1784:C:/Users/49542/Desktop/GD32F30x_Demo_Suites_V2.0.0/GD32F30x_Demo_Suites_V2.0.0/GD32F30x_Firmware_Library/GD32F30x_standard_peripheral/Source\gd32f30x_timer.c ****     }
1785:C:/Users/49542/Desktop/GD32F30x_Demo_Suites_V2.0.0/GD32F30x_Demo_Suites_V2.0.0/GD32F30x_Firmware_Library/GD32F30x_standard_peripheral/Source\gd32f30x_timer.c **** }
 3252              		.loc 1 1785 0
 3253 0006 7047     		bx	lr
 3254              	.L219:
1779:C:/Users/49542/Desktop/GD32F30x_Demo_Suites_V2.0.0/GD32F30x_Demo_Suites_V2.0.0/GD32F30x_Firmware_Library/GD32F30x_standard_peripheral/Source\gd32f30x_timer.c ****         TIMER_SMCFG(timer_periph) |= (uint32_t)TIMER_SMCFG_MSM;
 3255              		.loc 1 1779 0
 3256 0008 8368     		ldr	r3, [r0, #8]
 3257 000a 43F08003 		orr	r3, r3, #128
 3258 000e 8360     		str	r3, [r0, #8]
 3259 0010 7047     		bx	lr
 3260              	.L220:
1781:C:/Users/49542/Desktop/GD32F30x_Demo_Suites_V2.0.0/GD32F30x_Demo_Suites_V2.0.0/GD32F30x_Firmware_Library/GD32F30x_standard_peripheral/Source\gd32f30x_timer.c ****         TIMER_SMCFG(timer_periph) &= ~(uint32_t)TIMER_SMCFG_MSM;
 3261              		.loc 1 1781 0
 3262 0012 8368     		ldr	r3, [r0, #8]
 3263 0014 23F08003 		bic	r3, r3, #128
 3264 0018 8360     		str	r3, [r0, #8]
 3265              		.loc 1 1785 0
 3266 001a F4E7     		b	.L216
 3267              		.cfi_endproc
 3268              	.LFE176:
 3270              		.section	.text.timer_external_trigger_config,"ax",%progbits
 3271              		.align	1
 3272              		.global	timer_external_trigger_config
 3273              		.syntax unified
 3274              		.thumb
 3275              		.thumb_func
 3276              		.fpu fpv4-sp-d16
 3278              	timer_external_trigger_config:
 3279              	.LFB177:
1786:C:/Users/49542/Desktop/GD32F30x_Demo_Suites_V2.0.0/GD32F30x_Demo_Suites_V2.0.0/GD32F30x_Firmware_Library/GD32F30x_standard_peripheral/Source\gd32f30x_timer.c **** 
1787:C:/Users/49542/Desktop/GD32F30x_Demo_Suites_V2.0.0/GD32F30x_Demo_Suites_V2.0.0/GD32F30x_Firmware_Library/GD32F30x_standard_peripheral/Source\gd32f30x_timer.c **** /*!
1788:C:/Users/49542/Desktop/GD32F30x_Demo_Suites_V2.0.0/GD32F30x_Demo_Suites_V2.0.0/GD32F30x_Firmware_Library/GD32F30x_standard_peripheral/Source\gd32f30x_timer.c ****     \brief      configure TIMER external trigger input
1789:C:/Users/49542/Desktop/GD32F30x_Demo_Suites_V2.0.0/GD32F30x_Demo_Suites_V2.0.0/GD32F30x_Firmware_Library/GD32F30x_standard_peripheral/Source\gd32f30x_timer.c ****     \param[in]  timer_periph: TIMERx(x=0..4,7)
1790:C:/Users/49542/Desktop/GD32F30x_Demo_Suites_V2.0.0/GD32F30x_Demo_Suites_V2.0.0/GD32F30x_Firmware_Library/GD32F30x_standard_peripheral/Source\gd32f30x_timer.c ****     \param[in]  extprescaler:
1791:C:/Users/49542/Desktop/GD32F30x_Demo_Suites_V2.0.0/GD32F30x_Demo_Suites_V2.0.0/GD32F30x_Firmware_Library/GD32F30x_standard_peripheral/Source\gd32f30x_timer.c ****                 only one parameter can be selected which is shown as below:
1792:C:/Users/49542/Desktop/GD32F30x_Demo_Suites_V2.0.0/GD32F30x_Demo_Suites_V2.0.0/GD32F30x_Firmware_Library/GD32F30x_standard_peripheral/Source\gd32f30x_timer.c ****       \arg        TIMER_EXT_TRI_PSC_OFF: no divided
1793:C:/Users/49542/Desktop/GD32F30x_Demo_Suites_V2.0.0/GD32F30x_Demo_Suites_V2.0.0/GD32F30x_Firmware_Library/GD32F30x_standard_peripheral/Source\gd32f30x_timer.c ****       \arg        TIMER_EXT_TRI_PSC_DIV2: divided by 2
1794:C:/Users/49542/Desktop/GD32F30x_Demo_Suites_V2.0.0/GD32F30x_Demo_Suites_V2.0.0/GD32F30x_Firmware_Library/GD32F30x_standard_peripheral/Source\gd32f30x_timer.c ****       \arg        TIMER_EXT_TRI_PSC_DIV4: divided by 4
1795:C:/Users/49542/Desktop/GD32F30x_Demo_Suites_V2.0.0/GD32F30x_Demo_Suites_V2.0.0/GD32F30x_Firmware_Library/GD32F30x_standard_peripheral/Source\gd32f30x_timer.c ****       \arg        TIMER_EXT_TRI_PSC_DIV8: divided by 8
1796:C:/Users/49542/Desktop/GD32F30x_Demo_Suites_V2.0.0/GD32F30x_Demo_Suites_V2.0.0/GD32F30x_Firmware_Library/GD32F30x_standard_peripheral/Source\gd32f30x_timer.c ****     \param[in]  extpolarity:
1797:C:/Users/49542/Desktop/GD32F30x_Demo_Suites_V2.0.0/GD32F30x_Demo_Suites_V2.0.0/GD32F30x_Firmware_Library/GD32F30x_standard_peripheral/Source\gd32f30x_timer.c ****                 only one parameter can be selected which is shown as below:
1798:C:/Users/49542/Desktop/GD32F30x_Demo_Suites_V2.0.0/GD32F30x_Demo_Suites_V2.0.0/GD32F30x_Firmware_Library/GD32F30x_standard_peripheral/Source\gd32f30x_timer.c ****       \arg        TIMER_ETP_FALLING: active low or falling edge active
1799:C:/Users/49542/Desktop/GD32F30x_Demo_Suites_V2.0.0/GD32F30x_Demo_Suites_V2.0.0/GD32F30x_Firmware_Library/GD32F30x_standard_peripheral/Source\gd32f30x_timer.c ****       \arg        TIMER_ETP_RISING: active high or rising edge active
1800:C:/Users/49542/Desktop/GD32F30x_Demo_Suites_V2.0.0/GD32F30x_Demo_Suites_V2.0.0/GD32F30x_Firmware_Library/GD32F30x_standard_peripheral/Source\gd32f30x_timer.c ****     \param[in]  extfilter: a value between 0 and 15
ARM GAS  C:\Users\49542\AppData\Local\Temp\ccEBNRSE.s 			page 90


1801:C:/Users/49542/Desktop/GD32F30x_Demo_Suites_V2.0.0/GD32F30x_Demo_Suites_V2.0.0/GD32F30x_Firmware_Library/GD32F30x_standard_peripheral/Source\gd32f30x_timer.c ****     \param[out] none
1802:C:/Users/49542/Desktop/GD32F30x_Demo_Suites_V2.0.0/GD32F30x_Demo_Suites_V2.0.0/GD32F30x_Firmware_Library/GD32F30x_standard_peripheral/Source\gd32f30x_timer.c ****     \retval     none
1803:C:/Users/49542/Desktop/GD32F30x_Demo_Suites_V2.0.0/GD32F30x_Demo_Suites_V2.0.0/GD32F30x_Firmware_Library/GD32F30x_standard_peripheral/Source\gd32f30x_timer.c **** */
1804:C:/Users/49542/Desktop/GD32F30x_Demo_Suites_V2.0.0/GD32F30x_Demo_Suites_V2.0.0/GD32F30x_Firmware_Library/GD32F30x_standard_peripheral/Source\gd32f30x_timer.c **** void timer_external_trigger_config(uint32_t timer_periph, uint32_t extprescaler,
1805:C:/Users/49542/Desktop/GD32F30x_Demo_Suites_V2.0.0/GD32F30x_Demo_Suites_V2.0.0/GD32F30x_Firmware_Library/GD32F30x_standard_peripheral/Source\gd32f30x_timer.c ****                                    uint32_t extpolarity, uint32_t extfilter)
1806:C:/Users/49542/Desktop/GD32F30x_Demo_Suites_V2.0.0/GD32F30x_Demo_Suites_V2.0.0/GD32F30x_Firmware_Library/GD32F30x_standard_peripheral/Source\gd32f30x_timer.c **** {
 3280              		.loc 1 1806 0
 3281              		.cfi_startproc
 3282              		@ args = 0, pretend = 0, frame = 0
 3283              		@ frame_needed = 0, uses_anonymous_args = 0
 3284              		@ link register save eliminated.
 3285              	.LVL237:
 3286 0000 10B4     		push	{r4}
 3287              	.LCFI5:
 3288              		.cfi_def_cfa_offset 4
 3289              		.cfi_offset 4, -4
1807:C:/Users/49542/Desktop/GD32F30x_Demo_Suites_V2.0.0/GD32F30x_Demo_Suites_V2.0.0/GD32F30x_Firmware_Library/GD32F30x_standard_peripheral/Source\gd32f30x_timer.c ****     TIMER_SMCFG(timer_periph) &= (~(uint32_t)(TIMER_SMCFG_ETP | TIMER_SMCFG_ETPSC | TIMER_SMCFG_ETF
 3290              		.loc 1 1807 0
 3291 0002 8468     		ldr	r4, [r0, #8]
 3292 0004 24F43F44 		bic	r4, r4, #48896
 3293 0008 8460     		str	r4, [r0, #8]
1808:C:/Users/49542/Desktop/GD32F30x_Demo_Suites_V2.0.0/GD32F30x_Demo_Suites_V2.0.0/GD32F30x_Firmware_Library/GD32F30x_standard_peripheral/Source\gd32f30x_timer.c ****     TIMER_SMCFG(timer_periph) |= (uint32_t)(extprescaler | extpolarity);
 3294              		.loc 1 1808 0
 3295 000a 8468     		ldr	r4, [r0, #8]
 3296 000c 0A43     		orrs	r2, r2, r1
 3297              	.LVL238:
 3298 000e 1443     		orrs	r4, r4, r2
 3299 0010 8460     		str	r4, [r0, #8]
1809:C:/Users/49542/Desktop/GD32F30x_Demo_Suites_V2.0.0/GD32F30x_Demo_Suites_V2.0.0/GD32F30x_Firmware_Library/GD32F30x_standard_peripheral/Source\gd32f30x_timer.c ****     TIMER_SMCFG(timer_periph) |= (uint32_t)(extfilter << 8U);
 3300              		.loc 1 1809 0
 3301 0012 8268     		ldr	r2, [r0, #8]
 3302 0014 42EA0323 		orr	r3, r2, r3, lsl #8
 3303              	.LVL239:
 3304 0018 8360     		str	r3, [r0, #8]
1810:C:/Users/49542/Desktop/GD32F30x_Demo_Suites_V2.0.0/GD32F30x_Demo_Suites_V2.0.0/GD32F30x_Firmware_Library/GD32F30x_standard_peripheral/Source\gd32f30x_timer.c **** }
 3305              		.loc 1 1810 0
 3306 001a 5DF8044B 		ldr	r4, [sp], #4
 3307              	.LCFI6:
 3308              		.cfi_restore 4
 3309              		.cfi_def_cfa_offset 0
 3310 001e 7047     		bx	lr
 3311              		.cfi_endproc
 3312              	.LFE177:
 3314              		.section	.text.timer_quadrature_decoder_mode_config,"ax",%progbits
 3315              		.align	1
 3316              		.global	timer_quadrature_decoder_mode_config
 3317              		.syntax unified
 3318              		.thumb
 3319              		.thumb_func
 3320              		.fpu fpv4-sp-d16
 3322              	timer_quadrature_decoder_mode_config:
 3323              	.LFB178:
1811:C:/Users/49542/Desktop/GD32F30x_Demo_Suites_V2.0.0/GD32F30x_Demo_Suites_V2.0.0/GD32F30x_Firmware_Library/GD32F30x_standard_peripheral/Source\gd32f30x_timer.c **** 
1812:C:/Users/49542/Desktop/GD32F30x_Demo_Suites_V2.0.0/GD32F30x_Demo_Suites_V2.0.0/GD32F30x_Firmware_Library/GD32F30x_standard_peripheral/Source\gd32f30x_timer.c **** /*!
1813:C:/Users/49542/Desktop/GD32F30x_Demo_Suites_V2.0.0/GD32F30x_Demo_Suites_V2.0.0/GD32F30x_Firmware_Library/GD32F30x_standard_peripheral/Source\gd32f30x_timer.c ****     \brief      configure TIMER quadrature decoder mode
1814:C:/Users/49542/Desktop/GD32F30x_Demo_Suites_V2.0.0/GD32F30x_Demo_Suites_V2.0.0/GD32F30x_Firmware_Library/GD32F30x_standard_peripheral/Source\gd32f30x_timer.c ****     \param[in]  timer_periph: TIMERx(x=0..4,7)
1815:C:/Users/49542/Desktop/GD32F30x_Demo_Suites_V2.0.0/GD32F30x_Demo_Suites_V2.0.0/GD32F30x_Firmware_Library/GD32F30x_standard_peripheral/Source\gd32f30x_timer.c ****     \param[in]  decomode: 
ARM GAS  C:\Users\49542\AppData\Local\Temp\ccEBNRSE.s 			page 91


1816:C:/Users/49542/Desktop/GD32F30x_Demo_Suites_V2.0.0/GD32F30x_Demo_Suites_V2.0.0/GD32F30x_Firmware_Library/GD32F30x_standard_peripheral/Source\gd32f30x_timer.c ****                 only one parameter can be selected which is shown as below:
1817:C:/Users/49542/Desktop/GD32F30x_Demo_Suites_V2.0.0/GD32F30x_Demo_Suites_V2.0.0/GD32F30x_Firmware_Library/GD32F30x_standard_peripheral/Source\gd32f30x_timer.c ****       \arg        TIMER_ENCODER_MODE0: counter counts on CI0FE0 edge depending on CI1FE1 level
1818:C:/Users/49542/Desktop/GD32F30x_Demo_Suites_V2.0.0/GD32F30x_Demo_Suites_V2.0.0/GD32F30x_Firmware_Library/GD32F30x_standard_peripheral/Source\gd32f30x_timer.c ****       \arg        TIMER_ENCODER_MODE1: counter counts on CI1FE1 edge depending on CI0FE0 level
1819:C:/Users/49542/Desktop/GD32F30x_Demo_Suites_V2.0.0/GD32F30x_Demo_Suites_V2.0.0/GD32F30x_Firmware_Library/GD32F30x_standard_peripheral/Source\gd32f30x_timer.c ****       \arg        TIMER_ENCODER_MODE2: counter counts on both CI0FE0 and CI1FE1 edges depending on 
1820:C:/Users/49542/Desktop/GD32F30x_Demo_Suites_V2.0.0/GD32F30x_Demo_Suites_V2.0.0/GD32F30x_Firmware_Library/GD32F30x_standard_peripheral/Source\gd32f30x_timer.c ****     \param[in]  ic0polarity: 
1821:C:/Users/49542/Desktop/GD32F30x_Demo_Suites_V2.0.0/GD32F30x_Demo_Suites_V2.0.0/GD32F30x_Firmware_Library/GD32F30x_standard_peripheral/Source\gd32f30x_timer.c ****                 only one parameter can be selected which is shown as below:
1822:C:/Users/49542/Desktop/GD32F30x_Demo_Suites_V2.0.0/GD32F30x_Demo_Suites_V2.0.0/GD32F30x_Firmware_Library/GD32F30x_standard_peripheral/Source\gd32f30x_timer.c ****       \arg        TIMER_IC_POLARITY_RISING: capture rising edge
1823:C:/Users/49542/Desktop/GD32F30x_Demo_Suites_V2.0.0/GD32F30x_Demo_Suites_V2.0.0/GD32F30x_Firmware_Library/GD32F30x_standard_peripheral/Source\gd32f30x_timer.c ****       \arg        TIMER_IC_POLARITY_FALLING: capture falling edge
1824:C:/Users/49542/Desktop/GD32F30x_Demo_Suites_V2.0.0/GD32F30x_Demo_Suites_V2.0.0/GD32F30x_Firmware_Library/GD32F30x_standard_peripheral/Source\gd32f30x_timer.c ****     \param[in]  ic1polarity:
1825:C:/Users/49542/Desktop/GD32F30x_Demo_Suites_V2.0.0/GD32F30x_Demo_Suites_V2.0.0/GD32F30x_Firmware_Library/GD32F30x_standard_peripheral/Source\gd32f30x_timer.c ****                 only one parameter can be selected which is shown as below:
1826:C:/Users/49542/Desktop/GD32F30x_Demo_Suites_V2.0.0/GD32F30x_Demo_Suites_V2.0.0/GD32F30x_Firmware_Library/GD32F30x_standard_peripheral/Source\gd32f30x_timer.c ****       \arg        TIMER_IC_POLARITY_RISING: capture rising edge
1827:C:/Users/49542/Desktop/GD32F30x_Demo_Suites_V2.0.0/GD32F30x_Demo_Suites_V2.0.0/GD32F30x_Firmware_Library/GD32F30x_standard_peripheral/Source\gd32f30x_timer.c ****       \arg        TIMER_IC_POLARITY_FALLING: capture falling edge
1828:C:/Users/49542/Desktop/GD32F30x_Demo_Suites_V2.0.0/GD32F30x_Demo_Suites_V2.0.0/GD32F30x_Firmware_Library/GD32F30x_standard_peripheral/Source\gd32f30x_timer.c ****     \param[out] none
1829:C:/Users/49542/Desktop/GD32F30x_Demo_Suites_V2.0.0/GD32F30x_Demo_Suites_V2.0.0/GD32F30x_Firmware_Library/GD32F30x_standard_peripheral/Source\gd32f30x_timer.c ****     \retval     none
1830:C:/Users/49542/Desktop/GD32F30x_Demo_Suites_V2.0.0/GD32F30x_Demo_Suites_V2.0.0/GD32F30x_Firmware_Library/GD32F30x_standard_peripheral/Source\gd32f30x_timer.c **** */
1831:C:/Users/49542/Desktop/GD32F30x_Demo_Suites_V2.0.0/GD32F30x_Demo_Suites_V2.0.0/GD32F30x_Firmware_Library/GD32F30x_standard_peripheral/Source\gd32f30x_timer.c **** void timer_quadrature_decoder_mode_config(uint32_t timer_periph, uint32_t decomode,
1832:C:/Users/49542/Desktop/GD32F30x_Demo_Suites_V2.0.0/GD32F30x_Demo_Suites_V2.0.0/GD32F30x_Firmware_Library/GD32F30x_standard_peripheral/Source\gd32f30x_timer.c ****                                    uint16_t ic0polarity, uint16_t ic1polarity)
1833:C:/Users/49542/Desktop/GD32F30x_Demo_Suites_V2.0.0/GD32F30x_Demo_Suites_V2.0.0/GD32F30x_Firmware_Library/GD32F30x_standard_peripheral/Source\gd32f30x_timer.c **** {
 3324              		.loc 1 1833 0
 3325              		.cfi_startproc
 3326              		@ args = 0, pretend = 0, frame = 0
 3327              		@ frame_needed = 0, uses_anonymous_args = 0
 3328              		@ link register save eliminated.
 3329              	.LVL240:
 3330 0000 10B4     		push	{r4}
 3331              	.LCFI7:
 3332              		.cfi_def_cfa_offset 4
 3333              		.cfi_offset 4, -4
1834:C:/Users/49542/Desktop/GD32F30x_Demo_Suites_V2.0.0/GD32F30x_Demo_Suites_V2.0.0/GD32F30x_Firmware_Library/GD32F30x_standard_peripheral/Source\gd32f30x_timer.c ****     TIMER_SMCFG(timer_periph) &= (~(uint32_t)TIMER_SMCFG_SMC);
 3334              		.loc 1 1834 0
 3335 0002 8468     		ldr	r4, [r0, #8]
 3336 0004 24F00704 		bic	r4, r4, #7
 3337 0008 8460     		str	r4, [r0, #8]
1835:C:/Users/49542/Desktop/GD32F30x_Demo_Suites_V2.0.0/GD32F30x_Demo_Suites_V2.0.0/GD32F30x_Firmware_Library/GD32F30x_standard_peripheral/Source\gd32f30x_timer.c ****     TIMER_SMCFG(timer_periph) |= (uint32_t)decomode;
 3338              		.loc 1 1835 0
 3339 000a 8468     		ldr	r4, [r0, #8]
 3340 000c 2143     		orrs	r1, r1, r4
 3341              	.LVL241:
 3342 000e 8160     		str	r1, [r0, #8]
1836:C:/Users/49542/Desktop/GD32F30x_Demo_Suites_V2.0.0/GD32F30x_Demo_Suites_V2.0.0/GD32F30x_Firmware_Library/GD32F30x_standard_peripheral/Source\gd32f30x_timer.c **** 
1837:C:/Users/49542/Desktop/GD32F30x_Demo_Suites_V2.0.0/GD32F30x_Demo_Suites_V2.0.0/GD32F30x_Firmware_Library/GD32F30x_standard_peripheral/Source\gd32f30x_timer.c ****     TIMER_CHCTL0(timer_periph) &= (uint32_t)(((~(uint32_t)TIMER_CHCTL0_CH0MS))&((~(uint32_t)TIMER_C
 3343              		.loc 1 1837 0
 3344 0010 8169     		ldr	r1, [r0, #24]
 3345 0012 21F44071 		bic	r1, r1, #768
 3346 0016 21F00301 		bic	r1, r1, #3
 3347 001a 8161     		str	r1, [r0, #24]
1838:C:/Users/49542/Desktop/GD32F30x_Demo_Suites_V2.0.0/GD32F30x_Demo_Suites_V2.0.0/GD32F30x_Firmware_Library/GD32F30x_standard_peripheral/Source\gd32f30x_timer.c ****     TIMER_CHCTL0(timer_periph) |= (uint32_t)(TIMER_IC_SELECTION_DIRECTTI|((uint32_t)TIMER_IC_SELECT
 3348              		.loc 1 1838 0
 3349 001c 8169     		ldr	r1, [r0, #24]
 3350 001e 41F48071 		orr	r1, r1, #256
 3351 0022 41F00101 		orr	r1, r1, #1
 3352 0026 8161     		str	r1, [r0, #24]
1839:C:/Users/49542/Desktop/GD32F30x_Demo_Suites_V2.0.0/GD32F30x_Demo_Suites_V2.0.0/GD32F30x_Firmware_Library/GD32F30x_standard_peripheral/Source\gd32f30x_timer.c **** 
1840:C:/Users/49542/Desktop/GD32F30x_Demo_Suites_V2.0.0/GD32F30x_Demo_Suites_V2.0.0/GD32F30x_Firmware_Library/GD32F30x_standard_peripheral/Source\gd32f30x_timer.c ****     TIMER_CHCTL2(timer_periph) &= (~(uint32_t)(TIMER_CHCTL2_CH0P|TIMER_CHCTL2_CH0NP));
 3353              		.loc 1 1840 0
 3354 0028 016A     		ldr	r1, [r0, #32]
 3355 002a 21F00A01 		bic	r1, r1, #10
ARM GAS  C:\Users\49542\AppData\Local\Temp\ccEBNRSE.s 			page 92


 3356 002e 0162     		str	r1, [r0, #32]
1841:C:/Users/49542/Desktop/GD32F30x_Demo_Suites_V2.0.0/GD32F30x_Demo_Suites_V2.0.0/GD32F30x_Firmware_Library/GD32F30x_standard_peripheral/Source\gd32f30x_timer.c ****     TIMER_CHCTL2(timer_periph) &= (~(uint32_t)(TIMER_CHCTL2_CH1P|TIMER_CHCTL2_CH1NP));
 3357              		.loc 1 1841 0
 3358 0030 016A     		ldr	r1, [r0, #32]
 3359 0032 21F0A001 		bic	r1, r1, #160
 3360 0036 0162     		str	r1, [r0, #32]
1842:C:/Users/49542/Desktop/GD32F30x_Demo_Suites_V2.0.0/GD32F30x_Demo_Suites_V2.0.0/GD32F30x_Firmware_Library/GD32F30x_standard_peripheral/Source\gd32f30x_timer.c ****     TIMER_CHCTL2(timer_periph) |= ((uint32_t)ic0polarity|((uint32_t)ic1polarity << 4U));
 3361              		.loc 1 1842 0
 3362 0038 016A     		ldr	r1, [r0, #32]
 3363 003a 42EA0313 		orr	r3, r2, r3, lsl #4
 3364              	.LVL242:
 3365 003e 1943     		orrs	r1, r1, r3
 3366 0040 0162     		str	r1, [r0, #32]
1843:C:/Users/49542/Desktop/GD32F30x_Demo_Suites_V2.0.0/GD32F30x_Demo_Suites_V2.0.0/GD32F30x_Firmware_Library/GD32F30x_standard_peripheral/Source\gd32f30x_timer.c **** }
 3367              		.loc 1 1843 0
 3368 0042 5DF8044B 		ldr	r4, [sp], #4
 3369              	.LCFI8:
 3370              		.cfi_restore 4
 3371              		.cfi_def_cfa_offset 0
 3372 0046 7047     		bx	lr
 3373              		.cfi_endproc
 3374              	.LFE178:
 3376              		.section	.text.timer_internal_clock_config,"ax",%progbits
 3377              		.align	1
 3378              		.global	timer_internal_clock_config
 3379              		.syntax unified
 3380              		.thumb
 3381              		.thumb_func
 3382              		.fpu fpv4-sp-d16
 3384              	timer_internal_clock_config:
 3385              	.LFB179:
1844:C:/Users/49542/Desktop/GD32F30x_Demo_Suites_V2.0.0/GD32F30x_Demo_Suites_V2.0.0/GD32F30x_Firmware_Library/GD32F30x_standard_peripheral/Source\gd32f30x_timer.c **** 
1845:C:/Users/49542/Desktop/GD32F30x_Demo_Suites_V2.0.0/GD32F30x_Demo_Suites_V2.0.0/GD32F30x_Firmware_Library/GD32F30x_standard_peripheral/Source\gd32f30x_timer.c **** /*!
1846:C:/Users/49542/Desktop/GD32F30x_Demo_Suites_V2.0.0/GD32F30x_Demo_Suites_V2.0.0/GD32F30x_Firmware_Library/GD32F30x_standard_peripheral/Source\gd32f30x_timer.c ****     \brief      configure TIMER internal clock mode
1847:C:/Users/49542/Desktop/GD32F30x_Demo_Suites_V2.0.0/GD32F30x_Demo_Suites_V2.0.0/GD32F30x_Firmware_Library/GD32F30x_standard_peripheral/Source\gd32f30x_timer.c ****     \param[in]  timer_periph: TIMERx(x=0..4,7,8,11)
1848:C:/Users/49542/Desktop/GD32F30x_Demo_Suites_V2.0.0/GD32F30x_Demo_Suites_V2.0.0/GD32F30x_Firmware_Library/GD32F30x_standard_peripheral/Source\gd32f30x_timer.c ****     \param[out] none
1849:C:/Users/49542/Desktop/GD32F30x_Demo_Suites_V2.0.0/GD32F30x_Demo_Suites_V2.0.0/GD32F30x_Firmware_Library/GD32F30x_standard_peripheral/Source\gd32f30x_timer.c ****     \retval     none
1850:C:/Users/49542/Desktop/GD32F30x_Demo_Suites_V2.0.0/GD32F30x_Demo_Suites_V2.0.0/GD32F30x_Firmware_Library/GD32F30x_standard_peripheral/Source\gd32f30x_timer.c **** */
1851:C:/Users/49542/Desktop/GD32F30x_Demo_Suites_V2.0.0/GD32F30x_Demo_Suites_V2.0.0/GD32F30x_Firmware_Library/GD32F30x_standard_peripheral/Source\gd32f30x_timer.c **** void timer_internal_clock_config(uint32_t timer_periph)
1852:C:/Users/49542/Desktop/GD32F30x_Demo_Suites_V2.0.0/GD32F30x_Demo_Suites_V2.0.0/GD32F30x_Firmware_Library/GD32F30x_standard_peripheral/Source\gd32f30x_timer.c **** {
 3386              		.loc 1 1852 0
 3387              		.cfi_startproc
 3388              		@ args = 0, pretend = 0, frame = 0
 3389              		@ frame_needed = 0, uses_anonymous_args = 0
 3390              		@ link register save eliminated.
 3391              	.LVL243:
1853:C:/Users/49542/Desktop/GD32F30x_Demo_Suites_V2.0.0/GD32F30x_Demo_Suites_V2.0.0/GD32F30x_Firmware_Library/GD32F30x_standard_peripheral/Source\gd32f30x_timer.c ****     TIMER_SMCFG(timer_periph) &= ~(uint32_t)TIMER_SMCFG_SMC;
 3392              		.loc 1 1853 0
 3393 0000 8368     		ldr	r3, [r0, #8]
 3394 0002 23F00703 		bic	r3, r3, #7
 3395 0006 8360     		str	r3, [r0, #8]
1854:C:/Users/49542/Desktop/GD32F30x_Demo_Suites_V2.0.0/GD32F30x_Demo_Suites_V2.0.0/GD32F30x_Firmware_Library/GD32F30x_standard_peripheral/Source\gd32f30x_timer.c **** }
 3396              		.loc 1 1854 0
 3397 0008 7047     		bx	lr
 3398              		.cfi_endproc
 3399              	.LFE179:
 3401              		.section	.text.timer_internal_trigger_as_external_clock_config,"ax",%progbits
ARM GAS  C:\Users\49542\AppData\Local\Temp\ccEBNRSE.s 			page 93


 3402              		.align	1
 3403              		.global	timer_internal_trigger_as_external_clock_config
 3404              		.syntax unified
 3405              		.thumb
 3406              		.thumb_func
 3407              		.fpu fpv4-sp-d16
 3409              	timer_internal_trigger_as_external_clock_config:
 3410              	.LFB180:
1855:C:/Users/49542/Desktop/GD32F30x_Demo_Suites_V2.0.0/GD32F30x_Demo_Suites_V2.0.0/GD32F30x_Firmware_Library/GD32F30x_standard_peripheral/Source\gd32f30x_timer.c **** 
1856:C:/Users/49542/Desktop/GD32F30x_Demo_Suites_V2.0.0/GD32F30x_Demo_Suites_V2.0.0/GD32F30x_Firmware_Library/GD32F30x_standard_peripheral/Source\gd32f30x_timer.c **** /*!
1857:C:/Users/49542/Desktop/GD32F30x_Demo_Suites_V2.0.0/GD32F30x_Demo_Suites_V2.0.0/GD32F30x_Firmware_Library/GD32F30x_standard_peripheral/Source\gd32f30x_timer.c ****     \brief      configure TIMER the internal trigger as external clock input
1858:C:/Users/49542/Desktop/GD32F30x_Demo_Suites_V2.0.0/GD32F30x_Demo_Suites_V2.0.0/GD32F30x_Firmware_Library/GD32F30x_standard_peripheral/Source\gd32f30x_timer.c ****     \param[in]  timer_periph: TIMERx(x=0..4,7,8,11)
1859:C:/Users/49542/Desktop/GD32F30x_Demo_Suites_V2.0.0/GD32F30x_Demo_Suites_V2.0.0/GD32F30x_Firmware_Library/GD32F30x_standard_peripheral/Source\gd32f30x_timer.c ****     \param[in]  intrigger:
1860:C:/Users/49542/Desktop/GD32F30x_Demo_Suites_V2.0.0/GD32F30x_Demo_Suites_V2.0.0/GD32F30x_Firmware_Library/GD32F30x_standard_peripheral/Source\gd32f30x_timer.c ****                 only one parameter can be selected which is shown as below:
1861:C:/Users/49542/Desktop/GD32F30x_Demo_Suites_V2.0.0/GD32F30x_Demo_Suites_V2.0.0/GD32F30x_Firmware_Library/GD32F30x_standard_peripheral/Source\gd32f30x_timer.c ****       \arg        TIMER_SMCFG_TRGSEL_ITI0: internal trigger 0
1862:C:/Users/49542/Desktop/GD32F30x_Demo_Suites_V2.0.0/GD32F30x_Demo_Suites_V2.0.0/GD32F30x_Firmware_Library/GD32F30x_standard_peripheral/Source\gd32f30x_timer.c ****       \arg        TIMER_SMCFG_TRGSEL_ITI1: internal trigger 1
1863:C:/Users/49542/Desktop/GD32F30x_Demo_Suites_V2.0.0/GD32F30x_Demo_Suites_V2.0.0/GD32F30x_Firmware_Library/GD32F30x_standard_peripheral/Source\gd32f30x_timer.c ****       \arg        TIMER_SMCFG_TRGSEL_ITI2: internal trigger 2
1864:C:/Users/49542/Desktop/GD32F30x_Demo_Suites_V2.0.0/GD32F30x_Demo_Suites_V2.0.0/GD32F30x_Firmware_Library/GD32F30x_standard_peripheral/Source\gd32f30x_timer.c ****       \arg        TIMER_SMCFG_TRGSEL_ITI3: internal trigger 3
1865:C:/Users/49542/Desktop/GD32F30x_Demo_Suites_V2.0.0/GD32F30x_Demo_Suites_V2.0.0/GD32F30x_Firmware_Library/GD32F30x_standard_peripheral/Source\gd32f30x_timer.c ****     \param[out] none
1866:C:/Users/49542/Desktop/GD32F30x_Demo_Suites_V2.0.0/GD32F30x_Demo_Suites_V2.0.0/GD32F30x_Firmware_Library/GD32F30x_standard_peripheral/Source\gd32f30x_timer.c ****     \retval     none
1867:C:/Users/49542/Desktop/GD32F30x_Demo_Suites_V2.0.0/GD32F30x_Demo_Suites_V2.0.0/GD32F30x_Firmware_Library/GD32F30x_standard_peripheral/Source\gd32f30x_timer.c **** */
1868:C:/Users/49542/Desktop/GD32F30x_Demo_Suites_V2.0.0/GD32F30x_Demo_Suites_V2.0.0/GD32F30x_Firmware_Library/GD32F30x_standard_peripheral/Source\gd32f30x_timer.c **** void timer_internal_trigger_as_external_clock_config(uint32_t timer_periph, uint32_t intrigger)
1869:C:/Users/49542/Desktop/GD32F30x_Demo_Suites_V2.0.0/GD32F30x_Demo_Suites_V2.0.0/GD32F30x_Firmware_Library/GD32F30x_standard_peripheral/Source\gd32f30x_timer.c **** {
 3411              		.loc 1 1869 0
 3412              		.cfi_startproc
 3413              		@ args = 0, pretend = 0, frame = 0
 3414              		@ frame_needed = 0, uses_anonymous_args = 0
 3415              	.LVL244:
 3416 0000 10B5     		push	{r4, lr}
 3417              	.LCFI9:
 3418              		.cfi_def_cfa_offset 8
 3419              		.cfi_offset 4, -8
 3420              		.cfi_offset 14, -4
 3421 0002 0446     		mov	r4, r0
1870:C:/Users/49542/Desktop/GD32F30x_Demo_Suites_V2.0.0/GD32F30x_Demo_Suites_V2.0.0/GD32F30x_Firmware_Library/GD32F30x_standard_peripheral/Source\gd32f30x_timer.c ****     timer_input_trigger_source_select(timer_periph, intrigger);
 3422              		.loc 1 1870 0
 3423 0004 FFF7FEFF 		bl	timer_input_trigger_source_select
 3424              	.LVL245:
1871:C:/Users/49542/Desktop/GD32F30x_Demo_Suites_V2.0.0/GD32F30x_Demo_Suites_V2.0.0/GD32F30x_Firmware_Library/GD32F30x_standard_peripheral/Source\gd32f30x_timer.c ****     TIMER_SMCFG(timer_periph) &= ~(uint32_t)TIMER_SMCFG_SMC;
 3425              		.loc 1 1871 0
 3426 0008 A368     		ldr	r3, [r4, #8]
 3427 000a 23F00703 		bic	r3, r3, #7
 3428 000e A360     		str	r3, [r4, #8]
1872:C:/Users/49542/Desktop/GD32F30x_Demo_Suites_V2.0.0/GD32F30x_Demo_Suites_V2.0.0/GD32F30x_Firmware_Library/GD32F30x_standard_peripheral/Source\gd32f30x_timer.c ****     TIMER_SMCFG(timer_periph) |= (uint32_t)TIMER_SLAVE_MODE_EXTERNAL0;
 3429              		.loc 1 1872 0
 3430 0010 A368     		ldr	r3, [r4, #8]
 3431 0012 43F00703 		orr	r3, r3, #7
 3432 0016 A360     		str	r3, [r4, #8]
1873:C:/Users/49542/Desktop/GD32F30x_Demo_Suites_V2.0.0/GD32F30x_Demo_Suites_V2.0.0/GD32F30x_Firmware_Library/GD32F30x_standard_peripheral/Source\gd32f30x_timer.c **** }
 3433              		.loc 1 1873 0
 3434 0018 10BD     		pop	{r4, pc}
 3435              		.cfi_endproc
 3436              	.LFE180:
 3438              		.section	.text.timer_external_trigger_as_external_clock_config,"ax",%progbits
 3439              		.align	1
 3440              		.global	timer_external_trigger_as_external_clock_config
 3441              		.syntax unified
ARM GAS  C:\Users\49542\AppData\Local\Temp\ccEBNRSE.s 			page 94


 3442              		.thumb
 3443              		.thumb_func
 3444              		.fpu fpv4-sp-d16
 3446              	timer_external_trigger_as_external_clock_config:
 3447              	.LFB181:
1874:C:/Users/49542/Desktop/GD32F30x_Demo_Suites_V2.0.0/GD32F30x_Demo_Suites_V2.0.0/GD32F30x_Firmware_Library/GD32F30x_standard_peripheral/Source\gd32f30x_timer.c **** 
1875:C:/Users/49542/Desktop/GD32F30x_Demo_Suites_V2.0.0/GD32F30x_Demo_Suites_V2.0.0/GD32F30x_Firmware_Library/GD32F30x_standard_peripheral/Source\gd32f30x_timer.c **** /*!
1876:C:/Users/49542/Desktop/GD32F30x_Demo_Suites_V2.0.0/GD32F30x_Demo_Suites_V2.0.0/GD32F30x_Firmware_Library/GD32F30x_standard_peripheral/Source\gd32f30x_timer.c ****     \brief      configure TIMER the external trigger as external clock input
1877:C:/Users/49542/Desktop/GD32F30x_Demo_Suites_V2.0.0/GD32F30x_Demo_Suites_V2.0.0/GD32F30x_Firmware_Library/GD32F30x_standard_peripheral/Source\gd32f30x_timer.c ****     \param[in]  timer_periph: TIMERx(x=0..4,7,8,11)
1878:C:/Users/49542/Desktop/GD32F30x_Demo_Suites_V2.0.0/GD32F30x_Demo_Suites_V2.0.0/GD32F30x_Firmware_Library/GD32F30x_standard_peripheral/Source\gd32f30x_timer.c ****     \param[in]  extrigger:
1879:C:/Users/49542/Desktop/GD32F30x_Demo_Suites_V2.0.0/GD32F30x_Demo_Suites_V2.0.0/GD32F30x_Firmware_Library/GD32F30x_standard_peripheral/Source\gd32f30x_timer.c ****                 only one parameter can be selected which is shown as below:
1880:C:/Users/49542/Desktop/GD32F30x_Demo_Suites_V2.0.0/GD32F30x_Demo_Suites_V2.0.0/GD32F30x_Firmware_Library/GD32F30x_standard_peripheral/Source\gd32f30x_timer.c ****       \arg        TIMER_SMCFG_TRGSEL_CI0F_ED: TI0 edge detector
1881:C:/Users/49542/Desktop/GD32F30x_Demo_Suites_V2.0.0/GD32F30x_Demo_Suites_V2.0.0/GD32F30x_Firmware_Library/GD32F30x_standard_peripheral/Source\gd32f30x_timer.c ****       \arg        TIMER_SMCFG_TRGSEL_CI0FE0: filtered TIMER input 0
1882:C:/Users/49542/Desktop/GD32F30x_Demo_Suites_V2.0.0/GD32F30x_Demo_Suites_V2.0.0/GD32F30x_Firmware_Library/GD32F30x_standard_peripheral/Source\gd32f30x_timer.c ****       \arg        TIMER_SMCFG_TRGSEL_CI1FE1: filtered TIMER input 1
1883:C:/Users/49542/Desktop/GD32F30x_Demo_Suites_V2.0.0/GD32F30x_Demo_Suites_V2.0.0/GD32F30x_Firmware_Library/GD32F30x_standard_peripheral/Source\gd32f30x_timer.c ****     \param[in]  extpolarity: 
1884:C:/Users/49542/Desktop/GD32F30x_Demo_Suites_V2.0.0/GD32F30x_Demo_Suites_V2.0.0/GD32F30x_Firmware_Library/GD32F30x_standard_peripheral/Source\gd32f30x_timer.c ****                 only one parameter can be selected which is shown as below:
1885:C:/Users/49542/Desktop/GD32F30x_Demo_Suites_V2.0.0/GD32F30x_Demo_Suites_V2.0.0/GD32F30x_Firmware_Library/GD32F30x_standard_peripheral/Source\gd32f30x_timer.c ****       \arg        TIMER_IC_POLARITY_RISING: active high or rising edge active
1886:C:/Users/49542/Desktop/GD32F30x_Demo_Suites_V2.0.0/GD32F30x_Demo_Suites_V2.0.0/GD32F30x_Firmware_Library/GD32F30x_standard_peripheral/Source\gd32f30x_timer.c ****       \arg        TIMER_IC_POLARITY_FALLING: active low or falling edge active
1887:C:/Users/49542/Desktop/GD32F30x_Demo_Suites_V2.0.0/GD32F30x_Demo_Suites_V2.0.0/GD32F30x_Firmware_Library/GD32F30x_standard_peripheral/Source\gd32f30x_timer.c ****     \param[in]  extfilter: a value between 0 and 15
1888:C:/Users/49542/Desktop/GD32F30x_Demo_Suites_V2.0.0/GD32F30x_Demo_Suites_V2.0.0/GD32F30x_Firmware_Library/GD32F30x_standard_peripheral/Source\gd32f30x_timer.c ****     \param[out] none
1889:C:/Users/49542/Desktop/GD32F30x_Demo_Suites_V2.0.0/GD32F30x_Demo_Suites_V2.0.0/GD32F30x_Firmware_Library/GD32F30x_standard_peripheral/Source\gd32f30x_timer.c ****     \retval     none
1890:C:/Users/49542/Desktop/GD32F30x_Demo_Suites_V2.0.0/GD32F30x_Demo_Suites_V2.0.0/GD32F30x_Firmware_Library/GD32F30x_standard_peripheral/Source\gd32f30x_timer.c **** */
1891:C:/Users/49542/Desktop/GD32F30x_Demo_Suites_V2.0.0/GD32F30x_Demo_Suites_V2.0.0/GD32F30x_Firmware_Library/GD32F30x_standard_peripheral/Source\gd32f30x_timer.c **** void timer_external_trigger_as_external_clock_config(uint32_t timer_periph, uint32_t extrigger,
1892:C:/Users/49542/Desktop/GD32F30x_Demo_Suites_V2.0.0/GD32F30x_Demo_Suites_V2.0.0/GD32F30x_Firmware_Library/GD32F30x_standard_peripheral/Source\gd32f30x_timer.c ****                                        uint16_t extpolarity, uint32_t extfilter)
1893:C:/Users/49542/Desktop/GD32F30x_Demo_Suites_V2.0.0/GD32F30x_Demo_Suites_V2.0.0/GD32F30x_Firmware_Library/GD32F30x_standard_peripheral/Source\gd32f30x_timer.c **** {
 3448              		.loc 1 1893 0
 3449              		.cfi_startproc
 3450              		@ args = 0, pretend = 0, frame = 0
 3451              		@ frame_needed = 0, uses_anonymous_args = 0
 3452              	.LVL246:
 3453 0000 10B5     		push	{r4, lr}
 3454              	.LCFI10:
 3455              		.cfi_def_cfa_offset 8
 3456              		.cfi_offset 4, -8
 3457              		.cfi_offset 14, -4
 3458 0002 0446     		mov	r4, r0
1894:C:/Users/49542/Desktop/GD32F30x_Demo_Suites_V2.0.0/GD32F30x_Demo_Suites_V2.0.0/GD32F30x_Firmware_Library/GD32F30x_standard_peripheral/Source\gd32f30x_timer.c ****     if(TIMER_SMCFG_TRGSEL_CI1FE1 == extrigger){
 3459              		.loc 1 1894 0
 3460 0004 6029     		cmp	r1, #96
 3461 0006 29D0     		beq	.L232
1895:C:/Users/49542/Desktop/GD32F30x_Demo_Suites_V2.0.0/GD32F30x_Demo_Suites_V2.0.0/GD32F30x_Firmware_Library/GD32F30x_standard_peripheral/Source\gd32f30x_timer.c ****         /* reset the CH1EN bit */
1896:C:/Users/49542/Desktop/GD32F30x_Demo_Suites_V2.0.0/GD32F30x_Demo_Suites_V2.0.0/GD32F30x_Firmware_Library/GD32F30x_standard_peripheral/Source\gd32f30x_timer.c ****         TIMER_CHCTL2(timer_periph) &= (~(uint32_t)TIMER_CHCTL2_CH1EN);
1897:C:/Users/49542/Desktop/GD32F30x_Demo_Suites_V2.0.0/GD32F30x_Demo_Suites_V2.0.0/GD32F30x_Firmware_Library/GD32F30x_standard_peripheral/Source\gd32f30x_timer.c ****         /* reset the CH1NP bit */
1898:C:/Users/49542/Desktop/GD32F30x_Demo_Suites_V2.0.0/GD32F30x_Demo_Suites_V2.0.0/GD32F30x_Firmware_Library/GD32F30x_standard_peripheral/Source\gd32f30x_timer.c ****         TIMER_CHCTL2(timer_periph) &= (~(uint32_t)(TIMER_CHCTL2_CH1P|TIMER_CHCTL2_CH1NP));
1899:C:/Users/49542/Desktop/GD32F30x_Demo_Suites_V2.0.0/GD32F30x_Demo_Suites_V2.0.0/GD32F30x_Firmware_Library/GD32F30x_standard_peripheral/Source\gd32f30x_timer.c ****         /* set the CH1NP bit */
1900:C:/Users/49542/Desktop/GD32F30x_Demo_Suites_V2.0.0/GD32F30x_Demo_Suites_V2.0.0/GD32F30x_Firmware_Library/GD32F30x_standard_peripheral/Source\gd32f30x_timer.c ****         TIMER_CHCTL2(timer_periph) |= (uint32_t)((uint32_t)extpolarity << 4U);
1901:C:/Users/49542/Desktop/GD32F30x_Demo_Suites_V2.0.0/GD32F30x_Demo_Suites_V2.0.0/GD32F30x_Firmware_Library/GD32F30x_standard_peripheral/Source\gd32f30x_timer.c ****         /* reset the CH1MS bit */
1902:C:/Users/49542/Desktop/GD32F30x_Demo_Suites_V2.0.0/GD32F30x_Demo_Suites_V2.0.0/GD32F30x_Firmware_Library/GD32F30x_standard_peripheral/Source\gd32f30x_timer.c ****         TIMER_CHCTL0(timer_periph) &= (~(uint32_t)TIMER_CHCTL0_CH1MS);
1903:C:/Users/49542/Desktop/GD32F30x_Demo_Suites_V2.0.0/GD32F30x_Demo_Suites_V2.0.0/GD32F30x_Firmware_Library/GD32F30x_standard_peripheral/Source\gd32f30x_timer.c ****         /* set the CH1MS bit */
1904:C:/Users/49542/Desktop/GD32F30x_Demo_Suites_V2.0.0/GD32F30x_Demo_Suites_V2.0.0/GD32F30x_Firmware_Library/GD32F30x_standard_peripheral/Source\gd32f30x_timer.c ****         TIMER_CHCTL0(timer_periph) |= (uint32_t)((uint32_t)TIMER_IC_SELECTION_DIRECTTI << 8U);
1905:C:/Users/49542/Desktop/GD32F30x_Demo_Suites_V2.0.0/GD32F30x_Demo_Suites_V2.0.0/GD32F30x_Firmware_Library/GD32F30x_standard_peripheral/Source\gd32f30x_timer.c ****         /* reset the CH1CAPFLT bit */
1906:C:/Users/49542/Desktop/GD32F30x_Demo_Suites_V2.0.0/GD32F30x_Demo_Suites_V2.0.0/GD32F30x_Firmware_Library/GD32F30x_standard_peripheral/Source\gd32f30x_timer.c ****         TIMER_CHCTL0(timer_periph) &= (~(uint32_t)TIMER_CHCTL0_CH1CAPFLT);
1907:C:/Users/49542/Desktop/GD32F30x_Demo_Suites_V2.0.0/GD32F30x_Demo_Suites_V2.0.0/GD32F30x_Firmware_Library/GD32F30x_standard_peripheral/Source\gd32f30x_timer.c ****         /* set the CH1CAPFLT bit */
1908:C:/Users/49542/Desktop/GD32F30x_Demo_Suites_V2.0.0/GD32F30x_Demo_Suites_V2.0.0/GD32F30x_Firmware_Library/GD32F30x_standard_peripheral/Source\gd32f30x_timer.c ****         TIMER_CHCTL0(timer_periph) |= (uint32_t)(extfilter << 8U);
1909:C:/Users/49542/Desktop/GD32F30x_Demo_Suites_V2.0.0/GD32F30x_Demo_Suites_V2.0.0/GD32F30x_Firmware_Library/GD32F30x_standard_peripheral/Source\gd32f30x_timer.c ****         /* set the CH1EN bit */
1910:C:/Users/49542/Desktop/GD32F30x_Demo_Suites_V2.0.0/GD32F30x_Demo_Suites_V2.0.0/GD32F30x_Firmware_Library/GD32F30x_standard_peripheral/Source\gd32f30x_timer.c ****         TIMER_CHCTL2(timer_periph) |= (uint32_t)TIMER_CHCTL2_CH1EN;
1911:C:/Users/49542/Desktop/GD32F30x_Demo_Suites_V2.0.0/GD32F30x_Demo_Suites_V2.0.0/GD32F30x_Firmware_Library/GD32F30x_standard_peripheral/Source\gd32f30x_timer.c ****     }else{
ARM GAS  C:\Users\49542\AppData\Local\Temp\ccEBNRSE.s 			page 95


1912:C:/Users/49542/Desktop/GD32F30x_Demo_Suites_V2.0.0/GD32F30x_Demo_Suites_V2.0.0/GD32F30x_Firmware_Library/GD32F30x_standard_peripheral/Source\gd32f30x_timer.c ****         /* reset the CH0EN bit */
1913:C:/Users/49542/Desktop/GD32F30x_Demo_Suites_V2.0.0/GD32F30x_Demo_Suites_V2.0.0/GD32F30x_Firmware_Library/GD32F30x_standard_peripheral/Source\gd32f30x_timer.c ****         TIMER_CHCTL2(timer_periph) &= (~(uint32_t)TIMER_CHCTL2_CH0EN);
 3462              		.loc 1 1913 0
 3463 0008 006A     		ldr	r0, [r0, #32]
 3464              	.LVL247:
 3465 000a 20F00100 		bic	r0, r0, #1
 3466 000e 2062     		str	r0, [r4, #32]
1914:C:/Users/49542/Desktop/GD32F30x_Demo_Suites_V2.0.0/GD32F30x_Demo_Suites_V2.0.0/GD32F30x_Firmware_Library/GD32F30x_standard_peripheral/Source\gd32f30x_timer.c ****         /* reset the CH0P and CH0NP bits */
1915:C:/Users/49542/Desktop/GD32F30x_Demo_Suites_V2.0.0/GD32F30x_Demo_Suites_V2.0.0/GD32F30x_Firmware_Library/GD32F30x_standard_peripheral/Source\gd32f30x_timer.c ****         TIMER_CHCTL2(timer_periph) &= (~(uint32_t)(TIMER_CHCTL2_CH0P|TIMER_CHCTL2_CH0NP));
 3467              		.loc 1 1915 0
 3468 0010 206A     		ldr	r0, [r4, #32]
 3469 0012 20F00A00 		bic	r0, r0, #10
 3470 0016 2062     		str	r0, [r4, #32]
1916:C:/Users/49542/Desktop/GD32F30x_Demo_Suites_V2.0.0/GD32F30x_Demo_Suites_V2.0.0/GD32F30x_Firmware_Library/GD32F30x_standard_peripheral/Source\gd32f30x_timer.c ****         /* set the CH0P and CH0NP bits */
1917:C:/Users/49542/Desktop/GD32F30x_Demo_Suites_V2.0.0/GD32F30x_Demo_Suites_V2.0.0/GD32F30x_Firmware_Library/GD32F30x_standard_peripheral/Source\gd32f30x_timer.c ****         TIMER_CHCTL2(timer_periph) |= (uint32_t)extpolarity;
 3471              		.loc 1 1917 0
 3472 0018 206A     		ldr	r0, [r4, #32]
 3473 001a 0243     		orrs	r2, r2, r0
 3474              	.LVL248:
 3475 001c 2262     		str	r2, [r4, #32]
1918:C:/Users/49542/Desktop/GD32F30x_Demo_Suites_V2.0.0/GD32F30x_Demo_Suites_V2.0.0/GD32F30x_Firmware_Library/GD32F30x_standard_peripheral/Source\gd32f30x_timer.c ****         /* reset the CH0MS bit */
1919:C:/Users/49542/Desktop/GD32F30x_Demo_Suites_V2.0.0/GD32F30x_Demo_Suites_V2.0.0/GD32F30x_Firmware_Library/GD32F30x_standard_peripheral/Source\gd32f30x_timer.c ****         TIMER_CHCTL0(timer_periph) &= (~(uint32_t)TIMER_CHCTL0_CH0MS);
 3476              		.loc 1 1919 0
 3477 001e A269     		ldr	r2, [r4, #24]
 3478 0020 22F00302 		bic	r2, r2, #3
 3479 0024 A261     		str	r2, [r4, #24]
1920:C:/Users/49542/Desktop/GD32F30x_Demo_Suites_V2.0.0/GD32F30x_Demo_Suites_V2.0.0/GD32F30x_Firmware_Library/GD32F30x_standard_peripheral/Source\gd32f30x_timer.c ****         /* set the CH0MS bit */
1921:C:/Users/49542/Desktop/GD32F30x_Demo_Suites_V2.0.0/GD32F30x_Demo_Suites_V2.0.0/GD32F30x_Firmware_Library/GD32F30x_standard_peripheral/Source\gd32f30x_timer.c ****         TIMER_CHCTL0(timer_periph) |= (uint32_t)TIMER_IC_SELECTION_DIRECTTI;
 3480              		.loc 1 1921 0
 3481 0026 A269     		ldr	r2, [r4, #24]
 3482 0028 42F00102 		orr	r2, r2, #1
 3483 002c A261     		str	r2, [r4, #24]
1922:C:/Users/49542/Desktop/GD32F30x_Demo_Suites_V2.0.0/GD32F30x_Demo_Suites_V2.0.0/GD32F30x_Firmware_Library/GD32F30x_standard_peripheral/Source\gd32f30x_timer.c ****         /* reset the CH0CAPFLT bit */
1923:C:/Users/49542/Desktop/GD32F30x_Demo_Suites_V2.0.0/GD32F30x_Demo_Suites_V2.0.0/GD32F30x_Firmware_Library/GD32F30x_standard_peripheral/Source\gd32f30x_timer.c ****         TIMER_CHCTL0(timer_periph) &= (~(uint32_t)TIMER_CHCTL0_CH0CAPFLT);
 3484              		.loc 1 1923 0
 3485 002e A269     		ldr	r2, [r4, #24]
 3486 0030 22F0F002 		bic	r2, r2, #240
 3487 0034 A261     		str	r2, [r4, #24]
1924:C:/Users/49542/Desktop/GD32F30x_Demo_Suites_V2.0.0/GD32F30x_Demo_Suites_V2.0.0/GD32F30x_Firmware_Library/GD32F30x_standard_peripheral/Source\gd32f30x_timer.c ****         /* reset the CH0CAPFLT bit */
1925:C:/Users/49542/Desktop/GD32F30x_Demo_Suites_V2.0.0/GD32F30x_Demo_Suites_V2.0.0/GD32F30x_Firmware_Library/GD32F30x_standard_peripheral/Source\gd32f30x_timer.c ****         TIMER_CHCTL0(timer_periph) |= (uint32_t)extfilter;
 3488              		.loc 1 1925 0
 3489 0036 A269     		ldr	r2, [r4, #24]
 3490 0038 1343     		orrs	r3, r3, r2
 3491              	.LVL249:
 3492 003a A361     		str	r3, [r4, #24]
1926:C:/Users/49542/Desktop/GD32F30x_Demo_Suites_V2.0.0/GD32F30x_Demo_Suites_V2.0.0/GD32F30x_Firmware_Library/GD32F30x_standard_peripheral/Source\gd32f30x_timer.c ****         /* set the CH0EN bit */
1927:C:/Users/49542/Desktop/GD32F30x_Demo_Suites_V2.0.0/GD32F30x_Demo_Suites_V2.0.0/GD32F30x_Firmware_Library/GD32F30x_standard_peripheral/Source\gd32f30x_timer.c ****         TIMER_CHCTL2(timer_periph) |= (uint32_t)TIMER_CHCTL2_CH0EN;
 3493              		.loc 1 1927 0
 3494 003c 236A     		ldr	r3, [r4, #32]
 3495 003e 43F00103 		orr	r3, r3, #1
 3496 0042 2362     		str	r3, [r4, #32]
 3497              	.L230:
1928:C:/Users/49542/Desktop/GD32F30x_Demo_Suites_V2.0.0/GD32F30x_Demo_Suites_V2.0.0/GD32F30x_Firmware_Library/GD32F30x_standard_peripheral/Source\gd32f30x_timer.c ****     }
1929:C:/Users/49542/Desktop/GD32F30x_Demo_Suites_V2.0.0/GD32F30x_Demo_Suites_V2.0.0/GD32F30x_Firmware_Library/GD32F30x_standard_peripheral/Source\gd32f30x_timer.c ****     /* select TIMER input trigger source */
1930:C:/Users/49542/Desktop/GD32F30x_Demo_Suites_V2.0.0/GD32F30x_Demo_Suites_V2.0.0/GD32F30x_Firmware_Library/GD32F30x_standard_peripheral/Source\gd32f30x_timer.c ****     timer_input_trigger_source_select(timer_periph,extrigger);
 3498              		.loc 1 1930 0
 3499 0044 2046     		mov	r0, r4
ARM GAS  C:\Users\49542\AppData\Local\Temp\ccEBNRSE.s 			page 96


 3500 0046 FFF7FEFF 		bl	timer_input_trigger_source_select
 3501              	.LVL250:
1931:C:/Users/49542/Desktop/GD32F30x_Demo_Suites_V2.0.0/GD32F30x_Demo_Suites_V2.0.0/GD32F30x_Firmware_Library/GD32F30x_standard_peripheral/Source\gd32f30x_timer.c ****     /* reset the SMC bit */
1932:C:/Users/49542/Desktop/GD32F30x_Demo_Suites_V2.0.0/GD32F30x_Demo_Suites_V2.0.0/GD32F30x_Firmware_Library/GD32F30x_standard_peripheral/Source\gd32f30x_timer.c ****     TIMER_SMCFG(timer_periph) &= (~(uint32_t)TIMER_SMCFG_SMC);
 3502              		.loc 1 1932 0
 3503 004a A368     		ldr	r3, [r4, #8]
 3504 004c 23F00703 		bic	r3, r3, #7
 3505 0050 A360     		str	r3, [r4, #8]
1933:C:/Users/49542/Desktop/GD32F30x_Demo_Suites_V2.0.0/GD32F30x_Demo_Suites_V2.0.0/GD32F30x_Firmware_Library/GD32F30x_standard_peripheral/Source\gd32f30x_timer.c ****     /* set the SMC bit */
1934:C:/Users/49542/Desktop/GD32F30x_Demo_Suites_V2.0.0/GD32F30x_Demo_Suites_V2.0.0/GD32F30x_Firmware_Library/GD32F30x_standard_peripheral/Source\gd32f30x_timer.c ****     TIMER_SMCFG(timer_periph) |= (uint32_t)TIMER_SLAVE_MODE_EXTERNAL0;
 3506              		.loc 1 1934 0
 3507 0052 A368     		ldr	r3, [r4, #8]
 3508 0054 43F00703 		orr	r3, r3, #7
 3509 0058 A360     		str	r3, [r4, #8]
1935:C:/Users/49542/Desktop/GD32F30x_Demo_Suites_V2.0.0/GD32F30x_Demo_Suites_V2.0.0/GD32F30x_Firmware_Library/GD32F30x_standard_peripheral/Source\gd32f30x_timer.c **** }
 3510              		.loc 1 1935 0
 3511 005a 10BD     		pop	{r4, pc}
 3512              	.LVL251:
 3513              	.L232:
1896:C:/Users/49542/Desktop/GD32F30x_Demo_Suites_V2.0.0/GD32F30x_Demo_Suites_V2.0.0/GD32F30x_Firmware_Library/GD32F30x_standard_peripheral/Source\gd32f30x_timer.c ****         /* reset the CH1NP bit */
 3514              		.loc 1 1896 0
 3515 005c 006A     		ldr	r0, [r0, #32]
 3516              	.LVL252:
 3517 005e 20F01000 		bic	r0, r0, #16
 3518 0062 2062     		str	r0, [r4, #32]
1898:C:/Users/49542/Desktop/GD32F30x_Demo_Suites_V2.0.0/GD32F30x_Demo_Suites_V2.0.0/GD32F30x_Firmware_Library/GD32F30x_standard_peripheral/Source\gd32f30x_timer.c ****         /* set the CH1NP bit */
 3519              		.loc 1 1898 0
 3520 0064 206A     		ldr	r0, [r4, #32]
 3521 0066 20F0A000 		bic	r0, r0, #160
 3522 006a 2062     		str	r0, [r4, #32]
1900:C:/Users/49542/Desktop/GD32F30x_Demo_Suites_V2.0.0/GD32F30x_Demo_Suites_V2.0.0/GD32F30x_Firmware_Library/GD32F30x_standard_peripheral/Source\gd32f30x_timer.c ****         /* reset the CH1MS bit */
 3523              		.loc 1 1900 0
 3524 006c 206A     		ldr	r0, [r4, #32]
 3525 006e 40EA0212 		orr	r2, r0, r2, lsl #4
 3526              	.LVL253:
 3527 0072 2262     		str	r2, [r4, #32]
1902:C:/Users/49542/Desktop/GD32F30x_Demo_Suites_V2.0.0/GD32F30x_Demo_Suites_V2.0.0/GD32F30x_Firmware_Library/GD32F30x_standard_peripheral/Source\gd32f30x_timer.c ****         /* set the CH1MS bit */
 3528              		.loc 1 1902 0
 3529 0074 A269     		ldr	r2, [r4, #24]
 3530 0076 22F44072 		bic	r2, r2, #768
 3531 007a A261     		str	r2, [r4, #24]
1904:C:/Users/49542/Desktop/GD32F30x_Demo_Suites_V2.0.0/GD32F30x_Demo_Suites_V2.0.0/GD32F30x_Firmware_Library/GD32F30x_standard_peripheral/Source\gd32f30x_timer.c ****         /* reset the CH1CAPFLT bit */
 3532              		.loc 1 1904 0
 3533 007c A269     		ldr	r2, [r4, #24]
 3534 007e 42F48072 		orr	r2, r2, #256
 3535 0082 A261     		str	r2, [r4, #24]
1906:C:/Users/49542/Desktop/GD32F30x_Demo_Suites_V2.0.0/GD32F30x_Demo_Suites_V2.0.0/GD32F30x_Firmware_Library/GD32F30x_standard_peripheral/Source\gd32f30x_timer.c ****         /* set the CH1CAPFLT bit */
 3536              		.loc 1 1906 0
 3537 0084 A269     		ldr	r2, [r4, #24]
 3538 0086 22F47042 		bic	r2, r2, #61440
 3539 008a A261     		str	r2, [r4, #24]
1908:C:/Users/49542/Desktop/GD32F30x_Demo_Suites_V2.0.0/GD32F30x_Demo_Suites_V2.0.0/GD32F30x_Firmware_Library/GD32F30x_standard_peripheral/Source\gd32f30x_timer.c ****         /* set the CH1EN bit */
 3540              		.loc 1 1908 0
 3541 008c A269     		ldr	r2, [r4, #24]
 3542 008e 42EA0323 		orr	r3, r2, r3, lsl #8
 3543              	.LVL254:
 3544 0092 A361     		str	r3, [r4, #24]
ARM GAS  C:\Users\49542\AppData\Local\Temp\ccEBNRSE.s 			page 97


1910:C:/Users/49542/Desktop/GD32F30x_Demo_Suites_V2.0.0/GD32F30x_Demo_Suites_V2.0.0/GD32F30x_Firmware_Library/GD32F30x_standard_peripheral/Source\gd32f30x_timer.c ****     }else{
 3545              		.loc 1 1910 0
 3546 0094 236A     		ldr	r3, [r4, #32]
 3547 0096 43F01003 		orr	r3, r3, #16
 3548 009a 2362     		str	r3, [r4, #32]
 3549 009c D2E7     		b	.L230
 3550              		.cfi_endproc
 3551              	.LFE181:
 3553              		.section	.text.timer_external_clock_mode0_config,"ax",%progbits
 3554              		.align	1
 3555              		.global	timer_external_clock_mode0_config
 3556              		.syntax unified
 3557              		.thumb
 3558              		.thumb_func
 3559              		.fpu fpv4-sp-d16
 3561              	timer_external_clock_mode0_config:
 3562              	.LFB182:
1936:C:/Users/49542/Desktop/GD32F30x_Demo_Suites_V2.0.0/GD32F30x_Demo_Suites_V2.0.0/GD32F30x_Firmware_Library/GD32F30x_standard_peripheral/Source\gd32f30x_timer.c **** 
1937:C:/Users/49542/Desktop/GD32F30x_Demo_Suites_V2.0.0/GD32F30x_Demo_Suites_V2.0.0/GD32F30x_Firmware_Library/GD32F30x_standard_peripheral/Source\gd32f30x_timer.c **** /*!
1938:C:/Users/49542/Desktop/GD32F30x_Demo_Suites_V2.0.0/GD32F30x_Demo_Suites_V2.0.0/GD32F30x_Firmware_Library/GD32F30x_standard_peripheral/Source\gd32f30x_timer.c ****     \brief      configure TIMER the external clock mode0
1939:C:/Users/49542/Desktop/GD32F30x_Demo_Suites_V2.0.0/GD32F30x_Demo_Suites_V2.0.0/GD32F30x_Firmware_Library/GD32F30x_standard_peripheral/Source\gd32f30x_timer.c ****     \param[in]  timer_periph: TIMERx(x=0..4,7,8,11)
1940:C:/Users/49542/Desktop/GD32F30x_Demo_Suites_V2.0.0/GD32F30x_Demo_Suites_V2.0.0/GD32F30x_Firmware_Library/GD32F30x_standard_peripheral/Source\gd32f30x_timer.c ****     \param[in]  extprescaler: 
1941:C:/Users/49542/Desktop/GD32F30x_Demo_Suites_V2.0.0/GD32F30x_Demo_Suites_V2.0.0/GD32F30x_Firmware_Library/GD32F30x_standard_peripheral/Source\gd32f30x_timer.c ****                 only one parameter can be selected which is shown as below:
1942:C:/Users/49542/Desktop/GD32F30x_Demo_Suites_V2.0.0/GD32F30x_Demo_Suites_V2.0.0/GD32F30x_Firmware_Library/GD32F30x_standard_peripheral/Source\gd32f30x_timer.c ****       \arg        TIMER_EXT_TRI_PSC_OFF: no divided
1943:C:/Users/49542/Desktop/GD32F30x_Demo_Suites_V2.0.0/GD32F30x_Demo_Suites_V2.0.0/GD32F30x_Firmware_Library/GD32F30x_standard_peripheral/Source\gd32f30x_timer.c ****       \arg        TIMER_EXT_TRI_PSC_DIV2: divided by 2
1944:C:/Users/49542/Desktop/GD32F30x_Demo_Suites_V2.0.0/GD32F30x_Demo_Suites_V2.0.0/GD32F30x_Firmware_Library/GD32F30x_standard_peripheral/Source\gd32f30x_timer.c ****       \arg        TIMER_EXT_TRI_PSC_DIV4: divided by 4
1945:C:/Users/49542/Desktop/GD32F30x_Demo_Suites_V2.0.0/GD32F30x_Demo_Suites_V2.0.0/GD32F30x_Firmware_Library/GD32F30x_standard_peripheral/Source\gd32f30x_timer.c ****       \arg        TIMER_EXT_TRI_PSC_DIV8: divided by 8
1946:C:/Users/49542/Desktop/GD32F30x_Demo_Suites_V2.0.0/GD32F30x_Demo_Suites_V2.0.0/GD32F30x_Firmware_Library/GD32F30x_standard_peripheral/Source\gd32f30x_timer.c ****     \param[in]  extpolarity: 
1947:C:/Users/49542/Desktop/GD32F30x_Demo_Suites_V2.0.0/GD32F30x_Demo_Suites_V2.0.0/GD32F30x_Firmware_Library/GD32F30x_standard_peripheral/Source\gd32f30x_timer.c ****                 only one parameter can be selected which is shown as below:
1948:C:/Users/49542/Desktop/GD32F30x_Demo_Suites_V2.0.0/GD32F30x_Demo_Suites_V2.0.0/GD32F30x_Firmware_Library/GD32F30x_standard_peripheral/Source\gd32f30x_timer.c ****       \arg        TIMER_ETP_FALLING: active low or falling edge active
1949:C:/Users/49542/Desktop/GD32F30x_Demo_Suites_V2.0.0/GD32F30x_Demo_Suites_V2.0.0/GD32F30x_Firmware_Library/GD32F30x_standard_peripheral/Source\gd32f30x_timer.c ****       \arg        TIMER_ETP_RISING: active high or rising edge active
1950:C:/Users/49542/Desktop/GD32F30x_Demo_Suites_V2.0.0/GD32F30x_Demo_Suites_V2.0.0/GD32F30x_Firmware_Library/GD32F30x_standard_peripheral/Source\gd32f30x_timer.c ****     \param[in]  extfilter: a value between 0 and 15
1951:C:/Users/49542/Desktop/GD32F30x_Demo_Suites_V2.0.0/GD32F30x_Demo_Suites_V2.0.0/GD32F30x_Firmware_Library/GD32F30x_standard_peripheral/Source\gd32f30x_timer.c ****     \param[out] none
1952:C:/Users/49542/Desktop/GD32F30x_Demo_Suites_V2.0.0/GD32F30x_Demo_Suites_V2.0.0/GD32F30x_Firmware_Library/GD32F30x_standard_peripheral/Source\gd32f30x_timer.c ****     \retval     none
1953:C:/Users/49542/Desktop/GD32F30x_Demo_Suites_V2.0.0/GD32F30x_Demo_Suites_V2.0.0/GD32F30x_Firmware_Library/GD32F30x_standard_peripheral/Source\gd32f30x_timer.c **** */
1954:C:/Users/49542/Desktop/GD32F30x_Demo_Suites_V2.0.0/GD32F30x_Demo_Suites_V2.0.0/GD32F30x_Firmware_Library/GD32F30x_standard_peripheral/Source\gd32f30x_timer.c **** void timer_external_clock_mode0_config(uint32_t timer_periph, uint32_t extprescaler,
1955:C:/Users/49542/Desktop/GD32F30x_Demo_Suites_V2.0.0/GD32F30x_Demo_Suites_V2.0.0/GD32F30x_Firmware_Library/GD32F30x_standard_peripheral/Source\gd32f30x_timer.c ****                                        uint32_t extpolarity, uint32_t extfilter)
1956:C:/Users/49542/Desktop/GD32F30x_Demo_Suites_V2.0.0/GD32F30x_Demo_Suites_V2.0.0/GD32F30x_Firmware_Library/GD32F30x_standard_peripheral/Source\gd32f30x_timer.c **** {
 3563              		.loc 1 1956 0
 3564              		.cfi_startproc
 3565              		@ args = 0, pretend = 0, frame = 0
 3566              		@ frame_needed = 0, uses_anonymous_args = 0
 3567              	.LVL255:
 3568 0000 10B5     		push	{r4, lr}
 3569              	.LCFI11:
 3570              		.cfi_def_cfa_offset 8
 3571              		.cfi_offset 4, -8
 3572              		.cfi_offset 14, -4
 3573 0002 0446     		mov	r4, r0
1957:C:/Users/49542/Desktop/GD32F30x_Demo_Suites_V2.0.0/GD32F30x_Demo_Suites_V2.0.0/GD32F30x_Firmware_Library/GD32F30x_standard_peripheral/Source\gd32f30x_timer.c ****     /* configure TIMER external trigger input */
1958:C:/Users/49542/Desktop/GD32F30x_Demo_Suites_V2.0.0/GD32F30x_Demo_Suites_V2.0.0/GD32F30x_Firmware_Library/GD32F30x_standard_peripheral/Source\gd32f30x_timer.c ****     timer_external_trigger_config(timer_periph, extprescaler, extpolarity, extfilter);
 3574              		.loc 1 1958 0
 3575 0004 FFF7FEFF 		bl	timer_external_trigger_config
 3576              	.LVL256:
1959:C:/Users/49542/Desktop/GD32F30x_Demo_Suites_V2.0.0/GD32F30x_Demo_Suites_V2.0.0/GD32F30x_Firmware_Library/GD32F30x_standard_peripheral/Source\gd32f30x_timer.c **** 
1960:C:/Users/49542/Desktop/GD32F30x_Demo_Suites_V2.0.0/GD32F30x_Demo_Suites_V2.0.0/GD32F30x_Firmware_Library/GD32F30x_standard_peripheral/Source\gd32f30x_timer.c ****     /* reset the SMC bit,TRGS bit */
1961:C:/Users/49542/Desktop/GD32F30x_Demo_Suites_V2.0.0/GD32F30x_Demo_Suites_V2.0.0/GD32F30x_Firmware_Library/GD32F30x_standard_peripheral/Source\gd32f30x_timer.c ****     TIMER_SMCFG(timer_periph) &= (~(uint32_t)(TIMER_SMCFG_SMC | TIMER_SMCFG_TRGS));
ARM GAS  C:\Users\49542\AppData\Local\Temp\ccEBNRSE.s 			page 98


 3577              		.loc 1 1961 0
 3578 0008 A368     		ldr	r3, [r4, #8]
 3579 000a 23F07703 		bic	r3, r3, #119
 3580 000e A360     		str	r3, [r4, #8]
1962:C:/Users/49542/Desktop/GD32F30x_Demo_Suites_V2.0.0/GD32F30x_Demo_Suites_V2.0.0/GD32F30x_Firmware_Library/GD32F30x_standard_peripheral/Source\gd32f30x_timer.c ****     /* set the SMC bit,TRGS bit */
1963:C:/Users/49542/Desktop/GD32F30x_Demo_Suites_V2.0.0/GD32F30x_Demo_Suites_V2.0.0/GD32F30x_Firmware_Library/GD32F30x_standard_peripheral/Source\gd32f30x_timer.c ****     TIMER_SMCFG(timer_periph) |= (uint32_t)(TIMER_SLAVE_MODE_EXTERNAL0 | TIMER_SMCFG_TRGSEL_ETIFP);
 3581              		.loc 1 1963 0
 3582 0010 A368     		ldr	r3, [r4, #8]
 3583 0012 43F07703 		orr	r3, r3, #119
 3584 0016 A360     		str	r3, [r4, #8]
1964:C:/Users/49542/Desktop/GD32F30x_Demo_Suites_V2.0.0/GD32F30x_Demo_Suites_V2.0.0/GD32F30x_Firmware_Library/GD32F30x_standard_peripheral/Source\gd32f30x_timer.c **** }
 3585              		.loc 1 1964 0
 3586 0018 10BD     		pop	{r4, pc}
 3587              		.cfi_endproc
 3588              	.LFE182:
 3590              		.section	.text.timer_external_clock_mode1_config,"ax",%progbits
 3591              		.align	1
 3592              		.global	timer_external_clock_mode1_config
 3593              		.syntax unified
 3594              		.thumb
 3595              		.thumb_func
 3596              		.fpu fpv4-sp-d16
 3598              	timer_external_clock_mode1_config:
 3599              	.LFB183:
1965:C:/Users/49542/Desktop/GD32F30x_Demo_Suites_V2.0.0/GD32F30x_Demo_Suites_V2.0.0/GD32F30x_Firmware_Library/GD32F30x_standard_peripheral/Source\gd32f30x_timer.c **** 
1966:C:/Users/49542/Desktop/GD32F30x_Demo_Suites_V2.0.0/GD32F30x_Demo_Suites_V2.0.0/GD32F30x_Firmware_Library/GD32F30x_standard_peripheral/Source\gd32f30x_timer.c **** /*!
1967:C:/Users/49542/Desktop/GD32F30x_Demo_Suites_V2.0.0/GD32F30x_Demo_Suites_V2.0.0/GD32F30x_Firmware_Library/GD32F30x_standard_peripheral/Source\gd32f30x_timer.c ****     \brief      configure TIMER the external clock mode1
1968:C:/Users/49542/Desktop/GD32F30x_Demo_Suites_V2.0.0/GD32F30x_Demo_Suites_V2.0.0/GD32F30x_Firmware_Library/GD32F30x_standard_peripheral/Source\gd32f30x_timer.c ****     \param[in]  timer_periph: TIMERx(x=0..4,7)
1969:C:/Users/49542/Desktop/GD32F30x_Demo_Suites_V2.0.0/GD32F30x_Demo_Suites_V2.0.0/GD32F30x_Firmware_Library/GD32F30x_standard_peripheral/Source\gd32f30x_timer.c ****     \param[in]  extprescaler: 
1970:C:/Users/49542/Desktop/GD32F30x_Demo_Suites_V2.0.0/GD32F30x_Demo_Suites_V2.0.0/GD32F30x_Firmware_Library/GD32F30x_standard_peripheral/Source\gd32f30x_timer.c ****                 only one parameter can be selected which is shown as below:
1971:C:/Users/49542/Desktop/GD32F30x_Demo_Suites_V2.0.0/GD32F30x_Demo_Suites_V2.0.0/GD32F30x_Firmware_Library/GD32F30x_standard_peripheral/Source\gd32f30x_timer.c ****       \arg        TIMER_EXT_TRI_PSC_OFF: no divided
1972:C:/Users/49542/Desktop/GD32F30x_Demo_Suites_V2.0.0/GD32F30x_Demo_Suites_V2.0.0/GD32F30x_Firmware_Library/GD32F30x_standard_peripheral/Source\gd32f30x_timer.c ****       \arg        TIMER_EXT_TRI_PSC_DIV2: divided by 2
1973:C:/Users/49542/Desktop/GD32F30x_Demo_Suites_V2.0.0/GD32F30x_Demo_Suites_V2.0.0/GD32F30x_Firmware_Library/GD32F30x_standard_peripheral/Source\gd32f30x_timer.c ****       \arg        TIMER_EXT_TRI_PSC_DIV4: divided by 4
1974:C:/Users/49542/Desktop/GD32F30x_Demo_Suites_V2.0.0/GD32F30x_Demo_Suites_V2.0.0/GD32F30x_Firmware_Library/GD32F30x_standard_peripheral/Source\gd32f30x_timer.c ****       \arg        TIMER_EXT_TRI_PSC_DIV8: divided by 8
1975:C:/Users/49542/Desktop/GD32F30x_Demo_Suites_V2.0.0/GD32F30x_Demo_Suites_V2.0.0/GD32F30x_Firmware_Library/GD32F30x_standard_peripheral/Source\gd32f30x_timer.c ****     \param[in]  extpolarity: 
1976:C:/Users/49542/Desktop/GD32F30x_Demo_Suites_V2.0.0/GD32F30x_Demo_Suites_V2.0.0/GD32F30x_Firmware_Library/GD32F30x_standard_peripheral/Source\gd32f30x_timer.c ****                 only one parameter can be selected which is shown as below:
1977:C:/Users/49542/Desktop/GD32F30x_Demo_Suites_V2.0.0/GD32F30x_Demo_Suites_V2.0.0/GD32F30x_Firmware_Library/GD32F30x_standard_peripheral/Source\gd32f30x_timer.c ****       \arg        TIMER_ETP_FALLING: active low or falling edge active
1978:C:/Users/49542/Desktop/GD32F30x_Demo_Suites_V2.0.0/GD32F30x_Demo_Suites_V2.0.0/GD32F30x_Firmware_Library/GD32F30x_standard_peripheral/Source\gd32f30x_timer.c ****       \arg        TIMER_ETP_RISING: active high or rising edge active
1979:C:/Users/49542/Desktop/GD32F30x_Demo_Suites_V2.0.0/GD32F30x_Demo_Suites_V2.0.0/GD32F30x_Firmware_Library/GD32F30x_standard_peripheral/Source\gd32f30x_timer.c ****     \param[in]  extfilter: a value between 0 and 15
1980:C:/Users/49542/Desktop/GD32F30x_Demo_Suites_V2.0.0/GD32F30x_Demo_Suites_V2.0.0/GD32F30x_Firmware_Library/GD32F30x_standard_peripheral/Source\gd32f30x_timer.c ****     \param[out] none
1981:C:/Users/49542/Desktop/GD32F30x_Demo_Suites_V2.0.0/GD32F30x_Demo_Suites_V2.0.0/GD32F30x_Firmware_Library/GD32F30x_standard_peripheral/Source\gd32f30x_timer.c ****     \retval     none
1982:C:/Users/49542/Desktop/GD32F30x_Demo_Suites_V2.0.0/GD32F30x_Demo_Suites_V2.0.0/GD32F30x_Firmware_Library/GD32F30x_standard_peripheral/Source\gd32f30x_timer.c **** */
1983:C:/Users/49542/Desktop/GD32F30x_Demo_Suites_V2.0.0/GD32F30x_Demo_Suites_V2.0.0/GD32F30x_Firmware_Library/GD32F30x_standard_peripheral/Source\gd32f30x_timer.c **** void timer_external_clock_mode1_config(uint32_t timer_periph, uint32_t extprescaler,
1984:C:/Users/49542/Desktop/GD32F30x_Demo_Suites_V2.0.0/GD32F30x_Demo_Suites_V2.0.0/GD32F30x_Firmware_Library/GD32F30x_standard_peripheral/Source\gd32f30x_timer.c ****                                        uint32_t extpolarity, uint32_t extfilter)
1985:C:/Users/49542/Desktop/GD32F30x_Demo_Suites_V2.0.0/GD32F30x_Demo_Suites_V2.0.0/GD32F30x_Firmware_Library/GD32F30x_standard_peripheral/Source\gd32f30x_timer.c **** {
 3600              		.loc 1 1985 0
 3601              		.cfi_startproc
 3602              		@ args = 0, pretend = 0, frame = 0
 3603              		@ frame_needed = 0, uses_anonymous_args = 0
 3604              	.LVL257:
 3605 0000 10B5     		push	{r4, lr}
 3606              	.LCFI12:
 3607              		.cfi_def_cfa_offset 8
 3608              		.cfi_offset 4, -8
 3609              		.cfi_offset 14, -4
 3610 0002 0446     		mov	r4, r0
1986:C:/Users/49542/Desktop/GD32F30x_Demo_Suites_V2.0.0/GD32F30x_Demo_Suites_V2.0.0/GD32F30x_Firmware_Library/GD32F30x_standard_peripheral/Source\gd32f30x_timer.c ****     /* configure TIMER external trigger input */
ARM GAS  C:\Users\49542\AppData\Local\Temp\ccEBNRSE.s 			page 99


1987:C:/Users/49542/Desktop/GD32F30x_Demo_Suites_V2.0.0/GD32F30x_Demo_Suites_V2.0.0/GD32F30x_Firmware_Library/GD32F30x_standard_peripheral/Source\gd32f30x_timer.c ****     timer_external_trigger_config(timer_periph, extprescaler, extpolarity, extfilter);
 3611              		.loc 1 1987 0
 3612 0004 FFF7FEFF 		bl	timer_external_trigger_config
 3613              	.LVL258:
1988:C:/Users/49542/Desktop/GD32F30x_Demo_Suites_V2.0.0/GD32F30x_Demo_Suites_V2.0.0/GD32F30x_Firmware_Library/GD32F30x_standard_peripheral/Source\gd32f30x_timer.c **** 
1989:C:/Users/49542/Desktop/GD32F30x_Demo_Suites_V2.0.0/GD32F30x_Demo_Suites_V2.0.0/GD32F30x_Firmware_Library/GD32F30x_standard_peripheral/Source\gd32f30x_timer.c ****     TIMER_SMCFG(timer_periph) |= (uint32_t)TIMER_SMCFG_SMC1;
 3614              		.loc 1 1989 0
 3615 0008 A368     		ldr	r3, [r4, #8]
 3616 000a 43F48043 		orr	r3, r3, #16384
 3617 000e A360     		str	r3, [r4, #8]
1990:C:/Users/49542/Desktop/GD32F30x_Demo_Suites_V2.0.0/GD32F30x_Demo_Suites_V2.0.0/GD32F30x_Firmware_Library/GD32F30x_standard_peripheral/Source\gd32f30x_timer.c **** }
 3618              		.loc 1 1990 0
 3619 0010 10BD     		pop	{r4, pc}
 3620              		.cfi_endproc
 3621              	.LFE183:
 3623              		.section	.text.timer_external_clock_mode1_disable,"ax",%progbits
 3624              		.align	1
 3625              		.global	timer_external_clock_mode1_disable
 3626              		.syntax unified
 3627              		.thumb
 3628              		.thumb_func
 3629              		.fpu fpv4-sp-d16
 3631              	timer_external_clock_mode1_disable:
 3632              	.LFB184:
1991:C:/Users/49542/Desktop/GD32F30x_Demo_Suites_V2.0.0/GD32F30x_Demo_Suites_V2.0.0/GD32F30x_Firmware_Library/GD32F30x_standard_peripheral/Source\gd32f30x_timer.c **** 
1992:C:/Users/49542/Desktop/GD32F30x_Demo_Suites_V2.0.0/GD32F30x_Demo_Suites_V2.0.0/GD32F30x_Firmware_Library/GD32F30x_standard_peripheral/Source\gd32f30x_timer.c **** /*!
1993:C:/Users/49542/Desktop/GD32F30x_Demo_Suites_V2.0.0/GD32F30x_Demo_Suites_V2.0.0/GD32F30x_Firmware_Library/GD32F30x_standard_peripheral/Source\gd32f30x_timer.c ****     \brief      disable TIMER the external clock mode1
1994:C:/Users/49542/Desktop/GD32F30x_Demo_Suites_V2.0.0/GD32F30x_Demo_Suites_V2.0.0/GD32F30x_Firmware_Library/GD32F30x_standard_peripheral/Source\gd32f30x_timer.c ****     \param[in]  timer_periph: TIMERx(x=0..4,7)
1995:C:/Users/49542/Desktop/GD32F30x_Demo_Suites_V2.0.0/GD32F30x_Demo_Suites_V2.0.0/GD32F30x_Firmware_Library/GD32F30x_standard_peripheral/Source\gd32f30x_timer.c ****     \param[out] none
1996:C:/Users/49542/Desktop/GD32F30x_Demo_Suites_V2.0.0/GD32F30x_Demo_Suites_V2.0.0/GD32F30x_Firmware_Library/GD32F30x_standard_peripheral/Source\gd32f30x_timer.c ****     \retval     none
1997:C:/Users/49542/Desktop/GD32F30x_Demo_Suites_V2.0.0/GD32F30x_Demo_Suites_V2.0.0/GD32F30x_Firmware_Library/GD32F30x_standard_peripheral/Source\gd32f30x_timer.c **** */
1998:C:/Users/49542/Desktop/GD32F30x_Demo_Suites_V2.0.0/GD32F30x_Demo_Suites_V2.0.0/GD32F30x_Firmware_Library/GD32F30x_standard_peripheral/Source\gd32f30x_timer.c **** void timer_external_clock_mode1_disable(uint32_t timer_periph)
1999:C:/Users/49542/Desktop/GD32F30x_Demo_Suites_V2.0.0/GD32F30x_Demo_Suites_V2.0.0/GD32F30x_Firmware_Library/GD32F30x_standard_peripheral/Source\gd32f30x_timer.c **** {
 3633              		.loc 1 1999 0
 3634              		.cfi_startproc
 3635              		@ args = 0, pretend = 0, frame = 0
 3636              		@ frame_needed = 0, uses_anonymous_args = 0
 3637              		@ link register save eliminated.
 3638              	.LVL259:
2000:C:/Users/49542/Desktop/GD32F30x_Demo_Suites_V2.0.0/GD32F30x_Demo_Suites_V2.0.0/GD32F30x_Firmware_Library/GD32F30x_standard_peripheral/Source\gd32f30x_timer.c ****     TIMER_SMCFG(timer_periph) &= ~(uint32_t)TIMER_SMCFG_SMC1;
 3639              		.loc 1 2000 0
 3640 0000 8368     		ldr	r3, [r0, #8]
 3641 0002 23F48043 		bic	r3, r3, #16384
 3642 0006 8360     		str	r3, [r0, #8]
2001:C:/Users/49542/Desktop/GD32F30x_Demo_Suites_V2.0.0/GD32F30x_Demo_Suites_V2.0.0/GD32F30x_Firmware_Library/GD32F30x_standard_peripheral/Source\gd32f30x_timer.c **** }
 3643              		.loc 1 2001 0
 3644 0008 7047     		bx	lr
 3645              		.cfi_endproc
 3646              	.LFE184:
 3648              		.section	.text.timer_write_chxval_register_config,"ax",%progbits
 3649              		.align	1
 3650              		.global	timer_write_chxval_register_config
 3651              		.syntax unified
 3652              		.thumb
 3653              		.thumb_func
 3654              		.fpu fpv4-sp-d16
 3656              	timer_write_chxval_register_config:
ARM GAS  C:\Users\49542\AppData\Local\Temp\ccEBNRSE.s 			page 100


 3657              	.LFB185:
2002:C:/Users/49542/Desktop/GD32F30x_Demo_Suites_V2.0.0/GD32F30x_Demo_Suites_V2.0.0/GD32F30x_Firmware_Library/GD32F30x_standard_peripheral/Source\gd32f30x_timer.c **** 
2003:C:/Users/49542/Desktop/GD32F30x_Demo_Suites_V2.0.0/GD32F30x_Demo_Suites_V2.0.0/GD32F30x_Firmware_Library/GD32F30x_standard_peripheral/Source\gd32f30x_timer.c **** /*!
2004:C:/Users/49542/Desktop/GD32F30x_Demo_Suites_V2.0.0/GD32F30x_Demo_Suites_V2.0.0/GD32F30x_Firmware_Library/GD32F30x_standard_peripheral/Source\gd32f30x_timer.c ****     \brief      configure TIMER write CHxVAL register selection
2005:C:/Users/49542/Desktop/GD32F30x_Demo_Suites_V2.0.0/GD32F30x_Demo_Suites_V2.0.0/GD32F30x_Firmware_Library/GD32F30x_standard_peripheral/Source\gd32f30x_timer.c ****     \param[in]  timer_periph: TIMERx(x=0..4,7..13)
2006:C:/Users/49542/Desktop/GD32F30x_Demo_Suites_V2.0.0/GD32F30x_Demo_Suites_V2.0.0/GD32F30x_Firmware_Library/GD32F30x_standard_peripheral/Source\gd32f30x_timer.c ****     \param[in]  ccsel:
2007:C:/Users/49542/Desktop/GD32F30x_Demo_Suites_V2.0.0/GD32F30x_Demo_Suites_V2.0.0/GD32F30x_Firmware_Library/GD32F30x_standard_peripheral/Source\gd32f30x_timer.c ****                 only one parameter can be selected which is shown as below:
2008:C:/Users/49542/Desktop/GD32F30x_Demo_Suites_V2.0.0/GD32F30x_Demo_Suites_V2.0.0/GD32F30x_Firmware_Library/GD32F30x_standard_peripheral/Source\gd32f30x_timer.c ****       \arg        TIMER_CCSEL_DISABLE: no effect
2009:C:/Users/49542/Desktop/GD32F30x_Demo_Suites_V2.0.0/GD32F30x_Demo_Suites_V2.0.0/GD32F30x_Firmware_Library/GD32F30x_standard_peripheral/Source\gd32f30x_timer.c ****       \arg        TIMER_CCSEL_ENABLE: when write the CHxVAL register, if the write value is same as
2010:C:/Users/49542/Desktop/GD32F30x_Demo_Suites_V2.0.0/GD32F30x_Demo_Suites_V2.0.0/GD32F30x_Firmware_Library/GD32F30x_standard_peripheral/Source\gd32f30x_timer.c ****     \param[out] none
2011:C:/Users/49542/Desktop/GD32F30x_Demo_Suites_V2.0.0/GD32F30x_Demo_Suites_V2.0.0/GD32F30x_Firmware_Library/GD32F30x_standard_peripheral/Source\gd32f30x_timer.c ****     \retval     none
2012:C:/Users/49542/Desktop/GD32F30x_Demo_Suites_V2.0.0/GD32F30x_Demo_Suites_V2.0.0/GD32F30x_Firmware_Library/GD32F30x_standard_peripheral/Source\gd32f30x_timer.c **** */
2013:C:/Users/49542/Desktop/GD32F30x_Demo_Suites_V2.0.0/GD32F30x_Demo_Suites_V2.0.0/GD32F30x_Firmware_Library/GD32F30x_standard_peripheral/Source\gd32f30x_timer.c **** void timer_write_chxval_register_config(uint32_t timer_periph, uint16_t ccsel)
2014:C:/Users/49542/Desktop/GD32F30x_Demo_Suites_V2.0.0/GD32F30x_Demo_Suites_V2.0.0/GD32F30x_Firmware_Library/GD32F30x_standard_peripheral/Source\gd32f30x_timer.c **** {
 3658              		.loc 1 2014 0
 3659              		.cfi_startproc
 3660              		@ args = 0, pretend = 0, frame = 0
 3661              		@ frame_needed = 0, uses_anonymous_args = 0
 3662              		@ link register save eliminated.
 3663              	.LVL260:
2015:C:/Users/49542/Desktop/GD32F30x_Demo_Suites_V2.0.0/GD32F30x_Demo_Suites_V2.0.0/GD32F30x_Firmware_Library/GD32F30x_standard_peripheral/Source\gd32f30x_timer.c ****     if(TIMER_CHVSEL_ENABLE == ccsel){
 3664              		.loc 1 2015 0
 3665 0000 0229     		cmp	r1, #2
 3666 0002 07D0     		beq	.L241
2016:C:/Users/49542/Desktop/GD32F30x_Demo_Suites_V2.0.0/GD32F30x_Demo_Suites_V2.0.0/GD32F30x_Firmware_Library/GD32F30x_standard_peripheral/Source\gd32f30x_timer.c ****         TIMER_CFG(timer_periph) |= (uint32_t)TIMER_CFG_CHVSEL;
2017:C:/Users/49542/Desktop/GD32F30x_Demo_Suites_V2.0.0/GD32F30x_Demo_Suites_V2.0.0/GD32F30x_Firmware_Library/GD32F30x_standard_peripheral/Source\gd32f30x_timer.c ****     }else if(TIMER_CHVSEL_DISABLE == ccsel){
 3667              		.loc 1 2017 0
 3668 0004 29B9     		cbnz	r1, .L238
2018:C:/Users/49542/Desktop/GD32F30x_Demo_Suites_V2.0.0/GD32F30x_Demo_Suites_V2.0.0/GD32F30x_Firmware_Library/GD32F30x_standard_peripheral/Source\gd32f30x_timer.c ****         TIMER_CFG(timer_periph) &= ~(uint32_t)TIMER_CFG_CHVSEL;
 3669              		.loc 1 2018 0
 3670 0006 D0F8FC30 		ldr	r3, [r0, #252]
 3671 000a 23F00203 		bic	r3, r3, #2
 3672 000e C0F8FC30 		str	r3, [r0, #252]
 3673              	.L238:
2019:C:/Users/49542/Desktop/GD32F30x_Demo_Suites_V2.0.0/GD32F30x_Demo_Suites_V2.0.0/GD32F30x_Firmware_Library/GD32F30x_standard_peripheral/Source\gd32f30x_timer.c ****     }else{
2020:C:/Users/49542/Desktop/GD32F30x_Demo_Suites_V2.0.0/GD32F30x_Demo_Suites_V2.0.0/GD32F30x_Firmware_Library/GD32F30x_standard_peripheral/Source\gd32f30x_timer.c ****         /* illegal parameters */
2021:C:/Users/49542/Desktop/GD32F30x_Demo_Suites_V2.0.0/GD32F30x_Demo_Suites_V2.0.0/GD32F30x_Firmware_Library/GD32F30x_standard_peripheral/Source\gd32f30x_timer.c ****     }
2022:C:/Users/49542/Desktop/GD32F30x_Demo_Suites_V2.0.0/GD32F30x_Demo_Suites_V2.0.0/GD32F30x_Firmware_Library/GD32F30x_standard_peripheral/Source\gd32f30x_timer.c **** }
 3674              		.loc 1 2022 0
 3675 0012 7047     		bx	lr
 3676              	.L241:
2016:C:/Users/49542/Desktop/GD32F30x_Demo_Suites_V2.0.0/GD32F30x_Demo_Suites_V2.0.0/GD32F30x_Firmware_Library/GD32F30x_standard_peripheral/Source\gd32f30x_timer.c ****     }else if(TIMER_CHVSEL_DISABLE == ccsel){
 3677              		.loc 1 2016 0
 3678 0014 D0F8FC30 		ldr	r3, [r0, #252]
 3679 0018 43F00203 		orr	r3, r3, #2
 3680 001c C0F8FC30 		str	r3, [r0, #252]
 3681 0020 7047     		bx	lr
 3682              		.cfi_endproc
 3683              	.LFE185:
 3685              		.section	.text.timer_output_value_selection_config,"ax",%progbits
 3686              		.align	1
 3687              		.global	timer_output_value_selection_config
 3688              		.syntax unified
 3689              		.thumb
 3690              		.thumb_func
 3691              		.fpu fpv4-sp-d16
 3693              	timer_output_value_selection_config:
ARM GAS  C:\Users\49542\AppData\Local\Temp\ccEBNRSE.s 			page 101


 3694              	.LFB186:
2023:C:/Users/49542/Desktop/GD32F30x_Demo_Suites_V2.0.0/GD32F30x_Demo_Suites_V2.0.0/GD32F30x_Firmware_Library/GD32F30x_standard_peripheral/Source\gd32f30x_timer.c **** 
2024:C:/Users/49542/Desktop/GD32F30x_Demo_Suites_V2.0.0/GD32F30x_Demo_Suites_V2.0.0/GD32F30x_Firmware_Library/GD32F30x_standard_peripheral/Source\gd32f30x_timer.c **** /*!
2025:C:/Users/49542/Desktop/GD32F30x_Demo_Suites_V2.0.0/GD32F30x_Demo_Suites_V2.0.0/GD32F30x_Firmware_Library/GD32F30x_standard_peripheral/Source\gd32f30x_timer.c ****     \brief      configure TIMER output value selection
2026:C:/Users/49542/Desktop/GD32F30x_Demo_Suites_V2.0.0/GD32F30x_Demo_Suites_V2.0.0/GD32F30x_Firmware_Library/GD32F30x_standard_peripheral/Source\gd32f30x_timer.c ****     \param[in]  timer_periph: TIMERx(x=0,7)
2027:C:/Users/49542/Desktop/GD32F30x_Demo_Suites_V2.0.0/GD32F30x_Demo_Suites_V2.0.0/GD32F30x_Firmware_Library/GD32F30x_standard_peripheral/Source\gd32f30x_timer.c ****     \param[in]  outsel:
2028:C:/Users/49542/Desktop/GD32F30x_Demo_Suites_V2.0.0/GD32F30x_Demo_Suites_V2.0.0/GD32F30x_Firmware_Library/GD32F30x_standard_peripheral/Source\gd32f30x_timer.c ****                 only one parameter can be selected which is shown as below:
2029:C:/Users/49542/Desktop/GD32F30x_Demo_Suites_V2.0.0/GD32F30x_Demo_Suites_V2.0.0/GD32F30x_Firmware_Library/GD32F30x_standard_peripheral/Source\gd32f30x_timer.c ****       \arg        TIMER_OUTSEL_DISABLE: no effect
2030:C:/Users/49542/Desktop/GD32F30x_Demo_Suites_V2.0.0/GD32F30x_Demo_Suites_V2.0.0/GD32F30x_Firmware_Library/GD32F30x_standard_peripheral/Source\gd32f30x_timer.c ****       \arg        TIMER_OUTSEL_ENABLE: if POEN and IOS is 0, the output disabled
2031:C:/Users/49542/Desktop/GD32F30x_Demo_Suites_V2.0.0/GD32F30x_Demo_Suites_V2.0.0/GD32F30x_Firmware_Library/GD32F30x_standard_peripheral/Source\gd32f30x_timer.c ****     \param[out] none
2032:C:/Users/49542/Desktop/GD32F30x_Demo_Suites_V2.0.0/GD32F30x_Demo_Suites_V2.0.0/GD32F30x_Firmware_Library/GD32F30x_standard_peripheral/Source\gd32f30x_timer.c ****     \retval     none
2033:C:/Users/49542/Desktop/GD32F30x_Demo_Suites_V2.0.0/GD32F30x_Demo_Suites_V2.0.0/GD32F30x_Firmware_Library/GD32F30x_standard_peripheral/Source\gd32f30x_timer.c **** */
2034:C:/Users/49542/Desktop/GD32F30x_Demo_Suites_V2.0.0/GD32F30x_Demo_Suites_V2.0.0/GD32F30x_Firmware_Library/GD32F30x_standard_peripheral/Source\gd32f30x_timer.c **** void timer_output_value_selection_config(uint32_t timer_periph, uint16_t outsel)
2035:C:/Users/49542/Desktop/GD32F30x_Demo_Suites_V2.0.0/GD32F30x_Demo_Suites_V2.0.0/GD32F30x_Firmware_Library/GD32F30x_standard_peripheral/Source\gd32f30x_timer.c **** {
 3695              		.loc 1 2035 0
 3696              		.cfi_startproc
 3697              		@ args = 0, pretend = 0, frame = 0
 3698              		@ frame_needed = 0, uses_anonymous_args = 0
 3699              		@ link register save eliminated.
 3700              	.LVL261:
2036:C:/Users/49542/Desktop/GD32F30x_Demo_Suites_V2.0.0/GD32F30x_Demo_Suites_V2.0.0/GD32F30x_Firmware_Library/GD32F30x_standard_peripheral/Source\gd32f30x_timer.c ****     if(TIMER_OUTSEL_ENABLE == outsel){
 3701              		.loc 1 2036 0
 3702 0000 0129     		cmp	r1, #1
 3703 0002 07D0     		beq	.L245
2037:C:/Users/49542/Desktop/GD32F30x_Demo_Suites_V2.0.0/GD32F30x_Demo_Suites_V2.0.0/GD32F30x_Firmware_Library/GD32F30x_standard_peripheral/Source\gd32f30x_timer.c ****         TIMER_CFG(timer_periph) |= (uint32_t)TIMER_CFG_OUTSEL;
2038:C:/Users/49542/Desktop/GD32F30x_Demo_Suites_V2.0.0/GD32F30x_Demo_Suites_V2.0.0/GD32F30x_Firmware_Library/GD32F30x_standard_peripheral/Source\gd32f30x_timer.c ****     }else if(TIMER_OUTSEL_DISABLE == outsel){
 3704              		.loc 1 2038 0
 3705 0004 29B9     		cbnz	r1, .L242
2039:C:/Users/49542/Desktop/GD32F30x_Demo_Suites_V2.0.0/GD32F30x_Demo_Suites_V2.0.0/GD32F30x_Firmware_Library/GD32F30x_standard_peripheral/Source\gd32f30x_timer.c ****         TIMER_CFG(timer_periph) &= ~(uint32_t)TIMER_CFG_OUTSEL;
 3706              		.loc 1 2039 0
 3707 0006 D0F8FC30 		ldr	r3, [r0, #252]
 3708 000a 23F00103 		bic	r3, r3, #1
 3709 000e C0F8FC30 		str	r3, [r0, #252]
 3710              	.L242:
2040:C:/Users/49542/Desktop/GD32F30x_Demo_Suites_V2.0.0/GD32F30x_Demo_Suites_V2.0.0/GD32F30x_Firmware_Library/GD32F30x_standard_peripheral/Source\gd32f30x_timer.c ****     }else{
2041:C:/Users/49542/Desktop/GD32F30x_Demo_Suites_V2.0.0/GD32F30x_Demo_Suites_V2.0.0/GD32F30x_Firmware_Library/GD32F30x_standard_peripheral/Source\gd32f30x_timer.c ****         /* illegal parameters */
2042:C:/Users/49542/Desktop/GD32F30x_Demo_Suites_V2.0.0/GD32F30x_Demo_Suites_V2.0.0/GD32F30x_Firmware_Library/GD32F30x_standard_peripheral/Source\gd32f30x_timer.c ****     }
2043:C:/Users/49542/Desktop/GD32F30x_Demo_Suites_V2.0.0/GD32F30x_Demo_Suites_V2.0.0/GD32F30x_Firmware_Library/GD32F30x_standard_peripheral/Source\gd32f30x_timer.c **** }
 3711              		.loc 1 2043 0
 3712 0012 7047     		bx	lr
 3713              	.L245:
2037:C:/Users/49542/Desktop/GD32F30x_Demo_Suites_V2.0.0/GD32F30x_Demo_Suites_V2.0.0/GD32F30x_Firmware_Library/GD32F30x_standard_peripheral/Source\gd32f30x_timer.c ****     }else if(TIMER_OUTSEL_DISABLE == outsel){
 3714              		.loc 1 2037 0
 3715 0014 D0F8FC30 		ldr	r3, [r0, #252]
 3716 0018 43F00103 		orr	r3, r3, #1
 3717 001c C0F8FC30 		str	r3, [r0, #252]
 3718 0020 7047     		bx	lr
 3719              		.cfi_endproc
 3720              	.LFE186:
 3722              		.text
 3723              	.Letext0:
 3724              		.file 2 "c:\\users\\49542\\opensourcetools\\gnu tools arm embedded\\7 2018-q2-update\\arm-none-eab
 3725              		.file 3 "c:\\users\\49542\\opensourcetools\\gnu tools arm embedded\\7 2018-q2-update\\arm-none-eab
 3726              		.file 4 "C:/Users/49542/Desktop/GD32F30x_Demo_Suites_V2.0.0/GD32F30x_Demo_Suites_V2.0.0/GD32F30x_F
 3727              		.file 5 "C:/Users/49542/Desktop/GD32F30x_Demo_Suites_V2.0.0/GD32F30x_Demo_Suites_V2.0.0/GD32F30x_F
 3728              		.file 6 "C:/Users/49542/Desktop/GD32F30x_Demo_Suites_V2.0.0/GD32F30x_Demo_Suites_V2.0.0/GD32F30x_F
 3729              		.file 7 "C:/Users/49542/Desktop/GD32F30x_Demo_Suites_V2.0.0/GD32F30x_Demo_Suites_V2.0.0/GD32F30x_F
ARM GAS  C:\Users\49542\AppData\Local\Temp\ccEBNRSE.s 			page 102


 3730              		.file 8 "c:\\users\\49542\\opensourcetools\\gnu tools arm embedded\\7 2018-q2-update\\arm-none-eab
 3731              		.file 9 "c:\\users\\49542\\opensourcetools\\gnu tools arm embedded\\7 2018-q2-update\\arm-none-eab
 3732              		.file 10 "c:\\users\\49542\\opensourcetools\\gnu tools arm embedded\\7 2018-q2-update\\lib\\gcc\\a
 3733              		.file 11 "c:\\users\\49542\\opensourcetools\\gnu tools arm embedded\\7 2018-q2-update\\arm-none-ea
 3734              		.file 12 "c:\\users\\49542\\opensourcetools\\gnu tools arm embedded\\7 2018-q2-update\\arm-none-ea
 3735              		.file 13 "C:/Users/49542/Desktop/GD32F30x_Demo_Suites_V2.0.0/GD32F30x_Demo_Suites_V2.0.0/GD32F30x_
ARM GAS  C:\Users\49542\AppData\Local\Temp\ccEBNRSE.s 			page 103


DEFINED SYMBOLS
                            *ABS*:00000000 gd32f30x_timer.c
C:\Users\49542\AppData\Local\Temp\ccEBNRSE.s:18     .text.timer_deinit:00000000 $t
C:\Users\49542\AppData\Local\Temp\ccEBNRSE.s:25     .text.timer_deinit:00000000 timer_deinit
C:\Users\49542\AppData\Local\Temp\ccEBNRSE.s:270    .text.timer_deinit:00000170 $d
C:\Users\49542\AppData\Local\Temp\ccEBNRSE.s:278    .text.timer_struct_para_init:00000000 $t
C:\Users\49542\AppData\Local\Temp\ccEBNRSE.s:285    .text.timer_struct_para_init:00000000 timer_struct_para_init
C:\Users\49542\AppData\Local\Temp\ccEBNRSE.s:313    .text.timer_init:00000000 $t
C:\Users\49542\AppData\Local\Temp\ccEBNRSE.s:320    .text.timer_init:00000000 timer_init
C:\Users\49542\AppData\Local\Temp\ccEBNRSE.s:413    .text.timer_init:00000088 $d
C:\Users\49542\AppData\Local\Temp\ccEBNRSE.s:419    .text.timer_enable:00000000 $t
C:\Users\49542\AppData\Local\Temp\ccEBNRSE.s:426    .text.timer_enable:00000000 timer_enable
C:\Users\49542\AppData\Local\Temp\ccEBNRSE.s:444    .text.timer_disable:00000000 $t
C:\Users\49542\AppData\Local\Temp\ccEBNRSE.s:451    .text.timer_disable:00000000 timer_disable
C:\Users\49542\AppData\Local\Temp\ccEBNRSE.s:469    .text.timer_auto_reload_shadow_enable:00000000 $t
C:\Users\49542\AppData\Local\Temp\ccEBNRSE.s:476    .text.timer_auto_reload_shadow_enable:00000000 timer_auto_reload_shadow_enable
C:\Users\49542\AppData\Local\Temp\ccEBNRSE.s:494    .text.timer_auto_reload_shadow_disable:00000000 $t
C:\Users\49542\AppData\Local\Temp\ccEBNRSE.s:501    .text.timer_auto_reload_shadow_disable:00000000 timer_auto_reload_shadow_disable
C:\Users\49542\AppData\Local\Temp\ccEBNRSE.s:519    .text.timer_update_event_enable:00000000 $t
C:\Users\49542\AppData\Local\Temp\ccEBNRSE.s:526    .text.timer_update_event_enable:00000000 timer_update_event_enable
C:\Users\49542\AppData\Local\Temp\ccEBNRSE.s:544    .text.timer_update_event_disable:00000000 $t
C:\Users\49542\AppData\Local\Temp\ccEBNRSE.s:551    .text.timer_update_event_disable:00000000 timer_update_event_disable
C:\Users\49542\AppData\Local\Temp\ccEBNRSE.s:569    .text.timer_counter_alignment:00000000 $t
C:\Users\49542\AppData\Local\Temp\ccEBNRSE.s:576    .text.timer_counter_alignment:00000000 timer_counter_alignment
C:\Users\49542\AppData\Local\Temp\ccEBNRSE.s:599    .text.timer_counter_up_direction:00000000 $t
C:\Users\49542\AppData\Local\Temp\ccEBNRSE.s:606    .text.timer_counter_up_direction:00000000 timer_counter_up_direction
C:\Users\49542\AppData\Local\Temp\ccEBNRSE.s:624    .text.timer_counter_down_direction:00000000 $t
C:\Users\49542\AppData\Local\Temp\ccEBNRSE.s:631    .text.timer_counter_down_direction:00000000 timer_counter_down_direction
C:\Users\49542\AppData\Local\Temp\ccEBNRSE.s:649    .text.timer_prescaler_config:00000000 $t
C:\Users\49542\AppData\Local\Temp\ccEBNRSE.s:656    .text.timer_prescaler_config:00000000 timer_prescaler_config
C:\Users\49542\AppData\Local\Temp\ccEBNRSE.s:679    .text.timer_repetition_value_config:00000000 $t
C:\Users\49542\AppData\Local\Temp\ccEBNRSE.s:686    .text.timer_repetition_value_config:00000000 timer_repetition_value_config
C:\Users\49542\AppData\Local\Temp\ccEBNRSE.s:702    .text.timer_autoreload_value_config:00000000 $t
C:\Users\49542\AppData\Local\Temp\ccEBNRSE.s:709    .text.timer_autoreload_value_config:00000000 timer_autoreload_value_config
C:\Users\49542\AppData\Local\Temp\ccEBNRSE.s:725    .text.timer_counter_value_config:00000000 $t
C:\Users\49542\AppData\Local\Temp\ccEBNRSE.s:732    .text.timer_counter_value_config:00000000 timer_counter_value_config
C:\Users\49542\AppData\Local\Temp\ccEBNRSE.s:748    .text.timer_counter_read:00000000 $t
C:\Users\49542\AppData\Local\Temp\ccEBNRSE.s:755    .text.timer_counter_read:00000000 timer_counter_read
C:\Users\49542\AppData\Local\Temp\ccEBNRSE.s:772    .text.timer_prescaler_read:00000000 $t
C:\Users\49542\AppData\Local\Temp\ccEBNRSE.s:779    .text.timer_prescaler_read:00000000 timer_prescaler_read
C:\Users\49542\AppData\Local\Temp\ccEBNRSE.s:797    .text.timer_single_pulse_mode_config:00000000 $t
C:\Users\49542\AppData\Local\Temp\ccEBNRSE.s:804    .text.timer_single_pulse_mode_config:00000000 timer_single_pulse_mode_config
C:\Users\49542\AppData\Local\Temp\ccEBNRSE.s:837    .text.timer_update_source_config:00000000 $t
C:\Users\49542\AppData\Local\Temp\ccEBNRSE.s:844    .text.timer_update_source_config:00000000 timer_update_source_config
C:\Users\49542\AppData\Local\Temp\ccEBNRSE.s:877    .text.timer_interrupt_enable:00000000 $t
C:\Users\49542\AppData\Local\Temp\ccEBNRSE.s:884    .text.timer_interrupt_enable:00000000 timer_interrupt_enable
C:\Users\49542\AppData\Local\Temp\ccEBNRSE.s:903    .text.timer_interrupt_disable:00000000 $t
C:\Users\49542\AppData\Local\Temp\ccEBNRSE.s:910    .text.timer_interrupt_disable:00000000 timer_interrupt_disable
C:\Users\49542\AppData\Local\Temp\ccEBNRSE.s:929    .text.timer_interrupt_flag_get:00000000 $t
C:\Users\49542\AppData\Local\Temp\ccEBNRSE.s:936    .text.timer_interrupt_flag_get:00000000 timer_interrupt_flag_get
C:\Users\49542\AppData\Local\Temp\ccEBNRSE.s:974    .text.timer_interrupt_flag_clear:00000000 $t
C:\Users\49542\AppData\Local\Temp\ccEBNRSE.s:981    .text.timer_interrupt_flag_clear:00000000 timer_interrupt_flag_clear
C:\Users\49542\AppData\Local\Temp\ccEBNRSE.s:1000   .text.timer_flag_get:00000000 $t
C:\Users\49542\AppData\Local\Temp\ccEBNRSE.s:1007   .text.timer_flag_get:00000000 timer_flag_get
C:\Users\49542\AppData\Local\Temp\ccEBNRSE.s:1034   .text.timer_flag_clear:00000000 $t
C:\Users\49542\AppData\Local\Temp\ccEBNRSE.s:1041   .text.timer_flag_clear:00000000 timer_flag_clear
C:\Users\49542\AppData\Local\Temp\ccEBNRSE.s:1060   .text.timer_dma_enable:00000000 $t
ARM GAS  C:\Users\49542\AppData\Local\Temp\ccEBNRSE.s 			page 104


C:\Users\49542\AppData\Local\Temp\ccEBNRSE.s:1067   .text.timer_dma_enable:00000000 timer_dma_enable
C:\Users\49542\AppData\Local\Temp\ccEBNRSE.s:1086   .text.timer_dma_disable:00000000 $t
C:\Users\49542\AppData\Local\Temp\ccEBNRSE.s:1093   .text.timer_dma_disable:00000000 timer_dma_disable
C:\Users\49542\AppData\Local\Temp\ccEBNRSE.s:1112   .text.timer_channel_dma_request_source_select:00000000 $t
C:\Users\49542\AppData\Local\Temp\ccEBNRSE.s:1119   .text.timer_channel_dma_request_source_select:00000000 timer_channel_dma_request_source_select
C:\Users\49542\AppData\Local\Temp\ccEBNRSE.s:1152   .text.timer_dma_transfer_config:00000000 $t
C:\Users\49542\AppData\Local\Temp\ccEBNRSE.s:1159   .text.timer_dma_transfer_config:00000000 timer_dma_transfer_config
C:\Users\49542\AppData\Local\Temp\ccEBNRSE.s:1184   .text.timer_event_software_generate:00000000 $t
C:\Users\49542\AppData\Local\Temp\ccEBNRSE.s:1191   .text.timer_event_software_generate:00000000 timer_event_software_generate
C:\Users\49542\AppData\Local\Temp\ccEBNRSE.s:1210   .text.timer_break_struct_para_init:00000000 $t
C:\Users\49542\AppData\Local\Temp\ccEBNRSE.s:1217   .text.timer_break_struct_para_init:00000000 timer_break_struct_para_init
C:\Users\49542\AppData\Local\Temp\ccEBNRSE.s:1246   .text.timer_break_config:00000000 $t
C:\Users\49542\AppData\Local\Temp\ccEBNRSE.s:1253   .text.timer_break_config:00000000 timer_break_config
C:\Users\49542\AppData\Local\Temp\ccEBNRSE.s:1304   .text.timer_break_enable:00000000 $t
C:\Users\49542\AppData\Local\Temp\ccEBNRSE.s:1311   .text.timer_break_enable:00000000 timer_break_enable
C:\Users\49542\AppData\Local\Temp\ccEBNRSE.s:1329   .text.timer_break_disable:00000000 $t
C:\Users\49542\AppData\Local\Temp\ccEBNRSE.s:1336   .text.timer_break_disable:00000000 timer_break_disable
C:\Users\49542\AppData\Local\Temp\ccEBNRSE.s:1354   .text.timer_automatic_output_enable:00000000 $t
C:\Users\49542\AppData\Local\Temp\ccEBNRSE.s:1361   .text.timer_automatic_output_enable:00000000 timer_automatic_output_enable
C:\Users\49542\AppData\Local\Temp\ccEBNRSE.s:1379   .text.timer_automatic_output_disable:00000000 $t
C:\Users\49542\AppData\Local\Temp\ccEBNRSE.s:1386   .text.timer_automatic_output_disable:00000000 timer_automatic_output_disable
C:\Users\49542\AppData\Local\Temp\ccEBNRSE.s:1404   .text.timer_primary_output_config:00000000 $t
C:\Users\49542\AppData\Local\Temp\ccEBNRSE.s:1411   .text.timer_primary_output_config:00000000 timer_primary_output_config
C:\Users\49542\AppData\Local\Temp\ccEBNRSE.s:1438   .text.timer_channel_control_shadow_config:00000000 $t
C:\Users\49542\AppData\Local\Temp\ccEBNRSE.s:1445   .text.timer_channel_control_shadow_config:00000000 timer_channel_control_shadow_config
C:\Users\49542\AppData\Local\Temp\ccEBNRSE.s:1472   .text.timer_channel_control_shadow_update_config:00000000 $t
C:\Users\49542\AppData\Local\Temp\ccEBNRSE.s:1479   .text.timer_channel_control_shadow_update_config:00000000 timer_channel_control_shadow_update_config
C:\Users\49542\AppData\Local\Temp\ccEBNRSE.s:1512   .text.timer_channel_output_struct_para_init:00000000 $t
C:\Users\49542\AppData\Local\Temp\ccEBNRSE.s:1519   .text.timer_channel_output_struct_para_init:00000000 timer_channel_output_struct_para_init
C:\Users\49542\AppData\Local\Temp\ccEBNRSE.s:1546   .text.timer_channel_output_config:00000000 $t
C:\Users\49542\AppData\Local\Temp\ccEBNRSE.s:1553   .text.timer_channel_output_config:00000000 timer_channel_output_config
C:\Users\49542\AppData\Local\Temp\ccEBNRSE.s:1566   .text.timer_channel_output_config:0000000a $d
C:\Users\49542\AppData\Local\Temp\ccEBNRSE.s:1570   .text.timer_channel_output_config:00000012 $t
C:\Users\49542\AppData\Local\Temp\ccEBNRSE.s:1836   .text.timer_channel_output_config:000001e4 $d
C:\Users\49542\AppData\Local\Temp\ccEBNRSE.s:1841   .text.timer_channel_output_mode_config:00000000 $t
C:\Users\49542\AppData\Local\Temp\ccEBNRSE.s:1848   .text.timer_channel_output_mode_config:00000000 timer_channel_output_mode_config
C:\Users\49542\AppData\Local\Temp\ccEBNRSE.s:1861   .text.timer_channel_output_mode_config:00000008 $d
C:\Users\49542\AppData\Local\Temp\ccEBNRSE.s:1865   .text.timer_channel_output_mode_config:0000000c $t
C:\Users\49542\AppData\Local\Temp\ccEBNRSE.s:1922   .text.timer_channel_output_pulse_value_config:00000000 $t
C:\Users\49542\AppData\Local\Temp\ccEBNRSE.s:1929   .text.timer_channel_output_pulse_value_config:00000000 timer_channel_output_pulse_value_config
C:\Users\49542\AppData\Local\Temp\ccEBNRSE.s:1942   .text.timer_channel_output_pulse_value_config:00000008 $d
C:\Users\49542\AppData\Local\Temp\ccEBNRSE.s:1946   .text.timer_channel_output_pulse_value_config:0000000c $t
C:\Users\49542\AppData\Local\Temp\ccEBNRSE.s:1972   .text.timer_channel_output_shadow_config:00000000 $t
C:\Users\49542\AppData\Local\Temp\ccEBNRSE.s:1979   .text.timer_channel_output_shadow_config:00000000 timer_channel_output_shadow_config
C:\Users\49542\AppData\Local\Temp\ccEBNRSE.s:1992   .text.timer_channel_output_shadow_config:00000008 $d
C:\Users\49542\AppData\Local\Temp\ccEBNRSE.s:1996   .text.timer_channel_output_shadow_config:0000000c $t
C:\Users\49542\AppData\Local\Temp\ccEBNRSE.s:2053   .text.timer_channel_output_fast_config:00000000 $t
C:\Users\49542\AppData\Local\Temp\ccEBNRSE.s:2060   .text.timer_channel_output_fast_config:00000000 timer_channel_output_fast_config
C:\Users\49542\AppData\Local\Temp\ccEBNRSE.s:2073   .text.timer_channel_output_fast_config:00000008 $d
C:\Users\49542\AppData\Local\Temp\ccEBNRSE.s:2077   .text.timer_channel_output_fast_config:0000000c $t
C:\Users\49542\AppData\Local\Temp\ccEBNRSE.s:2134   .text.timer_channel_output_clear_config:00000000 $t
C:\Users\49542\AppData\Local\Temp\ccEBNRSE.s:2141   .text.timer_channel_output_clear_config:00000000 timer_channel_output_clear_config
C:\Users\49542\AppData\Local\Temp\ccEBNRSE.s:2154   .text.timer_channel_output_clear_config:00000008 $d
C:\Users\49542\AppData\Local\Temp\ccEBNRSE.s:2158   .text.timer_channel_output_clear_config:0000000c $t
C:\Users\49542\AppData\Local\Temp\ccEBNRSE.s:2215   .text.timer_channel_output_polarity_config:00000000 $t
C:\Users\49542\AppData\Local\Temp\ccEBNRSE.s:2222   .text.timer_channel_output_polarity_config:00000000 timer_channel_output_polarity_config
C:\Users\49542\AppData\Local\Temp\ccEBNRSE.s:2235   .text.timer_channel_output_polarity_config:00000008 $d
ARM GAS  C:\Users\49542\AppData\Local\Temp\ccEBNRSE.s 			page 105


C:\Users\49542\AppData\Local\Temp\ccEBNRSE.s:2239   .text.timer_channel_output_polarity_config:0000000c $t
C:\Users\49542\AppData\Local\Temp\ccEBNRSE.s:2296   .text.timer_channel_complementary_output_polarity_config:00000000 $t
C:\Users\49542\AppData\Local\Temp\ccEBNRSE.s:2303   .text.timer_channel_complementary_output_polarity_config:00000000 timer_channel_complementary_output_polarity_config
C:\Users\49542\AppData\Local\Temp\ccEBNRSE.s:2360   .text.timer_channel_output_state_config:00000000 $t
C:\Users\49542\AppData\Local\Temp\ccEBNRSE.s:2367   .text.timer_channel_output_state_config:00000000 timer_channel_output_state_config
C:\Users\49542\AppData\Local\Temp\ccEBNRSE.s:2380   .text.timer_channel_output_state_config:00000008 $d
C:\Users\49542\AppData\Local\Temp\ccEBNRSE.s:2384   .text.timer_channel_output_state_config:0000000c $t
C:\Users\49542\AppData\Local\Temp\ccEBNRSE.s:2441   .text.timer_channel_complementary_output_state_config:00000000 $t
C:\Users\49542\AppData\Local\Temp\ccEBNRSE.s:2448   .text.timer_channel_complementary_output_state_config:00000000 timer_channel_complementary_output_state_config
C:\Users\49542\AppData\Local\Temp\ccEBNRSE.s:2505   .text.timer_channel_input_struct_para_init:00000000 $t
C:\Users\49542\AppData\Local\Temp\ccEBNRSE.s:2512   .text.timer_channel_input_struct_para_init:00000000 timer_channel_input_struct_para_init
C:\Users\49542\AppData\Local\Temp\ccEBNRSE.s:2536   .text.timer_channel_input_capture_prescaler_config:00000000 $t
C:\Users\49542\AppData\Local\Temp\ccEBNRSE.s:2543   .text.timer_channel_input_capture_prescaler_config:00000000 timer_channel_input_capture_prescaler_config
C:\Users\49542\AppData\Local\Temp\ccEBNRSE.s:2556   .text.timer_channel_input_capture_prescaler_config:00000008 $d
C:\Users\49542\AppData\Local\Temp\ccEBNRSE.s:2560   .text.timer_channel_input_capture_prescaler_config:0000000c $t
C:\Users\49542\AppData\Local\Temp\ccEBNRSE.s:2617   .text.timer_input_capture_config:00000000 $t
C:\Users\49542\AppData\Local\Temp\ccEBNRSE.s:2624   .text.timer_input_capture_config:00000000 timer_input_capture_config
C:\Users\49542\AppData\Local\Temp\ccEBNRSE.s:2641   .text.timer_input_capture_config:0000000a $d
C:\Users\49542\AppData\Local\Temp\ccEBNRSE.s:2645   .text.timer_input_capture_config:0000000e $t
C:\Users\49542\AppData\Local\Temp\ccEBNRSE.s:2809   .text.timer_channel_capture_value_register_read:00000000 $t
C:\Users\49542\AppData\Local\Temp\ccEBNRSE.s:2816   .text.timer_channel_capture_value_register_read:00000000 timer_channel_capture_value_register_read
C:\Users\49542\AppData\Local\Temp\ccEBNRSE.s:2829   .text.timer_channel_capture_value_register_read:00000008 $d
C:\Users\49542\AppData\Local\Temp\ccEBNRSE.s:2833   .text.timer_channel_capture_value_register_read:0000000c $t
C:\Users\49542\AppData\Local\Temp\ccEBNRSE.s:2872   .text.timer_input_pwm_capture_config:00000000 $t
C:\Users\49542\AppData\Local\Temp\ccEBNRSE.s:2879   .text.timer_input_pwm_capture_config:00000000 timer_input_pwm_capture_config
C:\Users\49542\AppData\Local\Temp\ccEBNRSE.s:3101   .text.timer_hall_mode_config:00000000 $t
C:\Users\49542\AppData\Local\Temp\ccEBNRSE.s:3108   .text.timer_hall_mode_config:00000000 timer_hall_mode_config
C:\Users\49542\AppData\Local\Temp\ccEBNRSE.s:3141   .text.timer_input_trigger_source_select:00000000 $t
C:\Users\49542\AppData\Local\Temp\ccEBNRSE.s:3148   .text.timer_input_trigger_source_select:00000000 timer_input_trigger_source_select
C:\Users\49542\AppData\Local\Temp\ccEBNRSE.s:3171   .text.timer_master_output_trigger_source_select:00000000 $t
C:\Users\49542\AppData\Local\Temp\ccEBNRSE.s:3178   .text.timer_master_output_trigger_source_select:00000000 timer_master_output_trigger_source_select
C:\Users\49542\AppData\Local\Temp\ccEBNRSE.s:3201   .text.timer_slave_mode_select:00000000 $t
C:\Users\49542\AppData\Local\Temp\ccEBNRSE.s:3208   .text.timer_slave_mode_select:00000000 timer_slave_mode_select
C:\Users\49542\AppData\Local\Temp\ccEBNRSE.s:3231   .text.timer_master_slave_mode_config:00000000 $t
C:\Users\49542\AppData\Local\Temp\ccEBNRSE.s:3238   .text.timer_master_slave_mode_config:00000000 timer_master_slave_mode_config
C:\Users\49542\AppData\Local\Temp\ccEBNRSE.s:3271   .text.timer_external_trigger_config:00000000 $t
C:\Users\49542\AppData\Local\Temp\ccEBNRSE.s:3278   .text.timer_external_trigger_config:00000000 timer_external_trigger_config
C:\Users\49542\AppData\Local\Temp\ccEBNRSE.s:3315   .text.timer_quadrature_decoder_mode_config:00000000 $t
C:\Users\49542\AppData\Local\Temp\ccEBNRSE.s:3322   .text.timer_quadrature_decoder_mode_config:00000000 timer_quadrature_decoder_mode_config
C:\Users\49542\AppData\Local\Temp\ccEBNRSE.s:3377   .text.timer_internal_clock_config:00000000 $t
C:\Users\49542\AppData\Local\Temp\ccEBNRSE.s:3384   .text.timer_internal_clock_config:00000000 timer_internal_clock_config
C:\Users\49542\AppData\Local\Temp\ccEBNRSE.s:3402   .text.timer_internal_trigger_as_external_clock_config:00000000 $t
C:\Users\49542\AppData\Local\Temp\ccEBNRSE.s:3409   .text.timer_internal_trigger_as_external_clock_config:00000000 timer_internal_trigger_as_external_clock_config
C:\Users\49542\AppData\Local\Temp\ccEBNRSE.s:3439   .text.timer_external_trigger_as_external_clock_config:00000000 $t
C:\Users\49542\AppData\Local\Temp\ccEBNRSE.s:3446   .text.timer_external_trigger_as_external_clock_config:00000000 timer_external_trigger_as_external_clock_config
C:\Users\49542\AppData\Local\Temp\ccEBNRSE.s:3554   .text.timer_external_clock_mode0_config:00000000 $t
C:\Users\49542\AppData\Local\Temp\ccEBNRSE.s:3561   .text.timer_external_clock_mode0_config:00000000 timer_external_clock_mode0_config
C:\Users\49542\AppData\Local\Temp\ccEBNRSE.s:3591   .text.timer_external_clock_mode1_config:00000000 $t
C:\Users\49542\AppData\Local\Temp\ccEBNRSE.s:3598   .text.timer_external_clock_mode1_config:00000000 timer_external_clock_mode1_config
C:\Users\49542\AppData\Local\Temp\ccEBNRSE.s:3624   .text.timer_external_clock_mode1_disable:00000000 $t
C:\Users\49542\AppData\Local\Temp\ccEBNRSE.s:3631   .text.timer_external_clock_mode1_disable:00000000 timer_external_clock_mode1_disable
C:\Users\49542\AppData\Local\Temp\ccEBNRSE.s:3649   .text.timer_write_chxval_register_config:00000000 $t
C:\Users\49542\AppData\Local\Temp\ccEBNRSE.s:3656   .text.timer_write_chxval_register_config:00000000 timer_write_chxval_register_config
C:\Users\49542\AppData\Local\Temp\ccEBNRSE.s:3686   .text.timer_output_value_selection_config:00000000 $t
C:\Users\49542\AppData\Local\Temp\ccEBNRSE.s:3693   .text.timer_output_value_selection_config:00000000 timer_output_value_selection_config

UNDEFINED SYMBOLS
ARM GAS  C:\Users\49542\AppData\Local\Temp\ccEBNRSE.s 			page 106


rcu_periph_reset_enable
rcu_periph_reset_disable
